ARM GAS  C:\Users\DEVELO~1\AppData\Local\Temp\cchy9Tij.s 			page 1


   1              		.cpu cortex-m7
   2              		.arch armv7e-m
   3              		.fpu fpv5-d16
   4              		.eabi_attribute 28, 1
   5              		.eabi_attribute 20, 1
   6              		.eabi_attribute 21, 1
   7              		.eabi_attribute 23, 3
   8              		.eabi_attribute 24, 1
   9              		.eabi_attribute 25, 1
  10              		.eabi_attribute 26, 1
  11              		.eabi_attribute 30, 2
  12              		.eabi_attribute 34, 1
  13              		.eabi_attribute 18, 4
  14              		.file	"audio_codec_ada1979.c"
  15              		.text
  16              	.Ltext0:
  17              		.cfi_sections	.debug_frame
  18              		.section	.text.adau1979_init,"ax",%progbits
  19              		.align	1
  20              		.p2align 2,,3
  21              		.global	adau1979_init
  22              		.syntax unified
  23              		.thumb
  24              		.thumb_func
  25              		.type	adau1979_init, %function
  26              	adau1979_init:
  27              	.LFB453:
  28              		.file 1 "drivers/audio/audio_codec_ada1979.c"
  29              		.loc 1 133 27 view -0
  30              		.cfi_startproc
  31              		@ args = 0, pretend = 0, frame = 8
  32              		@ frame_needed = 0, uses_anonymous_args = 0
  33              		.loc 1 134 5 view .LVU1
  34              		.loc 1 134 18 is_stmt 0 view .LVU2
  35 0000 1D48     		ldr	r0, .L10
  36              		.loc 1 133 27 view .LVU3
  37 0002 F0B5     		push	{r4, r5, r6, r7, lr}
  38              		.cfi_def_cfa_offset 20
  39              		.cfi_offset 4, -20
  40              		.cfi_offset 5, -16
  41              		.cfi_offset 6, -12
  42              		.cfi_offset 7, -8
  43              		.cfi_offset 14, -4
  44              		.loc 1 134 8 view .LVU4
  45 0004 0378     		ldrb	r3, [r0]	@ zero_extendqisi2
  46              		.loc 1 133 27 view .LVU5
  47 0006 87B0     		sub	sp, sp, #28
  48              		.cfi_def_cfa_offset 48
  49              		.loc 1 134 8 view .LVU6
  50 0008 012B     		cmp	r3, #1
  51 000a 2DD0     		beq	.L9
  52              	.L2:
  53              		.loc 1 137 5 is_stmt 1 view .LVU7
  54              	.LBB30:
  55              	.LBI30:
  56              		.loc 1 85 14 view .LVU8
  57              	.LBB31:
ARM GAS  C:\Users\DEVELO~1\AppData\Local\Temp\cchy9Tij.s 			page 2


  58              		.loc 1 86 5 view .LVU9
  59              	.LBB32:
  60              		.loc 1 86 10 view .LVU10
  61              	.LVL0:
  62              		.loc 1 86 26 view .LVU11
  63              	.LBB33:
  64              		.loc 1 87 9 view .LVU12
  65              	.LBB34:
  66              	.LBB35:
  67              		.loc 1 74 12 is_stmt 0 view .LVU13
  68 000c 0124     		movs	r4, #1
  69              	.LBE35:
  70              	.LBE34:
  71              		.loc 1 87 17 view .LVU14
  72 000e 0023     		movs	r3, #0
  73              	.LBB41:
  74              	.LBB36:
  75              		.loc 1 74 12 view .LVU15
  76 0010 6427     		movs	r7, #100
  77 0012 0DF11605 		add	r5, sp, #22
  78 0016 F026     		movs	r6, #240
  79              	.LBE36:
  80              	.LBE41:
  81              		.loc 1 87 17 view .LVU16
  82 0018 8DF81630 		strb	r3, [sp, #22]
  83              		.loc 1 88 9 is_stmt 1 view .LVU17
  84              	.LVL1:
  85              	.LBB42:
  86              	.LBB37:
  87              		.loc 1 74 12 is_stmt 0 view .LVU18
  88 001c 0DF11702 		add	r2, sp, #23
  89 0020 2346     		mov	r3, r4
  90 0022 1121     		movs	r1, #17
  91 0024 1448     		ldr	r0, .L10
  92 0026 0095     		str	r5, [sp]
  93 0028 8DF81760 		strb	r6, [sp, #23]
  94              	.LVL2:
  95              		.loc 1 74 12 view .LVU19
  96              	.LBE37:
  97              	.LBI34:
  98              		.loc 1 73 14 is_stmt 1 view .LVU20
  99              	.LBB38:
 100              		.loc 1 74 5 view .LVU21
 101              		.loc 1 74 12 is_stmt 0 view .LVU22
 102 002c CDE90147 		strd	r4, r7, [sp, #4]
 103 0030 FFF7FEFF 		bl	i2cMasterTransmitTimeout
 104              	.LVL3:
 105              		.loc 1 74 12 view .LVU23
 106              	.LBE38:
 107              	.LBE42:
 108              		.loc 1 89 9 is_stmt 1 view .LVU24
 109              		.loc 1 89 12 is_stmt 0 view .LVU25
 110 0034 B0B9     		cbnz	r0, .L1
 111              		.loc 1 92 9 is_stmt 1 view .LVU26
 112              		.loc 1 92 12 is_stmt 0 view .LVU27
 113 0036 9DF81630 		ldrb	r3, [sp, #22]	@ zero_extendqisi2
 114 003a 792B     		cmp	r3, #121
ARM GAS  C:\Users\DEVELO~1\AppData\Local\Temp\cchy9Tij.s 			page 3


 115 003c 18D1     		bne	.L5
 116              	.LBE33:
 117              		.loc 1 86 31 is_stmt 1 view .LVU28
 118              	.LVL4:
 119              		.loc 1 86 26 view .LVU29
 120              	.LBB44:
 121              		.loc 1 87 9 view .LVU30
 122              		.loc 1 87 17 is_stmt 0 view .LVU31
 123 003e 8DF81600 		strb	r0, [sp, #22]
 124              		.loc 1 88 9 is_stmt 1 view .LVU32
 125              	.LVL5:
 126              	.LBB43:
 127              	.LBB39:
 128              		.loc 1 74 12 is_stmt 0 view .LVU33
 129 0042 2346     		mov	r3, r4
 130 0044 0DF11702 		add	r2, sp, #23
 131 0048 1221     		movs	r1, #18
 132 004a 0B48     		ldr	r0, .L10
 133              	.LVL6:
 134              		.loc 1 74 12 view .LVU34
 135 004c 0297     		str	r7, [sp, #8]
 136 004e 8DF81760 		strb	r6, [sp, #23]
 137              	.LVL7:
 138              		.loc 1 74 12 view .LVU35
 139              	.LBE39:
 140              		.loc 1 73 14 is_stmt 1 view .LVU36
 141              	.LBB40:
 142              		.loc 1 74 5 view .LVU37
 143              		.loc 1 74 12 is_stmt 0 view .LVU38
 144 0052 CDE90054 		strd	r5, r4, [sp]
 145 0056 FFF7FEFF 		bl	i2cMasterTransmitTimeout
 146              	.LVL8:
 147              		.loc 1 74 12 view .LVU39
 148              	.LBE40:
 149              	.LBE43:
 150              		.loc 1 89 9 is_stmt 1 view .LVU40
 151              		.loc 1 89 12 is_stmt 0 view .LVU41
 152 005a 18B9     		cbnz	r0, .L1
 153              		.loc 1 92 9 is_stmt 1 view .LVU42
 154              		.loc 1 92 12 is_stmt 0 view .LVU43
 155 005c 9DF81630 		ldrb	r3, [sp, #22]	@ zero_extendqisi2
 156 0060 792B     		cmp	r3, #121
 157 0062 05D1     		bne	.L5
 158              	.LVL9:
 159              	.L1:
 160              		.loc 1 92 12 view .LVU44
 161              	.LBE44:
 162              	.LBE32:
 163              	.LBE31:
 164              	.LBE30:
 165              		.loc 1 138 1 view .LVU45
 166 0064 07B0     		add	sp, sp, #28
 167              		.cfi_remember_state
 168              		.cfi_def_cfa_offset 20
 169              		@ sp needed
 170 0066 F0BD     		pop	{r4, r5, r6, r7, pc}
 171              	.L9:
ARM GAS  C:\Users\DEVELO~1\AppData\Local\Temp\cchy9Tij.s 			page 4


 172              		.cfi_restore_state
 173              		.loc 1 135 9 is_stmt 1 view .LVU46
 174 0068 0449     		ldr	r1, .L10+4
 175 006a FFF7FEFF 		bl	i2cStart
 176              	.LVL10:
 177 006e CDE7     		b	.L2
 178              	.LVL11:
 179              	.L5:
 180              	.LBB48:
 181              	.LBB47:
 182              	.LBB46:
 183              	.LBB45:
 184              		.loc 1 93 20 is_stmt 0 view .LVU47
 185 0070 6FF00100 		mvn	r0, #1
 186              	.LVL12:
 187              		.loc 1 93 20 view .LVU48
 188 0074 F6E7     		b	.L1
 189              	.L11:
 190 0076 00BF     		.align	2
 191              	.L10:
 192 0078 00000000 		.word	I2CD3
 193 007c 00000000 		.word	.LANCHOR0
 194              	.LBE45:
 195              	.LBE46:
 196              	.LBE47:
 197              	.LBE48:
 198              		.cfi_endproc
 199              	.LFE453:
 200              		.size	adau1979_init, .-adau1979_init
 201              		.section	.text.adau1979_set_default_config,"ax",%progbits
 202              		.align	1
 203              		.p2align 2,,3
 204              		.global	adau1979_set_default_config
 205              		.syntax unified
 206              		.thumb
 207              		.thumb_func
 208              		.type	adau1979_set_default_config, %function
 209              	adau1979_set_default_config:
 210              	.LFB454:
 211              		.loc 1 140 41 is_stmt 1 view -0
 212              		.cfi_startproc
 213              		@ args = 0, pretend = 0, frame = 8
 214              		@ frame_needed = 0, uses_anonymous_args = 0
 215              		.loc 1 142 5 view .LVU50
 216              	.LVL13:
 217              	.LBB131:
 218              	.LBI131:
 219              		.loc 1 77 14 view .LVU51
 220              	.LBB132:
 221              		.loc 1 78 5 view .LVU52
 222              		.loc 1 79 5 view .LVU53
 223              	.LBB133:
 224              		.loc 1 79 10 view .LVU54
 225              		.loc 1 79 26 view .LVU55
 226              		.loc 1 80 9 view .LVU56
 227              	.LBB134:
 228              	.LBI134:
ARM GAS  C:\Users\DEVELO~1\AppData\Local\Temp\cchy9Tij.s 			page 5


 229              		.loc 1 68 14 view .LVU57
 230              	.LBB135:
 231              		.loc 1 69 5 view .LVU58
 232              	.LBE135:
 233              	.LBE134:
 234              	.LBE133:
 235              	.LBE132:
 236              	.LBE131:
 237              		.loc 1 140 41 is_stmt 0 view .LVU59
 238 0000 2DE9F047 		push	{r4, r5, r6, r7, r8, r9, r10, lr}
 239              		.cfi_def_cfa_offset 32
 240              		.cfi_offset 4, -32
 241              		.cfi_offset 5, -28
 242              		.cfi_offset 6, -24
 243              		.cfi_offset 7, -20
 244              		.cfi_offset 8, -16
 245              		.cfi_offset 9, -12
 246              		.cfi_offset 10, -8
 247              		.cfi_offset 14, -4
 248              	.LBB150:
 249              	.LBB147:
 250              	.LBB144:
 251              	.LBB140:
 252              	.LBB136:
 253              		.loc 1 70 12 view .LVU60
 254 0004 0025     		movs	r5, #0
 255              	.LBE136:
 256              	.LBE140:
 257              	.LBE144:
 258              	.LBE147:
 259              	.LBE150:
 260              		.loc 1 140 41 view .LVU61
 261 0006 86B0     		sub	sp, sp, #24
 262              		.cfi_def_cfa_offset 56
 263              	.LBB151:
 264              	.LBB148:
 265              	.LBB145:
 266              	.LBB141:
 267              	.LBB137:
 268              		.loc 1 70 12 view .LVU62
 269 0008 6426     		movs	r6, #100
 270              		.loc 1 69 13 view .LVU63
 271 000a 0427     		movs	r7, #4
 272              		.loc 1 70 12 view .LVU64
 273 000c 0223     		movs	r3, #2
 274 000e 05AA     		add	r2, sp, #20
 275 0010 1121     		movs	r1, #17
 276 0012 5048     		ldr	r0, .L20
 277 0014 0095     		str	r5, [sp]
 278              	.LBE137:
 279              	.LBE141:
 280              	.LBE145:
 281              	.LBE148:
 282              	.LBE151:
 283              	.LBB152:
 284              	.LBB153:
 285              	.LBB154:
ARM GAS  C:\Users\DEVELO~1\AppData\Local\Temp\cchy9Tij.s 			page 6


 286              	.LBB155:
 287              	.LBB156:
 288              		.loc 1 69 13 view .LVU65
 289 0016 4FF00309 		mov	r9, #3
 290              	.LBE156:
 291              	.LBE155:
 292              	.LBE154:
 293              	.LBE153:
 294              	.LBE152:
 295              	.LBB171:
 296              	.LBB149:
 297              	.LBB146:
 298              	.LBB142:
 299              	.LBB138:
 300 001a ADF81470 		strh	r7, [sp, #20]	@ movhi
 301              		.loc 1 70 5 is_stmt 1 view .LVU66
 302              		.loc 1 70 12 is_stmt 0 view .LVU67
 303 001e CDE90156 		strd	r5, r6, [sp, #4]
 304 0022 FFF7FEFF 		bl	i2cMasterTransmitTimeout
 305              	.LVL14:
 306 0026 0223     		movs	r3, #2
 307 0028 0446     		mov	r4, r0
 308              	.LVL15:
 309              		.loc 1 70 12 view .LVU68
 310              	.LBE138:
 311              	.LBE142:
 312              		.loc 1 79 31 is_stmt 1 view .LVU69
 313              		.loc 1 79 26 view .LVU70
 314              		.loc 1 80 9 view .LVU71
 315              	.LBB143:
 316              		.loc 1 68 14 view .LVU72
 317              	.LBB139:
 318              		.loc 1 69 5 view .LVU73
 319              		.loc 1 70 12 is_stmt 0 view .LVU74
 320 002a 05AA     		add	r2, sp, #20
 321 002c 1221     		movs	r1, #18
 322 002e 4948     		ldr	r0, .L20
 323              	.LVL16:
 324              		.loc 1 70 12 view .LVU75
 325 0030 0095     		str	r5, [sp]
 326              		.loc 1 69 13 view .LVU76
 327 0032 ADF81470 		strh	r7, [sp, #20]	@ movhi
 328              		.loc 1 70 5 is_stmt 1 view .LVU77
 329              		.loc 1 70 12 is_stmt 0 view .LVU78
 330 0036 CDE90156 		strd	r5, r6, [sp, #4]
 331 003a FFF7FEFF 		bl	i2cMasterTransmitTimeout
 332              	.LVL17:
 333 003e 8046     		mov	r8, r0
 334              	.LVL18:
 335              		.loc 1 70 12 view .LVU79
 336              	.LBE139:
 337              	.LBE143:
 338              		.loc 1 79 31 is_stmt 1 view .LVU80
 339              		.loc 1 79 26 view .LVU81
 340              		.loc 1 79 26 is_stmt 0 view .LVU82
 341              	.LBE146:
 342              	.LBE149:
ARM GAS  C:\Users\DEVELO~1\AppData\Local\Temp\cchy9Tij.s 			page 7


 343              	.LBE171:
 344              	.LBB172:
 345              	.LBB173:
 346              	.LBB174:
 347              		.loc 1 79 26 is_stmt 1 view .LVU83
 348              		.loc 1 80 9 view .LVU84
 349              	.LBB175:
 350              	.LBI175:
 351              		.loc 1 68 14 view .LVU85
 352              	.LBB176:
 353              		.loc 1 69 5 view .LVU86
 354              		.loc 1 70 12 is_stmt 0 view .LVU87
 355 0040 0223     		movs	r3, #2
 356 0042 05AA     		add	r2, sp, #20
 357 0044 1121     		movs	r1, #17
 358 0046 4348     		ldr	r0, .L20
 359 0048 0095     		str	r5, [sp]
 360 004a 44EA0804 		orr	r4, r4, r8
 361              		.loc 1 69 13 view .LVU88
 362 004e ADF81470 		strh	r7, [sp, #20]	@ movhi
 363              		.loc 1 70 5 is_stmt 1 view .LVU89
 364              	.LBE176:
 365              	.LBE175:
 366              	.LBE174:
 367              	.LBE173:
 368              	.LBE172:
 369              	.LBB187:
 370              	.LBB188:
 371              	.LBB189:
 372              	.LBB190:
 373              	.LBB191:
 374              		.loc 1 69 13 is_stmt 0 view .LVU90
 375 0052 4FF00208 		mov	r8, #2
 376              	.LBE191:
 377              	.LBE190:
 378              	.LBE189:
 379              	.LBE188:
 380              	.LBE187:
 381              	.LBB202:
 382              	.LBB185:
 383              	.LBB183:
 384              	.LBB180:
 385              	.LBB177:
 386              		.loc 1 70 12 view .LVU91
 387 0056 CDE90156 		strd	r5, r6, [sp, #4]
 388 005a FFF7FEFF 		bl	i2cMasterTransmitTimeout
 389              	.LVL19:
 390              		.loc 1 69 13 view .LVU92
 391 005e ADF81470 		strh	r7, [sp, #20]	@ movhi
 392              		.loc 1 70 12 view .LVU93
 393 0062 0746     		mov	r7, r0
 394              	.LVL20:
 395              		.loc 1 70 12 view .LVU94
 396              	.LBE177:
 397              	.LBE180:
 398              		.loc 1 79 31 is_stmt 1 view .LVU95
 399              		.loc 1 79 26 view .LVU96
ARM GAS  C:\Users\DEVELO~1\AppData\Local\Temp\cchy9Tij.s 			page 8


 400              		.loc 1 80 9 view .LVU97
 401              	.LBB181:
 402              		.loc 1 68 14 view .LVU98
 403              	.LBB178:
 404              		.loc 1 69 5 view .LVU99
 405              		.loc 1 70 5 view .LVU100
 406              		.loc 1 70 12 is_stmt 0 view .LVU101
 407 0064 0223     		movs	r3, #2
 408 0066 05AA     		add	r2, sp, #20
 409 0068 1221     		movs	r1, #18
 410 006a 3C43     		orrs	r4, r4, r7
 411 006c 3948     		ldr	r0, .L20
 412              	.LVL21:
 413              		.loc 1 70 12 view .LVU102
 414              	.LBE178:
 415              	.LBE181:
 416              	.LBE183:
 417              	.LBE185:
 418              	.LBE202:
 419              	.LBB203:
 420              	.LBB204:
 421              	.LBB205:
 422              	.LBB206:
 423              	.LBB207:
 424              		.loc 1 69 13 view .LVU103
 425 006e 4FF48077 		mov	r7, #256
 426              	.LVL22:
 427              		.loc 1 69 13 view .LVU104
 428              	.LBE207:
 429              	.LBE206:
 430              	.LBE205:
 431              	.LBE204:
 432              	.LBE203:
 433              	.LBB222:
 434              	.LBB186:
 435              	.LBB184:
 436              	.LBB182:
 437              	.LBB179:
 438              		.loc 1 70 12 view .LVU105
 439 0072 0095     		str	r5, [sp]
 440 0074 CDE90156 		strd	r5, r6, [sp, #4]
 441 0078 FFF7FEFF 		bl	i2cMasterTransmitTimeout
 442              	.LVL23:
 443              		.loc 1 70 12 view .LVU106
 444              	.LBE179:
 445              	.LBE182:
 446              		.loc 1 79 31 is_stmt 1 view .LVU107
 447              		.loc 1 79 26 view .LVU108
 448              	.LBE184:
 449              		.loc 1 82 5 view .LVU109
 450              		.loc 1 82 5 is_stmt 0 view .LVU110
 451              	.LBE186:
 452              	.LBE222:
 453              	.LBB223:
 454              	.LBB219:
 455              	.LBB216:
 456              	.LBB212:
ARM GAS  C:\Users\DEVELO~1\AppData\Local\Temp\cchy9Tij.s 			page 9


 457              	.LBB208:
 458              		.loc 1 70 12 view .LVU111
 459 007c 0223     		movs	r3, #2
 460 007e 0443     		orrs	r4, r4, r0
 461              	.LVL24:
 462              		.loc 1 70 12 view .LVU112
 463              	.LBE208:
 464              	.LBE212:
 465              	.LBE216:
 466              	.LBE219:
 467              	.LBE223:
 468              		.loc 1 151 5 is_stmt 1 view .LVU113
 469              	.LBB224:
 470              	.LBI203:
 471              		.loc 1 77 14 view .LVU114
 472              	.LBB220:
 473              	.LBB217:
 474              		.loc 1 79 26 view .LVU115
 475              		.loc 1 80 9 view .LVU116
 476              	.LBB213:
 477              	.LBI206:
 478              		.loc 1 68 14 view .LVU117
 479              	.LBB209:
 480              		.loc 1 69 5 view .LVU118
 481              		.loc 1 70 12 is_stmt 0 view .LVU119
 482 0080 05AA     		add	r2, sp, #20
 483 0082 1121     		movs	r1, #17
 484 0084 3348     		ldr	r0, .L20
 485 0086 0095     		str	r5, [sp]
 486              		.loc 1 69 13 view .LVU120
 487 0088 ADF81470 		strh	r7, [sp, #20]	@ movhi
 488              		.loc 1 70 5 is_stmt 1 view .LVU121
 489              		.loc 1 70 12 is_stmt 0 view .LVU122
 490 008c CDE90156 		strd	r5, r6, [sp, #4]
 491 0090 FFF7FEFF 		bl	i2cMasterTransmitTimeout
 492              	.LVL25:
 493              		.loc 1 69 13 view .LVU123
 494 0094 ADF81470 		strh	r7, [sp, #20]	@ movhi
 495              		.loc 1 70 12 view .LVU124
 496 0098 0746     		mov	r7, r0
 497              	.LVL26:
 498              		.loc 1 70 12 view .LVU125
 499              	.LBE209:
 500              	.LBE213:
 501              		.loc 1 79 31 is_stmt 1 view .LVU126
 502              		.loc 1 79 26 view .LVU127
 503              		.loc 1 80 9 view .LVU128
 504              	.LBB214:
 505              		.loc 1 68 14 view .LVU129
 506              	.LBB210:
 507              		.loc 1 69 5 view .LVU130
 508              		.loc 1 70 5 view .LVU131
 509              		.loc 1 70 12 is_stmt 0 view .LVU132
 510 009a 0223     		movs	r3, #2
 511 009c 05AA     		add	r2, sp, #20
 512 009e 1221     		movs	r1, #18
 513 00a0 2743     		orrs	r7, r7, r4
ARM GAS  C:\Users\DEVELO~1\AppData\Local\Temp\cchy9Tij.s 			page 10


 514 00a2 2C48     		ldr	r0, .L20
 515              	.LVL27:
 516              		.loc 1 70 12 view .LVU133
 517              	.LBE210:
 518              	.LBE214:
 519              	.LBE217:
 520              	.LBE220:
 521              	.LBE224:
 522              	.LBB225:
 523              	.LBB226:
 524              	.LBB227:
 525              	.LBB228:
 526              	.LBB229:
 527              		.loc 1 69 13 view .LVU134
 528 00a4 44F20114 		movw	r4, #16641
 529              	.LBE229:
 530              	.LBE228:
 531              	.LBE227:
 532              	.LBE226:
 533              	.LBE225:
 534              	.LBB240:
 535              	.LBB221:
 536              	.LBB218:
 537              	.LBB215:
 538              	.LBB211:
 539              		.loc 1 70 12 view .LVU135
 540 00a8 0296     		str	r6, [sp, #8]
 541 00aa CDE90055 		strd	r5, r5, [sp]
 542 00ae FFF7FEFF 		bl	i2cMasterTransmitTimeout
 543              	.LVL28:
 544              		.loc 1 70 12 view .LVU136
 545              	.LBE211:
 546              	.LBE215:
 547              		.loc 1 79 31 is_stmt 1 view .LVU137
 548              		.loc 1 79 26 view .LVU138
 549              	.LBE218:
 550              		.loc 1 82 5 view .LVU139
 551              		.loc 1 82 5 is_stmt 0 view .LVU140
 552              	.LBE221:
 553              	.LBE240:
 554              	.LBB241:
 555              	.LBB238:
 556              	.LBB236:
 557              	.LBB233:
 558              	.LBB230:
 559              		.loc 1 70 12 view .LVU141
 560 00b2 0223     		movs	r3, #2
 561 00b4 0743     		orrs	r7, r7, r0
 562              		.loc 1 70 12 view .LVU142
 563              	.LBE230:
 564              	.LBE233:
 565              	.LBE236:
 566              	.LBE238:
 567              	.LBE241:
 568              		.loc 1 152 5 is_stmt 1 view .LVU143
 569              	.LVL29:
 570              	.LBB242:
ARM GAS  C:\Users\DEVELO~1\AppData\Local\Temp\cchy9Tij.s 			page 11


 571              	.LBI225:
 572              		.loc 1 77 14 view .LVU144
 573              	.LBB239:
 574              	.LBB237:
 575              		.loc 1 79 26 view .LVU145
 576              		.loc 1 80 9 view .LVU146
 577              	.LBB234:
 578              	.LBI228:
 579              		.loc 1 68 14 view .LVU147
 580              	.LBB231:
 581              		.loc 1 69 5 view .LVU148
 582              		.loc 1 70 12 is_stmt 0 view .LVU149
 583 00b6 05AA     		add	r2, sp, #20
 584 00b8 1121     		movs	r1, #17
 585 00ba 2648     		ldr	r0, .L20
 586 00bc 0095     		str	r5, [sp]
 587              		.loc 1 69 13 view .LVU150
 588 00be ADF81440 		strh	r4, [sp, #20]	@ movhi
 589              		.loc 1 70 5 is_stmt 1 view .LVU151
 590              		.loc 1 70 12 is_stmt 0 view .LVU152
 591 00c2 CDE90156 		strd	r5, r6, [sp, #4]
 592 00c6 FFF7FEFF 		bl	i2cMasterTransmitTimeout
 593              	.LVL30:
 594              		.loc 1 69 13 view .LVU153
 595 00ca ADF81440 		strh	r4, [sp, #20]	@ movhi
 596              		.loc 1 70 12 view .LVU154
 597 00ce 0446     		mov	r4, r0
 598              	.LVL31:
 599              		.loc 1 70 12 view .LVU155
 600              	.LBE231:
 601              	.LBE234:
 602              		.loc 1 79 31 is_stmt 1 view .LVU156
 603              		.loc 1 79 26 view .LVU157
 604              		.loc 1 80 9 view .LVU158
 605              	.LBB235:
 606              		.loc 1 68 14 view .LVU159
 607              	.LBB232:
 608              		.loc 1 69 5 view .LVU160
 609              		.loc 1 70 5 view .LVU161
 610              		.loc 1 70 12 is_stmt 0 view .LVU162
 611 00d0 4346     		mov	r3, r8
 612 00d2 05AA     		add	r2, sp, #20
 613 00d4 1221     		movs	r1, #18
 614 00d6 3C43     		orrs	r4, r4, r7
 615 00d8 1E48     		ldr	r0, .L20
 616              	.LVL32:
 617              		.loc 1 70 12 view .LVU163
 618 00da 0296     		str	r6, [sp, #8]
 619 00dc CDE90055 		strd	r5, r5, [sp]
 620 00e0 FFF7FEFF 		bl	i2cMasterTransmitTimeout
 621              	.LVL33:
 622              		.loc 1 70 12 view .LVU164
 623              	.LBE232:
 624              	.LBE235:
 625              		.loc 1 79 31 is_stmt 1 view .LVU165
 626              		.loc 1 79 26 view .LVU166
 627              	.LBE237:
ARM GAS  C:\Users\DEVELO~1\AppData\Local\Temp\cchy9Tij.s 			page 12


 628              		.loc 1 82 5 view .LVU167
 629              		.loc 1 82 5 is_stmt 0 view .LVU168
 630              	.LBE239:
 631              	.LBE242:
 632              	.LBB243:
 633              	.LBB200:
 634              	.LBB198:
 635              	.LBB195:
 636              	.LBB192:
 637              		.loc 1 70 12 view .LVU169
 638 00e4 4346     		mov	r3, r8
 639 00e6 0443     		orrs	r4, r4, r0
 640              		.loc 1 70 12 view .LVU170
 641              	.LBE192:
 642              	.LBE195:
 643              	.LBE198:
 644              	.LBE200:
 645              	.LBE243:
 646              		.loc 1 154 5 is_stmt 1 view .LVU171
 647              	.LVL34:
 648              	.LBB244:
 649              	.LBI187:
 650              		.loc 1 77 14 view .LVU172
 651              	.LBB201:
 652              	.LBB199:
 653              		.loc 1 79 26 view .LVU173
 654              		.loc 1 80 9 view .LVU174
 655              	.LBB196:
 656              	.LBI190:
 657              		.loc 1 68 14 view .LVU175
 658              	.LBB193:
 659              		.loc 1 69 5 view .LVU176
 660              		.loc 1 70 12 is_stmt 0 view .LVU177
 661 00e8 05AA     		add	r2, sp, #20
 662 00ea 1121     		movs	r1, #17
 663 00ec 1948     		ldr	r0, .L20
 664 00ee 0095     		str	r5, [sp]
 665              		.loc 1 69 13 view .LVU178
 666 00f0 ADF81480 		strh	r8, [sp, #20]	@ movhi
 667              		.loc 1 70 5 is_stmt 1 view .LVU179
 668              		.loc 1 70 12 is_stmt 0 view .LVU180
 669 00f4 CDE90156 		strd	r5, r6, [sp, #4]
 670 00f8 FFF7FEFF 		bl	i2cMasterTransmitTimeout
 671              	.LVL35:
 672 00fc 0746     		mov	r7, r0
 673              	.LVL36:
 674              		.loc 1 70 12 view .LVU181
 675              	.LBE193:
 676              	.LBE196:
 677              		.loc 1 79 31 is_stmt 1 view .LVU182
 678              		.loc 1 79 26 view .LVU183
 679              		.loc 1 80 9 view .LVU184
 680              	.LBB197:
 681              		.loc 1 68 14 view .LVU185
 682              	.LBB194:
 683              		.loc 1 69 5 view .LVU186
 684              		.loc 1 70 12 is_stmt 0 view .LVU187
ARM GAS  C:\Users\DEVELO~1\AppData\Local\Temp\cchy9Tij.s 			page 13


 685 00fe 4346     		mov	r3, r8
 686 0100 05AA     		add	r2, sp, #20
 687 0102 2743     		orrs	r7, r7, r4
 688 0104 1221     		movs	r1, #18
 689 0106 1348     		ldr	r0, .L20
 690              	.LVL37:
 691              		.loc 1 70 12 view .LVU188
 692 0108 0095     		str	r5, [sp]
 693              		.loc 1 69 13 view .LVU189
 694 010a ADF81480 		strh	r8, [sp, #20]	@ movhi
 695              		.loc 1 70 5 is_stmt 1 view .LVU190
 696              		.loc 1 70 12 is_stmt 0 view .LVU191
 697 010e CDE90156 		strd	r5, r6, [sp, #4]
 698 0112 FFF7FEFF 		bl	i2cMasterTransmitTimeout
 699              	.LVL38:
 700              		.loc 1 70 12 view .LVU192
 701              	.LBE194:
 702              	.LBE197:
 703              		.loc 1 79 31 is_stmt 1 view .LVU193
 704              		.loc 1 79 26 view .LVU194
 705              	.LBE199:
 706              		.loc 1 82 5 view .LVU195
 707              		.loc 1 82 5 is_stmt 0 view .LVU196
 708              	.LBE201:
 709              	.LBE244:
 710              	.LBB245:
 711              	.LBB168:
 712              	.LBB165:
 713              	.LBB161:
 714              	.LBB157:
 715              		.loc 1 70 12 view .LVU197
 716 0116 4346     		mov	r3, r8
 717 0118 0743     		orrs	r7, r7, r0
 718              		.loc 1 70 12 view .LVU198
 719              	.LBE157:
 720              	.LBE161:
 721              	.LBE165:
 722              	.LBE168:
 723              	.LBE245:
 724              		.loc 1 155 5 is_stmt 1 view .LVU199
 725              	.LVL39:
 726              	.LBB246:
 727              	.LBI152:
 728              		.loc 1 77 14 view .LVU200
 729              	.LBB169:
 730              	.LBB166:
 731              		.loc 1 79 26 view .LVU201
 732              		.loc 1 80 9 view .LVU202
 733              	.LBB162:
 734              	.LBI155:
 735              		.loc 1 68 14 view .LVU203
 736              	.LBB158:
 737              		.loc 1 69 5 view .LVU204
 738              		.loc 1 70 12 is_stmt 0 view .LVU205
 739 011a 05AA     		add	r2, sp, #20
 740 011c 1121     		movs	r1, #17
 741 011e 0D48     		ldr	r0, .L20
ARM GAS  C:\Users\DEVELO~1\AppData\Local\Temp\cchy9Tij.s 			page 14


 742 0120 0095     		str	r5, [sp]
 743              		.loc 1 69 13 view .LVU206
 744 0122 ADF81490 		strh	r9, [sp, #20]	@ movhi
 745              		.loc 1 70 5 is_stmt 1 view .LVU207
 746              		.loc 1 70 12 is_stmt 0 view .LVU208
 747 0126 CDE90156 		strd	r5, r6, [sp, #4]
 748 012a FFF7FEFF 		bl	i2cMasterTransmitTimeout
 749              	.LVL40:
 750 012e 0446     		mov	r4, r0
 751              	.LVL41:
 752              		.loc 1 70 12 view .LVU209
 753              	.LBE158:
 754              	.LBE162:
 755              		.loc 1 79 31 is_stmt 1 view .LVU210
 756              		.loc 1 79 26 view .LVU211
 757              		.loc 1 80 9 view .LVU212
 758              	.LBB163:
 759              		.loc 1 68 14 view .LVU213
 760              	.LBB159:
 761              		.loc 1 69 5 view .LVU214
 762              		.loc 1 70 5 view .LVU215
 763              		.loc 1 70 12 is_stmt 0 view .LVU216
 764 0130 4346     		mov	r3, r8
 765 0132 05AA     		add	r2, sp, #20
 766              	.LBE159:
 767              	.LBE163:
 768              	.LBE166:
 769              	.LBE169:
 770              	.LBE246:
 771              		.loc 1 155 8 view .LVU217
 772 0134 3C43     		orrs	r4, r4, r7
 773              	.LBB247:
 774              	.LBB170:
 775              	.LBB167:
 776              	.LBB164:
 777              	.LBB160:
 778              		.loc 1 70 12 view .LVU218
 779 0136 1221     		movs	r1, #18
 780 0138 0648     		ldr	r0, .L20
 781              	.LVL42:
 782              		.loc 1 70 12 view .LVU219
 783 013a 0296     		str	r6, [sp, #8]
 784              		.loc 1 69 13 view .LVU220
 785 013c ADF81490 		strh	r9, [sp, #20]	@ movhi
 786              		.loc 1 70 12 view .LVU221
 787 0140 CDE90055 		strd	r5, r5, [sp]
 788 0144 FFF7FEFF 		bl	i2cMasterTransmitTimeout
 789              	.LVL43:
 790              		.loc 1 70 12 view .LVU222
 791              	.LBE160:
 792              	.LBE164:
 793              		.loc 1 79 31 is_stmt 1 view .LVU223
 794              		.loc 1 79 26 view .LVU224
 795              	.LBE167:
 796              		.loc 1 82 5 view .LVU225
 797              		.loc 1 82 5 is_stmt 0 view .LVU226
 798              	.LBE170:
ARM GAS  C:\Users\DEVELO~1\AppData\Local\Temp\cchy9Tij.s 			page 15


 799              	.LBE247:
 800              		.loc 1 156 5 is_stmt 1 view .LVU227
 801              		.loc 1 156 8 is_stmt 0 view .LVU228
 802 0148 0443     		orrs	r4, r4, r0
 803              	.LVL44:
 804              		.loc 1 156 8 view .LVU229
 805 014a 05D0     		beq	.L19
 806              	.LVL45:
 807              	.L12:
 808              		.loc 1 191 1 view .LVU230
 809 014c 2046     		mov	r0, r4
 810 014e 06B0     		add	sp, sp, #24
 811              		.cfi_remember_state
 812              		.cfi_def_cfa_offset 32
 813              		@ sp needed
 814 0150 BDE8F087 		pop	{r4, r5, r6, r7, r8, r9, r10, pc}
 815              	.L21:
 816              		.align	2
 817              	.L20:
 818 0154 00000000 		.word	I2CD3
 819              	.LVL46:
 820              	.L19:
 821              		.cfi_restore_state
 822              		.loc 1 160 5 is_stmt 1 view .LVU231
 823              	.LBB248:
 824              	.LBI248:
 825              		.loc 1 100 14 view .LVU232
 826              	.LBB249:
 827              		.loc 1 101 5 view .LVU233
 828              	.LBB250:
 829              	.LBI250:
 830              		.file 2 "./docs/ChibiOS/os/rt/include/chvt.h"
 831              		.loc 2 135 25 view .LVU234
 832              		.loc 2 140 3 view .LVU235
 833              	.LBB251:
 834              	.LBI251:
 835              		.file 3 "./docs/ChibiOS/os/hal/osal/rt-nil/chcore_timer.h"
 836              		.loc 3 111 25 view .LVU236
 837              	.LBB252:
 838              		.loc 3 113 3 view .LVU237
 839              		.loc 3 113 10 is_stmt 0 view .LVU238
 840 0158 FFF7FEFF 		bl	stGetCounter
 841              	.LVL47:
 842 015c 0DF11307 		add	r7, sp, #19
 843              	.LBE252:
 844              	.LBE251:
 845              	.LBE250:
 846              	.LBB255:
 847              	.LBB256:
 848              	.LBB257:
 849              		.loc 1 107 21 view .LVU239
 850 0160 A246     		mov	r10, r4
 851              	.LBE257:
 852              	.LBE256:
 853              	.LBE255:
 854              	.LBB286:
 855              	.LBB254:
ARM GAS  C:\Users\DEVELO~1\AppData\Local\Temp\cchy9Tij.s 			page 16


 856              	.LBB253:
 857              		.loc 3 113 10 view .LVU240
 858 0162 8146     		mov	r9, r0
 859              	.LVL48:
 860              		.loc 3 113 10 view .LVU241
 861              	.LBE253:
 862              	.LBE254:
 863              	.LBE286:
 864              		.loc 1 102 5 is_stmt 1 view .LVU242
 865              		.loc 1 102 5 is_stmt 0 view .LVU243
 866 0164 0125     		movs	r5, #1
 867              	.LBB287:
 868              	.LBB276:
 869              	.LBB272:
 870              	.LBB258:
 871              	.LBB259:
 872              		.loc 1 74 12 view .LVU244
 873 0166 DFF83482 		ldr	r8, .L22
 874              	.LVL49:
 875              	.L16:
 876              		.loc 1 74 12 view .LVU245
 877              	.LBE259:
 878              	.LBE258:
 879              	.LBE272:
 880              	.LBE276:
 881              	.LBE287:
 882              		.loc 1 104 5 is_stmt 1 view .LVU246
 883              	.LBB288:
 884              		.loc 1 105 9 view .LVU247
 885              		.loc 1 106 9 view .LVU248
 886              	.LBB277:
 887              		.loc 1 106 14 view .LVU249
 888              		.loc 1 106 30 view .LVU250
 889              	.LBB273:
 890              		.loc 1 107 13 view .LVU251
 891              	.LBB266:
 892              	.LBB260:
 893              		.loc 1 74 12 is_stmt 0 view .LVU252
 894 016a 6426     		movs	r6, #100
 895 016c 0123     		movs	r3, #1
 896 016e 05AA     		add	r2, sp, #20
 897 0170 1121     		movs	r1, #17
 898 0172 4046     		mov	r0, r8
 899 0174 0296     		str	r6, [sp, #8]
 900              	.LBE260:
 901              	.LBE266:
 902              		.loc 1 107 21 view .LVU253
 903 0176 8DF813A0 		strb	r10, [sp, #19]
 904              		.loc 1 108 13 is_stmt 1 view .LVU254
 905              	.LVL50:
 906              		.loc 1 108 13 is_stmt 0 view .LVU255
 907 017a 8DF81450 		strb	r5, [sp, #20]
 908              	.LVL51:
 909              	.LBB267:
 910              	.LBI258:
 911              		.loc 1 73 14 is_stmt 1 view .LVU256
 912              	.LBB261:
ARM GAS  C:\Users\DEVELO~1\AppData\Local\Temp\cchy9Tij.s 			page 17


 913              		.loc 1 74 5 view .LVU257
 914              		.loc 1 74 12 is_stmt 0 view .LVU258
 915 017e CDE90075 		strd	r7, r5, [sp]
 916 0182 FFF7FEFF 		bl	i2cMasterTransmitTimeout
 917              	.LVL52:
 918              		.loc 1 74 12 view .LVU259
 919              	.LBE261:
 920              	.LBE267:
 921              		.loc 1 112 13 is_stmt 1 view .LVU260
 922              	.LBE273:
 923              		.loc 1 106 35 view .LVU261
 924              		.loc 1 106 30 view .LVU262
 925              	.LBB274:
 926              		.loc 1 107 13 view .LVU263
 927              	.LBB268:
 928              	.LBB262:
 929              		.loc 1 74 12 is_stmt 0 view .LVU264
 930 0186 0446     		mov	r4, r0
 931              	.LVL53:
 932              		.loc 1 74 12 view .LVU265
 933              	.LBE262:
 934              	.LBE268:
 935              		.loc 1 109 13 is_stmt 1 view .LVU266
 936              	.LBB269:
 937              	.LBB263:
 938              		.loc 1 74 12 is_stmt 0 view .LVU267
 939 0188 0123     		movs	r3, #1
 940 018a 05AA     		add	r2, sp, #20
 941 018c 1221     		movs	r1, #18
 942 018e 4046     		mov	r0, r8
 943              	.LVL54:
 944              		.loc 1 74 12 view .LVU268
 945              	.LBE263:
 946              	.LBE269:
 947              		.loc 1 109 16 view .LVU269
 948 0190 002C     		cmp	r4, #0
 949 0192 DBD1     		bne	.L12
 950              		.loc 1 112 16 view .LVU270
 951 0194 9DF913C0 		ldrsb	ip, [sp, #19]
 952 0198 BCF1000F 		cmp	ip, #0
 953 019c 80F2F080 		bge	.L15
 954              	.LBB270:
 955              	.LBB264:
 956              		.loc 1 74 12 view .LVU271
 957 01a0 0097     		str	r7, [sp]
 958              	.LBE264:
 959              	.LBE270:
 960              		.loc 1 107 21 view .LVU272
 961 01a2 8DF81340 		strb	r4, [sp, #19]
 962              		.loc 1 108 13 is_stmt 1 view .LVU273
 963              	.LVL55:
 964              		.loc 1 108 13 is_stmt 0 view .LVU274
 965 01a6 8DF81450 		strb	r5, [sp, #20]
 966              	.LVL56:
 967              	.LBB271:
 968              		.loc 1 73 14 is_stmt 1 view .LVU275
 969              	.LBB265:
ARM GAS  C:\Users\DEVELO~1\AppData\Local\Temp\cchy9Tij.s 			page 18


 970              		.loc 1 74 5 view .LVU276
 971              		.loc 1 74 12 is_stmt 0 view .LVU277
 972 01aa CDE90156 		strd	r5, r6, [sp, #4]
 973 01ae FFF7FEFF 		bl	i2cMasterTransmitTimeout
 974              	.LVL57:
 975              		.loc 1 74 12 view .LVU278
 976              	.LBE265:
 977              	.LBE271:
 978              		.loc 1 112 13 is_stmt 1 view .LVU279
 979              		.loc 1 109 13 view .LVU280
 980              		.loc 1 109 16 is_stmt 0 view .LVU281
 981 01b2 0446     		mov	r4, r0
 982 01b4 0028     		cmp	r0, #0
 983 01b6 C9D1     		bne	.L12
 984              		.loc 1 112 16 view .LVU282
 985 01b8 9DF91330 		ldrsb	r3, [sp, #19]
 986 01bc 002B     		cmp	r3, #0
 987 01be 80F2DF80 		bge	.L15
 988              	.LBE274:
 989              		.loc 1 106 35 is_stmt 1 view .LVU283
 990              	.LVL58:
 991              		.loc 1 106 30 view .LVU284
 992              		.loc 1 106 30 is_stmt 0 view .LVU285
 993              	.LBE277:
 994              	.LBE288:
 995              	.LBE249:
 996              	.LBE248:
 997              		.loc 1 161 5 is_stmt 1 view .LVU286
 998              	.LBB292:
 999              	.LBB293:
 1000              	.LBB294:
 1001              		.loc 1 79 26 view .LVU287
 1002              		.loc 1 80 9 view .LVU288
 1003              	.LBB295:
 1004              	.LBI295:
 1005              		.loc 1 68 14 view .LVU289
 1006              	.LBB296:
 1007              		.loc 1 69 5 view .LVU290
 1008              		.loc 1 69 13 is_stmt 0 view .LVU291
 1009 01c2 44F60507 		movw	r7, #18437
 1010              		.loc 1 70 12 view .LVU292
 1011 01c6 05AA     		add	r2, sp, #20
 1012 01c8 0223     		movs	r3, #2
 1013 01ca 1121     		movs	r1, #17
 1014 01cc 0296     		str	r6, [sp, #8]
 1015              		.loc 1 69 13 view .LVU293
 1016 01ce ADF81470 		strh	r7, [sp, #20]	@ movhi
 1017              		.loc 1 70 5 is_stmt 1 view .LVU294
 1018              		.loc 1 70 12 is_stmt 0 view .LVU295
 1019 01d2 CDE90000 		strd	r0, r0, [sp]
 1020 01d6 7148     		ldr	r0, .L22
 1021 01d8 FFF7FEFF 		bl	i2cMasterTransmitTimeout
 1022              	.LVL59:
 1023 01dc 05AA     		add	r2, sp, #20
 1024 01de 0546     		mov	r5, r0
 1025              	.LVL60:
 1026              		.loc 1 70 12 view .LVU296
ARM GAS  C:\Users\DEVELO~1\AppData\Local\Temp\cchy9Tij.s 			page 19


 1027              	.LBE296:
 1028              	.LBE295:
 1029              		.loc 1 79 31 is_stmt 1 view .LVU297
 1030              		.loc 1 79 26 view .LVU298
 1031              		.loc 1 80 9 view .LVU299
 1032              	.LBB299:
 1033              		.loc 1 68 14 view .LVU300
 1034              	.LBB297:
 1035              		.loc 1 69 5 view .LVU301
 1036              		.loc 1 70 12 is_stmt 0 view .LVU302
 1037 01e0 0223     		movs	r3, #2
 1038 01e2 1221     		movs	r1, #18
 1039 01e4 0296     		str	r6, [sp, #8]
 1040 01e6 6D48     		ldr	r0, .L22
 1041              	.LVL61:
 1042              		.loc 1 69 13 view .LVU303
 1043 01e8 ADF81470 		strh	r7, [sp, #20]	@ movhi
 1044              		.loc 1 70 5 is_stmt 1 view .LVU304
 1045              	.LBE297:
 1046              	.LBE299:
 1047              	.LBE294:
 1048              	.LBE293:
 1049              	.LBE292:
 1050              	.LBB305:
 1051              	.LBB306:
 1052              	.LBB307:
 1053              	.LBB308:
 1054              	.LBB309:
 1055              		.loc 1 69 13 is_stmt 0 view .LVU305
 1056 01ec 40F60477 		movw	r7, #3844
 1057              	.LBE309:
 1058              	.LBE308:
 1059              	.LBE307:
 1060              	.LBE306:
 1061              	.LBE305:
 1062              	.LBB320:
 1063              	.LBB303:
 1064              	.LBB301:
 1065              	.LBB300:
 1066              	.LBB298:
 1067              		.loc 1 70 12 view .LVU306
 1068 01f0 CDE90044 		strd	r4, r4, [sp]
 1069 01f4 FFF7FEFF 		bl	i2cMasterTransmitTimeout
 1070              	.LVL62:
 1071              		.loc 1 70 12 view .LVU307
 1072              	.LBE298:
 1073              	.LBE300:
 1074              	.LBE301:
 1075              	.LBE303:
 1076              	.LBE320:
 1077              	.LBB321:
 1078              	.LBB322:
 1079              		.loc 1 69 13 view .LVU308
 1080 01f8 0723     		movs	r3, #7
 1081              		.loc 1 70 12 view .LVU309
 1082 01fa 05AA     		add	r2, sp, #20
 1083              	.LBE322:
ARM GAS  C:\Users\DEVELO~1\AppData\Local\Temp\cchy9Tij.s 			page 20


 1084              	.LBE321:
 1085              	.LBB324:
 1086              	.LBB304:
 1087              	.LBB302:
 1088              		.loc 1 80 12 view .LVU310
 1089 01fc 0543     		orrs	r5, r5, r0
 1090              	.LVL63:
 1091              		.loc 1 79 31 is_stmt 1 view .LVU311
 1092              		.loc 1 79 26 view .LVU312
 1093              	.LBE302:
 1094              		.loc 1 82 5 view .LVU313
 1095              		.loc 1 82 5 is_stmt 0 view .LVU314
 1096              	.LBE304:
 1097              	.LBE324:
 1098              		.loc 1 174 5 is_stmt 1 view .LVU315
 1099              	.LBB325:
 1100              	.LBI321:
 1101              		.loc 1 68 14 view .LVU316
 1102              	.LBB323:
 1103              		.loc 1 69 5 view .LVU317
 1104              		.loc 1 69 13 is_stmt 0 view .LVU318
 1105 01fe ADF81430 		strh	r3, [sp, #20]	@ movhi
 1106              		.loc 1 70 5 is_stmt 1 view .LVU319
 1107              		.loc 1 70 12 is_stmt 0 view .LVU320
 1108 0202 1121     		movs	r1, #17
 1109 0204 0223     		movs	r3, #2
 1110 0206 0296     		str	r6, [sp, #8]
 1111 0208 6448     		ldr	r0, .L22
 1112 020a CDE90044 		strd	r4, r4, [sp]
 1113 020e FFF7FEFF 		bl	i2cMasterTransmitTimeout
 1114              	.LVL64:
 1115              		.loc 1 70 12 view .LVU321
 1116              	.LBE323:
 1117              	.LBE325:
 1118              	.LBB326:
 1119              	.LBB327:
 1120              		.loc 1 69 13 view .LVU322
 1121 0212 42F20813 		movw	r3, #8456
 1122              		.loc 1 70 12 view .LVU323
 1123 0216 05AA     		add	r2, sp, #20
 1124              	.LBE327:
 1125              	.LBE326:
 1126              		.loc 1 174 8 view .LVU324
 1127 0218 0543     		orrs	r5, r5, r0
 1128              	.LVL65:
 1129              		.loc 1 175 5 is_stmt 1 view .LVU325
 1130              	.LBB329:
 1131              	.LBI326:
 1132              		.loc 1 68 14 view .LVU326
 1133              	.LBB328:
 1134              		.loc 1 69 5 view .LVU327
 1135              		.loc 1 69 13 is_stmt 0 view .LVU328
 1136 021a ADF81430 		strh	r3, [sp, #20]	@ movhi
 1137              		.loc 1 70 5 is_stmt 1 view .LVU329
 1138              		.loc 1 70 12 is_stmt 0 view .LVU330
 1139 021e 1121     		movs	r1, #17
 1140 0220 0223     		movs	r3, #2
ARM GAS  C:\Users\DEVELO~1\AppData\Local\Temp\cchy9Tij.s 			page 21


 1141 0222 0296     		str	r6, [sp, #8]
 1142 0224 5D48     		ldr	r0, .L22
 1143 0226 CDE90044 		strd	r4, r4, [sp]
 1144 022a FFF7FEFF 		bl	i2cMasterTransmitTimeout
 1145              	.LVL66:
 1146              		.loc 1 70 12 view .LVU331
 1147              	.LBE328:
 1148              	.LBE329:
 1149              	.LBB330:
 1150              	.LBB331:
 1151              		.loc 1 69 13 view .LVU332
 1152 022e 44F20923 		movw	r3, #16905
 1153              		.loc 1 70 12 view .LVU333
 1154 0232 05AA     		add	r2, sp, #20
 1155              	.LBE331:
 1156              	.LBE330:
 1157              		.loc 1 175 8 view .LVU334
 1158 0234 0543     		orrs	r5, r5, r0
 1159              	.LVL67:
 1160              		.loc 1 176 5 is_stmt 1 view .LVU335
 1161              	.LBB333:
 1162              	.LBI330:
 1163              		.loc 1 68 14 view .LVU336
 1164              	.LBB332:
 1165              		.loc 1 69 5 view .LVU337
 1166              		.loc 1 69 13 is_stmt 0 view .LVU338
 1167 0236 ADF81430 		strh	r3, [sp, #20]	@ movhi
 1168              		.loc 1 70 5 is_stmt 1 view .LVU339
 1169              		.loc 1 70 12 is_stmt 0 view .LVU340
 1170 023a 1121     		movs	r1, #17
 1171 023c 0223     		movs	r3, #2
 1172 023e 0296     		str	r6, [sp, #8]
 1173 0240 5648     		ldr	r0, .L22
 1174 0242 CDE90044 		strd	r4, r4, [sp]
 1175 0246 FFF7FEFF 		bl	i2cMasterTransmitTimeout
 1176              	.LVL68:
 1177              		.loc 1 70 12 view .LVU341
 1178              	.LBE332:
 1179              	.LBE333:
 1180              	.LBB334:
 1181              	.LBB335:
 1182              		.loc 1 69 13 view .LVU342
 1183 024a 46F20A33 		movw	r3, #25354
 1184              		.loc 1 70 12 view .LVU343
 1185 024e 05AA     		add	r2, sp, #20
 1186              	.LBE335:
 1187              	.LBE334:
 1188              		.loc 1 176 8 view .LVU344
 1189 0250 0543     		orrs	r5, r5, r0
 1190              	.LVL69:
 1191              		.loc 1 177 5 is_stmt 1 view .LVU345
 1192              	.LBB337:
 1193              	.LBI334:
 1194              		.loc 1 68 14 view .LVU346
 1195              	.LBB336:
 1196              		.loc 1 69 5 view .LVU347
 1197              		.loc 1 69 13 is_stmt 0 view .LVU348
ARM GAS  C:\Users\DEVELO~1\AppData\Local\Temp\cchy9Tij.s 			page 22


 1198 0252 ADF81430 		strh	r3, [sp, #20]	@ movhi
 1199              		.loc 1 70 5 is_stmt 1 view .LVU349
 1200              		.loc 1 70 12 is_stmt 0 view .LVU350
 1201 0256 1121     		movs	r1, #17
 1202 0258 0223     		movs	r3, #2
 1203 025a 0296     		str	r6, [sp, #8]
 1204 025c 4F48     		ldr	r0, .L22
 1205 025e CDE90044 		strd	r4, r4, [sp]
 1206 0262 FFF7FEFF 		bl	i2cMasterTransmitTimeout
 1207              	.LVL70:
 1208              		.loc 1 70 12 view .LVU351
 1209              	.LBE336:
 1210              	.LBE337:
 1211              	.LBB338:
 1212              	.LBB339:
 1213              		.loc 1 69 13 view .LVU352
 1214 0266 41F20703 		movw	r3, #4103
 1215              		.loc 1 70 12 view .LVU353
 1216 026a 05AA     		add	r2, sp, #20
 1217              	.LBE339:
 1218              	.LBE338:
 1219              		.loc 1 177 8 view .LVU354
 1220 026c 0543     		orrs	r5, r5, r0
 1221              	.LVL71:
 1222              		.loc 1 179 5 is_stmt 1 view .LVU355
 1223              	.LBB341:
 1224              	.LBI338:
 1225              		.loc 1 68 14 view .LVU356
 1226              	.LBB340:
 1227              		.loc 1 69 5 view .LVU357
 1228              		.loc 1 69 13 is_stmt 0 view .LVU358
 1229 026e ADF81430 		strh	r3, [sp, #20]	@ movhi
 1230              		.loc 1 70 5 is_stmt 1 view .LVU359
 1231              		.loc 1 70 12 is_stmt 0 view .LVU360
 1232 0272 1221     		movs	r1, #18
 1233 0274 0223     		movs	r3, #2
 1234 0276 0296     		str	r6, [sp, #8]
 1235 0278 4848     		ldr	r0, .L22
 1236 027a CDE90044 		strd	r4, r4, [sp]
 1237 027e FFF7FEFF 		bl	i2cMasterTransmitTimeout
 1238              	.LVL72:
 1239              		.loc 1 70 12 view .LVU361
 1240              	.LBE340:
 1241              	.LBE341:
 1242              	.LBB342:
 1243              	.LBB343:
 1244              		.loc 1 69 13 view .LVU362
 1245 0282 43F20813 		movw	r3, #12552
 1246              		.loc 1 70 12 view .LVU363
 1247 0286 05AA     		add	r2, sp, #20
 1248              	.LBE343:
 1249              	.LBE342:
 1250              		.loc 1 179 8 view .LVU364
 1251 0288 0543     		orrs	r5, r5, r0
 1252              	.LVL73:
 1253              		.loc 1 180 5 is_stmt 1 view .LVU365
 1254              	.LBB345:
ARM GAS  C:\Users\DEVELO~1\AppData\Local\Temp\cchy9Tij.s 			page 23


 1255              	.LBI342:
 1256              		.loc 1 68 14 view .LVU366
 1257              	.LBB344:
 1258              		.loc 1 69 5 view .LVU367
 1259              		.loc 1 69 13 is_stmt 0 view .LVU368
 1260 028a ADF81430 		strh	r3, [sp, #20]	@ movhi
 1261              		.loc 1 70 5 is_stmt 1 view .LVU369
 1262              		.loc 1 70 12 is_stmt 0 view .LVU370
 1263 028e 1221     		movs	r1, #18
 1264 0290 0223     		movs	r3, #2
 1265 0292 0296     		str	r6, [sp, #8]
 1266 0294 4148     		ldr	r0, .L22
 1267 0296 CDE90044 		strd	r4, r4, [sp]
 1268 029a FFF7FEFF 		bl	i2cMasterTransmitTimeout
 1269              	.LVL74:
 1270              		.loc 1 70 12 view .LVU371
 1271              	.LBE344:
 1272              	.LBE345:
 1273              	.LBB346:
 1274              	.LBB347:
 1275              		.loc 1 69 13 view .LVU372
 1276 029e 45F20923 		movw	r3, #21001
 1277              		.loc 1 70 12 view .LVU373
 1278 02a2 05AA     		add	r2, sp, #20
 1279              	.LBE347:
 1280              	.LBE346:
 1281              		.loc 1 180 8 view .LVU374
 1282 02a4 0543     		orrs	r5, r5, r0
 1283              	.LVL75:
 1284              		.loc 1 181 5 is_stmt 1 view .LVU375
 1285              	.LBB349:
 1286              	.LBI346:
 1287              		.loc 1 68 14 view .LVU376
 1288              	.LBB348:
 1289              		.loc 1 69 5 view .LVU377
 1290              		.loc 1 69 13 is_stmt 0 view .LVU378
 1291 02a6 ADF81430 		strh	r3, [sp, #20]	@ movhi
 1292              		.loc 1 70 5 is_stmt 1 view .LVU379
 1293              		.loc 1 70 12 is_stmt 0 view .LVU380
 1294 02aa 1221     		movs	r1, #18
 1295 02ac 0223     		movs	r3, #2
 1296 02ae 0296     		str	r6, [sp, #8]
 1297 02b0 3A48     		ldr	r0, .L22
 1298 02b2 CDE90044 		strd	r4, r4, [sp]
 1299 02b6 FFF7FEFF 		bl	i2cMasterTransmitTimeout
 1300              	.LVL76:
 1301              		.loc 1 70 12 view .LVU381
 1302              	.LBE348:
 1303              	.LBE349:
 1304              	.LBB350:
 1305              	.LBB351:
 1306              		.loc 1 69 13 view .LVU382
 1307 02ba 47F20A33 		movw	r3, #29450
 1308              	.LBE351:
 1309              	.LBE350:
 1310              		.loc 1 181 8 view .LVU383
 1311 02be 0543     		orrs	r5, r5, r0
ARM GAS  C:\Users\DEVELO~1\AppData\Local\Temp\cchy9Tij.s 			page 24


 1312              	.LVL77:
 1313              		.loc 1 182 5 is_stmt 1 view .LVU384
 1314              	.LBB353:
 1315              	.LBI350:
 1316              		.loc 1 68 14 view .LVU385
 1317              	.LBB352:
 1318              		.loc 1 69 5 view .LVU386
 1319              		.loc 1 70 12 is_stmt 0 view .LVU387
 1320 02c0 05AA     		add	r2, sp, #20
 1321              		.loc 1 69 13 view .LVU388
 1322 02c2 ADF81430 		strh	r3, [sp, #20]	@ movhi
 1323              		.loc 1 70 5 is_stmt 1 view .LVU389
 1324              		.loc 1 70 12 is_stmt 0 view .LVU390
 1325 02c6 1221     		movs	r1, #18
 1326 02c8 0223     		movs	r3, #2
 1327 02ca 0296     		str	r6, [sp, #8]
 1328 02cc 3348     		ldr	r0, .L22
 1329 02ce CDE90044 		strd	r4, r4, [sp]
 1330 02d2 FFF7FEFF 		bl	i2cMasterTransmitTimeout
 1331              	.LVL78:
 1332              		.loc 1 70 12 view .LVU391
 1333              	.LBE352:
 1334              	.LBE353:
 1335              	.LBB354:
 1336              	.LBB318:
 1337              	.LBB316:
 1338              	.LBB313:
 1339              	.LBB310:
 1340 02d6 05AA     		add	r2, sp, #20
 1341              	.LBE310:
 1342              	.LBE313:
 1343              	.LBE316:
 1344              	.LBE318:
 1345              	.LBE354:
 1346              		.loc 1 182 8 view .LVU392
 1347 02d8 0543     		orrs	r5, r5, r0
 1348              	.LVL79:
 1349              		.loc 1 185 5 is_stmt 1 view .LVU393
 1350              	.LBB355:
 1351              	.LBI305:
 1352              		.loc 1 77 14 view .LVU394
 1353              	.LBB319:
 1354              	.LBB317:
 1355              		.loc 1 79 26 view .LVU395
 1356              		.loc 1 80 9 view .LVU396
 1357              	.LBB314:
 1358              	.LBI308:
 1359              		.loc 1 68 14 view .LVU397
 1360              	.LBB311:
 1361              		.loc 1 69 5 view .LVU398
 1362              		.loc 1 70 12 is_stmt 0 view .LVU399
 1363 02da 0223     		movs	r3, #2
 1364 02dc 1121     		movs	r1, #17
 1365 02de 0296     		str	r6, [sp, #8]
 1366 02e0 2E48     		ldr	r0, .L22
 1367              		.loc 1 69 13 view .LVU400
 1368 02e2 ADF81470 		strh	r7, [sp, #20]	@ movhi
ARM GAS  C:\Users\DEVELO~1\AppData\Local\Temp\cchy9Tij.s 			page 25


 1369              		.loc 1 70 5 is_stmt 1 view .LVU401
 1370              		.loc 1 70 12 is_stmt 0 view .LVU402
 1371 02e6 CDE90044 		strd	r4, r4, [sp]
 1372 02ea FFF7FEFF 		bl	i2cMasterTransmitTimeout
 1373              	.LVL80:
 1374 02ee 8046     		mov	r8, r0
 1375              	.LVL81:
 1376              		.loc 1 70 12 view .LVU403
 1377              	.LBE311:
 1378              	.LBE314:
 1379              		.loc 1 79 31 is_stmt 1 view .LVU404
 1380              		.loc 1 79 26 view .LVU405
 1381              		.loc 1 80 9 view .LVU406
 1382              	.LBB315:
 1383              		.loc 1 68 14 view .LVU407
 1384              	.LBB312:
 1385              		.loc 1 69 5 view .LVU408
 1386              		.loc 1 70 12 is_stmt 0 view .LVU409
 1387 02f0 05AA     		add	r2, sp, #20
 1388 02f2 0223     		movs	r3, #2
 1389 02f4 45EA0805 		orr	r5, r5, r8
 1390              	.LVL82:
 1391              		.loc 1 70 12 view .LVU410
 1392 02f8 1221     		movs	r1, #18
 1393 02fa 0296     		str	r6, [sp, #8]
 1394 02fc 2748     		ldr	r0, .L22
 1395              	.LVL83:
 1396              		.loc 1 69 13 view .LVU411
 1397 02fe ADF81470 		strh	r7, [sp, #20]	@ movhi
 1398              		.loc 1 70 5 is_stmt 1 view .LVU412
 1399              		.loc 1 70 12 is_stmt 0 view .LVU413
 1400 0302 CDE90044 		strd	r4, r4, [sp]
 1401 0306 FFF7FEFF 		bl	i2cMasterTransmitTimeout
 1402              	.LVL84:
 1403              		.loc 1 70 12 view .LVU414
 1404              	.LBE312:
 1405              	.LBE315:
 1406              		.loc 1 79 31 is_stmt 1 view .LVU415
 1407              		.loc 1 79 26 view .LVU416
 1408              	.LBE317:
 1409              		.loc 1 82 5 view .LVU417
 1410              		.loc 1 82 5 is_stmt 0 view .LVU418
 1411              	.LBE319:
 1412              	.LBE355:
 1413              	.LBB356:
 1414              	.LBB357:
 1415              	.LBB358:
 1416              	.LBB359:
 1417              	.LBB360:
 1418              		.loc 1 70 12 view .LVU419
 1419 030a 05AA     		add	r2, sp, #20
 1420              	.LBE360:
 1421              	.LBE359:
 1422              	.LBE358:
 1423              	.LBE357:
 1424              	.LBE356:
 1425              		.loc 1 185 8 view .LVU420
ARM GAS  C:\Users\DEVELO~1\AppData\Local\Temp\cchy9Tij.s 			page 26


 1426 030c 0543     		orrs	r5, r5, r0
 1427              	.LVL85:
 1428              		.loc 1 186 5 is_stmt 1 view .LVU421
 1429              	.LBB367:
 1430              	.LBI356:
 1431              		.loc 1 77 14 view .LVU422
 1432              	.LBB366:
 1433              	.LBB365:
 1434              		.loc 1 79 26 view .LVU423
 1435              		.loc 1 80 9 view .LVU424
 1436              	.LBB363:
 1437              	.LBI359:
 1438              		.loc 1 68 14 view .LVU425
 1439              	.LBB361:
 1440              		.loc 1 69 5 view .LVU426
 1441              		.loc 1 70 12 is_stmt 0 view .LVU427
 1442 030e 0223     		movs	r3, #2
 1443 0310 1121     		movs	r1, #17
 1444 0312 0296     		str	r6, [sp, #8]
 1445 0314 2148     		ldr	r0, .L22
 1446              		.loc 1 69 13 view .LVU428
 1447 0316 ADF81470 		strh	r7, [sp, #20]	@ movhi
 1448              		.loc 1 70 5 is_stmt 1 view .LVU429
 1449              		.loc 1 70 12 is_stmt 0 view .LVU430
 1450 031a CDE90044 		strd	r4, r4, [sp]
 1451 031e FFF7FEFF 		bl	i2cMasterTransmitTimeout
 1452              	.LVL86:
 1453              		.loc 1 69 13 view .LVU431
 1454 0322 ADF81470 		strh	r7, [sp, #20]	@ movhi
 1455              		.loc 1 70 12 view .LVU432
 1456 0326 0746     		mov	r7, r0
 1457              	.LVL87:
 1458              		.loc 1 70 12 view .LVU433
 1459              	.LBE361:
 1460              	.LBE363:
 1461              		.loc 1 79 31 is_stmt 1 view .LVU434
 1462              		.loc 1 79 26 view .LVU435
 1463              		.loc 1 80 9 view .LVU436
 1464              	.LBB364:
 1465              		.loc 1 68 14 view .LVU437
 1466              	.LBB362:
 1467              		.loc 1 69 5 view .LVU438
 1468              		.loc 1 70 5 view .LVU439
 1469              		.loc 1 70 12 is_stmt 0 view .LVU440
 1470 0328 05AA     		add	r2, sp, #20
 1471 032a 0194     		str	r4, [sp, #4]
 1472 032c 0223     		movs	r3, #2
 1473 032e 3D43     		orrs	r5, r5, r7
 1474              	.LVL88:
 1475              		.loc 1 70 12 view .LVU441
 1476 0330 0094     		str	r4, [sp]
 1477 0332 1221     		movs	r1, #18
 1478 0334 0296     		str	r6, [sp, #8]
 1479 0336 1948     		ldr	r0, .L22
 1480              	.LVL89:
 1481              		.loc 1 70 12 view .LVU442
 1482 0338 FFF7FEFF 		bl	i2cMasterTransmitTimeout
ARM GAS  C:\Users\DEVELO~1\AppData\Local\Temp\cchy9Tij.s 			page 27


 1483              	.LVL90:
 1484              		.loc 1 70 12 view .LVU443
 1485              	.LBE362:
 1486              	.LBE364:
 1487              		.loc 1 79 31 is_stmt 1 view .LVU444
 1488              		.loc 1 79 26 view .LVU445
 1489              	.LBE365:
 1490              		.loc 1 82 5 view .LVU446
 1491              		.loc 1 82 5 is_stmt 0 view .LVU447
 1492              	.LBE366:
 1493              	.LBE367:
 1494              		.loc 1 186 8 view .LVU448
 1495 033c 40EA0507 		orr	r7, r0, r5
 1496              	.LVL91:
 1497              		.loc 1 189 5 is_stmt 1 view .LVU449
 1498              	.LBB368:
 1499              	.LBI368:
 1500              		.loc 1 77 14 view .LVU450
 1501              	.LBB369:
 1502              	.LBB370:
 1503              		.loc 1 79 26 view .LVU451
 1504              		.loc 1 80 9 view .LVU452
 1505              	.LBB371:
 1506              	.LBI371:
 1507              		.loc 1 68 14 view .LVU453
 1508              	.LBB372:
 1509              		.loc 1 69 5 view .LVU454
 1510              		.loc 1 69 13 is_stmt 0 view .LVU455
 1511 0340 40F20F45 		movw	r5, #1039
 1512              		.loc 1 70 12 view .LVU456
 1513 0344 05AA     		add	r2, sp, #20
 1514 0346 0223     		movs	r3, #2
 1515 0348 1121     		movs	r1, #17
 1516 034a 0296     		str	r6, [sp, #8]
 1517 034c 1348     		ldr	r0, .L22
 1518              		.loc 1 69 13 view .LVU457
 1519 034e ADF81450 		strh	r5, [sp, #20]	@ movhi
 1520              		.loc 1 70 5 is_stmt 1 view .LVU458
 1521              		.loc 1 70 12 is_stmt 0 view .LVU459
 1522 0352 CDE90044 		strd	r4, r4, [sp]
 1523 0356 FFF7FEFF 		bl	i2cMasterTransmitTimeout
 1524              	.LVL92:
 1525              		.loc 1 69 13 view .LVU460
 1526 035a ADF81450 		strh	r5, [sp, #20]	@ movhi
 1527              		.loc 1 70 12 view .LVU461
 1528 035e 0546     		mov	r5, r0
 1529              	.LVL93:
 1530              		.loc 1 70 12 view .LVU462
 1531              	.LBE372:
 1532              	.LBE371:
 1533              		.loc 1 79 31 is_stmt 1 view .LVU463
 1534              		.loc 1 79 26 view .LVU464
 1535              		.loc 1 80 9 view .LVU465
 1536              	.LBB374:
 1537              		.loc 1 68 14 view .LVU466
 1538              	.LBB373:
 1539              		.loc 1 69 5 view .LVU467
ARM GAS  C:\Users\DEVELO~1\AppData\Local\Temp\cchy9Tij.s 			page 28


 1540              		.loc 1 70 5 view .LVU468
 1541              		.loc 1 70 12 is_stmt 0 view .LVU469
 1542 0360 0223     		movs	r3, #2
 1543 0362 05AA     		add	r2, sp, #20
 1544 0364 1221     		movs	r1, #18
 1545 0366 3D43     		orrs	r5, r5, r7
 1546 0368 0296     		str	r6, [sp, #8]
 1547 036a 0C48     		ldr	r0, .L22
 1548              	.LVL94:
 1549              		.loc 1 70 12 view .LVU470
 1550 036c CDE90044 		strd	r4, r4, [sp]
 1551 0370 FFF7FEFF 		bl	i2cMasterTransmitTimeout
 1552              	.LVL95:
 1553              		.loc 1 70 12 view .LVU471
 1554              	.LBE373:
 1555              	.LBE374:
 1556              		.loc 1 79 31 is_stmt 1 view .LVU472
 1557              		.loc 1 79 26 view .LVU473
 1558              	.LBE370:
 1559              		.loc 1 82 5 view .LVU474
 1560              		.loc 1 82 5 is_stmt 0 view .LVU475
 1561              	.LBE369:
 1562              	.LBE368:
 1563              		.loc 1 189 8 view .LVU476
 1564 0374 40EA0504 		orr	r4, r0, r5
 1565              	.LVL96:
 1566              		.loc 1 190 5 is_stmt 1 view .LVU477
 1567              		.loc 1 191 1 is_stmt 0 view .LVU478
 1568 0378 2046     		mov	r0, r4
 1569 037a 06B0     		add	sp, sp, #24
 1570              		.cfi_remember_state
 1571              		.cfi_def_cfa_offset 32
 1572              		@ sp needed
 1573 037c BDE8F087 		pop	{r4, r5, r6, r7, r8, r9, r10, pc}
 1574              	.LVL97:
 1575              	.L15:
 1576              		.cfi_restore_state
 1577              	.LBB375:
 1578              	.LBB291:
 1579              	.LBB289:
 1580              	.LBB278:
 1581              	.LBB275:
 1582              		.loc 1 113 17 is_stmt 1 view .LVU479
 1583              		.loc 1 114 17 view .LVU480
 1584              		.loc 1 114 17 is_stmt 0 view .LVU481
 1585              	.LBE275:
 1586              	.LBE278:
 1587              		.loc 1 118 9 is_stmt 1 view .LVU482
 1588              		.loc 1 122 9 view .LVU483
 1589              	.LBB279:
 1590              	.LBI279:
 1591              		.loc 2 172 29 view .LVU484
 1592              		.loc 2 174 3 view .LVU485
 1593              	.LBB280:
 1594              	.LBI280:
 1595              		.loc 2 135 25 view .LVU486
 1596              		.loc 2 140 3 view .LVU487
ARM GAS  C:\Users\DEVELO~1\AppData\Local\Temp\cchy9Tij.s 			page 29


 1597              	.LBB281:
 1598              	.LBI281:
 1599              		.loc 3 111 25 view .LVU488
 1600              	.LBB282:
 1601              		.loc 3 113 3 view .LVU489
 1602              		.loc 3 113 10 is_stmt 0 view .LVU490
 1603 0380 FFF7FEFF 		bl	stGetCounter
 1604              	.LVL98:
 1605              		.loc 3 113 10 view .LVU491
 1606              	.LBE282:
 1607              	.LBE281:
 1608              	.LBE280:
 1609              	.LBE279:
 1610              		.loc 1 125 9 is_stmt 1 view .LVU492
 1611              	.LBB285:
 1612              	.LBB283:
 1613              	.LBI283:
 1614              		.file 4 "./docs/ChibiOS/os/rt/include/chtime.h"
 1615              		.loc 4 461 29 view .LVU493
 1616              	.LBB284:
 1617              		.loc 4 465 3 view .LVU494
 1618              		.loc 4 465 10 is_stmt 0 view .LVU495
 1619 0384 A0EB0900 		sub	r0, r0, r9
 1620              	.LBE284:
 1621              	.LBE283:
 1622              	.LBE285:
 1623              		.loc 1 122 12 view .LVU496
 1624 0388 C728     		cmp	r0, #199
 1625 038a 03D8     		bhi	.L17
 1626              		.loc 1 125 9 view .LVU497
 1627 038c 0A20     		movs	r0, #10
 1628 038e FFF7FEFF 		bl	chThdSleep
 1629              	.LVL99:
 1630              	.LBE289:
 1631              		.loc 1 104 11 is_stmt 1 view .LVU498
 1632              		.loc 1 104 18 is_stmt 0 view .LVU499
 1633 0392 EAE6     		b	.L16
 1634              	.L17:
 1635              	.LBB290:
 1636              		.loc 1 123 20 view .LVU500
 1637 0394 4FF0FF34 		mov	r4, #-1
 1638              	.LVL100:
 1639              		.loc 1 123 20 view .LVU501
 1640 0398 D8E6     		b	.L12
 1641              	.L23:
 1642 039a 00BF     		.align	2
 1643              	.L22:
 1644 039c 00000000 		.word	I2CD3
 1645              	.LBE290:
 1646              	.LBE291:
 1647              	.LBE375:
 1648              		.cfi_endproc
 1649              	.LFE454:
 1650              		.size	adau1979_set_default_config, .-adau1979_set_default_config
 1651              		.section	.text.adau1979_mute,"ax",%progbits
 1652              		.align	1
 1653              		.p2align 2,,3
ARM GAS  C:\Users\DEVELO~1\AppData\Local\Temp\cchy9Tij.s 			page 30


 1654              		.global	adau1979_mute
 1655              		.syntax unified
 1656              		.thumb
 1657              		.thumb_func
 1658              		.type	adau1979_mute, %function
 1659              	adau1979_mute:
 1660              	.LVL101:
 1661              	.LFB455:
 1662              		.loc 1 193 29 is_stmt 1 view -0
 1663              		.cfi_startproc
 1664              		@ args = 0, pretend = 0, frame = 16
 1665              		@ frame_needed = 0, uses_anonymous_args = 0
 1666              		.loc 1 194 5 view .LVU503
 1667              	.LBB382:
 1668              		.loc 1 194 10 view .LVU504
 1669              		.loc 1 194 26 view .LVU505
 1670              	.LBE382:
 1671              		.loc 1 193 29 is_stmt 0 view .LVU506
 1672 0000 2DE9F043 		push	{r4, r5, r6, r7, r8, r9, lr}
 1673              		.cfi_def_cfa_offset 28
 1674              		.cfi_offset 4, -28
 1675              		.cfi_offset 5, -24
 1676              		.cfi_offset 6, -20
 1677              		.cfi_offset 7, -16
 1678              		.cfi_offset 8, -12
 1679              		.cfi_offset 9, -8
 1680              		.cfi_offset 14, -4
 1681 0004 89B0     		sub	sp, sp, #36
 1682              		.cfi_def_cfa_offset 64
 1683              	.LBB395:
 1684 0006 0226     		movs	r6, #2
 1685 0008 1121     		movs	r1, #17
 1686              	.LBE395:
 1687              		.loc 1 193 29 view .LVU507
 1688 000a 8146     		mov	r9, r0
 1689 000c 0DF11B05 		add	r5, sp, #27
 1690              	.LBB396:
 1691              	.LBB383:
 1692              		.loc 1 195 17 view .LVU508
 1693 0010 0024     		movs	r4, #0
 1694 0012 4FF00F08 		mov	r8, #15
 1695              	.LBB384:
 1696              	.LBB385:
 1697              		.loc 1 74 12 view .LVU509
 1698 0016 1A4F     		ldr	r7, .L31
 1699              	.LVL102:
 1700              	.L28:
 1701              		.loc 1 74 12 view .LVU510
 1702              	.LBE385:
 1703              	.LBE384:
 1704              		.loc 1 195 9 is_stmt 1 view .LVU511
 1705              	.LBB388:
 1706              	.LBB386:
 1707              		.loc 1 74 12 is_stmt 0 view .LVU512
 1708 0018 6420     		movs	r0, #100
 1709 001a 0123     		movs	r3, #1
 1710 001c 89B2     		uxth	r1, r1
ARM GAS  C:\Users\DEVELO~1\AppData\Local\Temp\cchy9Tij.s 			page 31


 1711 001e 07AA     		add	r2, sp, #28
 1712 0020 0290     		str	r0, [sp, #8]
 1713 0022 3846     		mov	r0, r7
 1714 0024 0193     		str	r3, [sp, #4]
 1715 0026 0095     		str	r5, [sp]
 1716 0028 0591     		str	r1, [sp, #20]
 1717              	.LBE386:
 1718              	.LBE388:
 1719              		.loc 1 195 17 view .LVU513
 1720 002a 8DF81B40 		strb	r4, [sp, #27]
 1721              		.loc 1 196 9 is_stmt 1 view .LVU514
 1722              	.LVL103:
 1723              		.loc 1 196 9 is_stmt 0 view .LVU515
 1724 002e 8DF81C80 		strb	r8, [sp, #28]
 1725              	.LVL104:
 1726              	.LBB389:
 1727              	.LBI384:
 1728              		.loc 1 73 14 is_stmt 1 view .LVU516
 1729              	.LBB387:
 1730              		.loc 1 74 5 view .LVU517
 1731              		.loc 1 74 12 is_stmt 0 view .LVU518
 1732 0032 FFF7FEFF 		bl	i2cMasterTransmitTimeout
 1733              	.LVL105:
 1734              		.loc 1 74 12 view .LVU519
 1735              	.LBE387:
 1736              	.LBE389:
 1737              		.loc 1 199 9 is_stmt 1 view .LVU520
 1738              		.loc 1 196 12 is_stmt 0 view .LVU521
 1739 0036 B0B9     		cbnz	r0, .L25
 1740              		.loc 1 200 13 is_stmt 1 view .LVU522
 1741              		.loc 1 202 13 view .LVU523
 1742              		.loc 1 199 12 is_stmt 0 view .LVU524
 1743 0038 0599     		ldr	r1, [sp, #20]
 1744              		.loc 1 200 18 view .LVU525
 1745 003a 9DF81B20 		ldrb	r2, [sp, #27]	@ zero_extendqisi2
 1746              		.loc 1 199 12 view .LVU526
 1747 003e B9F1000F 		cmp	r9, #0
 1748 0042 19D0     		beq	.L26
 1749              		.loc 1 200 18 view .LVU527
 1750 0044 02F0FB02 		and	r2, r2, #251
 1751              	.L27:
 1752              	.LBB390:
 1753              	.LBB391:
 1754              		.loc 1 70 12 view .LVU528
 1755 0048 6423     		movs	r3, #100
 1756 004a 8DF81B20 		strb	r2, [sp, #27]
 1757              	.LBE391:
 1758              	.LBE390:
 1759              		.loc 1 204 9 is_stmt 1 view .LVU529
 1760              	.LVL106:
 1761              	.LBB393:
 1762              	.LBI390:
 1763              		.loc 1 68 14 view .LVU530
 1764              	.LBB392:
 1765              		.loc 1 69 5 view .LVU531
 1766              		.loc 1 69 13 is_stmt 0 view .LVU532
 1767 004e 8DF81D20 		strb	r2, [sp, #29]
ARM GAS  C:\Users\DEVELO~1\AppData\Local\Temp\cchy9Tij.s 			page 32


 1768              		.loc 1 70 5 is_stmt 1 view .LVU533
 1769              		.loc 1 70 12 is_stmt 0 view .LVU534
 1770 0052 3846     		mov	r0, r7
 1771 0054 0293     		str	r3, [sp, #8]
 1772 0056 07AA     		add	r2, sp, #28
 1773              	.LVL107:
 1774              		.loc 1 70 12 view .LVU535
 1775 0058 0223     		movs	r3, #2
 1776              		.loc 1 69 13 view .LVU536
 1777 005a 8DF81C80 		strb	r8, [sp, #28]
 1778              		.loc 1 70 12 view .LVU537
 1779 005e CDE90044 		strd	r4, r4, [sp]
 1780 0062 FFF7FEFF 		bl	i2cMasterTransmitTimeout
 1781              	.LVL108:
 1782              	.L25:
 1783              		.loc 1 70 12 view .LVU538
 1784              	.LBE392:
 1785              	.LBE393:
 1786              	.LBE383:
 1787              		.loc 1 194 31 is_stmt 1 discriminator 2 view .LVU539
 1788              		.loc 1 194 26 discriminator 2 view .LVU540
 1789 0066 012E     		cmp	r6, #1
 1790 0068 4FF01201 		mov	r1, #18
 1791 006c 4FF00106 		mov	r6, #1
 1792              	.LVL109:
 1793              		.loc 1 194 26 is_stmt 0 discriminator 2 view .LVU541
 1794 0070 D2D1     		bne	.L28
 1795              	.LBE396:
 1796              		.loc 1 206 1 view .LVU542
 1797 0072 09B0     		add	sp, sp, #36
 1798              		.cfi_remember_state
 1799              		.cfi_def_cfa_offset 28
 1800              		@ sp needed
 1801 0074 BDE8F083 		pop	{r4, r5, r6, r7, r8, r9, pc}
 1802              	.LVL110:
 1803              	.L26:
 1804              		.cfi_restore_state
 1805              	.LBB397:
 1806              	.LBB394:
 1807              		.loc 1 202 18 view .LVU543
 1808 0078 42F00402 		orr	r2, r2, #4
 1809 007c E4E7     		b	.L27
 1810              	.L32:
 1811 007e 00BF     		.align	2
 1812              	.L31:
 1813 0080 00000000 		.word	I2CD3
 1814              	.LBE394:
 1815              	.LBE397:
 1816              		.cfi_endproc
 1817              	.LFE455:
 1818              		.size	adau1979_mute, .-adau1979_mute
 1819              		.section	.rodata.adau1979_default_i2c_cfg,"a"
 1820              		.align	2
 1821              		.set	.LANCHOR0,. + 0
 1822              		.type	adau1979_default_i2c_cfg, %object
 1823              		.size	adau1979_default_i2c_cfg, 12
 1824              	adau1979_default_i2c_cfg:
ARM GAS  C:\Users\DEVELO~1\AppData\Local\Temp\cchy9Tij.s 			page 33


 1825 0000 EC9C9010 		.word	277912812
 1826 0004 00000000 		.word	0
 1827 0008 00000000 		.word	0
 1828              		.text
 1829              	.Letext0:
 1830              		.file 5 "c:\\chibistudio\\tools\\gnu tools arm embedded\\11.3 2022.08\\lib\\gcc\\arm-none-eabi\\11
 1831              		.file 6 "c:\\chibistudio\\tools\\gnu tools arm embedded\\11.3 2022.08\\arm-none-eabi\\include\\mac
 1832              		.file 7 "c:\\chibistudio\\tools\\gnu tools arm embedded\\11.3 2022.08\\arm-none-eabi\\include\\sys
 1833              		.file 8 "./docs/ChibiOS/os/common/ports/ARM-common/include/chtypes.h"
 1834              		.file 9 "./docs/ChibiOS/os/rt/include/chearly.h"
 1835              		.file 10 "./docs/ChibiOS/os/rt/include/chobjects.h"
 1836              		.file 11 "./docs/ChibiOS/os/rt/include/chrfcu.h"
 1837              		.file 12 "./docs/ChibiOS/os/rt/include/chdebug.h"
 1838              		.file 13 "./docs/ChibiOS/os/rt/include/chtrace.h"
 1839              		.file 14 "./docs/ChibiOS/os/common/ext/ST/STM32H7xx/stm32h743xx.h"
 1840              		.file 15 "./docs/ChibiOS/os/common/ports/ARMv7-M/chcore.h"
 1841              		.file 16 "./docs/ChibiOS/os/rt/include/chlists.h"
 1842              		.file 17 "./docs/ChibiOS/os/rt/include/chsem.h"
 1843              		.file 18 "./docs/ChibiOS/os/rt/include/chmtx.h"
 1844              		.file 19 "./docs/ChibiOS/os/hal/ports/STM32/LLD/DMAv2/stm32_dma.h"
 1845              		.file 20 "./docs/ChibiOS/os/hal/include/hal_i2c.h"
 1846              		.file 21 "./docs/ChibiOS/os/hal/ports/STM32/LLD/I2Cv3/hal_i2c_lld.h"
 1847              		.file 22 "./docs/ChibiOS/os/hal/include/hal_st.h"
 1848              		.file 23 "./docs/ChibiOS/os/rt/include/chthreads.h"