ARM GAS  C:\Users\DEVELO~1\AppData\Local\Temp\ccuLegET.s 			page 1


   1              		.cpu cortex-m7
   2              		.arch armv7e-m
   3              		.fpu fpv5-d16
   4              		.eabi_attribute 28, 1
   5              		.eabi_attribute 20, 1
   6              		.eabi_attribute 21, 1
   7              		.eabi_attribute 23, 3
   8              		.eabi_attribute 24, 1
   9              		.eabi_attribute 25, 1
  10              		.eabi_attribute 26, 1
  11              		.eabi_attribute 30, 2
  12              		.eabi_attribute 34, 1
  13              		.eabi_attribute 18, 4
  14              		.file	"board.c"
  15              		.text
  16              	.Ltext0:
  17              		.cfi_sections	.debug_frame
  18              		.section	.text.__early_init,"ax",%progbits
  19              		.align	1
  20              		.p2align 2,,3
  21              		.global	__early_init
  22              		.syntax unified
  23              		.thumb
  24              		.thumb_func
  25              		.type	__early_init, %function
  26              	__early_init:
  27              	.LFB450:
  28              		.file 1 "./docs/ChibiOS/os/hal/boards/CUSTOM_H743IIT6/board.c"
  29              		.loc 1 210 25 view -0
  30              		.cfi_startproc
  31              		@ args = 0, pretend = 0, frame = 0
  32              		@ frame_needed = 0, uses_anonymous_args = 0
  33              		@ link register save eliminated.
  34              		.loc 1 212 3 view .LVU1
  35              	.LBB56:
  36              	.LBI56:
  37              		.loc 1 154 13 view .LVU2
  38              		.loc 1 158 3 view .LVU3
  39              	.LVL0:
  40              	.LBB57:
  41              	.LBI57:
  42              		.file 2 "./docs/ChibiOS/os/hal/ports/STM32/STM32H7xx/stm32_rcc.h"
  43              		.loc 2 121 22 view .LVU4
  44              	.LBB58:
  45              		.loc 2 124 3 view .LVU5
  46              		.loc 2 124 17 is_stmt 0 view .LVU6
  47 0000 664A     		ldr	r2, .L4
  48              	.LBE58:
  49              	.LBE57:
  50              	.LBB63:
  51              	.LBB64:
  52              		.loc 1 145 18 view .LVU7
  53 0002 0023     		movs	r3, #0
  54              	.LBE64:
  55              	.LBE63:
  56              	.LBB70:
  57              	.LBB59:
ARM GAS  C:\Users\DEVELO~1\AppData\Local\Temp\ccuLegET.s 			page 2


  58              		.loc 2 125 17 view .LVU8
  59 0004 6648     		ldr	r0, .L4+4
  60              		.loc 2 124 17 view .LVU9
  61 0006 D2F88810 		ldr	r1, [r2, #136]
  62              	.LBE59:
  63              	.LBE70:
  64              	.LBE56:
  65              		.loc 1 210 25 view .LVU10
  66 000a 70B4     		push	{r4, r5, r6}
  67              		.cfi_def_cfa_offset 12
  68              		.cfi_offset 4, -12
  69              		.cfi_offset 5, -8
  70              		.cfi_offset 6, -4
  71              	.LBB139:
  72              	.LBB71:
  73              	.LBB60:
  74              		.loc 2 124 17 view .LVU11
  75 000c 40F2FF74 		movw	r4, #2047
  76              	.LBE60:
  77              	.LBE71:
  78              	.LBB72:
  79              	.LBB65:
  80              		.loc 1 146 18 view .LVU12
  81 0010 644D     		ldr	r5, .L4+8
  82              	.LBE65:
  83              	.LBE72:
  84              	.LBB73:
  85              	.LBB74:
  86              		.loc 1 149 18 view .LVU13
  87 0012 45F25056 		movw	r6, #21840
  88              	.LBE74:
  89              	.LBE73:
  90              	.LBB79:
  91              	.LBB61:
  92              		.loc 2 124 17 view .LVU14
  93 0016 2143     		orrs	r1, r1, r4
  94 0018 C2F88810 		str	r1, [r2, #136]
  95              		.loc 2 125 3 is_stmt 1 view .LVU15
  96              		.loc 2 125 17 is_stmt 0 view .LVU16
  97 001c D2F88810 		ldr	r1, [r2, #136]
  98 0020 0840     		ands	r0, r0, r1
  99              	.LBE61:
 100              	.LBE79:
 101              	.LBB80:
 102              	.LBB66:
 103              		.loc 1 145 18 view .LVU17
 104 0022 6149     		ldr	r1, .L4+12
 105              	.LBE66:
 106              	.LBE80:
 107              	.LBB81:
 108              	.LBB62:
 109              		.loc 2 125 17 view .LVU18
 110 0024 C2F88800 		str	r0, [r2, #136]
 111              		.loc 2 126 3 is_stmt 1 view .LVU19
 112 0028 D2F88800 		ldr	r0, [r2, #136]
 113              	.LVL1:
 114              		.loc 2 126 3 is_stmt 0 view .LVU20
ARM GAS  C:\Users\DEVELO~1\AppData\Local\Temp\ccuLegET.s 			page 3


 115              	.LBE62:
 116              	.LBE81:
 117              		.loc 1 159 3 is_stmt 1 view .LVU21
 118              	.LBB82:
 119              	.LBI82:
 120              		.loc 2 853 22 view .LVU22
 121              	.LBB83:
 122              		.loc 2 857 3 view .LVU23
 123              		.loc 2 857 19 is_stmt 0 view .LVU24
 124 002c D2F8E000 		ldr	r0, [r2, #224]
 125 0030 2043     		orrs	r0, r0, r4
 126 0032 C2F8E000 		str	r0, [r2, #224]
 127              		.loc 2 858 3 is_stmt 1 view .LVU25
 128              		.loc 2 859 5 view .LVU26
 129              		.loc 2 859 23 is_stmt 0 view .LVU27
 130 0036 D2F80801 		ldr	r0, [r2, #264]
 131 003a 2043     		orrs	r0, r0, r4
 132              	.LBE83:
 133              	.LBE82:
 134              	.LBB85:
 135              	.LBB86:
 136              		.loc 1 145 18 view .LVU28
 137 003c 5B4C     		ldr	r4, .L4+16
 138              	.LBE86:
 139              	.LBE85:
 140              	.LBB89:
 141              	.LBB84:
 142              		.loc 2 859 23 view .LVU29
 143 003e C2F80801 		str	r0, [r2, #264]
 144              		.loc 2 864 3 is_stmt 1 view .LVU30
 145 0042 D2F80821 		ldr	r2, [r2, #264]
 146              	.LVL2:
 147              		.loc 2 864 3 is_stmt 0 view .LVU31
 148              	.LBE84:
 149              	.LBE89:
 150              		.loc 1 163 3 is_stmt 1 view .LVU32
 151              	.LBB90:
 152              	.LBI63:
 153              		.loc 1 143 13 view .LVU33
 154              	.LBB67:
 155              		.loc 1 145 3 view .LVU34
 156              		.loc 1 148 18 is_stmt 0 view .LVU35
 157 0046 4FF68F72 		movw	r2, #65423
 158              		.loc 1 145 18 view .LVU36
 159 004a 4B60     		str	r3, [r1, #4]
 160              		.loc 1 146 3 is_stmt 1 view .LVU37
 161              		.loc 1 146 18 is_stmt 0 view .LVU38
 162 004c 8D60     		str	r5, [r1, #8]
 163              		.loc 1 147 3 is_stmt 1 view .LVU39
 164              	.LBE67:
 165              	.LBE90:
 166              	.LBB91:
 167              	.LBB92:
 168              		.loc 1 147 18 is_stmt 0 view .LVU40
 169 004e 4FF05535 		mov	r5, #1431655765
 170              	.LBE92:
 171              	.LBE91:
ARM GAS  C:\Users\DEVELO~1\AppData\Local\Temp\ccuLegET.s 			page 4


 172              	.LBB95:
 173              	.LBB68:
 174 0052 CB60     		str	r3, [r1, #12]
 175              		.loc 1 148 3 is_stmt 1 view .LVU41
 176              		.loc 1 148 18 is_stmt 0 view .LVU42
 177 0054 4A61     		str	r2, [r1, #20]
 178              		.loc 1 149 3 is_stmt 1 view .LVU43
 179              		.loc 1 149 18 is_stmt 0 view .LVU44
 180 0056 564A     		ldr	r2, .L4+20
 181              	.LBE68:
 182              	.LBE95:
 183              	.LBB96:
 184              	.LBB97:
 185              		.loc 1 145 18 view .LVU45
 186 0058 5648     		ldr	r0, .L4+24
 187              	.LBE97:
 188              	.LBE96:
 189              	.LBB101:
 190              	.LBB69:
 191              		.loc 1 149 18 view .LVU46
 192 005a 0A62     		str	r2, [r1, #32]
 193              		.loc 1 150 3 is_stmt 1 view .LVU47
 194              		.loc 1 150 18 is_stmt 0 view .LVU48
 195 005c 564A     		ldr	r2, .L4+28
 196 005e 4A62     		str	r2, [r1, #36]
 197              		.loc 1 151 3 is_stmt 1 view .LVU49
 198              		.loc 1 151 18 is_stmt 0 view .LVU50
 199 0060 564A     		ldr	r2, .L4+32
 200 0062 0A60     		str	r2, [r1]
 201              	.LVL3:
 202              		.loc 1 151 18 view .LVU51
 203              	.LBE69:
 204              	.LBE101:
 205              		.loc 1 166 3 is_stmt 1 view .LVU52
 206              	.LBB102:
 207              	.LBI85:
 208              		.loc 1 143 13 view .LVU53
 209              	.LBB87:
 210              		.loc 1 145 3 view .LVU54
 211              	.LBE87:
 212              	.LBE102:
 213              	.LBB103:
 214              	.LBB98:
 215              		.loc 1 148 18 is_stmt 0 view .LVU55
 216 0064 4FF6FF71 		movw	r1, #65535
 217              	.LBE98:
 218              	.LBE103:
 219              	.LBB104:
 220              	.LBB88:
 221              		.loc 1 146 18 view .LVU56
 222 0068 554A     		ldr	r2, .L4+36
 223              		.loc 1 145 18 view .LVU57
 224 006a 6360     		str	r3, [r4, #4]
 225              		.loc 1 146 3 is_stmt 1 view .LVU58
 226              		.loc 1 146 18 is_stmt 0 view .LVU59
 227 006c A260     		str	r2, [r4, #8]
 228              		.loc 1 147 3 is_stmt 1 view .LVU60
ARM GAS  C:\Users\DEVELO~1\AppData\Local\Temp\ccuLegET.s 			page 5


 229              		.loc 1 148 18 is_stmt 0 view .LVU61
 230 006e 4BF67E72 		movw	r2, #49022
 231              		.loc 1 147 18 view .LVU62
 232 0072 E360     		str	r3, [r4, #12]
 233              		.loc 1 148 3 is_stmt 1 view .LVU63
 234              		.loc 1 148 18 is_stmt 0 view .LVU64
 235 0074 6261     		str	r2, [r4, #20]
 236              		.loc 1 149 3 is_stmt 1 view .LVU65
 237              		.loc 1 149 18 is_stmt 0 view .LVU66
 238 0076 534A     		ldr	r2, .L4+40
 239 0078 2262     		str	r2, [r4, #32]
 240              		.loc 1 150 3 is_stmt 1 view .LVU67
 241              		.loc 1 150 18 is_stmt 0 view .LVU68
 242 007a 534A     		ldr	r2, .L4+44
 243 007c 6262     		str	r2, [r4, #36]
 244              		.loc 1 151 3 is_stmt 1 view .LVU69
 245              		.loc 1 151 18 is_stmt 0 view .LVU70
 246 007e 534A     		ldr	r2, .L4+48
 247 0080 2260     		str	r2, [r4]
 248              	.LVL4:
 249              		.loc 1 151 18 view .LVU71
 250              	.LBE88:
 251              	.LBE104:
 252              		.loc 1 169 3 is_stmt 1 view .LVU72
 253              	.LBB105:
 254              	.LBI96:
 255              		.loc 1 143 13 view .LVU73
 256              	.LBB99:
 257              		.loc 1 145 3 view .LVU74
 258              		.loc 1 146 18 is_stmt 0 view .LVU75
 259 0082 534C     		ldr	r4, .L4+52
 260              		.loc 1 145 18 view .LVU76
 261 0084 4360     		str	r3, [r0, #4]
 262              		.loc 1 146 3 is_stmt 1 view .LVU77
 263              		.loc 1 146 18 is_stmt 0 view .LVU78
 264 0086 8460     		str	r4, [r0, #8]
 265              		.loc 1 147 3 is_stmt 1 view .LVU79
 266              		.loc 1 149 18 is_stmt 0 view .LVU80
 267 0088 524C     		ldr	r4, .L4+56
 268              		.loc 1 147 18 view .LVU81
 269 008a C360     		str	r3, [r0, #12]
 270              		.loc 1 148 3 is_stmt 1 view .LVU82
 271              		.loc 1 148 18 is_stmt 0 view .LVU83
 272 008c 4161     		str	r1, [r0, #20]
 273              		.loc 1 149 3 is_stmt 1 view .LVU84
 274              		.loc 1 149 18 is_stmt 0 view .LVU85
 275 008e 0462     		str	r4, [r0, #32]
 276              		.loc 1 150 3 is_stmt 1 view .LVU86
 277              		.loc 1 150 18 is_stmt 0 view .LVU87
 278 0090 514C     		ldr	r4, .L4+60
 279              	.LBE99:
 280              	.LBE105:
 281              	.LBB106:
 282              	.LBB107:
 283              		.loc 1 145 18 view .LVU88
 284 0092 524A     		ldr	r2, .L4+64
 285              	.LBE107:
ARM GAS  C:\Users\DEVELO~1\AppData\Local\Temp\ccuLegET.s 			page 6


 286              	.LBE106:
 287              	.LBB110:
 288              	.LBB100:
 289              		.loc 1 150 18 view .LVU89
 290 0094 4462     		str	r4, [r0, #36]
 291              		.loc 1 151 3 is_stmt 1 view .LVU90
 292              		.loc 1 151 18 is_stmt 0 view .LVU91
 293 0096 524C     		ldr	r4, .L4+68
 294 0098 0460     		str	r4, [r0]
 295              	.LVL5:
 296              		.loc 1 151 18 view .LVU92
 297              	.LBE100:
 298              	.LBE110:
 299              		.loc 1 172 3 is_stmt 1 view .LVU93
 300              	.LBB111:
 301              	.LBI106:
 302              		.loc 1 143 13 view .LVU94
 303              	.LBB108:
 304              		.loc 1 145 3 view .LVU95
 305              	.LBE108:
 306              	.LBE111:
 307              	.LBB112:
 308              	.LBB113:
 309              		.loc 1 145 18 is_stmt 0 view .LVU96
 310 009a 00F50060 		add	r0, r0, #2048
 311              	.LBE113:
 312              	.LBE112:
 313              	.LBB116:
 314              	.LBB109:
 315              		.loc 1 146 18 view .LVU97
 316 009e 514C     		ldr	r4, .L4+72
 317              		.loc 1 145 18 view .LVU98
 318 00a0 5360     		str	r3, [r2, #4]
 319              		.loc 1 146 3 is_stmt 1 view .LVU99
 320              		.loc 1 146 18 is_stmt 0 view .LVU100
 321 00a2 9460     		str	r4, [r2, #8]
 322              		.loc 1 147 3 is_stmt 1 view .LVU101
 323              		.loc 1 149 18 is_stmt 0 view .LVU102
 324 00a4 504C     		ldr	r4, .L4+76
 325              		.loc 1 147 18 view .LVU103
 326 00a6 D360     		str	r3, [r2, #12]
 327              		.loc 1 148 3 is_stmt 1 view .LVU104
 328              		.loc 1 148 18 is_stmt 0 view .LVU105
 329 00a8 5161     		str	r1, [r2, #20]
 330              		.loc 1 149 3 is_stmt 1 view .LVU106
 331              		.loc 1 149 18 is_stmt 0 view .LVU107
 332 00aa 1462     		str	r4, [r2, #32]
 333              		.loc 1 150 3 is_stmt 1 view .LVU108
 334              		.loc 1 150 18 is_stmt 0 view .LVU109
 335 00ac 04F1F844 		add	r4, r4, #2080374784
 336 00b0 04F50814 		add	r4, r4, #2228224
 337 00b4 5462     		str	r4, [r2, #36]
 338              		.loc 1 151 3 is_stmt 1 view .LVU110
 339              		.loc 1 151 18 is_stmt 0 view .LVU111
 340 00b6 4D4C     		ldr	r4, .L4+80
 341 00b8 1460     		str	r4, [r2]
 342              	.LVL6:
ARM GAS  C:\Users\DEVELO~1\AppData\Local\Temp\ccuLegET.s 			page 7


 343              		.loc 1 151 18 view .LVU112
 344              	.LBE109:
 345              	.LBE116:
 346              		.loc 1 175 3 is_stmt 1 view .LVU113
 347              	.LBB117:
 348              	.LBI112:
 349              		.loc 1 143 13 view .LVU114
 350              	.LBB114:
 351              		.loc 1 145 3 view .LVU115
 352              		.loc 1 146 18 is_stmt 0 view .LVU116
 353 00ba 6FF44054 		mvn	r4, #12288
 354              		.loc 1 145 18 view .LVU117
 355 00be 4360     		str	r3, [r0, #4]
 356              		.loc 1 146 3 is_stmt 1 view .LVU118
 357              	.LBE114:
 358              	.LBE117:
 359              	.LBB118:
 360              	.LBB119:
 361              		.loc 1 145 18 is_stmt 0 view .LVU119
 362 00c0 02F50062 		add	r2, r2, #2048
 363              	.LBE119:
 364              	.LBE118:
 365              	.LBB121:
 366              	.LBB115:
 367              		.loc 1 146 18 view .LVU120
 368 00c4 8460     		str	r4, [r0, #8]
 369              		.loc 1 147 3 is_stmt 1 view .LVU121
 370              		.loc 1 149 18 is_stmt 0 view .LVU122
 371 00c6 A4F17E54 		sub	r4, r4, #1065353216
 372              		.loc 1 147 18 view .LVU123
 373 00ca C360     		str	r3, [r0, #12]
 374              		.loc 1 148 3 is_stmt 1 view .LVU124
 375              		.loc 1 149 18 is_stmt 0 view .LVU125
 376 00cc A4F5CB14 		sub	r4, r4, #1662976
 377              		.loc 1 148 18 view .LVU126
 378 00d0 4161     		str	r1, [r0, #20]
 379              		.loc 1 149 3 is_stmt 1 view .LVU127
 380              		.loc 1 149 18 is_stmt 0 view .LVU128
 381 00d2 A4F63314 		subw	r4, r4, #2355
 382 00d6 0462     		str	r4, [r0, #32]
 383              		.loc 1 150 3 is_stmt 1 view .LVU129
 384              		.loc 1 150 18 is_stmt 0 view .LVU130
 385 00d8 4FF0CC34 		mov	r4, #-858993460
 386 00dc 4462     		str	r4, [r0, #36]
 387              		.loc 1 151 3 is_stmt 1 view .LVU131
 388              		.loc 1 151 18 is_stmt 0 view .LVU132
 389 00de 444C     		ldr	r4, .L4+84
 390 00e0 0460     		str	r4, [r0]
 391              	.LVL7:
 392              		.loc 1 151 18 view .LVU133
 393              	.LBE115:
 394              	.LBE121:
 395              		.loc 1 178 3 is_stmt 1 view .LVU134
 396              	.LBB122:
 397              	.LBI118:
 398              		.loc 1 143 13 view .LVU135
 399              	.LBB120:
ARM GAS  C:\Users\DEVELO~1\AppData\Local\Temp\ccuLegET.s 			page 8


 400              		.loc 1 145 3 view .LVU136
 401              		.loc 1 146 18 is_stmt 0 view .LVU137
 402 00e2 444C     		ldr	r4, .L4+88
 403              		.loc 1 145 18 view .LVU138
 404 00e4 5360     		str	r3, [r2, #4]
 405              		.loc 1 146 3 is_stmt 1 view .LVU139
 406              		.loc 1 146 18 is_stmt 0 view .LVU140
 407 00e6 9460     		str	r4, [r2, #8]
 408              		.loc 1 147 3 is_stmt 1 view .LVU141
 409              		.loc 1 149 18 is_stmt 0 view .LVU142
 410 00e8 434C     		ldr	r4, .L4+92
 411              		.loc 1 147 18 view .LVU143
 412 00ea D360     		str	r3, [r2, #12]
 413              		.loc 1 148 3 is_stmt 1 view .LVU144
 414              		.loc 1 148 18 is_stmt 0 view .LVU145
 415 00ec 5161     		str	r1, [r2, #20]
 416              		.loc 1 149 3 is_stmt 1 view .LVU146
 417              		.loc 1 149 18 is_stmt 0 view .LVU147
 418 00ee 1462     		str	r4, [r2, #32]
 419              		.loc 1 150 3 is_stmt 1 view .LVU148
 420              		.loc 1 150 18 is_stmt 0 view .LVU149
 421 00f0 04F1F844 		add	r4, r4, #2080374784
 422 00f4 A4F67744 		subw	r4, r4, #3191
 423 00f8 5462     		str	r4, [r2, #36]
 424              		.loc 1 151 3 is_stmt 1 view .LVU150
 425              		.loc 1 151 18 is_stmt 0 view .LVU151
 426 00fa 04F15E44 		add	r4, r4, #-570425344
 427 00fe A4F59014 		sub	r4, r4, #1179648
 428 0102 A4F2AB54 		subw	r4, r4, #1451
 429 0106 1460     		str	r4, [r2]
 430              	.LVL8:
 431              		.loc 1 151 18 view .LVU152
 432              	.LBE120:
 433              	.LBE122:
 434              		.loc 1 181 3 is_stmt 1 view .LVU153
 435              	.LBB123:
 436              	.LBI123:
 437              		.loc 1 143 13 view .LVU154
 438              	.LBB124:
 439              		.loc 1 145 3 view .LVU155
 440              		.loc 1 146 18 is_stmt 0 view .LVU156
 441 0108 3C4C     		ldr	r4, .L4+96
 442              		.loc 1 145 18 view .LVU157
 443 010a C0F80438 		str	r3, [r0, #2052]
 444              		.loc 1 146 3 is_stmt 1 view .LVU158
 445              		.loc 1 146 18 is_stmt 0 view .LVU159
 446 010e C0F80848 		str	r4, [r0, #2056]
 447              		.loc 1 147 3 is_stmt 1 view .LVU160
 448              		.loc 1 148 18 is_stmt 0 view .LVU161
 449 0112 4FF6BF74 		movw	r4, #65471
 450              		.loc 1 147 18 view .LVU162
 451 0116 C0F80C38 		str	r3, [r0, #2060]
 452              		.loc 1 148 3 is_stmt 1 view .LVU163
 453              		.loc 1 148 18 is_stmt 0 view .LVU164
 454 011a C0F81448 		str	r4, [r0, #2068]
 455              		.loc 1 149 3 is_stmt 1 view .LVU165
 456              		.loc 1 149 18 is_stmt 0 view .LVU166
ARM GAS  C:\Users\DEVELO~1\AppData\Local\Temp\ccuLegET.s 			page 9


 457 011e 384C     		ldr	r4, .L4+100
 458 0120 C0F82048 		str	r4, [r0, #2080]
 459              		.loc 1 150 3 is_stmt 1 view .LVU167
 460              		.loc 1 150 18 is_stmt 0 view .LVU168
 461 0124 374C     		ldr	r4, .L4+104
 462 0126 C0F82448 		str	r4, [r0, #2084]
 463              		.loc 1 151 3 is_stmt 1 view .LVU169
 464              		.loc 1 151 18 is_stmt 0 view .LVU170
 465 012a 374C     		ldr	r4, .L4+108
 466 012c C0F80048 		str	r4, [r0, #2048]
 467              	.LVL9:
 468              		.loc 1 151 18 view .LVU171
 469              	.LBE124:
 470              	.LBE123:
 471              		.loc 1 184 3 is_stmt 1 view .LVU172
 472              	.LBB125:
 473              	.LBI125:
 474              		.loc 1 143 13 view .LVU173
 475              	.LBB126:
 476              		.loc 1 145 3 view .LVU174
 477              		.loc 1 146 18 is_stmt 0 view .LVU175
 478 0130 3648     		ldr	r0, .L4+112
 479              		.loc 1 145 18 view .LVU176
 480 0132 C2F80438 		str	r3, [r2, #2052]
 481              		.loc 1 146 3 is_stmt 1 view .LVU177
 482              		.loc 1 146 18 is_stmt 0 view .LVU178
 483 0136 C2F80808 		str	r0, [r2, #2056]
 484              		.loc 1 147 3 is_stmt 1 view .LVU179
 485              		.loc 1 147 18 is_stmt 0 view .LVU180
 486 013a 4FF4A030 		mov	r0, #81920
 487              	.LBE126:
 488              	.LBE125:
 489              	.LBB128:
 490              	.LBB75:
 491              		.loc 1 145 18 view .LVU181
 492 013e 344C     		ldr	r4, .L4+116
 493              	.LBE75:
 494              	.LBE128:
 495              	.LBB129:
 496              	.LBB127:
 497              		.loc 1 147 18 view .LVU182
 498 0140 C2F80C08 		str	r0, [r2, #2060]
 499              		.loc 1 148 3 is_stmt 1 view .LVU183
 500              		.loc 1 148 18 is_stmt 0 view .LVU184
 501 0144 4FF6E370 		movw	r0, #65507
 502 0148 C2F81408 		str	r0, [r2, #2068]
 503              		.loc 1 149 3 is_stmt 1 view .LVU185
 504              		.loc 1 149 18 is_stmt 0 view .LVU186
 505 014c 4FF08040 		mov	r0, #1073741824
 506 0150 C2F82008 		str	r0, [r2, #2080]
 507              		.loc 1 150 3 is_stmt 1 view .LVU187
 508              		.loc 1 150 18 is_stmt 0 view .LVU188
 509 0154 42F20420 		movw	r0, #8708
 510 0158 C2F82408 		str	r0, [r2, #2084]
 511              		.loc 1 151 3 is_stmt 1 view .LVU189
 512              		.loc 1 151 18 is_stmt 0 view .LVU190
 513 015c 2D48     		ldr	r0, .L4+120
ARM GAS  C:\Users\DEVELO~1\AppData\Local\Temp\ccuLegET.s 			page 10


 514 015e C2F80008 		str	r0, [r2, #2048]
 515              	.LVL10:
 516              		.loc 1 151 18 view .LVU191
 517              	.LBE127:
 518              	.LBE129:
 519              		.loc 1 187 3 is_stmt 1 view .LVU192
 520              	.LBB130:
 521              	.LBI73:
 522              		.loc 1 143 13 view .LVU193
 523              	.LBB76:
 524              		.loc 1 145 3 view .LVU194
 525              		.loc 1 148 18 is_stmt 0 view .LVU195
 526 0162 4FF6CF72 		movw	r2, #65487
 527              		.loc 1 145 18 view .LVU196
 528 0166 6360     		str	r3, [r4, #4]
 529              		.loc 1 146 3 is_stmt 1 view .LVU197
 530              	.LBE76:
 531              	.LBE130:
 532              	.LBB131:
 533              	.LBB93:
 534              		.loc 1 145 18 is_stmt 0 view .LVU198
 535 0168 2B48     		ldr	r0, .L4+124
 536              	.LBE93:
 537              	.LBE131:
 538              	.LBB132:
 539              	.LBB77:
 540              		.loc 1 146 18 view .LVU199
 541 016a A160     		str	r1, [r4, #8]
 542              		.loc 1 147 3 is_stmt 1 view .LVU200
 543              		.loc 1 147 18 is_stmt 0 view .LVU201
 544 016c E360     		str	r3, [r4, #12]
 545              		.loc 1 148 3 is_stmt 1 view .LVU202
 546              		.loc 1 148 18 is_stmt 0 view .LVU203
 547 016e 6261     		str	r2, [r4, #20]
 548              		.loc 1 149 3 is_stmt 1 view .LVU204
 549              		.loc 1 149 18 is_stmt 0 view .LVU205
 550 0170 2662     		str	r6, [r4, #32]
 551              		.loc 1 150 3 is_stmt 1 view .LVU206
 552              	.LBE77:
 553              	.LBE132:
 554              	.LBB133:
 555              	.LBB134:
 556              		.loc 1 145 18 is_stmt 0 view .LVU207
 557 0172 2A4A     		ldr	r2, .L4+128
 558              	.LBE134:
 559              	.LBE133:
 560              	.LBB136:
 561              	.LBB78:
 562              		.loc 1 151 18 view .LVU208
 563 0174 2A4E     		ldr	r6, .L4+132
 564              		.loc 1 150 18 view .LVU209
 565 0176 6362     		str	r3, [r4, #36]
 566              		.loc 1 151 3 is_stmt 1 view .LVU210
 567              		.loc 1 151 18 is_stmt 0 view .LVU211
 568 0178 2660     		str	r6, [r4]
 569              	.LVL11:
 570              		.loc 1 151 18 view .LVU212
ARM GAS  C:\Users\DEVELO~1\AppData\Local\Temp\ccuLegET.s 			page 11


 571              	.LBE78:
 572              	.LBE136:
 573              		.loc 1 190 3 is_stmt 1 view .LVU213
 574              	.LBB137:
 575              	.LBI91:
 576              		.loc 1 143 13 view .LVU214
 577              	.LBB94:
 578              		.loc 1 145 3 view .LVU215
 579              		.loc 1 145 18 is_stmt 0 view .LVU216
 580 017a 4360     		str	r3, [r0, #4]
 581              		.loc 1 146 3 is_stmt 1 view .LVU217
 582              		.loc 1 146 18 is_stmt 0 view .LVU218
 583 017c 8360     		str	r3, [r0, #8]
 584              		.loc 1 147 3 is_stmt 1 view .LVU219
 585              		.loc 1 147 18 is_stmt 0 view .LVU220
 586 017e C560     		str	r5, [r0, #12]
 587              		.loc 1 148 3 is_stmt 1 view .LVU221
 588              		.loc 1 148 18 is_stmt 0 view .LVU222
 589 0180 4161     		str	r1, [r0, #20]
 590              		.loc 1 149 3 is_stmt 1 view .LVU223
 591              		.loc 1 149 18 is_stmt 0 view .LVU224
 592 0182 0362     		str	r3, [r0, #32]
 593              		.loc 1 150 3 is_stmt 1 view .LVU225
 594              		.loc 1 150 18 is_stmt 0 view .LVU226
 595 0184 4362     		str	r3, [r0, #36]
 596              		.loc 1 151 3 is_stmt 1 view .LVU227
 597              		.loc 1 151 18 is_stmt 0 view .LVU228
 598 0186 0360     		str	r3, [r0]
 599              	.LVL12:
 600              		.loc 1 151 18 view .LVU229
 601              	.LBE94:
 602              	.LBE137:
 603              		.loc 1 193 3 is_stmt 1 view .LVU230
 604              	.LBB138:
 605              	.LBI133:
 606              		.loc 1 143 13 view .LVU231
 607              	.LBB135:
 608              		.loc 1 145 3 view .LVU232
 609              		.loc 1 145 18 is_stmt 0 view .LVU233
 610 0188 5360     		str	r3, [r2, #4]
 611              		.loc 1 146 3 is_stmt 1 view .LVU234
 612              		.loc 1 146 18 is_stmt 0 view .LVU235
 613 018a 9360     		str	r3, [r2, #8]
 614              		.loc 1 147 3 is_stmt 1 view .LVU236
 615              		.loc 1 147 18 is_stmt 0 view .LVU237
 616 018c D560     		str	r5, [r2, #12]
 617              		.loc 1 148 3 is_stmt 1 view .LVU238
 618              		.loc 1 148 18 is_stmt 0 view .LVU239
 619 018e 5161     		str	r1, [r2, #20]
 620              		.loc 1 149 3 is_stmt 1 view .LVU240
 621              		.loc 1 149 18 is_stmt 0 view .LVU241
 622 0190 1362     		str	r3, [r2, #32]
 623              		.loc 1 150 3 is_stmt 1 view .LVU242
 624              		.loc 1 150 18 is_stmt 0 view .LVU243
 625 0192 5362     		str	r3, [r2, #36]
 626              		.loc 1 151 3 is_stmt 1 view .LVU244
 627              		.loc 1 151 18 is_stmt 0 view .LVU245
ARM GAS  C:\Users\DEVELO~1\AppData\Local\Temp\ccuLegET.s 			page 12


 628 0194 1360     		str	r3, [r2]
 629              	.LVL13:
 630              		.loc 1 151 18 view .LVU246
 631              	.LBE135:
 632              	.LBE138:
 633              	.LBE139:
 634              		.loc 1 213 3 is_stmt 1 view .LVU247
 635              		.loc 1 214 1 is_stmt 0 view .LVU248
 636 0196 70BC     		pop	{r4, r5, r6}
 637              		.cfi_restore 6
 638              		.cfi_restore 5
 639              		.cfi_restore 4
 640              		.cfi_def_cfa_offset 0
 641              		.loc 1 213 3 view .LVU249
 642 0198 FFF7FEBF 		b	stm32_clock_init
 643              	.LVL14:
 644              	.L5:
 645              		.align	2
 646              	.L4:
 647 019c 00440258 		.word	1476543488
 648 01a0 00F8FFFF 		.word	-2048
 649 01a4 FC00F3AB 		.word	-1410137860
 650 01a8 00000258 		.word	1476526080
 651 01ac 00040258 		.word	1476527104
 652 01b0 B00B00B0 		.word	-1342174288
 653 01b4 00080258 		.word	1476528128
 654 01b8 0AAA0A00 		.word	698890
 655 01bc 6BD5AEAA 		.word	-1431382677
 656 01c0 CACFA0FC 		.word	-56569910
 657 01c4 22606600 		.word	6709282
 658 01c8 0011B0CC 		.word	-860876544
 659 01cc BA7AAFAB 		.word	-1414563142
 660 01d0 FFCCFF03 		.word	67095807
 661 01d4 BCCCBB30 		.word	817614012
 662 01d8 CCCC0C00 		.word	838860
 663 01dc 000C0258 		.word	1476529152
 664 01e0 AABBAA02 		.word	44743594
 665 01e4 3FF03FFA 		.word	-96473025
 666 01e8 CC0C0050 		.word	1342180556
 667 01ec EA9FEAAA 		.word	-1427464214
 668 01f0 AABAAAAA 		.word	-1431651670
 669 01f4 FFCFCFFF 		.word	-3158017
 670 01f8 CCCCCC50 		.word	1355599052
 671 01fc 3F0FFFFF 		.word	-61633
 672 0200 CC0CCC00 		.word	13372620
 673 0204 5C5055C5 		.word	-984264612
 674 0208 EA1A9AAA 		.word	-1432741142
 675 020c 0540A100 		.word	10567685
 676 0210 00200258 		.word	1476534272
 677 0214 5ABDAEFF 		.word	-5325478
 678 0218 00240258 		.word	1476535296
 679 021c 00280258 		.word	1476536320
 680 0220 A955FFFF 		.word	-43607
 681              		.cfi_endproc
 682              	.LFE450:
 683              		.size	__early_init, .-__early_init
 684              		.section	.text.sdc_lld_is_card_inserted,"ax",%progbits
ARM GAS  C:\Users\DEVELO~1\AppData\Local\Temp\ccuLegET.s 			page 13


 685              		.align	1
 686              		.p2align 2,,3
 687              		.global	sdc_lld_is_card_inserted
 688              		.syntax unified
 689              		.thumb
 690              		.thumb_func
 691              		.type	sdc_lld_is_card_inserted, %function
 692              	sdc_lld_is_card_inserted:
 693              	.LVL15:
 694              	.LFB451:
 695              		.loc 1 220 48 is_stmt 1 view -0
 696              		.cfi_startproc
 697              		@ args = 0, pretend = 0, frame = 0
 698              		@ frame_needed = 0, uses_anonymous_args = 0
 699              		@ link register save eliminated.
 700              		.loc 1 222 3 view .LVU251
 701              		.loc 1 224 3 view .LVU252
 702              		.loc 1 225 1 is_stmt 0 view .LVU253
 703 0000 0120     		movs	r0, #1
 704              	.LVL16:
 705              		.loc 1 225 1 view .LVU254
 706 0002 7047     		bx	lr
 707              		.cfi_endproc
 708              	.LFE451:
 709              		.size	sdc_lld_is_card_inserted, .-sdc_lld_is_card_inserted
 710              		.section	.text.sdc_lld_is_write_protected,"ax",%progbits
 711              		.align	1
 712              		.p2align 2,,3
 713              		.global	sdc_lld_is_write_protected
 714              		.syntax unified
 715              		.thumb
 716              		.thumb_func
 717              		.type	sdc_lld_is_write_protected, %function
 718              	sdc_lld_is_write_protected:
 719              	.LVL17:
 720              	.LFB452:
 721              		.loc 1 230 50 is_stmt 1 view -0
 722              		.cfi_startproc
 723              		@ args = 0, pretend = 0, frame = 0
 724              		@ frame_needed = 0, uses_anonymous_args = 0
 725              		@ link register save eliminated.
 726              		.loc 1 232 3 view .LVU256
 727              		.loc 1 234 3 view .LVU257
 728              		.loc 1 235 1 is_stmt 0 view .LVU258
 729 0000 0020     		movs	r0, #0
 730              	.LVL18:
 731              		.loc 1 235 1 view .LVU259
 732 0002 7047     		bx	lr
 733              		.cfi_endproc
 734              	.LFE452:
 735              		.size	sdc_lld_is_write_protected, .-sdc_lld_is_write_protected
 736              		.section	.text.boardInit,"ax",%progbits
 737              		.align	1
 738              		.p2align 2,,3
 739              		.global	boardInit
 740              		.syntax unified
 741              		.thumb
ARM GAS  C:\Users\DEVELO~1\AppData\Local\Temp\ccuLegET.s 			page 14


 742              		.thumb_func
 743              		.type	boardInit, %function
 744              	boardInit:
 745              	.LFB453:
 746              		.loc 1 264 22 is_stmt 1 view -0
 747              		.cfi_startproc
 748              		@ args = 0, pretend = 0, frame = 0
 749              		@ frame_needed = 0, uses_anonymous_args = 0
 750              		@ link register save eliminated.
 751              		.loc 1 266 1 view .LVU261
 752 0000 7047     		bx	lr
 753              		.cfi_endproc
 754              	.LFE453:
 755              		.size	boardInit, .-boardInit
 756 0002 00BF     		.text
 757              	.Letext0:
 758              		.file 3 "c:\\chibistudio\\tools\\gnu tools arm embedded\\11.3 2022.08\\lib\\gcc\\arm-none-eabi\\11
 759              		.file 4 "c:\\chibistudio\\tools\\gnu tools arm embedded\\11.3 2022.08\\arm-none-eabi\\include\\mac
 760              		.file 5 "c:\\chibistudio\\tools\\gnu tools arm embedded\\11.3 2022.08\\arm-none-eabi\\include\\sys
 761              		.file 6 "./docs/ChibiOS/os/common/ports/ARM-common/include/chtypes.h"
 762              		.file 7 "./docs/ChibiOS/os/rt/include/chearly.h"
 763              		.file 8 "./docs/ChibiOS/os/rt/include/chobjects.h"
 764              		.file 9 "./docs/ChibiOS/os/rt/include/chrfcu.h"
 765              		.file 10 "./docs/ChibiOS/os/rt/include/chdebug.h"
 766              		.file 11 "./docs/ChibiOS/os/rt/include/chtime.h"
 767              		.file 12 "./docs/ChibiOS/os/rt/include/chtrace.h"
 768              		.file 13 "./docs/ChibiOS/os/common/ext/ST/STM32H7xx/stm32h743xx.h"
 769              		.file 14 "./docs/ChibiOS/os/common/ports/ARMv7-M/chcore.h"
 770              		.file 15 "./docs/ChibiOS/os/rt/include/chlists.h"
 771              		.file 16 "./docs/ChibiOS/os/rt/include/chsem.h"
 772              		.file 17 "./docs/ChibiOS/os/rt/include/chmtx.h"
 773              		.file 18 "./docs/ChibiOS/os/hal/include/hal_ioblock.h"
 774              		.file 19 "./docs/ChibiOS/os/hal/ports/STM32/LLD/GPIOv2/stm32_gpio.h"
 775              		.file 20 "./docs/ChibiOS/os/hal/include/hal_sdc.h"
 776              		.file 21 "./docs/ChibiOS/os/hal/ports/STM32/LLD/SDMMCv2/hal_sdc_lld.h"
 777              		.file 22 "./docs/ChibiOS/os/hal/ports/STM32/STM32H7xx/hal_lld.h"