ARM GAS  C:\Users\DEVELO~1\AppData\Local\Temp\ccmtuCvA.s 			page 1


   1              		.cpu cortex-m7
   2              		.arch armv7e-m
   3              		.fpu fpv5-d16
   4              		.eabi_attribute 28, 1
   5              		.eabi_attribute 20, 1
   6              		.eabi_attribute 21, 1
   7              		.eabi_attribute 23, 3
   8              		.eabi_attribute 24, 1
   9              		.eabi_attribute 25, 1
  10              		.eabi_attribute 26, 1
  11              		.eabi_attribute 30, 2
  12              		.eabi_attribute 34, 1
  13              		.eabi_attribute 18, 4
  14              		.file	"chdelegates.c"
  15              		.text
  16              	.Ltext0:
  17              		.cfi_sections	.debug_frame
  18              		.section	.text.__ch_delegate_fn0,"ax",%progbits
  19              		.align	1
  20              		.p2align 2,,3
  21              		.global	__ch_delegate_fn0
  22              		.syntax unified
  23              		.thumb
  24              		.thumb_func
  25              		.type	__ch_delegate_fn0, %function
  26              	__ch_delegate_fn0:
  27              	.LVL0:
  28              	.LFB352:
  29              		.file 1 "../../../os/oslib/src/chdelegates.c"
  30              		.loc 1 88 41 view -0
  31              		.cfi_startproc
  32              		@ args = 0, pretend = 0, frame = 0
  33              		@ frame_needed = 0, uses_anonymous_args = 0
  34              		@ link register save eliminated.
  35              		.loc 1 89 3 view .LVU1
  36              		.loc 1 89 18 is_stmt 0 view .LVU2
  37 0000 0368     		ldr	r3, [r0]
  38 0002 1A1D     		adds	r2, r3, #4
  39 0004 0260     		str	r2, [r0]
  40              		.loc 1 90 3 is_stmt 1 view .LVU3
  41              		.loc 1 90 10 is_stmt 0 view .LVU4
  42 0006 1B68     		ldr	r3, [r3]
  43 0008 1847     		bx	r3
  44              	.LVL1:
  45              		.loc 1 90 10 view .LVU5
  46              		.cfi_endproc
  47              	.LFE352:
  48              		.size	__ch_delegate_fn0, .-__ch_delegate_fn0
  49 000a 00BF     		.section	.text.__ch_delegate_fn1,"ax",%progbits
  50              		.align	1
  51              		.p2align 2,,3
  52              		.global	__ch_delegate_fn1
  53              		.syntax unified
  54              		.thumb
  55              		.thumb_func
  56              		.type	__ch_delegate_fn1, %function
  57              	__ch_delegate_fn1:
ARM GAS  C:\Users\DEVELO~1\AppData\Local\Temp\ccmtuCvA.s 			page 2


  58              	.LVL2:
  59              	.LFB353:
  60              		.loc 1 99 41 is_stmt 1 view -0
  61              		.cfi_startproc
  62              		@ args = 0, pretend = 0, frame = 0
  63              		@ frame_needed = 0, uses_anonymous_args = 0
  64              		@ link register save eliminated.
  65              		.loc 1 100 3 view .LVU7
  66              		.loc 1 100 18 is_stmt 0 view .LVU8
  67 0000 0368     		ldr	r3, [r0]
  68              		.loc 1 99 41 view .LVU9
  69 0002 0246     		mov	r2, r0
  70              		.loc 1 100 18 view .LVU10
  71 0004 191D     		adds	r1, r3, #4
  72              		.loc 1 102 10 view .LVU11
  73 0006 5868     		ldr	r0, [r3, #4]
  74              	.LVL3:
  75              		.loc 1 100 18 view .LVU12
  76 0008 1160     		str	r1, [r2]
  77 000a 53F8081B 		ldr	r1, [r3], #8
  78              		.loc 1 101 3 is_stmt 1 view .LVU13
  79              		.loc 1 101 9 is_stmt 0 view .LVU14
  80 000e 1360     		str	r3, [r2]
  81              		.loc 1 102 3 is_stmt 1 view .LVU15
  82              		.loc 1 102 10 is_stmt 0 view .LVU16
  83 0010 0847     		bx	r1
  84              	.LVL4:
  85              		.loc 1 102 10 view .LVU17
  86              		.cfi_endproc
  87              	.LFE353:
  88              		.size	__ch_delegate_fn1, .-__ch_delegate_fn1
  89 0012 00BF     		.section	.text.__ch_delegate_fn2,"ax",%progbits
  90              		.align	1
  91              		.p2align 2,,3
  92              		.global	__ch_delegate_fn2
  93              		.syntax unified
  94              		.thumb
  95              		.thumb_func
  96              		.type	__ch_delegate_fn2, %function
  97              	__ch_delegate_fn2:
  98              	.LVL5:
  99              	.LFB354:
 100              		.loc 1 111 41 is_stmt 1 view -0
 101              		.cfi_startproc
 102              		@ args = 0, pretend = 0, frame = 0
 103              		@ frame_needed = 0, uses_anonymous_args = 0
 104              		@ link register save eliminated.
 105              		.loc 1 112 3 view .LVU19
 106              		.loc 1 112 18 is_stmt 0 view .LVU20
 107 0000 0368     		ldr	r3, [r0]
 108              		.loc 1 111 41 view .LVU21
 109 0002 0246     		mov	r2, r0
 110 0004 10B4     		push	{r4}
 111              		.cfi_def_cfa_offset 4
 112              		.cfi_offset 4, -4
 113              		.loc 1 112 18 view .LVU22
 114 0006 1C1D     		adds	r4, r3, #4
ARM GAS  C:\Users\DEVELO~1\AppData\Local\Temp\ccmtuCvA.s 			page 3


 115              		.loc 1 113 9 view .LVU23
 116 0008 5868     		ldr	r0, [r3, #4]
 117              	.LVL6:
 118              		.loc 1 114 9 view .LVU24
 119 000a 03F10C01 		add	r1, r3, #12
 120              		.loc 1 112 18 view .LVU25
 121 000e 1460     		str	r4, [r2]
 122 0010 1C68     		ldr	r4, [r3]
 123              		.loc 1 113 3 is_stmt 1 view .LVU26
 124              		.loc 1 114 3 view .LVU27
 125              		.loc 1 114 9 is_stmt 0 view .LVU28
 126 0012 1160     		str	r1, [r2]
 127              		.loc 1 115 3 is_stmt 1 view .LVU29
 128              		.loc 1 115 10 is_stmt 0 view .LVU30
 129 0014 9968     		ldr	r1, [r3, #8]
 130 0016 2346     		mov	r3, r4
 131              		.loc 1 116 1 view .LVU31
 132 0018 5DF8044B 		ldr	r4, [sp], #4
 133              		.cfi_restore 4
 134              		.cfi_def_cfa_offset 0
 135              		.loc 1 115 10 view .LVU32
 136 001c 1847     		bx	r3
 137              	.LVL7:
 138              		.loc 1 115 10 view .LVU33
 139              		.cfi_endproc
 140              	.LFE354:
 141              		.size	__ch_delegate_fn2, .-__ch_delegate_fn2
 142 001e 00BF     		.section	.text.__ch_delegate_fn3,"ax",%progbits
 143              		.align	1
 144              		.p2align 2,,3
 145              		.global	__ch_delegate_fn3
 146              		.syntax unified
 147              		.thumb
 148              		.thumb_func
 149              		.type	__ch_delegate_fn3, %function
 150              	__ch_delegate_fn3:
 151              	.LVL8:
 152              	.LFB355:
 153              		.loc 1 124 41 is_stmt 1 view -0
 154              		.cfi_startproc
 155              		@ args = 0, pretend = 0, frame = 0
 156              		@ frame_needed = 0, uses_anonymous_args = 0
 157              		@ link register save eliminated.
 158              		.loc 1 125 3 view .LVU35
 159              		.loc 1 125 18 is_stmt 0 view .LVU36
 160 0000 0368     		ldr	r3, [r0]
 161              		.loc 1 124 41 view .LVU37
 162 0002 0246     		mov	r2, r0
 163 0004 30B4     		push	{r4, r5}
 164              		.cfi_def_cfa_offset 8
 165              		.cfi_offset 4, -8
 166              		.cfi_offset 5, -4
 167              		.loc 1 125 18 view .LVU38
 168 0006 1C1D     		adds	r4, r3, #4
 169              		.loc 1 128 9 view .LVU39
 170 0008 03F11005 		add	r5, r3, #16
 171              		.loc 1 127 9 view .LVU40
ARM GAS  C:\Users\DEVELO~1\AppData\Local\Temp\ccmtuCvA.s 			page 4


 172 000c D3E90101 		ldrd	r0, r1, [r3, #4]
 173              	.LVL9:
 174              		.loc 1 125 18 view .LVU41
 175 0010 1460     		str	r4, [r2]
 176 0012 1C68     		ldr	r4, [r3]
 177              		.loc 1 126 3 is_stmt 1 view .LVU42
 178              		.loc 1 127 3 view .LVU43
 179              		.loc 1 128 3 view .LVU44
 180              		.loc 1 128 9 is_stmt 0 view .LVU45
 181 0014 1560     		str	r5, [r2]
 182              		.loc 1 129 3 is_stmt 1 view .LVU46
 183              		.loc 1 129 10 is_stmt 0 view .LVU47
 184 0016 DA68     		ldr	r2, [r3, #12]
 185              	.LVL10:
 186              		.loc 1 129 10 view .LVU48
 187 0018 2346     		mov	r3, r4
 188              		.loc 1 130 1 view .LVU49
 189 001a 30BC     		pop	{r4, r5}
 190              		.cfi_restore 5
 191              		.cfi_restore 4
 192              		.cfi_def_cfa_offset 0
 193              		.loc 1 129 10 view .LVU50
 194 001c 1847     		bx	r3
 195              	.LVL11:
 196              		.cfi_endproc
 197              	.LFE355:
 198              		.size	__ch_delegate_fn3, .-__ch_delegate_fn3
 199 001e 00BF     		.section	.text.__ch_delegate_fn4,"ax",%progbits
 200              		.align	1
 201              		.p2align 2,,3
 202              		.global	__ch_delegate_fn4
 203              		.syntax unified
 204              		.thumb
 205              		.thumb_func
 206              		.type	__ch_delegate_fn4, %function
 207              	__ch_delegate_fn4:
 208              	.LVL12:
 209              	.LFB356:
 210              		.loc 1 138 41 is_stmt 1 view -0
 211              		.cfi_startproc
 212              		@ args = 0, pretend = 0, frame = 0
 213              		@ frame_needed = 0, uses_anonymous_args = 0
 214              		@ link register save eliminated.
 215              		.loc 1 139 3 view .LVU52
 216              		.loc 1 139 18 is_stmt 0 view .LVU53
 217 0000 0368     		ldr	r3, [r0]
 218              		.loc 1 138 41 view .LVU54
 219 0002 8446     		mov	ip, r0
 220 0004 30B4     		push	{r4, r5}
 221              		.cfi_def_cfa_offset 8
 222              		.cfi_offset 4, -8
 223              		.cfi_offset 5, -4
 224              		.loc 1 139 18 view .LVU55
 225 0006 1C1D     		adds	r4, r3, #4
 226              		.loc 1 142 9 view .LVU56
 227 0008 DA68     		ldr	r2, [r3, #12]
 228              		.loc 1 143 9 view .LVU57
ARM GAS  C:\Users\DEVELO~1\AppData\Local\Temp\ccmtuCvA.s 			page 5


 229 000a 03F11405 		add	r5, r3, #20
 230              		.loc 1 141 9 view .LVU58
 231 000e D3E90101 		ldrd	r0, r1, [r3, #4]
 232              	.LVL13:
 233              		.loc 1 139 18 view .LVU59
 234 0012 CCF80040 		str	r4, [ip]
 235 0016 1C68     		ldr	r4, [r3]
 236              		.loc 1 140 3 is_stmt 1 view .LVU60
 237              		.loc 1 141 3 view .LVU61
 238              		.loc 1 142 3 view .LVU62
 239              		.loc 1 143 3 view .LVU63
 240              		.loc 1 143 9 is_stmt 0 view .LVU64
 241 0018 CCF80050 		str	r5, [ip]
 242              		.loc 1 144 3 is_stmt 1 view .LVU65
 243              		.loc 1 144 10 is_stmt 0 view .LVU66
 244 001c 1B69     		ldr	r3, [r3, #16]
 245 001e A446     		mov	ip, r4
 246              	.LVL14:
 247              		.loc 1 145 1 view .LVU67
 248 0020 30BC     		pop	{r4, r5}
 249              		.cfi_restore 5
 250              		.cfi_restore 4
 251              		.cfi_def_cfa_offset 0
 252              		.loc 1 144 10 view .LVU68
 253 0022 6047     		bx	ip
 254              	.LVL15:
 255              		.cfi_endproc
 256              	.LFE356:
 257              		.size	__ch_delegate_fn4, .-__ch_delegate_fn4
 258              		.section	.text.chDelegateCallVeneer,"ax",%progbits
 259              		.align	1
 260              		.p2align 2,,3
 261              		.global	chDelegateCallVeneer
 262              		.syntax unified
 263              		.thumb
 264              		.thumb_func
 265              		.type	chDelegateCallVeneer, %function
 266              	chDelegateCallVeneer:
 267              	.LVL16:
 268              	.LFB357:
 269              		.loc 1 158 73 is_stmt 1 view -0
 270              		.cfi_startproc
 271              		@ args = 4, pretend = 12, frame = 16
 272              		@ frame_needed = 0, uses_anonymous_args = 1
 273              		.loc 1 159 3 view .LVU70
 274              		.loc 1 160 3 view .LVU71
 275              		.loc 1 161 3 view .LVU72
 276              		.loc 1 163 3 view .LVU73
 277              		.loc 1 158 73 is_stmt 0 view .LVU74
 278 0000 0EB4     		push	{r1, r2, r3}
 279              		.cfi_def_cfa_offset 12
 280              		.cfi_offset 1, -12
 281              		.cfi_offset 2, -8
 282              		.cfi_offset 3, -4
 283 0002 10B5     		push	{r4, lr}
 284              		.cfi_def_cfa_offset 20
 285              		.cfi_offset 4, -20
ARM GAS  C:\Users\DEVELO~1\AppData\Local\Temp\ccmtuCvA.s 			page 6


 286              		.cfi_offset 14, -16
 287 0004 85B0     		sub	sp, sp, #20
 288              		.cfi_def_cfa_offset 40
 289              		.loc 1 158 73 view .LVU75
 290 0006 07AB     		add	r3, sp, #28
 291              		.loc 1 167 13 view .LVU76
 292 0008 01AC     		add	r4, sp, #4
 293              		.loc 1 172 9 view .LVU77
 294 000a 02A9     		add	r1, sp, #8
 295              		.loc 1 158 73 view .LVU78
 296 000c 53F8042B 		ldr	r2, [r3], #4
 297              		.loc 1 167 13 view .LVU79
 298 0010 0394     		str	r4, [sp, #12]
 299              		.loc 1 166 13 view .LVU80
 300 0012 CDE90132 		strd	r3, r2, [sp, #4]
 301              		.loc 1 167 3 is_stmt 1 view .LVU81
 302              		.loc 1 168 3 view .LVU82
 303              		.loc 1 172 3 view .LVU83
 304              		.loc 1 172 9 is_stmt 0 view .LVU84
 305 0016 FFF7FEFF 		bl	chMsgSend
 306              	.LVL17:
 307              		.loc 1 174 3 is_stmt 1 view .LVU85
 308              		.loc 1 176 3 view .LVU86
 309              		.loc 1 177 1 is_stmt 0 view .LVU87
 310 001a 05B0     		add	sp, sp, #20
 311              		.cfi_def_cfa_offset 20
 312              		@ sp needed
 313 001c BDE81040 		pop	{r4, lr}
 314              		.cfi_restore 14
 315              		.cfi_restore 4
 316              		.cfi_def_cfa_offset 12
 317 0020 03B0     		add	sp, sp, #12
 318              		.cfi_restore 3
 319              		.cfi_restore 2
 320              		.cfi_restore 1
 321              		.cfi_def_cfa_offset 0
 322 0022 7047     		bx	lr
 323              		.cfi_endproc
 324              	.LFE357:
 325              		.size	chDelegateCallVeneer, .-chDelegateCallVeneer
 326              		.section	.text.chDelegateDispatch,"ax",%progbits
 327              		.align	1
 328              		.p2align 2,,3
 329              		.global	chDelegateDispatch
 330              		.syntax unified
 331              		.thumb
 332              		.thumb_func
 333              		.type	chDelegateDispatch, %function
 334              	chDelegateDispatch:
 335              	.LFB358:
 336              		.loc 1 190 31 is_stmt 1 view -0
 337              		.cfi_startproc
 338              		@ args = 0, pretend = 0, frame = 0
 339              		@ frame_needed = 0, uses_anonymous_args = 0
 340              		.loc 1 191 3 view .LVU89
 341              		.loc 1 192 3 view .LVU90
 342              		.loc 1 193 3 view .LVU91
ARM GAS  C:\Users\DEVELO~1\AppData\Local\Temp\ccmtuCvA.s 			page 7


 343              		.loc 1 195 3 view .LVU92
 344              	.LBB60:
 345              	.LBI60:
 346              		.file 2 "../../../os/rt/include/chmsg.h"
 347              		.loc 2 95 25 view .LVU93
 348              	.LBB61:
 349              		.loc 2 96 3 view .LVU94
 350              		.loc 2 98 3 view .LVU95
 351              	.LBB62:
 352              	.LBI62:
 353              		.file 3 "../../../os/rt/include/chsys.h"
 354              		.loc 3 372 20 view .LVU96
 355              		.loc 3 374 3 view .LVU97
 356              	.LBB63:
 357              	.LBI63:
 358              		.file 4 "../../../os/common/ports/ARMv7-M/chcore.h"
 359              		.loc 4 840 27 view .LVU98
 360              		.loc 4 848 3 view .LVU99
 361              	.LVL18:
 362              	.LBB64:
 363              	.LBI64:
 364              		.file 5 "../../../os/common/ext/ARM/CMSIS/Core/Include/cmsis_gcc.h"
 365              		.loc 5 491 27 view .LVU100
 366              	.LBB65:
 367              		.loc 5 493 3 view .LVU101
 368              	.LBE65:
 369              	.LBE64:
 370              	.LBE63:
 371              	.LBE62:
 372              	.LBE61:
 373              	.LBE60:
 374              		.loc 1 190 31 is_stmt 0 view .LVU102
 375 0000 10B5     		push	{r4, lr}
 376              		.cfi_def_cfa_offset 8
 377              		.cfi_offset 4, -8
 378              		.cfi_offset 14, -4
 379              	.LBB81:
 380              	.LBB80:
 381              	.LBB69:
 382              	.LBB68:
 383              	.LBB67:
 384              	.LBB66:
 385              		.loc 5 493 3 view .LVU103
 386 0002 3023     		movs	r3, #48
 387              		.syntax unified
 388              	@ 493 "../../../os/common/ext/ARM/CMSIS/Core/Include/cmsis_gcc.h" 1
 389 0004 83F31188 		MSR basepri, r3
 390              	@ 0 "" 2
 391              	.LVL19:
 392              		.loc 5 493 3 view .LVU104
 393              		.thumb
 394              		.syntax unified
 395              	.LBE66:
 396              	.LBE67:
 397              	.LBE68:
 398              		.loc 3 375 35 is_stmt 1 view .LVU105
 399              		.loc 3 376 21 view .LVU106
ARM GAS  C:\Users\DEVELO~1\AppData\Local\Temp\ccmtuCvA.s 			page 8


 400              	.LBE69:
 401              		.loc 2 99 3 view .LVU107
 402              		.loc 2 99 8 is_stmt 0 view .LVU108
 403 0008 FFF7FEFF 		bl	chMsgWaitS
 404              	.LVL20:
 405              	.LBB70:
 406              	.LBB71:
 407              	.LBB72:
 408              	.LBB73:
 409              	.LBB74:
 410              		.loc 5 493 3 view .LVU109
 411 000c 0023     		movs	r3, #0
 412              	.LBE74:
 413              	.LBE73:
 414              	.LBE72:
 415              	.LBE71:
 416              	.LBE70:
 417              		.loc 2 99 8 view .LVU110
 418 000e 0446     		mov	r4, r0
 419              	.LVL21:
 420              		.loc 2 100 3 is_stmt 1 view .LVU111
 421              	.LBB79:
 422              	.LBI70:
 423              		.loc 3 386 20 view .LVU112
 424              	.LBB78:
 425              		.loc 3 388 23 view .LVU113
 426              		.loc 3 389 34 view .LVU114
 427              		.loc 3 395 3 view .LVU115
 428              		.loc 3 395 3 view .LVU116
 429              		.loc 3 395 3 view .LVU117
 430              		.loc 3 399 3 view .LVU118
 431              	.LBB77:
 432              	.LBI72:
 433              		.loc 4 864 27 view .LVU119
 434              		.loc 4 867 3 view .LVU120
 435              	.LBB76:
 436              	.LBI73:
 437              		.loc 5 491 27 view .LVU121
 438              	.LBB75:
 439              		.loc 5 493 3 view .LVU122
 440              		.syntax unified
 441              	@ 493 "../../../os/common/ext/ARM/CMSIS/Core/Include/cmsis_gcc.h" 1
 442 0010 83F31188 		MSR basepri, r3
 443              	@ 0 "" 2
 444              	.LVL22:
 445              		.loc 5 493 3 is_stmt 0 view .LVU123
 446              		.thumb
 447              		.syntax unified
 448              	.LBE75:
 449              	.LBE76:
 450              	.LBE77:
 451              	.LBE78:
 452              	.LBE79:
 453              		.loc 2 102 3 is_stmt 1 view .LVU124
 454              		.loc 2 102 3 is_stmt 0 view .LVU125
 455              	.LBE80:
 456              	.LBE81:
ARM GAS  C:\Users\DEVELO~1\AppData\Local\Temp\ccmtuCvA.s 			page 9


 457              		.loc 1 196 3 is_stmt 1 view .LVU126
 458              	.LBB82:
 459              	.LBI82:
 460              		.loc 2 189 21 view .LVU127
 461              	.LBB83:
 462              		.loc 2 191 3 view .LVU128
 463              		.loc 2 191 3 view .LVU129
 464              		.loc 2 191 3 view .LVU130
 465              		.loc 2 193 3 view .LVU131
 466              		.loc 2 193 3 is_stmt 0 view .LVU132
 467              	.LBE83:
 468              	.LBE82:
 469              		.loc 1 196 7 view .LVU133
 470 0014 436B     		ldr	r3, [r0, #52]
 471              	.LVL23:
 472              		.loc 1 197 3 is_stmt 1 view .LVU134
 473              		.loc 1 197 9 is_stmt 0 view .LVU135
 474 0016 D3E90020 		ldrd	r2, r0, [r3]
 475              	.LVL24:
 476              		.loc 1 197 9 view .LVU136
 477 001a 9047     		blx	r2
 478              	.LVL25:
 479              		.loc 1 197 9 view .LVU137
 480 001c 0146     		mov	r1, r0
 481              	.LVL26:
 482              		.loc 1 199 3 is_stmt 1 view .LVU138
 483 001e 2046     		mov	r0, r4
 484              	.LVL27:
 485              		.loc 1 200 1 is_stmt 0 view .LVU139
 486 0020 BDE81040 		pop	{r4, lr}
 487              		.cfi_restore 14
 488              		.cfi_restore 4
 489              		.cfi_def_cfa_offset 0
 490              	.LVL28:
 491              		.loc 1 199 3 view .LVU140
 492 0024 FFF7FEBF 		b	chMsgRelease
 493              	.LVL29:
 494              		.loc 1 199 3 view .LVU141
 495              		.cfi_endproc
 496              	.LFE358:
 497              		.size	chDelegateDispatch, .-chDelegateDispatch
 498              		.section	.text.chDelegateDispatchTimeout,"ax",%progbits
 499              		.align	1
 500              		.p2align 2,,3
 501              		.global	chDelegateDispatchTimeout
 502              		.syntax unified
 503              		.thumb
 504              		.thumb_func
 505              		.type	chDelegateDispatchTimeout, %function
 506              	chDelegateDispatchTimeout:
 507              	.LVL30:
 508              	.LFB359:
 509              		.loc 1 218 56 is_stmt 1 view -0
 510              		.cfi_startproc
 511              		@ args = 0, pretend = 0, frame = 0
 512              		@ frame_needed = 0, uses_anonymous_args = 0
 513              		.loc 1 219 3 view .LVU143
ARM GAS  C:\Users\DEVELO~1\AppData\Local\Temp\ccmtuCvA.s 			page 10


 514              		.loc 1 220 3 view .LVU144
 515              		.loc 1 221 3 view .LVU145
 516              		.loc 1 223 3 view .LVU146
 517              	.LBB84:
 518              	.LBI84:
 519              		.loc 2 127 25 view .LVU147
 520              	.LBB85:
 521              		.loc 2 128 3 view .LVU148
 522              		.loc 2 130 3 view .LVU149
 523              	.LBB86:
 524              	.LBI86:
 525              		.loc 3 372 20 view .LVU150
 526              		.loc 3 374 3 view .LVU151
 527              	.LBB87:
 528              	.LBI87:
 529              		.loc 4 840 27 view .LVU152
 530              		.loc 4 848 3 view .LVU153
 531              	.LBB88:
 532              	.LBI88:
 533              		.loc 5 491 27 view .LVU154
 534              	.LBB89:
 535              		.loc 5 493 3 view .LVU155
 536              	.LBE89:
 537              	.LBE88:
 538              	.LBE87:
 539              	.LBE86:
 540              	.LBE85:
 541              	.LBE84:
 542              		.loc 1 218 56 is_stmt 0 view .LVU156
 543 0000 38B5     		push	{r3, r4, r5, lr}
 544              		.cfi_def_cfa_offset 16
 545              		.cfi_offset 3, -16
 546              		.cfi_offset 4, -12
 547              		.cfi_offset 5, -8
 548              		.cfi_offset 14, -4
 549              	.LBB105:
 550              	.LBB104:
 551              	.LBB93:
 552              	.LBB92:
 553              	.LBB91:
 554              	.LBB90:
 555              		.loc 5 493 3 view .LVU157
 556 0002 3023     		movs	r3, #48
 557              		.syntax unified
 558              	@ 493 "../../../os/common/ext/ARM/CMSIS/Core/Include/cmsis_gcc.h" 1
 559 0004 83F31188 		MSR basepri, r3
 560              	@ 0 "" 2
 561              	.LVL31:
 562              		.loc 5 493 3 view .LVU158
 563              		.thumb
 564              		.syntax unified
 565              	.LBE90:
 566              	.LBE91:
 567              	.LBE92:
 568              		.loc 3 375 35 is_stmt 1 view .LVU159
 569              		.loc 3 376 21 view .LVU160
 570              	.LBE93:
ARM GAS  C:\Users\DEVELO~1\AppData\Local\Temp\ccmtuCvA.s 			page 11


 571              		.loc 2 131 3 view .LVU161
 572              		.loc 2 131 8 is_stmt 0 view .LVU162
 573 0008 FFF7FEFF 		bl	chMsgWaitTimeoutS
 574              	.LVL32:
 575              	.LBB94:
 576              	.LBB95:
 577              	.LBB96:
 578              	.LBB97:
 579              	.LBB98:
 580              		.loc 5 493 3 view .LVU163
 581 000c 0025     		movs	r5, #0
 582              	.LVL33:
 583              		.loc 5 493 3 view .LVU164
 584              	.LBE98:
 585              	.LBE97:
 586              	.LBE96:
 587              	.LBE95:
 588              	.LBE94:
 589              		.loc 2 132 3 is_stmt 1 view .LVU165
 590              	.LBB103:
 591              	.LBI94:
 592              		.loc 3 386 20 view .LVU166
 593              	.LBB102:
 594              		.loc 3 388 23 view .LVU167
 595              		.loc 3 389 34 view .LVU168
 596              		.loc 3 395 3 view .LVU169
 597              		.loc 3 395 3 view .LVU170
 598              		.loc 3 395 3 view .LVU171
 599              		.loc 3 399 3 view .LVU172
 600              	.LBB101:
 601              	.LBI96:
 602              		.loc 4 864 27 view .LVU173
 603              		.loc 4 867 3 view .LVU174
 604              	.LBB100:
 605              	.LBI97:
 606              		.loc 5 491 27 view .LVU175
 607              	.LBB99:
 608              		.loc 5 493 3 view .LVU176
 609              		.syntax unified
 610              	@ 493 "../../../os/common/ext/ARM/CMSIS/Core/Include/cmsis_gcc.h" 1
 611 000e 85F31188 		MSR basepri, r5
 612              	@ 0 "" 2
 613              	.LVL34:
 614              		.loc 5 493 3 is_stmt 0 view .LVU177
 615              		.thumb
 616              		.syntax unified
 617              	.LBE99:
 618              	.LBE100:
 619              	.LBE101:
 620              	.LBE102:
 621              	.LBE103:
 622              		.loc 2 134 3 is_stmt 1 view .LVU178
 623              		.loc 2 134 3 is_stmt 0 view .LVU179
 624              	.LBE104:
 625              	.LBE105:
 626              		.loc 1 224 3 is_stmt 1 view .LVU180
 627              		.loc 1 224 6 is_stmt 0 view .LVU181
ARM GAS  C:\Users\DEVELO~1\AppData\Local\Temp\ccmtuCvA.s 			page 12


 628 0012 50B1     		cbz	r0, .L16
 629              		.loc 1 228 3 is_stmt 1 view .LVU182
 630              	.LVL35:
 631              	.LBB106:
 632              	.LBI106:
 633              		.loc 2 189 21 view .LVU183
 634              	.LBB107:
 635              		.loc 2 191 3 view .LVU184
 636              		.loc 2 191 3 view .LVU185
 637              		.loc 2 191 3 view .LVU186
 638              		.loc 2 193 3 view .LVU187
 639              		.loc 2 193 3 is_stmt 0 view .LVU188
 640              	.LBE107:
 641              	.LBE106:
 642              		.loc 1 228 7 view .LVU189
 643 0014 436B     		ldr	r3, [r0, #52]
 644              	.LVL36:
 645              		.loc 1 229 3 is_stmt 1 view .LVU190
 646 0016 0446     		mov	r4, r0
 647              		.loc 1 229 9 is_stmt 0 view .LVU191
 648 0018 D3E90020 		ldrd	r2, r0, [r3]
 649              	.LVL37:
 650              		.loc 1 229 9 view .LVU192
 651 001c 9047     		blx	r2
 652              	.LVL38:
 653              		.loc 1 229 9 view .LVU193
 654 001e 0146     		mov	r1, r0
 655              	.LVL39:
 656              		.loc 1 231 3 is_stmt 1 view .LVU194
 657 0020 2046     		mov	r0, r4
 658              	.LVL40:
 659              		.loc 1 231 3 is_stmt 0 view .LVU195
 660 0022 FFF7FEFF 		bl	chMsgRelease
 661              	.LVL41:
 662              		.loc 1 233 3 is_stmt 1 view .LVU196
 663              		.loc 1 233 10 is_stmt 0 view .LVU197
 664 0026 2846     		mov	r0, r5
 665              		.loc 1 234 1 view .LVU198
 666 0028 38BD     		pop	{r3, r4, r5, pc}
 667              	.LVL42:
 668              	.L16:
 669              		.loc 1 225 12 view .LVU199
 670 002a 4FF0FF30 		mov	r0, #-1
 671              	.LVL43:
 672              		.loc 1 234 1 view .LVU200
 673 002e 38BD     		pop	{r3, r4, r5, pc}
 674              		.cfi_endproc
 675              	.LFE359:
 676              		.size	chDelegateDispatchTimeout, .-chDelegateDispatchTimeout
 677              		.text
 678              	.Letext0:
 679              		.file 6 "c:\\chibistudio\\tools\\gnu tools arm embedded\\11.3 2022.08\\arm-none-eabi\\include\\mac
 680              		.file 7 "c:\\chibistudio\\tools\\gnu tools arm embedded\\11.3 2022.08\\arm-none-eabi\\include\\sys
 681              		.file 8 "../../../os/common/ports/ARM-common/include/chtypes.h"
 682              		.file 9 "../../../os/rt/include/chearly.h"
 683              		.file 10 "../../../os/rt/include/chobjects.h"
 684              		.file 11 "../../../os/rt/include/chrfcu.h"
ARM GAS  C:\Users\DEVELO~1\AppData\Local\Temp\ccmtuCvA.s 			page 13


 685              		.file 12 "../../../os/rt/include/chdebug.h"
 686              		.file 13 "../../../os/rt/include/chtime.h"
 687              		.file 14 "../../../os/rt/include/chtrace.h"
 688              		.file 15 "../../../os/rt/include/chlists.h"
 689              		.file 16 "../../../os/rt/include/chsem.h"
 690              		.file 17 "../../../os/rt/include/chmtx.h"
 691              		.file 18 "c:\\chibistudio\\tools\\gnu tools arm embedded\\11.3 2022.08\\lib\\gcc\\arm-none-eabi\\1
 692              		.file 19 "../../../os/oslib/include/chdelegates.h"
 693              		.file 20 "<built-in>"
 694              		.section	.debug_info,"",%progbits
 695              	.Ldebug_info0:
 696 0000 2F110000 		.4byte	0x112f
 697 0004 0500     		.2byte	0x5
 698 0006 01       		.byte	0x1
 699 0007 04       		.byte	0x4
 700 0008 00000000 		.4byte	.Ldebug_abbrev0
 701 000c 28       		.uleb128 0x28
 702 000d 1A030000 		.4byte	.LASF158
 703 0011 1D       		.byte	0x1d
 704 0012 28060000 		.4byte	.LASF159
 705 0016 52020000 		.4byte	.LASF160
 706 001a 54000000 		.4byte	.LLRL29
 707 001e 00000000 		.4byte	0
 708 0022 00000000 		.4byte	.Ldebug_line0
 709 0026 29       		.uleb128 0x29
 710 0027 04       		.byte	0x4
 711 0028 05       		.byte	0x5
 712 0029 696E7400 		.ascii	"int\000"
 713 002d 07       		.uleb128 0x7
 714 002e 04       		.byte	0x4
 715 002f 07       		.byte	0x7
 716 0030 14020000 		.4byte	.LASF0
 717 0034 07       		.uleb128 0x7
 718 0035 08       		.byte	0x8
 719 0036 05       		.byte	0x5
 720 0037 DD000000 		.4byte	.LASF1
 721 003b 07       		.uleb128 0x7
 722 003c 08       		.byte	0x8
 723 003d 04       		.byte	0x4
 724 003e 10060000 		.4byte	.LASF2
 725 0042 07       		.uleb128 0x7
 726 0043 01       		.byte	0x1
 727 0044 06       		.byte	0x6
 728 0045 EB000000 		.4byte	.LASF3
 729 0049 01       		.uleb128 0x1
 730 004a 2B000000 		.4byte	.LASF6
 731 004e 06       		.byte	0x6
 732 004f 2B       		.byte	0x2b
 733 0050 18       		.byte	0x18
 734 0051 55000000 		.4byte	0x55
 735 0055 07       		.uleb128 0x7
 736 0056 01       		.byte	0x1
 737 0057 08       		.byte	0x8
 738 0058 6A050000 		.4byte	.LASF4
 739 005c 07       		.uleb128 0x7
 740 005d 02       		.byte	0x2
 741 005e 05       		.byte	0x5
ARM GAS  C:\Users\DEVELO~1\AppData\Local\Temp\ccmtuCvA.s 			page 14


 742 005f 7F050000 		.4byte	.LASF5
 743 0063 01       		.uleb128 0x1
 744 0064 53060000 		.4byte	.LASF7
 745 0068 06       		.byte	0x6
 746 0069 39       		.byte	0x39
 747 006a 19       		.byte	0x19
 748 006b 6F000000 		.4byte	0x6f
 749 006f 07       		.uleb128 0x7
 750 0070 02       		.byte	0x2
 751 0071 07       		.byte	0x7
 752 0072 EE020000 		.4byte	.LASF8
 753 0076 01       		.uleb128 0x1
 754 0077 CA030000 		.4byte	.LASF9
 755 007b 06       		.byte	0x6
 756 007c 4D       		.byte	0x4d
 757 007d 18       		.byte	0x18
 758 007e 82000000 		.4byte	0x82
 759 0082 07       		.uleb128 0x7
 760 0083 04       		.byte	0x4
 761 0084 05       		.byte	0x5
 762 0085 5A000000 		.4byte	.LASF10
 763 0089 01       		.uleb128 0x1
 764 008a A2010000 		.4byte	.LASF11
 765 008e 06       		.byte	0x6
 766 008f 4F       		.byte	0x4f
 767 0090 19       		.byte	0x19
 768 0091 95000000 		.4byte	0x95
 769 0095 07       		.uleb128 0x7
 770 0096 04       		.byte	0x4
 771 0097 07       		.byte	0x7
 772 0098 F7000000 		.4byte	.LASF12
 773 009c 01       		.uleb128 0x1
 774 009d 14050000 		.4byte	.LASF13
 775 00a1 06       		.byte	0x6
 776 00a2 69       		.byte	0x69
 777 00a3 19       		.byte	0x19
 778 00a4 A8000000 		.4byte	0xa8
 779 00a8 07       		.uleb128 0x7
 780 00a9 08       		.byte	0x8
 781 00aa 07       		.byte	0x7
 782 00ab D4030000 		.4byte	.LASF14
 783 00af 01       		.uleb128 0x1
 784 00b0 63070000 		.4byte	.LASF15
 785 00b4 07       		.byte	0x7
 786 00b5 18       		.byte	0x18
 787 00b6 13       		.byte	0x13
 788 00b7 49000000 		.4byte	0x49
 789 00bb 01       		.uleb128 0x1
 790 00bc 6B010000 		.4byte	.LASF16
 791 00c0 07       		.byte	0x7
 792 00c1 24       		.byte	0x24
 793 00c2 14       		.byte	0x14
 794 00c3 63000000 		.4byte	0x63
 795 00c7 01       		.uleb128 0x1
 796 00c8 62050000 		.4byte	.LASF17
 797 00cc 07       		.byte	0x7
 798 00cd 2C       		.byte	0x2c
ARM GAS  C:\Users\DEVELO~1\AppData\Local\Temp\ccmtuCvA.s 			page 15


 799 00ce 13       		.byte	0x13
 800 00cf 76000000 		.4byte	0x76
 801 00d3 01       		.uleb128 0x1
 802 00d4 F1050000 		.4byte	.LASF18
 803 00d8 07       		.byte	0x7
 804 00d9 30       		.byte	0x30
 805 00da 14       		.byte	0x14
 806 00db 89000000 		.4byte	0x89
 807 00df 01       		.uleb128 0x1
 808 00e0 8E040000 		.4byte	.LASF19
 809 00e4 07       		.byte	0x7
 810 00e5 3C       		.byte	0x3c
 811 00e6 14       		.byte	0x14
 812 00e7 9C000000 		.4byte	0x9c
 813 00eb 21       		.uleb128 0x21
 814 00ec DF000000 		.4byte	0xdf
 815 00f0 01       		.uleb128 0x1
 816 00f1 9E000000 		.4byte	.LASF20
 817 00f5 08       		.byte	0x8
 818 00f6 48       		.byte	0x48
 819 00f7 1D       		.byte	0x1d
 820 00f8 DF000000 		.4byte	0xdf
 821 00fc 01       		.uleb128 0x1
 822 00fd 25010000 		.4byte	.LASF21
 823 0101 09       		.byte	0x9
 824 0102 50       		.byte	0x50
 825 0103 19       		.byte	0x19
 826 0104 F0000000 		.4byte	0xf0
 827 0108 01       		.uleb128 0x1
 828 0109 BA030000 		.4byte	.LASF22
 829 010d 09       		.byte	0x9
 830 010e 53       		.byte	0x53
 831 010f 19       		.byte	0x19
 832 0110 AF000000 		.4byte	0xaf
 833 0114 01       		.uleb128 0x1
 834 0115 48010000 		.4byte	.LASF23
 835 0119 09       		.byte	0x9
 836 011a 54       		.byte	0x54
 837 011b 19       		.byte	0x19
 838 011c AF000000 		.4byte	0xaf
 839 0120 01       		.uleb128 0x1
 840 0121 39050000 		.4byte	.LASF24
 841 0125 09       		.byte	0x9
 842 0126 55       		.byte	0x55
 843 0127 19       		.byte	0x19
 844 0128 AF000000 		.4byte	0xaf
 845 012c 01       		.uleb128 0x1
 846 012d 4B050000 		.4byte	.LASF25
 847 0131 09       		.byte	0x9
 848 0132 57       		.byte	0x57
 849 0133 19       		.byte	0x19
 850 0134 D3000000 		.4byte	0xd3
 851 0138 01       		.uleb128 0x1
 852 0139 0B030000 		.4byte	.LASF26
 853 013d 09       		.byte	0x9
 854 013e 58       		.byte	0x58
 855 013f 19       		.byte	0x19
ARM GAS  C:\Users\DEVELO~1\AppData\Local\Temp\ccmtuCvA.s 			page 16


 856 0140 C7000000 		.4byte	0xc7
 857 0144 01       		.uleb128 0x1
 858 0145 1F000000 		.4byte	.LASF27
 859 0149 09       		.byte	0x9
 860 014a 5A       		.byte	0x5a
 861 014b 19       		.byte	0x19
 862 014c D3000000 		.4byte	0xd3
 863 0150 01       		.uleb128 0x1
 864 0151 05020000 		.4byte	.LASF28
 865 0155 09       		.byte	0x9
 866 0156 5C       		.byte	0x5c
 867 0157 19       		.byte	0x19
 868 0158 C7000000 		.4byte	0xc7
 869 015c 01       		.uleb128 0x1
 870 015d 2F050000 		.4byte	.LASF29
 871 0161 09       		.byte	0x9
 872 0162 80       		.byte	0x80
 873 0163 12       		.byte	0x12
 874 0164 2D000000 		.4byte	0x2d
 875 0168 01       		.uleb128 0x1
 876 0169 5E060000 		.4byte	.LASF30
 877 016d 09       		.byte	0x9
 878 016e 85       		.byte	0x85
 879 016f 1A       		.byte	0x1a
 880 0170 74010000 		.4byte	0x174
 881 0174 08       		.uleb128 0x8
 882 0175 01030000 		.4byte	.LASF47
 883 0179 50       		.byte	0x50
 884 017a 0A       		.byte	0xa
 885 017b A9       		.byte	0xa9
 886 017c 08       		.byte	0x8
 887 017d 6B020000 		.4byte	0x26b
 888 0181 0A       		.uleb128 0xa
 889 0182 68647200 		.ascii	"hdr\000"
 890 0186 0A       		.byte	0xa
 891 0187 BA       		.byte	0xba
 892 0188 05       		.byte	0x5
 893 0189 37080000 		.4byte	0x837
 894 018d 00       		.byte	0
 895 018e 0A       		.uleb128 0xa
 896 018f 63747800 		.ascii	"ctx\000"
 897 0193 0A       		.byte	0xa
 898 0194 BE       		.byte	0xbe
 899 0195 21       		.byte	0x21
 900 0196 88060000 		.4byte	0x688
 901 019a 0C       		.byte	0xc
 902 019b 02       		.uleb128 0x2
 903 019c 01060000 		.4byte	.LASF31
 904 01a0 0A       		.byte	0xa
 905 01a1 C2       		.byte	0xc2
 906 01a2 22       		.byte	0x22
 907 01a3 3B090000 		.4byte	0x93b
 908 01a7 10       		.byte	0x10
 909 01a8 02       		.uleb128 0x2
 910 01a9 1C060000 		.4byte	.LASF32
 911 01ad 0A       		.byte	0xa
 912 01ae C8       		.byte	0xc8
ARM GAS  C:\Users\DEVELO~1\AppData\Local\Temp\ccmtuCvA.s 			page 17


 913 01af 22       		.byte	0x22
 914 01b0 40090000 		.4byte	0x940
 915 01b4 14       		.byte	0x14
 916 01b5 02       		.uleb128 0x2
 917 01b6 12070000 		.4byte	.LASF33
 918 01ba 0A       		.byte	0xa
 919 01bb CD       		.byte	0xcd
 920 01bc 21       		.byte	0x21
 921 01bd 40090000 		.4byte	0x940
 922 01c1 18       		.byte	0x18
 923 01c2 02       		.uleb128 0x2
 924 01c3 1F010000 		.4byte	.LASF34
 925 01c7 0A       		.byte	0xa
 926 01c8 D1       		.byte	0xd1
 927 01c9 21       		.byte	0x21
 928 01ca 14010000 		.4byte	0x114
 929 01ce 1C       		.byte	0x1c
 930 01cf 02       		.uleb128 0x2
 931 01d0 6B070000 		.4byte	.LASF35
 932 01d4 0A       		.byte	0xa
 933 01d5 D5       		.byte	0xd5
 934 01d6 21       		.byte	0x21
 935 01d7 08010000 		.4byte	0x108
 936 01db 1D       		.byte	0x1d
 937 01dc 02       		.uleb128 0x2
 938 01dd 41050000 		.4byte	.LASF36
 939 01e1 0A       		.byte	0xa
 940 01e2 DA       		.byte	0xda
 941 01e3 21       		.byte	0x21
 942 01e4 20010000 		.4byte	0x120
 943 01e8 1E       		.byte	0x1e
 944 01e9 02       		.uleb128 0x2
 945 01ea BA020000 		.4byte	.LASF37
 946 01ee 0A       		.byte	0xa
 947 01ef DE       		.byte	0xde
 948 01f0 22       		.byte	0x22
 949 01f1 58030000 		.4byte	0x358
 950 01f5 20       		.byte	0x20
 951 01f6 02       		.uleb128 0x2
 952 01f7 89070000 		.4byte	.LASF38
 953 01fb 0A       		.byte	0xa
 954 01fc E2       		.byte	0xe2
 955 01fd 21       		.byte	0x21
 956 01fe D5060000 		.4byte	0x6d5
 957 0202 24       		.byte	0x24
 958 0203 02       		.uleb128 0x2
 959 0204 96000000 		.4byte	.LASF39
 960 0208 0A       		.byte	0xa
 961 0209 E8       		.byte	0xe8
 962 020a 21       		.byte	0x21
 963 020b 1B080000 		.4byte	0x81b
 964 020f 2C       		.byte	0x2c
 965 0210 02       		.uleb128 0x2
 966 0211 CB000000 		.4byte	.LASF40
 967 0215 0A       		.byte	0xa
 968 0216 EE       		.byte	0xee
 969 0217 22       		.byte	0x22
ARM GAS  C:\Users\DEVELO~1\AppData\Local\Temp\ccmtuCvA.s 			page 18


 970 0218 BB030000 		.4byte	0x3bb
 971 021c 30       		.byte	0x30
 972 021d 03       		.uleb128 0x3
 973 021e 7500     		.ascii	"u\000"
 974 0220 0A       		.byte	0xa
 975 0221 3F01     		.2byte	0x13f
 976 0223 21       		.byte	0x21
 977 0224 64080000 		.4byte	0x864
 978 0228 34       		.byte	0x34
 979 0229 05       		.uleb128 0x5
 980 022a D8010000 		.4byte	.LASF41
 981 022e 4401     		.2byte	0x144
 982 0230 21       		.byte	0x21
 983 0231 A9060000 		.4byte	0x6a9
 984 0235 38       		.byte	0x38
 985 0236 05       		.uleb128 0x5
 986 0237 0B020000 		.4byte	.LASF42
 987 023b 4A01     		.2byte	0x14a
 988 023d 21       		.byte	0x21
 989 023e D5060000 		.4byte	0x6d5
 990 0242 3C       		.byte	0x3c
 991 0243 05       		.uleb128 0x5
 992 0244 11030000 		.4byte	.LASF43
 993 0248 5001     		.2byte	0x150
 994 024a 21       		.byte	0x21
 995 024b 44010000 		.4byte	0x144
 996 024f 44       		.byte	0x44
 997 0250 05       		.uleb128 0x5
 998 0251 CE070000 		.4byte	.LASF44
 999 0255 5701     		.2byte	0x157
 1000 0257 22       		.byte	0x22
 1001 0258 36090000 		.4byte	0x936
 1002 025c 48       		.byte	0x48
 1003 025d 05       		.uleb128 0x5
 1004 025e 07060000 		.4byte	.LASF45
 1005 0262 5B01     		.2byte	0x15b
 1006 0264 21       		.byte	0x21
 1007 0265 2C010000 		.4byte	0x12c
 1008 0269 4C       		.byte	0x4c
 1009 026a 00       		.byte	0
 1010 026b 01       		.uleb128 0x1
 1011 026c B6060000 		.4byte	.LASF46
 1012 0270 09       		.byte	0x9
 1013 0271 8A       		.byte	0x8a
 1014 0272 1F       		.byte	0x1f
 1015 0273 77020000 		.4byte	0x277
 1016 0277 2A       		.uleb128 0x2a
 1017 0278 E5040000 		.4byte	.LASF48
 1018 027c F008     		.2byte	0x8f0
 1019 027e 0A       		.byte	0xa
 1020 027f 9701     		.2byte	0x197
 1021 0281 08       		.byte	0x8
 1022 0282 0A030000 		.4byte	0x30a
 1023 0286 05       		.uleb128 0x5
 1024 0287 39070000 		.4byte	.LASF49
 1025 028b 9B01     		.2byte	0x19b
 1026 028d 21       		.byte	0x21
ARM GAS  C:\Users\DEVELO~1\AppData\Local\Temp\ccmtuCvA.s 			page 19


 1027 028e 6E090000 		.4byte	0x96e
 1028 0292 00       		.byte	0
 1029 0293 05       		.uleb128 0x5
 1030 0294 4E000000 		.4byte	.LASF50
 1031 0298 9F01     		.2byte	0x19f
 1032 029a 21       		.byte	0x21
 1033 029b DC070000 		.4byte	0x7dc
 1034 029f 10       		.byte	0x10
 1035 02a0 05       		.uleb128 0x5
 1036 02a1 C4060000 		.4byte	.LASF51
 1037 02a5 A601     		.2byte	0x1a6
 1038 02a7 21       		.byte	0x21
 1039 02a8 03080000 		.4byte	0x803
 1040 02ac 30       		.byte	0x30
 1041 02ad 05       		.uleb128 0x5
 1042 02ae D6020000 		.4byte	.LASF52
 1043 02b2 AB01     		.2byte	0x1ab
 1044 02b4 21       		.byte	0x21
 1045 02b5 5C010000 		.4byte	0x15c
 1046 02b9 38       		.byte	0x38
 1047 02ba 05       		.uleb128 0x5
 1048 02bb 1A000000 		.4byte	.LASF53
 1049 02bf B101     		.2byte	0x1b1
 1050 02c1 21       		.byte	0x21
 1051 02c2 31030000 		.4byte	0x331
 1052 02c6 3C       		.byte	0x3c
 1053 02c7 05       		.uleb128 0x5
 1054 02c8 4C060000 		.4byte	.LASF54
 1055 02cc B601     		.2byte	0x1b6
 1056 02ce 22       		.byte	0x22
 1057 02cf D9090000 		.4byte	0x9d9
 1058 02d3 40       		.byte	0x40
 1059 02d4 05       		.uleb128 0x5
 1060 02d5 E5070000 		.4byte	.LASF55
 1061 02d9 BA01     		.2byte	0x1ba
 1062 02db 21       		.byte	0x21
 1063 02dc 68010000 		.4byte	0x168
 1064 02e0 44       		.byte	0x44
 1065 02e1 05       		.uleb128 0x5
 1066 02e2 AD000000 		.4byte	.LASF56
 1067 02e6 BF01     		.2byte	0x1bf
 1068 02e8 21       		.byte	0x21
 1069 02e9 68010000 		.4byte	0x168
 1070 02ed 94       		.byte	0x94
 1071 02ee 03       		.uleb128 0x3
 1072 02ef 64626700 		.ascii	"dbg\000"
 1073 02f3 0A       		.byte	0xa
 1074 02f4 C401     		.2byte	0x1c4
 1075 02f6 21       		.byte	0x21
 1076 02f7 6E030000 		.4byte	0x36e
 1077 02fb E4       		.byte	0xe4
 1078 02fc 05       		.uleb128 0x5
 1079 02fd A1070000 		.4byte	.LASF57
 1080 0301 C901     		.2byte	0x1c9
 1081 0303 21       		.byte	0x21
 1082 0304 16050000 		.4byte	0x516
 1083 0308 E8       		.byte	0xe8
ARM GAS  C:\Users\DEVELO~1\AppData\Local\Temp\ccmtuCvA.s 			page 20


 1084 0309 00       		.byte	0
 1085 030a 01       		.uleb128 0x1
 1086 030b 25040000 		.4byte	.LASF58
 1087 030f 0B       		.byte	0xb
 1088 0310 3F       		.byte	0x3f
 1089 0311 12       		.byte	0x12
 1090 0312 D3000000 		.4byte	0xd3
 1091 0316 08       		.uleb128 0x8
 1092 0317 63010000 		.4byte	.LASF59
 1093 031b 04       		.byte	0x4
 1094 031c 0B       		.byte	0xb
 1095 031d 44       		.byte	0x44
 1096 031e 10       		.byte	0x10
 1097 031f 31030000 		.4byte	0x331
 1098 0323 02       		.uleb128 0x2
 1099 0324 AD010000 		.4byte	.LASF60
 1100 0328 0B       		.byte	0xb
 1101 0329 48       		.byte	0x48
 1102 032a 21       		.byte	0x21
 1103 032b 0A030000 		.4byte	0x30a
 1104 032f 00       		.byte	0
 1105 0330 00       		.byte	0
 1106 0331 01       		.uleb128 0x1
 1107 0332 78050000 		.4byte	.LASF61
 1108 0336 0B       		.byte	0xb
 1109 0337 49       		.byte	0x49
 1110 0338 03       		.byte	0x3
 1111 0339 16030000 		.4byte	0x316
 1112 033d 08       		.uleb128 0x8
 1113 033e C8010000 		.4byte	.LASF62
 1114 0342 04       		.byte	0x4
 1115 0343 0C       		.byte	0xc
 1116 0344 3E       		.byte	0x3e
 1117 0345 10       		.byte	0x10
 1118 0346 58030000 		.4byte	0x358
 1119 034a 02       		.uleb128 0x2
 1120 034b 92060000 		.4byte	.LASF63
 1121 034f 0C       		.byte	0xc
 1122 0350 46       		.byte	0x46
 1123 0351 24       		.byte	0x24
 1124 0352 5D030000 		.4byte	0x35d
 1125 0356 00       		.byte	0
 1126 0357 00       		.byte	0
 1127 0358 04       		.uleb128 0x4
 1128 0359 69030000 		.4byte	0x369
 1129 035d 21       		.uleb128 0x21
 1130 035e 58030000 		.4byte	0x358
 1131 0362 07       		.uleb128 0x7
 1132 0363 01       		.byte	0x1
 1133 0364 08       		.byte	0x8
 1134 0365 23060000 		.4byte	.LASF64
 1135 0369 13       		.uleb128 0x13
 1136 036a 62030000 		.4byte	0x362
 1137 036e 01       		.uleb128 0x1
 1138 036f 43020000 		.4byte	.LASF65
 1139 0373 0C       		.byte	0xc
 1140 0374 51       		.byte	0x51
ARM GAS  C:\Users\DEVELO~1\AppData\Local\Temp\ccmtuCvA.s 			page 21


 1141 0375 03       		.byte	0x3
 1142 0376 3D030000 		.4byte	0x33d
 1143 037a 01       		.uleb128 0x1
 1144 037b 6D060000 		.4byte	.LASF66
 1145 037f 0D       		.byte	0xd
 1146 0380 6D       		.byte	0x6d
 1147 0381 12       		.byte	0x12
 1148 0382 D3000000 		.4byte	0xd3
 1149 0386 01       		.uleb128 0x1
 1150 0387 F7010000 		.4byte	.LASF67
 1151 038b 0D       		.byte	0xd
 1152 038c 79       		.byte	0x79
 1153 038d 12       		.byte	0x12
 1154 038e D3000000 		.4byte	0xd3
 1155 0392 0D       		.uleb128 0xd
 1156 0393 08       		.byte	0x8
 1157 0394 0E       		.byte	0xe
 1158 0395 83       		.byte	0x83
 1159 0396 05       		.byte	0x5
 1160 0397 B6030000 		.4byte	0x3b6
 1161 039b 0A       		.uleb128 0xa
 1162 039c 6E747000 		.ascii	"ntp\000"
 1163 03a0 0E       		.byte	0xe
 1164 03a1 87       		.byte	0x87
 1165 03a2 1E       		.byte	0x1e
 1166 03a3 B6030000 		.4byte	0x3b6
 1167 03a7 00       		.byte	0
 1168 03a8 02       		.uleb128 0x2
 1169 03a9 92050000 		.4byte	.LASF68
 1170 03ad 0E       		.byte	0xe
 1171 03ae 8B       		.byte	0x8b
 1172 03af 1E       		.byte	0x1e
 1173 03b0 BB030000 		.4byte	0x3bb
 1174 03b4 04       		.byte	0x4
 1175 03b5 00       		.byte	0
 1176 03b6 04       		.uleb128 0x4
 1177 03b7 68010000 		.4byte	0x168
 1178 03bb 2B       		.uleb128 0x2b
 1179 03bc 04       		.byte	0x4
 1180 03bd 0D       		.uleb128 0xd
 1181 03be 08       		.byte	0x8
 1182 03bf 0E       		.byte	0xe
 1183 03c0 90       		.byte	0x90
 1184 03c1 05       		.byte	0x5
 1185 03c2 E0030000 		.4byte	0x3e0
 1186 03c6 0A       		.uleb128 0xa
 1187 03c7 747000   		.ascii	"tp\000"
 1188 03ca 0E       		.byte	0xe
 1189 03cb 94       		.byte	0x94
 1190 03cc 1E       		.byte	0x1e
 1191 03cd B6030000 		.4byte	0x3b6
 1192 03d1 00       		.byte	0
 1193 03d2 0A       		.uleb128 0xa
 1194 03d3 6D736700 		.ascii	"msg\000"
 1195 03d7 0E       		.byte	0xe
 1196 03d8 98       		.byte	0x98
 1197 03d9 1D       		.byte	0x1d
ARM GAS  C:\Users\DEVELO~1\AppData\Local\Temp\ccmtuCvA.s 			page 22


 1198 03da 38010000 		.4byte	0x138
 1199 03de 04       		.byte	0x4
 1200 03df 00       		.byte	0
 1201 03e0 0D       		.uleb128 0xd
 1202 03e1 04       		.byte	0x4
 1203 03e2 0E       		.byte	0xe
 1204 03e3 9D       		.byte	0x9d
 1205 03e4 05       		.byte	0x5
 1206 03e5 F7030000 		.4byte	0x3f7
 1207 03e9 02       		.uleb128 0x2
 1208 03ea BA020000 		.4byte	.LASF37
 1209 03ee 0E       		.byte	0xe
 1210 03ef A1       		.byte	0xa1
 1211 03f0 1E       		.byte	0x1e
 1212 03f1 58030000 		.4byte	0x358
 1213 03f5 00       		.byte	0
 1214 03f6 00       		.byte	0
 1215 03f7 0D       		.uleb128 0xd
 1216 03f8 04       		.byte	0x4
 1217 03f9 0E       		.byte	0xe
 1218 03fa A6       		.byte	0xa6
 1219 03fb 05       		.byte	0x5
 1220 03fc 0E040000 		.4byte	0x40e
 1221 0400 02       		.uleb128 0x2
 1222 0401 C5050000 		.4byte	.LASF69
 1223 0405 0E       		.byte	0xe
 1224 0406 AA       		.byte	0xaa
 1225 0407 1E       		.byte	0x1e
 1226 0408 58030000 		.4byte	0x358
 1227 040c 00       		.byte	0
 1228 040d 00       		.byte	0
 1229 040e 0D       		.uleb128 0xd
 1230 040f 08       		.byte	0x8
 1231 0410 0E       		.byte	0xe
 1232 0411 AF       		.byte	0xaf
 1233 0412 05       		.byte	0x5
 1234 0413 32040000 		.4byte	0x432
 1235 0417 0A       		.uleb128 0xa
 1236 0418 75703100 		.ascii	"up1\000"
 1237 041c 0E       		.byte	0xe
 1238 041d B3       		.byte	0xb3
 1239 041e 1E       		.byte	0x1e
 1240 041f BB030000 		.4byte	0x3bb
 1241 0423 00       		.byte	0
 1242 0424 0A       		.uleb128 0xa
 1243 0425 75703200 		.ascii	"up2\000"
 1244 0429 0E       		.byte	0xe
 1245 042a B7       		.byte	0xb7
 1246 042b 1E       		.byte	0x1e
 1247 042c BB030000 		.4byte	0x3bb
 1248 0430 04       		.byte	0x4
 1249 0431 00       		.byte	0
 1250 0432 22       		.uleb128 0x22
 1251 0433 08       		.byte	0x8
 1252 0434 0E       		.byte	0xe
 1253 0435 7F       		.byte	0x7f
 1254 0436 70040000 		.4byte	0x470
ARM GAS  C:\Users\DEVELO~1\AppData\Local\Temp\ccmtuCvA.s 			page 23


 1255 043a 1A       		.uleb128 0x1a
 1256 043b 737700   		.ascii	"sw\000"
 1257 043e 8C       		.byte	0x8c
 1258 043f 92030000 		.4byte	0x392
 1259 0443 1A       		.uleb128 0x1a
 1260 0444 72647900 		.ascii	"rdy\000"
 1261 0448 99       		.byte	0x99
 1262 0449 BD030000 		.4byte	0x3bd
 1263 044d 1A       		.uleb128 0x1a
 1264 044e 69737200 		.ascii	"isr\000"
 1265 0452 A2       		.byte	0xa2
 1266 0453 E0030000 		.4byte	0x3e0
 1267 0457 14       		.uleb128 0x14
 1268 0458 91000000 		.4byte	.LASF70
 1269 045c 0E       		.byte	0xe
 1270 045d AB       		.byte	0xab
 1271 045e 07       		.byte	0x7
 1272 045f F7030000 		.4byte	0x3f7
 1273 0463 14       		.uleb128 0x14
 1274 0464 46050000 		.4byte	.LASF71
 1275 0468 0E       		.byte	0xe
 1276 0469 B8       		.byte	0xb8
 1277 046a 07       		.byte	0x7
 1278 046b 0E040000 		.4byte	0x40e
 1279 046f 00       		.byte	0
 1280 0470 0D       		.uleb128 0xd
 1281 0471 10       		.byte	0x10
 1282 0472 0E       		.byte	0xe
 1283 0473 6C       		.byte	0x6c
 1284 0474 09       		.byte	0x9
 1285 0475 B6040000 		.4byte	0x4b6
 1286 0479 1B       		.uleb128 0x1b
 1287 047a 55000000 		.4byte	.LASF72
 1288 047e 70       		.byte	0x70
 1289 047f D3000000 		.4byte	0xd3
 1290 0483 03       		.byte	0x3
 1291 0484 00       		.byte	0
 1292 0485 1B       		.uleb128 0x1b
 1293 0486 1F010000 		.4byte	.LASF34
 1294 048a 74       		.byte	0x74
 1295 048b D3000000 		.4byte	0xd3
 1296 048f 05       		.byte	0x5
 1297 0490 03       		.byte	0x3
 1298 0491 1B       		.uleb128 0x1b
 1299 0492 01040000 		.4byte	.LASF73
 1300 0496 7A       		.byte	0x7a
 1301 0497 D3000000 		.4byte	0xd3
 1302 049b 18       		.byte	0x18
 1303 049c 08       		.byte	0x8
 1304 049d 02       		.uleb128 0x2
 1305 049e F4040000 		.4byte	.LASF74
 1306 04a2 0E       		.byte	0xe
 1307 04a3 7E       		.byte	0x7e
 1308 04a4 19       		.byte	0x19
 1309 04a5 7A030000 		.4byte	0x37a
 1310 04a9 04       		.byte	0x4
 1311 04aa 0A       		.uleb128 0xa
ARM GAS  C:\Users\DEVELO~1\AppData\Local\Temp\ccmtuCvA.s 			page 24


 1312 04ab 7500     		.ascii	"u\000"
 1313 04ad 0E       		.byte	0xe
 1314 04ae B9       		.byte	0xb9
 1315 04af 05       		.byte	0x5
 1316 04b0 32040000 		.4byte	0x432
 1317 04b4 08       		.byte	0x8
 1318 04b5 00       		.byte	0
 1319 04b6 01       		.uleb128 0x1
 1320 04b7 63000000 		.4byte	.LASF75
 1321 04bb 0E       		.byte	0xe
 1322 04bc BA       		.byte	0xba
 1323 04bd 03       		.byte	0x3
 1324 04be 70040000 		.4byte	0x470
 1325 04c2 2C       		.uleb128 0x2c
 1326 04c3 0808     		.2byte	0x808
 1327 04c5 0E       		.byte	0xe
 1328 04c6 C0       		.byte	0xc0
 1329 04c7 09       		.byte	0x9
 1330 04c8 01050000 		.4byte	0x501
 1331 04cc 02       		.uleb128 0x2
 1332 04cd 87000000 		.4byte	.LASF76
 1333 04d1 0E       		.byte	0xe
 1334 04d2 C4       		.byte	0xc4
 1335 04d3 19       		.byte	0x19
 1336 04d4 BB000000 		.4byte	0xbb
 1337 04d8 00       		.byte	0
 1338 04d9 02       		.uleb128 0x2
 1339 04da E9020000 		.4byte	.LASF77
 1340 04de 0E       		.byte	0xe
 1341 04df C8       		.byte	0xc8
 1342 04e0 19       		.byte	0x19
 1343 04e1 BB000000 		.4byte	0xbb
 1344 04e5 02       		.byte	0x2
 1345 04e6 0A       		.uleb128 0xa
 1346 04e7 70747200 		.ascii	"ptr\000"
 1347 04eb 0E       		.byte	0xe
 1348 04ec CC       		.byte	0xcc
 1349 04ed 1A       		.byte	0x1a
 1350 04ee 01050000 		.4byte	0x501
 1351 04f2 04       		.byte	0x4
 1352 04f3 02       		.uleb128 0x2
 1353 04f4 77060000 		.4byte	.LASF78
 1354 04f8 0E       		.byte	0xe
 1355 04f9 D0       		.byte	0xd0
 1356 04fa 19       		.byte	0x19
 1357 04fb 06050000 		.4byte	0x506
 1358 04ff 08       		.byte	0x8
 1359 0500 00       		.byte	0
 1360 0501 04       		.uleb128 0x4
 1361 0502 B6040000 		.4byte	0x4b6
 1362 0506 1C       		.uleb128 0x1c
 1363 0507 B6040000 		.4byte	0x4b6
 1364 050b 16050000 		.4byte	0x516
 1365 050f 1D       		.uleb128 0x1d
 1366 0510 2D000000 		.4byte	0x2d
 1367 0514 7F       		.byte	0x7f
 1368 0515 00       		.byte	0
ARM GAS  C:\Users\DEVELO~1\AppData\Local\Temp\ccmtuCvA.s 			page 25


 1369 0516 01       		.uleb128 0x1
 1370 0517 74010000 		.4byte	.LASF79
 1371 051b 0E       		.byte	0xe
 1372 051c D1       		.byte	0xd1
 1373 051d 03       		.byte	0x3
 1374 051e C2040000 		.4byte	0x4c2
 1375 0522 17       		.uleb128 0x17
 1376 0523 3A000000 		.4byte	.LASF80
 1377 0527 64       		.byte	0x64
 1378 0528 04       		.byte	0x4
 1379 0529 3F02     		.2byte	0x23f
 1380 052b 08       		.byte	0x8
 1381 052c 88060000 		.4byte	0x688
 1382 0530 03       		.uleb128 0x3
 1383 0531 73313600 		.ascii	"s16\000"
 1384 0535 04       		.byte	0x4
 1385 0536 4102     		.2byte	0x241
 1386 0538 11       		.byte	0x11
 1387 0539 D3000000 		.4byte	0xd3
 1388 053d 00       		.byte	0
 1389 053e 03       		.uleb128 0x3
 1390 053f 73313700 		.ascii	"s17\000"
 1391 0543 04       		.byte	0x4
 1392 0544 4202     		.2byte	0x242
 1393 0546 11       		.byte	0x11
 1394 0547 D3000000 		.4byte	0xd3
 1395 054b 04       		.byte	0x4
 1396 054c 03       		.uleb128 0x3
 1397 054d 73313800 		.ascii	"s18\000"
 1398 0551 04       		.byte	0x4
 1399 0552 4302     		.2byte	0x243
 1400 0554 11       		.byte	0x11
 1401 0555 D3000000 		.4byte	0xd3
 1402 0559 08       		.byte	0x8
 1403 055a 03       		.uleb128 0x3
 1404 055b 73313900 		.ascii	"s19\000"
 1405 055f 04       		.byte	0x4
 1406 0560 4402     		.2byte	0x244
 1407 0562 11       		.byte	0x11
 1408 0563 D3000000 		.4byte	0xd3
 1409 0567 0C       		.byte	0xc
 1410 0568 03       		.uleb128 0x3
 1411 0569 73323000 		.ascii	"s20\000"
 1412 056d 04       		.byte	0x4
 1413 056e 4502     		.2byte	0x245
 1414 0570 11       		.byte	0x11
 1415 0571 D3000000 		.4byte	0xd3
 1416 0575 10       		.byte	0x10
 1417 0576 03       		.uleb128 0x3
 1418 0577 73323100 		.ascii	"s21\000"
 1419 057b 04       		.byte	0x4
 1420 057c 4602     		.2byte	0x246
 1421 057e 11       		.byte	0x11
 1422 057f D3000000 		.4byte	0xd3
 1423 0583 14       		.byte	0x14
 1424 0584 03       		.uleb128 0x3
 1425 0585 73323200 		.ascii	"s22\000"
ARM GAS  C:\Users\DEVELO~1\AppData\Local\Temp\ccmtuCvA.s 			page 26


 1426 0589 04       		.byte	0x4
 1427 058a 4702     		.2byte	0x247
 1428 058c 11       		.byte	0x11
 1429 058d D3000000 		.4byte	0xd3
 1430 0591 18       		.byte	0x18
 1431 0592 03       		.uleb128 0x3
 1432 0593 73323300 		.ascii	"s23\000"
 1433 0597 04       		.byte	0x4
 1434 0598 4802     		.2byte	0x248
 1435 059a 11       		.byte	0x11
 1436 059b D3000000 		.4byte	0xd3
 1437 059f 1C       		.byte	0x1c
 1438 05a0 03       		.uleb128 0x3
 1439 05a1 73323400 		.ascii	"s24\000"
 1440 05a5 04       		.byte	0x4
 1441 05a6 4902     		.2byte	0x249
 1442 05a8 11       		.byte	0x11
 1443 05a9 D3000000 		.4byte	0xd3
 1444 05ad 20       		.byte	0x20
 1445 05ae 03       		.uleb128 0x3
 1446 05af 73323500 		.ascii	"s25\000"
 1447 05b3 04       		.byte	0x4
 1448 05b4 4A02     		.2byte	0x24a
 1449 05b6 11       		.byte	0x11
 1450 05b7 D3000000 		.4byte	0xd3
 1451 05bb 24       		.byte	0x24
 1452 05bc 03       		.uleb128 0x3
 1453 05bd 73323600 		.ascii	"s26\000"
 1454 05c1 04       		.byte	0x4
 1455 05c2 4B02     		.2byte	0x24b
 1456 05c4 11       		.byte	0x11
 1457 05c5 D3000000 		.4byte	0xd3
 1458 05c9 28       		.byte	0x28
 1459 05ca 03       		.uleb128 0x3
 1460 05cb 73323700 		.ascii	"s27\000"
 1461 05cf 04       		.byte	0x4
 1462 05d0 4C02     		.2byte	0x24c
 1463 05d2 11       		.byte	0x11
 1464 05d3 D3000000 		.4byte	0xd3
 1465 05d7 2C       		.byte	0x2c
 1466 05d8 03       		.uleb128 0x3
 1467 05d9 73323800 		.ascii	"s28\000"
 1468 05dd 04       		.byte	0x4
 1469 05de 4D02     		.2byte	0x24d
 1470 05e0 11       		.byte	0x11
 1471 05e1 D3000000 		.4byte	0xd3
 1472 05e5 30       		.byte	0x30
 1473 05e6 03       		.uleb128 0x3
 1474 05e7 73323900 		.ascii	"s29\000"
 1475 05eb 04       		.byte	0x4
 1476 05ec 4E02     		.2byte	0x24e
 1477 05ee 11       		.byte	0x11
 1478 05ef D3000000 		.4byte	0xd3
 1479 05f3 34       		.byte	0x34
 1480 05f4 03       		.uleb128 0x3
 1481 05f5 73333000 		.ascii	"s30\000"
 1482 05f9 04       		.byte	0x4
ARM GAS  C:\Users\DEVELO~1\AppData\Local\Temp\ccmtuCvA.s 			page 27


 1483 05fa 4F02     		.2byte	0x24f
 1484 05fc 11       		.byte	0x11
 1485 05fd D3000000 		.4byte	0xd3
 1486 0601 38       		.byte	0x38
 1487 0602 03       		.uleb128 0x3
 1488 0603 73333100 		.ascii	"s31\000"
 1489 0607 04       		.byte	0x4
 1490 0608 5002     		.2byte	0x250
 1491 060a 11       		.byte	0x11
 1492 060b D3000000 		.4byte	0xd3
 1493 060f 3C       		.byte	0x3c
 1494 0610 03       		.uleb128 0x3
 1495 0611 723400   		.ascii	"r4\000"
 1496 0614 04       		.byte	0x4
 1497 0615 5202     		.2byte	0x252
 1498 0617 11       		.byte	0x11
 1499 0618 D3000000 		.4byte	0xd3
 1500 061c 40       		.byte	0x40
 1501 061d 03       		.uleb128 0x3
 1502 061e 723500   		.ascii	"r5\000"
 1503 0621 04       		.byte	0x4
 1504 0622 5302     		.2byte	0x253
 1505 0624 11       		.byte	0x11
 1506 0625 D3000000 		.4byte	0xd3
 1507 0629 44       		.byte	0x44
 1508 062a 03       		.uleb128 0x3
 1509 062b 723600   		.ascii	"r6\000"
 1510 062e 04       		.byte	0x4
 1511 062f 5402     		.2byte	0x254
 1512 0631 11       		.byte	0x11
 1513 0632 D3000000 		.4byte	0xd3
 1514 0636 48       		.byte	0x48
 1515 0637 03       		.uleb128 0x3
 1516 0638 723700   		.ascii	"r7\000"
 1517 063b 04       		.byte	0x4
 1518 063c 5502     		.2byte	0x255
 1519 063e 11       		.byte	0x11
 1520 063f D3000000 		.4byte	0xd3
 1521 0643 4C       		.byte	0x4c
 1522 0644 03       		.uleb128 0x3
 1523 0645 723800   		.ascii	"r8\000"
 1524 0648 04       		.byte	0x4
 1525 0649 5602     		.2byte	0x256
 1526 064b 11       		.byte	0x11
 1527 064c D3000000 		.4byte	0xd3
 1528 0650 50       		.byte	0x50
 1529 0651 03       		.uleb128 0x3
 1530 0652 723900   		.ascii	"r9\000"
 1531 0655 04       		.byte	0x4
 1532 0656 5702     		.2byte	0x257
 1533 0658 11       		.byte	0x11
 1534 0659 D3000000 		.4byte	0xd3
 1535 065d 54       		.byte	0x54
 1536 065e 03       		.uleb128 0x3
 1537 065f 72313000 		.ascii	"r10\000"
 1538 0663 04       		.byte	0x4
 1539 0664 5802     		.2byte	0x258
ARM GAS  C:\Users\DEVELO~1\AppData\Local\Temp\ccmtuCvA.s 			page 28


 1540 0666 11       		.byte	0x11
 1541 0667 D3000000 		.4byte	0xd3
 1542 066b 58       		.byte	0x58
 1543 066c 03       		.uleb128 0x3
 1544 066d 72313100 		.ascii	"r11\000"
 1545 0671 04       		.byte	0x4
 1546 0672 5902     		.2byte	0x259
 1547 0674 11       		.byte	0x11
 1548 0675 D3000000 		.4byte	0xd3
 1549 0679 5C       		.byte	0x5c
 1550 067a 03       		.uleb128 0x3
 1551 067b 6C7200   		.ascii	"lr\000"
 1552 067e 04       		.byte	0x4
 1553 067f 5A02     		.2byte	0x25a
 1554 0681 11       		.byte	0x11
 1555 0682 D3000000 		.4byte	0xd3
 1556 0686 60       		.byte	0x60
 1557 0687 00       		.byte	0
 1558 0688 17       		.uleb128 0x17
 1559 0689 D8040000 		.4byte	.LASF81
 1560 068d 04       		.byte	0x4
 1561 068e 04       		.byte	0x4
 1562 068f 6302     		.2byte	0x263
 1563 0691 08       		.byte	0x8
 1564 0692 A4060000 		.4byte	0x6a4
 1565 0696 03       		.uleb128 0x3
 1566 0697 737000   		.ascii	"sp\000"
 1567 069a 04       		.byte	0x4
 1568 069b 6402     		.2byte	0x264
 1569 069d 1A       		.byte	0x1a
 1570 069e A4060000 		.4byte	0x6a4
 1571 06a2 00       		.byte	0
 1572 06a3 00       		.byte	0
 1573 06a4 04       		.uleb128 0x4
 1574 06a5 22050000 		.4byte	0x522
 1575 06a9 01       		.uleb128 0x1
 1576 06aa 69040000 		.4byte	.LASF82
 1577 06ae 0F       		.byte	0xf
 1578 06af 32       		.byte	0x32
 1579 06b0 18       		.byte	0x18
 1580 06b1 B5060000 		.4byte	0x6b5
 1581 06b5 08       		.uleb128 0x8
 1582 06b6 C2030000 		.4byte	.LASF83
 1583 06ba 04       		.byte	0x4
 1584 06bb 0F       		.byte	0xf
 1585 06bc 38       		.byte	0x38
 1586 06bd 08       		.byte	0x8
 1587 06be D0060000 		.4byte	0x6d0
 1588 06c2 02       		.uleb128 0x2
 1589 06c3 C6000000 		.4byte	.LASF84
 1590 06c7 0F       		.byte	0xf
 1591 06c8 39       		.byte	0x39
 1592 06c9 1A       		.byte	0x1a
 1593 06ca D0060000 		.4byte	0x6d0
 1594 06ce 00       		.byte	0
 1595 06cf 00       		.byte	0
 1596 06d0 04       		.uleb128 0x4
ARM GAS  C:\Users\DEVELO~1\AppData\Local\Temp\ccmtuCvA.s 			page 29


 1597 06d1 A9060000 		.4byte	0x6a9
 1598 06d5 01       		.uleb128 0x1
 1599 06d6 90020000 		.4byte	.LASF85
 1600 06da 0F       		.byte	0xf
 1601 06db 3F       		.byte	0x3f
 1602 06dc 19       		.byte	0x19
 1603 06dd E1060000 		.4byte	0x6e1
 1604 06e1 08       		.uleb128 0x8
 1605 06e2 53050000 		.4byte	.LASF86
 1606 06e6 08       		.byte	0x8
 1607 06e7 0F       		.byte	0xf
 1608 06e8 45       		.byte	0x45
 1609 06e9 08       		.byte	0x8
 1610 06ea 09070000 		.4byte	0x709
 1611 06ee 02       		.uleb128 0x2
 1612 06ef C6000000 		.4byte	.LASF84
 1613 06f3 0F       		.byte	0xf
 1614 06f4 46       		.byte	0x46
 1615 06f5 1A       		.byte	0x1a
 1616 06f6 09070000 		.4byte	0x709
 1617 06fa 00       		.byte	0
 1618 06fb 02       		.uleb128 0x2
 1619 06fc 35000000 		.4byte	.LASF87
 1620 0700 0F       		.byte	0xf
 1621 0701 47       		.byte	0x47
 1622 0702 1A       		.byte	0x1a
 1623 0703 09070000 		.4byte	0x709
 1624 0707 04       		.byte	0x4
 1625 0708 00       		.byte	0
 1626 0709 04       		.uleb128 0x4
 1627 070a D5060000 		.4byte	0x6d5
 1628 070e 01       		.uleb128 0x1
 1629 070f 7E060000 		.4byte	.LASF88
 1630 0713 0F       		.byte	0xf
 1631 0714 4E       		.byte	0x4e
 1632 0715 22       		.byte	0x22
 1633 0716 1A070000 		.4byte	0x71a
 1634 071a 08       		.uleb128 0x8
 1635 071b D1060000 		.4byte	.LASF89
 1636 071f 0C       		.byte	0xc
 1637 0720 0F       		.byte	0xf
 1638 0721 55       		.byte	0x55
 1639 0722 08       		.byte	0x8
 1640 0723 4F070000 		.4byte	0x74f
 1641 0727 02       		.uleb128 0x2
 1642 0728 C6000000 		.4byte	.LASF84
 1643 072c 0F       		.byte	0xf
 1644 072d 56       		.byte	0x56
 1645 072e 1A       		.byte	0x1a
 1646 072f 4F070000 		.4byte	0x74f
 1647 0733 00       		.byte	0
 1648 0734 02       		.uleb128 0x2
 1649 0735 35000000 		.4byte	.LASF87
 1650 0739 0F       		.byte	0xf
 1651 073a 57       		.byte	0x57
 1652 073b 1A       		.byte	0x1a
 1653 073c 4F070000 		.4byte	0x74f
ARM GAS  C:\Users\DEVELO~1\AppData\Local\Temp\ccmtuCvA.s 			page 30


 1654 0740 04       		.byte	0x4
 1655 0741 02       		.uleb128 0x2
 1656 0742 F9040000 		.4byte	.LASF90
 1657 0746 0F       		.byte	0xf
 1658 0747 58       		.byte	0x58
 1659 0748 19       		.byte	0x19
 1660 0749 2C010000 		.4byte	0x12c
 1661 074d 08       		.byte	0x8
 1662 074e 00       		.byte	0
 1663 074f 04       		.uleb128 0x4
 1664 0750 0E070000 		.4byte	0x70e
 1665 0754 01       		.uleb128 0x1
 1666 0755 E3060000 		.4byte	.LASF91
 1667 0759 0F       		.byte	0xf
 1668 075a 5F       		.byte	0x5f
 1669 075b 1E       		.byte	0x1e
 1670 075c 60070000 		.4byte	0x760
 1671 0760 08       		.uleb128 0x8
 1672 0761 09010000 		.4byte	.LASF92
 1673 0765 0C       		.byte	0xc
 1674 0766 0F       		.byte	0xf
 1675 0767 64       		.byte	0x64
 1676 0768 08       		.byte	0x8
 1677 0769 95070000 		.4byte	0x795
 1678 076d 02       		.uleb128 0x2
 1679 076e C6000000 		.4byte	.LASF84
 1680 0772 0F       		.byte	0xf
 1681 0773 65       		.byte	0x65
 1682 0774 1A       		.byte	0x1a
 1683 0775 95070000 		.4byte	0x795
 1684 0779 00       		.byte	0
 1685 077a 02       		.uleb128 0x2
 1686 077b 35000000 		.4byte	.LASF87
 1687 077f 0F       		.byte	0xf
 1688 0780 66       		.byte	0x66
 1689 0781 1A       		.byte	0x1a
 1690 0782 95070000 		.4byte	0x795
 1691 0786 04       		.byte	0x4
 1692 0787 02       		.uleb128 0x2
 1693 0788 C0000000 		.4byte	.LASF93
 1694 078c 0F       		.byte	0xf
 1695 078d 67       		.byte	0x67
 1696 078e 19       		.byte	0x19
 1697 078f 86030000 		.4byte	0x386
 1698 0793 08       		.byte	0x8
 1699 0794 00       		.byte	0
 1700 0795 04       		.uleb128 0x4
 1701 0796 54070000 		.4byte	0x754
 1702 079a 08       		.uleb128 0x8
 1703 079b 44040000 		.4byte	.LASF94
 1704 079f 20       		.byte	0x20
 1705 07a0 0A       		.byte	0xa
 1706 07a1 64       		.byte	0x64
 1707 07a2 10       		.byte	0x10
 1708 07a3 DC070000 		.4byte	0x7dc
 1709 07a7 02       		.uleb128 0x2
 1710 07a8 67060000 		.4byte	.LASF95
ARM GAS  C:\Users\DEVELO~1\AppData\Local\Temp\ccmtuCvA.s 			page 31


 1711 07ac 0A       		.byte	0xa
 1712 07ad 68       		.byte	0x68
 1713 07ae 21       		.byte	0x21
 1714 07af 54070000 		.4byte	0x754
 1715 07b3 00       		.byte	0
 1716 07b4 02       		.uleb128 0x2
 1717 07b5 89050000 		.4byte	.LASF96
 1718 07b9 0A       		.byte	0xa
 1719 07ba 73       		.byte	0x73
 1720 07bb 21       		.byte	0x21
 1721 07bc 7A030000 		.4byte	0x37a
 1722 07c0 0C       		.byte	0xc
 1723 07c1 02       		.uleb128 0x2
 1724 07c2 25050000 		.4byte	.LASF97
 1725 07c6 0A       		.byte	0xa
 1726 07c7 7B       		.byte	0x7b
 1727 07c8 21       		.byte	0x21
 1728 07c9 86030000 		.4byte	0x386
 1729 07cd 10       		.byte	0x10
 1730 07ce 02       		.uleb128 0x2
 1731 07cf 09040000 		.4byte	.LASF98
 1732 07d3 0A       		.byte	0xa
 1733 07d4 81       		.byte	0x81
 1734 07d5 21       		.byte	0x21
 1735 07d6 EB000000 		.4byte	0xeb
 1736 07da 18       		.byte	0x18
 1737 07db 00       		.byte	0
 1738 07dc 01       		.uleb128 0x1
 1739 07dd EB030000 		.4byte	.LASF99
 1740 07e1 0A       		.byte	0xa
 1741 07e2 83       		.byte	0x83
 1742 07e3 03       		.byte	0x3
 1743 07e4 9A070000 		.4byte	0x79a
 1744 07e8 08       		.uleb128 0x8
 1745 07e9 8D010000 		.4byte	.LASF100
 1746 07ed 08       		.byte	0x8
 1747 07ee 0A       		.byte	0xa
 1748 07ef 88       		.byte	0x88
 1749 07f0 10       		.byte	0x10
 1750 07f1 03080000 		.4byte	0x803
 1751 07f5 02       		.uleb128 0x2
 1752 07f6 D0020000 		.4byte	.LASF101
 1753 07fa 0A       		.byte	0xa
 1754 07fb 8C       		.byte	0x8c
 1755 07fc 21       		.byte	0x21
 1756 07fd D5060000 		.4byte	0x6d5
 1757 0801 00       		.byte	0
 1758 0802 00       		.byte	0
 1759 0803 01       		.uleb128 0x1
 1760 0804 E6050000 		.4byte	.LASF102
 1761 0808 0A       		.byte	0xa
 1762 0809 8D       		.byte	0x8d
 1763 080a 03       		.byte	0x3
 1764 080b E8070000 		.4byte	0x7e8
 1765 080f 01       		.uleb128 0x1
 1766 0810 31040000 		.4byte	.LASF103
 1767 0814 0A       		.byte	0xa
ARM GAS  C:\Users\DEVELO~1\AppData\Local\Temp\ccmtuCvA.s 			page 32


 1768 0815 92       		.byte	0x92
 1769 0816 14       		.byte	0x14
 1770 0817 B6030000 		.4byte	0x3b6
 1771 081b 01       		.uleb128 0x1
 1772 081c BF020000 		.4byte	.LASF104
 1773 0820 0A       		.byte	0xa
 1774 0821 A1       		.byte	0xa1
 1775 0822 10       		.byte	0x10
 1776 0823 27080000 		.4byte	0x827
 1777 0827 04       		.uleb128 0x4
 1778 0828 2C080000 		.4byte	0x82c
 1779 082c 2D       		.uleb128 0x2d
 1780 082d 37080000 		.4byte	0x837
 1781 0831 06       		.uleb128 0x6
 1782 0832 B6030000 		.4byte	0x3b6
 1783 0836 00       		.byte	0
 1784 0837 22       		.uleb128 0x22
 1785 0838 0C       		.byte	0xc
 1786 0839 0A       		.byte	0xa
 1787 083a AD       		.byte	0xad
 1788 083b 64080000 		.4byte	0x864
 1789 083f 14       		.uleb128 0x14
 1790 0840 BA070000 		.4byte	.LASF105
 1791 0844 0A       		.byte	0xa
 1792 0845 B1       		.byte	0xb1
 1793 0846 21       		.byte	0x21
 1794 0847 A9060000 		.4byte	0x6a9
 1795 084b 14       		.uleb128 0x14
 1796 084c D0020000 		.4byte	.LASF101
 1797 0850 0A       		.byte	0xa
 1798 0851 B5       		.byte	0xb5
 1799 0852 21       		.byte	0x21
 1800 0853 D5060000 		.4byte	0x6d5
 1801 0857 14       		.uleb128 0x14
 1802 0858 9C060000 		.4byte	.LASF106
 1803 085c 0A       		.byte	0xa
 1804 085d B9       		.byte	0xb9
 1805 085e 21       		.byte	0x21
 1806 085f 0E070000 		.4byte	0x70e
 1807 0863 00       		.byte	0
 1808 0864 2E       		.uleb128 0x2e
 1809 0865 04       		.byte	0x4
 1810 0866 0A       		.byte	0xa
 1811 0867 0201     		.2byte	0x102
 1812 0869 03       		.byte	0x3
 1813 086a CF080000 		.4byte	0x8cf
 1814 086e 0B       		.uleb128 0xb
 1815 086f 13000000 		.4byte	.LASF107
 1816 0873 0901     		.2byte	0x109
 1817 0875 21       		.byte	0x21
 1818 0876 38010000 		.4byte	0x138
 1819 087a 0B       		.uleb128 0xb
 1820 087b 99010000 		.4byte	.LASF108
 1821 087f 1001     		.2byte	0x110
 1822 0881 21       		.byte	0x21
 1823 0882 38010000 		.4byte	0x138
 1824 0886 0B       		.uleb128 0xb
ARM GAS  C:\Users\DEVELO~1\AppData\Local\Temp\ccmtuCvA.s 			page 33


 1825 0887 92050000 		.4byte	.LASF68
 1826 088b 1701     		.2byte	0x117
 1827 088d 22       		.byte	0x22
 1828 088e BB030000 		.4byte	0x3bb
 1829 0892 0B       		.uleb128 0xb
 1830 0893 0D000000 		.4byte	.LASF109
 1831 0897 1E01     		.2byte	0x11e
 1832 0899 22       		.byte	0x22
 1833 089a CF080000 		.4byte	0x8cf
 1834 089e 0B       		.uleb128 0xb
 1835 089f B8000000 		.4byte	.LASF110
 1836 08a3 2301     		.2byte	0x123
 1837 08a5 21       		.byte	0x21
 1838 08a6 38010000 		.4byte	0x138
 1839 08aa 0B       		.uleb128 0xb
 1840 08ab 21020000 		.4byte	.LASF111
 1841 08af 2C01     		.2byte	0x12c
 1842 08b1 22       		.byte	0x22
 1843 08b2 FC080000 		.4byte	0x8fc
 1844 08b6 0B       		.uleb128 0xb
 1845 08b7 FA050000 		.4byte	.LASF112
 1846 08bb 3501     		.2byte	0x135
 1847 08bd 22       		.byte	0x22
 1848 08be 36090000 		.4byte	0x936
 1849 08c2 0B       		.uleb128 0xb
 1850 08c3 99050000 		.4byte	.LASF113
 1851 08c7 3D01     		.2byte	0x13d
 1852 08c9 21       		.byte	0x21
 1853 08ca 44010000 		.4byte	0x144
 1854 08ce 00       		.byte	0
 1855 08cf 04       		.uleb128 0x4
 1856 08d0 0F080000 		.4byte	0x80f
 1857 08d4 08       		.uleb128 0x8
 1858 08d5 D9050000 		.4byte	.LASF114
 1859 08d9 0C       		.byte	0xc
 1860 08da 10       		.byte	0x10
 1861 08db 34       		.byte	0x34
 1862 08dc 10       		.byte	0x10
 1863 08dd FC080000 		.4byte	0x8fc
 1864 08e1 02       		.uleb128 0x2
 1865 08e2 D0020000 		.4byte	.LASF101
 1866 08e6 10       		.byte	0x10
 1867 08e7 35       		.byte	0x35
 1868 08e8 19       		.byte	0x19
 1869 08e9 D5060000 		.4byte	0x6d5
 1870 08ed 00       		.byte	0
 1871 08ee 0A       		.uleb128 0xa
 1872 08ef 636E7400 		.ascii	"cnt\000"
 1873 08f3 10       		.byte	0x10
 1874 08f4 37       		.byte	0x37
 1875 08f5 19       		.byte	0x19
 1876 08f6 50010000 		.4byte	0x150
 1877 08fa 08       		.byte	0x8
 1878 08fb 00       		.byte	0
 1879 08fc 04       		.uleb128 0x4
 1880 08fd D4080000 		.4byte	0x8d4
 1881 0901 08       		.uleb128 0x8
ARM GAS  C:\Users\DEVELO~1\AppData\Local\Temp\ccmtuCvA.s 			page 34


 1882 0902 71070000 		.4byte	.LASF115
 1883 0906 10       		.byte	0x10
 1884 0907 11       		.byte	0x11
 1885 0908 39       		.byte	0x39
 1886 0909 08       		.byte	0x8
 1887 090a 36090000 		.4byte	0x936
 1888 090e 02       		.uleb128 0x2
 1889 090f D0020000 		.4byte	.LASF101
 1890 0913 11       		.byte	0x11
 1891 0914 3A       		.byte	0x3a
 1892 0915 19       		.byte	0x19
 1893 0916 D5060000 		.4byte	0x6d5
 1894 091a 00       		.byte	0
 1895 091b 02       		.uleb128 0x2
 1896 091c 01060000 		.4byte	.LASF31
 1897 0920 11       		.byte	0x11
 1898 0921 3C       		.byte	0x3c
 1899 0922 1A       		.byte	0x1a
 1900 0923 B6030000 		.4byte	0x3b6
 1901 0927 08       		.byte	0x8
 1902 0928 02       		.uleb128 0x2
 1903 0929 C6000000 		.4byte	.LASF84
 1904 092d 11       		.byte	0x11
 1905 092e 3E       		.byte	0x3e
 1906 092f 1A       		.byte	0x1a
 1907 0930 EA090000 		.4byte	0x9ea
 1908 0934 0C       		.byte	0xc
 1909 0935 00       		.byte	0
 1910 0936 04       		.uleb128 0x4
 1911 0937 01090000 		.4byte	0x901
 1912 093b 04       		.uleb128 0x4
 1913 093c 6B020000 		.4byte	0x26b
 1914 0940 04       		.uleb128 0x4
 1915 0941 FC000000 		.4byte	0xfc
 1916 0945 17       		.uleb128 0x17
 1917 0946 AC020000 		.4byte	.LASF116
 1918 094a 10       		.byte	0x10
 1919 094b 0A       		.byte	0xa
 1920 094c 6C01     		.2byte	0x16c
 1921 094e 10       		.byte	0x10
 1922 094f 6E090000 		.4byte	0x96e
 1923 0953 05       		.uleb128 0x5
 1924 0954 9C060000 		.4byte	.LASF106
 1925 0958 7101     		.2byte	0x171
 1926 095a 21       		.byte	0x21
 1927 095b 0E070000 		.4byte	0x70e
 1928 095f 00       		.byte	0
 1929 0960 05       		.uleb128 0x5
 1930 0961 0C050000 		.4byte	.LASF117
 1931 0965 7501     		.2byte	0x175
 1932 0967 22       		.byte	0x22
 1933 0968 B6030000 		.4byte	0x3b6
 1934 096c 0C       		.byte	0xc
 1935 096d 00       		.byte	0
 1936 096e 23       		.uleb128 0x23
 1937 096f 00000000 		.4byte	.LASF118
 1938 0973 7601     		.2byte	0x176
ARM GAS  C:\Users\DEVELO~1\AppData\Local\Temp\ccmtuCvA.s 			page 35


 1939 0975 45090000 		.4byte	0x945
 1940 0979 17       		.uleb128 0x17
 1941 097a 71000000 		.4byte	.LASF119
 1942 097e 14       		.byte	0x14
 1943 097f 0A       		.byte	0xa
 1944 0980 7B01     		.2byte	0x17b
 1945 0982 10       		.byte	0x10
 1946 0983 C9090000 		.4byte	0x9c9
 1947 0987 05       		.uleb128 0x5
 1948 0988 BA020000 		.4byte	.LASF37
 1949 098c 7F01     		.2byte	0x17f
 1950 098e 22       		.byte	0x22
 1951 098f 58030000 		.4byte	0x358
 1952 0993 00       		.byte	0
 1953 0994 05       		.uleb128 0x5
 1954 0995 82040000 		.4byte	.LASF120
 1955 0999 8301     		.2byte	0x183
 1956 099b 22       		.byte	0x22
 1957 099c 40090000 		.4byte	0x940
 1958 09a0 04       		.byte	0x4
 1959 09a1 05       		.uleb128 0x5
 1960 09a2 D2000000 		.4byte	.LASF121
 1961 09a6 8701     		.2byte	0x187
 1962 09a8 22       		.byte	0x22
 1963 09a9 40090000 		.4byte	0x940
 1964 09ad 08       		.byte	0x8
 1965 09ae 05       		.uleb128 0x5
 1966 09af E0010000 		.4byte	.LASF122
 1967 09b3 8C01     		.2byte	0x18c
 1968 09b5 22       		.byte	0x22
 1969 09b6 40090000 		.4byte	0x940
 1970 09ba 0C       		.byte	0xc
 1971 09bb 05       		.uleb128 0x5
 1972 09bc FE040000 		.4byte	.LASF123
 1973 09c0 9001     		.2byte	0x190
 1974 09c2 22       		.byte	0x22
 1975 09c3 40090000 		.4byte	0x940
 1976 09c7 10       		.byte	0x10
 1977 09c8 00       		.byte	0
 1978 09c9 23       		.uleb128 0x23
 1979 09ca FD060000 		.4byte	.LASF124
 1980 09ce 9201     		.2byte	0x192
 1981 09d0 79090000 		.4byte	0x979
 1982 09d4 13       		.uleb128 0x13
 1983 09d5 C9090000 		.4byte	0x9c9
 1984 09d9 04       		.uleb128 0x4
 1985 09da D4090000 		.4byte	0x9d4
 1986 09de 01       		.uleb128 0x1
 1987 09df EF010000 		.4byte	.LASF125
 1988 09e3 11       		.byte	0x11
 1989 09e4 34       		.byte	0x34
 1990 09e5 19       		.byte	0x19
 1991 09e6 01090000 		.4byte	0x901
 1992 09ea 04       		.uleb128 0x4
 1993 09eb DE090000 		.4byte	0x9de
 1994 09ef 07       		.uleb128 0x7
 1995 09f0 01       		.byte	0x1
ARM GAS  C:\Users\DEVELO~1\AppData\Local\Temp\ccmtuCvA.s 			page 36


 1996 09f1 02       		.byte	0x2
 1997 09f2 5C050000 		.4byte	.LASF126
 1998 09f6 01       		.uleb128 0x1
 1999 09f7 73040000 		.4byte	.LASF127
 2000 09fb 12       		.byte	0x12
 2001 09fc 28       		.byte	0x28
 2002 09fd 1B       		.byte	0x1b
 2003 09fe 020A0000 		.4byte	0xa02
 2004 0a02 2F       		.uleb128 0x2f
 2005 0a03 83010000 		.4byte	.LASF161
 2006 0a07 04       		.byte	0x4
 2007 0a08 14       		.byte	0x14
 2008 0a09 00       		.byte	0
 2009 0a0a 190A0000 		.4byte	0xa19
 2010 0a0e 30       		.uleb128 0x30
 2011 0a0f CC060000 		.4byte	.LASF162
 2012 0a13 BB030000 		.4byte	0x3bb
 2013 0a17 00       		.byte	0
 2014 0a18 00       		.byte	0
 2015 0a19 01       		.uleb128 0x1
 2016 0a1a 46000000 		.4byte	.LASF128
 2017 0a1e 12       		.byte	0x12
 2018 0a1f 63       		.byte	0x63
 2019 0a20 18       		.byte	0x18
 2020 0a21 F6090000 		.4byte	0x9f6
 2021 0a25 01       		.uleb128 0x1
 2022 0a26 97040000 		.4byte	.LASF129
 2023 0a2a 13       		.byte	0x13
 2024 0a2b 3C       		.byte	0x3c
 2025 0a2c 11       		.byte	0x11
 2026 0a2d 310A0000 		.4byte	0xa31
 2027 0a31 04       		.uleb128 0x4
 2028 0a32 360A0000 		.4byte	0xa36
 2029 0a36 15       		.uleb128 0x15
 2030 0a37 38010000 		.4byte	0x138
 2031 0a3b 450A0000 		.4byte	0xa45
 2032 0a3f 06       		.uleb128 0x6
 2033 0a40 450A0000 		.4byte	0xa45
 2034 0a44 00       		.byte	0
 2035 0a45 04       		.uleb128 0x4
 2036 0a46 190A0000 		.4byte	0xa19
 2037 0a4a 01       		.uleb128 0x1
 2038 0a4b 18070000 		.4byte	.LASF130
 2039 0a4f 13       		.byte	0x13
 2040 0a50 41       		.byte	0x41
 2041 0a51 11       		.byte	0x11
 2042 0a52 560A0000 		.4byte	0xa56
 2043 0a56 04       		.uleb128 0x4
 2044 0a57 5B0A0000 		.4byte	0xa5b
 2045 0a5b 31       		.uleb128 0x31
 2046 0a5c 38010000 		.4byte	0x138
 2047 0a60 01       		.uleb128 0x1
 2048 0a61 D6070000 		.4byte	.LASF131
 2049 0a65 13       		.byte	0x13
 2050 0a66 46       		.byte	0x46
 2051 0a67 11       		.byte	0x11
 2052 0a68 6C0A0000 		.4byte	0xa6c
ARM GAS  C:\Users\DEVELO~1\AppData\Local\Temp\ccmtuCvA.s 			page 37


 2053 0a6c 04       		.uleb128 0x4
 2054 0a6d 710A0000 		.4byte	0xa71
 2055 0a71 15       		.uleb128 0x15
 2056 0a72 38010000 		.4byte	0x138
 2057 0a76 800A0000 		.4byte	0xa80
 2058 0a7a 06       		.uleb128 0x6
 2059 0a7b 38010000 		.4byte	0x138
 2060 0a7f 00       		.byte	0
 2061 0a80 01       		.uleb128 0x1
 2062 0a81 39010000 		.4byte	.LASF132
 2063 0a85 13       		.byte	0x13
 2064 0a86 4B       		.byte	0x4b
 2065 0a87 11       		.byte	0x11
 2066 0a88 8C0A0000 		.4byte	0xa8c
 2067 0a8c 04       		.uleb128 0x4
 2068 0a8d 910A0000 		.4byte	0xa91
 2069 0a91 15       		.uleb128 0x15
 2070 0a92 38010000 		.4byte	0x138
 2071 0a96 A50A0000 		.4byte	0xaa5
 2072 0a9a 06       		.uleb128 0x6
 2073 0a9b 38010000 		.4byte	0x138
 2074 0a9f 06       		.uleb128 0x6
 2075 0aa0 38010000 		.4byte	0x138
 2076 0aa4 00       		.byte	0
 2077 0aa5 01       		.uleb128 0x1
 2078 0aa6 34020000 		.4byte	.LASF133
 2079 0aaa 13       		.byte	0x13
 2080 0aab 50       		.byte	0x50
 2081 0aac 11       		.byte	0x11
 2082 0aad B10A0000 		.4byte	0xab1
 2083 0ab1 04       		.uleb128 0x4
 2084 0ab2 B60A0000 		.4byte	0xab6
 2085 0ab6 15       		.uleb128 0x15
 2086 0ab7 38010000 		.4byte	0x138
 2087 0abb CF0A0000 		.4byte	0xacf
 2088 0abf 06       		.uleb128 0x6
 2089 0ac0 38010000 		.4byte	0x138
 2090 0ac4 06       		.uleb128 0x6
 2091 0ac5 38010000 		.4byte	0x138
 2092 0ac9 06       		.uleb128 0x6
 2093 0aca 38010000 		.4byte	0x138
 2094 0ace 00       		.byte	0
 2095 0acf 01       		.uleb128 0x1
 2096 0ad0 7A070000 		.4byte	.LASF134
 2097 0ad4 13       		.byte	0x13
 2098 0ad5 55       		.byte	0x55
 2099 0ad6 11       		.byte	0x11
 2100 0ad7 DB0A0000 		.4byte	0xadb
 2101 0adb 04       		.uleb128 0x4
 2102 0adc E00A0000 		.4byte	0xae0
 2103 0ae0 15       		.uleb128 0x15
 2104 0ae1 38010000 		.4byte	0x138
 2105 0ae5 FE0A0000 		.4byte	0xafe
 2106 0ae9 06       		.uleb128 0x6
 2107 0aea 38010000 		.4byte	0x138
 2108 0aee 06       		.uleb128 0x6
 2109 0aef 38010000 		.4byte	0x138
ARM GAS  C:\Users\DEVELO~1\AppData\Local\Temp\ccmtuCvA.s 			page 38


 2110 0af3 06       		.uleb128 0x6
 2111 0af4 38010000 		.4byte	0x138
 2112 0af8 06       		.uleb128 0x6
 2113 0af9 38010000 		.4byte	0x138
 2114 0afd 00       		.byte	0
 2115 0afe 0D       		.uleb128 0xd
 2116 0aff 08       		.byte	0x8
 2117 0b00 01       		.byte	0x1
 2118 0b01 39       		.byte	0x39
 2119 0b02 09       		.byte	0x9
 2120 0b03 220B0000 		.4byte	0xb22
 2121 0b07 02       		.uleb128 0x2
 2122 0b08 B2010000 		.4byte	.LASF135
 2123 0b0c 01       		.byte	0x1
 2124 0b0d 3D       		.byte	0x3d
 2125 0b0e 15       		.byte	0x15
 2126 0b0f 250A0000 		.4byte	0xa25
 2127 0b13 00       		.byte	0
 2128 0b14 02       		.uleb128 0x2
 2129 0b15 1F050000 		.4byte	.LASF136
 2130 0b19 01       		.byte	0x1
 2131 0b1a 41       		.byte	0x41
 2132 0b1b 16       		.byte	0x16
 2133 0b1c 450A0000 		.4byte	0xa45
 2134 0b20 04       		.byte	0x4
 2135 0b21 00       		.byte	0
 2136 0b22 01       		.uleb128 0x1
 2137 0b23 B9010000 		.4byte	.LASF137
 2138 0b27 01       		.byte	0x1
 2139 0b28 42       		.byte	0x42
 2140 0b29 03       		.byte	0x3
 2141 0b2a FE0A0000 		.4byte	0xafe
 2142 0b2e 13       		.uleb128 0x13
 2143 0b2f 220B0000 		.4byte	0xb22
 2144 0b33 24       		.uleb128 0x24
 2145 0b34 A0050000 		.4byte	.LASF138
 2146 0b38 44       		.byte	0x44
 2147 0b39 0D       		.byte	0xd
 2148 0b3a B6030000 		.4byte	0x3b6
 2149 0b3e 480B0000 		.4byte	0xb48
 2150 0b42 06       		.uleb128 0x6
 2151 0b43 86030000 		.4byte	0x386
 2152 0b47 00       		.byte	0
 2153 0b48 32       		.uleb128 0x32
 2154 0b49 DE020000 		.4byte	.LASF163
 2155 0b4d 02       		.byte	0x2
 2156 0b4e 43       		.byte	0x43
 2157 0b4f 0D       		.byte	0xd
 2158 0b50 B6030000 		.4byte	0x3b6
 2159 0b54 33       		.uleb128 0x33
 2160 0b55 CC050000 		.4byte	.LASF164
 2161 0b59 02       		.byte	0x2
 2162 0b5a 46       		.byte	0x46
 2163 0b5b 08       		.byte	0x8
 2164 0b5c 6B0B0000 		.4byte	0xb6b
 2165 0b60 06       		.uleb128 0x6
 2166 0b61 B6030000 		.4byte	0x3b6
ARM GAS  C:\Users\DEVELO~1\AppData\Local\Temp\ccmtuCvA.s 			page 39


 2167 0b65 06       		.uleb128 0x6
 2168 0b66 38010000 		.4byte	0x138
 2169 0b6a 00       		.byte	0
 2170 0b6b 24       		.uleb128 0x24
 2171 0b6c 2F010000 		.4byte	.LASF139
 2172 0b70 42       		.byte	0x42
 2173 0b71 09       		.byte	0x9
 2174 0b72 38010000 		.4byte	0x138
 2175 0b76 850B0000 		.4byte	0xb85
 2176 0b7a 06       		.uleb128 0x6
 2177 0b7b B6030000 		.4byte	0x3b6
 2178 0b7f 06       		.uleb128 0x6
 2179 0b80 38010000 		.4byte	0x138
 2180 0b84 00       		.byte	0
 2181 0b85 34       		.uleb128 0x34
 2182 0b86 A9040000 		.4byte	.LASF140
 2183 0b8a 01       		.byte	0x1
 2184 0b8b DA       		.byte	0xda
 2185 0b8c 07       		.byte	0x7
 2186 0b8d 38010000 		.4byte	0x138
 2187 0b91 00000000 		.4byte	.LFB359
 2188 0b95 30000000 		.4byte	.LFE359-.LFB359
 2189 0b99 01       		.uleb128 0x1
 2190 0b9a 9C       		.byte	0x9c
 2191 0b9b FB0C0000 		.4byte	0xcfb
 2192 0b9f 11       		.uleb128 0x11
 2193 0ba0 A4020000 		.4byte	.LASF142
 2194 0ba4 DA       		.byte	0xda
 2195 0ba5 2F       		.byte	0x2f
 2196 0ba6 86030000 		.4byte	0x386
 2197 0baa 10000000 		.4byte	.LLST17
 2198 0bae 0C000000 		.4byte	.LVUS17
 2199 0bb2 0E       		.uleb128 0xe
 2200 0bb3 747000   		.ascii	"tp\000"
 2201 0bb6 DB       		.byte	0xdb
 2202 0bb7 0D       		.byte	0xd
 2203 0bb8 B6030000 		.4byte	0x3b6
 2204 0bbc 29000000 		.4byte	.LLST18
 2205 0bc0 23000000 		.4byte	.LVUS18
 2206 0bc4 0E       		.uleb128 0xe
 2207 0bc5 636D7000 		.ascii	"cmp\000"
 2208 0bc9 DC       		.byte	0xdc
 2209 0bca 19       		.byte	0x19
 2210 0bcb FB0C0000 		.4byte	0xcfb
 2211 0bcf 40000000 		.4byte	.LLST19
 2212 0bd3 3E000000 		.4byte	.LVUS19
 2213 0bd7 0E       		.uleb128 0xe
 2214 0bd8 72657400 		.ascii	"ret\000"
 2215 0bdc DD       		.byte	0xdd
 2216 0bdd 09       		.byte	0x9
 2217 0bde 38010000 		.4byte	0x138
 2218 0be2 4D000000 		.4byte	.LLST20
 2219 0be6 49000000 		.4byte	.LVUS20
 2220 0bea 12       		.uleb128 0x12
 2221 0beb 90100000 		.4byte	0x1090
 2222 0bef 00000000 		.4byte	.LBI84
 2223 0bf3 05       		.byte	.LVU147
ARM GAS  C:\Users\DEVELO~1\AppData\Local\Temp\ccmtuCvA.s 			page 40


 2224 0bf4 30000000 		.4byte	.LLRL21
 2225 0bf8 01       		.byte	0x1
 2226 0bf9 DF       		.byte	0xdf
 2227 0bfa 08       		.byte	0x8
 2228 0bfb C50C0000 		.4byte	0xcc5
 2229 0bff 0F       		.uleb128 0xf
 2230 0c00 9F100000 		.4byte	0x109f
 2231 0c04 61000000 		.4byte	.LLST22
 2232 0c08 5D000000 		.4byte	.LVUS22
 2233 0c0c 18       		.uleb128 0x18
 2234 0c0d 30000000 		.4byte	.LLRL21
 2235 0c11 25       		.uleb128 0x25
 2236 0c12 AB100000 		.4byte	0x10ab
 2237 0c16 76000000 		.4byte	.LLST23
 2238 0c1a 74000000 		.4byte	.LVUS23
 2239 0c1e 12       		.uleb128 0x12
 2240 0c1f FF100000 		.4byte	0x10ff
 2241 0c23 00000000 		.4byte	.LBI86
 2242 0c27 08       		.byte	.LVU150
 2243 0c28 3C000000 		.4byte	.LLRL24
 2244 0c2c 02       		.byte	0x2
 2245 0c2d 82       		.byte	0x82
 2246 0c2e 03       		.byte	0x3
 2247 0c2f 650C0000 		.4byte	0xc65
 2248 0c33 0C       		.uleb128 0xc
 2249 0c34 11110000 		.4byte	0x1111
 2250 0c38 00000000 		.4byte	.LBI87
 2251 0c3c 0A       		.byte	.LVU152
 2252 0c3d 3C000000 		.4byte	.LLRL24
 2253 0c41 03       		.byte	0x3
 2254 0c42 7601     		.2byte	0x176
 2255 0c44 0C       		.uleb128 0xc
 2256 0c45 1A110000 		.4byte	0x111a
 2257 0c49 00000000 		.4byte	.LBI88
 2258 0c4d 0C       		.byte	.LVU154
 2259 0c4e 3C000000 		.4byte	.LLRL24
 2260 0c52 04       		.byte	0x4
 2261 0c53 5003     		.2byte	0x350
 2262 0c55 0F       		.uleb128 0xf
 2263 0c56 24110000 		.4byte	0x1124
 2264 0c5a 81000000 		.4byte	.LLST25
 2265 0c5e 7F000000 		.4byte	.LVUS25
 2266 0c62 00       		.byte	0
 2267 0c63 00       		.byte	0
 2268 0c64 00       		.byte	0
 2269 0c65 12       		.uleb128 0x12
 2270 0c66 D2100000 		.4byte	0x10d2
 2271 0c6a 0E000000 		.4byte	.LBI94
 2272 0c6e 02       		.byte	.LVU166
 2273 0c6f 48000000 		.4byte	.LLRL26
 2274 0c73 02       		.byte	0x2
 2275 0c74 84       		.byte	0x84
 2276 0c75 03       		.byte	0x3
 2277 0c76 B20C0000 		.4byte	0xcb2
 2278 0c7a 18       		.uleb128 0x18
 2279 0c7b 48000000 		.4byte	.LLRL26
 2280 0c7f 0C       		.uleb128 0xc
ARM GAS  C:\Users\DEVELO~1\AppData\Local\Temp\ccmtuCvA.s 			page 41


 2281 0c80 08110000 		.4byte	0x1108
 2282 0c84 0E000000 		.4byte	.LBI96
 2283 0c88 09       		.byte	.LVU173
 2284 0c89 48000000 		.4byte	.LLRL26
 2285 0c8d 03       		.byte	0x3
 2286 0c8e 8F01     		.2byte	0x18f
 2287 0c90 0C       		.uleb128 0xc
 2288 0c91 1A110000 		.4byte	0x111a
 2289 0c95 0E000000 		.4byte	.LBI97
 2290 0c99 0B       		.byte	.LVU175
 2291 0c9a 48000000 		.4byte	.LLRL26
 2292 0c9e 04       		.byte	0x4
 2293 0c9f 6303     		.2byte	0x363
 2294 0ca1 0F       		.uleb128 0xf
 2295 0ca2 24110000 		.4byte	0x1124
 2296 0ca6 8E000000 		.4byte	.LLST27
 2297 0caa 8C000000 		.4byte	.LVUS27
 2298 0cae 00       		.byte	0
 2299 0caf 00       		.byte	0
 2300 0cb0 00       		.byte	0
 2301 0cb1 00       		.byte	0
 2302 0cb2 1E       		.uleb128 0x1e
 2303 0cb3 0C000000 		.4byte	.LVL32
 2304 0cb7 330B0000 		.4byte	0xb33
 2305 0cbb 19       		.uleb128 0x19
 2306 0cbc 01       		.uleb128 0x1
 2307 0cbd 50       		.byte	0x50
 2308 0cbe 03       		.uleb128 0x3
 2309 0cbf A3       		.byte	0xa3
 2310 0cc0 01       		.uleb128 0x1
 2311 0cc1 50       		.byte	0x50
 2312 0cc2 00       		.byte	0
 2313 0cc3 00       		.byte	0
 2314 0cc4 00       		.byte	0
 2315 0cc5 26       		.uleb128 0x26
 2316 0cc6 57100000 		.4byte	0x1057
 2317 0cca 14000000 		.4byte	.LBI106
 2318 0cce 01       		.byte	.LVU183
 2319 0ccf 14000000 		.4byte	.LBB106
 2320 0cd3 00000000 		.4byte	.LBE106-.LBB106
 2321 0cd7 E4       		.byte	0xe4
 2322 0cd8 EA0C0000 		.4byte	0xcea
 2323 0cdc 0F       		.uleb128 0xf
 2324 0cdd 66100000 		.4byte	0x1066
 2325 0ce1 9A000000 		.4byte	.LLST28
 2326 0ce5 98000000 		.4byte	.LVUS28
 2327 0ce9 00       		.byte	0
 2328 0cea 1E       		.uleb128 0x1e
 2329 0ceb 26000000 		.4byte	.LVL41
 2330 0cef 540B0000 		.4byte	0xb54
 2331 0cf3 19       		.uleb128 0x19
 2332 0cf4 01       		.uleb128 0x1
 2333 0cf5 50       		.byte	0x50
 2334 0cf6 02       		.uleb128 0x2
 2335 0cf7 74       		.byte	0x74
 2336 0cf8 00       		.sleb128 0
 2337 0cf9 00       		.byte	0
ARM GAS  C:\Users\DEVELO~1\AppData\Local\Temp\ccmtuCvA.s 			page 42


 2338 0cfa 00       		.byte	0
 2339 0cfb 04       		.uleb128 0x4
 2340 0cfc 2E0B0000 		.4byte	0xb2e
 2341 0d00 35       		.uleb128 0x35
 2342 0d01 A3060000 		.4byte	.LASF144
 2343 0d05 01       		.byte	0x1
 2344 0d06 BE       		.byte	0xbe
 2345 0d07 06       		.byte	0x6
 2346 0d08 00000000 		.4byte	.LFB358
 2347 0d0c 28000000 		.4byte	.LFE358-.LFB358
 2348 0d10 01       		.uleb128 0x1
 2349 0d11 9C       		.byte	0x9c
 2350 0d12 430E0000 		.4byte	0xe43
 2351 0d16 0E       		.uleb128 0xe
 2352 0d17 747000   		.ascii	"tp\000"
 2353 0d1a BF       		.byte	0xbf
 2354 0d1b 0D       		.byte	0xd
 2355 0d1c B6030000 		.4byte	0x3b6
 2356 0d20 A9000000 		.4byte	.LLST7
 2357 0d24 A3000000 		.4byte	.LVUS7
 2358 0d28 0E       		.uleb128 0xe
 2359 0d29 636D7000 		.ascii	"cmp\000"
 2360 0d2d C0       		.byte	0xc0
 2361 0d2e 19       		.byte	0x19
 2362 0d2f FB0C0000 		.4byte	0xcfb
 2363 0d33 C0000000 		.4byte	.LLST8
 2364 0d37 BE000000 		.4byte	.LVUS8
 2365 0d3b 0E       		.uleb128 0xe
 2366 0d3c 72657400 		.ascii	"ret\000"
 2367 0d40 C1       		.byte	0xc1
 2368 0d41 09       		.byte	0x9
 2369 0d42 38010000 		.4byte	0x138
 2370 0d46 CD000000 		.4byte	.LLST9
 2371 0d4a C9000000 		.4byte	.LVUS9
 2372 0d4e 12       		.uleb128 0x12
 2373 0d4f B7100000 		.4byte	0x10b7
 2374 0d53 00000000 		.4byte	.LBI60
 2375 0d57 05       		.byte	.LVU93
 2376 0d58 0C000000 		.4byte	.LLRL10
 2377 0d5c 01       		.byte	0x1
 2378 0d5d C3       		.byte	0xc3
 2379 0d5e 08       		.byte	0x8
 2380 0d5f 140E0000 		.4byte	0xe14
 2381 0d63 18       		.uleb128 0x18
 2382 0d64 0C000000 		.4byte	.LLRL10
 2383 0d68 25       		.uleb128 0x25
 2384 0d69 C6100000 		.4byte	0x10c6
 2385 0d6d DF000000 		.4byte	.LLST11
 2386 0d71 DD000000 		.4byte	.LVUS11
 2387 0d75 12       		.uleb128 0x12
 2388 0d76 FF100000 		.4byte	0x10ff
 2389 0d7a 00000000 		.4byte	.LBI62
 2390 0d7e 08       		.byte	.LVU96
 2391 0d7f 18000000 		.4byte	.LLRL12
 2392 0d83 02       		.byte	0x2
 2393 0d84 62       		.byte	0x62
 2394 0d85 03       		.byte	0x3
ARM GAS  C:\Users\DEVELO~1\AppData\Local\Temp\ccmtuCvA.s 			page 43


 2395 0d86 BC0D0000 		.4byte	0xdbc
 2396 0d8a 0C       		.uleb128 0xc
 2397 0d8b 11110000 		.4byte	0x1111
 2398 0d8f 00000000 		.4byte	.LBI63
 2399 0d93 0A       		.byte	.LVU98
 2400 0d94 18000000 		.4byte	.LLRL12
 2401 0d98 03       		.byte	0x3
 2402 0d99 7601     		.2byte	0x176
 2403 0d9b 0C       		.uleb128 0xc
 2404 0d9c 1A110000 		.4byte	0x111a
 2405 0da0 00000000 		.4byte	.LBI64
 2406 0da4 0C       		.byte	.LVU100
 2407 0da5 18000000 		.4byte	.LLRL12
 2408 0da9 04       		.byte	0x4
 2409 0daa 5003     		.2byte	0x350
 2410 0dac 0F       		.uleb128 0xf
 2411 0dad 24110000 		.4byte	0x1124
 2412 0db1 EA000000 		.4byte	.LLST13
 2413 0db5 E8000000 		.4byte	.LVUS13
 2414 0db9 00       		.byte	0
 2415 0dba 00       		.byte	0
 2416 0dbb 00       		.byte	0
 2417 0dbc 12       		.uleb128 0x12
 2418 0dbd D2100000 		.4byte	0x10d2
 2419 0dc1 10000000 		.4byte	.LBI70
 2420 0dc5 01       		.byte	.LVU112
 2421 0dc6 24000000 		.4byte	.LLRL14
 2422 0dca 02       		.byte	0x2
 2423 0dcb 64       		.byte	0x64
 2424 0dcc 03       		.byte	0x3
 2425 0dcd 090E0000 		.4byte	0xe09
 2426 0dd1 18       		.uleb128 0x18
 2427 0dd2 24000000 		.4byte	.LLRL14
 2428 0dd6 0C       		.uleb128 0xc
 2429 0dd7 08110000 		.4byte	0x1108
 2430 0ddb 10000000 		.4byte	.LBI72
 2431 0ddf 08       		.byte	.LVU119
 2432 0de0 24000000 		.4byte	.LLRL14
 2433 0de4 03       		.byte	0x3
 2434 0de5 8F01     		.2byte	0x18f
 2435 0de7 0C       		.uleb128 0xc
 2436 0de8 1A110000 		.4byte	0x111a
 2437 0dec 10000000 		.4byte	.LBI73
 2438 0df0 0A       		.byte	.LVU121
 2439 0df1 24000000 		.4byte	.LLRL14
 2440 0df5 04       		.byte	0x4
 2441 0df6 6303     		.2byte	0x363
 2442 0df8 0F       		.uleb128 0xf
 2443 0df9 24110000 		.4byte	0x1124
 2444 0dfd F7000000 		.4byte	.LLST15
 2445 0e01 F5000000 		.4byte	.LVUS15
 2446 0e05 00       		.byte	0
 2447 0e06 00       		.byte	0
 2448 0e07 00       		.byte	0
 2449 0e08 00       		.byte	0
 2450 0e09 36       		.uleb128 0x36
 2451 0e0a 0C000000 		.4byte	.LVL20
ARM GAS  C:\Users\DEVELO~1\AppData\Local\Temp\ccmtuCvA.s 			page 44


 2452 0e0e 480B0000 		.4byte	0xb48
 2453 0e12 00       		.byte	0
 2454 0e13 00       		.byte	0
 2455 0e14 26       		.uleb128 0x26
 2456 0e15 57100000 		.4byte	0x1057
 2457 0e19 14000000 		.4byte	.LBI82
 2458 0e1d 04       		.byte	.LVU127
 2459 0e1e 14000000 		.4byte	.LBB82
 2460 0e22 00000000 		.4byte	.LBE82-.LBB82
 2461 0e26 C4       		.byte	0xc4
 2462 0e27 390E0000 		.4byte	0xe39
 2463 0e2b 0F       		.uleb128 0xf
 2464 0e2c 66100000 		.4byte	0x1066
 2465 0e30 03010000 		.4byte	.LLST16
 2466 0e34 01010000 		.4byte	.LVUS16
 2467 0e38 00       		.byte	0
 2468 0e39 37       		.uleb128 0x37
 2469 0e3a 28000000 		.4byte	.LVL29
 2470 0e3e 540B0000 		.4byte	0xb54
 2471 0e42 00       		.byte	0
 2472 0e43 38       		.uleb128 0x38
 2473 0e44 C3040000 		.4byte	.LASF141
 2474 0e48 01       		.byte	0x1
 2475 0e49 9E       		.byte	0x9e
 2476 0e4a 07       		.byte	0x7
 2477 0e4b 38010000 		.4byte	0x138
 2478 0e4f 00000000 		.4byte	.LFB357
 2479 0e53 24000000 		.4byte	.LFE357-.LFB357
 2480 0e57 01       		.uleb128 0x1
 2481 0e58 9C       		.byte	0x9c
 2482 0e59 C70E0000 		.4byte	0xec7
 2483 0e5d 39       		.uleb128 0x39
 2484 0e5e 747000   		.ascii	"tp\000"
 2485 0e61 01       		.byte	0x1
 2486 0e62 9E       		.byte	0x9e
 2487 0e63 26       		.byte	0x26
 2488 0e64 B6030000 		.4byte	0x3b6
 2489 0e68 10010000 		.4byte	.LLST5
 2490 0e6c 0C010000 		.4byte	.LVUS5
 2491 0e70 3A       		.uleb128 0x3a
 2492 0e71 B2010000 		.4byte	.LASF135
 2493 0e75 01       		.byte	0x1
 2494 0e76 9E       		.byte	0x9e
 2495 0e77 3C       		.byte	0x3c
 2496 0e78 250A0000 		.4byte	0xa25
 2497 0e7c 02       		.uleb128 0x2
 2498 0e7d 91       		.byte	0x91
 2499 0e7e 74       		.sleb128 -12
 2500 0e7f 3B       		.uleb128 0x3b
 2501 0e80 3C       		.uleb128 0x3c
 2502 0e81 BF070000 		.4byte	.LASF143
 2503 0e85 01       		.byte	0x1
 2504 0e86 9F       		.byte	0x9f
 2505 0e87 0B       		.byte	0xb
 2506 0e88 190A0000 		.4byte	0xa19
 2507 0e8c 02       		.uleb128 0x2
 2508 0e8d 91       		.byte	0x91
ARM GAS  C:\Users\DEVELO~1\AppData\Local\Temp\ccmtuCvA.s 			page 45


 2509 0e8e 5C       		.sleb128 -36
 2510 0e8f 09       		.uleb128 0x9
 2511 0e90 636D00   		.ascii	"cm\000"
 2512 0e93 A0       		.byte	0xa0
 2513 0e94 12       		.byte	0x12
 2514 0e95 220B0000 		.4byte	0xb22
 2515 0e99 02       		.uleb128 0x2
 2516 0e9a 91       		.byte	0x91
 2517 0e9b 60       		.sleb128 -32
 2518 0e9c 0E       		.uleb128 0xe
 2519 0e9d 6D736700 		.ascii	"msg\000"
 2520 0ea1 A1       		.byte	0xa1
 2521 0ea2 09       		.byte	0x9
 2522 0ea3 38010000 		.4byte	0x138
 2523 0ea7 25010000 		.4byte	.LLST6
 2524 0eab 23010000 		.4byte	.LVUS6
 2525 0eaf 1E       		.uleb128 0x1e
 2526 0eb0 1A000000 		.4byte	.LVL17
 2527 0eb4 6B0B0000 		.4byte	0xb6b
 2528 0eb8 19       		.uleb128 0x19
 2529 0eb9 01       		.uleb128 0x1
 2530 0eba 50       		.byte	0x50
 2531 0ebb 03       		.uleb128 0x3
 2532 0ebc A3       		.byte	0xa3
 2533 0ebd 01       		.uleb128 0x1
 2534 0ebe 50       		.byte	0x50
 2535 0ebf 19       		.uleb128 0x19
 2536 0ec0 01       		.uleb128 0x1
 2537 0ec1 51       		.byte	0x51
 2538 0ec2 02       		.uleb128 0x2
 2539 0ec3 91       		.byte	0x91
 2540 0ec4 48       		.sleb128 -56
 2541 0ec5 00       		.byte	0
 2542 0ec6 00       		.byte	0
 2543 0ec7 16       		.uleb128 0x16
 2544 0ec8 13040000 		.4byte	.LASF145
 2545 0ecc 8A       		.byte	0x8a
 2546 0ecd 38010000 		.4byte	0x138
 2547 0ed1 00000000 		.4byte	.LFB356
 2548 0ed5 24000000 		.4byte	.LFE356-.LFB356
 2549 0ed9 01       		.uleb128 0x1
 2550 0eda 9C       		.byte	0x9c
 2551 0edb 2F0F0000 		.4byte	0xf2f
 2552 0edf 11       		.uleb128 0x11
 2553 0ee0 1F050000 		.4byte	.LASF136
 2554 0ee4 8A       		.byte	0x8a
 2555 0ee5 22       		.byte	0x22
 2556 0ee6 450A0000 		.4byte	0xa45
 2557 0eea 34010000 		.4byte	.LLST4
 2558 0eee 2E010000 		.4byte	.LVUS4
 2559 0ef2 09       		.uleb128 0x9
 2560 0ef3 666E3400 		.ascii	"fn4\000"
 2561 0ef7 8B       		.byte	0x8b
 2562 0ef8 12       		.byte	0x12
 2563 0ef9 CF0A0000 		.4byte	0xacf
 2564 0efd 01       		.uleb128 0x1
 2565 0efe 54       		.byte	0x54
ARM GAS  C:\Users\DEVELO~1\AppData\Local\Temp\ccmtuCvA.s 			page 46


 2566 0eff 09       		.uleb128 0x9
 2567 0f00 703100   		.ascii	"p1\000"
 2568 0f03 8C       		.byte	0x8c
 2569 0f04 09       		.byte	0x9
 2570 0f05 38010000 		.4byte	0x138
 2571 0f09 01       		.uleb128 0x1
 2572 0f0a 50       		.byte	0x50
 2573 0f0b 09       		.uleb128 0x9
 2574 0f0c 703200   		.ascii	"p2\000"
 2575 0f0f 8D       		.byte	0x8d
 2576 0f10 09       		.byte	0x9
 2577 0f11 38010000 		.4byte	0x138
 2578 0f15 01       		.uleb128 0x1
 2579 0f16 51       		.byte	0x51
 2580 0f17 09       		.uleb128 0x9
 2581 0f18 703300   		.ascii	"p3\000"
 2582 0f1b 8E       		.byte	0x8e
 2583 0f1c 09       		.byte	0x9
 2584 0f1d 38010000 		.4byte	0x138
 2585 0f21 01       		.uleb128 0x1
 2586 0f22 52       		.byte	0x52
 2587 0f23 10       		.uleb128 0x10
 2588 0f24 703400   		.ascii	"p4\000"
 2589 0f27 01       		.byte	0x1
 2590 0f28 8F       		.byte	0x8f
 2591 0f29 09       		.byte	0x9
 2592 0f2a 38010000 		.4byte	0x138
 2593 0f2e 00       		.byte	0
 2594 0f2f 16       		.uleb128 0x16
 2595 0f30 51070000 		.4byte	.LASF146
 2596 0f34 7C       		.byte	0x7c
 2597 0f35 38010000 		.4byte	0x138
 2598 0f39 00000000 		.4byte	.LFB355
 2599 0f3d 1E000000 		.4byte	.LFE355-.LFB355
 2600 0f41 01       		.uleb128 0x1
 2601 0f42 9C       		.byte	0x9c
 2602 0f43 8B0F0000 		.4byte	0xf8b
 2603 0f47 11       		.uleb128 0x11
 2604 0f48 1F050000 		.4byte	.LASF136
 2605 0f4c 7C       		.byte	0x7c
 2606 0f4d 22       		.byte	0x22
 2607 0f4e 450A0000 		.4byte	0xa45
 2608 0f52 52010000 		.4byte	.LLST3
 2609 0f56 4C010000 		.4byte	.LVUS3
 2610 0f5a 09       		.uleb128 0x9
 2611 0f5b 666E3300 		.ascii	"fn3\000"
 2612 0f5f 7D       		.byte	0x7d
 2613 0f60 12       		.byte	0x12
 2614 0f61 A50A0000 		.4byte	0xaa5
 2615 0f65 01       		.uleb128 0x1
 2616 0f66 54       		.byte	0x54
 2617 0f67 09       		.uleb128 0x9
 2618 0f68 703100   		.ascii	"p1\000"
 2619 0f6b 7E       		.byte	0x7e
 2620 0f6c 09       		.byte	0x9
 2621 0f6d 38010000 		.4byte	0x138
 2622 0f71 01       		.uleb128 0x1
ARM GAS  C:\Users\DEVELO~1\AppData\Local\Temp\ccmtuCvA.s 			page 47


 2623 0f72 50       		.byte	0x50
 2624 0f73 09       		.uleb128 0x9
 2625 0f74 703200   		.ascii	"p2\000"
 2626 0f77 7F       		.byte	0x7f
 2627 0f78 09       		.byte	0x9
 2628 0f79 38010000 		.4byte	0x138
 2629 0f7d 01       		.uleb128 0x1
 2630 0f7e 51       		.byte	0x51
 2631 0f7f 10       		.uleb128 0x10
 2632 0f80 703300   		.ascii	"p3\000"
 2633 0f83 01       		.byte	0x1
 2634 0f84 80       		.byte	0x80
 2635 0f85 09       		.byte	0x9
 2636 0f86 38010000 		.4byte	0x138
 2637 0f8a 00       		.byte	0
 2638 0f8b 16       		.uleb128 0x16
 2639 0f8c 3F070000 		.4byte	.LASF147
 2640 0f90 6F       		.byte	0x6f
 2641 0f91 38010000 		.4byte	0x138
 2642 0f95 00000000 		.4byte	.LFB354
 2643 0f99 1E000000 		.4byte	.LFE354-.LFB354
 2644 0f9d 01       		.uleb128 0x1
 2645 0f9e 9C       		.byte	0x9c
 2646 0f9f DB0F0000 		.4byte	0xfdb
 2647 0fa3 11       		.uleb128 0x11
 2648 0fa4 1F050000 		.4byte	.LASF136
 2649 0fa8 6F       		.byte	0x6f
 2650 0fa9 22       		.byte	0x22
 2651 0faa 450A0000 		.4byte	0xa45
 2652 0fae 70010000 		.4byte	.LLST2
 2653 0fb2 6A010000 		.4byte	.LVUS2
 2654 0fb6 09       		.uleb128 0x9
 2655 0fb7 666E3200 		.ascii	"fn2\000"
 2656 0fbb 70       		.byte	0x70
 2657 0fbc 12       		.byte	0x12
 2658 0fbd 800A0000 		.4byte	0xa80
 2659 0fc1 01       		.uleb128 0x1
 2660 0fc2 54       		.byte	0x54
 2661 0fc3 09       		.uleb128 0x9
 2662 0fc4 703100   		.ascii	"p1\000"
 2663 0fc7 71       		.byte	0x71
 2664 0fc8 09       		.byte	0x9
 2665 0fc9 38010000 		.4byte	0x138
 2666 0fcd 01       		.uleb128 0x1
 2667 0fce 50       		.byte	0x50
 2668 0fcf 10       		.uleb128 0x10
 2669 0fd0 703200   		.ascii	"p2\000"
 2670 0fd3 01       		.byte	0x1
 2671 0fd4 72       		.byte	0x72
 2672 0fd5 09       		.byte	0x9
 2673 0fd6 38010000 		.4byte	0x138
 2674 0fda 00       		.byte	0
 2675 0fdb 16       		.uleb128 0x16
 2676 0fdc 51010000 		.4byte	.LASF148
 2677 0fe0 63       		.byte	0x63
 2678 0fe1 38010000 		.4byte	0x138
 2679 0fe5 00000000 		.4byte	.LFB353
ARM GAS  C:\Users\DEVELO~1\AppData\Local\Temp\ccmtuCvA.s 			page 48


 2680 0fe9 12000000 		.4byte	.LFE353-.LFB353
 2681 0fed 01       		.uleb128 0x1
 2682 0fee 9C       		.byte	0x9c
 2683 0fef 1F100000 		.4byte	0x101f
 2684 0ff3 11       		.uleb128 0x11
 2685 0ff4 1F050000 		.4byte	.LASF136
 2686 0ff8 63       		.byte	0x63
 2687 0ff9 22       		.byte	0x22
 2688 0ffa 450A0000 		.4byte	0xa45
 2689 0ffe 8E010000 		.4byte	.LLST1
 2690 1002 88010000 		.4byte	.LVUS1
 2691 1006 09       		.uleb128 0x9
 2692 1007 666E3100 		.ascii	"fn1\000"
 2693 100b 64       		.byte	0x64
 2694 100c 12       		.byte	0x12
 2695 100d 600A0000 		.4byte	0xa60
 2696 1011 01       		.uleb128 0x1
 2697 1012 51       		.byte	0x51
 2698 1013 10       		.uleb128 0x10
 2699 1014 703100   		.ascii	"p1\000"
 2700 1017 01       		.byte	0x1
 2701 1018 65       		.byte	0x65
 2702 1019 09       		.byte	0x9
 2703 101a 38010000 		.4byte	0x138
 2704 101e 00       		.byte	0
 2705 101f 16       		.uleb128 0x16
 2706 1020 27070000 		.4byte	.LASF149
 2707 1024 58       		.byte	0x58
 2708 1025 38010000 		.4byte	0x138
 2709 1029 00000000 		.4byte	.LFB352
 2710 102d 0A000000 		.4byte	.LFE352-.LFB352
 2711 1031 01       		.uleb128 0x1
 2712 1032 9C       		.byte	0x9c
 2713 1033 57100000 		.4byte	0x1057
 2714 1037 11       		.uleb128 0x11
 2715 1038 1F050000 		.4byte	.LASF136
 2716 103c 58       		.byte	0x58
 2717 103d 22       		.byte	0x22
 2718 103e 450A0000 		.4byte	0xa45
 2719 1042 AA010000 		.4byte	.LLST0
 2720 1046 A6010000 		.4byte	.LVUS0
 2721 104a 10       		.uleb128 0x10
 2722 104b 666E3000 		.ascii	"fn0\000"
 2723 104f 01       		.byte	0x1
 2724 1050 59       		.byte	0x59
 2725 1051 12       		.byte	0x12
 2726 1052 4A0A0000 		.4byte	0xa4a
 2727 1056 00       		.byte	0
 2728 1057 1F       		.uleb128 0x1f
 2729 1058 9B020000 		.4byte	.LASF150
 2730 105c BD       		.byte	0xbd
 2731 105d 15       		.byte	0x15
 2732 105e 38010000 		.4byte	0x138
 2733 1062 7B100000 		.4byte	0x107b
 2734 1066 3D       		.uleb128 0x3d
 2735 1067 747000   		.ascii	"tp\000"
 2736 106a 02       		.byte	0x2
ARM GAS  C:\Users\DEVELO~1\AppData\Local\Temp\ccmtuCvA.s 			page 49


 2737 106b BD       		.byte	0xbd
 2738 106c 28       		.byte	0x28
 2739 106d B6030000 		.4byte	0x3b6
 2740 1071 27       		.uleb128 0x27
 2741 1072 B2050000 		.4byte	.LASF153
 2742 1076 8B100000 		.4byte	0x108b
 2743 107a 00       		.byte	0
 2744 107b 1C       		.uleb128 0x1c
 2745 107c 69030000 		.4byte	0x369
 2746 1080 8B100000 		.4byte	0x108b
 2747 1084 1D       		.uleb128 0x1d
 2748 1085 2D000000 		.4byte	0x2d
 2749 1089 08       		.byte	0x8
 2750 108a 00       		.byte	0
 2751 108b 13       		.uleb128 0x13
 2752 108c 7B100000 		.4byte	0x107b
 2753 1090 1F       		.uleb128 0x1f
 2754 1091 90070000 		.4byte	.LASF151
 2755 1095 7F       		.byte	0x7f
 2756 1096 19       		.byte	0x19
 2757 1097 B6030000 		.4byte	0x3b6
 2758 109b B7100000 		.4byte	0x10b7
 2759 109f 3E       		.uleb128 0x3e
 2760 10a0 A4020000 		.4byte	.LASF142
 2761 10a4 02       		.byte	0x2
 2762 10a5 7F       		.byte	0x7f
 2763 10a6 38       		.byte	0x38
 2764 10a7 86030000 		.4byte	0x386
 2765 10ab 10       		.uleb128 0x10
 2766 10ac 747000   		.ascii	"tp\000"
 2767 10af 02       		.byte	0x2
 2768 10b0 80       		.byte	0x80
 2769 10b1 0D       		.byte	0xd
 2770 10b2 B6030000 		.4byte	0x3b6
 2771 10b6 00       		.byte	0
 2772 10b7 1F       		.uleb128 0x1f
 2773 10b8 F3060000 		.4byte	.LASF152
 2774 10bc 5F       		.byte	0x5f
 2775 10bd 19       		.byte	0x19
 2776 10be B6030000 		.4byte	0x3b6
 2777 10c2 D2100000 		.4byte	0x10d2
 2778 10c6 10       		.uleb128 0x10
 2779 10c7 747000   		.ascii	"tp\000"
 2780 10ca 02       		.byte	0x2
 2781 10cb 60       		.byte	0x60
 2782 10cc 0D       		.byte	0xd
 2783 10cd B6030000 		.4byte	0x3b6
 2784 10d1 00       		.byte	0
 2785 10d2 3F       		.uleb128 0x3f
 2786 10d3 AE070000 		.4byte	.LASF165
 2787 10d7 03       		.byte	0x3
 2788 10d8 8201     		.2byte	0x182
 2789 10da 14       		.byte	0x14
 2790 10db 03       		.byte	0x3
 2791 10dc EA100000 		.4byte	0x10ea
 2792 10e0 27       		.uleb128 0x27
 2793 10e1 B2050000 		.4byte	.LASF153
ARM GAS  C:\Users\DEVELO~1\AppData\Local\Temp\ccmtuCvA.s 			page 50


 2794 10e5 FA100000 		.4byte	0x10fa
 2795 10e9 00       		.byte	0
 2796 10ea 1C       		.uleb128 0x1c
 2797 10eb 69030000 		.4byte	0x369
 2798 10ef FA100000 		.4byte	0x10fa
 2799 10f3 1D       		.uleb128 0x1d
 2800 10f4 2D000000 		.4byte	0x2d
 2801 10f8 0B       		.byte	0xb
 2802 10f9 00       		.byte	0
 2803 10fa 13       		.uleb128 0x13
 2804 10fb EA100000 		.4byte	0x10ea
 2805 10ff 20       		.uleb128 0x20
 2806 1100 BB050000 		.4byte	.LASF154
 2807 1104 03       		.byte	0x3
 2808 1105 7401     		.2byte	0x174
 2809 1107 14       		.byte	0x14
 2810 1108 20       		.uleb128 0x20
 2811 1109 28020000 		.4byte	.LASF155
 2812 110d 04       		.byte	0x4
 2813 110e 6003     		.2byte	0x360
 2814 1110 1B       		.byte	0x1b
 2815 1111 20       		.uleb128 0x20
 2816 1112 C4070000 		.4byte	.LASF156
 2817 1116 04       		.byte	0x4
 2818 1117 4803     		.2byte	0x348
 2819 1119 1B       		.byte	0x1b
 2820 111a 40       		.uleb128 0x40
 2821 111b 5B040000 		.4byte	.LASF166
 2822 111f 05       		.byte	0x5
 2823 1120 EB01     		.2byte	0x1eb
 2824 1122 1B       		.byte	0x1b
 2825 1123 03       		.byte	0x3
 2826 1124 41       		.uleb128 0x41
 2827 1125 17010000 		.4byte	.LASF157
 2828 1129 05       		.byte	0x5
 2829 112a EB01     		.2byte	0x1eb
 2830 112c 32       		.byte	0x32
 2831 112d D3000000 		.4byte	0xd3
 2832 1131 00       		.byte	0
 2833 1132 00       		.byte	0
 2834              		.section	.debug_abbrev,"",%progbits
 2835              	.Ldebug_abbrev0:
 2836 0000 01       		.uleb128 0x1
 2837 0001 16       		.uleb128 0x16
 2838 0002 00       		.byte	0
 2839 0003 03       		.uleb128 0x3
 2840 0004 0E       		.uleb128 0xe
 2841 0005 3A       		.uleb128 0x3a
 2842 0006 0B       		.uleb128 0xb
 2843 0007 3B       		.uleb128 0x3b
 2844 0008 0B       		.uleb128 0xb
 2845 0009 39       		.uleb128 0x39
 2846 000a 0B       		.uleb128 0xb
 2847 000b 49       		.uleb128 0x49
 2848 000c 13       		.uleb128 0x13
 2849 000d 00       		.byte	0
 2850 000e 00       		.byte	0
ARM GAS  C:\Users\DEVELO~1\AppData\Local\Temp\ccmtuCvA.s 			page 51


 2851 000f 02       		.uleb128 0x2
 2852 0010 0D       		.uleb128 0xd
 2853 0011 00       		.byte	0
 2854 0012 03       		.uleb128 0x3
 2855 0013 0E       		.uleb128 0xe
 2856 0014 3A       		.uleb128 0x3a
 2857 0015 0B       		.uleb128 0xb
 2858 0016 3B       		.uleb128 0x3b
 2859 0017 0B       		.uleb128 0xb
 2860 0018 39       		.uleb128 0x39
 2861 0019 0B       		.uleb128 0xb
 2862 001a 49       		.uleb128 0x49
 2863 001b 13       		.uleb128 0x13
 2864 001c 38       		.uleb128 0x38
 2865 001d 0B       		.uleb128 0xb
 2866 001e 00       		.byte	0
 2867 001f 00       		.byte	0
 2868 0020 03       		.uleb128 0x3
 2869 0021 0D       		.uleb128 0xd
 2870 0022 00       		.byte	0
 2871 0023 03       		.uleb128 0x3
 2872 0024 08       		.uleb128 0x8
 2873 0025 3A       		.uleb128 0x3a
 2874 0026 0B       		.uleb128 0xb
 2875 0027 3B       		.uleb128 0x3b
 2876 0028 05       		.uleb128 0x5
 2877 0029 39       		.uleb128 0x39
 2878 002a 0B       		.uleb128 0xb
 2879 002b 49       		.uleb128 0x49
 2880 002c 13       		.uleb128 0x13
 2881 002d 38       		.uleb128 0x38
 2882 002e 0B       		.uleb128 0xb
 2883 002f 00       		.byte	0
 2884 0030 00       		.byte	0
 2885 0031 04       		.uleb128 0x4
 2886 0032 0F       		.uleb128 0xf
 2887 0033 00       		.byte	0
 2888 0034 0B       		.uleb128 0xb
 2889 0035 21       		.uleb128 0x21
 2890 0036 04       		.sleb128 4
 2891 0037 49       		.uleb128 0x49
 2892 0038 13       		.uleb128 0x13
 2893 0039 00       		.byte	0
 2894 003a 00       		.byte	0
 2895 003b 05       		.uleb128 0x5
 2896 003c 0D       		.uleb128 0xd
 2897 003d 00       		.byte	0
 2898 003e 03       		.uleb128 0x3
 2899 003f 0E       		.uleb128 0xe
 2900 0040 3A       		.uleb128 0x3a
 2901 0041 21       		.uleb128 0x21
 2902 0042 0A       		.sleb128 10
 2903 0043 3B       		.uleb128 0x3b
 2904 0044 05       		.uleb128 0x5
 2905 0045 39       		.uleb128 0x39
 2906 0046 0B       		.uleb128 0xb
 2907 0047 49       		.uleb128 0x49
ARM GAS  C:\Users\DEVELO~1\AppData\Local\Temp\ccmtuCvA.s 			page 52


 2908 0048 13       		.uleb128 0x13
 2909 0049 38       		.uleb128 0x38
 2910 004a 0B       		.uleb128 0xb
 2911 004b 00       		.byte	0
 2912 004c 00       		.byte	0
 2913 004d 06       		.uleb128 0x6
 2914 004e 05       		.uleb128 0x5
 2915 004f 00       		.byte	0
 2916 0050 49       		.uleb128 0x49
 2917 0051 13       		.uleb128 0x13
 2918 0052 00       		.byte	0
 2919 0053 00       		.byte	0
 2920 0054 07       		.uleb128 0x7
 2921 0055 24       		.uleb128 0x24
 2922 0056 00       		.byte	0
 2923 0057 0B       		.uleb128 0xb
 2924 0058 0B       		.uleb128 0xb
 2925 0059 3E       		.uleb128 0x3e
 2926 005a 0B       		.uleb128 0xb
 2927 005b 03       		.uleb128 0x3
 2928 005c 0E       		.uleb128 0xe
 2929 005d 00       		.byte	0
 2930 005e 00       		.byte	0
 2931 005f 08       		.uleb128 0x8
 2932 0060 13       		.uleb128 0x13
 2933 0061 01       		.byte	0x1
 2934 0062 03       		.uleb128 0x3
 2935 0063 0E       		.uleb128 0xe
 2936 0064 0B       		.uleb128 0xb
 2937 0065 0B       		.uleb128 0xb
 2938 0066 3A       		.uleb128 0x3a
 2939 0067 0B       		.uleb128 0xb
 2940 0068 3B       		.uleb128 0x3b
 2941 0069 0B       		.uleb128 0xb
 2942 006a 39       		.uleb128 0x39
 2943 006b 0B       		.uleb128 0xb
 2944 006c 01       		.uleb128 0x1
 2945 006d 13       		.uleb128 0x13
 2946 006e 00       		.byte	0
 2947 006f 00       		.byte	0
 2948 0070 09       		.uleb128 0x9
 2949 0071 34       		.uleb128 0x34
 2950 0072 00       		.byte	0
 2951 0073 03       		.uleb128 0x3
 2952 0074 08       		.uleb128 0x8
 2953 0075 3A       		.uleb128 0x3a
 2954 0076 21       		.uleb128 0x21
 2955 0077 01       		.sleb128 1
 2956 0078 3B       		.uleb128 0x3b
 2957 0079 0B       		.uleb128 0xb
 2958 007a 39       		.uleb128 0x39
 2959 007b 0B       		.uleb128 0xb
 2960 007c 49       		.uleb128 0x49
 2961 007d 13       		.uleb128 0x13
 2962 007e 02       		.uleb128 0x2
 2963 007f 18       		.uleb128 0x18
 2964 0080 00       		.byte	0
ARM GAS  C:\Users\DEVELO~1\AppData\Local\Temp\ccmtuCvA.s 			page 53


 2965 0081 00       		.byte	0
 2966 0082 0A       		.uleb128 0xa
 2967 0083 0D       		.uleb128 0xd
 2968 0084 00       		.byte	0
 2969 0085 03       		.uleb128 0x3
 2970 0086 08       		.uleb128 0x8
 2971 0087 3A       		.uleb128 0x3a
 2972 0088 0B       		.uleb128 0xb
 2973 0089 3B       		.uleb128 0x3b
 2974 008a 0B       		.uleb128 0xb
 2975 008b 39       		.uleb128 0x39
 2976 008c 0B       		.uleb128 0xb
 2977 008d 49       		.uleb128 0x49
 2978 008e 13       		.uleb128 0x13
 2979 008f 38       		.uleb128 0x38
 2980 0090 0B       		.uleb128 0xb
 2981 0091 00       		.byte	0
 2982 0092 00       		.byte	0
 2983 0093 0B       		.uleb128 0xb
 2984 0094 0D       		.uleb128 0xd
 2985 0095 00       		.byte	0
 2986 0096 03       		.uleb128 0x3
 2987 0097 0E       		.uleb128 0xe
 2988 0098 3A       		.uleb128 0x3a
 2989 0099 21       		.uleb128 0x21
 2990 009a 0A       		.sleb128 10
 2991 009b 3B       		.uleb128 0x3b
 2992 009c 05       		.uleb128 0x5
 2993 009d 39       		.uleb128 0x39
 2994 009e 0B       		.uleb128 0xb
 2995 009f 49       		.uleb128 0x49
 2996 00a0 13       		.uleb128 0x13
 2997 00a1 00       		.byte	0
 2998 00a2 00       		.byte	0
 2999 00a3 0C       		.uleb128 0xc
 3000 00a4 1D       		.uleb128 0x1d
 3001 00a5 01       		.byte	0x1
 3002 00a6 31       		.uleb128 0x31
 3003 00a7 13       		.uleb128 0x13
 3004 00a8 52       		.uleb128 0x52
 3005 00a9 01       		.uleb128 0x1
 3006 00aa B842     		.uleb128 0x2138
 3007 00ac 0B       		.uleb128 0xb
 3008 00ad 55       		.uleb128 0x55
 3009 00ae 17       		.uleb128 0x17
 3010 00af 58       		.uleb128 0x58
 3011 00b0 0B       		.uleb128 0xb
 3012 00b1 59       		.uleb128 0x59
 3013 00b2 05       		.uleb128 0x5
 3014 00b3 57       		.uleb128 0x57
 3015 00b4 21       		.uleb128 0x21
 3016 00b5 03       		.sleb128 3
 3017 00b6 00       		.byte	0
 3018 00b7 00       		.byte	0
 3019 00b8 0D       		.uleb128 0xd
 3020 00b9 13       		.uleb128 0x13
 3021 00ba 01       		.byte	0x1
ARM GAS  C:\Users\DEVELO~1\AppData\Local\Temp\ccmtuCvA.s 			page 54


 3022 00bb 0B       		.uleb128 0xb
 3023 00bc 0B       		.uleb128 0xb
 3024 00bd 3A       		.uleb128 0x3a
 3025 00be 0B       		.uleb128 0xb
 3026 00bf 3B       		.uleb128 0x3b
 3027 00c0 0B       		.uleb128 0xb
 3028 00c1 39       		.uleb128 0x39
 3029 00c2 0B       		.uleb128 0xb
 3030 00c3 01       		.uleb128 0x1
 3031 00c4 13       		.uleb128 0x13
 3032 00c5 00       		.byte	0
 3033 00c6 00       		.byte	0
 3034 00c7 0E       		.uleb128 0xe
 3035 00c8 34       		.uleb128 0x34
 3036 00c9 00       		.byte	0
 3037 00ca 03       		.uleb128 0x3
 3038 00cb 08       		.uleb128 0x8
 3039 00cc 3A       		.uleb128 0x3a
 3040 00cd 21       		.uleb128 0x21
 3041 00ce 01       		.sleb128 1
 3042 00cf 3B       		.uleb128 0x3b
 3043 00d0 0B       		.uleb128 0xb
 3044 00d1 39       		.uleb128 0x39
 3045 00d2 0B       		.uleb128 0xb
 3046 00d3 49       		.uleb128 0x49
 3047 00d4 13       		.uleb128 0x13
 3048 00d5 02       		.uleb128 0x2
 3049 00d6 17       		.uleb128 0x17
 3050 00d7 B742     		.uleb128 0x2137
 3051 00d9 17       		.uleb128 0x17
 3052 00da 00       		.byte	0
 3053 00db 00       		.byte	0
 3054 00dc 0F       		.uleb128 0xf
 3055 00dd 05       		.uleb128 0x5
 3056 00de 00       		.byte	0
 3057 00df 31       		.uleb128 0x31
 3058 00e0 13       		.uleb128 0x13
 3059 00e1 02       		.uleb128 0x2
 3060 00e2 17       		.uleb128 0x17
 3061 00e3 B742     		.uleb128 0x2137
 3062 00e5 17       		.uleb128 0x17
 3063 00e6 00       		.byte	0
 3064 00e7 00       		.byte	0
 3065 00e8 10       		.uleb128 0x10
 3066 00e9 34       		.uleb128 0x34
 3067 00ea 00       		.byte	0
 3068 00eb 03       		.uleb128 0x3
 3069 00ec 08       		.uleb128 0x8
 3070 00ed 3A       		.uleb128 0x3a
 3071 00ee 0B       		.uleb128 0xb
 3072 00ef 3B       		.uleb128 0x3b
 3073 00f0 0B       		.uleb128 0xb
 3074 00f1 39       		.uleb128 0x39
 3075 00f2 0B       		.uleb128 0xb
 3076 00f3 49       		.uleb128 0x49
 3077 00f4 13       		.uleb128 0x13
 3078 00f5 00       		.byte	0
ARM GAS  C:\Users\DEVELO~1\AppData\Local\Temp\ccmtuCvA.s 			page 55


 3079 00f6 00       		.byte	0
 3080 00f7 11       		.uleb128 0x11
 3081 00f8 05       		.uleb128 0x5
 3082 00f9 00       		.byte	0
 3083 00fa 03       		.uleb128 0x3
 3084 00fb 0E       		.uleb128 0xe
 3085 00fc 3A       		.uleb128 0x3a
 3086 00fd 21       		.uleb128 0x21
 3087 00fe 01       		.sleb128 1
 3088 00ff 3B       		.uleb128 0x3b
 3089 0100 0B       		.uleb128 0xb
 3090 0101 39       		.uleb128 0x39
 3091 0102 0B       		.uleb128 0xb
 3092 0103 49       		.uleb128 0x49
 3093 0104 13       		.uleb128 0x13
 3094 0105 02       		.uleb128 0x2
 3095 0106 17       		.uleb128 0x17
 3096 0107 B742     		.uleb128 0x2137
 3097 0109 17       		.uleb128 0x17
 3098 010a 00       		.byte	0
 3099 010b 00       		.byte	0
 3100 010c 12       		.uleb128 0x12
 3101 010d 1D       		.uleb128 0x1d
 3102 010e 01       		.byte	0x1
 3103 010f 31       		.uleb128 0x31
 3104 0110 13       		.uleb128 0x13
 3105 0111 52       		.uleb128 0x52
 3106 0112 01       		.uleb128 0x1
 3107 0113 B842     		.uleb128 0x2138
 3108 0115 0B       		.uleb128 0xb
 3109 0116 55       		.uleb128 0x55
 3110 0117 17       		.uleb128 0x17
 3111 0118 58       		.uleb128 0x58
 3112 0119 0B       		.uleb128 0xb
 3113 011a 59       		.uleb128 0x59
 3114 011b 0B       		.uleb128 0xb
 3115 011c 57       		.uleb128 0x57
 3116 011d 0B       		.uleb128 0xb
 3117 011e 01       		.uleb128 0x1
 3118 011f 13       		.uleb128 0x13
 3119 0120 00       		.byte	0
 3120 0121 00       		.byte	0
 3121 0122 13       		.uleb128 0x13
 3122 0123 26       		.uleb128 0x26
 3123 0124 00       		.byte	0
 3124 0125 49       		.uleb128 0x49
 3125 0126 13       		.uleb128 0x13
 3126 0127 00       		.byte	0
 3127 0128 00       		.byte	0
 3128 0129 14       		.uleb128 0x14
 3129 012a 0D       		.uleb128 0xd
 3130 012b 00       		.byte	0
 3131 012c 03       		.uleb128 0x3
 3132 012d 0E       		.uleb128 0xe
 3133 012e 3A       		.uleb128 0x3a
 3134 012f 0B       		.uleb128 0xb
 3135 0130 3B       		.uleb128 0x3b
ARM GAS  C:\Users\DEVELO~1\AppData\Local\Temp\ccmtuCvA.s 			page 56


 3136 0131 0B       		.uleb128 0xb
 3137 0132 39       		.uleb128 0x39
 3138 0133 0B       		.uleb128 0xb
 3139 0134 49       		.uleb128 0x49
 3140 0135 13       		.uleb128 0x13
 3141 0136 00       		.byte	0
 3142 0137 00       		.byte	0
 3143 0138 15       		.uleb128 0x15
 3144 0139 15       		.uleb128 0x15
 3145 013a 01       		.byte	0x1
 3146 013b 27       		.uleb128 0x27
 3147 013c 19       		.uleb128 0x19
 3148 013d 49       		.uleb128 0x49
 3149 013e 13       		.uleb128 0x13
 3150 013f 01       		.uleb128 0x1
 3151 0140 13       		.uleb128 0x13
 3152 0141 00       		.byte	0
 3153 0142 00       		.byte	0
 3154 0143 16       		.uleb128 0x16
 3155 0144 2E       		.uleb128 0x2e
 3156 0145 01       		.byte	0x1
 3157 0146 3F       		.uleb128 0x3f
 3158 0147 19       		.uleb128 0x19
 3159 0148 03       		.uleb128 0x3
 3160 0149 0E       		.uleb128 0xe
 3161 014a 3A       		.uleb128 0x3a
 3162 014b 21       		.uleb128 0x21
 3163 014c 01       		.sleb128 1
 3164 014d 3B       		.uleb128 0x3b
 3165 014e 0B       		.uleb128 0xb
 3166 014f 39       		.uleb128 0x39
 3167 0150 21       		.uleb128 0x21
 3168 0151 07       		.sleb128 7
 3169 0152 27       		.uleb128 0x27
 3170 0153 19       		.uleb128 0x19
 3171 0154 49       		.uleb128 0x49
 3172 0155 13       		.uleb128 0x13
 3173 0156 11       		.uleb128 0x11
 3174 0157 01       		.uleb128 0x1
 3175 0158 12       		.uleb128 0x12
 3176 0159 06       		.uleb128 0x6
 3177 015a 40       		.uleb128 0x40
 3178 015b 18       		.uleb128 0x18
 3179 015c 01       		.uleb128 0x1
 3180 015d 13       		.uleb128 0x13
 3181 015e 00       		.byte	0
 3182 015f 00       		.byte	0
 3183 0160 17       		.uleb128 0x17
 3184 0161 13       		.uleb128 0x13
 3185 0162 01       		.byte	0x1
 3186 0163 03       		.uleb128 0x3
 3187 0164 0E       		.uleb128 0xe
 3188 0165 0B       		.uleb128 0xb
 3189 0166 0B       		.uleb128 0xb
 3190 0167 3A       		.uleb128 0x3a
 3191 0168 0B       		.uleb128 0xb
 3192 0169 3B       		.uleb128 0x3b
ARM GAS  C:\Users\DEVELO~1\AppData\Local\Temp\ccmtuCvA.s 			page 57


 3193 016a 05       		.uleb128 0x5
 3194 016b 39       		.uleb128 0x39
 3195 016c 0B       		.uleb128 0xb
 3196 016d 01       		.uleb128 0x1
 3197 016e 13       		.uleb128 0x13
 3198 016f 00       		.byte	0
 3199 0170 00       		.byte	0
 3200 0171 18       		.uleb128 0x18
 3201 0172 0B       		.uleb128 0xb
 3202 0173 01       		.byte	0x1
 3203 0174 55       		.uleb128 0x55
 3204 0175 17       		.uleb128 0x17
 3205 0176 00       		.byte	0
 3206 0177 00       		.byte	0
 3207 0178 19       		.uleb128 0x19
 3208 0179 49       		.uleb128 0x49
 3209 017a 00       		.byte	0
 3210 017b 02       		.uleb128 0x2
 3211 017c 18       		.uleb128 0x18
 3212 017d 7E       		.uleb128 0x7e
 3213 017e 18       		.uleb128 0x18
 3214 017f 00       		.byte	0
 3215 0180 00       		.byte	0
 3216 0181 1A       		.uleb128 0x1a
 3217 0182 0D       		.uleb128 0xd
 3218 0183 00       		.byte	0
 3219 0184 03       		.uleb128 0x3
 3220 0185 08       		.uleb128 0x8
 3221 0186 3A       		.uleb128 0x3a
 3222 0187 21       		.uleb128 0x21
 3223 0188 0E       		.sleb128 14
 3224 0189 3B       		.uleb128 0x3b
 3225 018a 0B       		.uleb128 0xb
 3226 018b 39       		.uleb128 0x39
 3227 018c 21       		.uleb128 0x21
 3228 018d 07       		.sleb128 7
 3229 018e 49       		.uleb128 0x49
 3230 018f 13       		.uleb128 0x13
 3231 0190 00       		.byte	0
 3232 0191 00       		.byte	0
 3233 0192 1B       		.uleb128 0x1b
 3234 0193 0D       		.uleb128 0xd
 3235 0194 00       		.byte	0
 3236 0195 03       		.uleb128 0x3
 3237 0196 0E       		.uleb128 0xe
 3238 0197 3A       		.uleb128 0x3a
 3239 0198 21       		.uleb128 0x21
 3240 0199 0E       		.sleb128 14
 3241 019a 3B       		.uleb128 0x3b
 3242 019b 0B       		.uleb128 0xb
 3243 019c 39       		.uleb128 0x39
 3244 019d 21       		.uleb128 0x21
 3245 019e 19       		.sleb128 25
 3246 019f 49       		.uleb128 0x49
 3247 01a0 13       		.uleb128 0x13
 3248 01a1 0D       		.uleb128 0xd
 3249 01a2 0B       		.uleb128 0xb
ARM GAS  C:\Users\DEVELO~1\AppData\Local\Temp\ccmtuCvA.s 			page 58


 3250 01a3 6B       		.uleb128 0x6b
 3251 01a4 0B       		.uleb128 0xb
 3252 01a5 00       		.byte	0
 3253 01a6 00       		.byte	0
 3254 01a7 1C       		.uleb128 0x1c
 3255 01a8 01       		.uleb128 0x1
 3256 01a9 01       		.byte	0x1
 3257 01aa 49       		.uleb128 0x49
 3258 01ab 13       		.uleb128 0x13
 3259 01ac 01       		.uleb128 0x1
 3260 01ad 13       		.uleb128 0x13
 3261 01ae 00       		.byte	0
 3262 01af 00       		.byte	0
 3263 01b0 1D       		.uleb128 0x1d
 3264 01b1 21       		.uleb128 0x21
 3265 01b2 00       		.byte	0
 3266 01b3 49       		.uleb128 0x49
 3267 01b4 13       		.uleb128 0x13
 3268 01b5 2F       		.uleb128 0x2f
 3269 01b6 0B       		.uleb128 0xb
 3270 01b7 00       		.byte	0
 3271 01b8 00       		.byte	0
 3272 01b9 1E       		.uleb128 0x1e
 3273 01ba 48       		.uleb128 0x48
 3274 01bb 01       		.byte	0x1
 3275 01bc 7D       		.uleb128 0x7d
 3276 01bd 01       		.uleb128 0x1
 3277 01be 7F       		.uleb128 0x7f
 3278 01bf 13       		.uleb128 0x13
 3279 01c0 00       		.byte	0
 3280 01c1 00       		.byte	0
 3281 01c2 1F       		.uleb128 0x1f
 3282 01c3 2E       		.uleb128 0x2e
 3283 01c4 01       		.byte	0x1
 3284 01c5 03       		.uleb128 0x3
 3285 01c6 0E       		.uleb128 0xe
 3286 01c7 3A       		.uleb128 0x3a
 3287 01c8 21       		.uleb128 0x21
 3288 01c9 02       		.sleb128 2
 3289 01ca 3B       		.uleb128 0x3b
 3290 01cb 0B       		.uleb128 0xb
 3291 01cc 39       		.uleb128 0x39
 3292 01cd 0B       		.uleb128 0xb
 3293 01ce 27       		.uleb128 0x27
 3294 01cf 19       		.uleb128 0x19
 3295 01d0 49       		.uleb128 0x49
 3296 01d1 13       		.uleb128 0x13
 3297 01d2 20       		.uleb128 0x20
 3298 01d3 21       		.uleb128 0x21
 3299 01d4 03       		.sleb128 3
 3300 01d5 01       		.uleb128 0x1
 3301 01d6 13       		.uleb128 0x13
 3302 01d7 00       		.byte	0
 3303 01d8 00       		.byte	0
 3304 01d9 20       		.uleb128 0x20
 3305 01da 2E       		.uleb128 0x2e
 3306 01db 00       		.byte	0
ARM GAS  C:\Users\DEVELO~1\AppData\Local\Temp\ccmtuCvA.s 			page 59


 3307 01dc 03       		.uleb128 0x3
 3308 01dd 0E       		.uleb128 0xe
 3309 01de 3A       		.uleb128 0x3a
 3310 01df 0B       		.uleb128 0xb
 3311 01e0 3B       		.uleb128 0x3b
 3312 01e1 05       		.uleb128 0x5
 3313 01e2 39       		.uleb128 0x39
 3314 01e3 0B       		.uleb128 0xb
 3315 01e4 27       		.uleb128 0x27
 3316 01e5 19       		.uleb128 0x19
 3317 01e6 20       		.uleb128 0x20
 3318 01e7 21       		.uleb128 0x21
 3319 01e8 03       		.sleb128 3
 3320 01e9 00       		.byte	0
 3321 01ea 00       		.byte	0
 3322 01eb 21       		.uleb128 0x21
 3323 01ec 35       		.uleb128 0x35
 3324 01ed 00       		.byte	0
 3325 01ee 49       		.uleb128 0x49
 3326 01ef 13       		.uleb128 0x13
 3327 01f0 00       		.byte	0
 3328 01f1 00       		.byte	0
 3329 01f2 22       		.uleb128 0x22
 3330 01f3 17       		.uleb128 0x17
 3331 01f4 01       		.byte	0x1
 3332 01f5 0B       		.uleb128 0xb
 3333 01f6 0B       		.uleb128 0xb
 3334 01f7 3A       		.uleb128 0x3a
 3335 01f8 0B       		.uleb128 0xb
 3336 01f9 3B       		.uleb128 0x3b
 3337 01fa 0B       		.uleb128 0xb
 3338 01fb 39       		.uleb128 0x39
 3339 01fc 21       		.uleb128 0x21
 3340 01fd 03       		.sleb128 3
 3341 01fe 01       		.uleb128 0x1
 3342 01ff 13       		.uleb128 0x13
 3343 0200 00       		.byte	0
 3344 0201 00       		.byte	0
 3345 0202 23       		.uleb128 0x23
 3346 0203 16       		.uleb128 0x16
 3347 0204 00       		.byte	0
 3348 0205 03       		.uleb128 0x3
 3349 0206 0E       		.uleb128 0xe
 3350 0207 3A       		.uleb128 0x3a
 3351 0208 21       		.uleb128 0x21
 3352 0209 0A       		.sleb128 10
 3353 020a 3B       		.uleb128 0x3b
 3354 020b 05       		.uleb128 0x5
 3355 020c 39       		.uleb128 0x39
 3356 020d 21       		.uleb128 0x21
 3357 020e 03       		.sleb128 3
 3358 020f 49       		.uleb128 0x49
 3359 0210 13       		.uleb128 0x13
 3360 0211 00       		.byte	0
 3361 0212 00       		.byte	0
 3362 0213 24       		.uleb128 0x24
 3363 0214 2E       		.uleb128 0x2e
ARM GAS  C:\Users\DEVELO~1\AppData\Local\Temp\ccmtuCvA.s 			page 60


 3364 0215 01       		.byte	0x1
 3365 0216 3F       		.uleb128 0x3f
 3366 0217 19       		.uleb128 0x19
 3367 0218 03       		.uleb128 0x3
 3368 0219 0E       		.uleb128 0xe
 3369 021a 3A       		.uleb128 0x3a
 3370 021b 21       		.uleb128 0x21
 3371 021c 02       		.sleb128 2
 3372 021d 3B       		.uleb128 0x3b
 3373 021e 0B       		.uleb128 0xb
 3374 021f 39       		.uleb128 0x39
 3375 0220 0B       		.uleb128 0xb
 3376 0221 27       		.uleb128 0x27
 3377 0222 19       		.uleb128 0x19
 3378 0223 49       		.uleb128 0x49
 3379 0224 13       		.uleb128 0x13
 3380 0225 3C       		.uleb128 0x3c
 3381 0226 19       		.uleb128 0x19
 3382 0227 01       		.uleb128 0x1
 3383 0228 13       		.uleb128 0x13
 3384 0229 00       		.byte	0
 3385 022a 00       		.byte	0
 3386 022b 25       		.uleb128 0x25
 3387 022c 34       		.uleb128 0x34
 3388 022d 00       		.byte	0
 3389 022e 31       		.uleb128 0x31
 3390 022f 13       		.uleb128 0x13
 3391 0230 02       		.uleb128 0x2
 3392 0231 17       		.uleb128 0x17
 3393 0232 B742     		.uleb128 0x2137
 3394 0234 17       		.uleb128 0x17
 3395 0235 00       		.byte	0
 3396 0236 00       		.byte	0
 3397 0237 26       		.uleb128 0x26
 3398 0238 1D       		.uleb128 0x1d
 3399 0239 01       		.byte	0x1
 3400 023a 31       		.uleb128 0x31
 3401 023b 13       		.uleb128 0x13
 3402 023c 52       		.uleb128 0x52
 3403 023d 01       		.uleb128 0x1
 3404 023e B842     		.uleb128 0x2138
 3405 0240 0B       		.uleb128 0xb
 3406 0241 11       		.uleb128 0x11
 3407 0242 01       		.uleb128 0x1
 3408 0243 12       		.uleb128 0x12
 3409 0244 06       		.uleb128 0x6
 3410 0245 58       		.uleb128 0x58
 3411 0246 21       		.uleb128 0x21
 3412 0247 01       		.sleb128 1
 3413 0248 59       		.uleb128 0x59
 3414 0249 0B       		.uleb128 0xb
 3415 024a 57       		.uleb128 0x57
 3416 024b 21       		.uleb128 0x21
 3417 024c 21       		.sleb128 33
 3418 024d 01       		.uleb128 0x1
 3419 024e 13       		.uleb128 0x13
 3420 024f 00       		.byte	0
ARM GAS  C:\Users\DEVELO~1\AppData\Local\Temp\ccmtuCvA.s 			page 61


 3421 0250 00       		.byte	0
 3422 0251 27       		.uleb128 0x27
 3423 0252 34       		.uleb128 0x34
 3424 0253 00       		.byte	0
 3425 0254 03       		.uleb128 0x3
 3426 0255 0E       		.uleb128 0xe
 3427 0256 49       		.uleb128 0x49
 3428 0257 13       		.uleb128 0x13
 3429 0258 34       		.uleb128 0x34
 3430 0259 19       		.uleb128 0x19
 3431 025a 00       		.byte	0
 3432 025b 00       		.byte	0
 3433 025c 28       		.uleb128 0x28
 3434 025d 11       		.uleb128 0x11
 3435 025e 01       		.byte	0x1
 3436 025f 25       		.uleb128 0x25
 3437 0260 0E       		.uleb128 0xe
 3438 0261 13       		.uleb128 0x13
 3439 0262 0B       		.uleb128 0xb
 3440 0263 03       		.uleb128 0x3
 3441 0264 0E       		.uleb128 0xe
 3442 0265 1B       		.uleb128 0x1b
 3443 0266 0E       		.uleb128 0xe
 3444 0267 55       		.uleb128 0x55
 3445 0268 17       		.uleb128 0x17
 3446 0269 11       		.uleb128 0x11
 3447 026a 01       		.uleb128 0x1
 3448 026b 10       		.uleb128 0x10
 3449 026c 17       		.uleb128 0x17
 3450 026d 00       		.byte	0
 3451 026e 00       		.byte	0
 3452 026f 29       		.uleb128 0x29
 3453 0270 24       		.uleb128 0x24
 3454 0271 00       		.byte	0
 3455 0272 0B       		.uleb128 0xb
 3456 0273 0B       		.uleb128 0xb
 3457 0274 3E       		.uleb128 0x3e
 3458 0275 0B       		.uleb128 0xb
 3459 0276 03       		.uleb128 0x3
 3460 0277 08       		.uleb128 0x8
 3461 0278 00       		.byte	0
 3462 0279 00       		.byte	0
 3463 027a 2A       		.uleb128 0x2a
 3464 027b 13       		.uleb128 0x13
 3465 027c 01       		.byte	0x1
 3466 027d 03       		.uleb128 0x3
 3467 027e 0E       		.uleb128 0xe
 3468 027f 0B       		.uleb128 0xb
 3469 0280 05       		.uleb128 0x5
 3470 0281 3A       		.uleb128 0x3a
 3471 0282 0B       		.uleb128 0xb
 3472 0283 3B       		.uleb128 0x3b
 3473 0284 05       		.uleb128 0x5
 3474 0285 39       		.uleb128 0x39
 3475 0286 0B       		.uleb128 0xb
 3476 0287 01       		.uleb128 0x1
 3477 0288 13       		.uleb128 0x13
ARM GAS  C:\Users\DEVELO~1\AppData\Local\Temp\ccmtuCvA.s 			page 62


 3478 0289 00       		.byte	0
 3479 028a 00       		.byte	0
 3480 028b 2B       		.uleb128 0x2b
 3481 028c 0F       		.uleb128 0xf
 3482 028d 00       		.byte	0
 3483 028e 0B       		.uleb128 0xb
 3484 028f 0B       		.uleb128 0xb
 3485 0290 00       		.byte	0
 3486 0291 00       		.byte	0
 3487 0292 2C       		.uleb128 0x2c
 3488 0293 13       		.uleb128 0x13
 3489 0294 01       		.byte	0x1
 3490 0295 0B       		.uleb128 0xb
 3491 0296 05       		.uleb128 0x5
 3492 0297 3A       		.uleb128 0x3a
 3493 0298 0B       		.uleb128 0xb
 3494 0299 3B       		.uleb128 0x3b
 3495 029a 0B       		.uleb128 0xb
 3496 029b 39       		.uleb128 0x39
 3497 029c 0B       		.uleb128 0xb
 3498 029d 01       		.uleb128 0x1
 3499 029e 13       		.uleb128 0x13
 3500 029f 00       		.byte	0
 3501 02a0 00       		.byte	0
 3502 02a1 2D       		.uleb128 0x2d
 3503 02a2 15       		.uleb128 0x15
 3504 02a3 01       		.byte	0x1
 3505 02a4 27       		.uleb128 0x27
 3506 02a5 19       		.uleb128 0x19
 3507 02a6 01       		.uleb128 0x1
 3508 02a7 13       		.uleb128 0x13
 3509 02a8 00       		.byte	0
 3510 02a9 00       		.byte	0
 3511 02aa 2E       		.uleb128 0x2e
 3512 02ab 17       		.uleb128 0x17
 3513 02ac 01       		.byte	0x1
 3514 02ad 0B       		.uleb128 0xb
 3515 02ae 0B       		.uleb128 0xb
 3516 02af 3A       		.uleb128 0x3a
 3517 02b0 0B       		.uleb128 0xb
 3518 02b1 3B       		.uleb128 0x3b
 3519 02b2 05       		.uleb128 0x5
 3520 02b3 39       		.uleb128 0x39
 3521 02b4 0B       		.uleb128 0xb
 3522 02b5 01       		.uleb128 0x1
 3523 02b6 13       		.uleb128 0x13
 3524 02b7 00       		.byte	0
 3525 02b8 00       		.byte	0
 3526 02b9 2F       		.uleb128 0x2f
 3527 02ba 13       		.uleb128 0x13
 3528 02bb 01       		.byte	0x1
 3529 02bc 03       		.uleb128 0x3
 3530 02bd 0E       		.uleb128 0xe
 3531 02be 0B       		.uleb128 0xb
 3532 02bf 0B       		.uleb128 0xb
 3533 02c0 3A       		.uleb128 0x3a
 3534 02c1 0B       		.uleb128 0xb
ARM GAS  C:\Users\DEVELO~1\AppData\Local\Temp\ccmtuCvA.s 			page 63


 3535 02c2 3B       		.uleb128 0x3b
 3536 02c3 0B       		.uleb128 0xb
 3537 02c4 01       		.uleb128 0x1
 3538 02c5 13       		.uleb128 0x13
 3539 02c6 00       		.byte	0
 3540 02c7 00       		.byte	0
 3541 02c8 30       		.uleb128 0x30
 3542 02c9 0D       		.uleb128 0xd
 3543 02ca 00       		.byte	0
 3544 02cb 03       		.uleb128 0x3
 3545 02cc 0E       		.uleb128 0xe
 3546 02cd 49       		.uleb128 0x49
 3547 02ce 13       		.uleb128 0x13
 3548 02cf 38       		.uleb128 0x38
 3549 02d0 0B       		.uleb128 0xb
 3550 02d1 34       		.uleb128 0x34
 3551 02d2 19       		.uleb128 0x19
 3552 02d3 00       		.byte	0
 3553 02d4 00       		.byte	0
 3554 02d5 31       		.uleb128 0x31
 3555 02d6 15       		.uleb128 0x15
 3556 02d7 00       		.byte	0
 3557 02d8 27       		.uleb128 0x27
 3558 02d9 19       		.uleb128 0x19
 3559 02da 49       		.uleb128 0x49
 3560 02db 13       		.uleb128 0x13
 3561 02dc 00       		.byte	0
 3562 02dd 00       		.byte	0
 3563 02de 32       		.uleb128 0x32
 3564 02df 2E       		.uleb128 0x2e
 3565 02e0 00       		.byte	0
 3566 02e1 3F       		.uleb128 0x3f
 3567 02e2 19       		.uleb128 0x19
 3568 02e3 03       		.uleb128 0x3
 3569 02e4 0E       		.uleb128 0xe
 3570 02e5 3A       		.uleb128 0x3a
 3571 02e6 0B       		.uleb128 0xb
 3572 02e7 3B       		.uleb128 0x3b
 3573 02e8 0B       		.uleb128 0xb
 3574 02e9 39       		.uleb128 0x39
 3575 02ea 0B       		.uleb128 0xb
 3576 02eb 27       		.uleb128 0x27
 3577 02ec 19       		.uleb128 0x19
 3578 02ed 49       		.uleb128 0x49
 3579 02ee 13       		.uleb128 0x13
 3580 02ef 3C       		.uleb128 0x3c
 3581 02f0 19       		.uleb128 0x19
 3582 02f1 00       		.byte	0
 3583 02f2 00       		.byte	0
 3584 02f3 33       		.uleb128 0x33
 3585 02f4 2E       		.uleb128 0x2e
 3586 02f5 01       		.byte	0x1
 3587 02f6 3F       		.uleb128 0x3f
 3588 02f7 19       		.uleb128 0x19
 3589 02f8 03       		.uleb128 0x3
 3590 02f9 0E       		.uleb128 0xe
 3591 02fa 3A       		.uleb128 0x3a
ARM GAS  C:\Users\DEVELO~1\AppData\Local\Temp\ccmtuCvA.s 			page 64


 3592 02fb 0B       		.uleb128 0xb
 3593 02fc 3B       		.uleb128 0x3b
 3594 02fd 0B       		.uleb128 0xb
 3595 02fe 39       		.uleb128 0x39
 3596 02ff 0B       		.uleb128 0xb
 3597 0300 27       		.uleb128 0x27
 3598 0301 19       		.uleb128 0x19
 3599 0302 3C       		.uleb128 0x3c
 3600 0303 19       		.uleb128 0x19
 3601 0304 01       		.uleb128 0x1
 3602 0305 13       		.uleb128 0x13
 3603 0306 00       		.byte	0
 3604 0307 00       		.byte	0
 3605 0308 34       		.uleb128 0x34
 3606 0309 2E       		.uleb128 0x2e
 3607 030a 01       		.byte	0x1
 3608 030b 3F       		.uleb128 0x3f
 3609 030c 19       		.uleb128 0x19
 3610 030d 03       		.uleb128 0x3
 3611 030e 0E       		.uleb128 0xe
 3612 030f 3A       		.uleb128 0x3a
 3613 0310 0B       		.uleb128 0xb
 3614 0311 3B       		.uleb128 0x3b
 3615 0312 0B       		.uleb128 0xb
 3616 0313 39       		.uleb128 0x39
 3617 0314 0B       		.uleb128 0xb
 3618 0315 27       		.uleb128 0x27
 3619 0316 19       		.uleb128 0x19
 3620 0317 49       		.uleb128 0x49
 3621 0318 13       		.uleb128 0x13
 3622 0319 11       		.uleb128 0x11
 3623 031a 01       		.uleb128 0x1
 3624 031b 12       		.uleb128 0x12
 3625 031c 06       		.uleb128 0x6
 3626 031d 40       		.uleb128 0x40
 3627 031e 18       		.uleb128 0x18
 3628 031f 7C       		.uleb128 0x7c
 3629 0320 19       		.uleb128 0x19
 3630 0321 01       		.uleb128 0x1
 3631 0322 13       		.uleb128 0x13
 3632 0323 00       		.byte	0
 3633 0324 00       		.byte	0
 3634 0325 35       		.uleb128 0x35
 3635 0326 2E       		.uleb128 0x2e
 3636 0327 01       		.byte	0x1
 3637 0328 3F       		.uleb128 0x3f
 3638 0329 19       		.uleb128 0x19
 3639 032a 03       		.uleb128 0x3
 3640 032b 0E       		.uleb128 0xe
 3641 032c 3A       		.uleb128 0x3a
 3642 032d 0B       		.uleb128 0xb
 3643 032e 3B       		.uleb128 0x3b
 3644 032f 0B       		.uleb128 0xb
 3645 0330 39       		.uleb128 0x39
 3646 0331 0B       		.uleb128 0xb
 3647 0332 27       		.uleb128 0x27
 3648 0333 19       		.uleb128 0x19
ARM GAS  C:\Users\DEVELO~1\AppData\Local\Temp\ccmtuCvA.s 			page 65


 3649 0334 11       		.uleb128 0x11
 3650 0335 01       		.uleb128 0x1
 3651 0336 12       		.uleb128 0x12
 3652 0337 06       		.uleb128 0x6
 3653 0338 40       		.uleb128 0x40
 3654 0339 18       		.uleb128 0x18
 3655 033a 7C       		.uleb128 0x7c
 3656 033b 19       		.uleb128 0x19
 3657 033c 01       		.uleb128 0x1
 3658 033d 13       		.uleb128 0x13
 3659 033e 00       		.byte	0
 3660 033f 00       		.byte	0
 3661 0340 36       		.uleb128 0x36
 3662 0341 48       		.uleb128 0x48
 3663 0342 00       		.byte	0
 3664 0343 7D       		.uleb128 0x7d
 3665 0344 01       		.uleb128 0x1
 3666 0345 7F       		.uleb128 0x7f
 3667 0346 13       		.uleb128 0x13
 3668 0347 00       		.byte	0
 3669 0348 00       		.byte	0
 3670 0349 37       		.uleb128 0x37
 3671 034a 48       		.uleb128 0x48
 3672 034b 00       		.byte	0
 3673 034c 7D       		.uleb128 0x7d
 3674 034d 01       		.uleb128 0x1
 3675 034e 8201     		.uleb128 0x82
 3676 0350 19       		.uleb128 0x19
 3677 0351 7F       		.uleb128 0x7f
 3678 0352 13       		.uleb128 0x13
 3679 0353 00       		.byte	0
 3680 0354 00       		.byte	0
 3681 0355 38       		.uleb128 0x38
 3682 0356 2E       		.uleb128 0x2e
 3683 0357 01       		.byte	0x1
 3684 0358 3F       		.uleb128 0x3f
 3685 0359 19       		.uleb128 0x19
 3686 035a 03       		.uleb128 0x3
 3687 035b 0E       		.uleb128 0xe
 3688 035c 3A       		.uleb128 0x3a
 3689 035d 0B       		.uleb128 0xb
 3690 035e 3B       		.uleb128 0x3b
 3691 035f 0B       		.uleb128 0xb
 3692 0360 39       		.uleb128 0x39
 3693 0361 0B       		.uleb128 0xb
 3694 0362 27       		.uleb128 0x27
 3695 0363 19       		.uleb128 0x19
 3696 0364 49       		.uleb128 0x49
 3697 0365 13       		.uleb128 0x13
 3698 0366 11       		.uleb128 0x11
 3699 0367 01       		.uleb128 0x1
 3700 0368 12       		.uleb128 0x12
 3701 0369 06       		.uleb128 0x6
 3702 036a 40       		.uleb128 0x40
 3703 036b 18       		.uleb128 0x18
 3704 036c 7A       		.uleb128 0x7a
 3705 036d 19       		.uleb128 0x19
ARM GAS  C:\Users\DEVELO~1\AppData\Local\Temp\ccmtuCvA.s 			page 66


 3706 036e 01       		.uleb128 0x1
 3707 036f 13       		.uleb128 0x13
 3708 0370 00       		.byte	0
 3709 0371 00       		.byte	0
 3710 0372 39       		.uleb128 0x39
 3711 0373 05       		.uleb128 0x5
 3712 0374 00       		.byte	0
 3713 0375 03       		.uleb128 0x3
 3714 0376 08       		.uleb128 0x8
 3715 0377 3A       		.uleb128 0x3a
 3716 0378 0B       		.uleb128 0xb
 3717 0379 3B       		.uleb128 0x3b
 3718 037a 0B       		.uleb128 0xb
 3719 037b 39       		.uleb128 0x39
 3720 037c 0B       		.uleb128 0xb
 3721 037d 49       		.uleb128 0x49
 3722 037e 13       		.uleb128 0x13
 3723 037f 02       		.uleb128 0x2
 3724 0380 17       		.uleb128 0x17
 3725 0381 B742     		.uleb128 0x2137
 3726 0383 17       		.uleb128 0x17
 3727 0384 00       		.byte	0
 3728 0385 00       		.byte	0
 3729 0386 3A       		.uleb128 0x3a
 3730 0387 05       		.uleb128 0x5
 3731 0388 00       		.byte	0
 3732 0389 03       		.uleb128 0x3
 3733 038a 0E       		.uleb128 0xe
 3734 038b 3A       		.uleb128 0x3a
 3735 038c 0B       		.uleb128 0xb
 3736 038d 3B       		.uleb128 0x3b
 3737 038e 0B       		.uleb128 0xb
 3738 038f 39       		.uleb128 0x39
 3739 0390 0B       		.uleb128 0xb
 3740 0391 49       		.uleb128 0x49
 3741 0392 13       		.uleb128 0x13
 3742 0393 02       		.uleb128 0x2
 3743 0394 18       		.uleb128 0x18
 3744 0395 00       		.byte	0
 3745 0396 00       		.byte	0
 3746 0397 3B       		.uleb128 0x3b
 3747 0398 18       		.uleb128 0x18
 3748 0399 00       		.byte	0
 3749 039a 00       		.byte	0
 3750 039b 00       		.byte	0
 3751 039c 3C       		.uleb128 0x3c
 3752 039d 34       		.uleb128 0x34
 3753 039e 00       		.byte	0
 3754 039f 03       		.uleb128 0x3
 3755 03a0 0E       		.uleb128 0xe
 3756 03a1 3A       		.uleb128 0x3a
 3757 03a2 0B       		.uleb128 0xb
 3758 03a3 3B       		.uleb128 0x3b
 3759 03a4 0B       		.uleb128 0xb
 3760 03a5 39       		.uleb128 0x39
 3761 03a6 0B       		.uleb128 0xb
 3762 03a7 49       		.uleb128 0x49
ARM GAS  C:\Users\DEVELO~1\AppData\Local\Temp\ccmtuCvA.s 			page 67


 3763 03a8 13       		.uleb128 0x13
 3764 03a9 02       		.uleb128 0x2
 3765 03aa 18       		.uleb128 0x18
 3766 03ab 00       		.byte	0
 3767 03ac 00       		.byte	0
 3768 03ad 3D       		.uleb128 0x3d
 3769 03ae 05       		.uleb128 0x5
 3770 03af 00       		.byte	0
 3771 03b0 03       		.uleb128 0x3
 3772 03b1 08       		.uleb128 0x8
 3773 03b2 3A       		.uleb128 0x3a
 3774 03b3 0B       		.uleb128 0xb
 3775 03b4 3B       		.uleb128 0x3b
 3776 03b5 0B       		.uleb128 0xb
 3777 03b6 39       		.uleb128 0x39
 3778 03b7 0B       		.uleb128 0xb
 3779 03b8 49       		.uleb128 0x49
 3780 03b9 13       		.uleb128 0x13
 3781 03ba 00       		.byte	0
 3782 03bb 00       		.byte	0
 3783 03bc 3E       		.uleb128 0x3e
 3784 03bd 05       		.uleb128 0x5
 3785 03be 00       		.byte	0
 3786 03bf 03       		.uleb128 0x3
 3787 03c0 0E       		.uleb128 0xe
 3788 03c1 3A       		.uleb128 0x3a
 3789 03c2 0B       		.uleb128 0xb
 3790 03c3 3B       		.uleb128 0x3b
 3791 03c4 0B       		.uleb128 0xb
 3792 03c5 39       		.uleb128 0x39
 3793 03c6 0B       		.uleb128 0xb
 3794 03c7 49       		.uleb128 0x49
 3795 03c8 13       		.uleb128 0x13
 3796 03c9 00       		.byte	0
 3797 03ca 00       		.byte	0
 3798 03cb 3F       		.uleb128 0x3f
 3799 03cc 2E       		.uleb128 0x2e
 3800 03cd 01       		.byte	0x1
 3801 03ce 03       		.uleb128 0x3
 3802 03cf 0E       		.uleb128 0xe
 3803 03d0 3A       		.uleb128 0x3a
 3804 03d1 0B       		.uleb128 0xb
 3805 03d2 3B       		.uleb128 0x3b
 3806 03d3 05       		.uleb128 0x5
 3807 03d4 39       		.uleb128 0x39
 3808 03d5 0B       		.uleb128 0xb
 3809 03d6 27       		.uleb128 0x27
 3810 03d7 19       		.uleb128 0x19
 3811 03d8 20       		.uleb128 0x20
 3812 03d9 0B       		.uleb128 0xb
 3813 03da 01       		.uleb128 0x1
 3814 03db 13       		.uleb128 0x13
 3815 03dc 00       		.byte	0
 3816 03dd 00       		.byte	0
 3817 03de 40       		.uleb128 0x40
 3818 03df 2E       		.uleb128 0x2e
 3819 03e0 01       		.byte	0x1
ARM GAS  C:\Users\DEVELO~1\AppData\Local\Temp\ccmtuCvA.s 			page 68


 3820 03e1 03       		.uleb128 0x3
 3821 03e2 0E       		.uleb128 0xe
 3822 03e3 3A       		.uleb128 0x3a
 3823 03e4 0B       		.uleb128 0xb
 3824 03e5 3B       		.uleb128 0x3b
 3825 03e6 05       		.uleb128 0x5
 3826 03e7 39       		.uleb128 0x39
 3827 03e8 0B       		.uleb128 0xb
 3828 03e9 27       		.uleb128 0x27
 3829 03ea 19       		.uleb128 0x19
 3830 03eb 20       		.uleb128 0x20
 3831 03ec 0B       		.uleb128 0xb
 3832 03ed 00       		.byte	0
 3833 03ee 00       		.byte	0
 3834 03ef 41       		.uleb128 0x41
 3835 03f0 05       		.uleb128 0x5
 3836 03f1 00       		.byte	0
 3837 03f2 03       		.uleb128 0x3
 3838 03f3 0E       		.uleb128 0xe
 3839 03f4 3A       		.uleb128 0x3a
 3840 03f5 0B       		.uleb128 0xb
 3841 03f6 3B       		.uleb128 0x3b
 3842 03f7 05       		.uleb128 0x5
 3843 03f8 39       		.uleb128 0x39
 3844 03f9 0B       		.uleb128 0xb
 3845 03fa 49       		.uleb128 0x49
 3846 03fb 13       		.uleb128 0x13
 3847 03fc 00       		.byte	0
 3848 03fd 00       		.byte	0
 3849 03fe 00       		.byte	0
 3850              		.section	.debug_loclists,"",%progbits
 3851 0000 B9010000 		.4byte	.Ldebug_loc3-.Ldebug_loc2
 3852              	.Ldebug_loc2:
 3853 0004 0500     		.2byte	0x5
 3854 0006 04       		.byte	0x4
 3855 0007 00       		.byte	0
 3856 0008 00000000 		.4byte	0
 3857              	.Ldebug_loc0:
 3858              	.LVUS17:
 3859 000c 00       		.uleb128 0
 3860 000d 00       		.uleb128 .LVU163
 3861 000e 00       		.uleb128 .LVU163
 3862 000f 00       		.uleb128 0
 3863              	.LLST17:
 3864 0010 06       		.byte	0x6
 3865 0011 00000000 		.4byte	.LVL30
 3866 0015 04       		.byte	0x4
 3867 0016 00       		.uleb128 .LVL30-.LVL30
 3868 0017 0B       		.uleb128 .LVL32-1-.LVL30
 3869 0018 01       		.uleb128 0x1
 3870 0019 50       		.byte	0x50
 3871 001a 04       		.byte	0x4
 3872 001b 0B       		.uleb128 .LVL32-1-.LVL30
 3873 001c 30       		.uleb128 .LFE359-.LVL30
 3874 001d 04       		.uleb128 0x4
 3875 001e A3       		.byte	0xa3
 3876 001f 01       		.uleb128 0x1
ARM GAS  C:\Users\DEVELO~1\AppData\Local\Temp\ccmtuCvA.s 			page 69


 3877 0020 50       		.byte	0x50
 3878 0021 9F       		.byte	0x9f
 3879 0022 00       		.byte	0
 3880              	.LVUS18:
 3881 0023 02       		.uleb128 .LVU179
 3882 0024 00       		.uleb128 .LVU192
 3883 0025 00       		.uleb128 .LVU192
 3884 0026 00       		.uleb128 .LVU199
 3885 0027 00       		.uleb128 .LVU199
 3886 0028 00       		.uleb128 .LVU200
 3887              	.LLST18:
 3888 0029 06       		.byte	0x6
 3889 002a 12000000 		.4byte	.LVL34
 3890 002e 04       		.byte	0x4
 3891 002f 00       		.uleb128 .LVL34-.LVL34
 3892 0030 0A       		.uleb128 .LVL37-.LVL34
 3893 0031 01       		.uleb128 0x1
 3894 0032 50       		.byte	0x50
 3895 0033 04       		.byte	0x4
 3896 0034 0A       		.uleb128 .LVL37-.LVL34
 3897 0035 18       		.uleb128 .LVL42-.LVL34
 3898 0036 01       		.uleb128 0x1
 3899 0037 54       		.byte	0x54
 3900 0038 04       		.byte	0x4
 3901 0039 18       		.uleb128 .LVL42-.LVL34
 3902 003a 1C       		.uleb128 .LVL43-.LVL34
 3903 003b 01       		.uleb128 0x1
 3904 003c 50       		.byte	0x50
 3905 003d 00       		.byte	0
 3906              	.LVUS19:
 3907 003e 00       		.uleb128 .LVU190
 3908 003f 00       		.uleb128 .LVU193
 3909              	.LLST19:
 3910 0040 08       		.byte	0x8
 3911 0041 16000000 		.4byte	.LVL36
 3912 0045 07       		.uleb128 .LVL38-1-.LVL36
 3913 0046 01       		.uleb128 0x1
 3914 0047 53       		.byte	0x53
 3915 0048 00       		.byte	0
 3916              	.LVUS20:
 3917 0049 00       		.uleb128 .LVU194
 3918 004a 00       		.uleb128 .LVU195
 3919 004b 00       		.uleb128 .LVU195
 3920 004c 00       		.uleb128 .LVU196
 3921              	.LLST20:
 3922 004d 06       		.byte	0x6
 3923 004e 20000000 		.4byte	.LVL39
 3924 0052 04       		.byte	0x4
 3925 0053 00       		.uleb128 .LVL39-.LVL39
 3926 0054 02       		.uleb128 .LVL40-.LVL39
 3927 0055 01       		.uleb128 0x1
 3928 0056 50       		.byte	0x50
 3929 0057 04       		.byte	0x4
 3930 0058 02       		.uleb128 .LVL40-.LVL39
 3931 0059 05       		.uleb128 .LVL41-1-.LVL39
 3932 005a 01       		.uleb128 0x1
 3933 005b 51       		.byte	0x51
ARM GAS  C:\Users\DEVELO~1\AppData\Local\Temp\ccmtuCvA.s 			page 70


 3934 005c 00       		.byte	0
 3935              	.LVUS22:
 3936 005d 05       		.uleb128 .LVU147
 3937 005e 00       		.uleb128 .LVU163
 3938 005f 00       		.uleb128 .LVU163
 3939 0060 02       		.uleb128 .LVU179
 3940              	.LLST22:
 3941 0061 06       		.byte	0x6
 3942 0062 00000000 		.4byte	.LVL30
 3943 0066 04       		.byte	0x4
 3944 0067 00       		.uleb128 .LVL30-.LVL30
 3945 0068 0B       		.uleb128 .LVL32-1-.LVL30
 3946 0069 01       		.uleb128 0x1
 3947 006a 50       		.byte	0x50
 3948 006b 04       		.byte	0x4
 3949 006c 0B       		.uleb128 .LVL32-1-.LVL30
 3950 006d 12       		.uleb128 .LVL34-.LVL30
 3951 006e 04       		.uleb128 0x4
 3952 006f A3       		.byte	0xa3
 3953 0070 01       		.uleb128 0x1
 3954 0071 50       		.byte	0x50
 3955 0072 9F       		.byte	0x9f
 3956 0073 00       		.byte	0
 3957              	.LVUS23:
 3958 0074 00       		.uleb128 .LVU164
 3959 0075 02       		.uleb128 .LVU179
 3960              	.LLST23:
 3961 0076 08       		.byte	0x8
 3962 0077 0E000000 		.4byte	.LVL33
 3963 007b 04       		.uleb128 .LVL34-.LVL33
 3964 007c 01       		.uleb128 0x1
 3965 007d 50       		.byte	0x50
 3966 007e 00       		.byte	0
 3967              	.LVUS25:
 3968 007f 0C       		.uleb128 .LVU154
 3969 0080 00       		.uleb128 .LVU158
 3970              	.LLST25:
 3971 0081 08       		.byte	0x8
 3972 0082 00000000 		.4byte	.LVL30
 3973 0086 08       		.uleb128 .LVL31-.LVL30
 3974 0087 03       		.uleb128 0x3
 3975 0088 08       		.byte	0x8
 3976 0089 30       		.byte	0x30
 3977 008a 9F       		.byte	0x9f
 3978 008b 00       		.byte	0
 3979              	.LVUS27:
 3980 008c 0B       		.uleb128 .LVU175
 3981 008d 00       		.uleb128 .LVU177
 3982              	.LLST27:
 3983 008e 08       		.byte	0x8
 3984 008f 0E000000 		.4byte	.LVL33
 3985 0093 04       		.uleb128 .LVL34-.LVL33
 3986 0094 02       		.uleb128 0x2
 3987 0095 30       		.byte	0x30
 3988 0096 9F       		.byte	0x9f
 3989 0097 00       		.byte	0
 3990              	.LVUS28:
ARM GAS  C:\Users\DEVELO~1\AppData\Local\Temp\ccmtuCvA.s 			page 71


 3991 0098 01       		.uleb128 .LVU183
 3992 0099 06       		.uleb128 .LVU188
 3993              	.LLST28:
 3994 009a 08       		.byte	0x8
 3995 009b 14000000 		.4byte	.LVL35
 3996 009f 00       		.uleb128 .LVL35-.LVL35
 3997 00a0 01       		.uleb128 0x1
 3998 00a1 50       		.byte	0x50
 3999 00a2 00       		.byte	0
 4000              	.LVUS7:
 4001 00a3 02       		.uleb128 .LVU125
 4002 00a4 00       		.uleb128 .LVU136
 4003 00a5 00       		.uleb128 .LVU136
 4004 00a6 00       		.uleb128 .LVU140
 4005 00a7 00       		.uleb128 .LVU140
 4006 00a8 00       		.uleb128 .LVU141
 4007              	.LLST7:
 4008 00a9 06       		.byte	0x6
 4009 00aa 14000000 		.4byte	.LVL22
 4010 00ae 04       		.byte	0x4
 4011 00af 00       		.uleb128 .LVL22-.LVL22
 4012 00b0 06       		.uleb128 .LVL24-.LVL22
 4013 00b1 01       		.uleb128 0x1
 4014 00b2 50       		.byte	0x50
 4015 00b3 04       		.byte	0x4
 4016 00b4 06       		.uleb128 .LVL24-.LVL22
 4017 00b5 10       		.uleb128 .LVL28-.LVL22
 4018 00b6 01       		.uleb128 0x1
 4019 00b7 54       		.byte	0x54
 4020 00b8 04       		.byte	0x4
 4021 00b9 10       		.uleb128 .LVL28-.LVL22
 4022 00ba 13       		.uleb128 .LVL29-1-.LVL22
 4023 00bb 01       		.uleb128 0x1
 4024 00bc 50       		.byte	0x50
 4025 00bd 00       		.byte	0
 4026              	.LVUS8:
 4027 00be 00       		.uleb128 .LVU134
 4028 00bf 00       		.uleb128 .LVU137
 4029              	.LLST8:
 4030 00c0 08       		.byte	0x8
 4031 00c1 16000000 		.4byte	.LVL23
 4032 00c5 05       		.uleb128 .LVL25-1-.LVL23
 4033 00c6 01       		.uleb128 0x1
 4034 00c7 53       		.byte	0x53
 4035 00c8 00       		.byte	0
 4036              	.LVUS9:
 4037 00c9 00       		.uleb128 .LVU138
 4038 00ca 00       		.uleb128 .LVU139
 4039 00cb 00       		.uleb128 .LVU139
 4040 00cc 00       		.uleb128 .LVU141
 4041              	.LLST9:
 4042 00cd 06       		.byte	0x6
 4043 00ce 1E000000 		.4byte	.LVL26
 4044 00d2 04       		.byte	0x4
 4045 00d3 00       		.uleb128 .LVL26-.LVL26
 4046 00d4 02       		.uleb128 .LVL27-.LVL26
 4047 00d5 01       		.uleb128 0x1
ARM GAS  C:\Users\DEVELO~1\AppData\Local\Temp\ccmtuCvA.s 			page 72


 4048 00d6 50       		.byte	0x50
 4049 00d7 04       		.byte	0x4
 4050 00d8 02       		.uleb128 .LVL27-.LVL26
 4051 00d9 09       		.uleb128 .LVL29-1-.LVL26
 4052 00da 01       		.uleb128 0x1
 4053 00db 51       		.byte	0x51
 4054 00dc 00       		.byte	0
 4055              	.LVUS11:
 4056 00dd 00       		.uleb128 .LVU111
 4057 00de 02       		.uleb128 .LVU125
 4058              	.LLST11:
 4059 00df 08       		.byte	0x8
 4060 00e0 10000000 		.4byte	.LVL21
 4061 00e4 04       		.uleb128 .LVL22-.LVL21
 4062 00e5 01       		.uleb128 0x1
 4063 00e6 50       		.byte	0x50
 4064 00e7 00       		.byte	0
 4065              	.LVUS13:
 4066 00e8 0C       		.uleb128 .LVU100
 4067 00e9 00       		.uleb128 .LVU104
 4068              	.LLST13:
 4069 00ea 08       		.byte	0x8
 4070 00eb 00000000 		.4byte	.LVL18
 4071 00ef 08       		.uleb128 .LVL19-.LVL18
 4072 00f0 03       		.uleb128 0x3
 4073 00f1 08       		.byte	0x8
 4074 00f2 30       		.byte	0x30
 4075 00f3 9F       		.byte	0x9f
 4076 00f4 00       		.byte	0
 4077              	.LVUS15:
 4078 00f5 0A       		.uleb128 .LVU121
 4079 00f6 00       		.uleb128 .LVU123
 4080              	.LLST15:
 4081 00f7 08       		.byte	0x8
 4082 00f8 10000000 		.4byte	.LVL21
 4083 00fc 04       		.uleb128 .LVL22-.LVL21
 4084 00fd 02       		.uleb128 0x2
 4085 00fe 30       		.byte	0x30
 4086 00ff 9F       		.byte	0x9f
 4087 0100 00       		.byte	0
 4088              	.LVUS16:
 4089 0101 04       		.uleb128 .LVU127
 4090 0102 09       		.uleb128 .LVU132
 4091              	.LLST16:
 4092 0103 08       		.byte	0x8
 4093 0104 14000000 		.4byte	.LVL22
 4094 0108 00       		.uleb128 .LVL22-.LVL22
 4095 0109 01       		.uleb128 0x1
 4096 010a 50       		.byte	0x50
 4097 010b 00       		.byte	0
 4098              	.LVUS5:
 4099 010c 00       		.uleb128 0
 4100 010d 00       		.uleb128 .LVU85
 4101 010e 00       		.uleb128 .LVU85
 4102 010f 00       		.uleb128 0
 4103              	.LLST5:
 4104 0110 06       		.byte	0x6
ARM GAS  C:\Users\DEVELO~1\AppData\Local\Temp\ccmtuCvA.s 			page 73


 4105 0111 00000000 		.4byte	.LVL16
 4106 0115 04       		.byte	0x4
 4107 0116 00       		.uleb128 .LVL16-.LVL16
 4108 0117 19       		.uleb128 .LVL17-1-.LVL16
 4109 0118 01       		.uleb128 0x1
 4110 0119 50       		.byte	0x50
 4111 011a 04       		.byte	0x4
 4112 011b 19       		.uleb128 .LVL17-1-.LVL16
 4113 011c 24       		.uleb128 .LFE357-.LVL16
 4114 011d 04       		.uleb128 0x4
 4115 011e A3       		.byte	0xa3
 4116 011f 01       		.uleb128 0x1
 4117 0120 50       		.byte	0x50
 4118 0121 9F       		.byte	0x9f
 4119 0122 00       		.byte	0
 4120              	.LVUS6:
 4121 0123 00       		.uleb128 .LVU85
 4122 0124 00       		.uleb128 0
 4123              	.LLST6:
 4124 0125 08       		.byte	0x8
 4125 0126 1A000000 		.4byte	.LVL17
 4126 012a 0A       		.uleb128 .LFE357-.LVL17
 4127 012b 01       		.uleb128 0x1
 4128 012c 50       		.byte	0x50
 4129 012d 00       		.byte	0
 4130              	.LVUS4:
 4131 012e 00       		.uleb128 0
 4132 012f 00       		.uleb128 .LVU59
 4133 0130 00       		.uleb128 .LVU59
 4134 0131 00       		.uleb128 .LVU67
 4135 0132 00       		.uleb128 .LVU67
 4136 0133 00       		.uleb128 0
 4137              	.LLST4:
 4138 0134 06       		.byte	0x6
 4139 0135 00000000 		.4byte	.LVL12
 4140 0139 04       		.byte	0x4
 4141 013a 00       		.uleb128 .LVL12-.LVL12
 4142 013b 12       		.uleb128 .LVL13-.LVL12
 4143 013c 01       		.uleb128 0x1
 4144 013d 50       		.byte	0x50
 4145 013e 04       		.byte	0x4
 4146 013f 12       		.uleb128 .LVL13-.LVL12
 4147 0140 20       		.uleb128 .LVL14-.LVL12
 4148 0141 01       		.uleb128 0x1
 4149 0142 5C       		.byte	0x5c
 4150 0143 04       		.byte	0x4
 4151 0144 20       		.uleb128 .LVL14-.LVL12
 4152 0145 24       		.uleb128 .LFE356-.LVL12
 4153 0146 04       		.uleb128 0x4
 4154 0147 A3       		.byte	0xa3
 4155 0148 01       		.uleb128 0x1
 4156 0149 50       		.byte	0x50
 4157 014a 9F       		.byte	0x9f
 4158 014b 00       		.byte	0
 4159              	.LVUS3:
 4160 014c 00       		.uleb128 0
 4161 014d 00       		.uleb128 .LVU41
ARM GAS  C:\Users\DEVELO~1\AppData\Local\Temp\ccmtuCvA.s 			page 74


 4162 014e 00       		.uleb128 .LVU41
 4163 014f 00       		.uleb128 .LVU48
 4164 0150 00       		.uleb128 .LVU48
 4165 0151 00       		.uleb128 0
 4166              	.LLST3:
 4167 0152 06       		.byte	0x6
 4168 0153 00000000 		.4byte	.LVL8
 4169 0157 04       		.byte	0x4
 4170 0158 00       		.uleb128 .LVL8-.LVL8
 4171 0159 10       		.uleb128 .LVL9-.LVL8
 4172 015a 01       		.uleb128 0x1
 4173 015b 50       		.byte	0x50
 4174 015c 04       		.byte	0x4
 4175 015d 10       		.uleb128 .LVL9-.LVL8
 4176 015e 18       		.uleb128 .LVL10-.LVL8
 4177 015f 01       		.uleb128 0x1
 4178 0160 52       		.byte	0x52
 4179 0161 04       		.byte	0x4
 4180 0162 18       		.uleb128 .LVL10-.LVL8
 4181 0163 1E       		.uleb128 .LFE355-.LVL8
 4182 0164 04       		.uleb128 0x4
 4183 0165 A3       		.byte	0xa3
 4184 0166 01       		.uleb128 0x1
 4185 0167 50       		.byte	0x50
 4186 0168 9F       		.byte	0x9f
 4187 0169 00       		.byte	0
 4188              	.LVUS2:
 4189 016a 00       		.uleb128 0
 4190 016b 00       		.uleb128 .LVU24
 4191 016c 00       		.uleb128 .LVU24
 4192 016d 00       		.uleb128 .LVU33
 4193 016e 00       		.uleb128 .LVU33
 4194 016f 00       		.uleb128 0
 4195              	.LLST2:
 4196 0170 06       		.byte	0x6
 4197 0171 00000000 		.4byte	.LVL5
 4198 0175 04       		.byte	0x4
 4199 0176 00       		.uleb128 .LVL5-.LVL5
 4200 0177 0A       		.uleb128 .LVL6-.LVL5
 4201 0178 01       		.uleb128 0x1
 4202 0179 50       		.byte	0x50
 4203 017a 04       		.byte	0x4
 4204 017b 0A       		.uleb128 .LVL6-.LVL5
 4205 017c 1D       		.uleb128 .LVL7-1-.LVL5
 4206 017d 01       		.uleb128 0x1
 4207 017e 52       		.byte	0x52
 4208 017f 04       		.byte	0x4
 4209 0180 1D       		.uleb128 .LVL7-1-.LVL5
 4210 0181 1E       		.uleb128 .LFE354-.LVL5
 4211 0182 04       		.uleb128 0x4
 4212 0183 A3       		.byte	0xa3
 4213 0184 01       		.uleb128 0x1
 4214 0185 50       		.byte	0x50
 4215 0186 9F       		.byte	0x9f
 4216 0187 00       		.byte	0
 4217              	.LVUS1:
 4218 0188 00       		.uleb128 0
ARM GAS  C:\Users\DEVELO~1\AppData\Local\Temp\ccmtuCvA.s 			page 75


 4219 0189 00       		.uleb128 .LVU12
 4220 018a 00       		.uleb128 .LVU12
 4221 018b 00       		.uleb128 .LVU17
 4222 018c 00       		.uleb128 .LVU17
 4223 018d 00       		.uleb128 0
 4224              	.LLST1:
 4225 018e 06       		.byte	0x6
 4226 018f 00000000 		.4byte	.LVL2
 4227 0193 04       		.byte	0x4
 4228 0194 00       		.uleb128 .LVL2-.LVL2
 4229 0195 08       		.uleb128 .LVL3-.LVL2
 4230 0196 01       		.uleb128 0x1
 4231 0197 50       		.byte	0x50
 4232 0198 04       		.byte	0x4
 4233 0199 08       		.uleb128 .LVL3-.LVL2
 4234 019a 11       		.uleb128 .LVL4-1-.LVL2
 4235 019b 01       		.uleb128 0x1
 4236 019c 52       		.byte	0x52
 4237 019d 04       		.byte	0x4
 4238 019e 11       		.uleb128 .LVL4-1-.LVL2
 4239 019f 12       		.uleb128 .LFE353-.LVL2
 4240 01a0 04       		.uleb128 0x4
 4241 01a1 A3       		.byte	0xa3
 4242 01a2 01       		.uleb128 0x1
 4243 01a3 50       		.byte	0x50
 4244 01a4 9F       		.byte	0x9f
 4245 01a5 00       		.byte	0
 4246              	.LVUS0:
 4247 01a6 00       		.uleb128 0
 4248 01a7 00       		.uleb128 .LVU5
 4249 01a8 00       		.uleb128 .LVU5
 4250 01a9 00       		.uleb128 0
 4251              	.LLST0:
 4252 01aa 06       		.byte	0x6
 4253 01ab 00000000 		.4byte	.LVL0
 4254 01af 04       		.byte	0x4
 4255 01b0 00       		.uleb128 .LVL0-.LVL0
 4256 01b1 09       		.uleb128 .LVL1-1-.LVL0
 4257 01b2 01       		.uleb128 0x1
 4258 01b3 50       		.byte	0x50
 4259 01b4 04       		.byte	0x4
 4260 01b5 09       		.uleb128 .LVL1-1-.LVL0
 4261 01b6 0A       		.uleb128 .LFE352-.LVL0
 4262 01b7 04       		.uleb128 0x4
 4263 01b8 A3       		.byte	0xa3
 4264 01b9 01       		.uleb128 0x1
 4265 01ba 50       		.byte	0x50
 4266 01bb 9F       		.byte	0x9f
 4267 01bc 00       		.byte	0
 4268              	.Ldebug_loc3:
 4269              		.section	.debug_aranges,"",%progbits
 4270 0000 54000000 		.4byte	0x54
 4271 0004 0200     		.2byte	0x2
 4272 0006 00000000 		.4byte	.Ldebug_info0
 4273 000a 04       		.byte	0x4
 4274 000b 00       		.byte	0
 4275 000c 0000     		.2byte	0
ARM GAS  C:\Users\DEVELO~1\AppData\Local\Temp\ccmtuCvA.s 			page 76


 4276 000e 0000     		.2byte	0
 4277 0010 00000000 		.4byte	.LFB352
 4278 0014 0A000000 		.4byte	.LFE352-.LFB352
 4279 0018 00000000 		.4byte	.LFB353
 4280 001c 12000000 		.4byte	.LFE353-.LFB353
 4281 0020 00000000 		.4byte	.LFB354
 4282 0024 1E000000 		.4byte	.LFE354-.LFB354
 4283 0028 00000000 		.4byte	.LFB355
 4284 002c 1E000000 		.4byte	.LFE355-.LFB355
 4285 0030 00000000 		.4byte	.LFB356
 4286 0034 24000000 		.4byte	.LFE356-.LFB356
 4287 0038 00000000 		.4byte	.LFB357
 4288 003c 24000000 		.4byte	.LFE357-.LFB357
 4289 0040 00000000 		.4byte	.LFB358
 4290 0044 28000000 		.4byte	.LFE358-.LFB358
 4291 0048 00000000 		.4byte	.LFB359
 4292 004c 30000000 		.4byte	.LFE359-.LFB359
 4293 0050 00000000 		.4byte	0
 4294 0054 00000000 		.4byte	0
 4295              		.section	.debug_rnglists,"",%progbits
 4296              	.Ldebug_ranges0:
 4297 0000 81000000 		.4byte	.Ldebug_ranges3-.Ldebug_ranges2
 4298              	.Ldebug_ranges2:
 4299 0004 0500     		.2byte	0x5
 4300 0006 04       		.byte	0x4
 4301 0007 00       		.byte	0
 4302 0008 00000000 		.4byte	0
 4303              	.LLRL10:
 4304 000c 05       		.byte	0x5
 4305 000d 00000000 		.4byte	.LBB60
 4306 0011 04       		.byte	0x4
 4307 0012 00       		.uleb128 .LBB60-.LBB60
 4308 0013 00       		.uleb128 .LBE60-.LBB60
 4309 0014 04       		.byte	0x4
 4310 0015 02       		.uleb128 .LBB81-.LBB60
 4311 0016 14       		.uleb128 .LBE81-.LBB60
 4312 0017 00       		.byte	0
 4313              	.LLRL12:
 4314 0018 05       		.byte	0x5
 4315 0019 00000000 		.4byte	.LBB62
 4316 001d 04       		.byte	0x4
 4317 001e 00       		.uleb128 .LBB62-.LBB62
 4318 001f 00       		.uleb128 .LBE62-.LBB62
 4319 0020 04       		.byte	0x4
 4320 0021 02       		.uleb128 .LBB69-.LBB62
 4321 0022 08       		.uleb128 .LBE69-.LBB62
 4322 0023 00       		.byte	0
 4323              	.LLRL14:
 4324 0024 05       		.byte	0x5
 4325 0025 0C000000 		.4byte	.LBB70
 4326 0029 04       		.byte	0x4
 4327 002a 00       		.uleb128 .LBB70-.LBB70
 4328 002b 02       		.uleb128 .LBE70-.LBB70
 4329 002c 04       		.byte	0x4
 4330 002d 04       		.uleb128 .LBB79-.LBB70
 4331 002e 08       		.uleb128 .LBE79-.LBB70
 4332 002f 00       		.byte	0
ARM GAS  C:\Users\DEVELO~1\AppData\Local\Temp\ccmtuCvA.s 			page 77


 4333              	.LLRL21:
 4334 0030 05       		.byte	0x5
 4335 0031 00000000 		.4byte	.LBB84
 4336 0035 04       		.byte	0x4
 4337 0036 00       		.uleb128 .LBB84-.LBB84
 4338 0037 00       		.uleb128 .LBE84-.LBB84
 4339 0038 04       		.byte	0x4
 4340 0039 02       		.uleb128 .LBB105-.LBB84
 4341 003a 12       		.uleb128 .LBE105-.LBB84
 4342 003b 00       		.byte	0
 4343              	.LLRL24:
 4344 003c 05       		.byte	0x5
 4345 003d 00000000 		.4byte	.LBB86
 4346 0041 04       		.byte	0x4
 4347 0042 00       		.uleb128 .LBB86-.LBB86
 4348 0043 00       		.uleb128 .LBE86-.LBB86
 4349 0044 04       		.byte	0x4
 4350 0045 02       		.uleb128 .LBB93-.LBB86
 4351 0046 08       		.uleb128 .LBE93-.LBB86
 4352 0047 00       		.byte	0
 4353              	.LLRL26:
 4354 0048 05       		.byte	0x5
 4355 0049 0C000000 		.4byte	.LBB94
 4356 004d 04       		.byte	0x4
 4357 004e 00       		.uleb128 .LBB94-.LBB94
 4358 004f 02       		.uleb128 .LBE94-.LBB94
 4359 0050 04       		.byte	0x4
 4360 0051 02       		.uleb128 .LBB103-.LBB94
 4361 0052 06       		.uleb128 .LBE103-.LBB94
 4362 0053 00       		.byte	0
 4363              	.LLRL29:
 4364 0054 07       		.byte	0x7
 4365 0055 00000000 		.4byte	.LFB352
 4366 0059 0A       		.uleb128 .LFE352-.LFB352
 4367 005a 07       		.byte	0x7
 4368 005b 00000000 		.4byte	.LFB353
 4369 005f 12       		.uleb128 .LFE353-.LFB353
 4370 0060 07       		.byte	0x7
 4371 0061 00000000 		.4byte	.LFB354
 4372 0065 1E       		.uleb128 .LFE354-.LFB354
 4373 0066 07       		.byte	0x7
 4374 0067 00000000 		.4byte	.LFB355
 4375 006b 1E       		.uleb128 .LFE355-.LFB355
 4376 006c 07       		.byte	0x7
 4377 006d 00000000 		.4byte	.LFB356
 4378 0071 24       		.uleb128 .LFE356-.LFB356
 4379 0072 07       		.byte	0x7
 4380 0073 00000000 		.4byte	.LFB357
 4381 0077 24       		.uleb128 .LFE357-.LFB357
 4382 0078 07       		.byte	0x7
 4383 0079 00000000 		.4byte	.LFB358
 4384 007d 28       		.uleb128 .LFE358-.LFB358
 4385 007e 07       		.byte	0x7
 4386 007f 00000000 		.4byte	.LFB359
 4387 0083 30       		.uleb128 .LFE359-.LFB359
 4388 0084 00       		.byte	0
 4389              	.Ldebug_ranges3:
ARM GAS  C:\Users\DEVELO~1\AppData\Local\Temp\ccmtuCvA.s 			page 78


 4390              		.section	.debug_line,"",%progbits
 4391              	.Ldebug_line0:
 4392 0000 24060000 		.section	.debug_str,"MS",%progbits,1
 4392      0300E902 
 4392      00000201 
 4392      FB0E0D00 
 4392      01010101 
 4393              	.LASF118:
 4394 0000 72656164 		.ascii	"ready_list_t\000"
 4394      795F6C69 
 4394      73745F74 
 4394      00
 4395              	.LASF109:
 4396 000d 77747472 		.ascii	"wttrp\000"
 4396      7000
 4397              	.LASF107:
 4398 0013 7264796D 		.ascii	"rdymsg\000"
 4398      736700
 4399              	.LASF53:
 4400 001a 72666375 		.ascii	"rfcu\000"
 4400      00
 4401              	.LASF27:
 4402 001f 6576656E 		.ascii	"eventmask_t\000"
 4402      746D6173 
 4402      6B5F7400 
 4403              	.LASF6:
 4404 002b 5F5F7569 		.ascii	"__uint8_t\000"
 4404      6E74385F 
 4404      7400
 4405              	.LASF87:
 4406 0035 70726576 		.ascii	"prev\000"
 4406      00
 4407              	.LASF80:
 4408 003a 706F7274 		.ascii	"port_intctx\000"
 4408      5F696E74 
 4408      63747800 
 4409              	.LASF128:
 4410 0046 76615F6C 		.ascii	"va_list\000"
 4410      69737400 
 4411              	.LASF50:
 4412 004e 76746C69 		.ascii	"vtlist\000"
 4412      737400
 4413              	.LASF72:
 4414 0055 74797065 		.ascii	"type\000"
 4414      00
 4415              	.LASF10:
 4416 005a 6C6F6E67 		.ascii	"long int\000"
 4416      20696E74 
 4416      00
 4417              	.LASF75:
 4418 0063 74726163 		.ascii	"trace_event_t\000"
 4418      655F6576 
 4418      656E745F 
 4418      7400
 4419              	.LASF119:
 4420 0071 63685F6F 		.ascii	"ch_os_instance_config\000"
 4420      735F696E 
ARM GAS  C:\Users\DEVELO~1\AppData\Local\Temp\ccmtuCvA.s 			page 79


 4420      7374616E 
 4420      63655F63 
 4420      6F6E6669 
 4421              	.LASF76:
 4422 0087 73757370 		.ascii	"suspended\000"
 4422      656E6465 
 4422      6400
 4423              	.LASF70:
 4424 0091 68616C74 		.ascii	"halt\000"
 4424      00
 4425              	.LASF39:
 4426 0096 64697370 		.ascii	"dispose\000"
 4426      6F736500 
 4427              	.LASF20:
 4428 009e 706F7274 		.ascii	"port_stkline_t\000"
 4428      5F73746B 
 4428      6C696E65 
 4428      5F7400
 4429              	.LASF56:
 4430 00ad 6D61696E 		.ascii	"mainthread\000"
 4430      74687265 
 4430      616400
 4431              	.LASF110:
 4432 00b8 73656E74 		.ascii	"sentmsg\000"
 4432      6D736700 
 4433              	.LASF93:
 4434 00c0 64656C74 		.ascii	"delta\000"
 4434      6100
 4435              	.LASF84:
 4436 00c6 6E657874 		.ascii	"next\000"
 4436      00
 4437              	.LASF40:
 4438 00cb 6F626A65 		.ascii	"object\000"
 4438      637400
 4439              	.LASF121:
 4440 00d2 63737461 		.ascii	"cstack_end\000"
 4440      636B5F65 
 4440      6E6400
 4441              	.LASF1:
 4442 00dd 6C6F6E67 		.ascii	"long long int\000"
 4442      206C6F6E 
 4442      6720696E 
 4442      7400
 4443              	.LASF3:
 4444 00eb 7369676E 		.ascii	"signed char\000"
 4444      65642063 
 4444      68617200 
 4445              	.LASF12:
 4446 00f7 6C6F6E67 		.ascii	"long unsigned int\000"
 4446      20756E73 
 4446      69676E65 
 4446      6420696E 
 4446      7400
 4447              	.LASF92:
 4448 0109 63685F64 		.ascii	"ch_delta_list\000"
 4448      656C7461 
 4448      5F6C6973 
ARM GAS  C:\Users\DEVELO~1\AppData\Local\Temp\ccmtuCvA.s 			page 80


 4448      7400
 4449              	.LASF157:
 4450 0117 62617365 		.ascii	"basePri\000"
 4450      50726900 
 4451              	.LASF34:
 4452 011f 73746174 		.ascii	"state\000"
 4452      6500
 4453              	.LASF21:
 4454 0125 73746B6C 		.ascii	"stkline_t\000"
 4454      696E655F 
 4454      7400
 4455              	.LASF139:
 4456 012f 63684D73 		.ascii	"chMsgSend\000"
 4456      6753656E 
 4456      6400
 4457              	.LASF132:
 4458 0139 64656C65 		.ascii	"delegate_fn2_t\000"
 4458      67617465 
 4458      5F666E32 
 4458      5F7400
 4459              	.LASF23:
 4460 0148 74737461 		.ascii	"tstate_t\000"
 4460      74655F74 
 4460      00
 4461              	.LASF148:
 4462 0151 5F5F6368 		.ascii	"__ch_delegate_fn1\000"
 4462      5F64656C 
 4462      65676174 
 4462      655F666E 
 4462      3100
 4463              	.LASF59:
 4464 0163 63685F72 		.ascii	"ch_rfcu\000"
 4464      66637500 
 4465              	.LASF16:
 4466 016b 75696E74 		.ascii	"uint16_t\000"
 4466      31365F74 
 4466      00
 4467              	.LASF79:
 4468 0174 74726163 		.ascii	"trace_buffer_t\000"
 4468      655F6275 
 4468      66666572 
 4468      5F7400
 4469              	.LASF161:
 4470 0183 5F5F7661 		.ascii	"__va_list\000"
 4470      5F6C6973 
 4470      7400
 4471              	.LASF100:
 4472 018d 63685F72 		.ascii	"ch_registry\000"
 4472      65676973 
 4472      74727900 
 4473              	.LASF108:
 4474 0199 65786974 		.ascii	"exitcode\000"
 4474      636F6465 
 4474      00
 4475              	.LASF11:
 4476 01a2 5F5F7569 		.ascii	"__uint32_t\000"
 4476      6E743332 
ARM GAS  C:\Users\DEVELO~1\AppData\Local\Temp\ccmtuCvA.s 			page 81


 4476      5F7400
 4477              	.LASF60:
 4478 01ad 6D61736B 		.ascii	"mask\000"
 4478      00
 4479              	.LASF135:
 4480 01b2 76656E65 		.ascii	"veneer\000"
 4480      657200
 4481              	.LASF137:
 4482 01b9 63616C6C 		.ascii	"call_message_t\000"
 4482      5F6D6573 
 4482      73616765 
 4482      5F7400
 4483              	.LASF62:
 4484 01c8 63685F73 		.ascii	"ch_system_debug\000"
 4484      79737465 
 4484      6D5F6465 
 4484      62756700 
 4485              	.LASF41:
 4486 01d8 77616974 		.ascii	"waiting\000"
 4486      696E6700 
 4487              	.LASF122:
 4488 01e0 69646C65 		.ascii	"idlestack_base\000"
 4488      73746163 
 4488      6B5F6261 
 4488      736500
 4489              	.LASF125:
 4490 01ef 6D757465 		.ascii	"mutex_t\000"
 4490      785F7400 
 4491              	.LASF67:
 4492 01f7 73797369 		.ascii	"sysinterval_t\000"
 4492      6E746572 
 4492      76616C5F 
 4492      7400
 4493              	.LASF28:
 4494 0205 636E745F 		.ascii	"cnt_t\000"
 4494      7400
 4495              	.LASF42:
 4496 020b 6D736771 		.ascii	"msgqueue\000"
 4496      75657565 
 4496      00
 4497              	.LASF0:
 4498 0214 756E7369 		.ascii	"unsigned int\000"
 4498      676E6564 
 4498      20696E74 
 4498      00
 4499              	.LASF111:
 4500 0221 77747365 		.ascii	"wtsemp\000"
 4500      6D7000
 4501              	.LASF155:
 4502 0228 706F7274 		.ascii	"port_unlock\000"
 4502      5F756E6C 
 4502      6F636B00 
 4503              	.LASF133:
 4504 0234 64656C65 		.ascii	"delegate_fn3_t\000"
 4504      67617465 
 4504      5F666E33 
 4504      5F7400
ARM GAS  C:\Users\DEVELO~1\AppData\Local\Temp\ccmtuCvA.s 			page 82


 4505              	.LASF65:
 4506 0243 73797374 		.ascii	"system_debug_t\000"
 4506      656D5F64 
 4506      65627567 
 4506      5F7400
 4507              	.LASF160:
 4508 0252 433A5C43 		.ascii	"C:\\ChibiStudio\\ChibiOS-master\\demos\\STM32\\CUST"
 4508      68696269 
 4508      53747564 
 4508      696F5C43 
 4508      68696269 
 4509 0280 4F4D5F48 		.ascii	"OM_H743IIT6_maj\000"
 4509      37343349 
 4509      4954365F 
 4509      6D616A00 
 4510              	.LASF85:
 4511 0290 63685F71 		.ascii	"ch_queue_t\000"
 4511      75657565 
 4511      5F7400
 4512              	.LASF150:
 4513 029b 63684D73 		.ascii	"chMsgGet\000"
 4513      67476574 
 4513      00
 4514              	.LASF142:
 4515 02a4 74696D65 		.ascii	"timeout\000"
 4515      6F757400 
 4516              	.LASF116:
 4517 02ac 63685F72 		.ascii	"ch_ready_list\000"
 4517      65616479 
 4517      5F6C6973 
 4517      7400
 4518              	.LASF37:
 4519 02ba 6E616D65 		.ascii	"name\000"
 4519      00
 4520              	.LASF104:
 4521 02bf 74687265 		.ascii	"thread_dispose_t\000"
 4521      61645F64 
 4521      6973706F 
 4521      73655F74 
 4521      00
 4522              	.LASF101:
 4523 02d0 71756575 		.ascii	"queue\000"
 4523      6500
 4524              	.LASF52:
 4525 02d6 636F7265 		.ascii	"core_id\000"
 4525      5F696400 
 4526              	.LASF163:
 4527 02de 63684D73 		.ascii	"chMsgWaitS\000"
 4527      67576169 
 4527      745300
 4528              	.LASF77:
 4529 02e9 73697A65 		.ascii	"size\000"
 4529      00
 4530              	.LASF8:
 4531 02ee 73686F72 		.ascii	"short unsigned int\000"
 4531      7420756E 
 4531      7369676E 
ARM GAS  C:\Users\DEVELO~1\AppData\Local\Temp\ccmtuCvA.s 			page 83


 4531      65642069 
 4531      6E7400
 4532              	.LASF47:
 4533 0301 63685F74 		.ascii	"ch_thread\000"
 4533      68726561 
 4533      6400
 4534              	.LASF26:
 4535 030b 6D73675F 		.ascii	"msg_t\000"
 4535      7400
 4536              	.LASF43:
 4537 0311 6570656E 		.ascii	"epending\000"
 4537      64696E67 
 4537      00
 4538              	.LASF158:
 4539 031a 474E5520 		.ascii	"GNU C17 11.3.1 20220712 -mcpu=cortex-m7 -mthumb -mf"
 4539      43313720 
 4539      31312E33 
 4539      2E312032 
 4539      30323230 
 4540 034d 6C6F6174 		.ascii	"loat-abi=hard -mfpu=fpv5-d16 -march=armv7e-m+fp.dp "
 4540      2D616269 
 4540      3D686172 
 4540      64202D6D 
 4540      6670753D 
 4541 0380 2D676764 		.ascii	"-ggdb -O2 -ffunction-sections -fdata-sections -fno-"
 4541      62202D4F 
 4541      32202D66 
 4541      66756E63 
 4541      74696F6E 
 4542 03b3 636F6D6D 		.ascii	"common\000"
 4542      6F6E00
 4543              	.LASF22:
 4544 03ba 746D6F64 		.ascii	"tmode_t\000"
 4544      655F7400 
 4545              	.LASF83:
 4546 03c2 63685F6C 		.ascii	"ch_list\000"
 4546      69737400 
 4547              	.LASF9:
 4548 03ca 5F5F696E 		.ascii	"__int32_t\000"
 4548      7433325F 
 4548      7400
 4549              	.LASF14:
 4550 03d4 6C6F6E67 		.ascii	"long long unsigned int\000"
 4550      206C6F6E 
 4550      6720756E 
 4550      7369676E 
 4550      65642069 
 4551              	.LASF99:
 4552 03eb 76697274 		.ascii	"virtual_timers_list_t\000"
 4552      75616C5F 
 4552      74696D65 
 4552      72735F6C 
 4552      6973745F 
 4553              	.LASF73:
 4554 0401 72747374 		.ascii	"rtstamp\000"
 4554      616D7000 
 4555              	.LASF98:
ARM GAS  C:\Users\DEVELO~1\AppData\Local\Temp\ccmtuCvA.s 			page 84


 4556 0409 6C617374 		.ascii	"laststamp\000"
 4556      7374616D 
 4556      7000
 4557              	.LASF145:
 4558 0413 5F5F6368 		.ascii	"__ch_delegate_fn4\000"
 4558      5F64656C 
 4558      65676174 
 4558      655F666E 
 4558      3400
 4559              	.LASF58:
 4560 0425 72666375 		.ascii	"rfcu_mask_t\000"
 4560      5F6D6173 
 4560      6B5F7400 
 4561              	.LASF103:
 4562 0431 74687265 		.ascii	"thread_reference_t\000"
 4562      61645F72 
 4562      65666572 
 4562      656E6365 
 4562      5F7400
 4563              	.LASF94:
 4564 0444 63685F76 		.ascii	"ch_virtual_timers_list\000"
 4564      69727475 
 4564      616C5F74 
 4564      696D6572 
 4564      735F6C69 
 4565              	.LASF166:
 4566 045b 5F5F7365 		.ascii	"__set_BASEPRI\000"
 4566      745F4241 
 4566      53455052 
 4566      4900
 4567              	.LASF82:
 4568 0469 63685F6C 		.ascii	"ch_list_t\000"
 4568      6973745F 
 4568      7400
 4569              	.LASF127:
 4570 0473 5F5F676E 		.ascii	"__gnuc_va_list\000"
 4570      75635F76 
 4570      615F6C69 
 4570      737400
 4571              	.LASF120:
 4572 0482 63737461 		.ascii	"cstack_base\000"
 4572      636B5F62 
 4572      61736500 
 4573              	.LASF19:
 4574 048e 75696E74 		.ascii	"uint64_t\000"
 4574      36345F74 
 4574      00
 4575              	.LASF129:
 4576 0497 64656C65 		.ascii	"delegate_veneer_t\000"
 4576      67617465 
 4576      5F76656E 
 4576      6565725F 
 4576      7400
 4577              	.LASF140:
 4578 04a9 63684465 		.ascii	"chDelegateDispatchTimeout\000"
 4578      6C656761 
 4578      74654469 
ARM GAS  C:\Users\DEVELO~1\AppData\Local\Temp\ccmtuCvA.s 			page 85


 4578      73706174 
 4578      63685469 
 4579              	.LASF141:
 4580 04c3 63684465 		.ascii	"chDelegateCallVeneer\000"
 4580      6C656761 
 4580      74654361 
 4580      6C6C5665 
 4580      6E656572 
 4581              	.LASF81:
 4582 04d8 706F7274 		.ascii	"port_context\000"
 4582      5F636F6E 
 4582      74657874 
 4582      00
 4583              	.LASF48:
 4584 04e5 63685F6F 		.ascii	"ch_os_instance\000"
 4584      735F696E 
 4584      7374616E 
 4584      636500
 4585              	.LASF74:
 4586 04f4 74696D65 		.ascii	"time\000"
 4586      00
 4587              	.LASF90:
 4588 04f9 7072696F 		.ascii	"prio\000"
 4588      00
 4589              	.LASF123:
 4590 04fe 69646C65 		.ascii	"idlestack_end\000"
 4590      73746163 
 4590      6B5F656E 
 4590      6400
 4591              	.LASF117:
 4592 050c 63757272 		.ascii	"current\000"
 4592      656E7400 
 4593              	.LASF13:
 4594 0514 5F5F7569 		.ascii	"__uint64_t\000"
 4594      6E743634 
 4594      5F7400
 4595              	.LASF136:
 4596 051f 61726773 		.ascii	"argsp\000"
 4596      7000
 4597              	.LASF97:
 4598 0525 6C617374 		.ascii	"lastdelta\000"
 4598      64656C74 
 4598      6100
 4599              	.LASF29:
 4600 052f 636F7265 		.ascii	"core_id_t\000"
 4600      5F69645F 
 4600      7400
 4601              	.LASF24:
 4602 0539 74726566 		.ascii	"trefs_t\000"
 4602      735F7400 
 4603              	.LASF36:
 4604 0541 72656673 		.ascii	"refs\000"
 4604      00
 4605              	.LASF71:
 4606 0546 75736572 		.ascii	"user\000"
 4606      00
 4607              	.LASF25:
ARM GAS  C:\Users\DEVELO~1\AppData\Local\Temp\ccmtuCvA.s 			page 86


 4608 054b 74707269 		.ascii	"tprio_t\000"
 4608      6F5F7400 
 4609              	.LASF86:
 4610 0553 63685F71 		.ascii	"ch_queue\000"
 4610      75657565 
 4610      00
 4611              	.LASF126:
 4612 055c 5F426F6F 		.ascii	"_Bool\000"
 4612      6C00
 4613              	.LASF17:
 4614 0562 696E7433 		.ascii	"int32_t\000"
 4614      325F7400 
 4615              	.LASF4:
 4616 056a 756E7369 		.ascii	"unsigned char\000"
 4616      676E6564 
 4616      20636861 
 4616      7200
 4617              	.LASF61:
 4618 0578 72666375 		.ascii	"rfcu_t\000"
 4618      5F7400
 4619              	.LASF5:
 4620 057f 73686F72 		.ascii	"short int\000"
 4620      7420696E 
 4620      7400
 4621              	.LASF96:
 4622 0589 6C617374 		.ascii	"lasttime\000"
 4622      74696D65 
 4622      00
 4623              	.LASF68:
 4624 0592 77746F62 		.ascii	"wtobjp\000"
 4624      6A7000
 4625              	.LASF113:
 4626 0599 65776D61 		.ascii	"ewmask\000"
 4626      736B00
 4627              	.LASF138:
 4628 05a0 63684D73 		.ascii	"chMsgWaitTimeoutS\000"
 4628      67576169 
 4628      7454696D 
 4628      656F7574 
 4628      5300
 4629              	.LASF153:
 4630 05b2 5F5F6675 		.ascii	"__func__\000"
 4630      6E635F5F 
 4630      00
 4631              	.LASF154:
 4632 05bb 63685379 		.ascii	"chSysLock\000"
 4632      734C6F63 
 4632      6B00
 4633              	.LASF69:
 4634 05c5 72656173 		.ascii	"reason\000"
 4634      6F6E00
 4635              	.LASF164:
 4636 05cc 63684D73 		.ascii	"chMsgRelease\000"
 4636      6752656C 
 4636      65617365 
 4636      00
 4637              	.LASF114:
ARM GAS  C:\Users\DEVELO~1\AppData\Local\Temp\ccmtuCvA.s 			page 87


 4638 05d9 63685F73 		.ascii	"ch_semaphore\000"
 4638      656D6170 
 4638      686F7265 
 4638      00
 4639              	.LASF102:
 4640 05e6 72656769 		.ascii	"registry_t\000"
 4640      73747279 
 4640      5F7400
 4641              	.LASF18:
 4642 05f1 75696E74 		.ascii	"uint32_t\000"
 4642      33325F74 
 4642      00
 4643              	.LASF112:
 4644 05fa 77746D74 		.ascii	"wtmtxp\000"
 4644      787000
 4645              	.LASF31:
 4646 0601 6F776E65 		.ascii	"owner\000"
 4646      7200
 4647              	.LASF45:
 4648 0607 7265616C 		.ascii	"realprio\000"
 4648      7072696F 
 4648      00
 4649              	.LASF2:
 4650 0610 6C6F6E67 		.ascii	"long double\000"
 4650      20646F75 
 4650      626C6500 
 4651              	.LASF32:
 4652 061c 77616261 		.ascii	"wabase\000"
 4652      736500
 4653              	.LASF64:
 4654 0623 63686172 		.ascii	"char\000"
 4654      00
 4655              	.LASF159:
 4656 0628 2E2E2F2E 		.ascii	"../../../os/oslib/src/chdelegates.c\000"
 4656      2E2F2E2E 
 4656      2F6F732F 
 4656      6F736C69 
 4656      622F7372 
 4657              	.LASF54:
 4658 064c 636F6E66 		.ascii	"config\000"
 4658      696700
 4659              	.LASF7:
 4660 0653 5F5F7569 		.ascii	"__uint16_t\000"
 4660      6E743136 
 4660      5F7400
 4661              	.LASF30:
 4662 065e 74687265 		.ascii	"thread_t\000"
 4662      61645F74 
 4662      00
 4663              	.LASF95:
 4664 0667 646C6973 		.ascii	"dlist\000"
 4664      7400
 4665              	.LASF66:
 4666 066d 73797374 		.ascii	"systime_t\000"
 4666      696D655F 
 4666      7400
 4667              	.LASF78:
ARM GAS  C:\Users\DEVELO~1\AppData\Local\Temp\ccmtuCvA.s 			page 88


 4668 0677 62756666 		.ascii	"buffer\000"
 4668      657200
 4669              	.LASF88:
 4670 067e 63685F70 		.ascii	"ch_priority_queue_t\000"
 4670      72696F72 
 4670      6974795F 
 4670      71756575 
 4670      655F7400 
 4671              	.LASF63:
 4672 0692 70616E69 		.ascii	"panic_msg\000"
 4672      635F6D73 
 4672      6700
 4673              	.LASF106:
 4674 069c 70717565 		.ascii	"pqueue\000"
 4674      756500
 4675              	.LASF144:
 4676 06a3 63684465 		.ascii	"chDelegateDispatch\000"
 4676      6C656761 
 4676      74654469 
 4676      73706174 
 4676      636800
 4677              	.LASF46:
 4678 06b6 6F735F69 		.ascii	"os_instance_t\000"
 4678      6E737461 
 4678      6E63655F 
 4678      7400
 4679              	.LASF51:
 4680 06c4 7265676C 		.ascii	"reglist\000"
 4680      69737400 
 4681              	.LASF162:
 4682 06cc 5F5F6170 		.ascii	"__ap\000"
 4682      00
 4683              	.LASF89:
 4684 06d1 63685F70 		.ascii	"ch_priority_queue\000"
 4684      72696F72 
 4684      6974795F 
 4684      71756575 
 4684      6500
 4685              	.LASF91:
 4686 06e3 63685F64 		.ascii	"ch_delta_list_t\000"
 4686      656C7461 
 4686      5F6C6973 
 4686      745F7400 
 4687              	.LASF152:
 4688 06f3 63684D73 		.ascii	"chMsgWait\000"
 4688      67576169 
 4688      7400
 4689              	.LASF124:
 4690 06fd 6F735F69 		.ascii	"os_instance_config_t\000"
 4690      6E737461 
 4690      6E63655F 
 4690      636F6E66 
 4690      69675F74 
 4691              	.LASF33:
 4692 0712 7761656E 		.ascii	"waend\000"
 4692      6400
 4693              	.LASF130:
ARM GAS  C:\Users\DEVELO~1\AppData\Local\Temp\ccmtuCvA.s 			page 89


 4694 0718 64656C65 		.ascii	"delegate_fn0_t\000"
 4694      67617465 
 4694      5F666E30 
 4694      5F7400
 4695              	.LASF149:
 4696 0727 5F5F6368 		.ascii	"__ch_delegate_fn0\000"
 4696      5F64656C 
 4696      65676174 
 4696      655F666E 
 4696      3000
 4697              	.LASF49:
 4698 0739 726C6973 		.ascii	"rlist\000"
 4698      7400
 4699              	.LASF147:
 4700 073f 5F5F6368 		.ascii	"__ch_delegate_fn2\000"
 4700      5F64656C 
 4700      65676174 
 4700      655F666E 
 4700      3200
 4701              	.LASF146:
 4702 0751 5F5F6368 		.ascii	"__ch_delegate_fn3\000"
 4702      5F64656C 
 4702      65676174 
 4702      655F666E 
 4702      3300
 4703              	.LASF15:
 4704 0763 75696E74 		.ascii	"uint8_t\000"
 4704      385F7400 
 4705              	.LASF35:
 4706 076b 666C6167 		.ascii	"flags\000"
 4706      7300
 4707              	.LASF115:
 4708 0771 63685F6D 		.ascii	"ch_mutex\000"
 4708      75746578 
 4708      00
 4709              	.LASF134:
 4710 077a 64656C65 		.ascii	"delegate_fn4_t\000"
 4710      67617465 
 4710      5F666E34 
 4710      5F7400
 4711              	.LASF38:
 4712 0789 72717565 		.ascii	"rqueue\000"
 4712      756500
 4713              	.LASF151:
 4714 0790 63684D73 		.ascii	"chMsgWaitTimeout\000"
 4714      67576169 
 4714      7454696D 
 4714      656F7574 
 4714      00
 4715              	.LASF57:
 4716 07a1 74726163 		.ascii	"trace_buffer\000"
 4716      655F6275 
 4716      66666572 
 4716      00
 4717              	.LASF165:
 4718 07ae 63685379 		.ascii	"chSysUnlock\000"
 4718      73556E6C 
ARM GAS  C:\Users\DEVELO~1\AppData\Local\Temp\ccmtuCvA.s 			page 90


 4718      6F636B00 
 4719              	.LASF105:
 4720 07ba 6C697374 		.ascii	"list\000"
 4720      00
 4721              	.LASF143:
 4722 07bf 61726773 		.ascii	"args\000"
 4722      00
 4723              	.LASF156:
 4724 07c4 706F7274 		.ascii	"port_lock\000"
 4724      5F6C6F63 
 4724      6B00
 4725              	.LASF44:
 4726 07ce 6D74786C 		.ascii	"mtxlist\000"
 4726      69737400 
 4727              	.LASF131:
 4728 07d6 64656C65 		.ascii	"delegate_fn1_t\000"
 4728      67617465 
 4728      5F666E31 
 4728      5F7400
 4729              	.LASF55:
 4730 07e5 69646C65 		.ascii	"idlethread\000"
 4730      74687265 
 4730      616400
 4731              		.ident	"GCC: (Arm GNU Toolchain 11.3.Rel1) 11.3.1 20220712"
ARM GAS  C:\Users\DEVELO~1\AppData\Local\Temp\ccmtuCvA.s 			page 91


DEFINED SYMBOLS
                            *ABS*:00000000 chdelegates.c
C:\Users\DEVELO~1\AppData\Local\Temp\ccmtuCvA.s:19     .text.__ch_delegate_fn0:00000000 $t
C:\Users\DEVELO~1\AppData\Local\Temp\ccmtuCvA.s:26     .text.__ch_delegate_fn0:00000000 __ch_delegate_fn0
C:\Users\DEVELO~1\AppData\Local\Temp\ccmtuCvA.s:50     .text.__ch_delegate_fn1:00000000 $t
C:\Users\DEVELO~1\AppData\Local\Temp\ccmtuCvA.s:57     .text.__ch_delegate_fn1:00000000 __ch_delegate_fn1
C:\Users\DEVELO~1\AppData\Local\Temp\ccmtuCvA.s:90     .text.__ch_delegate_fn2:00000000 $t
C:\Users\DEVELO~1\AppData\Local\Temp\ccmtuCvA.s:97     .text.__ch_delegate_fn2:00000000 __ch_delegate_fn2
C:\Users\DEVELO~1\AppData\Local\Temp\ccmtuCvA.s:143    .text.__ch_delegate_fn3:00000000 $t
C:\Users\DEVELO~1\AppData\Local\Temp\ccmtuCvA.s:150    .text.__ch_delegate_fn3:00000000 __ch_delegate_fn3
C:\Users\DEVELO~1\AppData\Local\Temp\ccmtuCvA.s:200    .text.__ch_delegate_fn4:00000000 $t
C:\Users\DEVELO~1\AppData\Local\Temp\ccmtuCvA.s:207    .text.__ch_delegate_fn4:00000000 __ch_delegate_fn4
C:\Users\DEVELO~1\AppData\Local\Temp\ccmtuCvA.s:259    .text.chDelegateCallVeneer:00000000 $t
C:\Users\DEVELO~1\AppData\Local\Temp\ccmtuCvA.s:266    .text.chDelegateCallVeneer:00000000 chDelegateCallVeneer
C:\Users\DEVELO~1\AppData\Local\Temp\ccmtuCvA.s:327    .text.chDelegateDispatch:00000000 $t
C:\Users\DEVELO~1\AppData\Local\Temp\ccmtuCvA.s:334    .text.chDelegateDispatch:00000000 chDelegateDispatch
C:\Users\DEVELO~1\AppData\Local\Temp\ccmtuCvA.s:499    .text.chDelegateDispatchTimeout:00000000 $t
C:\Users\DEVELO~1\AppData\Local\Temp\ccmtuCvA.s:506    .text.chDelegateDispatchTimeout:00000000 chDelegateDispatchTimeout

UNDEFINED SYMBOLS
chMsgSend
chMsgWaitS
chMsgRelease
chMsgWaitTimeoutS
