ARM GAS  C:\Users\DEVELO~1\AppData\Local\Temp\ccmtuCvA.s 			page 1


   1              		.cpu cortex-m7
   2              		.arch armv7e-m
   3              		.fpu fpv5-d16
   4              		.eabi_attribute 28, 1
   5              		.eabi_attribute 20, 1
   6              		.eabi_attribute 21, 1
   7              		.eabi_attribute 23, 3
   8              		.eabi_attribute 24, 1
   9              		.eabi_attribute 25, 1
  10              		.eabi_attribute 26, 1
  11              		.eabi_attribute 30, 2
  12              		.eabi_attribute 34, 1
  13              		.eabi_attribute 18, 4
  14              		.file	"chdelegates.c"
  15              		.text
  16              	.Ltext0:
  17              		.cfi_sections	.debug_frame
  18              		.section	.text.__ch_delegate_fn0,"ax",%progbits
  19              		.align	1
  20              		.p2align 2,,3
  21              		.global	__ch_delegate_fn0
  22              		.syntax unified
  23              		.thumb
  24              		.thumb_func
  25              		.type	__ch_delegate_fn0, %function
  26              	__ch_delegate_fn0:
  27              	.LVL0:
  28              	.LFB352:
  29              		.file 1 "../../../os/oslib/src/chdelegates.c"
  30              		.loc 1 88 41 view -0
  31              		.cfi_startproc
  32              		@ args = 0, pretend = 0, frame = 0
  33              		@ frame_needed = 0, uses_anonymous_args = 0
  34              		@ link register save eliminated.
  35              		.loc 1 89 3 view .LVU1
  36              		.loc 1 89 18 is_stmt 0 view .LVU2
  37 0000 0368     		ldr	r3, [r0]
  38 0002 1A1D     		adds	r2, r3, #4
  39 0004 0260     		str	r2, [r0]
  40              		.loc 1 90 3 is_stmt 1 view .LVU3
  41              		.loc 1 90 10 is_stmt 0 view .LVU4
  42 0006 1B68     		ldr	r3, [r3]
  43 0008 1847     		bx	r3
  44              	.LVL1:
  45              		.loc 1 90 10 view .LVU5
  46              		.cfi_endproc
  47              	.LFE352:
  48              		.size	__ch_delegate_fn0, .-__ch_delegate_fn0
  49 000a 00BF     		.section	.text.__ch_delegate_fn1,"ax",%progbits
  50              		.align	1
  51              		.p2align 2,,3
  52              		.global	__ch_delegate_fn1
  53              		.syntax unified
  54              		.thumb
  55              		.thumb_func
  56              		.type	__ch_delegate_fn1, %function
  57              	__ch_delegate_fn1:
ARM GAS  C:\Users\DEVELO~1\AppData\Local\Temp\ccmtuCvA.s 			page 2


  58              	.LVL2:
  59              	.LFB353:
  60              		.loc 1 99 41 is_stmt 1 view -0
  61              		.cfi_startproc
  62              		@ args = 0, pretend = 0, frame = 0
  63              		@ frame_needed = 0, uses_anonymous_args = 0
  64              		@ link register save eliminated.
  65              		.loc 1 100 3 view .LVU7
  66              		.loc 1 100 18 is_stmt 0 view .LVU8
  67 0000 0368     		ldr	r3, [r0]
  68              		.loc 1 99 41 view .LVU9
  69 0002 0246     		mov	r2, r0
  70              		.loc 1 100 18 view .LVU10
  71 0004 191D     		adds	r1, r3, #4
  72              		.loc 1 102 10 view .LVU11
  73 0006 5868     		ldr	r0, [r3, #4]
  74              	.LVL3:
  75              		.loc 1 100 18 view .LVU12
  76 0008 1160     		str	r1, [r2]
  77 000a 53F8081B 		ldr	r1, [r3], #8
  78              		.loc 1 101 3 is_stmt 1 view .LVU13
  79              		.loc 1 101 9 is_stmt 0 view .LVU14
  80 000e 1360     		str	r3, [r2]
  81              		.loc 1 102 3 is_stmt 1 view .LVU15
  82              		.loc 1 102 10 is_stmt 0 view .LVU16
  83 0010 0847     		bx	r1
  84              	.LVL4:
  85              		.loc 1 102 10 view .LVU17
  86              		.cfi_endproc
  87              	.LFE353:
  88              		.size	__ch_delegate_fn1, .-__ch_delegate_fn1
  89 0012 00BF     		.section	.text.__ch_delegate_fn2,"ax",%progbits
  90              		.align	1
  91              		.p2align 2,,3
  92              		.global	__ch_delegate_fn2
  93              		.syntax unified
  94              		.thumb
  95              		.thumb_func
  96              		.type	__ch_delegate_fn2, %function
  97              	__ch_delegate_fn2:
  98              	.LVL5:
  99              	.LFB354:
 100              		.loc 1 111 41 is_stmt 1 view -0
 101              		.cfi_startproc
 102              		@ args = 0, pretend = 0, frame = 0
 103              		@ frame_needed = 0, uses_anonymous_args = 0
 104              		@ link register save eliminated.
 105              		.loc 1 112 3 view .LVU19
 106              		.loc 1 112 18 is_stmt 0 view .LVU20
 107 0000 0368     		ldr	r3, [r0]
 108              		.loc 1 111 41 view .LVU21
 109 0002 0246     		mov	r2, r0
 110 0004 10B4     		push	{r4}
 111              		.cfi_def_cfa_offset 4
 112              		.cfi_offset 4, -4
 113              		.loc 1 112 18 view .LVU22
 114 0006 1C1D     		adds	r4, r3, #4
ARM GAS  C:\Users\DEVELO~1\AppData\Local\Temp\ccmtuCvA.s 			page 3


 115              		.loc 1 113 9 view .LVU23
 116 0008 5868     		ldr	r0, [r3, #4]
 117              	.LVL6:
 118              		.loc 1 114 9 view .LVU24
 119 000a 03F10C01 		add	r1, r3, #12
 120              		.loc 1 112 18 view .LVU25
 121 000e 1460     		str	r4, [r2]
 122 0010 1C68     		ldr	r4, [r3]
 123              		.loc 1 113 3 is_stmt 1 view .LVU26
 124              		.loc 1 114 3 view .LVU27
 125              		.loc 1 114 9 is_stmt 0 view .LVU28
 126 0012 1160     		str	r1, [r2]
 127              		.loc 1 115 3 is_stmt 1 view .LVU29
 128              		.loc 1 115 10 is_stmt 0 view .LVU30
 129 0014 9968     		ldr	r1, [r3, #8]
 130 0016 2346     		mov	r3, r4
 131              		.loc 1 116 1 view .LVU31
 132 0018 5DF8044B 		ldr	r4, [sp], #4
 133              		.cfi_restore 4
 134              		.cfi_def_cfa_offset 0
 135              		.loc 1 115 10 view .LVU32
 136 001c 1847     		bx	r3
 137              	.LVL7:
 138              		.loc 1 115 10 view .LVU33
 139              		.cfi_endproc
 140              	.LFE354:
 141              		.size	__ch_delegate_fn2, .-__ch_delegate_fn2
 142 001e 00BF     		.section	.text.__ch_delegate_fn3,"ax",%progbits
 143              		.align	1
 144              		.p2align 2,,3
 145              		.global	__ch_delegate_fn3
 146              		.syntax unified
 147              		.thumb
 148              		.thumb_func
 149              		.type	__ch_delegate_fn3, %function
 150              	__ch_delegate_fn3:
 151              	.LVL8:
 152              	.LFB355:
 153              		.loc 1 124 41 is_stmt 1 view -0
 154              		.cfi_startproc
 155              		@ args = 0, pretend = 0, frame = 0
 156              		@ frame_needed = 0, uses_anonymous_args = 0
 157              		@ link register save eliminated.
 158              		.loc 1 125 3 view .LVU35
 159              		.loc 1 125 18 is_stmt 0 view .LVU36
 160 0000 0368     		ldr	r3, [r0]
 161              		.loc 1 124 41 view .LVU37
 162 0002 0246     		mov	r2, r0
 163 0004 30B4     		push	{r4, r5}
 164              		.cfi_def_cfa_offset 8
 165              		.cfi_offset 4, -8
 166              		.cfi_offset 5, -4
 167              		.loc 1 125 18 view .LVU38
 168 0006 1C1D     		adds	r4, r3, #4
 169              		.loc 1 128 9 view .LVU39
 170 0008 03F11005 		add	r5, r3, #16
 171              		.loc 1 127 9 view .LVU40
ARM GAS  C:\Users\DEVELO~1\AppData\Local\Temp\ccmtuCvA.s 			page 4


 172 000c D3E90101 		ldrd	r0, r1, [r3, #4]
 173              	.LVL9:
 174              		.loc 1 125 18 view .LVU41
 175 0010 1460     		str	r4, [r2]
 176 0012 1C68     		ldr	r4, [r3]
 177              		.loc 1 126 3 is_stmt 1 view .LVU42
 178              		.loc 1 127 3 view .LVU43
 179              		.loc 1 128 3 view .LVU44
 180              		.loc 1 128 9 is_stmt 0 view .LVU45
 181 0014 1560     		str	r5, [r2]
 182              		.loc 1 129 3 is_stmt 1 view .LVU46
 183              		.loc 1 129 10 is_stmt 0 view .LVU47
 184 0016 DA68     		ldr	r2, [r3, #12]
 185              	.LVL10:
 186              		.loc 1 129 10 view .LVU48
 187 0018 2346     		mov	r3, r4
 188              		.loc 1 130 1 view .LVU49
 189 001a 30BC     		pop	{r4, r5}
 190              		.cfi_restore 5
 191              		.cfi_restore 4
 192              		.cfi_def_cfa_offset 0
 193              		.loc 1 129 10 view .LVU50
 194 001c 1847     		bx	r3
 195              	.LVL11:
 196              		.cfi_endproc
 197              	.LFE355:
 198              		.size	__ch_delegate_fn3, .-__ch_delegate_fn3
 199 001e 00BF     		.section	.text.__ch_delegate_fn4,"ax",%progbits
 200              		.align	1
 201              		.p2align 2,,3
 202              		.global	__ch_delegate_fn4
 203              		.syntax unified
 204              		.thumb
 205              		.thumb_func
 206              		.type	__ch_delegate_fn4, %function
 207              	__ch_delegate_fn4:
 208              	.LVL12:
 209              	.LFB356:
 210              		.loc 1 138 41 is_stmt 1 view -0
 211              		.cfi_startproc
 212              		@ args = 0, pretend = 0, frame = 0
 213              		@ frame_needed = 0, uses_anonymous_args = 0
 214              		@ link register save eliminated.
 215              		.loc 1 139 3 view .LVU52
 216              		.loc 1 139 18 is_stmt 0 view .LVU53
 217 0000 0368     		ldr	r3, [r0]
 218              		.loc 1 138 41 view .LVU54
 219 0002 8446     		mov	ip, r0
 220 0004 30B4     		push	{r4, r5}
 221              		.cfi_def_cfa_offset 8
 222              		.cfi_offset 4, -8
 223              		.cfi_offset 5, -4
 224              		.loc 1 139 18 view .LVU55
 225 0006 1C1D     		adds	r4, r3, #4
 226              		.loc 1 142 9 view .LVU56
 227 0008 DA68     		ldr	r2, [r3, #12]
 228              		.loc 1 143 9 view .LVU57
ARM GAS  C:\Users\DEVELO~1\AppData\Local\Temp\ccmtuCvA.s 			page 5


 229 000a 03F11405 		add	r5, r3, #20
 230              		.loc 1 141 9 view .LVU58
 231 000e D3E90101 		ldrd	r0, r1, [r3, #4]
 232              	.LVL13:
 233              		.loc 1 139 18 view .LVU59
 234 0012 CCF80040 		str	r4, [ip]
 235 0016 1C68     		ldr	r4, [r3]
 236              		.loc 1 140 3 is_stmt 1 view .LVU60
 237              		.loc 1 141 3 view .LVU61
 238              		.loc 1 142 3 view .LVU62
 239              		.loc 1 143 3 view .LVU63
 240              		.loc 1 143 9 is_stmt 0 view .LVU64
 241 0018 CCF80050 		str	r5, [ip]
 242              		.loc 1 144 3 is_stmt 1 view .LVU65
 243              		.loc 1 144 10 is_stmt 0 view .LVU66
 244 001c 1B69     		ldr	r3, [r3, #16]
 245 001e A446     		mov	ip, r4
 246              	.LVL14:
 247              		.loc 1 145 1 view .LVU67
 248 0020 30BC     		pop	{r4, r5}
 249              		.cfi_restore 5
 250              		.cfi_restore 4
 251              		.cfi_def_cfa_offset 0
 252              		.loc 1 144 10 view .LVU68
 253 0022 6047     		bx	ip
 254              	.LVL15:
 255              		.cfi_endproc
 256              	.LFE356:
 257              		.size	__ch_delegate_fn4, .-__ch_delegate_fn4
 258              		.section	.text.chDelegateCallVeneer,"ax",%progbits
 259              		.align	1
 260              		.p2align 2,,3
 261              		.global	chDelegateCallVeneer
 262              		.syntax unified
 263              		.thumb
 264              		.thumb_func
 265              		.type	chDelegateCallVeneer, %function
 266              	chDelegateCallVeneer:
 267              	.LVL16:
 268              	.LFB357:
 269              		.loc 1 158 73 is_stmt 1 view -0
 270              		.cfi_startproc
 271              		@ args = 4, pretend = 12, frame = 16
 272              		@ frame_needed = 0, uses_anonymous_args = 1
 273              		.loc 1 159 3 view .LVU70
 274              		.loc 1 160 3 view .LVU71
 275              		.loc 1 161 3 view .LVU72
 276              		.loc 1 163 3 view .LVU73
 277              		.loc 1 158 73 is_stmt 0 view .LVU74
 278 0000 0EB4     		push	{r1, r2, r3}
 279              		.cfi_def_cfa_offset 12
 280              		.cfi_offset 1, -12
 281              		.cfi_offset 2, -8
 282              		.cfi_offset 3, -4
 283 0002 10B5     		push	{r4, lr}
 284              		.cfi_def_cfa_offset 20
 285              		.cfi_offset 4, -20
ARM GAS  C:\Users\DEVELO~1\AppData\Local\Temp\ccmtuCvA.s 			page 6


 286              		.cfi_offset 14, -16
 287 0004 85B0     		sub	sp, sp, #20
 288              		.cfi_def_cfa_offset 40
 289              		.loc 1 158 73 view .LVU75
 290 0006 07AB     		add	r3, sp, #28
 291              		.loc 1 167 13 view .LVU76
 292 0008 01AC     		add	r4, sp, #4
 293              		.loc 1 172 9 view .LVU77
 294 000a 02A9     		add	r1, sp, #8
 295              		.loc 1 158 73 view .LVU78
 296 000c 53F8042B 		ldr	r2, [r3], #4
 297              		.loc 1 167 13 view .LVU79
 298 0010 0394     		str	r4, [sp, #12]
 299              		.loc 1 166 13 view .LVU80
 300 0012 CDE90132 		strd	r3, r2, [sp, #4]
 301              		.loc 1 167 3 is_stmt 1 view .LVU81
 302              		.loc 1 168 3 view .LVU82
 303              		.loc 1 172 3 view .LVU83
 304              		.loc 1 172 9 is_stmt 0 view .LVU84
 305 0016 FFF7FEFF 		bl	chMsgSend
 306              	.LVL17:
 307              		.loc 1 174 3 is_stmt 1 view .LVU85
 308              		.loc 1 176 3 view .LVU86
 309              		.loc 1 177 1 is_stmt 0 view .LVU87
 310 001a 05B0     		add	sp, sp, #20
 311              		.cfi_def_cfa_offset 20
 312              		@ sp needed
 313 001c BDE81040 		pop	{r4, lr}
 314              		.cfi_restore 14
 315              		.cfi_restore 4
 316              		.cfi_def_cfa_offset 12
 317 0020 03B0     		add	sp, sp, #12
 318              		.cfi_restore 3
 319              		.cfi_restore 2
 320              		.cfi_restore 1
 321              		.cfi_def_cfa_offset 0
 322 0022 7047     		bx	lr
 323              		.cfi_endproc
 324              	.LFE357:
 325              		.size	chDelegateCallVeneer, .-chDelegateCallVeneer
 326              		.section	.text.chDelegateDispatch,"ax",%progbits
 327              		.align	1
 328              		.p2align 2,,3
 329              		.global	chDelegateDispatch
 330              		.syntax unified
 331              		.thumb
 332              		.thumb_func
 333              		.type	chDelegateDispatch, %function
 334              	chDelegateDispatch:
 335              	.LFB358:
 336              		.loc 1 190 31 is_stmt 1 view -0
 337              		.cfi_startproc
 338              		@ args = 0, pretend = 0, frame = 0
 339              		@ frame_needed = 0, uses_anonymous_args = 0
 340              		.loc 1 191 3 view .LVU89
 341              		.loc 1 192 3 view .LVU90
 342              		.loc 1 193 3 view .LVU91
ARM GAS  C:\Users\DEVELO~1\AppData\Local\Temp\ccmtuCvA.s 			page 7


 343              		.loc 1 195 3 view .LVU92
 344              	.LBB60:
 345              	.LBI60:
 346              		.file 2 "../../../os/rt/include/chmsg.h"
 347              		.loc 2 95 25 view .LVU93
 348              	.LBB61:
 349              		.loc 2 96 3 view .LVU94
 350              		.loc 2 98 3 view .LVU95
 351              	.LBB62:
 352              	.LBI62:
 353              		.file 3 "../../../os/rt/include/chsys.h"
 354              		.loc 3 372 20 view .LVU96
 355              		.loc 3 374 3 view .LVU97
 356              	.LBB63:
 357              	.LBI63:
 358              		.file 4 "../../../os/common/ports/ARMv7-M/chcore.h"
 359              		.loc 4 840 27 view .LVU98
 360              		.loc 4 848 3 view .LVU99
 361              	.LVL18:
 362              	.LBB64:
 363              	.LBI64:
 364              		.file 5 "../../../os/common/ext/ARM/CMSIS/Core/Include/cmsis_gcc.h"
 365              		.loc 5 491 27 view .LVU100
 366              	.LBB65:
 367              		.loc 5 493 3 view .LVU101
 368              	.LBE65:
 369              	.LBE64:
 370              	.LBE63:
 371              	.LBE62:
 372              	.LBE61:
 373              	.LBE60:
 374              		.loc 1 190 31 is_stmt 0 view .LVU102
 375 0000 10B5     		push	{r4, lr}
 376              		.cfi_def_cfa_offset 8
 377              		.cfi_offset 4, -8
 378              		.cfi_offset 14, -4
 379              	.LBB81:
 380              	.LBB80:
 381              	.LBB69:
 382              	.LBB68:
 383              	.LBB67:
 384              	.LBB66:
 385              		.loc 5 493 3 view .LVU103
 386 0002 3023     		movs	r3, #48
 387              		.syntax unified
 388              	@ 493 "../../../os/common/ext/ARM/CMSIS/Core/Include/cmsis_gcc.h" 1
 389 0004 83F31188 		MSR basepri, r3
 390              	@ 0 "" 2
 391              	.LVL19:
 392              		.loc 5 493 3 view .LVU104
 393              		.thumb
 394              		.syntax unified
 395              	.LBE66:
 396              	.LBE67:
 397              	.LBE68:
 398              		.loc 3 375 35 is_stmt 1 view .LVU105
 399              		.loc 3 376 21 view .LVU106
ARM GAS  C:\Users\DEVELO~1\AppData\Local\Temp\ccmtuCvA.s 			page 8


 400              	.LBE69:
 401              		.loc 2 99 3 view .LVU107
 402              		.loc 2 99 8 is_stmt 0 view .LVU108
 403 0008 FFF7FEFF 		bl	chMsgWaitS
 404              	.LVL20:
 405              	.LBB70:
 406              	.LBB71:
 407              	.LBB72:
 408              	.LBB73:
 409              	.LBB74:
 410              		.loc 5 493 3 view .LVU109
 411 000c 0023     		movs	r3, #0
 412              	.LBE74:
 413              	.LBE73:
 414              	.LBE72:
 415              	.LBE71:
 416              	.LBE70:
 417              		.loc 2 99 8 view .LVU110
 418 000e 0446     		mov	r4, r0
 419              	.LVL21:
 420              		.loc 2 100 3 is_stmt 1 view .LVU111
 421              	.LBB79:
 422              	.LBI70:
 423              		.loc 3 386 20 view .LVU112
 424              	.LBB78:
 425              		.loc 3 388 23 view .LVU113
 426              		.loc 3 389 34 view .LVU114
 427              		.loc 3 395 3 view .LVU115
 428              		.loc 3 395 3 view .LVU116
 429              		.loc 3 395 3 view .LVU117
 430              		.loc 3 399 3 view .LVU118
 431              	.LBB77:
 432              	.LBI72:
 433              		.loc 4 864 27 view .LVU119
 434              		.loc 4 867 3 view .LVU120
 435              	.LBB76:
 436              	.LBI73:
 437              		.loc 5 491 27 view .LVU121
 438              	.LBB75:
 439              		.loc 5 493 3 view .LVU122
 440              		.syntax unified
 441              	@ 493 "../../../os/common/ext/ARM/CMSIS/Core/Include/cmsis_gcc.h" 1
 442 0010 83F31188 		MSR basepri, r3
 443              	@ 0 "" 2
 444              	.LVL22:
 445              		.loc 5 493 3 is_stmt 0 view .LVU123
 446              		.thumb
 447              		.syntax unified
 448              	.LBE75:
 449              	.LBE76:
 450              	.LBE77:
 451              	.LBE78:
 452              	.LBE79:
 453              		.loc 2 102 3 is_stmt 1 view .LVU124
 454              		.loc 2 102 3 is_stmt 0 view .LVU125
 455              	.LBE80:
 456              	.LBE81:
ARM GAS  C:\Users\DEVELO~1\AppData\Local\Temp\ccmtuCvA.s 			page 9


 457              		.loc 1 196 3 is_stmt 1 view .LVU126
 458              	.LBB82:
 459              	.LBI82:
 460              		.loc 2 189 21 view .LVU127
 461              	.LBB83:
 462              		.loc 2 191 3 view .LVU128
 463              		.loc 2 191 3 view .LVU129
 464              		.loc 2 191 3 view .LVU130
 465              		.loc 2 193 3 view .LVU131
 466              		.loc 2 193 3 is_stmt 0 view .LVU132
 467              	.LBE83:
 468              	.LBE82:
 469              		.loc 1 196 7 view .LVU133
 470 0014 436B     		ldr	r3, [r0, #52]
 471              	.LVL23:
 472              		.loc 1 197 3 is_stmt 1 view .LVU134
 473              		.loc 1 197 9 is_stmt 0 view .LVU135
 474 0016 D3E90020 		ldrd	r2, r0, [r3]
 475              	.LVL24:
 476              		.loc 1 197 9 view .LVU136
 477 001a 9047     		blx	r2
 478              	.LVL25:
 479              		.loc 1 197 9 view .LVU137
 480 001c 0146     		mov	r1, r0
 481              	.LVL26:
 482              		.loc 1 199 3 is_stmt 1 view .LVU138
 483 001e 2046     		mov	r0, r4
 484              	.LVL27:
 485              		.loc 1 200 1 is_stmt 0 view .LVU139
 486 0020 BDE81040 		pop	{r4, lr}
 487              		.cfi_restore 14
 488              		.cfi_restore 4
 489              		.cfi_def_cfa_offset 0
 490              	.LVL28:
 491              		.loc 1 199 3 view .LVU140
 492 0024 FFF7FEBF 		b	chMsgRelease
 493              	.LVL29:
 494              		.loc 1 199 3 view .LVU141
 495              		.cfi_endproc
 496              	.LFE358:
 497              		.size	chDelegateDispatch, .-chDelegateDispatch
 498              		.section	.text.chDelegateDispatchTimeout,"ax",%progbits
 499              		.align	1
 500              		.p2align 2,,3
 501              		.global	chDelegateDispatchTimeout
 502              		.syntax unified
 503              		.thumb
 504              		.thumb_func
 505              		.type	chDelegateDispatchTimeout, %function
 506              	chDelegateDispatchTimeout:
 507              	.LVL30:
 508              	.LFB359:
 509              		.loc 1 218 56 is_stmt 1 view -0
 510              		.cfi_startproc
 511              		@ args = 0, pretend = 0, frame = 0
 512              		@ frame_needed = 0, uses_anonymous_args = 0
 513              		.loc 1 219 3 view .LVU143
ARM GAS  C:\Users\DEVELO~1\AppData\Local\Temp\ccmtuCvA.s 			page 10


 514              		.loc 1 220 3 view .LVU144
 515              		.loc 1 221 3 view .LVU145
 516              		.loc 1 223 3 view .LVU146
 517              	.LBB84:
 518              	.LBI84:
 519              		.loc 2 127 25 view .LVU147
 520              	.LBB85:
 521              		.loc 2 128 3 view .LVU148
 522              		.loc 2 130 3 view .LVU149
 523              	.LBB86:
 524              	.LBI86:
 525              		.loc 3 372 20 view .LVU150
 526              		.loc 3 374 3 view .LVU151
 527              	.LBB87:
 528              	.LBI87:
 529              		.loc 4 840 27 view .LVU152
 530              		.loc 4 848 3 view .LVU153
 531              	.LBB88:
 532              	.LBI88:
 533              		.loc 5 491 27 view .LVU154
 534              	.LBB89:
 535              		.loc 5 493 3 view .LVU155
 536              	.LBE89:
 537              	.LBE88:
 538              	.LBE87:
 539              	.LBE86:
 540              	.LBE85:
 541              	.LBE84:
 542              		.loc 1 218 56 is_stmt 0 view .LVU156
 543 0000 38B5     		push	{r3, r4, r5, lr}
 544              		.cfi_def_cfa_offset 16
 545              		.cfi_offset 3, -16
 546              		.cfi_offset 4, -12
 547              		.cfi_offset 5, -8
 548              		.cfi_offset 14, -4
 549              	.LBB105:
 550              	.LBB104:
 551              	.LBB93:
 552              	.LBB92:
 553              	.LBB91:
 554              	.LBB90:
 555              		.loc 5 493 3 view .LVU157
 556 0002 3023     		movs	r3, #48
 557              		.syntax unified
 558              	@ 493 "../../../os/common/ext/ARM/CMSIS/Core/Include/cmsis_gcc.h" 1
 559 0004 83F31188 		MSR basepri, r3
 560              	@ 0 "" 2
 561              	.LVL31:
 562              		.loc 5 493 3 view .LVU158
 563              		.thumb
 564              		.syntax unified
 565              	.LBE90:
 566              	.LBE91:
 567              	.LBE92:
 568              		.loc 3 375 35 is_stmt 1 view .LVU159
 569              		.loc 3 376 21 view .LVU160
 570              	.LBE93:
ARM GAS  C:\Users\DEVELO~1\AppData\Local\Temp\ccmtuCvA.s 			page 11


 571              		.loc 2 131 3 view .LVU161
 572              		.loc 2 131 8 is_stmt 0 view .LVU162
 573 0008 FFF7FEFF 		bl	chMsgWaitTimeoutS
 574              	.LVL32:
 575              	.LBB94:
 576              	.LBB95:
 577              	.LBB96:
 578              	.LBB97:
 579              	.LBB98:
 580              		.loc 5 493 3 view .LVU163
 581 000c 0025     		movs	r5, #0
 582              	.LVL33:
 583              		.loc 5 493 3 view .LVU164
 584              	.LBE98:
 585              	.LBE97:
 586              	.LBE96:
 587              	.LBE95:
 588              	.LBE94:
 589              		.loc 2 132 3 is_stmt 1 view .LVU165
 590              	.LBB103:
 591              	.LBI94:
 592              		.loc 3 386 20 view .LVU166
 593              	.LBB102:
 594              		.loc 3 388 23 view .LVU167
 595              		.loc 3 389 34 view .LVU168
 596              		.loc 3 395 3 view .LVU169
 597              		.loc 3 395 3 view .LVU170
 598              		.loc 3 395 3 view .LVU171
 599              		.loc 3 399 3 view .LVU172
 600              	.LBB101:
 601              	.LBI96:
 602              		.loc 4 864 27 view .LVU173
 603              		.loc 4 867 3 view .LVU174
 604              	.LBB100:
 605              	.LBI97:
 606              		.loc 5 491 27 view .LVU175
 607              	.LBB99:
 608              		.loc 5 493 3 view .LVU176
 609              		.syntax unified
 610              	@ 493 "../../../os/common/ext/ARM/CMSIS/Core/Include/cmsis_gcc.h" 1
 611 000e 85F31188 		MSR basepri, r5
 612              	@ 0 "" 2
 613              	.LVL34:
 614              		.loc 5 493 3 is_stmt 0 view .LVU177
 615              		.thumb
 616              		.syntax unified
 617              	.LBE99:
 618              	.LBE100:
 619              	.LBE101:
 620              	.LBE102:
 621              	.LBE103:
 622              		.loc 2 134 3 is_stmt 1 view .LVU178
 623              		.loc 2 134 3 is_stmt 0 view .LVU179
 624              	.LBE104:
 625              	.LBE105:
 626              		.loc 1 224 3 is_stmt 1 view .LVU180
 627              		.loc 1 224 6 is_stmt 0 view .LVU181
ARM GAS  C:\Users\DEVELO~1\AppData\Local\Temp\ccmtuCvA.s 			page 12


 628 0012 50B1     		cbz	r0, .L16
 629              		.loc 1 228 3 is_stmt 1 view .LVU182
 630              	.LVL35:
 631              	.LBB106:
 632              	.LBI106:
 633              		.loc 2 189 21 view .LVU183
 634              	.LBB107:
 635              		.loc 2 191 3 view .LVU184
 636              		.loc 2 191 3 view .LVU185
 637              		.loc 2 191 3 view .LVU186
 638              		.loc 2 193 3 view .LVU187
 639              		.loc 2 193 3 is_stmt 0 view .LVU188
 640              	.LBE107:
 641              	.LBE106:
 642              		.loc 1 228 7 view .LVU189
 643 0014 436B     		ldr	r3, [r0, #52]
 644              	.LVL36:
 645              		.loc 1 229 3 is_stmt 1 view .LVU190
 646 0016 0446     		mov	r4, r0
 647              		.loc 1 229 9 is_stmt 0 view .LVU191
 648 0018 D3E90020 		ldrd	r2, r0, [r3]
 649              	.LVL37:
 650              		.loc 1 229 9 view .LVU192
 651 001c 9047     		blx	r2
 652              	.LVL38:
 653              		.loc 1 229 9 view .LVU193
 654 001e 0146     		mov	r1, r0
 655              	.LVL39:
 656              		.loc 1 231 3 is_stmt 1 view .LVU194
 657 0020 2046     		mov	r0, r4
 658              	.LVL40:
 659              		.loc 1 231 3 is_stmt 0 view .LVU195
 660 0022 FFF7FEFF 		bl	chMsgRelease
 661              	.LVL41:
 662              		.loc 1 233 3 is_stmt 1 view .LVU196
 663              		.loc 1 233 10 is_stmt 0 view .LVU197
 664 0026 2846     		mov	r0, r5
 665              		.loc 1 234 1 view .LVU198
 666 0028 38BD     		pop	{r3, r4, r5, pc}
 667              	.LVL42:
 668              	.L16:
 669              		.loc 1 225 12 view .LVU199
 670 002a 4FF0FF30 		mov	r0, #-1
 671              	.LVL43:
 672              		.loc 1 234 1 view .LVU200
 673 002e 38BD     		pop	{r3, r4, r5, pc}
 674              		.cfi_endproc
 675              	.LFE359:
 676              		.size	chDelegateDispatchTimeout, .-chDelegateDispatchTimeout
 677              		.text
 678              	.Letext0:
 679              		.file 6 "c:\\chibistudio\\tools\\gnu tools arm embedded\\11.3 2022.08\\arm-none-eabi\\include\\mac
 680              		.file 7 "c:\\chibistudio\\tools\\gnu tools arm embedded\\11.3 2022.08\\arm-none-eabi\\include\\sys
 681              		.file 8 "../../../os/common/ports/ARM-common/include/chtypes.h"
 682              		.file 9 "../../../os/rt/include/chearly.h"
 683              		.file 10 "../../../os/rt/include/chobjects.h"
 684              		.file 11 "../../../os/rt/include/chrfcu.h"
ARM GAS  C:\Users\DEVELO~1\AppData\Local\Temp\ccmtuCvA.s 			page 13


 685              		.file 12 "../../../os/rt/include/chdebug.h"
 686              		.file 13 "../../../os/rt/include/chtime.h"
 687              		.file 14 "../../../os/rt/include/chtrace.h"
 688              		.file 15 "../../../os/rt/include/chlists.h"
 689              		.file 16 "../../../os/rt/include/chsem.h"
 690              		.file 17 "../../../os/rt/include/chmtx.h"
 691              		.file 18 "c:\\chibistudio\\tools\\gnu tools arm embedded\\11.3 2022.08\\lib\\gcc\\arm-none-eabi\\1
 692              		.file 19 "../../../os/oslib/include/chdelegates.h"
 693              		.file 20 "<built-in>"