ARM GAS  C:\Users\DEVELO~1\AppData\Local\Temp\ccUqVwMd.s 			page 1


   1              		.cpu cortex-m7
   2              		.arch armv7e-m
   3              		.fpu fpv5-d16
   4              		.eabi_attribute 28, 1
   5              		.eabi_attribute 20, 1
   6              		.eabi_attribute 21, 1
   7              		.eabi_attribute 23, 3
   8              		.eabi_attribute 24, 1
   9              		.eabi_attribute 25, 1
  10              		.eabi_attribute 26, 1
  11              		.eabi_attribute 30, 2
  12              		.eabi_attribute 34, 1
  13              		.eabi_attribute 18, 4
  14              		.file	"chevents.c"
  15              		.text
  16              	.Ltext0:
  17              		.cfi_sections	.debug_frame
  18              		.section	.text.chEvtObjectInit,"ax",%progbits
  19              		.align	1
  20              		.p2align 2,,3
  21              		.global	chEvtObjectInit
  22              		.syntax unified
  23              		.thumb
  24              		.thumb_func
  25              		.type	chEvtObjectInit, %function
  26              	chEvtObjectInit:
  27              	.LVL0:
  28              	.LFB352:
  29              		.file 1 "./docs/ChibiOS/os/rt/src/chevents.c"
  30              		.loc 1 99 43 view -0
  31              		.cfi_startproc
  32              		@ args = 0, pretend = 0, frame = 0
  33              		@ frame_needed = 0, uses_anonymous_args = 0
  34              		@ link register save eliminated.
  35              		.loc 1 101 3 view .LVU1
  36              		.loc 1 101 3 view .LVU2
  37              		.loc 1 101 3 view .LVU3
  38              		.loc 1 103 3 view .LVU4
  39              		.loc 1 103 13 is_stmt 0 view .LVU5
  40 0000 0060     		str	r0, [r0]
  41              		.loc 1 104 1 view .LVU6
  42 0002 7047     		bx	lr
  43              		.cfi_endproc
  44              	.LFE352:
  45              		.size	chEvtObjectInit, .-chEvtObjectInit
  46              		.section	.text.chEvtObjectDispose,"ax",%progbits
  47              		.align	1
  48              		.p2align 2,,3
  49              		.global	chEvtObjectDispose
  50              		.syntax unified
  51              		.thumb
  52              		.thumb_func
  53              		.type	chEvtObjectDispose, %function
  54              	chEvtObjectDispose:
  55              	.LVL1:
  56              	.LFB353:
  57              		.loc 1 121 46 is_stmt 1 view -0
ARM GAS  C:\Users\DEVELO~1\AppData\Local\Temp\ccUqVwMd.s 			page 2


  58              		.cfi_startproc
  59              		@ args = 0, pretend = 0, frame = 0
  60              		@ frame_needed = 0, uses_anonymous_args = 0
  61              		@ link register save eliminated.
  62              		.loc 1 123 3 view .LVU8
  63              		.loc 1 123 3 view .LVU9
  64              		.loc 1 123 3 view .LVU10
  65              		.loc 1 124 3 view .LVU11
  66              		.loc 1 124 3 view .LVU12
  67              		.loc 1 124 3 view .LVU13
  68              		.loc 1 129 1 is_stmt 0 view .LVU14
  69 0000 7047     		bx	lr
  70              		.cfi_endproc
  71              	.LFE353:
  72              		.size	chEvtObjectDispose, .-chEvtObjectDispose
  73 0002 00BF     		.section	.text.chEvtRegisterMaskWithFlagsI,"ax",%progbits
  74              		.align	1
  75              		.p2align 2,,3
  76              		.global	chEvtRegisterMaskWithFlagsI
  77              		.syntax unified
  78              		.thumb
  79              		.thumb_func
  80              		.type	chEvtRegisterMaskWithFlagsI, %function
  81              	chEvtRegisterMaskWithFlagsI:
  82              	.LVL2:
  83              	.LFB354:
  84              		.loc 1 149 55 is_stmt 1 view -0
  85              		.cfi_startproc
  86              		@ args = 0, pretend = 0, frame = 0
  87              		@ frame_needed = 0, uses_anonymous_args = 0
  88              		@ link register save eliminated.
  89              		.loc 1 150 3 view .LVU16
  90              	.LBB200:
  91              	.LBI200:
  92              		.file 2 "./docs/ChibiOS/os/rt/include/chthreads.h"
  93              		.loc 2 527 25 view .LVU17
  94              	.LBB201:
  95              		.loc 2 529 3 view .LVU18
  96              	.LBE201:
  97              	.LBE200:
  98              		.loc 1 149 55 is_stmt 0 view .LVU19
  99 0000 30B4     		push	{r4, r5}
 100              		.cfi_def_cfa_offset 8
 101              		.cfi_offset 4, -8
 102              		.cfi_offset 5, -4
 103              		.loc 1 155 17 view .LVU20
 104 0002 0568     		ldr	r5, [r0]
 105              	.LBB203:
 106              	.LBB202:
 107              		.loc 2 529 10 view .LVU21
 108 0004 054C     		ldr	r4, .L6
 109 0006 E468     		ldr	r4, [r4, #12]
 110              	.LVL3:
 111              		.loc 2 529 10 view .LVU22
 112              	.LBE202:
 113              	.LBE203:
 114              		.loc 1 152 21 is_stmt 1 view .LVU23
ARM GAS  C:\Users\DEVELO~1\AppData\Local\Temp\ccUqVwMd.s 			page 3


 115              		.loc 1 153 3 view .LVU24
 116              		.loc 1 153 3 view .LVU25
 117              		.loc 1 153 3 view .LVU26
 118              		.loc 1 155 3 view .LVU27
 119              		.loc 1 155 17 is_stmt 0 view .LVU28
 120 0008 0D60     		str	r5, [r1]
 121              		.loc 1 156 3 is_stmt 1 view .LVU29
 122              		.loc 1 156 17 is_stmt 0 view .LVU30
 123 000a 0160     		str	r1, [r0]
 124              		.loc 1 157 3 is_stmt 1 view .LVU31
 125              		.loc 1 159 17 is_stmt 0 view .LVU32
 126 000c 0020     		movs	r0, #0
 127              	.LVL4:
 128              		.loc 1 158 17 view .LVU33
 129 000e C1E90142 		strd	r4, r2, [r1, #4]
 130              		.loc 1 159 3 is_stmt 1 view .LVU34
 131              		.loc 1 159 17 is_stmt 0 view .LVU35
 132 0012 C1E90303 		strd	r0, r3, [r1, #12]
 133              		.loc 1 160 3 is_stmt 1 view .LVU36
 134              		.loc 1 161 1 is_stmt 0 view .LVU37
 135 0016 30BC     		pop	{r4, r5}
 136              		.cfi_restore 5
 137              		.cfi_restore 4
 138              		.cfi_def_cfa_offset 0
 139              	.LVL5:
 140              		.loc 1 161 1 view .LVU38
 141 0018 7047     		bx	lr
 142              	.L7:
 143 001a 00BF     		.align	2
 144              	.L6:
 145 001c 00000000 		.word	ch0
 146              		.cfi_endproc
 147              	.LFE354:
 148              		.size	chEvtRegisterMaskWithFlagsI, .-chEvtRegisterMaskWithFlagsI
 149              		.section	.text.chEvtRegisterMaskWithFlags,"ax",%progbits
 150              		.align	1
 151              		.p2align 2,,3
 152              		.global	chEvtRegisterMaskWithFlags
 153              		.syntax unified
 154              		.thumb
 155              		.thumb_func
 156              		.type	chEvtRegisterMaskWithFlags, %function
 157              	chEvtRegisterMaskWithFlags:
 158              	.LVL6:
 159              	.LFB355:
 160              		.loc 1 181 54 is_stmt 1 view -0
 161              		.cfi_startproc
 162              		@ args = 0, pretend = 0, frame = 0
 163              		@ frame_needed = 0, uses_anonymous_args = 0
 164              		@ link register save eliminated.
 165              		.loc 1 183 3 view .LVU40
 166              	.LBB204:
 167              	.LBI204:
 168              		.file 3 "./docs/ChibiOS/os/rt/include/chsys.h"
 169              		.loc 3 372 20 view .LVU41
 170              		.loc 3 374 3 view .LVU42
 171              	.LBB205:
ARM GAS  C:\Users\DEVELO~1\AppData\Local\Temp\ccUqVwMd.s 			page 4


 172              	.LBI205:
 173              		.file 4 "./docs/ChibiOS/os/common/ports/ARMv7-M/chcore.h"
 174              		.loc 4 840 27 view .LVU43
 175              		.loc 4 848 3 view .LVU44
 176              	.LBB206:
 177              	.LBI206:
 178              		.file 5 "./docs/ChibiOS/os/common/ext/ARM/CMSIS/Core/Include/cmsis_gcc.h"
 179              		.loc 5 491 27 view .LVU45
 180              	.LBB207:
 181              		.loc 5 493 3 view .LVU46
 182              	.LBE207:
 183              	.LBE206:
 184              	.LBE205:
 185              	.LBE204:
 186              		.loc 1 181 54 is_stmt 0 view .LVU47
 187 0000 30B4     		push	{r4, r5}
 188              		.cfi_def_cfa_offset 8
 189              		.cfi_offset 4, -8
 190              		.cfi_offset 5, -4
 191              	.LBB211:
 192              	.LBB210:
 193              	.LBB209:
 194              	.LBB208:
 195              		.loc 5 493 3 view .LVU48
 196 0002 3024     		movs	r4, #48
 197              		.syntax unified
 198              	@ 493 "./docs/ChibiOS/os/common/ext/ARM/CMSIS/Core/Include/cmsis_gcc.h" 1
 199 0004 84F31188 		MSR basepri, r4
 200              	@ 0 "" 2
 201              	.LVL7:
 202              		.loc 5 493 3 view .LVU49
 203              		.thumb
 204              		.syntax unified
 205              	.LBE208:
 206              	.LBE209:
 207              	.LBE210:
 208              		.loc 3 375 35 is_stmt 1 view .LVU50
 209              		.loc 3 376 21 view .LVU51
 210              	.LBE211:
 211              		.loc 1 184 3 view .LVU52
 212              	.LBB212:
 213              	.LBI212:
 214              		.loc 1 146 6 view .LVU53
 215              	.LBB213:
 216              		.loc 1 150 3 view .LVU54
 217              	.LBB214:
 218              	.LBI214:
 219              		.loc 2 527 25 view .LVU55
 220              	.LBB215:
 221              		.loc 2 529 3 view .LVU56
 222              		.loc 2 529 10 is_stmt 0 view .LVU57
 223 0008 064C     		ldr	r4, .L10
 224              	.LBE215:
 225              	.LBE214:
 226              		.loc 1 155 17 view .LVU58
 227 000a 0568     		ldr	r5, [r0]
 228              	.LBB217:
ARM GAS  C:\Users\DEVELO~1\AppData\Local\Temp\ccUqVwMd.s 			page 5


 229              	.LBB216:
 230              		.loc 2 529 10 view .LVU59
 231 000c E468     		ldr	r4, [r4, #12]
 232              	.LVL8:
 233              		.loc 2 529 10 view .LVU60
 234              	.LBE216:
 235              	.LBE217:
 236              		.loc 1 152 21 is_stmt 1 view .LVU61
 237              		.loc 1 153 3 view .LVU62
 238              		.loc 1 153 3 view .LVU63
 239              		.loc 1 153 3 view .LVU64
 240              		.loc 1 155 3 view .LVU65
 241              		.loc 1 155 17 is_stmt 0 view .LVU66
 242 000e 0D60     		str	r5, [r1]
 243              		.loc 1 156 3 is_stmt 1 view .LVU67
 244              		.loc 1 156 17 is_stmt 0 view .LVU68
 245 0010 0160     		str	r1, [r0]
 246              		.loc 1 157 3 is_stmt 1 view .LVU69
 247              		.loc 1 159 17 is_stmt 0 view .LVU70
 248 0012 0020     		movs	r0, #0
 249              	.LVL9:
 250              		.loc 1 158 17 view .LVU71
 251 0014 C1E90142 		strd	r4, r2, [r1, #4]
 252              		.loc 1 159 3 is_stmt 1 view .LVU72
 253              		.loc 1 159 17 is_stmt 0 view .LVU73
 254 0018 C1E90303 		strd	r0, r3, [r1, #12]
 255              		.loc 1 160 3 is_stmt 1 view .LVU74
 256              	.LVL10:
 257              		.loc 1 160 3 is_stmt 0 view .LVU75
 258              	.LBE213:
 259              	.LBE212:
 260              		.loc 1 185 3 is_stmt 1 view .LVU76
 261              	.LBB218:
 262              	.LBI218:
 263              		.loc 3 386 20 view .LVU77
 264              	.LBB219:
 265              		.loc 3 388 23 view .LVU78
 266              		.loc 3 389 34 view .LVU79
 267              		.loc 3 395 3 view .LVU80
 268              		.loc 3 395 3 view .LVU81
 269              		.loc 3 395 3 view .LVU82
 270              		.loc 3 399 3 view .LVU83
 271              	.LBB220:
 272              	.LBI220:
 273              		.loc 4 864 27 view .LVU84
 274              		.loc 4 867 3 view .LVU85
 275              	.LBB221:
 276              	.LBI221:
 277              		.loc 5 491 27 view .LVU86
 278              	.LBB222:
 279              		.loc 5 493 3 view .LVU87
 280              		.syntax unified
 281              	@ 493 "./docs/ChibiOS/os/common/ext/ARM/CMSIS/Core/Include/cmsis_gcc.h" 1
 282 001c 80F31188 		MSR basepri, r0
 283              	@ 0 "" 2
 284              	.LVL11:
 285              		.loc 5 493 3 is_stmt 0 view .LVU88
ARM GAS  C:\Users\DEVELO~1\AppData\Local\Temp\ccUqVwMd.s 			page 6


 286              		.thumb
 287              		.syntax unified
 288              	.LBE222:
 289              	.LBE221:
 290              	.LBE220:
 291              	.LBE219:
 292              	.LBE218:
 293              		.loc 1 186 1 view .LVU89
 294 0020 30BC     		pop	{r4, r5}
 295              		.cfi_restore 5
 296              		.cfi_restore 4
 297              		.cfi_def_cfa_offset 0
 298              	.LVL12:
 299              		.loc 1 186 1 view .LVU90
 300 0022 7047     		bx	lr
 301              	.L11:
 302              		.align	2
 303              	.L10:
 304 0024 00000000 		.word	ch0
 305              		.cfi_endproc
 306              	.LFE355:
 307              		.size	chEvtRegisterMaskWithFlags, .-chEvtRegisterMaskWithFlags
 308              		.section	.text.chEvtUnregister,"ax",%progbits
 309              		.align	1
 310              		.p2align 2,,3
 311              		.global	chEvtUnregister
 312              		.syntax unified
 313              		.thumb
 314              		.thumb_func
 315              		.type	chEvtUnregister, %function
 316              	chEvtUnregister:
 317              	.LVL13:
 318              	.LFB356:
 319              		.loc 1 201 66 is_stmt 1 view -0
 320              		.cfi_startproc
 321              		@ args = 0, pretend = 0, frame = 0
 322              		@ frame_needed = 0, uses_anonymous_args = 0
 323              		@ link register save eliminated.
 324              		.loc 1 202 3 view .LVU92
 325              		.loc 1 204 3 view .LVU93
 326              		.loc 1 204 3 view .LVU94
 327              		.loc 1 204 3 view .LVU95
 328              		.loc 1 207 3 view .LVU96
 329              	.LBB223:
 330              	.LBB224:
 331              	.LBB225:
 332              	.LBB226:
 333              	.LBB227:
 334              		.loc 5 493 3 is_stmt 0 view .LVU97
 335 0000 3023     		movs	r3, #48
 336              	.LVL14:
 337              		.loc 5 493 3 view .LVU98
 338              	.LBE227:
 339              	.LBE226:
 340              	.LBE225:
 341              	.LBE224:
 342              	.LBE223:
ARM GAS  C:\Users\DEVELO~1\AppData\Local\Temp\ccUqVwMd.s 			page 7


 343              		.loc 1 209 3 is_stmt 1 view .LVU99
 344              	.LBB233:
 345              	.LBI223:
 346              		.loc 3 372 20 view .LVU100
 347              	.LBB231:
 348              		.loc 3 374 3 view .LVU101
 349              	.LBB230:
 350              	.LBI225:
 351              		.loc 4 840 27 view .LVU102
 352              		.loc 4 848 3 view .LVU103
 353              	.LBB229:
 354              	.LBI226:
 355              		.loc 5 491 27 view .LVU104
 356              	.LBB228:
 357              		.loc 5 493 3 view .LVU105
 358              		.syntax unified
 359              	@ 493 "./docs/ChibiOS/os/common/ext/ARM/CMSIS/Core/Include/cmsis_gcc.h" 1
 360 0002 83F31188 		MSR basepri, r3
 361              	@ 0 "" 2
 362              	.LVL15:
 363              		.loc 5 493 3 is_stmt 0 view .LVU106
 364              		.thumb
 365              		.syntax unified
 366              	.LBE228:
 367              	.LBE229:
 368              	.LBE230:
 369              		.loc 3 375 35 is_stmt 1 view .LVU107
 370              		.loc 3 376 21 view .LVU108
 371              	.LBE231:
 372              	.LBE233:
 373              		.loc 1 207 5 is_stmt 0 view .LVU109
 374 0006 0346     		mov	r3, r0
 375              	.LBB234:
 376              	.LBB232:
 377              		.loc 3 377 1 view .LVU110
 378 0008 01E0     		b	.L13
 379              	.LVL16:
 380              	.L15:
 381              		.loc 3 377 1 view .LVU111
 382              	.LBE232:
 383              	.LBE234:
 384              		.loc 1 213 8 view .LVU112
 385 000a 8B42     		cmp	r3, r1
 386 000c 07D0     		beq	.L17
 387              	.LVL17:
 388              	.L13:
 389              		.loc 1 213 5 is_stmt 1 view .LVU113
 390              		.loc 1 211 18 view .LVU114
 391 000e 1A46     		mov	r2, r3
 392              		.loc 1 211 11 is_stmt 0 view .LVU115
 393 0010 1B68     		ldr	r3, [r3]
 394              	.LVL18:
 395              		.loc 1 211 18 view .LVU116
 396 0012 9842     		cmp	r0, r3
 397 0014 F9D1     		bne	.L15
 398              		.loc 1 219 3 is_stmt 1 view .LVU117
 399              	.LBB235:
ARM GAS  C:\Users\DEVELO~1\AppData\Local\Temp\ccUqVwMd.s 			page 8


 400              	.LBI235:
 401              		.loc 3 386 20 view .LVU118
 402              	.LBB236:
 403              		.loc 3 388 23 view .LVU119
 404              		.loc 3 389 34 view .LVU120
 405              		.loc 3 395 3 view .LVU121
 406              		.loc 3 395 3 view .LVU122
 407              		.loc 3 395 3 view .LVU123
 408              		.loc 3 399 3 view .LVU124
 409              	.LBB237:
 410              	.LBI237:
 411              		.loc 4 864 27 view .LVU125
 412              		.loc 4 867 3 view .LVU126
 413              	.LVL19:
 414              	.LBB238:
 415              	.LBI238:
 416              		.loc 5 491 27 view .LVU127
 417              	.LBB239:
 418              		.loc 5 493 3 view .LVU128
 419 0016 0023     		movs	r3, #0
 420              		.syntax unified
 421              	@ 493 "./docs/ChibiOS/os/common/ext/ARM/CMSIS/Core/Include/cmsis_gcc.h" 1
 422 0018 83F31188 		MSR basepri, r3
 423              	@ 0 "" 2
 424              	.LVL20:
 425              		.loc 5 493 3 is_stmt 0 view .LVU129
 426              		.thumb
 427              		.syntax unified
 428              	.LBE239:
 429              	.LBE238:
 430              	.LBE237:
 431              	.LBE236:
 432              	.LBE235:
 433              		.loc 1 220 1 view .LVU130
 434 001c 7047     		bx	lr
 435              	.L17:
 436              		.loc 1 214 7 is_stmt 1 view .LVU131
 437              		.loc 1 214 20 is_stmt 0 view .LVU132
 438 001e 1B68     		ldr	r3, [r3]
 439              		.loc 1 214 15 view .LVU133
 440 0020 1360     		str	r3, [r2]
 441              		.loc 1 215 7 is_stmt 1 view .LVU134
 442              		.loc 1 219 3 view .LVU135
 443              	.LBB244:
 444              		.loc 3 386 20 view .LVU136
 445              	.LBB243:
 446              		.loc 3 388 23 view .LVU137
 447              		.loc 3 389 34 view .LVU138
 448              		.loc 3 395 3 view .LVU139
 449              		.loc 3 395 3 view .LVU140
 450              		.loc 3 395 3 view .LVU141
 451              		.loc 3 399 3 view .LVU142
 452              	.LBB242:
 453              		.loc 4 864 27 view .LVU143
 454              		.loc 4 867 3 view .LVU144
 455              	.LVL21:
 456              	.LBB241:
ARM GAS  C:\Users\DEVELO~1\AppData\Local\Temp\ccUqVwMd.s 			page 9


 457              		.loc 5 491 27 view .LVU145
 458              	.LBB240:
 459              		.loc 5 493 3 view .LVU146
 460 0022 0023     		movs	r3, #0
 461              		.syntax unified
 462              	@ 493 "./docs/ChibiOS/os/common/ext/ARM/CMSIS/Core/Include/cmsis_gcc.h" 1
 463 0024 83F31188 		MSR basepri, r3
 464              	@ 0 "" 2
 465              	.LVL22:
 466              		.loc 5 493 3 is_stmt 0 view .LVU147
 467              		.thumb
 468              		.syntax unified
 469              	.LBE240:
 470              	.LBE241:
 471              	.LBE242:
 472              	.LBE243:
 473              	.LBE244:
 474              		.loc 1 220 1 view .LVU148
 475 0028 7047     		bx	lr
 476              		.cfi_endproc
 477              	.LFE356:
 478              		.size	chEvtUnregister, .-chEvtUnregister
 479              		.section	.text.chEvtGetAndClearEventsI,"ax",%progbits
 480              		.align	1
 481              		.p2align 2,,3
 482              		.global	chEvtGetAndClearEventsI
 483              		.syntax unified
 484              		.thumb
 485              		.thumb_func
 486              		.type	chEvtGetAndClearEventsI, %function
 487              	chEvtGetAndClearEventsI:
 488              	.LVL23:
 489              	.LFB357:
 490              		.loc 1 230 57 is_stmt 1 view -0
 491              		.cfi_startproc
 492              		@ args = 0, pretend = 0, frame = 0
 493              		@ frame_needed = 0, uses_anonymous_args = 0
 494              		@ link register save eliminated.
 495              		.loc 1 231 3 view .LVU150
 496              	.LBB245:
 497              	.LBI245:
 498              		.loc 2 527 25 view .LVU151
 499              	.LBB246:
 500              		.loc 2 529 3 view .LVU152
 501              		.loc 2 529 10 is_stmt 0 view .LVU153
 502 0000 034B     		ldr	r3, .L19
 503 0002 DB68     		ldr	r3, [r3, #12]
 504              	.LVL24:
 505              		.loc 2 529 10 view .LVU154
 506              	.LBE246:
 507              	.LBE245:
 508              		.loc 1 232 3 is_stmt 1 view .LVU155
 509              		.loc 1 234 21 view .LVU156
 510              		.loc 1 236 3 view .LVU157
 511              		.loc 1 236 13 is_stmt 0 view .LVU158
 512 0004 5A6C     		ldr	r2, [r3, #68]
 513              	.LVL25:
ARM GAS  C:\Users\DEVELO~1\AppData\Local\Temp\ccUqVwMd.s 			page 10


 514              		.loc 1 237 3 is_stmt 1 view .LVU159
 515              		.loc 1 237 20 is_stmt 0 view .LVU160
 516 0006 22EA0001 		bic	r1, r2, r0
 517              		.loc 1 240 1 view .LVU161
 518 000a 1040     		ands	r0, r0, r2
 519              	.LVL26:
 520              		.loc 1 237 20 view .LVU162
 521 000c 5964     		str	r1, [r3, #68]
 522              		.loc 1 239 3 is_stmt 1 view .LVU163
 523              		.loc 1 240 1 is_stmt 0 view .LVU164
 524 000e 7047     		bx	lr
 525              	.L20:
 526              		.align	2
 527              	.L19:
 528 0010 00000000 		.word	ch0
 529              		.cfi_endproc
 530              	.LFE357:
 531              		.size	chEvtGetAndClearEventsI, .-chEvtGetAndClearEventsI
 532              		.section	.text.chEvtGetAndClearEvents,"ax",%progbits
 533              		.align	1
 534              		.p2align 2,,3
 535              		.global	chEvtGetAndClearEvents
 536              		.syntax unified
 537              		.thumb
 538              		.thumb_func
 539              		.type	chEvtGetAndClearEvents, %function
 540              	chEvtGetAndClearEvents:
 541              	.LVL27:
 542              	.LFB358:
 543              		.loc 1 250 56 is_stmt 1 view -0
 544              		.cfi_startproc
 545              		@ args = 0, pretend = 0, frame = 0
 546              		@ frame_needed = 0, uses_anonymous_args = 0
 547              		@ link register save eliminated.
 548              		.loc 1 251 3 view .LVU166
 549              		.loc 1 253 3 view .LVU167
 550              	.LBB247:
 551              	.LBI247:
 552              		.loc 3 372 20 view .LVU168
 553              		.loc 3 374 3 view .LVU169
 554              	.LBB248:
 555              	.LBI248:
 556              		.loc 4 840 27 view .LVU170
 557              		.loc 4 848 3 view .LVU171
 558              	.LBB249:
 559              	.LBI249:
 560              		.loc 5 491 27 view .LVU172
 561              	.LBB250:
 562              		.loc 5 493 3 view .LVU173
 563              	.LBE250:
 564              	.LBE249:
 565              	.LBE248:
 566              	.LBE247:
 567              		.loc 1 250 56 is_stmt 0 view .LVU174
 568 0000 10B4     		push	{r4}
 569              		.cfi_def_cfa_offset 4
 570              		.cfi_offset 4, -4
ARM GAS  C:\Users\DEVELO~1\AppData\Local\Temp\ccUqVwMd.s 			page 11


 571              	.LBB254:
 572              	.LBB253:
 573              	.LBB252:
 574              	.LBB251:
 575              		.loc 5 493 3 view .LVU175
 576 0002 3023     		movs	r3, #48
 577              		.syntax unified
 578              	@ 493 "./docs/ChibiOS/os/common/ext/ARM/CMSIS/Core/Include/cmsis_gcc.h" 1
 579 0004 83F31188 		MSR basepri, r3
 580              	@ 0 "" 2
 581              	.LVL28:
 582              		.loc 5 493 3 view .LVU176
 583              		.thumb
 584              		.syntax unified
 585              	.LBE251:
 586              	.LBE252:
 587              	.LBE253:
 588              		.loc 3 375 35 is_stmt 1 view .LVU177
 589              		.loc 3 376 21 view .LVU178
 590              	.LBE254:
 591              		.loc 1 254 3 view .LVU179
 592              	.LBB255:
 593              	.LBI255:
 594              		.loc 1 230 13 view .LVU180
 595              	.LBB256:
 596              		.loc 1 231 3 view .LVU181
 597              	.LBB257:
 598              	.LBI257:
 599              		.loc 2 527 25 view .LVU182
 600              	.LBB258:
 601              		.loc 2 529 3 view .LVU183
 602              		.loc 2 529 10 is_stmt 0 view .LVU184
 603 0008 064B     		ldr	r3, .L23
 604              	.LBE258:
 605              	.LBE257:
 606              	.LBE256:
 607              	.LBE255:
 608              	.LBB262:
 609              	.LBB263:
 610              	.LBB264:
 611              	.LBB265:
 612              	.LBB266:
 613              		.loc 5 493 3 view .LVU185
 614 000a 0021     		movs	r1, #0
 615              	.LBE266:
 616              	.LBE265:
 617              	.LBE264:
 618              	.LBE263:
 619              	.LBE262:
 620              	.LBB271:
 621              	.LBB261:
 622              	.LBB260:
 623              	.LBB259:
 624              		.loc 2 529 10 view .LVU186
 625 000c DA68     		ldr	r2, [r3, #12]
 626              	.LVL29:
 627              		.loc 2 529 10 view .LVU187
ARM GAS  C:\Users\DEVELO~1\AppData\Local\Temp\ccUqVwMd.s 			page 12


 628              	.LBE259:
 629              	.LBE260:
 630              		.loc 1 232 3 is_stmt 1 view .LVU188
 631              		.loc 1 234 21 view .LVU189
 632              		.loc 1 236 3 view .LVU190
 633              		.loc 1 236 13 is_stmt 0 view .LVU191
 634 000e 536C     		ldr	r3, [r2, #68]
 635              	.LVL30:
 636              		.loc 1 237 3 is_stmt 1 view .LVU192
 637              		.loc 1 237 20 is_stmt 0 view .LVU193
 638 0010 23EA0004 		bic	r4, r3, r0
 639 0014 5464     		str	r4, [r2, #68]
 640              		.loc 1 239 3 is_stmt 1 view .LVU194
 641              	.LVL31:
 642              		.loc 1 239 3 is_stmt 0 view .LVU195
 643              	.LBE261:
 644              	.LBE271:
 645              		.loc 1 255 3 is_stmt 1 view .LVU196
 646              	.LBB272:
 647              	.LBI262:
 648              		.loc 3 386 20 view .LVU197
 649              	.LBB270:
 650              		.loc 3 388 23 view .LVU198
 651              		.loc 3 389 34 view .LVU199
 652              		.loc 3 395 3 view .LVU200
 653              		.loc 3 395 3 view .LVU201
 654              		.loc 3 395 3 view .LVU202
 655              		.loc 3 399 3 view .LVU203
 656              	.LBB269:
 657              	.LBI264:
 658              		.loc 4 864 27 view .LVU204
 659              		.loc 4 867 3 view .LVU205
 660              	.LBB268:
 661              	.LBI265:
 662              		.loc 5 491 27 view .LVU206
 663              	.LBB267:
 664              		.loc 5 493 3 view .LVU207
 665              		.syntax unified
 666              	@ 493 "./docs/ChibiOS/os/common/ext/ARM/CMSIS/Core/Include/cmsis_gcc.h" 1
 667 0016 81F31188 		MSR basepri, r1
 668              	@ 0 "" 2
 669              	.LVL32:
 670              		.loc 5 493 3 is_stmt 0 view .LVU208
 671              		.thumb
 672              		.syntax unified
 673              	.LBE267:
 674              	.LBE268:
 675              	.LBE269:
 676              	.LBE270:
 677              	.LBE272:
 678              		.loc 1 257 3 is_stmt 1 view .LVU209
 679              		.loc 1 258 1 is_stmt 0 view .LVU210
 680 001a 1840     		ands	r0, r0, r3
 681              	.LVL33:
 682              		.loc 1 258 1 view .LVU211
 683 001c 5DF8044B 		ldr	r4, [sp], #4
 684              		.cfi_restore 4
ARM GAS  C:\Users\DEVELO~1\AppData\Local\Temp\ccUqVwMd.s 			page 13


 685              		.cfi_def_cfa_offset 0
 686 0020 7047     		bx	lr
 687              	.L24:
 688 0022 00BF     		.align	2
 689              	.L23:
 690 0024 00000000 		.word	ch0
 691              		.cfi_endproc
 692              	.LFE358:
 693              		.size	chEvtGetAndClearEvents, .-chEvtGetAndClearEvents
 694              		.section	.text.chEvtAddEvents,"ax",%progbits
 695              		.align	1
 696              		.p2align 2,,3
 697              		.global	chEvtAddEvents
 698              		.syntax unified
 699              		.thumb
 700              		.thumb_func
 701              		.type	chEvtAddEvents, %function
 702              	chEvtAddEvents:
 703              	.LVL34:
 704              	.LFB359:
 705              		.loc 1 269 48 is_stmt 1 view -0
 706              		.cfi_startproc
 707              		@ args = 0, pretend = 0, frame = 0
 708              		@ frame_needed = 0, uses_anonymous_args = 0
 709              		@ link register save eliminated.
 710              		.loc 1 270 3 view .LVU213
 711              		.loc 1 272 3 view .LVU214
 712              	.LBB273:
 713              	.LBI273:
 714              		.loc 3 372 20 view .LVU215
 715              		.loc 3 374 3 view .LVU216
 716              	.LBB274:
 717              	.LBI274:
 718              		.loc 4 840 27 view .LVU217
 719              		.loc 4 848 3 view .LVU218
 720              	.LBB275:
 721              	.LBI275:
 722              		.loc 5 491 27 view .LVU219
 723              	.LBB276:
 724              		.loc 5 493 3 view .LVU220
 725 0000 3023     		movs	r3, #48
 726              		.syntax unified
 727              	@ 493 "./docs/ChibiOS/os/common/ext/ARM/CMSIS/Core/Include/cmsis_gcc.h" 1
 728 0002 83F31188 		MSR basepri, r3
 729              	@ 0 "" 2
 730              	.LVL35:
 731              		.loc 5 493 3 is_stmt 0 view .LVU221
 732              		.thumb
 733              		.syntax unified
 734              	.LBE276:
 735              	.LBE275:
 736              	.LBE274:
 737              		.loc 3 375 35 is_stmt 1 view .LVU222
 738              		.loc 3 376 21 view .LVU223
 739              	.LBE273:
 740              		.loc 1 273 3 view .LVU224
 741              	.LBB277:
ARM GAS  C:\Users\DEVELO~1\AppData\Local\Temp\ccUqVwMd.s 			page 14


 742              	.LBI277:
 743              		.file 6 "./docs/ChibiOS/os/rt/include/chevents.h"
 744              		.loc 6 264 27 view .LVU225
 745              	.LBB278:
 746              		.loc 6 266 3 view .LVU226
 747              		.loc 6 266 10 is_stmt 0 view .LVU227
 748 0006 044B     		ldr	r3, .L26
 749              	.LBE278:
 750              	.LBE277:
 751              	.LBB280:
 752              	.LBB281:
 753              	.LBB282:
 754              	.LBB283:
 755              	.LBB284:
 756              		.loc 5 493 3 view .LVU228
 757 0008 0022     		movs	r2, #0
 758              	.LBE284:
 759              	.LBE283:
 760              	.LBE282:
 761              	.LBE281:
 762              	.LBE280:
 763              	.LBB289:
 764              	.LBB279:
 765              		.loc 6 266 10 view .LVU229
 766 000a DB68     		ldr	r3, [r3, #12]
 767              		.loc 6 266 43 view .LVU230
 768 000c 596C     		ldr	r1, [r3, #68]
 769 000e 0843     		orrs	r0, r0, r1
 770              	.LVL36:
 771              		.loc 6 266 43 view .LVU231
 772 0010 5864     		str	r0, [r3, #68]
 773              	.LVL37:
 774              		.loc 6 266 43 view .LVU232
 775              	.LBE279:
 776              	.LBE289:
 777              		.loc 1 274 3 is_stmt 1 view .LVU233
 778              	.LBB290:
 779              	.LBI280:
 780              		.loc 3 386 20 view .LVU234
 781              	.LBB288:
 782              		.loc 3 388 23 view .LVU235
 783              		.loc 3 389 34 view .LVU236
 784              		.loc 3 395 3 view .LVU237
 785              		.loc 3 395 3 view .LVU238
 786              		.loc 3 395 3 view .LVU239
 787              		.loc 3 399 3 view .LVU240
 788              	.LBB287:
 789              	.LBI282:
 790              		.loc 4 864 27 view .LVU241
 791              		.loc 4 867 3 view .LVU242
 792              	.LBB286:
 793              	.LBI283:
 794              		.loc 5 491 27 view .LVU243
 795              	.LBB285:
 796              		.loc 5 493 3 view .LVU244
 797              		.syntax unified
 798              	@ 493 "./docs/ChibiOS/os/common/ext/ARM/CMSIS/Core/Include/cmsis_gcc.h" 1
ARM GAS  C:\Users\DEVELO~1\AppData\Local\Temp\ccUqVwMd.s 			page 15


 799 0012 82F31188 		MSR basepri, r2
 800              	@ 0 "" 2
 801              	.LVL38:
 802              		.loc 5 493 3 is_stmt 0 view .LVU245
 803              		.thumb
 804              		.syntax unified
 805              	.LBE285:
 806              	.LBE286:
 807              	.LBE287:
 808              	.LBE288:
 809              	.LBE290:
 810              		.loc 1 276 3 is_stmt 1 view .LVU246
 811              		.loc 1 277 1 is_stmt 0 view .LVU247
 812 0016 7047     		bx	lr
 813              	.L27:
 814              		.align	2
 815              	.L26:
 816 0018 00000000 		.word	ch0
 817              		.cfi_endproc
 818              	.LFE359:
 819              		.size	chEvtAddEvents, .-chEvtAddEvents
 820              		.section	.text.chEvtGetAndClearFlagsI,"ax",%progbits
 821              		.align	1
 822              		.p2align 2,,3
 823              		.global	chEvtGetAndClearFlagsI
 824              		.syntax unified
 825              		.thumb
 826              		.thumb_func
 827              		.type	chEvtGetAndClearFlagsI, %function
 828              	chEvtGetAndClearFlagsI:
 829              	.LVL39:
 830              	.LFB360:
 831              		.loc 1 290 60 is_stmt 1 view -0
 832              		.cfi_startproc
 833              		@ args = 0, pretend = 0, frame = 0
 834              		@ frame_needed = 0, uses_anonymous_args = 0
 835              		@ link register save eliminated.
 836              		.loc 1 291 3 view .LVU249
 837              		.loc 1 293 21 view .LVU250
 838              		.loc 1 294 3 view .LVU251
 839              		.loc 1 294 3 view .LVU252
 840              		.loc 1 294 3 view .LVU253
 841              		.loc 1 296 3 view .LVU254
 842              		.loc 1 299 16 is_stmt 0 view .LVU255
 843 0000 D0E90323 		ldrd	r2, r3, [r0, #12]
 844              		.loc 1 297 14 view .LVU256
 845 0004 0021     		movs	r1, #0
 846 0006 C160     		str	r1, [r0, #12]
 847              		.loc 1 299 3 is_stmt 1 view .LVU257
 848              		.loc 1 300 1 is_stmt 0 view .LVU258
 849 0008 02EA0300 		and	r0, r2, r3
 850              	.LVL40:
 851              		.loc 1 300 1 view .LVU259
 852 000c 7047     		bx	lr
 853              		.cfi_endproc
 854              	.LFE360:
 855              		.size	chEvtGetAndClearFlagsI, .-chEvtGetAndClearFlagsI
ARM GAS  C:\Users\DEVELO~1\AppData\Local\Temp\ccUqVwMd.s 			page 16


 856 000e 00BF     		.section	.text.chEvtGetAndClearFlags,"ax",%progbits
 857              		.align	1
 858              		.p2align 2,,3
 859              		.global	chEvtGetAndClearFlags
 860              		.syntax unified
 861              		.thumb
 862              		.thumb_func
 863              		.type	chEvtGetAndClearFlags, %function
 864              	chEvtGetAndClearFlags:
 865              	.LVL41:
 866              	.LFB361:
 867              		.loc 1 313 59 is_stmt 1 view -0
 868              		.cfi_startproc
 869              		@ args = 0, pretend = 0, frame = 0
 870              		@ frame_needed = 0, uses_anonymous_args = 0
 871              		@ link register save eliminated.
 872              		.loc 1 314 3 view .LVU261
 873              		.loc 1 316 3 view .LVU262
 874              		.loc 1 316 3 view .LVU263
 875              		.loc 1 316 3 view .LVU264
 876              		.loc 1 318 3 view .LVU265
 877              	.LBB291:
 878              	.LBI291:
 879              		.loc 3 372 20 view .LVU266
 880              		.loc 3 374 3 view .LVU267
 881              	.LBB292:
 882              	.LBI292:
 883              		.loc 4 840 27 view .LVU268
 884              		.loc 4 848 3 view .LVU269
 885              	.LBB293:
 886              	.LBI293:
 887              		.loc 5 491 27 view .LVU270
 888              	.LBB294:
 889              		.loc 5 493 3 view .LVU271
 890 0000 3023     		movs	r3, #48
 891              		.syntax unified
 892              	@ 493 "./docs/ChibiOS/os/common/ext/ARM/CMSIS/Core/Include/cmsis_gcc.h" 1
 893 0002 83F31188 		MSR basepri, r3
 894              	@ 0 "" 2
 895              	.LVL42:
 896              		.loc 5 493 3 is_stmt 0 view .LVU272
 897              		.thumb
 898              		.syntax unified
 899              	.LBE294:
 900              	.LBE293:
 901              	.LBE292:
 902              		.loc 3 375 35 is_stmt 1 view .LVU273
 903              		.loc 3 376 21 view .LVU274
 904              	.LBE291:
 905              		.loc 1 319 3 view .LVU275
 906              		.loc 1 320 14 is_stmt 0 view .LVU276
 907 0006 0023     		movs	r3, #0
 908              		.loc 1 319 9 view .LVU277
 909 0008 C268     		ldr	r2, [r0, #12]
 910              	.LVL43:
 911              		.loc 1 320 3 is_stmt 1 view .LVU278
 912              		.loc 1 320 14 is_stmt 0 view .LVU279
ARM GAS  C:\Users\DEVELO~1\AppData\Local\Temp\ccUqVwMd.s 			page 17


 913 000a C360     		str	r3, [r0, #12]
 914              		.loc 1 321 3 is_stmt 1 view .LVU280
 915              	.LBB295:
 916              	.LBI295:
 917              		.loc 3 386 20 view .LVU281
 918              	.LBB296:
 919              		.loc 3 388 23 view .LVU282
 920              		.loc 3 389 34 view .LVU283
 921              		.loc 3 395 3 view .LVU284
 922              		.loc 3 395 3 view .LVU285
 923              		.loc 3 395 3 view .LVU286
 924              		.loc 3 399 3 view .LVU287
 925              	.LBB297:
 926              	.LBI297:
 927              		.loc 4 864 27 view .LVU288
 928              		.loc 4 867 3 view .LVU289
 929              	.LVL44:
 930              	.LBB298:
 931              	.LBI298:
 932              		.loc 5 491 27 view .LVU290
 933              	.LBB299:
 934              		.loc 5 493 3 view .LVU291
 935              		.syntax unified
 936              	@ 493 "./docs/ChibiOS/os/common/ext/ARM/CMSIS/Core/Include/cmsis_gcc.h" 1
 937 000c 83F31188 		MSR basepri, r3
 938              	@ 0 "" 2
 939              	.LVL45:
 940              		.loc 5 493 3 is_stmt 0 view .LVU292
 941              		.thumb
 942              		.syntax unified
 943              	.LBE299:
 944              	.LBE298:
 945              	.LBE297:
 946              	.LBE296:
 947              	.LBE295:
 948              		.loc 1 323 3 is_stmt 1 view .LVU293
 949              		.loc 1 323 16 is_stmt 0 view .LVU294
 950 0010 0069     		ldr	r0, [r0, #16]
 951              	.LVL46:
 952              		.loc 1 324 1 view .LVU295
 953 0012 1040     		ands	r0, r0, r2
 954 0014 7047     		bx	lr
 955              		.cfi_endproc
 956              	.LFE361:
 957              		.size	chEvtGetAndClearFlags, .-chEvtGetAndClearFlags
 958 0016 00BF     		.section	.text.chEvtSignalI,"ax",%progbits
 959              		.align	1
 960              		.p2align 2,,3
 961              		.global	chEvtSignalI
 962              		.syntax unified
 963              		.thumb
 964              		.thumb_func
 965              		.type	chEvtSignalI, %function
 966              	chEvtSignalI:
 967              	.LVL47:
 968              	.LFB362:
 969              		.loc 1 338 53 is_stmt 1 view -0
ARM GAS  C:\Users\DEVELO~1\AppData\Local\Temp\ccUqVwMd.s 			page 18


 970              		.cfi_startproc
 971              		@ args = 0, pretend = 0, frame = 0
 972              		@ frame_needed = 0, uses_anonymous_args = 0
 973              		@ link register save eliminated.
 974              		.loc 1 340 21 view .LVU297
 975              		.loc 1 341 3 view .LVU298
 976              		.loc 1 341 3 view .LVU299
 977              		.loc 1 341 3 view .LVU300
 978              		.loc 1 343 3 view .LVU301
 979              		.loc 1 343 16 is_stmt 0 view .LVU302
 980 0000 426C     		ldr	r2, [r0, #68]
 981              		.loc 1 345 11 view .LVU303
 982 0002 037F     		ldrb	r3, [r0, #28]	@ zero_extendqisi2
 983              		.loc 1 343 16 view .LVU304
 984 0004 1143     		orrs	r1, r1, r2
 985              	.LVL48:
 986              		.loc 1 345 6 view .LVU305
 987 0006 0A2B     		cmp	r3, #10
 988              		.loc 1 343 16 view .LVU306
 989 0008 4164     		str	r1, [r0, #68]
 990              		.loc 1 345 3 is_stmt 1 view .LVU307
 991              		.loc 1 345 6 is_stmt 0 view .LVU308
 992 000a 09D0     		beq	.L34
 993              		.loc 1 346 59 view .LVU309
 994 000c 0B2B     		cmp	r3, #11
 995 000e 00D0     		beq	.L35
 996              	.L30:
 997              		.loc 1 352 1 view .LVU310
 998 0010 7047     		bx	lr
 999              	.L35:
 1000              		.loc 1 348 30 view .LVU311
 1001 0012 436B     		ldr	r3, [r0, #52]
 1002              		.loc 1 347 41 view .LVU312
 1003 0014 8B43     		bics	r3, r3, r1
 1004 0016 FBD1     		bne	.L30
 1005              	.L32:
 1006              		.loc 1 349 5 is_stmt 1 view .LVU313
 1007              		.loc 1 349 18 is_stmt 0 view .LVU314
 1008 0018 0023     		movs	r3, #0
 1009 001a 4363     		str	r3, [r0, #52]
 1010              		.loc 1 350 5 is_stmt 1 view .LVU315
 1011              		.loc 1 350 12 is_stmt 0 view .LVU316
 1012 001c FFF7FEBF 		b	chSchReadyI
 1013              	.LVL49:
 1014              	.L34:
 1015              		.loc 1 346 23 discriminator 1 view .LVU317
 1016 0020 436B     		ldr	r3, [r0, #52]
 1017              		.loc 1 345 40 discriminator 1 view .LVU318
 1018 0022 1942     		tst	r1, r3
 1019 0024 F8D1     		bne	.L32
 1020 0026 7047     		bx	lr
 1021              		.cfi_endproc
 1022              	.LFE362:
 1023              		.size	chEvtSignalI, .-chEvtSignalI
 1024              		.section	.text.chEvtSignal,"ax",%progbits
 1025              		.align	1
 1026              		.p2align 2,,3
ARM GAS  C:\Users\DEVELO~1\AppData\Local\Temp\ccUqVwMd.s 			page 19


 1027              		.global	chEvtSignal
 1028              		.syntax unified
 1029              		.thumb
 1030              		.thumb_func
 1031              		.type	chEvtSignal, %function
 1032              	chEvtSignal:
 1033              	.LVL50:
 1034              	.LFB363:
 1035              		.loc 1 362 52 is_stmt 1 view -0
 1036              		.cfi_startproc
 1037              		@ args = 0, pretend = 0, frame = 0
 1038              		@ frame_needed = 0, uses_anonymous_args = 0
 1039              		.loc 1 364 3 view .LVU320
 1040              		.loc 1 364 3 view .LVU321
 1041              		.loc 1 364 3 view .LVU322
 1042              		.loc 1 366 3 view .LVU323
 1043              	.LBB311:
 1044              	.LBI311:
 1045              		.loc 3 372 20 view .LVU324
 1046              		.loc 3 374 3 view .LVU325
 1047              	.LBB312:
 1048              	.LBI312:
 1049              		.loc 4 840 27 view .LVU326
 1050              		.loc 4 848 3 view .LVU327
 1051              	.LBB313:
 1052              	.LBI313:
 1053              		.loc 5 491 27 view .LVU328
 1054              	.LBB314:
 1055              		.loc 5 493 3 view .LVU329
 1056              	.LBE314:
 1057              	.LBE313:
 1058              	.LBE312:
 1059              	.LBE311:
 1060              		.loc 1 362 52 is_stmt 0 view .LVU330
 1061 0000 08B5     		push	{r3, lr}
 1062              		.cfi_def_cfa_offset 8
 1063              		.cfi_offset 3, -8
 1064              		.cfi_offset 14, -4
 1065              	.LBB318:
 1066              	.LBB317:
 1067              	.LBB316:
 1068              	.LBB315:
 1069              		.loc 5 493 3 view .LVU331
 1070 0002 3023     		movs	r3, #48
 1071              		.syntax unified
 1072              	@ 493 "./docs/ChibiOS/os/common/ext/ARM/CMSIS/Core/Include/cmsis_gcc.h" 1
 1073 0004 83F31188 		MSR basepri, r3
 1074              	@ 0 "" 2
 1075              	.LVL51:
 1076              		.loc 5 493 3 view .LVU332
 1077              		.thumb
 1078              		.syntax unified
 1079              	.LBE315:
 1080              	.LBE316:
 1081              	.LBE317:
 1082              		.loc 3 375 35 is_stmt 1 view .LVU333
 1083              		.loc 3 376 21 view .LVU334
ARM GAS  C:\Users\DEVELO~1\AppData\Local\Temp\ccUqVwMd.s 			page 20


 1084              	.LBE318:
 1085              		.loc 1 367 3 view .LVU335
 1086              	.LBB319:
 1087              	.LBI319:
 1088              		.loc 1 338 6 view .LVU336
 1089              	.LBB320:
 1090              		.loc 1 340 21 view .LVU337
 1091              		.loc 1 341 3 view .LVU338
 1092              		.loc 1 341 3 view .LVU339
 1093              		.loc 1 341 3 view .LVU340
 1094              		.loc 1 343 3 view .LVU341
 1095              		.loc 1 343 16 is_stmt 0 view .LVU342
 1096 0008 426C     		ldr	r2, [r0, #68]
 1097              		.loc 1 345 11 view .LVU343
 1098 000a 037F     		ldrb	r3, [r0, #28]	@ zero_extendqisi2
 1099              		.loc 1 343 16 view .LVU344
 1100 000c 1143     		orrs	r1, r1, r2
 1101              	.LVL52:
 1102              		.loc 1 345 6 view .LVU345
 1103 000e 0A2B     		cmp	r3, #10
 1104              		.loc 1 343 16 view .LVU346
 1105 0010 4164     		str	r1, [r0, #68]
 1106              		.loc 1 345 3 is_stmt 1 view .LVU347
 1107              		.loc 1 345 6 is_stmt 0 view .LVU348
 1108 0012 14D0     		beq	.L42
 1109              		.loc 1 346 59 view .LVU349
 1110 0014 0B2B     		cmp	r3, #11
 1111 0016 05D0     		beq	.L43
 1112              	.L39:
 1113              	.LVL53:
 1114              		.loc 1 346 59 view .LVU350
 1115              	.LBE320:
 1116              	.LBE319:
 1117              		.loc 1 368 3 is_stmt 1 view .LVU351
 1118 0018 FFF7FEFF 		bl	chSchRescheduleS
 1119              	.LVL54:
 1120              		.loc 1 369 3 view .LVU352
 1121              	.LBB323:
 1122              	.LBI323:
 1123              		.loc 3 386 20 view .LVU353
 1124              	.LBB324:
 1125              		.loc 3 388 23 view .LVU354
 1126              		.loc 3 389 34 view .LVU355
 1127              		.loc 3 395 3 view .LVU356
 1128              		.loc 3 395 3 view .LVU357
 1129              		.loc 3 395 3 view .LVU358
 1130              		.loc 3 399 3 view .LVU359
 1131              	.LBB325:
 1132              	.LBI325:
 1133              		.loc 4 864 27 view .LVU360
 1134              		.loc 4 867 3 view .LVU361
 1135              	.LBB326:
 1136              	.LBI326:
 1137              		.loc 5 491 27 view .LVU362
 1138              	.LBB327:
 1139              		.loc 5 493 3 view .LVU363
 1140 001c 0023     		movs	r3, #0
ARM GAS  C:\Users\DEVELO~1\AppData\Local\Temp\ccUqVwMd.s 			page 21


 1141              		.syntax unified
 1142              	@ 493 "./docs/ChibiOS/os/common/ext/ARM/CMSIS/Core/Include/cmsis_gcc.h" 1
 1143 001e 83F31188 		MSR basepri, r3
 1144              	@ 0 "" 2
 1145              	.LVL55:
 1146              		.loc 5 493 3 is_stmt 0 view .LVU364
 1147              		.thumb
 1148              		.syntax unified
 1149              	.LBE327:
 1150              	.LBE326:
 1151              	.LBE325:
 1152              	.LBE324:
 1153              	.LBE323:
 1154              		.loc 1 370 1 view .LVU365
 1155 0022 08BD     		pop	{r3, pc}
 1156              	.LVL56:
 1157              	.L43:
 1158              	.LBB332:
 1159              	.LBB321:
 1160              		.loc 1 348 30 view .LVU366
 1161 0024 436B     		ldr	r3, [r0, #52]
 1162              		.loc 1 347 41 view .LVU367
 1163 0026 8B43     		bics	r3, r3, r1
 1164 0028 F6D1     		bne	.L39
 1165              		.loc 1 349 5 is_stmt 1 view .LVU368
 1166              		.loc 1 349 18 is_stmt 0 view .LVU369
 1167 002a 0023     		movs	r3, #0
 1168 002c 4363     		str	r3, [r0, #52]
 1169              		.loc 1 350 5 is_stmt 1 view .LVU370
 1170              		.loc 1 350 12 is_stmt 0 view .LVU371
 1171 002e FFF7FEFF 		bl	chSchReadyI
 1172              	.LVL57:
 1173              	.L44:
 1174              		.loc 1 350 12 view .LVU372
 1175              	.LBE321:
 1176              	.LBE332:
 1177              		.loc 1 368 3 is_stmt 1 view .LVU373
 1178 0032 FFF7FEFF 		bl	chSchRescheduleS
 1179              	.LVL58:
 1180              		.loc 1 369 3 view .LVU374
 1181              	.LBB333:
 1182              		.loc 3 386 20 view .LVU375
 1183              	.LBB331:
 1184              		.loc 3 388 23 view .LVU376
 1185              		.loc 3 389 34 view .LVU377
 1186              		.loc 3 395 3 view .LVU378
 1187              		.loc 3 395 3 view .LVU379
 1188              		.loc 3 395 3 view .LVU380
 1189              		.loc 3 399 3 view .LVU381
 1190              	.LBB330:
 1191              		.loc 4 864 27 view .LVU382
 1192              		.loc 4 867 3 view .LVU383
 1193              	.LBB329:
 1194              		.loc 5 491 27 view .LVU384
 1195              	.LBB328:
 1196              		.loc 5 493 3 view .LVU385
 1197 0036 0023     		movs	r3, #0
ARM GAS  C:\Users\DEVELO~1\AppData\Local\Temp\ccUqVwMd.s 			page 22


 1198              		.syntax unified
 1199              	@ 493 "./docs/ChibiOS/os/common/ext/ARM/CMSIS/Core/Include/cmsis_gcc.h" 1
 1200 0038 83F31188 		MSR basepri, r3
 1201              	@ 0 "" 2
 1202              	.LVL59:
 1203              		.loc 5 493 3 is_stmt 0 view .LVU386
 1204              		.thumb
 1205              		.syntax unified
 1206              	.LBE328:
 1207              	.LBE329:
 1208              	.LBE330:
 1209              	.LBE331:
 1210              	.LBE333:
 1211              		.loc 1 370 1 view .LVU387
 1212 003c 08BD     		pop	{r3, pc}
 1213              	.LVL60:
 1214              	.L42:
 1215              	.LBB334:
 1216              	.LBB322:
 1217              		.loc 1 346 23 view .LVU388
 1218 003e 436B     		ldr	r3, [r0, #52]
 1219              		.loc 1 345 40 view .LVU389
 1220 0040 1942     		tst	r1, r3
 1221 0042 E9D0     		beq	.L39
 1222              		.loc 1 349 5 is_stmt 1 view .LVU390
 1223              		.loc 1 349 18 is_stmt 0 view .LVU391
 1224 0044 0023     		movs	r3, #0
 1225 0046 4363     		str	r3, [r0, #52]
 1226              		.loc 1 350 5 is_stmt 1 view .LVU392
 1227              		.loc 1 350 12 is_stmt 0 view .LVU393
 1228 0048 FFF7FEFF 		bl	chSchReadyI
 1229              	.LVL61:
 1230              		.loc 1 350 12 view .LVU394
 1231 004c F1E7     		b	.L44
 1232              	.LBE322:
 1233              	.LBE334:
 1234              		.cfi_endproc
 1235              	.LFE363:
 1236              		.size	chEvtSignal, .-chEvtSignal
 1237 004e 00BF     		.section	.text.chEvtBroadcastFlagsI,"ax",%progbits
 1238              		.align	1
 1239              		.p2align 2,,3
 1240              		.global	chEvtBroadcastFlagsI
 1241              		.syntax unified
 1242              		.thumb
 1243              		.thumb_func
 1244              		.type	chEvtBroadcastFlagsI, %function
 1245              	chEvtBroadcastFlagsI:
 1246              	.LVL62:
 1247              	.LFB364:
 1248              		.loc 1 389 68 is_stmt 1 view -0
 1249              		.cfi_startproc
 1250              		@ args = 0, pretend = 0, frame = 0
 1251              		@ frame_needed = 0, uses_anonymous_args = 0
 1252              		.loc 1 390 3 view .LVU396
 1253              		.loc 1 392 21 view .LVU397
 1254              		.loc 1 393 3 view .LVU398
ARM GAS  C:\Users\DEVELO~1\AppData\Local\Temp\ccUqVwMd.s 			page 23


 1255              		.loc 1 393 3 view .LVU399
 1256              		.loc 1 393 3 view .LVU400
 1257              		.loc 1 395 3 view .LVU401
 1258              		.loc 1 389 68 is_stmt 0 view .LVU402
 1259 0000 F8B5     		push	{r3, r4, r5, r6, r7, lr}
 1260              		.cfi_def_cfa_offset 24
 1261              		.cfi_offset 3, -24
 1262              		.cfi_offset 4, -20
 1263              		.cfi_offset 5, -16
 1264              		.cfi_offset 6, -12
 1265              		.cfi_offset 7, -8
 1266              		.cfi_offset 14, -4
 1267              		.loc 1 395 7 view .LVU403
 1268 0002 0468     		ldr	r4, [r0]
 1269              	.LVL63:
 1270              		.loc 1 397 3 is_stmt 1 view .LVU404
 1271              		.loc 1 397 14 view .LVU405
 1272 0004 A042     		cmp	r0, r4
 1273 0006 20D0     		beq	.L45
 1274 0008 0746     		mov	r7, r0
 1275 000a 0D46     		mov	r5, r1
 1276              	.LBB337:
 1277              	.LBB338:
 1278              		.loc 1 349 18 is_stmt 0 view .LVU406
 1279 000c 0026     		movs	r6, #0
 1280 000e 04E0     		b	.L52
 1281              	.LVL64:
 1282              	.L49:
 1283              		.loc 1 346 59 view .LVU407
 1284 0010 0B29     		cmp	r1, #11
 1285 0012 1BD0     		beq	.L58
 1286              	.L48:
 1287              		.loc 1 346 59 view .LVU408
 1288              	.LBE338:
 1289              	.LBE337:
 1290              		.loc 1 406 5 is_stmt 1 view .LVU409
 1291              		.loc 1 406 9 is_stmt 0 view .LVU410
 1292 0014 2468     		ldr	r4, [r4]
 1293              	.LVL65:
 1294              		.loc 1 397 14 is_stmt 1 view .LVU411
 1295 0016 A742     		cmp	r7, r4
 1296 0018 17D0     		beq	.L45
 1297              	.L52:
 1298              		.loc 1 399 5 view .LVU412
 1299              		.loc 1 404 7 view .LVU413
 1300              		.loc 1 399 16 is_stmt 0 view .LVU414
 1301 001a E368     		ldr	r3, [r4, #12]
 1302 001c 2B43     		orrs	r3, r3, r5
 1303 001e E360     		str	r3, [r4, #12]
 1304              		.loc 1 402 5 is_stmt 1 view .LVU415
 1305              		.loc 1 402 8 is_stmt 0 view .LVU416
 1306 0020 15B1     		cbz	r5, .L47
 1307              		.loc 1 403 17 discriminator 1 view .LVU417
 1308 0022 2369     		ldr	r3, [r4, #16]
 1309              		.loc 1 402 36 discriminator 1 view .LVU418
 1310 0024 1D42     		tst	r5, r3
 1311 0026 F5D0     		beq	.L48
ARM GAS  C:\Users\DEVELO~1\AppData\Local\Temp\ccUqVwMd.s 			page 24


 1312              	.L47:
 1313              	.LBB341:
 1314              	.LBB339:
 1315              		.loc 1 343 16 view .LVU419
 1316 0028 D4E90102 		ldrd	r0, r2, [r4, #4]
 1317 002c 436C     		ldr	r3, [r0, #68]
 1318              		.loc 1 345 11 view .LVU420
 1319 002e 017F     		ldrb	r1, [r0, #28]	@ zero_extendqisi2
 1320              		.loc 1 343 16 view .LVU421
 1321 0030 1A43     		orrs	r2, r2, r3
 1322              		.loc 1 345 6 view .LVU422
 1323 0032 0A29     		cmp	r1, #10
 1324              		.loc 1 343 16 view .LVU423
 1325 0034 4264     		str	r2, [r0, #68]
 1326              		.loc 1 345 3 is_stmt 1 view .LVU424
 1327              		.loc 1 345 6 is_stmt 0 view .LVU425
 1328 0036 EBD1     		bne	.L49
 1329              		.loc 1 346 23 view .LVU426
 1330 0038 416B     		ldr	r1, [r0, #52]
 1331              		.loc 1 345 40 view .LVU427
 1332 003a 0A42     		tst	r2, r1
 1333 003c EAD0     		beq	.L48
 1334              	.L50:
 1335              		.loc 1 349 5 is_stmt 1 view .LVU428
 1336              		.loc 1 349 18 is_stmt 0 view .LVU429
 1337 003e 4663     		str	r6, [r0, #52]
 1338              		.loc 1 350 5 is_stmt 1 view .LVU430
 1339              		.loc 1 350 12 is_stmt 0 view .LVU431
 1340 0040 FFF7FEFF 		bl	chSchReadyI
 1341              	.LVL66:
 1342              	.LBE339:
 1343              	.LBE341:
 1344              		.loc 1 406 5 is_stmt 1 view .LVU432
 1345              		.loc 1 406 9 is_stmt 0 view .LVU433
 1346 0044 2468     		ldr	r4, [r4]
 1347              	.LVL67:
 1348              		.loc 1 397 14 is_stmt 1 view .LVU434
 1349 0046 A742     		cmp	r7, r4
 1350 0048 E7D1     		bne	.L52
 1351              	.LVL68:
 1352              	.L45:
 1353              		.loc 1 408 1 is_stmt 0 view .LVU435
 1354 004a F8BD     		pop	{r3, r4, r5, r6, r7, pc}
 1355              	.LVL69:
 1356              	.L58:
 1357              	.LBB342:
 1358              	.LBB340:
 1359              		.loc 1 348 30 view .LVU436
 1360 004c 416B     		ldr	r1, [r0, #52]
 1361              		.loc 1 347 41 view .LVU437
 1362 004e 9143     		bics	r1, r1, r2
 1363 0050 E0D1     		bne	.L48
 1364 0052 F4E7     		b	.L50
 1365              	.LBE340:
 1366              	.LBE342:
 1367              		.cfi_endproc
 1368              	.LFE364:
ARM GAS  C:\Users\DEVELO~1\AppData\Local\Temp\ccUqVwMd.s 			page 25


 1369              		.size	chEvtBroadcastFlagsI, .-chEvtBroadcastFlagsI
 1370              		.section	.text.chEvtBroadcastFlags,"ax",%progbits
 1371              		.align	1
 1372              		.p2align 2,,3
 1373              		.global	chEvtBroadcastFlags
 1374              		.syntax unified
 1375              		.thumb
 1376              		.thumb_func
 1377              		.type	chEvtBroadcastFlags, %function
 1378              	chEvtBroadcastFlags:
 1379              	.LVL70:
 1380              	.LFB365:
 1381              		.loc 1 423 67 is_stmt 1 view -0
 1382              		.cfi_startproc
 1383              		@ args = 0, pretend = 0, frame = 0
 1384              		@ frame_needed = 0, uses_anonymous_args = 0
 1385              		.loc 1 425 3 view .LVU439
 1386              	.LBB343:
 1387              	.LBI343:
 1388              		.loc 3 372 20 view .LVU440
 1389              		.loc 3 374 3 view .LVU441
 1390              	.LBB344:
 1391              	.LBI344:
 1392              		.loc 4 840 27 view .LVU442
 1393              		.loc 4 848 3 view .LVU443
 1394              	.LBB345:
 1395              	.LBI345:
 1396              		.loc 5 491 27 view .LVU444
 1397              	.LBB346:
 1398              		.loc 5 493 3 view .LVU445
 1399              	.LBE346:
 1400              	.LBE345:
 1401              	.LBE344:
 1402              	.LBE343:
 1403              		.loc 1 423 67 is_stmt 0 view .LVU446
 1404 0000 08B5     		push	{r3, lr}
 1405              		.cfi_def_cfa_offset 8
 1406              		.cfi_offset 3, -8
 1407              		.cfi_offset 14, -4
 1408              	.LBB350:
 1409              	.LBB349:
 1410              	.LBB348:
 1411              	.LBB347:
 1412              		.loc 5 493 3 view .LVU447
 1413 0002 3023     		movs	r3, #48
 1414              		.syntax unified
 1415              	@ 493 "./docs/ChibiOS/os/common/ext/ARM/CMSIS/Core/Include/cmsis_gcc.h" 1
 1416 0004 83F31188 		MSR basepri, r3
 1417              	@ 0 "" 2
 1418              	.LVL71:
 1419              		.loc 5 493 3 view .LVU448
 1420              		.thumb
 1421              		.syntax unified
 1422              	.LBE347:
 1423              	.LBE348:
 1424              	.LBE349:
 1425              		.loc 3 375 35 is_stmt 1 view .LVU449
ARM GAS  C:\Users\DEVELO~1\AppData\Local\Temp\ccUqVwMd.s 			page 26


 1426              		.loc 3 376 21 view .LVU450
 1427              	.LBE350:
 1428              		.loc 1 426 3 view .LVU451
 1429 0008 FFF7FEFF 		bl	chEvtBroadcastFlagsI
 1430              	.LVL72:
 1431              		.loc 1 427 3 view .LVU452
 1432 000c FFF7FEFF 		bl	chSchRescheduleS
 1433              	.LVL73:
 1434              		.loc 1 428 3 view .LVU453
 1435              	.LBB351:
 1436              	.LBI351:
 1437              		.loc 3 386 20 view .LVU454
 1438              	.LBB352:
 1439              		.loc 3 388 23 view .LVU455
 1440              		.loc 3 389 34 view .LVU456
 1441              		.loc 3 395 3 view .LVU457
 1442              		.loc 3 395 3 view .LVU458
 1443              		.loc 3 395 3 view .LVU459
 1444              		.loc 3 399 3 view .LVU460
 1445              	.LBB353:
 1446              	.LBI353:
 1447              		.loc 4 864 27 view .LVU461
 1448              		.loc 4 867 3 view .LVU462
 1449              	.LBB354:
 1450              	.LBI354:
 1451              		.loc 5 491 27 view .LVU463
 1452              	.LBB355:
 1453              		.loc 5 493 3 view .LVU464
 1454 0010 0023     		movs	r3, #0
 1455              		.syntax unified
 1456              	@ 493 "./docs/ChibiOS/os/common/ext/ARM/CMSIS/Core/Include/cmsis_gcc.h" 1
 1457 0012 83F31188 		MSR basepri, r3
 1458              	@ 0 "" 2
 1459              	.LVL74:
 1460              		.loc 5 493 3 is_stmt 0 view .LVU465
 1461              		.thumb
 1462              		.syntax unified
 1463              	.LBE355:
 1464              	.LBE354:
 1465              	.LBE353:
 1466              	.LBE352:
 1467              	.LBE351:
 1468              		.loc 1 429 1 view .LVU466
 1469 0016 08BD     		pop	{r3, pc}
 1470              		.cfi_endproc
 1471              	.LFE365:
 1472              		.size	chEvtBroadcastFlags, .-chEvtBroadcastFlags
 1473              		.section	.text.chEvtDispatch,"ax",%progbits
 1474              		.align	1
 1475              		.p2align 2,,3
 1476              		.global	chEvtDispatch
 1477              		.syntax unified
 1478              		.thumb
 1479              		.thumb_func
 1480              		.type	chEvtDispatch, %function
 1481              	chEvtDispatch:
 1482              	.LVL75:
ARM GAS  C:\Users\DEVELO~1\AppData\Local\Temp\ccUqVwMd.s 			page 27


 1483              	.LFB366:
 1484              		.loc 1 440 69 is_stmt 1 view -0
 1485              		.cfi_startproc
 1486              		@ args = 0, pretend = 0, frame = 0
 1487              		@ frame_needed = 0, uses_anonymous_args = 0
 1488              		.loc 1 441 3 view .LVU468
 1489              		.loc 1 443 3 view .LVU469
 1490              		.loc 1 443 3 view .LVU470
 1491              		.loc 1 443 3 view .LVU471
 1492              		.loc 1 445 3 view .LVU472
 1493              		.loc 1 446 3 view .LVU473
 1494              		.loc 1 446 17 view .LVU474
 1495 0000 B1B1     		cbz	r1, .L73
 1496              		.loc 1 440 69 is_stmt 0 view .LVU475
 1497 0002 F8B5     		push	{r3, r4, r5, r6, r7, lr}
 1498              		.cfi_def_cfa_offset 24
 1499              		.cfi_offset 3, -24
 1500              		.cfi_offset 4, -20
 1501              		.cfi_offset 5, -16
 1502              		.cfi_offset 6, -12
 1503              		.cfi_offset 7, -8
 1504              		.cfi_offset 14, -4
 1505 0004 0746     		mov	r7, r0
 1506 0006 0D46     		mov	r5, r1
 1507              		.loc 1 445 7 view .LVU476
 1508 0008 0024     		movs	r4, #0
 1509              		.loc 1 449 18 view .LVU477
 1510 000a 0126     		movs	r6, #1
 1511              	.LVL76:
 1512              	.L64:
 1513              		.loc 1 447 5 is_stmt 1 view .LVU478
 1514              		.loc 1 448 7 view .LVU479
 1515              		.loc 1 448 7 view .LVU480
 1516              		.loc 1 448 7 view .LVU481
 1517              		.loc 1 449 7 view .LVU482
 1518              		.loc 1 452 5 view .LVU483
 1519              		.loc 1 447 36 is_stmt 0 view .LVU484
 1520 000c 25FA04F3 		lsr	r3, r5, r4
 1521              		.loc 1 449 18 view .LVU485
 1522 0010 06FA04F2 		lsl	r2, r6, r4
 1523              		.loc 1 450 7 view .LVU486
 1524 0014 2046     		mov	r0, r4
 1525              		.loc 1 447 8 view .LVU487
 1526 0016 DB07     		lsls	r3, r3, #31
 1527 0018 08D5     		bpl	.L63
 1528              		.loc 1 449 14 discriminator 5 view .LVU488
 1529 001a 25EA0205 		bic	r5, r5, r2
 1530              	.LVL77:
 1531              		.loc 1 450 7 is_stmt 1 discriminator 5 view .LVU489
 1532 001e 57F82430 		ldr	r3, [r7, r4, lsl #2]
 1533 0022 9847     		blx	r3
 1534              	.LVL78:
 1535              		.loc 1 452 5 discriminator 5 view .LVU490
 1536              		.loc 1 452 8 is_stmt 0 discriminator 5 view .LVU491
 1537 0024 0134     		adds	r4, r4, #1
 1538              	.LVL79:
 1539              		.loc 1 446 17 is_stmt 1 discriminator 5 view .LVU492
ARM GAS  C:\Users\DEVELO~1\AppData\Local\Temp\ccUqVwMd.s 			page 28


 1540 0026 002D     		cmp	r5, #0
 1541 0028 F0D1     		bne	.L64
 1542              		.loc 1 454 1 is_stmt 0 view .LVU493
 1543 002a F8BD     		pop	{r3, r4, r5, r6, r7, pc}
 1544              	.LVL80:
 1545              	.L63:
 1546              		.loc 1 452 8 view .LVU494
 1547 002c 0134     		adds	r4, r4, #1
 1548              	.LVL81:
 1549              		.loc 1 446 17 is_stmt 1 view .LVU495
 1550              		.loc 1 446 17 is_stmt 0 view .LVU496
 1551 002e EDE7     		b	.L64
 1552              	.LVL82:
 1553              	.L73:
 1554              		.cfi_def_cfa_offset 0
 1555              		.cfi_restore 3
 1556              		.cfi_restore 4
 1557              		.cfi_restore 5
 1558              		.cfi_restore 6
 1559              		.cfi_restore 7
 1560              		.cfi_restore 14
 1561              		.loc 1 446 17 view .LVU497
 1562 0030 7047     		bx	lr
 1563              		.cfi_endproc
 1564              	.LFE366:
 1565              		.size	chEvtDispatch, .-chEvtDispatch
 1566 0032 00BF     		.section	.text.chEvtWaitOne,"ax",%progbits
 1567              		.align	1
 1568              		.p2align 2,,3
 1569              		.global	chEvtWaitOne
 1570              		.syntax unified
 1571              		.thumb
 1572              		.thumb_func
 1573              		.type	chEvtWaitOne, %function
 1574              	chEvtWaitOne:
 1575              	.LVL83:
 1576              	.LFB367:
 1577              		.loc 1 475 46 is_stmt 1 view -0
 1578              		.cfi_startproc
 1579              		@ args = 0, pretend = 0, frame = 0
 1580              		@ frame_needed = 0, uses_anonymous_args = 0
 1581              		.loc 1 476 3 view .LVU499
 1582              	.LBB356:
 1583              	.LBI356:
 1584              		.loc 2 527 25 view .LVU500
 1585              	.LBB357:
 1586              		.loc 2 529 3 view .LVU501
 1587              		.loc 2 529 10 is_stmt 0 view .LVU502
 1588 0000 0D4A     		ldr	r2, .L80
 1589              	.LBE357:
 1590              	.LBE356:
 1591              		.loc 1 475 46 view .LVU503
 1592 0002 38B5     		push	{r3, r4, r5, lr}
 1593              		.cfi_def_cfa_offset 16
 1594              		.cfi_offset 3, -16
 1595              		.cfi_offset 4, -12
 1596              		.cfi_offset 5, -8
ARM GAS  C:\Users\DEVELO~1\AppData\Local\Temp\ccUqVwMd.s 			page 29


 1597              		.cfi_offset 14, -4
 1598              	.LBB359:
 1599              	.LBB360:
 1600              	.LBB361:
 1601              	.LBB362:
 1602              		.loc 5 493 3 view .LVU504
 1603 0004 3023     		movs	r3, #48
 1604              	.LBE362:
 1605              	.LBE361:
 1606              	.LBE360:
 1607              	.LBE359:
 1608              	.LBB366:
 1609              	.LBB358:
 1610              		.loc 2 529 10 view .LVU505
 1611 0006 D568     		ldr	r5, [r2, #12]
 1612              	.LVL84:
 1613              		.loc 2 529 10 view .LVU506
 1614              	.LBE358:
 1615              	.LBE366:
 1616              		.loc 1 477 3 is_stmt 1 view .LVU507
 1617              		.loc 1 479 3 view .LVU508
 1618              	.LBB367:
 1619              	.LBI359:
 1620              		.loc 3 372 20 view .LVU509
 1621              		.loc 3 374 3 view .LVU510
 1622              	.LBB365:
 1623              	.LBI360:
 1624              		.loc 4 840 27 view .LVU511
 1625              		.loc 4 848 3 view .LVU512
 1626              	.LBB364:
 1627              	.LBI361:
 1628              		.loc 5 491 27 view .LVU513
 1629              	.LBB363:
 1630              		.loc 5 493 3 view .LVU514
 1631              		.syntax unified
 1632              	@ 493 "./docs/ChibiOS/os/common/ext/ARM/CMSIS/Core/Include/cmsis_gcc.h" 1
 1633 0008 83F31188 		MSR basepri, r3
 1634              	@ 0 "" 2
 1635              	.LVL85:
 1636              		.loc 5 493 3 is_stmt 0 view .LVU515
 1637              		.thumb
 1638              		.syntax unified
 1639              	.LBE363:
 1640              	.LBE364:
 1641              	.LBE365:
 1642              		.loc 3 375 35 is_stmt 1 view .LVU516
 1643              		.loc 3 376 21 view .LVU517
 1644              	.LBE367:
 1645              		.loc 1 480 3 view .LVU518
 1646              		.loc 1 480 13 is_stmt 0 view .LVU519
 1647 000c 6B6C     		ldr	r3, [r5, #68]
 1648              	.LVL86:
 1649              		.loc 1 481 3 is_stmt 1 view .LVU520
 1650              		.loc 1 481 6 is_stmt 0 view .LVU521
 1651 000e 13EA0002 		ands	r2, r3, r0
 1652 0012 08D0     		beq	.L79
 1653              	.LVL87:
ARM GAS  C:\Users\DEVELO~1\AppData\Local\Temp\ccUqVwMd.s 			page 30


 1654              	.L77:
 1655              		.loc 1 486 3 is_stmt 1 view .LVU522
 1656              		.loc 1 486 5 is_stmt 0 view .LVU523
 1657 0014 5042     		rsbs	r0, r2, #0
 1658              	.LBB368:
 1659              	.LBB369:
 1660              	.LBB370:
 1661              	.LBB371:
 1662              	.LBB372:
 1663              		.loc 5 493 3 view .LVU524
 1664 0016 0021     		movs	r1, #0
 1665              	.LBE372:
 1666              	.LBE371:
 1667              	.LBE370:
 1668              	.LBE369:
 1669              	.LBE368:
 1670              		.loc 1 486 5 view .LVU525
 1671 0018 1040     		ands	r0, r0, r2
 1672              	.LVL88:
 1673              		.loc 1 487 3 is_stmt 1 view .LVU526
 1674              		.loc 1 487 20 is_stmt 0 view .LVU527
 1675 001a 23EA0003 		bic	r3, r3, r0
 1676 001e 6B64     		str	r3, [r5, #68]
 1677              		.loc 1 488 3 is_stmt 1 view .LVU528
 1678              	.LBB377:
 1679              	.LBI368:
 1680              		.loc 3 386 20 view .LVU529
 1681              	.LBB376:
 1682              		.loc 3 388 23 view .LVU530
 1683              		.loc 3 389 34 view .LVU531
 1684              		.loc 3 395 3 view .LVU532
 1685              		.loc 3 395 3 view .LVU533
 1686              		.loc 3 395 3 view .LVU534
 1687              		.loc 3 399 3 view .LVU535
 1688              	.LBB375:
 1689              	.LBI370:
 1690              		.loc 4 864 27 view .LVU536
 1691              		.loc 4 867 3 view .LVU537
 1692              	.LVL89:
 1693              	.LBB374:
 1694              	.LBI371:
 1695              		.loc 5 491 27 view .LVU538
 1696              	.LBB373:
 1697              		.loc 5 493 3 view .LVU539
 1698              		.syntax unified
 1699              	@ 493 "./docs/ChibiOS/os/common/ext/ARM/CMSIS/Core/Include/cmsis_gcc.h" 1
 1700 0020 81F31188 		MSR basepri, r1
 1701              	@ 0 "" 2
 1702              	.LVL90:
 1703              		.loc 5 493 3 is_stmt 0 view .LVU540
 1704              		.thumb
 1705              		.syntax unified
 1706              	.LBE373:
 1707              	.LBE374:
 1708              	.LBE375:
 1709              	.LBE376:
 1710              	.LBE377:
ARM GAS  C:\Users\DEVELO~1\AppData\Local\Temp\ccUqVwMd.s 			page 31


 1711              		.loc 1 490 3 is_stmt 1 view .LVU541
 1712              		.loc 1 491 1 is_stmt 0 view .LVU542
 1713 0024 38BD     		pop	{r3, r4, r5, pc}
 1714              	.LVL91:
 1715              	.L79:
 1716              		.loc 1 491 1 view .LVU543
 1717 0026 0446     		mov	r4, r0
 1718              		.loc 1 482 5 is_stmt 1 view .LVU544
 1719              		.loc 1 483 5 is_stmt 0 view .LVU545
 1720 0028 0A20     		movs	r0, #10
 1721              	.LVL92:
 1722              		.loc 1 482 22 view .LVU546
 1723 002a 6C63     		str	r4, [r5, #52]
 1724              		.loc 1 483 5 is_stmt 1 view .LVU547
 1725 002c FFF7FEFF 		bl	chSchGoSleepS
 1726              	.LVL93:
 1727              		.loc 1 484 5 view .LVU548
 1728              		.loc 1 484 15 is_stmt 0 view .LVU549
 1729 0030 6B6C     		ldr	r3, [r5, #68]
 1730              		.loc 1 484 7 view .LVU550
 1731 0032 03EA0402 		and	r2, r3, r4
 1732              	.LVL94:
 1733              		.loc 1 484 7 view .LVU551
 1734 0036 EDE7     		b	.L77
 1735              	.L81:
 1736              		.align	2
 1737              	.L80:
 1738 0038 00000000 		.word	ch0
 1739              		.cfi_endproc
 1740              	.LFE367:
 1741              		.size	chEvtWaitOne, .-chEvtWaitOne
 1742              		.section	.text.chEvtWaitAny,"ax",%progbits
 1743              		.align	1
 1744              		.p2align 2,,3
 1745              		.global	chEvtWaitAny
 1746              		.syntax unified
 1747              		.thumb
 1748              		.thumb_func
 1749              		.type	chEvtWaitAny, %function
 1750              	chEvtWaitAny:
 1751              	.LVL95:
 1752              	.LFB368:
 1753              		.loc 1 505 46 is_stmt 1 view -0
 1754              		.cfi_startproc
 1755              		@ args = 0, pretend = 0, frame = 0
 1756              		@ frame_needed = 0, uses_anonymous_args = 0
 1757              		.loc 1 506 3 view .LVU553
 1758              	.LBB378:
 1759              	.LBI378:
 1760              		.loc 2 527 25 view .LVU554
 1761              	.LBB379:
 1762              		.loc 2 529 3 view .LVU555
 1763              		.loc 2 529 10 is_stmt 0 view .LVU556
 1764 0000 0C4A     		ldr	r2, .L86
 1765              	.LBE379:
 1766              	.LBE378:
 1767              		.loc 1 505 46 view .LVU557
ARM GAS  C:\Users\DEVELO~1\AppData\Local\Temp\ccUqVwMd.s 			page 32


 1768 0002 38B5     		push	{r3, r4, r5, lr}
 1769              		.cfi_def_cfa_offset 16
 1770              		.cfi_offset 3, -16
 1771              		.cfi_offset 4, -12
 1772              		.cfi_offset 5, -8
 1773              		.cfi_offset 14, -4
 1774              	.LBB381:
 1775              	.LBB382:
 1776              	.LBB383:
 1777              	.LBB384:
 1778              		.loc 5 493 3 view .LVU558
 1779 0004 3023     		movs	r3, #48
 1780              	.LBE384:
 1781              	.LBE383:
 1782              	.LBE382:
 1783              	.LBE381:
 1784              		.loc 1 505 46 view .LVU559
 1785 0006 0446     		mov	r4, r0
 1786              	.LBB388:
 1787              	.LBB380:
 1788              		.loc 2 529 10 view .LVU560
 1789 0008 D568     		ldr	r5, [r2, #12]
 1790              	.LVL96:
 1791              		.loc 2 529 10 view .LVU561
 1792              	.LBE380:
 1793              	.LBE388:
 1794              		.loc 1 507 3 is_stmt 1 view .LVU562
 1795              		.loc 1 509 3 view .LVU563
 1796              	.LBB389:
 1797              	.LBI381:
 1798              		.loc 3 372 20 view .LVU564
 1799              		.loc 3 374 3 view .LVU565
 1800              	.LBB387:
 1801              	.LBI382:
 1802              		.loc 4 840 27 view .LVU566
 1803              		.loc 4 848 3 view .LVU567
 1804              	.LBB386:
 1805              	.LBI383:
 1806              		.loc 5 491 27 view .LVU568
 1807              	.LBB385:
 1808              		.loc 5 493 3 view .LVU569
 1809              		.syntax unified
 1810              	@ 493 "./docs/ChibiOS/os/common/ext/ARM/CMSIS/Core/Include/cmsis_gcc.h" 1
 1811 000a 83F31188 		MSR basepri, r3
 1812              	@ 0 "" 2
 1813              	.LVL97:
 1814              		.loc 5 493 3 is_stmt 0 view .LVU570
 1815              		.thumb
 1816              		.syntax unified
 1817              	.LBE385:
 1818              	.LBE386:
 1819              	.LBE387:
 1820              		.loc 3 375 35 is_stmt 1 view .LVU571
 1821              		.loc 3 376 21 view .LVU572
 1822              	.LBE389:
 1823              		.loc 1 510 3 view .LVU573
 1824              		.loc 1 510 13 is_stmt 0 view .LVU574
ARM GAS  C:\Users\DEVELO~1\AppData\Local\Temp\ccUqVwMd.s 			page 33


 1825 000e 6B6C     		ldr	r3, [r5, #68]
 1826              	.LVL98:
 1827              		.loc 1 511 3 is_stmt 1 view .LVU575
 1828              		.loc 1 511 6 is_stmt 0 view .LVU576
 1829 0010 1840     		ands	r0, r3, r0
 1830              	.LVL99:
 1831              		.loc 1 511 6 view .LVU577
 1832 0012 06D0     		beq	.L85
 1833              	.LVL100:
 1834              	.L83:
 1835              		.loc 1 516 3 is_stmt 1 view .LVU578
 1836              		.loc 1 516 20 is_stmt 0 view .LVU579
 1837 0014 23EA0003 		bic	r3, r3, r0
 1838              	.LBB390:
 1839              	.LBB391:
 1840              	.LBB392:
 1841              	.LBB393:
 1842              	.LBB394:
 1843              		.loc 5 493 3 view .LVU580
 1844 0018 0022     		movs	r2, #0
 1845              	.LBE394:
 1846              	.LBE393:
 1847              	.LBE392:
 1848              	.LBE391:
 1849              	.LBE390:
 1850              		.loc 1 516 20 view .LVU581
 1851 001a 6B64     		str	r3, [r5, #68]
 1852              		.loc 1 517 3 is_stmt 1 view .LVU582
 1853              	.LBB399:
 1854              	.LBI390:
 1855              		.loc 3 386 20 view .LVU583
 1856              	.LBB398:
 1857              		.loc 3 388 23 view .LVU584
 1858              		.loc 3 389 34 view .LVU585
 1859              		.loc 3 395 3 view .LVU586
 1860              		.loc 3 395 3 view .LVU587
 1861              		.loc 3 395 3 view .LVU588
 1862              		.loc 3 399 3 view .LVU589
 1863              	.LBB397:
 1864              	.LBI392:
 1865              		.loc 4 864 27 view .LVU590
 1866              		.loc 4 867 3 view .LVU591
 1867              	.LVL101:
 1868              	.LBB396:
 1869              	.LBI393:
 1870              		.loc 5 491 27 view .LVU592
 1871              	.LBB395:
 1872              		.loc 5 493 3 view .LVU593
 1873              		.syntax unified
 1874              	@ 493 "./docs/ChibiOS/os/common/ext/ARM/CMSIS/Core/Include/cmsis_gcc.h" 1
 1875 001c 82F31188 		MSR basepri, r2
 1876              	@ 0 "" 2
 1877              	.LVL102:
 1878              		.loc 5 493 3 is_stmt 0 view .LVU594
 1879              		.thumb
 1880              		.syntax unified
 1881              	.LBE395:
ARM GAS  C:\Users\DEVELO~1\AppData\Local\Temp\ccUqVwMd.s 			page 34


 1882              	.LBE396:
 1883              	.LBE397:
 1884              	.LBE398:
 1885              	.LBE399:
 1886              		.loc 1 519 3 is_stmt 1 view .LVU595
 1887              		.loc 1 520 1 is_stmt 0 view .LVU596
 1888 0020 38BD     		pop	{r3, r4, r5, pc}
 1889              	.LVL103:
 1890              	.L85:
 1891              		.loc 1 512 5 is_stmt 1 view .LVU597
 1892              		.loc 1 513 5 is_stmt 0 view .LVU598
 1893 0022 0A20     		movs	r0, #10
 1894              	.LVL104:
 1895              		.loc 1 512 22 view .LVU599
 1896 0024 6C63     		str	r4, [r5, #52]
 1897              		.loc 1 513 5 is_stmt 1 view .LVU600
 1898 0026 FFF7FEFF 		bl	chSchGoSleepS
 1899              	.LVL105:
 1900              		.loc 1 514 5 view .LVU601
 1901              		.loc 1 514 15 is_stmt 0 view .LVU602
 1902 002a 6B6C     		ldr	r3, [r5, #68]
 1903              		.loc 1 514 7 view .LVU603
 1904 002c 03EA0400 		and	r0, r3, r4
 1905              	.LVL106:
 1906              		.loc 1 514 7 view .LVU604
 1907 0030 F0E7     		b	.L83
 1908              	.L87:
 1909 0032 00BF     		.align	2
 1910              	.L86:
 1911 0034 00000000 		.word	ch0
 1912              		.cfi_endproc
 1913              	.LFE368:
 1914              		.size	chEvtWaitAny, .-chEvtWaitAny
 1915              		.section	.text.chEvtWaitAll,"ax",%progbits
 1916              		.align	1
 1917              		.p2align 2,,3
 1918              		.global	chEvtWaitAll
 1919              		.syntax unified
 1920              		.thumb
 1921              		.thumb_func
 1922              		.type	chEvtWaitAll, %function
 1923              	chEvtWaitAll:
 1924              	.LVL107:
 1925              	.LFB369:
 1926              		.loc 1 533 46 is_stmt 1 view -0
 1927              		.cfi_startproc
 1928              		@ args = 0, pretend = 0, frame = 0
 1929              		@ frame_needed = 0, uses_anonymous_args = 0
 1930              		.loc 1 534 3 view .LVU606
 1931              	.LBB400:
 1932              	.LBI400:
 1933              		.loc 2 527 25 view .LVU607
 1934              	.LBB401:
 1935              		.loc 2 529 3 view .LVU608
 1936              		.loc 2 529 10 is_stmt 0 view .LVU609
 1937 0000 0B4A     		ldr	r2, .L91
 1938              	.LBE401:
ARM GAS  C:\Users\DEVELO~1\AppData\Local\Temp\ccUqVwMd.s 			page 35


 1939              	.LBE400:
 1940              		.loc 1 533 46 view .LVU610
 1941 0002 38B5     		push	{r3, r4, r5, lr}
 1942              		.cfi_def_cfa_offset 16
 1943              		.cfi_offset 3, -16
 1944              		.cfi_offset 4, -12
 1945              		.cfi_offset 5, -8
 1946              		.cfi_offset 14, -4
 1947              	.LBB403:
 1948              	.LBB404:
 1949              	.LBB405:
 1950              	.LBB406:
 1951              		.loc 5 493 3 view .LVU611
 1952 0004 3023     		movs	r3, #48
 1953              	.LBE406:
 1954              	.LBE405:
 1955              	.LBE404:
 1956              	.LBE403:
 1957              		.loc 1 533 46 view .LVU612
 1958 0006 0446     		mov	r4, r0
 1959              	.LBB410:
 1960              	.LBB402:
 1961              		.loc 2 529 10 view .LVU613
 1962 0008 D568     		ldr	r5, [r2, #12]
 1963              	.LVL108:
 1964              		.loc 2 529 10 view .LVU614
 1965              	.LBE402:
 1966              	.LBE410:
 1967              		.loc 1 536 3 is_stmt 1 view .LVU615
 1968              	.LBB411:
 1969              	.LBI403:
 1970              		.loc 3 372 20 view .LVU616
 1971              		.loc 3 374 3 view .LVU617
 1972              	.LBB409:
 1973              	.LBI404:
 1974              		.loc 4 840 27 view .LVU618
 1975              		.loc 4 848 3 view .LVU619
 1976              	.LBB408:
 1977              	.LBI405:
 1978              		.loc 5 491 27 view .LVU620
 1979              	.LBB407:
 1980              		.loc 5 493 3 view .LVU621
 1981              		.syntax unified
 1982              	@ 493 "./docs/ChibiOS/os/common/ext/ARM/CMSIS/Core/Include/cmsis_gcc.h" 1
 1983 000a 83F31188 		MSR basepri, r3
 1984              	@ 0 "" 2
 1985              	.LVL109:
 1986              		.loc 5 493 3 is_stmt 0 view .LVU622
 1987              		.thumb
 1988              		.syntax unified
 1989              	.LBE407:
 1990              	.LBE408:
 1991              	.LBE409:
 1992              		.loc 3 375 35 is_stmt 1 view .LVU623
 1993              		.loc 3 376 21 view .LVU624
 1994              	.LBE411:
 1995              		.loc 1 537 3 view .LVU625
ARM GAS  C:\Users\DEVELO~1\AppData\Local\Temp\ccUqVwMd.s 			page 36


 1996              		.loc 1 537 14 is_stmt 0 view .LVU626
 1997 000e 6B6C     		ldr	r3, [r5, #68]
 1998              		.loc 1 537 6 view .LVU627
 1999 0010 30EA0302 		bics	r2, r0, r3
 2000 0014 04D0     		beq	.L89
 2001              		.loc 1 538 5 is_stmt 1 view .LVU628
 2002              		.loc 1 539 5 is_stmt 0 view .LVU629
 2003 0016 0B20     		movs	r0, #11
 2004              	.LVL110:
 2005              		.loc 1 538 22 view .LVU630
 2006 0018 6C63     		str	r4, [r5, #52]
 2007              		.loc 1 539 5 is_stmt 1 view .LVU631
 2008 001a FFF7FEFF 		bl	chSchGoSleepS
 2009              	.LVL111:
 2010              		.loc 1 541 20 is_stmt 0 view .LVU632
 2011 001e 6B6C     		ldr	r3, [r5, #68]
 2012              	.L89:
 2013              		.loc 1 541 3 is_stmt 1 view .LVU633
 2014              		.loc 1 541 20 is_stmt 0 view .LVU634
 2015 0020 23EA0403 		bic	r3, r3, r4
 2016              	.LBB412:
 2017              	.LBB413:
 2018              	.LBB414:
 2019              	.LBB415:
 2020              	.LBB416:
 2021              		.loc 5 493 3 view .LVU635
 2022 0024 0022     		movs	r2, #0
 2023              	.LBE416:
 2024              	.LBE415:
 2025              	.LBE414:
 2026              	.LBE413:
 2027              	.LBE412:
 2028              		.loc 1 541 20 view .LVU636
 2029 0026 6B64     		str	r3, [r5, #68]
 2030              		.loc 1 542 3 is_stmt 1 view .LVU637
 2031              	.LBB421:
 2032              	.LBI412:
 2033              		.loc 3 386 20 view .LVU638
 2034              	.LBB420:
 2035              		.loc 3 388 23 view .LVU639
 2036              		.loc 3 389 34 view .LVU640
 2037              		.loc 3 395 3 view .LVU641
 2038              		.loc 3 395 3 view .LVU642
 2039              		.loc 3 395 3 view .LVU643
 2040              		.loc 3 399 3 view .LVU644
 2041              	.LBB419:
 2042              	.LBI414:
 2043              		.loc 4 864 27 view .LVU645
 2044              		.loc 4 867 3 view .LVU646
 2045              	.LVL112:
 2046              	.LBB418:
 2047              	.LBI415:
 2048              		.loc 5 491 27 view .LVU647
 2049              	.LBB417:
 2050              		.loc 5 493 3 view .LVU648
 2051              		.syntax unified
 2052              	@ 493 "./docs/ChibiOS/os/common/ext/ARM/CMSIS/Core/Include/cmsis_gcc.h" 1
ARM GAS  C:\Users\DEVELO~1\AppData\Local\Temp\ccUqVwMd.s 			page 37


 2053 0028 82F31188 		MSR basepri, r2
 2054              	@ 0 "" 2
 2055              	.LVL113:
 2056              		.loc 5 493 3 is_stmt 0 view .LVU649
 2057              		.thumb
 2058              		.syntax unified
 2059              	.LBE417:
 2060              	.LBE418:
 2061              	.LBE419:
 2062              	.LBE420:
 2063              	.LBE421:
 2064              		.loc 1 544 3 is_stmt 1 view .LVU650
 2065              		.loc 1 545 1 is_stmt 0 view .LVU651
 2066 002c 2046     		mov	r0, r4
 2067 002e 38BD     		pop	{r3, r4, r5, pc}
 2068              	.LVL114:
 2069              	.L92:
 2070              		.loc 1 545 1 view .LVU652
 2071              		.align	2
 2072              	.L91:
 2073 0030 00000000 		.word	ch0
 2074              		.cfi_endproc
 2075              	.LFE369:
 2076              		.size	chEvtWaitAll, .-chEvtWaitAll
 2077              		.section	.text.chEvtWaitOneTimeout,"ax",%progbits
 2078              		.align	1
 2079              		.p2align 2,,3
 2080              		.global	chEvtWaitOneTimeout
 2081              		.syntax unified
 2082              		.thumb
 2083              		.thumb_func
 2084              		.type	chEvtWaitOneTimeout, %function
 2085              	chEvtWaitOneTimeout:
 2086              	.LVL115:
 2087              	.LFB370:
 2088              		.loc 1 570 76 is_stmt 1 view -0
 2089              		.cfi_startproc
 2090              		@ args = 0, pretend = 0, frame = 0
 2091              		@ frame_needed = 0, uses_anonymous_args = 0
 2092              		.loc 1 571 3 view .LVU654
 2093              	.LBB422:
 2094              	.LBI422:
 2095              		.loc 2 527 25 view .LVU655
 2096              	.LBB423:
 2097              		.loc 2 529 3 view .LVU656
 2098              	.LBE423:
 2099              	.LBE422:
 2100              		.loc 1 570 76 is_stmt 0 view .LVU657
 2101 0000 70B5     		push	{r4, r5, r6, lr}
 2102              		.cfi_def_cfa_offset 16
 2103              		.cfi_offset 4, -16
 2104              		.cfi_offset 5, -12
 2105              		.cfi_offset 6, -8
 2106              		.cfi_offset 14, -4
 2107              	.LBB426:
 2108              	.LBB424:
 2109              		.loc 2 529 10 view .LVU658
ARM GAS  C:\Users\DEVELO~1\AppData\Local\Temp\ccUqVwMd.s 			page 38


 2110 0002 114D     		ldr	r5, .L100
 2111              	.LBE424:
 2112              	.LBE426:
 2113              	.LBB427:
 2114              	.LBB428:
 2115              	.LBB429:
 2116              	.LBB430:
 2117              		.loc 5 493 3 view .LVU659
 2118 0004 3023     		movs	r3, #48
 2119              	.LBE430:
 2120              	.LBE429:
 2121              	.LBE428:
 2122              	.LBE427:
 2123              	.LBB434:
 2124              	.LBB425:
 2125              		.loc 2 529 10 view .LVU660
 2126 0006 EE68     		ldr	r6, [r5, #12]
 2127              	.LVL116:
 2128              		.loc 2 529 10 view .LVU661
 2129              	.LBE425:
 2130              	.LBE434:
 2131              		.loc 1 572 3 is_stmt 1 view .LVU662
 2132              		.loc 1 574 3 view .LVU663
 2133              	.LBB435:
 2134              	.LBI427:
 2135              		.loc 3 372 20 view .LVU664
 2136              		.loc 3 374 3 view .LVU665
 2137              	.LBB433:
 2138              	.LBI428:
 2139              		.loc 4 840 27 view .LVU666
 2140              		.loc 4 848 3 view .LVU667
 2141              	.LBB432:
 2142              	.LBI429:
 2143              		.loc 5 491 27 view .LVU668
 2144              	.LBB431:
 2145              		.loc 5 493 3 view .LVU669
 2146              		.syntax unified
 2147              	@ 493 "./docs/ChibiOS/os/common/ext/ARM/CMSIS/Core/Include/cmsis_gcc.h" 1
 2148 0008 83F31188 		MSR basepri, r3
 2149              	@ 0 "" 2
 2150              	.LVL117:
 2151              		.loc 5 493 3 is_stmt 0 view .LVU670
 2152              		.thumb
 2153              		.syntax unified
 2154              	.LBE431:
 2155              	.LBE432:
 2156              	.LBE433:
 2157              		.loc 3 375 35 is_stmt 1 view .LVU671
 2158              		.loc 3 376 21 view .LVU672
 2159              	.LBE435:
 2160              		.loc 1 575 3 view .LVU673
 2161              		.loc 1 575 13 is_stmt 0 view .LVU674
 2162 000c 736C     		ldr	r3, [r6, #68]
 2163              	.LVL118:
 2164              		.loc 1 576 3 is_stmt 1 view .LVU675
 2165              		.loc 1 576 6 is_stmt 0 view .LVU676
 2166 000e 13EA0005 		ands	r5, r3, r0
ARM GAS  C:\Users\DEVELO~1\AppData\Local\Temp\ccUqVwMd.s 			page 39


 2167 0012 0ED1     		bne	.L94
 2168              		.loc 1 577 5 is_stmt 1 view .LVU677
 2169              		.loc 1 577 8 is_stmt 0 view .LVU678
 2170 0014 19B9     		cbnz	r1, .L95
 2171              	.LVL119:
 2172              	.L99:
 2173              		.loc 1 583 7 is_stmt 1 view .LVU679
 2174              	.LBB436:
 2175              	.LBI436:
 2176              		.loc 3 386 20 view .LVU680
 2177              	.LBB437:
 2178              		.loc 3 388 23 view .LVU681
 2179              		.loc 3 389 34 view .LVU682
 2180              		.loc 3 395 3 view .LVU683
 2181              		.loc 3 395 3 view .LVU684
 2182              		.loc 3 395 3 view .LVU685
 2183              		.loc 3 399 3 view .LVU686
 2184              	.LBB438:
 2185              	.LBI438:
 2186              		.loc 4 864 27 view .LVU687
 2187              		.loc 4 867 3 view .LVU688
 2188              	.LBB439:
 2189              	.LBI439:
 2190              		.loc 5 491 27 view .LVU689
 2191              	.LBB440:
 2192              		.loc 5 493 3 view .LVU690
 2193              		.syntax unified
 2194              	@ 493 "./docs/ChibiOS/os/common/ext/ARM/CMSIS/Core/Include/cmsis_gcc.h" 1
 2195 0016 85F31188 		MSR basepri, r5
 2196              	@ 0 "" 2
 2197              	.LVL120:
 2198              		.loc 5 493 3 is_stmt 0 view .LVU691
 2199              		.thumb
 2200              		.syntax unified
 2201              	.LBE440:
 2202              	.LBE439:
 2203              	.LBE438:
 2204              	.LBE437:
 2205              	.LBE436:
 2206              		.loc 1 584 7 is_stmt 1 view .LVU692
 2207              		.loc 1 593 1 is_stmt 0 view .LVU693
 2208 001a 2846     		mov	r0, r5
 2209 001c 70BD     		pop	{r4, r5, r6, pc}
 2210              	.LVL121:
 2211              	.L95:
 2212              		.loc 1 581 5 is_stmt 1 view .LVU694
 2213 001e 0446     		mov	r4, r0
 2214              		.loc 1 582 9 is_stmt 0 view .LVU695
 2215 0020 0A20     		movs	r0, #10
 2216              	.LVL122:
 2217              		.loc 1 581 22 view .LVU696
 2218 0022 7463     		str	r4, [r6, #52]
 2219              		.loc 1 582 5 is_stmt 1 view .LVU697
 2220              		.loc 1 582 9 is_stmt 0 view .LVU698
 2221 0024 FFF7FEFF 		bl	chSchGoSleepTimeoutS
 2222              	.LVL123:
 2223              		.loc 1 582 8 view .LVU699
ARM GAS  C:\Users\DEVELO~1\AppData\Local\Temp\ccUqVwMd.s 			page 40


 2224 0028 0028     		cmp	r0, #0
 2225 002a F4DB     		blt	.L99
 2226              		.loc 1 586 5 is_stmt 1 view .LVU700
 2227              		.loc 1 586 15 is_stmt 0 view .LVU701
 2228 002c 736C     		ldr	r3, [r6, #68]
 2229              		.loc 1 586 7 view .LVU702
 2230 002e 03EA0405 		and	r5, r3, r4
 2231              	.LVL124:
 2232              	.L94:
 2233              		.loc 1 588 3 is_stmt 1 view .LVU703
 2234              		.loc 1 588 5 is_stmt 0 view .LVU704
 2235 0032 6942     		rsbs	r1, r5, #0
 2236              	.LBB441:
 2237              	.LBB442:
 2238              	.LBB443:
 2239              	.LBB444:
 2240              	.LBB445:
 2241              		.loc 5 493 3 view .LVU705
 2242 0034 0022     		movs	r2, #0
 2243              	.LBE445:
 2244              	.LBE444:
 2245              	.LBE443:
 2246              	.LBE442:
 2247              	.LBE441:
 2248              		.loc 1 588 5 view .LVU706
 2249 0036 0D40     		ands	r5, r5, r1
 2250              	.LVL125:
 2251              		.loc 1 589 3 is_stmt 1 view .LVU707
 2252              		.loc 1 589 20 is_stmt 0 view .LVU708
 2253 0038 23EA0503 		bic	r3, r3, r5
 2254 003c 7364     		str	r3, [r6, #68]
 2255              		.loc 1 590 3 is_stmt 1 view .LVU709
 2256              	.LBB450:
 2257              	.LBI441:
 2258              		.loc 3 386 20 view .LVU710
 2259              	.LBB449:
 2260              		.loc 3 388 23 view .LVU711
 2261              		.loc 3 389 34 view .LVU712
 2262              		.loc 3 395 3 view .LVU713
 2263              		.loc 3 395 3 view .LVU714
 2264              		.loc 3 395 3 view .LVU715
 2265              		.loc 3 399 3 view .LVU716
 2266              	.LBB448:
 2267              	.LBI443:
 2268              		.loc 4 864 27 view .LVU717
 2269              		.loc 4 867 3 view .LVU718
 2270              	.LVL126:
 2271              	.LBB447:
 2272              	.LBI444:
 2273              		.loc 5 491 27 view .LVU719
 2274              	.LBB446:
 2275              		.loc 5 493 3 view .LVU720
 2276              		.syntax unified
 2277              	@ 493 "./docs/ChibiOS/os/common/ext/ARM/CMSIS/Core/Include/cmsis_gcc.h" 1
 2278 003e 82F31188 		MSR basepri, r2
 2279              	@ 0 "" 2
 2280              	.LVL127:
ARM GAS  C:\Users\DEVELO~1\AppData\Local\Temp\ccUqVwMd.s 			page 41


 2281              		.loc 5 493 3 is_stmt 0 view .LVU721
 2282              		.thumb
 2283              		.syntax unified
 2284              	.LBE446:
 2285              	.LBE447:
 2286              	.LBE448:
 2287              	.LBE449:
 2288              	.LBE450:
 2289              		.loc 1 592 3 is_stmt 1 view .LVU722
 2290              		.loc 1 593 1 is_stmt 0 view .LVU723
 2291 0042 2846     		mov	r0, r5
 2292 0044 70BD     		pop	{r4, r5, r6, pc}
 2293              	.LVL128:
 2294              	.L101:
 2295              		.loc 1 593 1 view .LVU724
 2296 0046 00BF     		.align	2
 2297              	.L100:
 2298 0048 00000000 		.word	ch0
 2299              		.cfi_endproc
 2300              	.LFE370:
 2301              		.size	chEvtWaitOneTimeout, .-chEvtWaitOneTimeout
 2302              		.section	.text.chEvtWaitAnyTimeout,"ax",%progbits
 2303              		.align	1
 2304              		.p2align 2,,3
 2305              		.global	chEvtWaitAnyTimeout
 2306              		.syntax unified
 2307              		.thumb
 2308              		.thumb_func
 2309              		.type	chEvtWaitAnyTimeout, %function
 2310              	chEvtWaitAnyTimeout:
 2311              	.LVL129:
 2312              	.LFB371:
 2313              		.loc 1 612 76 is_stmt 1 view -0
 2314              		.cfi_startproc
 2315              		@ args = 0, pretend = 0, frame = 0
 2316              		@ frame_needed = 0, uses_anonymous_args = 0
 2317              		.loc 1 613 3 view .LVU726
 2318              	.LBB451:
 2319              	.LBI451:
 2320              		.loc 2 527 25 view .LVU727
 2321              	.LBB452:
 2322              		.loc 2 529 3 view .LVU728
 2323              	.LBE452:
 2324              	.LBE451:
 2325              		.loc 1 612 76 is_stmt 0 view .LVU729
 2326 0000 70B5     		push	{r4, r5, r6, lr}
 2327              		.cfi_def_cfa_offset 16
 2328              		.cfi_offset 4, -16
 2329              		.cfi_offset 5, -12
 2330              		.cfi_offset 6, -8
 2331              		.cfi_offset 14, -4
 2332              	.LBB455:
 2333              	.LBB453:
 2334              		.loc 2 529 10 view .LVU730
 2335 0002 104D     		ldr	r5, .L109
 2336              	.LBE453:
 2337              	.LBE455:
ARM GAS  C:\Users\DEVELO~1\AppData\Local\Temp\ccUqVwMd.s 			page 42


 2338              	.LBB456:
 2339              	.LBB457:
 2340              	.LBB458:
 2341              	.LBB459:
 2342              		.loc 5 493 3 view .LVU731
 2343 0004 3023     		movs	r3, #48
 2344              	.LBE459:
 2345              	.LBE458:
 2346              	.LBE457:
 2347              	.LBE456:
 2348              	.LBB463:
 2349              	.LBB454:
 2350              		.loc 2 529 10 view .LVU732
 2351 0006 EE68     		ldr	r6, [r5, #12]
 2352              	.LVL130:
 2353              		.loc 2 529 10 view .LVU733
 2354              	.LBE454:
 2355              	.LBE463:
 2356              		.loc 1 614 3 is_stmt 1 view .LVU734
 2357              		.loc 1 616 3 view .LVU735
 2358              	.LBB464:
 2359              	.LBI456:
 2360              		.loc 3 372 20 view .LVU736
 2361              		.loc 3 374 3 view .LVU737
 2362              	.LBB462:
 2363              	.LBI457:
 2364              		.loc 4 840 27 view .LVU738
 2365              		.loc 4 848 3 view .LVU739
 2366              	.LBB461:
 2367              	.LBI458:
 2368              		.loc 5 491 27 view .LVU740
 2369              	.LBB460:
 2370              		.loc 5 493 3 view .LVU741
 2371              		.syntax unified
 2372              	@ 493 "./docs/ChibiOS/os/common/ext/ARM/CMSIS/Core/Include/cmsis_gcc.h" 1
 2373 0008 83F31188 		MSR basepri, r3
 2374              	@ 0 "" 2
 2375              	.LVL131:
 2376              		.loc 5 493 3 is_stmt 0 view .LVU742
 2377              		.thumb
 2378              		.syntax unified
 2379              	.LBE460:
 2380              	.LBE461:
 2381              	.LBE462:
 2382              		.loc 3 375 35 is_stmt 1 view .LVU743
 2383              		.loc 3 376 21 view .LVU744
 2384              	.LBE464:
 2385              		.loc 1 617 3 view .LVU745
 2386              		.loc 1 617 13 is_stmt 0 view .LVU746
 2387 000c 736C     		ldr	r3, [r6, #68]
 2388              	.LVL132:
 2389              		.loc 1 618 3 is_stmt 1 view .LVU747
 2390              		.loc 1 618 6 is_stmt 0 view .LVU748
 2391 000e 13EA0005 		ands	r5, r3, r0
 2392 0012 0ED1     		bne	.L103
 2393              		.loc 1 619 5 is_stmt 1 view .LVU749
 2394              		.loc 1 619 8 is_stmt 0 view .LVU750
ARM GAS  C:\Users\DEVELO~1\AppData\Local\Temp\ccUqVwMd.s 			page 43


 2395 0014 19B9     		cbnz	r1, .L104
 2396              	.LVL133:
 2397              	.L108:
 2398              		.loc 1 625 7 is_stmt 1 view .LVU751
 2399              	.LBB465:
 2400              	.LBI465:
 2401              		.loc 3 386 20 view .LVU752
 2402              	.LBB466:
 2403              		.loc 3 388 23 view .LVU753
 2404              		.loc 3 389 34 view .LVU754
 2405              		.loc 3 395 3 view .LVU755
 2406              		.loc 3 395 3 view .LVU756
 2407              		.loc 3 395 3 view .LVU757
 2408              		.loc 3 399 3 view .LVU758
 2409              	.LBB467:
 2410              	.LBI467:
 2411              		.loc 4 864 27 view .LVU759
 2412              		.loc 4 867 3 view .LVU760
 2413              	.LBB468:
 2414              	.LBI468:
 2415              		.loc 5 491 27 view .LVU761
 2416              	.LBB469:
 2417              		.loc 5 493 3 view .LVU762
 2418              		.syntax unified
 2419              	@ 493 "./docs/ChibiOS/os/common/ext/ARM/CMSIS/Core/Include/cmsis_gcc.h" 1
 2420 0016 85F31188 		MSR basepri, r5
 2421              	@ 0 "" 2
 2422              	.LVL134:
 2423              		.loc 5 493 3 is_stmt 0 view .LVU763
 2424              		.thumb
 2425              		.syntax unified
 2426              	.LBE469:
 2427              	.LBE468:
 2428              	.LBE467:
 2429              	.LBE466:
 2430              	.LBE465:
 2431              		.loc 1 626 7 is_stmt 1 view .LVU764
 2432              		.loc 1 634 1 is_stmt 0 view .LVU765
 2433 001a 2846     		mov	r0, r5
 2434 001c 70BD     		pop	{r4, r5, r6, pc}
 2435              	.LVL135:
 2436              	.L104:
 2437              		.loc 1 623 5 is_stmt 1 view .LVU766
 2438 001e 0446     		mov	r4, r0
 2439              		.loc 1 624 9 is_stmt 0 view .LVU767
 2440 0020 0A20     		movs	r0, #10
 2441              	.LVL136:
 2442              		.loc 1 623 22 view .LVU768
 2443 0022 7463     		str	r4, [r6, #52]
 2444              		.loc 1 624 5 is_stmt 1 view .LVU769
 2445              		.loc 1 624 9 is_stmt 0 view .LVU770
 2446 0024 FFF7FEFF 		bl	chSchGoSleepTimeoutS
 2447              	.LVL137:
 2448              		.loc 1 624 8 view .LVU771
 2449 0028 0028     		cmp	r0, #0
 2450 002a F4DB     		blt	.L108
 2451              		.loc 1 628 5 is_stmt 1 view .LVU772
ARM GAS  C:\Users\DEVELO~1\AppData\Local\Temp\ccUqVwMd.s 			page 44


 2452              		.loc 1 628 15 is_stmt 0 view .LVU773
 2453 002c 736C     		ldr	r3, [r6, #68]
 2454              		.loc 1 628 7 view .LVU774
 2455 002e 03EA0405 		and	r5, r3, r4
 2456              	.LVL138:
 2457              	.L103:
 2458              		.loc 1 630 3 is_stmt 1 view .LVU775
 2459              		.loc 1 630 20 is_stmt 0 view .LVU776
 2460 0032 23EA0503 		bic	r3, r3, r5
 2461              	.LBB470:
 2462              	.LBB471:
 2463              	.LBB472:
 2464              	.LBB473:
 2465              	.LBB474:
 2466              		.loc 5 493 3 view .LVU777
 2467 0036 0022     		movs	r2, #0
 2468              	.LBE474:
 2469              	.LBE473:
 2470              	.LBE472:
 2471              	.LBE471:
 2472              	.LBE470:
 2473              		.loc 1 630 20 view .LVU778
 2474 0038 7364     		str	r3, [r6, #68]
 2475              		.loc 1 631 3 is_stmt 1 view .LVU779
 2476              	.LBB479:
 2477              	.LBI470:
 2478              		.loc 3 386 20 view .LVU780
 2479              	.LBB478:
 2480              		.loc 3 388 23 view .LVU781
 2481              		.loc 3 389 34 view .LVU782
 2482              		.loc 3 395 3 view .LVU783
 2483              		.loc 3 395 3 view .LVU784
 2484              		.loc 3 395 3 view .LVU785
 2485              		.loc 3 399 3 view .LVU786
 2486              	.LBB477:
 2487              	.LBI472:
 2488              		.loc 4 864 27 view .LVU787
 2489              		.loc 4 867 3 view .LVU788
 2490              	.LVL139:
 2491              	.LBB476:
 2492              	.LBI473:
 2493              		.loc 5 491 27 view .LVU789
 2494              	.LBB475:
 2495              		.loc 5 493 3 view .LVU790
 2496              		.syntax unified
 2497              	@ 493 "./docs/ChibiOS/os/common/ext/ARM/CMSIS/Core/Include/cmsis_gcc.h" 1
 2498 003a 82F31188 		MSR basepri, r2
 2499              	@ 0 "" 2
 2500              	.LVL140:
 2501              		.loc 5 493 3 is_stmt 0 view .LVU791
 2502              		.thumb
 2503              		.syntax unified
 2504              	.LBE475:
 2505              	.LBE476:
 2506              	.LBE477:
 2507              	.LBE478:
 2508              	.LBE479:
ARM GAS  C:\Users\DEVELO~1\AppData\Local\Temp\ccUqVwMd.s 			page 45


 2509              		.loc 1 633 3 is_stmt 1 view .LVU792
 2510              		.loc 1 634 1 is_stmt 0 view .LVU793
 2511 003e 2846     		mov	r0, r5
 2512 0040 70BD     		pop	{r4, r5, r6, pc}
 2513              	.LVL141:
 2514              	.L110:
 2515              		.loc 1 634 1 view .LVU794
 2516 0042 00BF     		.align	2
 2517              	.L109:
 2518 0044 00000000 		.word	ch0
 2519              		.cfi_endproc
 2520              	.LFE371:
 2521              		.size	chEvtWaitAnyTimeout, .-chEvtWaitAnyTimeout
 2522              		.section	.text.chEvtWaitAllTimeout,"ax",%progbits
 2523              		.align	1
 2524              		.p2align 2,,3
 2525              		.global	chEvtWaitAllTimeout
 2526              		.syntax unified
 2527              		.thumb
 2528              		.thumb_func
 2529              		.type	chEvtWaitAllTimeout, %function
 2530              	chEvtWaitAllTimeout:
 2531              	.LVL142:
 2532              	.LFB372:
 2533              		.loc 1 652 76 is_stmt 1 view -0
 2534              		.cfi_startproc
 2535              		@ args = 0, pretend = 0, frame = 0
 2536              		@ frame_needed = 0, uses_anonymous_args = 0
 2537              		.loc 1 653 3 view .LVU796
 2538              	.LBB480:
 2539              	.LBI480:
 2540              		.loc 2 527 25 view .LVU797
 2541              	.LBB481:
 2542              		.loc 2 529 3 view .LVU798
 2543              	.LBE481:
 2544              	.LBE480:
 2545              		.loc 1 652 76 is_stmt 0 view .LVU799
 2546 0000 38B5     		push	{r3, r4, r5, lr}
 2547              		.cfi_def_cfa_offset 16
 2548              		.cfi_offset 3, -16
 2549              		.cfi_offset 4, -12
 2550              		.cfi_offset 5, -8
 2551              		.cfi_offset 14, -4
 2552              	.LBB484:
 2553              	.LBB482:
 2554              		.loc 2 529 10 view .LVU800
 2555 0002 114D     		ldr	r5, .L117
 2556              	.LBE482:
 2557              	.LBE484:
 2558              	.LBB485:
 2559              	.LBB486:
 2560              	.LBB487:
 2561              	.LBB488:
 2562              		.loc 5 493 3 view .LVU801
 2563 0004 3022     		movs	r2, #48
 2564              	.LBE488:
 2565              	.LBE487:
ARM GAS  C:\Users\DEVELO~1\AppData\Local\Temp\ccUqVwMd.s 			page 46


 2566              	.LBE486:
 2567              	.LBE485:
 2568              		.loc 1 652 76 view .LVU802
 2569 0006 0446     		mov	r4, r0
 2570              	.LBB492:
 2571              	.LBB483:
 2572              		.loc 2 529 10 view .LVU803
 2573 0008 ED68     		ldr	r5, [r5, #12]
 2574              	.LVL143:
 2575              		.loc 2 529 10 view .LVU804
 2576              	.LBE483:
 2577              	.LBE492:
 2578              		.loc 1 655 3 is_stmt 1 view .LVU805
 2579              	.LBB493:
 2580              	.LBI485:
 2581              		.loc 3 372 20 view .LVU806
 2582              		.loc 3 374 3 view .LVU807
 2583              	.LBB491:
 2584              	.LBI486:
 2585              		.loc 4 840 27 view .LVU808
 2586              		.loc 4 848 3 view .LVU809
 2587              	.LBB490:
 2588              	.LBI487:
 2589              		.loc 5 491 27 view .LVU810
 2590              	.LBB489:
 2591              		.loc 5 493 3 view .LVU811
 2592              		.syntax unified
 2593              	@ 493 "./docs/ChibiOS/os/common/ext/ARM/CMSIS/Core/Include/cmsis_gcc.h" 1
 2594 000a 82F31188 		MSR basepri, r2
 2595              	@ 0 "" 2
 2596              	.LVL144:
 2597              		.loc 5 493 3 is_stmt 0 view .LVU812
 2598              		.thumb
 2599              		.syntax unified
 2600              	.LBE489:
 2601              	.LBE490:
 2602              	.LBE491:
 2603              		.loc 3 375 35 is_stmt 1 view .LVU813
 2604              		.loc 3 376 21 view .LVU814
 2605              	.LBE493:
 2606              		.loc 1 656 3 view .LVU815
 2607              		.loc 1 656 14 is_stmt 0 view .LVU816
 2608 000e 6A6C     		ldr	r2, [r5, #68]
 2609              		.loc 1 656 6 view .LVU817
 2610 0010 34EA0200 		bics	r0, r4, r2
 2611              	.LVL145:
 2612              		.loc 1 656 6 view .LVU818
 2613 0014 0BD0     		beq	.L112
 2614              		.loc 1 657 5 is_stmt 1 view .LVU819
 2615              		.loc 1 657 8 is_stmt 0 view .LVU820
 2616 0016 19B9     		cbnz	r1, .L113
 2617              		.loc 1 658 7 is_stmt 1 view .LVU821
 2618              	.LBB494:
 2619              	.LBI494:
 2620              		.loc 3 386 20 view .LVU822
 2621              	.LBB495:
 2622              		.loc 3 388 23 view .LVU823
ARM GAS  C:\Users\DEVELO~1\AppData\Local\Temp\ccUqVwMd.s 			page 47


 2623              		.loc 3 389 34 view .LVU824
 2624              		.loc 3 395 3 view .LVU825
 2625              		.loc 3 395 3 view .LVU826
 2626              		.loc 3 395 3 view .LVU827
 2627              		.loc 3 399 3 view .LVU828
 2628              	.LBB496:
 2629              	.LBI496:
 2630              		.loc 4 864 27 view .LVU829
 2631              		.loc 4 867 3 view .LVU830
 2632              	.LVL146:
 2633              	.LBB497:
 2634              	.LBI497:
 2635              		.loc 5 491 27 view .LVU831
 2636              	.LBB498:
 2637              		.loc 5 493 3 view .LVU832
 2638              		.syntax unified
 2639              	@ 493 "./docs/ChibiOS/os/common/ext/ARM/CMSIS/Core/Include/cmsis_gcc.h" 1
 2640 0018 81F31188 		MSR basepri, r1
 2641              	@ 0 "" 2
 2642              	.LVL147:
 2643              		.loc 5 493 3 is_stmt 0 view .LVU833
 2644              		.thumb
 2645              		.syntax unified
 2646              	.LBE498:
 2647              	.LBE497:
 2648              	.LBE496:
 2649              	.LBE495:
 2650              	.LBE494:
 2651              		.loc 1 659 7 is_stmt 1 view .LVU834
 2652              		.loc 1 659 14 is_stmt 0 view .LVU835
 2653 001c 0846     		mov	r0, r1
 2654              		.loc 1 671 1 view .LVU836
 2655 001e 38BD     		pop	{r3, r4, r5, pc}
 2656              	.LVL148:
 2657              	.L113:
 2658              		.loc 1 661 5 is_stmt 1 view .LVU837
 2659              		.loc 1 662 9 is_stmt 0 view .LVU838
 2660 0020 0B20     		movs	r0, #11
 2661              		.loc 1 661 22 view .LVU839
 2662 0022 6C63     		str	r4, [r5, #52]
 2663              		.loc 1 662 5 is_stmt 1 view .LVU840
 2664              		.loc 1 662 9 is_stmt 0 view .LVU841
 2665 0024 FFF7FEFF 		bl	chSchGoSleepTimeoutS
 2666              	.LVL149:
 2667              		.loc 1 662 8 view .LVU842
 2668 0028 0028     		cmp	r0, #0
 2669 002a 08DB     		blt	.L115
 2670              		.loc 1 667 20 view .LVU843
 2671 002c 6A6C     		ldr	r2, [r5, #68]
 2672              	.L112:
 2673              		.loc 1 667 3 is_stmt 1 view .LVU844
 2674              		.loc 1 667 20 is_stmt 0 view .LVU845
 2675 002e 22EA0402 		bic	r2, r2, r4
 2676              	.LBB499:
 2677              	.LBB500:
 2678              	.LBB501:
 2679              	.LBB502:
ARM GAS  C:\Users\DEVELO~1\AppData\Local\Temp\ccUqVwMd.s 			page 48


 2680              	.LBB503:
 2681              		.loc 5 493 3 view .LVU846
 2682 0032 0023     		movs	r3, #0
 2683              	.LBE503:
 2684              	.LBE502:
 2685              	.LBE501:
 2686              	.LBE500:
 2687              	.LBE499:
 2688              		.loc 1 667 20 view .LVU847
 2689 0034 6A64     		str	r2, [r5, #68]
 2690              		.loc 1 668 3 is_stmt 1 view .LVU848
 2691              	.LBB508:
 2692              	.LBI499:
 2693              		.loc 3 386 20 view .LVU849
 2694              	.LBB507:
 2695              		.loc 3 388 23 view .LVU850
 2696              		.loc 3 389 34 view .LVU851
 2697              		.loc 3 395 3 view .LVU852
 2698              		.loc 3 395 3 view .LVU853
 2699              		.loc 3 395 3 view .LVU854
 2700              		.loc 3 399 3 view .LVU855
 2701              	.LBB506:
 2702              	.LBI501:
 2703              		.loc 4 864 27 view .LVU856
 2704              		.loc 4 867 3 view .LVU857
 2705              	.LVL150:
 2706              	.LBB505:
 2707              	.LBI502:
 2708              		.loc 5 491 27 view .LVU858
 2709              	.LBB504:
 2710              		.loc 5 493 3 view .LVU859
 2711              		.syntax unified
 2712              	@ 493 "./docs/ChibiOS/os/common/ext/ARM/CMSIS/Core/Include/cmsis_gcc.h" 1
 2713 0036 83F31188 		MSR basepri, r3
 2714              	@ 0 "" 2
 2715              	.LVL151:
 2716              		.loc 5 493 3 is_stmt 0 view .LVU860
 2717              		.thumb
 2718              		.syntax unified
 2719              	.LBE504:
 2720              	.LBE505:
 2721              	.LBE506:
 2722              	.LBE507:
 2723              	.LBE508:
 2724              		.loc 1 670 3 is_stmt 1 view .LVU861
 2725              		.loc 1 670 10 is_stmt 0 view .LVU862
 2726 003a 2046     		mov	r0, r4
 2727              		.loc 1 671 1 view .LVU863
 2728 003c 38BD     		pop	{r3, r4, r5, pc}
 2729              	.LVL152:
 2730              	.L115:
 2731              		.loc 1 663 7 is_stmt 1 view .LVU864
 2732              	.LBB509:
 2733              	.LBI509:
 2734              		.loc 3 386 20 view .LVU865
 2735              	.LBB510:
 2736              		.loc 3 388 23 view .LVU866
ARM GAS  C:\Users\DEVELO~1\AppData\Local\Temp\ccUqVwMd.s 			page 49


 2737              		.loc 3 389 34 view .LVU867
 2738              		.loc 3 395 3 view .LVU868
 2739              		.loc 3 395 3 view .LVU869
 2740              		.loc 3 395 3 view .LVU870
 2741              		.loc 3 399 3 view .LVU871
 2742              	.LBB511:
 2743              	.LBI511:
 2744              		.loc 4 864 27 view .LVU872
 2745              		.loc 4 867 3 view .LVU873
 2746              	.LBB512:
 2747              	.LBI512:
 2748              		.loc 5 491 27 view .LVU874
 2749              	.LBB513:
 2750              		.loc 5 493 3 view .LVU875
 2751 003e 0020     		movs	r0, #0
 2752              		.syntax unified
 2753              	@ 493 "./docs/ChibiOS/os/common/ext/ARM/CMSIS/Core/Include/cmsis_gcc.h" 1
 2754 0040 80F31188 		MSR basepri, r0
 2755              	@ 0 "" 2
 2756              	.LVL153:
 2757              		.loc 5 493 3 is_stmt 0 view .LVU876
 2758              		.thumb
 2759              		.syntax unified
 2760              	.LBE513:
 2761              	.LBE512:
 2762              	.LBE511:
 2763              	.LBE510:
 2764              	.LBE509:
 2765              		.loc 1 664 7 is_stmt 1 view .LVU877
 2766              		.loc 1 671 1 is_stmt 0 view .LVU878
 2767 0044 38BD     		pop	{r3, r4, r5, pc}
 2768              	.LVL154:
 2769              	.L118:
 2770              		.loc 1 671 1 view .LVU879
 2771 0046 00BF     		.align	2
 2772              	.L117:
 2773 0048 00000000 		.word	ch0
 2774              		.cfi_endproc
 2775              	.LFE372:
 2776              		.size	chEvtWaitAllTimeout, .-chEvtWaitAllTimeout
 2777              		.text
 2778              	.Letext0:
 2779              		.file 7 "c:\\chibistudio\\tools\\gnu tools arm embedded\\11.3 2022.08\\arm-none-eabi\\include\\mac
 2780              		.file 8 "c:\\chibistudio\\tools\\gnu tools arm embedded\\11.3 2022.08\\arm-none-eabi\\include\\sys
 2781              		.file 9 "./docs/ChibiOS/os/common/ports/ARM-common/include/chtypes.h"
 2782              		.file 10 "./docs/ChibiOS/os/rt/include/chearly.h"
 2783              		.file 11 "./docs/ChibiOS/os/rt/include/chobjects.h"
 2784              		.file 12 "./docs/ChibiOS/os/rt/include/chrfcu.h"
 2785              		.file 13 "./docs/ChibiOS/os/rt/include/chdebug.h"
 2786              		.file 14 "./docs/ChibiOS/os/rt/include/chtime.h"
 2787              		.file 15 "./docs/ChibiOS/os/rt/include/chtrace.h"
 2788              		.file 16 "./docs/ChibiOS/os/rt/include/chlists.h"
 2789              		.file 17 "./docs/ChibiOS/os/rt/include/chsem.h"
 2790              		.file 18 "./docs/ChibiOS/os/rt/include/chmtx.h"
 2791              		.file 19 "./docs/ChibiOS/os/rt/include/chschd.h"