ARM GAS  C:\Users\DEVELO~1\AppData\Local\Temp\ccCQBNL2.s 			page 1


   1              		.cpu cortex-m7
   2              		.arch armv7e-m
   3              		.fpu fpv5-d16
   4              		.eabi_attribute 28, 1
   5              		.eabi_attribute 20, 1
   6              		.eabi_attribute 21, 1
   7              		.eabi_attribute 23, 3
   8              		.eabi_attribute 24, 1
   9              		.eabi_attribute 25, 1
  10              		.eabi_attribute 26, 1
  11              		.eabi_attribute 30, 2
  12              		.eabi_attribute 34, 1
  13              		.eabi_attribute 18, 4
  14              		.file	"chmboxes.c"
  15              		.text
  16              	.Ltext0:
  17              		.cfi_sections	.debug_frame
  18              		.section	.text.chMBObjectInit,"ax",%progbits
  19              		.align	1
  20              		.p2align 2,,3
  21              		.global	chMBObjectInit
  22              		.syntax unified
  23              		.thumb
  24              		.thumb_func
  25              		.type	chMBObjectInit, %function
  26              	chMBObjectInit:
  27              	.LVL0:
  28              	.LFB352:
  29              		.file 1 "./docs/ChibiOS/os/oslib/src/chmboxes.c"
  30              		.loc 1 89 59 view -0
  31              		.cfi_startproc
  32              		@ args = 0, pretend = 0, frame = 0
  33              		@ frame_needed = 0, uses_anonymous_args = 0
  34              		.loc 1 91 3 view .LVU1
  35              		.loc 1 91 3 view .LVU2
  36              		.loc 1 91 3 view .LVU3
  37              		.loc 1 93 3 view .LVU4
  38              		.loc 1 89 59 is_stmt 0 view .LVU5
  39 0000 10B5     		push	{r4, lr}
  40              		.cfi_def_cfa_offset 8
  41              		.cfi_offset 4, -8
  42              		.cfi_offset 14, -4
  43              		.loc 1 97 15 view .LVU6
  44 0002 0023     		movs	r3, #0
  45              		.loc 1 89 59 view .LVU7
  46 0004 0446     		mov	r4, r0
  47              		.loc 1 94 17 view .LVU8
  48 0006 01EB8202 		add	r2, r1, r2, lsl #2
  49              	.LVL1:
  50              		.loc 1 99 3 view .LVU9
  51 000a 1830     		adds	r0, r0, #24
  52              	.LVL2:
  53              		.loc 1 93 15 view .LVU10
  54 000c 2160     		str	r1, [r4]
  55              		.loc 1 94 3 is_stmt 1 view .LVU11
  56              		.loc 1 95 15 is_stmt 0 view .LVU12
  57 000e E160     		str	r1, [r4, #12]
ARM GAS  C:\Users\DEVELO~1\AppData\Local\Temp\ccCQBNL2.s 			page 2


  58              		.loc 1 97 15 view .LVU13
  59 0010 2361     		str	r3, [r4, #16]
  60              		.loc 1 98 15 view .LVU14
  61 0012 2375     		strb	r3, [r4, #20]
  62              		.loc 1 96 15 view .LVU15
  63 0014 C4E90121 		strd	r2, r1, [r4, #4]
  64              		.loc 1 97 3 is_stmt 1 view .LVU16
  65              		.loc 1 98 3 view .LVU17
  66              		.loc 1 99 3 view .LVU18
  67 0018 FFF7FEFF 		bl	chThdQueueObjectInit
  68              	.LVL3:
  69              		.loc 1 100 3 view .LVU19
  70 001c 04F12000 		add	r0, r4, #32
  71              		.loc 1 101 1 is_stmt 0 view .LVU20
  72 0020 BDE81040 		pop	{r4, lr}
  73              		.cfi_restore 14
  74              		.cfi_restore 4
  75              		.cfi_def_cfa_offset 0
  76              	.LVL4:
  77              		.loc 1 100 3 view .LVU21
  78 0024 FFF7FEBF 		b	chThdQueueObjectInit
  79              	.LVL5:
  80              		.loc 1 100 3 view .LVU22
  81              		.cfi_endproc
  82              	.LFE352:
  83              		.size	chMBObjectInit, .-chMBObjectInit
  84              		.section	.text.chMBObjectDispose,"ax",%progbits
  85              		.align	1
  86              		.p2align 2,,3
  87              		.global	chMBObjectDispose
  88              		.syntax unified
  89              		.thumb
  90              		.thumb_func
  91              		.type	chMBObjectDispose, %function
  92              	chMBObjectDispose:
  93              	.LVL6:
  94              	.LFB353:
  95              		.loc 1 118 40 is_stmt 1 view -0
  96              		.cfi_startproc
  97              		@ args = 0, pretend = 0, frame = 0
  98              		@ frame_needed = 0, uses_anonymous_args = 0
  99              		.loc 1 120 3 view .LVU24
 100              		.loc 1 120 3 view .LVU25
 101              		.loc 1 120 3 view .LVU26
 102              		.loc 1 122 3 view .LVU27
 103              		.loc 1 118 40 is_stmt 0 view .LVU28
 104 0000 10B5     		push	{r4, lr}
 105              		.cfi_def_cfa_offset 8
 106              		.cfi_offset 4, -8
 107              		.cfi_offset 14, -4
 108              		.loc 1 118 40 view .LVU29
 109 0002 0446     		mov	r4, r0
 110              		.loc 1 122 3 view .LVU30
 111 0004 2030     		adds	r0, r0, #32
 112              	.LVL7:
 113              		.loc 1 122 3 view .LVU31
 114 0006 FFF7FEFF 		bl	chThdQueueObjectDispose
ARM GAS  C:\Users\DEVELO~1\AppData\Local\Temp\ccCQBNL2.s 			page 3


 115              	.LVL8:
 116              		.loc 1 123 3 is_stmt 1 view .LVU32
 117 000a 04F11800 		add	r0, r4, #24
 118              		.loc 1 128 1 is_stmt 0 view .LVU33
 119 000e BDE81040 		pop	{r4, lr}
 120              		.cfi_restore 14
 121              		.cfi_restore 4
 122              		.cfi_def_cfa_offset 0
 123              	.LVL9:
 124              		.loc 1 123 3 view .LVU34
 125 0012 FFF7FEBF 		b	chThdQueueObjectDispose
 126              	.LVL10:
 127              		.loc 1 123 3 view .LVU35
 128              		.cfi_endproc
 129              	.LFE353:
 130              		.size	chMBObjectDispose, .-chMBObjectDispose
 131 0016 00BF     		.section	.text.chMBReset,"ax",%progbits
 132              		.align	1
 133              		.p2align 2,,3
 134              		.global	chMBReset
 135              		.syntax unified
 136              		.thumb
 137              		.thumb_func
 138              		.type	chMBReset, %function
 139              	chMBReset:
 140              	.LVL11:
 141              	.LFB354:
 142              		.loc 1 142 32 is_stmt 1 view -0
 143              		.cfi_startproc
 144              		@ args = 0, pretend = 0, frame = 0
 145              		@ frame_needed = 0, uses_anonymous_args = 0
 146              		.loc 1 144 3 view .LVU37
 147              	.LBB97:
 148              	.LBI97:
 149              		.file 2 "./docs/ChibiOS/os/rt/include/chsys.h"
 150              		.loc 2 372 20 view .LVU38
 151              		.loc 2 374 3 view .LVU39
 152              	.LBB98:
 153              	.LBI98:
 154              		.file 3 "./docs/ChibiOS/os/common/ports/ARMv7-M/chcore.h"
 155              		.loc 3 840 27 view .LVU40
 156              		.loc 3 848 3 view .LVU41
 157              	.LBB99:
 158              	.LBI99:
 159              		.file 4 "./docs/ChibiOS/os/common/ext/ARM/CMSIS/Core/Include/cmsis_gcc.h"
 160              		.loc 4 491 27 view .LVU42
 161              	.LBB100:
 162              		.loc 4 493 3 view .LVU43
 163              	.LBE100:
 164              	.LBE99:
 165              	.LBE98:
 166              	.LBE97:
 167              		.loc 1 142 32 is_stmt 0 view .LVU44
 168 0000 38B5     		push	{r3, r4, r5, lr}
 169              		.cfi_def_cfa_offset 16
 170              		.cfi_offset 3, -16
 171              		.cfi_offset 4, -12
ARM GAS  C:\Users\DEVELO~1\AppData\Local\Temp\ccCQBNL2.s 			page 4


 172              		.cfi_offset 5, -8
 173              		.cfi_offset 14, -4
 174              	.LBB107:
 175              	.LBB105:
 176              	.LBB103:
 177              	.LBB101:
 178              		.loc 4 493 3 view .LVU45
 179 0002 3023     		movs	r3, #48
 180              	.LBE101:
 181              	.LBE103:
 182              	.LBE105:
 183              	.LBE107:
 184              		.loc 1 142 32 view .LVU46
 185 0004 0446     		mov	r4, r0
 186              	.LBB108:
 187              	.LBB106:
 188              	.LBB104:
 189              	.LBB102:
 190              		.loc 4 493 3 view .LVU47
 191              		.syntax unified
 192              	@ 493 "./docs/ChibiOS/os/common/ext/ARM/CMSIS/Core/Include/cmsis_gcc.h" 1
 193 0006 83F31188 		MSR basepri, r3
 194              	@ 0 "" 2
 195              	.LVL12:
 196              		.loc 4 493 3 view .LVU48
 197              		.thumb
 198              		.syntax unified
 199              	.LBE102:
 200              	.LBE104:
 201              	.LBE106:
 202              		.loc 2 375 35 is_stmt 1 view .LVU49
 203              		.loc 2 376 21 view .LVU50
 204              	.LBE108:
 205              		.loc 1 145 3 view .LVU51
 206              	.LBB109:
 207              	.LBI109:
 208              		.loc 1 162 6 view .LVU52
 209              	.LBB110:
 210              		.loc 1 164 21 view .LVU53
 211              		.loc 1 165 3 view .LVU54
 212              		.loc 1 165 3 view .LVU55
 213              		.loc 1 165 3 view .LVU56
 214              		.loc 1 167 3 view .LVU57
 215              		.loc 1 170 14 is_stmt 0 view .LVU58
 216 000a 0122     		movs	r2, #1
 217              		.loc 1 167 19 view .LVU59
 218 000c 0368     		ldr	r3, [r0]
 219              		.loc 1 169 14 view .LVU60
 220 000e 0025     		movs	r5, #0
 221              		.loc 1 171 3 view .LVU61
 222 0010 1830     		adds	r0, r0, #24
 223              	.LVL13:
 224              		.loc 1 170 14 view .LVU62
 225 0012 2275     		strb	r2, [r4, #20]
 226              		.loc 1 171 3 view .LVU63
 227 0014 6FF00101 		mvn	r1, #1
 228              		.loc 1 169 14 view .LVU64
ARM GAS  C:\Users\DEVELO~1\AppData\Local\Temp\ccCQBNL2.s 			page 5


 229 0018 2561     		str	r5, [r4, #16]
 230              		.loc 1 168 14 view .LVU65
 231 001a C4E90233 		strd	r3, r3, [r4, #8]
 232              		.loc 1 169 3 is_stmt 1 view .LVU66
 233              		.loc 1 170 3 view .LVU67
 234              		.loc 1 171 3 view .LVU68
 235 001e FFF7FEFF 		bl	chThdDequeueAllI
 236              	.LVL14:
 237              		.loc 1 172 3 view .LVU69
 238 0022 6FF00101 		mvn	r1, #1
 239 0026 04F12000 		add	r0, r4, #32
 240 002a FFF7FEFF 		bl	chThdDequeueAllI
 241              	.LVL15:
 242              		.loc 1 172 3 is_stmt 0 view .LVU70
 243              	.LBE110:
 244              	.LBE109:
 245              		.loc 1 146 3 is_stmt 1 view .LVU71
 246 002e FFF7FEFF 		bl	chSchRescheduleS
 247              	.LVL16:
 248              		.loc 1 147 3 view .LVU72
 249              	.LBB111:
 250              	.LBI111:
 251              		.loc 2 386 20 view .LVU73
 252              	.LBB112:
 253              		.loc 2 388 23 view .LVU74
 254              		.loc 2 389 34 view .LVU75
 255              		.loc 2 395 3 view .LVU76
 256              		.loc 2 395 3 view .LVU77
 257              		.loc 2 395 3 view .LVU78
 258              		.loc 2 399 3 view .LVU79
 259              	.LBB113:
 260              	.LBI113:
 261              		.loc 3 864 27 view .LVU80
 262              		.loc 3 867 3 view .LVU81
 263              	.LBB114:
 264              	.LBI114:
 265              		.loc 4 491 27 view .LVU82
 266              	.LBB115:
 267              		.loc 4 493 3 view .LVU83
 268              		.syntax unified
 269              	@ 493 "./docs/ChibiOS/os/common/ext/ARM/CMSIS/Core/Include/cmsis_gcc.h" 1
 270 0032 85F31188 		MSR basepri, r5
 271              	@ 0 "" 2
 272              	.LVL17:
 273              		.loc 4 493 3 is_stmt 0 view .LVU84
 274              		.thumb
 275              		.syntax unified
 276              	.LBE115:
 277              	.LBE114:
 278              	.LBE113:
 279              	.LBE112:
 280              	.LBE111:
 281              		.loc 1 148 1 view .LVU85
 282 0036 38BD     		pop	{r3, r4, r5, pc}
 283              		.loc 1 148 1 view .LVU86
 284              		.cfi_endproc
 285              	.LFE354:
ARM GAS  C:\Users\DEVELO~1\AppData\Local\Temp\ccCQBNL2.s 			page 6


 286              		.size	chMBReset, .-chMBReset
 287              		.section	.text.chMBResetI,"ax",%progbits
 288              		.align	1
 289              		.p2align 2,,3
 290              		.global	chMBResetI
 291              		.syntax unified
 292              		.thumb
 293              		.thumb_func
 294              		.type	chMBResetI, %function
 295              	chMBResetI:
 296              	.LVL18:
 297              	.LFB355:
 298              		.loc 1 162 33 is_stmt 1 view -0
 299              		.cfi_startproc
 300              		@ args = 0, pretend = 0, frame = 0
 301              		@ frame_needed = 0, uses_anonymous_args = 0
 302              		.loc 1 164 21 view .LVU88
 303              		.loc 1 165 3 view .LVU89
 304              		.loc 1 165 3 view .LVU90
 305              		.loc 1 165 3 view .LVU91
 306              		.loc 1 167 3 view .LVU92
 307              		.loc 1 162 33 is_stmt 0 view .LVU93
 308 0000 38B5     		push	{r3, r4, r5, lr}
 309              		.cfi_def_cfa_offset 16
 310              		.cfi_offset 3, -16
 311              		.cfi_offset 4, -12
 312              		.cfi_offset 5, -8
 313              		.cfi_offset 14, -4
 314              		.loc 1 170 14 view .LVU94
 315 0002 0122     		movs	r2, #1
 316              		.loc 1 167 19 view .LVU95
 317 0004 0368     		ldr	r3, [r0]
 318              		.loc 1 162 33 view .LVU96
 319 0006 0446     		mov	r4, r0
 320              		.loc 1 169 14 view .LVU97
 321 0008 0025     		movs	r5, #0
 322              		.loc 1 171 3 view .LVU98
 323 000a 6FF00101 		mvn	r1, #1
 324 000e 1830     		adds	r0, r0, #24
 325              	.LVL19:
 326              		.loc 1 169 14 view .LVU99
 327 0010 40F8085C 		str	r5, [r0, #-8]
 328              		.loc 1 170 14 view .LVU100
 329 0014 2275     		strb	r2, [r4, #20]
 330              		.loc 1 168 14 view .LVU101
 331 0016 C4E90233 		strd	r3, r3, [r4, #8]
 332              		.loc 1 169 3 is_stmt 1 view .LVU102
 333              		.loc 1 170 3 view .LVU103
 334              		.loc 1 171 3 view .LVU104
 335 001a FFF7FEFF 		bl	chThdDequeueAllI
 336              	.LVL20:
 337              		.loc 1 172 3 view .LVU105
 338 001e 04F12000 		add	r0, r4, #32
 339 0022 6FF00101 		mvn	r1, #1
 340              		.loc 1 173 1 is_stmt 0 view .LVU106
 341 0026 BDE83840 		pop	{r3, r4, r5, lr}
 342              		.cfi_restore 14
ARM GAS  C:\Users\DEVELO~1\AppData\Local\Temp\ccCQBNL2.s 			page 7


 343              		.cfi_restore 5
 344              		.cfi_restore 4
 345              		.cfi_restore 3
 346              		.cfi_def_cfa_offset 0
 347              	.LVL21:
 348              		.loc 1 172 3 view .LVU107
 349 002a FFF7FEBF 		b	chThdDequeueAllI
 350              	.LVL22:
 351              		.loc 1 172 3 view .LVU108
 352              		.cfi_endproc
 353              	.LFE355:
 354              		.size	chMBResetI, .-chMBResetI
 355 002e 00BF     		.section	.text.chMBPostTimeoutS,"ax",%progbits
 356              		.align	1
 357              		.p2align 2,,3
 358              		.global	chMBPostTimeoutS
 359              		.syntax unified
 360              		.thumb
 361              		.thumb_func
 362              		.type	chMBPostTimeoutS, %function
 363              	chMBPostTimeoutS:
 364              	.LVL23:
 365              	.LFB357:
 366              		.loc 1 221 74 is_stmt 1 view -0
 367              		.cfi_startproc
 368              		@ args = 0, pretend = 0, frame = 0
 369              		@ frame_needed = 0, uses_anonymous_args = 0
 370              		.loc 1 222 3 view .LVU110
 371              		.loc 1 224 21 view .LVU111
 372              		.loc 1 225 3 view .LVU112
 373              		.loc 1 225 3 view .LVU113
 374              		.loc 1 221 74 is_stmt 0 view .LVU114
 375 0000 2DE9F843 		push	{r3, r4, r5, r6, r7, r8, r9, lr}
 376              		.cfi_def_cfa_offset 32
 377              		.cfi_offset 3, -32
 378              		.cfi_offset 4, -28
 379              		.cfi_offset 5, -24
 380              		.cfi_offset 6, -20
 381              		.cfi_offset 7, -16
 382              		.cfi_offset 8, -12
 383              		.cfi_offset 9, -8
 384              		.cfi_offset 14, -4
 385              		.loc 1 221 74 view .LVU115
 386 0004 0446     		mov	r4, r0
 387 0006 0F46     		mov	r7, r1
 388 0008 9046     		mov	r8, r2
 389              		.loc 1 249 14 view .LVU116
 390 000a 00F11809 		add	r9, r0, #24
 391 000e 09E0     		b	.L14
 392              	.LVL24:
 393              	.L20:
 394              	.LBB116:
 395              	.LBB117:
 396              	.LBB118:
 397              		.file 5 "./docs/ChibiOS/os/oslib/include/chmboxes.h"
 398              		.loc 5 141 33 view .LVU117
 399 0010 D4E90056 		ldrd	r5, r6, [r4]
ARM GAS  C:\Users\DEVELO~1\AppData\Local\Temp\ccCQBNL2.s 			page 8


 400              	.LVL25:
 401              		.loc 5 141 33 view .LVU118
 402              	.LBE118:
 403              	.LBE117:
 404              	.LBB121:
 405              	.LBI121:
 406              		.loc 5 153 22 is_stmt 1 view .LVU119
 407              	.LBB122:
 408              		.loc 5 155 21 view .LVU120
 409              		.loc 5 157 3 view .LVU121
 410              		.loc 5 157 13 is_stmt 0 view .LVU122
 411 0014 2369     		ldr	r3, [r4, #16]
 412              	.LVL26:
 413              		.loc 5 157 13 view .LVU123
 414              	.LBE122:
 415              	.LBE121:
 416              	.LBB123:
 417              	.LBB119:
 418              		.loc 5 141 28 view .LVU124
 419 0016 721B     		subs	r2, r6, r5
 420              	.LBE119:
 421              	.LBE123:
 422              	.LBE116:
 423              		.loc 1 234 8 view .LVU125
 424 0018 B3EBA20F 		cmp	r3, r2, asr #2
 425 001c 0BD1     		bne	.L19
 426              		.loc 1 249 14 view .LVU126
 427 001e FFF7FEFF 		bl	chThdEnqueueTimeoutS
 428              	.LVL27:
 429              		.loc 1 250 19 is_stmt 1 view .LVU127
 430 0022 30B9     		cbnz	r0, .L10
 431              	.LVL28:
 432              	.L14:
 433              		.loc 1 225 3 discriminator 5 view .LVU128
 434              		.loc 1 227 3 discriminator 5 view .LVU129
 435              		.loc 1 229 5 discriminator 5 view .LVU130
 436              		.loc 1 234 5 discriminator 5 view .LVU131
 437              	.LBB125:
 438              	.LBI116:
 439              		.loc 5 168 22 discriminator 5 view .LVU132
 440              		.loc 5 170 21 discriminator 5 view .LVU133
 441              		.loc 5 172 3 discriminator 5 view .LVU134
 442              	.LBB124:
 443              	.LBI117:
 444              		.loc 5 137 22 discriminator 5 view .LVU135
 445              	.LBB120:
 446              		.loc 5 141 3 discriminator 5 view .LVU136
 447              	.LBE120:
 448              	.LBE124:
 449              	.LBE125:
 450              		.loc 1 249 5 discriminator 5 view .LVU137
 451              		.loc 1 229 8 is_stmt 0 discriminator 5 view .LVU138
 452 0024 237D     		ldrb	r3, [r4, #20]	@ zero_extendqisi2
 453              		.loc 1 249 14 discriminator 5 view .LVU139
 454 0026 4146     		mov	r1, r8
 455 0028 4846     		mov	r0, r9
 456              		.loc 1 229 8 discriminator 5 view .LVU140
ARM GAS  C:\Users\DEVELO~1\AppData\Local\Temp\ccCQBNL2.s 			page 9


 457 002a 002B     		cmp	r3, #0
 458 002c F0D0     		beq	.L20
 459              	.LVL29:
 460              		.loc 1 230 14 view .LVU141
 461 002e 6FF00100 		mvn	r0, #1
 462              	.LVL30:
 463              	.L10:
 464              		.loc 1 253 1 view .LVU142
 465 0032 BDE8F883 		pop	{r3, r4, r5, r6, r7, r8, r9, pc}
 466              	.LVL31:
 467              	.L19:
 468              		.loc 1 235 7 is_stmt 1 view .LVU143
 469              		.loc 1 235 11 is_stmt 0 view .LVU144
 470 0036 A168     		ldr	r1, [r4, #8]
 471              	.LVL32:
 472              		.loc 1 239 15 view .LVU145
 473 0038 0133     		adds	r3, r3, #1
 474              		.loc 1 242 7 view .LVU146
 475 003a 04F12000 		add	r0, r4, #32
 476              		.loc 1 235 18 view .LVU147
 477 003e 0A1D     		adds	r2, r1, #4
 478              		.loc 1 236 10 view .LVU148
 479 0040 B242     		cmp	r2, r6
 480              		.loc 1 235 18 view .LVU149
 481 0042 A260     		str	r2, [r4, #8]
 482              		.loc 1 235 21 view .LVU150
 483 0044 0F60     		str	r7, [r1]
 484              		.loc 1 236 7 is_stmt 1 view .LVU151
 485              		.loc 1 242 7 is_stmt 0 view .LVU152
 486 0046 4FF00001 		mov	r1, #0
 487              		.loc 1 237 20 view .LVU153
 488 004a 38BF     		it	cc
 489 004c A568     		ldrcc	r5, [r4, #8]
 490              		.loc 1 239 15 view .LVU154
 491 004e 2361     		str	r3, [r4, #16]
 492 0050 A560     		str	r5, [r4, #8]
 493              		.loc 1 239 7 is_stmt 1 view .LVU155
 494              		.loc 1 242 7 view .LVU156
 495 0052 FFF7FEFF 		bl	chThdDequeueNextI
 496              	.LVL33:
 497              		.loc 1 243 7 view .LVU157
 498 0056 FFF7FEFF 		bl	chSchRescheduleS
 499              	.LVL34:
 500              		.loc 1 245 7 view .LVU158
 501              		.loc 1 245 14 is_stmt 0 view .LVU159
 502 005a 0020     		movs	r0, #0
 503              		.loc 1 253 1 view .LVU160
 504 005c BDE8F883 		pop	{r3, r4, r5, r6, r7, r8, r9, pc}
 505              		.loc 1 253 1 view .LVU161
 506              		.cfi_endproc
 507              	.LFE357:
 508              		.size	chMBPostTimeoutS, .-chMBPostTimeoutS
 509              		.section	.text.chMBPostTimeout,"ax",%progbits
 510              		.align	1
 511              		.p2align 2,,3
 512              		.global	chMBPostTimeout
 513              		.syntax unified
ARM GAS  C:\Users\DEVELO~1\AppData\Local\Temp\ccCQBNL2.s 			page 10


 514              		.thumb
 515              		.thumb_func
 516              		.type	chMBPostTimeout, %function
 517              	chMBPostTimeout:
 518              	.LVL35:
 519              	.LFB356:
 520              		.loc 1 193 73 is_stmt 1 view -0
 521              		.cfi_startproc
 522              		@ args = 0, pretend = 0, frame = 0
 523              		@ frame_needed = 0, uses_anonymous_args = 0
 524              		.loc 1 194 3 view .LVU163
 525              		.loc 1 196 3 view .LVU164
 526              	.LBB126:
 527              	.LBI126:
 528              		.loc 2 372 20 view .LVU165
 529              		.loc 2 374 3 view .LVU166
 530              	.LBB127:
 531              	.LBI127:
 532              		.loc 3 840 27 view .LVU167
 533              		.loc 3 848 3 view .LVU168
 534              	.LBB128:
 535              	.LBI128:
 536              		.loc 4 491 27 view .LVU169
 537              	.LBB129:
 538              		.loc 4 493 3 view .LVU170
 539              	.LBE129:
 540              	.LBE128:
 541              	.LBE127:
 542              	.LBE126:
 543              		.loc 1 193 73 is_stmt 0 view .LVU171
 544 0000 08B5     		push	{r3, lr}
 545              		.cfi_def_cfa_offset 8
 546              		.cfi_offset 3, -8
 547              		.cfi_offset 14, -4
 548              	.LBB133:
 549              	.LBB132:
 550              	.LBB131:
 551              	.LBB130:
 552              		.loc 4 493 3 view .LVU172
 553 0002 3023     		movs	r3, #48
 554              		.syntax unified
 555              	@ 493 "./docs/ChibiOS/os/common/ext/ARM/CMSIS/Core/Include/cmsis_gcc.h" 1
 556 0004 83F31188 		MSR basepri, r3
 557              	@ 0 "" 2
 558              	.LVL36:
 559              		.loc 4 493 3 view .LVU173
 560              		.thumb
 561              		.syntax unified
 562              	.LBE130:
 563              	.LBE131:
 564              	.LBE132:
 565              		.loc 2 375 35 is_stmt 1 view .LVU174
 566              		.loc 2 376 21 view .LVU175
 567              	.LBE133:
 568              		.loc 1 197 3 view .LVU176
 569              		.loc 1 197 12 is_stmt 0 view .LVU177
 570 0008 FFF7FEFF 		bl	chMBPostTimeoutS
ARM GAS  C:\Users\DEVELO~1\AppData\Local\Temp\ccCQBNL2.s 			page 11


 571              	.LVL37:
 572              		.loc 1 198 3 is_stmt 1 view .LVU178
 573              	.LBB134:
 574              	.LBI134:
 575              		.loc 2 386 20 view .LVU179
 576              	.LBB135:
 577              		.loc 2 388 23 view .LVU180
 578              		.loc 2 389 34 view .LVU181
 579              		.loc 2 395 3 view .LVU182
 580              		.loc 2 395 3 view .LVU183
 581              		.loc 2 395 3 view .LVU184
 582              		.loc 2 399 3 view .LVU185
 583              	.LBB136:
 584              	.LBI136:
 585              		.loc 3 864 27 view .LVU186
 586              		.loc 3 867 3 view .LVU187
 587              	.LBB137:
 588              	.LBI137:
 589              		.loc 4 491 27 view .LVU188
 590              	.LBB138:
 591              		.loc 4 493 3 view .LVU189
 592 000c 0023     		movs	r3, #0
 593              		.syntax unified
 594              	@ 493 "./docs/ChibiOS/os/common/ext/ARM/CMSIS/Core/Include/cmsis_gcc.h" 1
 595 000e 83F31188 		MSR basepri, r3
 596              	@ 0 "" 2
 597              	.LVL38:
 598              		.loc 4 493 3 is_stmt 0 view .LVU190
 599              		.thumb
 600              		.syntax unified
 601              	.LBE138:
 602              	.LBE137:
 603              	.LBE136:
 604              	.LBE135:
 605              	.LBE134:
 606              		.loc 1 200 3 is_stmt 1 view .LVU191
 607              		.loc 1 201 1 is_stmt 0 view .LVU192
 608 0012 08BD     		pop	{r3, pc}
 609              		.cfi_endproc
 610              	.LFE356:
 611              		.size	chMBPostTimeout, .-chMBPostTimeout
 612              		.section	.text.chMBPostI,"ax",%progbits
 613              		.align	1
 614              		.p2align 2,,3
 615              		.global	chMBPostI
 616              		.syntax unified
 617              		.thumb
 618              		.thumb_func
 619              		.type	chMBPostI, %function
 620              	chMBPostI:
 621              	.LVL39:
 622              	.LFB358:
 623              		.loc 1 270 44 is_stmt 1 view -0
 624              		.cfi_startproc
 625              		@ args = 0, pretend = 0, frame = 0
 626              		@ frame_needed = 0, uses_anonymous_args = 0
 627              		.loc 1 272 21 view .LVU194
ARM GAS  C:\Users\DEVELO~1\AppData\Local\Temp\ccCQBNL2.s 			page 12


 628              		.loc 1 273 3 view .LVU195
 629              		.loc 1 273 3 view .LVU196
 630              		.loc 1 273 3 view .LVU197
 631              		.loc 1 276 3 view .LVU198
 632              		.loc 1 276 6 is_stmt 0 view .LVU199
 633 0000 027D     		ldrb	r2, [r0, #20]	@ zero_extendqisi2
 634 0002 E2B9     		cbnz	r2, .L26
 635              		.loc 1 281 3 is_stmt 1 view .LVU200
 636              	.LVL40:
 637              	.LBB139:
 638              	.LBI139:
 639              		.loc 5 168 22 view .LVU201
 640              		.loc 5 170 21 view .LVU202
 641              		.loc 5 172 3 view .LVU203
 642              	.LBB140:
 643              	.LBI140:
 644              		.loc 5 137 22 view .LVU204
 645              	.LBB141:
 646              		.loc 5 141 3 view .LVU205
 647 0004 0346     		mov	r3, r0
 648              	.LBE141:
 649              	.LBE140:
 650              	.LBE139:
 651              		.loc 1 270 44 is_stmt 0 view .LVU206
 652 0006 70B5     		push	{r4, r5, r6, lr}
 653              		.cfi_def_cfa_offset 16
 654              		.cfi_offset 4, -16
 655              		.cfi_offset 5, -12
 656              		.cfi_offset 6, -8
 657              		.cfi_offset 14, -4
 658              	.LBB148:
 659              	.LBB144:
 660              	.LBB142:
 661              		.loc 5 141 33 view .LVU207
 662 0008 D0E90040 		ldrd	r4, r0, [r0]
 663              	.LVL41:
 664              		.loc 5 141 33 view .LVU208
 665              	.LBE142:
 666              	.LBE144:
 667              	.LBB145:
 668              	.LBI145:
 669              		.loc 5 153 22 is_stmt 1 view .LVU209
 670              	.LBB146:
 671              		.loc 5 155 21 view .LVU210
 672              		.loc 5 157 3 view .LVU211
 673              		.loc 5 157 13 is_stmt 0 view .LVU212
 674 000c 1A69     		ldr	r2, [r3, #16]
 675              	.LVL42:
 676              		.loc 5 157 13 view .LVU213
 677              	.LBE146:
 678              	.LBE145:
 679              	.LBB147:
 680              	.LBB143:
 681              		.loc 5 141 28 view .LVU214
 682 000e 051B     		subs	r5, r0, r4
 683              	.LBE143:
 684              	.LBE147:
ARM GAS  C:\Users\DEVELO~1\AppData\Local\Temp\ccCQBNL2.s 			page 13


 685              	.LBE148:
 686              		.loc 1 281 6 view .LVU215
 687 0010 B2EBA50F 		cmp	r2, r5, asr #2
 688 0014 10D0     		beq	.L27
 689              		.loc 1 282 5 is_stmt 1 view .LVU216
 690              		.loc 1 282 9 is_stmt 0 view .LVU217
 691 0016 9E68     		ldr	r6, [r3, #8]
 692              		.loc 1 286 13 view .LVU218
 693 0018 0132     		adds	r2, r2, #1
 694              		.loc 1 282 16 view .LVU219
 695 001a 351D     		adds	r5, r6, #4
 696              		.loc 1 283 8 view .LVU220
 697 001c 8542     		cmp	r5, r0
 698              		.loc 1 282 16 view .LVU221
 699 001e 9D60     		str	r5, [r3, #8]
 700              		.loc 1 282 19 view .LVU222
 701 0020 3160     		str	r1, [r6]
 702              		.loc 1 283 5 is_stmt 1 view .LVU223
 703              		.loc 1 289 5 is_stmt 0 view .LVU224
 704 0022 03F12000 		add	r0, r3, #32
 705              		.loc 1 284 18 view .LVU225
 706 0026 38BF     		it	cc
 707 0028 9C68     		ldrcc	r4, [r3, #8]
 708              		.loc 1 289 5 view .LVU226
 709 002a 0021     		movs	r1, #0
 710              	.LVL43:
 711              		.loc 1 286 13 view .LVU227
 712 002c 1A61     		str	r2, [r3, #16]
 713 002e 9C60     		str	r4, [r3, #8]
 714              	.LVL44:
 715              		.loc 1 286 5 is_stmt 1 view .LVU228
 716              		.loc 1 289 5 view .LVU229
 717 0030 FFF7FEFF 		bl	chThdDequeueNextI
 718              	.LVL45:
 719              		.loc 1 291 5 view .LVU230
 720              		.loc 1 291 12 is_stmt 0 view .LVU231
 721 0034 0020     		movs	r0, #0
 722              		.loc 1 296 1 view .LVU232
 723 0036 70BD     		pop	{r4, r5, r6, pc}
 724              	.LVL46:
 725              	.L27:
 726              		.loc 1 295 10 view .LVU233
 727 0038 4FF0FF30 		mov	r0, #-1
 728              		.loc 1 296 1 view .LVU234
 729 003c 70BD     		pop	{r4, r5, r6, pc}
 730              	.LVL47:
 731              	.L26:
 732              		.cfi_def_cfa_offset 0
 733              		.cfi_restore 4
 734              		.cfi_restore 5
 735              		.cfi_restore 6
 736              		.cfi_restore 14
 737              		.loc 1 277 12 view .LVU235
 738 003e 6FF00100 		mvn	r0, #1
 739              	.LVL48:
 740              		.loc 1 296 1 view .LVU236
 741 0042 7047     		bx	lr
ARM GAS  C:\Users\DEVELO~1\AppData\Local\Temp\ccCQBNL2.s 			page 14


 742              		.cfi_endproc
 743              	.LFE358:
 744              		.size	chMBPostI, .-chMBPostI
 745              		.section	.text.chMBPostAheadTimeoutS,"ax",%progbits
 746              		.align	1
 747              		.p2align 2,,3
 748              		.global	chMBPostAheadTimeoutS
 749              		.syntax unified
 750              		.thumb
 751              		.thumb_func
 752              		.type	chMBPostAheadTimeoutS, %function
 753              	chMBPostAheadTimeoutS:
 754              	.LVL49:
 755              	.LFB360:
 756              		.loc 1 344 79 is_stmt 1 view -0
 757              		.cfi_startproc
 758              		@ args = 0, pretend = 0, frame = 0
 759              		@ frame_needed = 0, uses_anonymous_args = 0
 760              		.loc 1 345 3 view .LVU238
 761              		.loc 1 347 21 view .LVU239
 762              		.loc 1 348 3 view .LVU240
 763              		.loc 1 348 3 view .LVU241
 764              		.loc 1 344 79 is_stmt 0 view .LVU242
 765 0000 2DE9F843 		push	{r3, r4, r5, r6, r7, r8, r9, lr}
 766              		.cfi_def_cfa_offset 32
 767              		.cfi_offset 3, -32
 768              		.cfi_offset 4, -28
 769              		.cfi_offset 5, -24
 770              		.cfi_offset 6, -20
 771              		.cfi_offset 7, -16
 772              		.cfi_offset 8, -12
 773              		.cfi_offset 9, -8
 774              		.cfi_offset 14, -4
 775              		.loc 1 344 79 view .LVU243
 776 0004 0446     		mov	r4, r0
 777 0006 0E46     		mov	r6, r1
 778 0008 9046     		mov	r8, r2
 779              		.loc 1 372 14 view .LVU244
 780 000a 00F11809 		add	r9, r0, #24
 781 000e 09E0     		b	.L37
 782              	.LVL50:
 783              	.L44:
 784              	.LBB149:
 785              	.LBB150:
 786              	.LBB151:
 787              		.loc 5 141 33 view .LVU245
 788 0010 D4E90057 		ldrd	r5, r7, [r4]
 789              	.LVL51:
 790              		.loc 5 141 33 view .LVU246
 791              	.LBE151:
 792              	.LBE150:
 793              	.LBB154:
 794              	.LBI154:
 795              		.loc 5 153 22 is_stmt 1 view .LVU247
 796              	.LBB155:
 797              		.loc 5 155 21 view .LVU248
 798              		.loc 5 157 3 view .LVU249
ARM GAS  C:\Users\DEVELO~1\AppData\Local\Temp\ccCQBNL2.s 			page 15


 799              		.loc 5 157 13 is_stmt 0 view .LVU250
 800 0014 2369     		ldr	r3, [r4, #16]
 801              	.LVL52:
 802              		.loc 5 157 13 view .LVU251
 803              	.LBE155:
 804              	.LBE154:
 805              	.LBB156:
 806              	.LBB152:
 807              		.loc 5 141 28 view .LVU252
 808 0016 7A1B     		subs	r2, r7, r5
 809              	.LBE152:
 810              	.LBE156:
 811              	.LBE149:
 812              		.loc 1 357 8 view .LVU253
 813 0018 B3EBA20F 		cmp	r3, r2, asr #2
 814 001c 0BD1     		bne	.L43
 815              		.loc 1 372 14 view .LVU254
 816 001e FFF7FEFF 		bl	chThdEnqueueTimeoutS
 817              	.LVL53:
 818              		.loc 1 373 19 is_stmt 1 view .LVU255
 819 0022 30B9     		cbnz	r0, .L32
 820              	.LVL54:
 821              	.L37:
 822              		.loc 1 348 3 discriminator 5 view .LVU256
 823              		.loc 1 350 3 discriminator 5 view .LVU257
 824              		.loc 1 352 5 discriminator 5 view .LVU258
 825              		.loc 1 357 5 discriminator 5 view .LVU259
 826              	.LBB158:
 827              	.LBI149:
 828              		.loc 5 168 22 discriminator 5 view .LVU260
 829              		.loc 5 170 21 discriminator 5 view .LVU261
 830              		.loc 5 172 3 discriminator 5 view .LVU262
 831              	.LBB157:
 832              	.LBI150:
 833              		.loc 5 137 22 discriminator 5 view .LVU263
 834              	.LBB153:
 835              		.loc 5 141 3 discriminator 5 view .LVU264
 836              	.LBE153:
 837              	.LBE157:
 838              	.LBE158:
 839              		.loc 1 372 5 discriminator 5 view .LVU265
 840              		.loc 1 352 8 is_stmt 0 discriminator 5 view .LVU266
 841 0024 237D     		ldrb	r3, [r4, #20]	@ zero_extendqisi2
 842              		.loc 1 372 14 discriminator 5 view .LVU267
 843 0026 4146     		mov	r1, r8
 844 0028 4846     		mov	r0, r9
 845              		.loc 1 352 8 discriminator 5 view .LVU268
 846 002a 002B     		cmp	r3, #0
 847 002c F0D0     		beq	.L44
 848              	.LVL55:
 849              		.loc 1 353 14 view .LVU269
 850 002e 6FF00100 		mvn	r0, #1
 851              	.LVL56:
 852              	.L32:
 853              		.loc 1 376 1 view .LVU270
 854 0032 BDE8F883 		pop	{r3, r4, r5, r6, r7, r8, r9, pc}
 855              	.LVL57:
ARM GAS  C:\Users\DEVELO~1\AppData\Local\Temp\ccCQBNL2.s 			page 16


 856              	.L43:
 857              		.loc 1 358 7 is_stmt 1 view .LVU271
 858              		.loc 1 358 11 is_stmt 0 view .LVU272
 859 0036 E268     		ldr	r2, [r4, #12]
 860              		.loc 1 362 15 view .LVU273
 861 0038 0133     		adds	r3, r3, #1
 862              		.loc 1 365 7 view .LVU274
 863 003a 04F12000 		add	r0, r4, #32
 864 003e 0021     		movs	r1, #0
 865              	.LVL58:
 866              		.loc 1 358 11 view .LVU275
 867 0040 043A     		subs	r2, r2, #4
 868              		.loc 1 358 10 view .LVU276
 869 0042 AA42     		cmp	r2, r5
 870              		.loc 1 359 9 is_stmt 1 view .LVU277
 871              		.loc 1 361 7 view .LVU278
 872              		.loc 1 359 31 is_stmt 0 view .LVU279
 873 0044 38BF     		it	cc
 874 0046 3A1F     		subcc	r2, r7, #4
 875              		.loc 1 359 20 view .LVU280
 876 0048 E260     		str	r2, [r4, #12]
 877              		.loc 1 361 19 view .LVU281
 878 004a 1660     		str	r6, [r2]
 879              		.loc 1 362 7 is_stmt 1 view .LVU282
 880              		.loc 1 362 15 is_stmt 0 view .LVU283
 881 004c 2361     		str	r3, [r4, #16]
 882              		.loc 1 365 7 is_stmt 1 view .LVU284
 883 004e FFF7FEFF 		bl	chThdDequeueNextI
 884              	.LVL59:
 885              		.loc 1 366 7 view .LVU285
 886 0052 FFF7FEFF 		bl	chSchRescheduleS
 887              	.LVL60:
 888              		.loc 1 368 7 view .LVU286
 889              		.loc 1 368 14 is_stmt 0 view .LVU287
 890 0056 0020     		movs	r0, #0
 891              		.loc 1 376 1 view .LVU288
 892 0058 BDE8F883 		pop	{r3, r4, r5, r6, r7, r8, r9, pc}
 893              		.loc 1 376 1 view .LVU289
 894              		.cfi_endproc
 895              	.LFE360:
 896              		.size	chMBPostAheadTimeoutS, .-chMBPostAheadTimeoutS
 897              		.section	.text.chMBPostAheadTimeout,"ax",%progbits
 898              		.align	1
 899              		.p2align 2,,3
 900              		.global	chMBPostAheadTimeout
 901              		.syntax unified
 902              		.thumb
 903              		.thumb_func
 904              		.type	chMBPostAheadTimeout, %function
 905              	chMBPostAheadTimeout:
 906              	.LVL61:
 907              	.LFB359:
 908              		.loc 1 316 78 is_stmt 1 view -0
 909              		.cfi_startproc
 910              		@ args = 0, pretend = 0, frame = 0
 911              		@ frame_needed = 0, uses_anonymous_args = 0
 912              		.loc 1 317 3 view .LVU291
ARM GAS  C:\Users\DEVELO~1\AppData\Local\Temp\ccCQBNL2.s 			page 17


 913              		.loc 1 319 3 view .LVU292
 914              	.LBB159:
 915              	.LBI159:
 916              		.loc 2 372 20 view .LVU293
 917              		.loc 2 374 3 view .LVU294
 918              	.LBB160:
 919              	.LBI160:
 920              		.loc 3 840 27 view .LVU295
 921              		.loc 3 848 3 view .LVU296
 922              	.LBB161:
 923              	.LBI161:
 924              		.loc 4 491 27 view .LVU297
 925              	.LBB162:
 926              		.loc 4 493 3 view .LVU298
 927              	.LBE162:
 928              	.LBE161:
 929              	.LBE160:
 930              	.LBE159:
 931              		.loc 1 316 78 is_stmt 0 view .LVU299
 932 0000 08B5     		push	{r3, lr}
 933              		.cfi_def_cfa_offset 8
 934              		.cfi_offset 3, -8
 935              		.cfi_offset 14, -4
 936              	.LBB166:
 937              	.LBB165:
 938              	.LBB164:
 939              	.LBB163:
 940              		.loc 4 493 3 view .LVU300
 941 0002 3023     		movs	r3, #48
 942              		.syntax unified
 943              	@ 493 "./docs/ChibiOS/os/common/ext/ARM/CMSIS/Core/Include/cmsis_gcc.h" 1
 944 0004 83F31188 		MSR basepri, r3
 945              	@ 0 "" 2
 946              	.LVL62:
 947              		.loc 4 493 3 view .LVU301
 948              		.thumb
 949              		.syntax unified
 950              	.LBE163:
 951              	.LBE164:
 952              	.LBE165:
 953              		.loc 2 375 35 is_stmt 1 view .LVU302
 954              		.loc 2 376 21 view .LVU303
 955              	.LBE166:
 956              		.loc 1 320 3 view .LVU304
 957              		.loc 1 320 12 is_stmt 0 view .LVU305
 958 0008 FFF7FEFF 		bl	chMBPostAheadTimeoutS
 959              	.LVL63:
 960              		.loc 1 321 3 is_stmt 1 view .LVU306
 961              	.LBB167:
 962              	.LBI167:
 963              		.loc 2 386 20 view .LVU307
 964              	.LBB168:
 965              		.loc 2 388 23 view .LVU308
 966              		.loc 2 389 34 view .LVU309
 967              		.loc 2 395 3 view .LVU310
 968              		.loc 2 395 3 view .LVU311
 969              		.loc 2 395 3 view .LVU312
ARM GAS  C:\Users\DEVELO~1\AppData\Local\Temp\ccCQBNL2.s 			page 18


 970              		.loc 2 399 3 view .LVU313
 971              	.LBB169:
 972              	.LBI169:
 973              		.loc 3 864 27 view .LVU314
 974              		.loc 3 867 3 view .LVU315
 975              	.LBB170:
 976              	.LBI170:
 977              		.loc 4 491 27 view .LVU316
 978              	.LBB171:
 979              		.loc 4 493 3 view .LVU317
 980 000c 0023     		movs	r3, #0
 981              		.syntax unified
 982              	@ 493 "./docs/ChibiOS/os/common/ext/ARM/CMSIS/Core/Include/cmsis_gcc.h" 1
 983 000e 83F31188 		MSR basepri, r3
 984              	@ 0 "" 2
 985              	.LVL64:
 986              		.loc 4 493 3 is_stmt 0 view .LVU318
 987              		.thumb
 988              		.syntax unified
 989              	.LBE171:
 990              	.LBE170:
 991              	.LBE169:
 992              	.LBE168:
 993              	.LBE167:
 994              		.loc 1 323 3 is_stmt 1 view .LVU319
 995              		.loc 1 324 1 is_stmt 0 view .LVU320
 996 0012 08BD     		pop	{r3, pc}
 997              		.cfi_endproc
 998              	.LFE359:
 999              		.size	chMBPostAheadTimeout, .-chMBPostAheadTimeout
 1000              		.section	.text.chMBPostAheadI,"ax",%progbits
 1001              		.align	1
 1002              		.p2align 2,,3
 1003              		.global	chMBPostAheadI
 1004              		.syntax unified
 1005              		.thumb
 1006              		.thumb_func
 1007              		.type	chMBPostAheadI, %function
 1008              	chMBPostAheadI:
 1009              	.LVL65:
 1010              	.LFB361:
 1011              		.loc 1 393 49 is_stmt 1 view -0
 1012              		.cfi_startproc
 1013              		@ args = 0, pretend = 0, frame = 0
 1014              		@ frame_needed = 0, uses_anonymous_args = 0
 1015              		.loc 1 395 21 view .LVU322
 1016              		.loc 1 396 3 view .LVU323
 1017              		.loc 1 396 3 view .LVU324
 1018              		.loc 1 396 3 view .LVU325
 1019              		.loc 1 399 3 view .LVU326
 1020              		.loc 1 399 6 is_stmt 0 view .LVU327
 1021 0000 027D     		ldrb	r2, [r0, #20]	@ zero_extendqisi2
 1022 0002 E2B9     		cbnz	r2, .L51
 1023              		.loc 1 404 3 is_stmt 1 view .LVU328
 1024              	.LVL66:
 1025              	.LBB172:
 1026              	.LBI172:
ARM GAS  C:\Users\DEVELO~1\AppData\Local\Temp\ccCQBNL2.s 			page 19


 1027              		.loc 5 168 22 view .LVU329
 1028              		.loc 5 170 21 view .LVU330
 1029              		.loc 5 172 3 view .LVU331
 1030              	.LBB173:
 1031              	.LBI173:
 1032              		.loc 5 137 22 view .LVU332
 1033              	.LBB174:
 1034              		.loc 5 141 3 view .LVU333
 1035              	.LBE174:
 1036              	.LBE173:
 1037              	.LBE172:
 1038              		.loc 1 393 49 is_stmt 0 view .LVU334
 1039 0004 38B5     		push	{r3, r4, r5, lr}
 1040              		.cfi_def_cfa_offset 16
 1041              		.cfi_offset 3, -16
 1042              		.cfi_offset 4, -12
 1043              		.cfi_offset 5, -8
 1044              		.cfi_offset 14, -4
 1045              	.LBB181:
 1046              	.LBB177:
 1047              	.LBB175:
 1048              		.loc 5 141 33 view .LVU335
 1049 0006 D0E90045 		ldrd	r4, r5, [r0]
 1050              	.LVL67:
 1051              		.loc 5 141 33 view .LVU336
 1052              	.LBE175:
 1053              	.LBE177:
 1054              	.LBB178:
 1055              	.LBI178:
 1056              		.loc 5 153 22 is_stmt 1 view .LVU337
 1057              	.LBB179:
 1058              		.loc 5 155 21 view .LVU338
 1059              		.loc 5 157 3 view .LVU339
 1060 000a 0346     		mov	r3, r0
 1061              		.loc 5 157 13 is_stmt 0 view .LVU340
 1062 000c 0069     		ldr	r0, [r0, #16]
 1063              	.LVL68:
 1064              		.loc 5 157 13 view .LVU341
 1065              	.LBE179:
 1066              	.LBE178:
 1067              	.LBB180:
 1068              	.LBB176:
 1069              		.loc 5 141 28 view .LVU342
 1070 000e 2A1B     		subs	r2, r5, r4
 1071              	.LBE176:
 1072              	.LBE180:
 1073              	.LBE181:
 1074              		.loc 1 404 6 view .LVU343
 1075 0010 B0EBA20F 		cmp	r0, r2, asr #2
 1076 0014 10D0     		beq	.L52
 1077              		.loc 1 405 5 is_stmt 1 view .LVU344
 1078              		.loc 1 405 9 is_stmt 0 view .LVU345
 1079 0016 DA68     		ldr	r2, [r3, #12]
 1080 0018 043A     		subs	r2, r2, #4
 1081              		.loc 1 405 8 view .LVU346
 1082 001a A242     		cmp	r2, r4
 1083              		.loc 1 406 7 is_stmt 1 view .LVU347
ARM GAS  C:\Users\DEVELO~1\AppData\Local\Temp\ccCQBNL2.s 			page 20


 1084              		.loc 1 408 5 view .LVU348
 1085              		.loc 1 409 13 is_stmt 0 view .LVU349
 1086 001c 00F10104 		add	r4, r0, #1
 1087              		.loc 1 412 5 view .LVU350
 1088 0020 03F12000 		add	r0, r3, #32
 1089              		.loc 1 406 29 view .LVU351
 1090 0024 38BF     		it	cc
 1091 0026 2A1F     		subcc	r2, r5, #4
 1092              		.loc 1 406 18 view .LVU352
 1093 0028 DA60     		str	r2, [r3, #12]
 1094              		.loc 1 408 17 view .LVU353
 1095 002a 1160     		str	r1, [r2]
 1096              		.loc 1 409 5 is_stmt 1 view .LVU354
 1097              		.loc 1 412 5 is_stmt 0 view .LVU355
 1098 002c 0021     		movs	r1, #0
 1099              	.LVL69:
 1100              		.loc 1 409 13 view .LVU356
 1101 002e 1C61     		str	r4, [r3, #16]
 1102              		.loc 1 412 5 is_stmt 1 view .LVU357
 1103 0030 FFF7FEFF 		bl	chThdDequeueNextI
 1104              	.LVL70:
 1105              		.loc 1 414 5 view .LVU358
 1106              		.loc 1 414 12 is_stmt 0 view .LVU359
 1107 0034 0020     		movs	r0, #0
 1108              		.loc 1 419 1 view .LVU360
 1109 0036 38BD     		pop	{r3, r4, r5, pc}
 1110              	.LVL71:
 1111              	.L52:
 1112              		.loc 1 418 10 view .LVU361
 1113 0038 4FF0FF30 		mov	r0, #-1
 1114              		.loc 1 419 1 view .LVU362
 1115 003c 38BD     		pop	{r3, r4, r5, pc}
 1116              	.LVL72:
 1117              	.L51:
 1118              		.cfi_def_cfa_offset 0
 1119              		.cfi_restore 3
 1120              		.cfi_restore 4
 1121              		.cfi_restore 5
 1122              		.cfi_restore 14
 1123              		.loc 1 400 12 view .LVU363
 1124 003e 6FF00100 		mvn	r0, #1
 1125              	.LVL73:
 1126              		.loc 1 419 1 view .LVU364
 1127 0042 7047     		bx	lr
 1128              		.cfi_endproc
 1129              	.LFE361:
 1130              		.size	chMBPostAheadI, .-chMBPostAheadI
 1131              		.section	.text.chMBFetchTimeoutS,"ax",%progbits
 1132              		.align	1
 1133              		.p2align 2,,3
 1134              		.global	chMBFetchTimeoutS
 1135              		.syntax unified
 1136              		.thumb
 1137              		.thumb_func
 1138              		.type	chMBFetchTimeoutS, %function
 1139              	chMBFetchTimeoutS:
 1140              	.LVL74:
ARM GAS  C:\Users\DEVELO~1\AppData\Local\Temp\ccCQBNL2.s 			page 21


 1141              	.LFB363:
 1142              		.loc 1 467 77 is_stmt 1 view -0
 1143              		.cfi_startproc
 1144              		@ args = 0, pretend = 0, frame = 0
 1145              		@ frame_needed = 0, uses_anonymous_args = 0
 1146              		.loc 1 468 3 view .LVU366
 1147              		.loc 1 470 21 view .LVU367
 1148              		.loc 1 471 3 view .LVU368
 1149              		.loc 1 471 3 view .LVU369
 1150              		.loc 1 467 77 is_stmt 0 view .LVU370
 1151 0000 F8B5     		push	{r3, r4, r5, r6, r7, lr}
 1152              		.cfi_def_cfa_offset 24
 1153              		.cfi_offset 3, -24
 1154              		.cfi_offset 4, -20
 1155              		.cfi_offset 5, -16
 1156              		.cfi_offset 6, -12
 1157              		.cfi_offset 7, -8
 1158              		.cfi_offset 14, -4
 1159              		.loc 1 467 77 view .LVU371
 1160 0002 0446     		mov	r4, r0
 1161 0004 0E46     		mov	r6, r1
 1162 0006 1546     		mov	r5, r2
 1163              		.loc 1 495 14 view .LVU372
 1164 0008 00F12007 		add	r7, r0, #32
 1165 000c 04E0     		b	.L62
 1166              	.LVL75:
 1167              	.L68:
 1168              	.LBB182:
 1169              	.LBB183:
 1170              		.loc 5 157 13 view .LVU373
 1171 000e 2369     		ldr	r3, [r4, #16]
 1172              	.LVL76:
 1173              		.loc 5 157 13 view .LVU374
 1174              	.LBE183:
 1175              	.LBE182:
 1176              		.loc 1 480 8 view .LVU375
 1177 0010 53B9     		cbnz	r3, .L67
 1178              		.loc 1 495 14 view .LVU376
 1179 0012 FFF7FEFF 		bl	chThdEnqueueTimeoutS
 1180              	.LVL77:
 1181              		.loc 1 496 19 is_stmt 1 view .LVU377
 1182 0016 30B9     		cbnz	r0, .L58
 1183              	.LVL78:
 1184              	.L62:
 1185              		.loc 1 471 3 discriminator 5 view .LVU378
 1186              		.loc 1 473 3 discriminator 5 view .LVU379
 1187              		.loc 1 475 5 discriminator 5 view .LVU380
 1188              		.loc 1 480 5 discriminator 5 view .LVU381
 1189              	.LBB185:
 1190              	.LBI182:
 1191              		.loc 5 153 22 discriminator 5 view .LVU382
 1192              	.LBB184:
 1193              		.loc 5 155 21 discriminator 5 view .LVU383
 1194              		.loc 5 157 3 discriminator 5 view .LVU384
 1195              	.LBE184:
 1196              	.LBE185:
 1197              		.loc 1 495 5 discriminator 5 view .LVU385
ARM GAS  C:\Users\DEVELO~1\AppData\Local\Temp\ccCQBNL2.s 			page 22


 1198              		.loc 1 475 8 is_stmt 0 discriminator 5 view .LVU386
 1199 0018 237D     		ldrb	r3, [r4, #20]	@ zero_extendqisi2
 1200              		.loc 1 495 14 discriminator 5 view .LVU387
 1201 001a 2946     		mov	r1, r5
 1202 001c 3846     		mov	r0, r7
 1203              		.loc 1 475 8 discriminator 5 view .LVU388
 1204 001e 002B     		cmp	r3, #0
 1205 0020 F5D0     		beq	.L68
 1206              	.LVL79:
 1207              		.loc 1 476 14 view .LVU389
 1208 0022 6FF00100 		mvn	r0, #1
 1209              	.LVL80:
 1210              	.L58:
 1211              		.loc 1 499 1 view .LVU390
 1212 0026 F8BD     		pop	{r3, r4, r5, r6, r7, pc}
 1213              	.LVL81:
 1214              	.L67:
 1215              		.loc 1 481 7 is_stmt 1 view .LVU391
 1216              		.loc 1 481 19 is_stmt 0 view .LVU392
 1217 0028 E168     		ldr	r1, [r4, #12]
 1218              	.LVL82:
 1219              		.loc 1 481 26 view .LVU393
 1220 002a 0A1D     		adds	r2, r1, #4
 1221              		.loc 1 481 15 view .LVU394
 1222 002c 0968     		ldr	r1, [r1]
 1223              		.loc 1 481 26 view .LVU395
 1224 002e E260     		str	r2, [r4, #12]
 1225              		.loc 1 481 13 view .LVU396
 1226 0030 3160     		str	r1, [r6]
 1227              		.loc 1 482 7 is_stmt 1 view .LVU397
 1228              		.loc 1 482 10 is_stmt 0 view .LVU398
 1229 0032 6168     		ldr	r1, [r4, #4]
 1230 0034 8A42     		cmp	r2, r1
 1231 0036 01D3     		bcc	.L61
 1232              		.loc 1 483 9 is_stmt 1 view .LVU399
 1233              		.loc 1 483 20 is_stmt 0 view .LVU400
 1234 0038 2268     		ldr	r2, [r4]
 1235 003a E260     		str	r2, [r4, #12]
 1236              	.L61:
 1237              		.loc 1 485 7 is_stmt 1 view .LVU401
 1238              		.loc 1 485 15 is_stmt 0 view .LVU402
 1239 003c 013B     		subs	r3, r3, #1
 1240              		.loc 1 488 7 view .LVU403
 1241 003e 04F11800 		add	r0, r4, #24
 1242 0042 0021     		movs	r1, #0
 1243              		.loc 1 485 15 view .LVU404
 1244 0044 2361     		str	r3, [r4, #16]
 1245              		.loc 1 488 7 is_stmt 1 view .LVU405
 1246 0046 FFF7FEFF 		bl	chThdDequeueNextI
 1247              	.LVL83:
 1248              		.loc 1 489 7 view .LVU406
 1249 004a FFF7FEFF 		bl	chSchRescheduleS
 1250              	.LVL84:
 1251              		.loc 1 491 7 view .LVU407
 1252              		.loc 1 491 14 is_stmt 0 view .LVU408
 1253 004e 0020     		movs	r0, #0
 1254              		.loc 1 499 1 view .LVU409
ARM GAS  C:\Users\DEVELO~1\AppData\Local\Temp\ccCQBNL2.s 			page 23


 1255 0050 F8BD     		pop	{r3, r4, r5, r6, r7, pc}
 1256              		.loc 1 499 1 view .LVU410
 1257              		.cfi_endproc
 1258              	.LFE363:
 1259              		.size	chMBFetchTimeoutS, .-chMBFetchTimeoutS
 1260 0052 00BF     		.section	.text.chMBFetchTimeout,"ax",%progbits
 1261              		.align	1
 1262              		.p2align 2,,3
 1263              		.global	chMBFetchTimeout
 1264              		.syntax unified
 1265              		.thumb
 1266              		.thumb_func
 1267              		.type	chMBFetchTimeout, %function
 1268              	chMBFetchTimeout:
 1269              	.LVL85:
 1270              	.LFB362:
 1271              		.loc 1 439 76 is_stmt 1 view -0
 1272              		.cfi_startproc
 1273              		@ args = 0, pretend = 0, frame = 0
 1274              		@ frame_needed = 0, uses_anonymous_args = 0
 1275              		.loc 1 440 3 view .LVU412
 1276              		.loc 1 442 3 view .LVU413
 1277              	.LBB186:
 1278              	.LBI186:
 1279              		.loc 2 372 20 view .LVU414
 1280              		.loc 2 374 3 view .LVU415
 1281              	.LBB187:
 1282              	.LBI187:
 1283              		.loc 3 840 27 view .LVU416
 1284              		.loc 3 848 3 view .LVU417
 1285              	.LBB188:
 1286              	.LBI188:
 1287              		.loc 4 491 27 view .LVU418
 1288              	.LBB189:
 1289              		.loc 4 493 3 view .LVU419
 1290              	.LBE189:
 1291              	.LBE188:
 1292              	.LBE187:
 1293              	.LBE186:
 1294              		.loc 1 439 76 is_stmt 0 view .LVU420
 1295 0000 08B5     		push	{r3, lr}
 1296              		.cfi_def_cfa_offset 8
 1297              		.cfi_offset 3, -8
 1298              		.cfi_offset 14, -4
 1299              	.LBB193:
 1300              	.LBB192:
 1301              	.LBB191:
 1302              	.LBB190:
 1303              		.loc 4 493 3 view .LVU421
 1304 0002 3023     		movs	r3, #48
 1305              		.syntax unified
 1306              	@ 493 "./docs/ChibiOS/os/common/ext/ARM/CMSIS/Core/Include/cmsis_gcc.h" 1
 1307 0004 83F31188 		MSR basepri, r3
 1308              	@ 0 "" 2
 1309              	.LVL86:
 1310              		.loc 4 493 3 view .LVU422
 1311              		.thumb
ARM GAS  C:\Users\DEVELO~1\AppData\Local\Temp\ccCQBNL2.s 			page 24


 1312              		.syntax unified
 1313              	.LBE190:
 1314              	.LBE191:
 1315              	.LBE192:
 1316              		.loc 2 375 35 is_stmt 1 view .LVU423
 1317              		.loc 2 376 21 view .LVU424
 1318              	.LBE193:
 1319              		.loc 1 443 3 view .LVU425
 1320              		.loc 1 443 12 is_stmt 0 view .LVU426
 1321 0008 FFF7FEFF 		bl	chMBFetchTimeoutS
 1322              	.LVL87:
 1323              		.loc 1 444 3 is_stmt 1 view .LVU427
 1324              	.LBB194:
 1325              	.LBI194:
 1326              		.loc 2 386 20 view .LVU428
 1327              	.LBB195:
 1328              		.loc 2 388 23 view .LVU429
 1329              		.loc 2 389 34 view .LVU430
 1330              		.loc 2 395 3 view .LVU431
 1331              		.loc 2 395 3 view .LVU432
 1332              		.loc 2 395 3 view .LVU433
 1333              		.loc 2 399 3 view .LVU434
 1334              	.LBB196:
 1335              	.LBI196:
 1336              		.loc 3 864 27 view .LVU435
 1337              		.loc 3 867 3 view .LVU436
 1338              	.LBB197:
 1339              	.LBI197:
 1340              		.loc 4 491 27 view .LVU437
 1341              	.LBB198:
 1342              		.loc 4 493 3 view .LVU438
 1343 000c 0023     		movs	r3, #0
 1344              		.syntax unified
 1345              	@ 493 "./docs/ChibiOS/os/common/ext/ARM/CMSIS/Core/Include/cmsis_gcc.h" 1
 1346 000e 83F31188 		MSR basepri, r3
 1347              	@ 0 "" 2
 1348              	.LVL88:
 1349              		.loc 4 493 3 is_stmt 0 view .LVU439
 1350              		.thumb
 1351              		.syntax unified
 1352              	.LBE198:
 1353              	.LBE197:
 1354              	.LBE196:
 1355              	.LBE195:
 1356              	.LBE194:
 1357              		.loc 1 446 3 is_stmt 1 view .LVU440
 1358              		.loc 1 447 1 is_stmt 0 view .LVU441
 1359 0012 08BD     		pop	{r3, pc}
 1360              		.cfi_endproc
 1361              	.LFE362:
 1362              		.size	chMBFetchTimeout, .-chMBFetchTimeout
 1363              		.section	.text.chMBFetchI,"ax",%progbits
 1364              		.align	1
 1365              		.p2align 2,,3
 1366              		.global	chMBFetchI
 1367              		.syntax unified
 1368              		.thumb
ARM GAS  C:\Users\DEVELO~1\AppData\Local\Temp\ccCQBNL2.s 			page 25


 1369              		.thumb_func
 1370              		.type	chMBFetchI, %function
 1371              	chMBFetchI:
 1372              	.LVL89:
 1373              	.LFB364:
 1374              		.loc 1 516 47 is_stmt 1 view -0
 1375              		.cfi_startproc
 1376              		@ args = 0, pretend = 0, frame = 0
 1377              		@ frame_needed = 0, uses_anonymous_args = 0
 1378              		.loc 1 518 21 view .LVU443
 1379              		.loc 1 519 3 view .LVU444
 1380              		.loc 1 519 3 view .LVU445
 1381              		.loc 1 519 3 view .LVU446
 1382              		.loc 1 522 3 view .LVU447
 1383              		.loc 1 522 6 is_stmt 0 view .LVU448
 1384 0000 027D     		ldrb	r2, [r0, #20]	@ zero_extendqisi2
 1385 0002 CAB9     		cbnz	r2, .L74
 1386              		.loc 1 527 3 is_stmt 1 view .LVU449
 1387              	.LVL90:
 1388              	.LBB199:
 1389              	.LBI199:
 1390              		.loc 5 153 22 view .LVU450
 1391              	.LBB200:
 1392              		.loc 5 155 21 view .LVU451
 1393              		.loc 5 157 3 view .LVU452
 1394              		.loc 5 157 13 is_stmt 0 view .LVU453
 1395 0004 0269     		ldr	r2, [r0, #16]
 1396              	.LVL91:
 1397              		.loc 5 157 13 view .LVU454
 1398 0006 0346     		mov	r3, r0
 1399              	.LBE200:
 1400              	.LBE199:
 1401              		.loc 1 527 6 view .LVU455
 1402 0008 9AB1     		cbz	r2, .L75
 1403              		.loc 1 528 5 is_stmt 1 view .LVU456
 1404              		.loc 1 516 47 is_stmt 0 view .LVU457
 1405 000a 10B5     		push	{r4, lr}
 1406              		.cfi_def_cfa_offset 8
 1407              		.cfi_offset 4, -8
 1408              		.cfi_offset 14, -4
 1409              		.loc 1 528 17 view .LVU458
 1410 000c C468     		ldr	r4, [r0, #12]
 1411              		.loc 1 528 24 view .LVU459
 1412 000e 201D     		adds	r0, r4, #4
 1413              	.LVL92:
 1414              		.loc 1 528 13 view .LVU460
 1415 0010 2468     		ldr	r4, [r4]
 1416              		.loc 1 528 24 view .LVU461
 1417 0012 D860     		str	r0, [r3, #12]
 1418              		.loc 1 528 11 view .LVU462
 1419 0014 0C60     		str	r4, [r1]
 1420              		.loc 1 529 5 is_stmt 1 view .LVU463
 1421              		.loc 1 529 8 is_stmt 0 view .LVU464
 1422 0016 5968     		ldr	r1, [r3, #4]
 1423              	.LVL93:
 1424              		.loc 1 529 8 view .LVU465
 1425 0018 8842     		cmp	r0, r1
ARM GAS  C:\Users\DEVELO~1\AppData\Local\Temp\ccCQBNL2.s 			page 26


 1426 001a 01D3     		bcc	.L73
 1427              		.loc 1 530 7 is_stmt 1 view .LVU466
 1428              		.loc 1 530 18 is_stmt 0 view .LVU467
 1429 001c 1968     		ldr	r1, [r3]
 1430 001e D960     		str	r1, [r3, #12]
 1431              	.L73:
 1432              		.loc 1 532 5 is_stmt 1 view .LVU468
 1433              		.loc 1 532 13 is_stmt 0 view .LVU469
 1434 0020 013A     		subs	r2, r2, #1
 1435              		.loc 1 535 5 view .LVU470
 1436 0022 03F11800 		add	r0, r3, #24
 1437 0026 0021     		movs	r1, #0
 1438              		.loc 1 532 13 view .LVU471
 1439 0028 1A61     		str	r2, [r3, #16]
 1440              		.loc 1 535 5 is_stmt 1 view .LVU472
 1441 002a FFF7FEFF 		bl	chThdDequeueNextI
 1442              	.LVL94:
 1443              		.loc 1 537 5 view .LVU473
 1444              		.loc 1 537 12 is_stmt 0 view .LVU474
 1445 002e 0020     		movs	r0, #0
 1446              		.loc 1 542 1 view .LVU475
 1447 0030 10BD     		pop	{r4, pc}
 1448              	.LVL95:
 1449              	.L75:
 1450              		.cfi_def_cfa_offset 0
 1451              		.cfi_restore 4
 1452              		.cfi_restore 14
 1453              		.loc 1 541 10 view .LVU476
 1454 0032 4FF0FF30 		mov	r0, #-1
 1455              	.LVL96:
 1456              		.loc 1 542 1 view .LVU477
 1457 0036 7047     		bx	lr
 1458              	.LVL97:
 1459              	.L74:
 1460              		.loc 1 523 12 view .LVU478
 1461 0038 6FF00100 		mvn	r0, #1
 1462              	.LVL98:
 1463              		.loc 1 523 12 view .LVU479
 1464 003c 7047     		bx	lr
 1465              		.cfi_endproc
 1466              	.LFE364:
 1467              		.size	chMBFetchI, .-chMBFetchI
 1468 003e 00BF     		.text
 1469              	.Letext0:
 1470              		.file 6 "c:\\chibistudio\\tools\\gnu tools arm embedded\\11.3 2022.08\\lib\\gcc\\arm-none-eabi\\11
 1471              		.file 7 "c:\\chibistudio\\tools\\gnu tools arm embedded\\11.3 2022.08\\arm-none-eabi\\include\\mac
 1472              		.file 8 "c:\\chibistudio\\tools\\gnu tools arm embedded\\11.3 2022.08\\arm-none-eabi\\include\\sys
 1473              		.file 9 "./docs/ChibiOS/os/rt/include/chearly.h"
 1474              		.file 10 "./docs/ChibiOS/os/rt/include/chtime.h"
 1475              		.file 11 "./docs/ChibiOS/os/rt/include/chlists.h"
 1476              		.file 12 "./docs/ChibiOS/os/rt/include/chobjects.h"
 1477              		.file 13 "./docs/ChibiOS/os/rt/include/chthreads.h"
 1478              		.file 14 "./docs/ChibiOS/os/rt/include/chschd.h"