ARM GAS  C:\Users\DEVELO~1\AppData\Local\Temp\ccbUxIoi.s 			page 1


   1              		.cpu cortex-m7
   2              		.arch armv7e-m
   3              		.fpu fpv5-d16
   4              		.eabi_attribute 28, 1
   5              		.eabi_attribute 20, 1
   6              		.eabi_attribute 21, 1
   7              		.eabi_attribute 23, 3
   8              		.eabi_attribute 24, 1
   9              		.eabi_attribute 25, 1
  10              		.eabi_attribute 26, 1
  11              		.eabi_attribute 30, 2
  12              		.eabi_attribute 34, 1
  13              		.eabi_attribute 18, 4
  14              		.file	"chmempools.c"
  15              		.text
  16              	.Ltext0:
  17              		.cfi_sections	.debug_frame
  18              		.section	.text.chPoolObjectInitAligned,"ax",%progbits
  19              		.align	1
  20              		.p2align 2,,3
  21              		.global	chPoolObjectInitAligned
  22              		.syntax unified
  23              		.thumb
  24              		.thumb_func
  25              		.type	chPoolObjectInitAligned, %function
  26              	chPoolObjectInitAligned:
  27              	.LVL0:
  28              	.LFB352:
  29              		.file 1 "../../../os/oslib/src/chmempools.c"
  30              		.loc 1 80 69 view -0
  31              		.cfi_startproc
  32              		@ args = 0, pretend = 0, frame = 0
  33              		@ frame_needed = 0, uses_anonymous_args = 0
  34              		@ link register save eliminated.
  35              		.loc 1 82 3 view .LVU1
  36              		.loc 1 82 3 view .LVU2
  37              		.loc 1 82 3 view .LVU3
  38              		.loc 1 87 3 view .LVU4
  39              		.loc 1 80 69 is_stmt 0 view .LVU5
  40 0000 10B4     		push	{r4}
  41              		.cfi_def_cfa_offset 4
  42              		.cfi_offset 4, -4
  43              		.loc 1 87 12 view .LVU6
  44 0002 0024     		movs	r4, #0
  45              		.loc 1 90 16 view .LVU7
  46 0004 C0E90223 		strd	r2, r3, [r0, #8]
  47              		.loc 1 87 12 view .LVU8
  48 0008 C0E90041 		strd	r4, r1, [r0]
  49              		.loc 1 88 3 is_stmt 1 view .LVU9
  50              		.loc 1 89 3 view .LVU10
  51              		.loc 1 91 1 is_stmt 0 view .LVU11
  52 000c 5DF8044B 		ldr	r4, [sp], #4
  53              		.cfi_restore 4
  54              		.cfi_def_cfa_offset 0
  55 0010 7047     		bx	lr
  56              		.cfi_endproc
  57              	.LFE352:
ARM GAS  C:\Users\DEVELO~1\AppData\Local\Temp\ccbUxIoi.s 			page 2


  58              		.size	chPoolObjectInitAligned, .-chPoolObjectInitAligned
  59 0012 00BF     		.section	.text.chPoolObjectDispose,"ax",%progbits
  60              		.align	1
  61              		.p2align 2,,3
  62              		.global	chPoolObjectDispose
  63              		.syntax unified
  64              		.thumb
  65              		.thumb_func
  66              		.type	chPoolObjectDispose, %function
  67              	chPoolObjectDispose:
  68              	.LVL1:
  69              	.LFB353:
  70              		.loc 1 108 45 is_stmt 1 view -0
  71              		.cfi_startproc
  72              		@ args = 0, pretend = 0, frame = 0
  73              		@ frame_needed = 0, uses_anonymous_args = 0
  74              		@ link register save eliminated.
  75              		.loc 1 110 3 view .LVU13
  76              		.loc 1 110 3 view .LVU14
  77              		.loc 1 110 3 view .LVU15
  78              		.loc 1 115 1 is_stmt 0 view .LVU16
  79 0000 7047     		bx	lr
  80              		.cfi_endproc
  81              	.LFE353:
  82              		.size	chPoolObjectDispose, .-chPoolObjectDispose
  83 0002 00BF     		.section	.text.chPoolLoadArray,"ax",%progbits
  84              		.align	1
  85              		.p2align 2,,3
  86              		.global	chPoolLoadArray
  87              		.syntax unified
  88              		.thumb
  89              		.thumb_func
  90              		.type	chPoolLoadArray, %function
  91              	chPoolLoadArray:
  92              	.LVL2:
  93              	.LFB354:
  94              		.loc 1 132 60 is_stmt 1 view -0
  95              		.cfi_startproc
  96              		@ args = 0, pretend = 0, frame = 0
  97              		@ frame_needed = 0, uses_anonymous_args = 0
  98              		.loc 1 134 3 view .LVU18
  99              		.loc 1 134 3 view .LVU19
 100              		.loc 1 134 3 view .LVU20
 101              		.loc 1 136 3 view .LVU21
 102              		.loc 1 136 12 view .LVU22
 103 0000 8AB1     		cbz	r2, .L13
 104              	.LBB95:
 105              	.LBB96:
 106              	.LBB97:
 107              	.LBB98:
 108              	.LBB99:
 109              	.LBB100:
 110              	.LBB101:
 111              		.file 2 "../../../os/common/ext/ARM/CMSIS/Core/Include/cmsis_gcc.h"
 112              		.loc 2 493 3 is_stmt 0 view .LVU23
 113 0002 4FF0000C 		mov	ip, #0
 114              	.LBE101:
ARM GAS  C:\Users\DEVELO~1\AppData\Local\Temp\ccbUxIoi.s 			page 3


 115              	.LBE100:
 116              	.LBE99:
 117              	.LBE98:
 118              	.LBE97:
 119              	.LBE96:
 120              	.LBE95:
 121              		.loc 1 132 60 view .LVU24
 122 0006 00B5     		push	{lr}
 123              		.cfi_def_cfa_offset 4
 124              		.cfi_offset 14, -4
 125              	.LBB119:
 126              	.LBB117:
 127              	.LBB106:
 128              	.LBB107:
 129              	.LBB108:
 130              	.LBB109:
 131              		.loc 2 493 3 view .LVU25
 132 0008 4FF0300E 		mov	lr, #48
 133              	.LVL3:
 134              	.L7:
 135              		.loc 2 493 3 view .LVU26
 136              	.LBE109:
 137              	.LBE108:
 138              	.LBE107:
 139              	.LBE106:
 140              	.LBE117:
 141              	.LBE119:
 142              		.loc 1 137 5 is_stmt 1 view .LVU27
 143              	.LBB120:
 144              	.LBI95:
 145              		.file 3 "../../../os/oslib/include/chmempools.h"
 146              		.loc 3 212 20 view .LVU28
 147              		.loc 3 214 3 view .LVU29
 148              	.LBB118:
 149              	.LBI96:
 150              		.loc 1 233 6 view .LVU30
 151              		.loc 1 235 3 view .LVU31
 152              	.LBB113:
 153              	.LBI106:
 154              		.file 4 "../../../os/rt/include/chsys.h"
 155              		.loc 4 372 20 view .LVU32
 156              		.loc 4 374 3 view .LVU33
 157              	.LBB112:
 158              	.LBI107:
 159              		.file 5 "../../../os/common/ports/ARMv7-M/chcore.h"
 160              		.loc 5 840 27 view .LVU34
 161              		.loc 5 848 3 view .LVU35
 162              	.LBB111:
 163              	.LBI108:
 164              		.loc 2 491 27 view .LVU36
 165              	.LBB110:
 166              		.loc 2 493 3 view .LVU37
 167              		.syntax unified
 168              	@ 493 "../../../os/common/ext/ARM/CMSIS/Core/Include/cmsis_gcc.h" 1
 169 000c 8EF31188 		MSR basepri, lr
 170              	@ 0 "" 2
 171              	.LVL4:
ARM GAS  C:\Users\DEVELO~1\AppData\Local\Temp\ccbUxIoi.s 			page 4


 172              		.loc 2 493 3 is_stmt 0 view .LVU38
 173              		.thumb
 174              		.syntax unified
 175              	.LBE110:
 176              	.LBE111:
 177              	.LBE112:
 178              		.loc 4 375 35 is_stmt 1 view .LVU39
 179              		.loc 4 376 21 view .LVU40
 180              	.LBE113:
 181              		.loc 1 236 3 view .LVU41
 182              	.LBB114:
 183              	.LBI114:
 184              		.loc 1 209 6 view .LVU42
 185              	.LBB115:
 186              		.loc 1 210 3 view .LVU43
 187              		.loc 1 212 21 view .LVU44
 188              		.loc 1 213 3 view .LVU45
 189              		.loc 1 213 3 view .LVU46
 190              		.loc 1 213 3 view .LVU47
 191              		.loc 1 217 3 view .LVU48
 192              		.loc 1 217 13 is_stmt 0 view .LVU49
 193 0010 0368     		ldr	r3, [r0]
 194 0012 0B60     		str	r3, [r1]
 195              		.loc 1 218 3 is_stmt 1 view .LVU50
 196              		.loc 1 218 12 is_stmt 0 view .LVU51
 197 0014 0160     		str	r1, [r0]
 198              	.LVL5:
 199              		.loc 1 218 12 view .LVU52
 200              	.LBE115:
 201              	.LBE114:
 202              		.loc 1 237 3 is_stmt 1 view .LVU53
 203              	.LBB116:
 204              	.LBI97:
 205              		.loc 4 386 20 view .LVU54
 206              	.LBB105:
 207              		.loc 4 388 23 view .LVU55
 208              		.loc 4 389 34 view .LVU56
 209              		.loc 4 395 3 view .LVU57
 210              		.loc 4 395 3 view .LVU58
 211              		.loc 4 395 3 view .LVU59
 212              		.loc 4 399 3 view .LVU60
 213              	.LBB104:
 214              	.LBI99:
 215              		.loc 5 864 27 view .LVU61
 216              		.loc 5 867 3 view .LVU62
 217              	.LBB103:
 218              	.LBI100:
 219              		.loc 2 491 27 view .LVU63
 220              	.LBB102:
 221              		.loc 2 493 3 view .LVU64
 222              		.syntax unified
 223              	@ 493 "../../../os/common/ext/ARM/CMSIS/Core/Include/cmsis_gcc.h" 1
 224 0016 8CF31188 		MSR basepri, ip
 225              	@ 0 "" 2
 226              	.LVL6:
 227              		.loc 2 493 3 is_stmt 0 view .LVU65
 228              		.thumb
ARM GAS  C:\Users\DEVELO~1\AppData\Local\Temp\ccbUxIoi.s 			page 5


 229              		.syntax unified
 230              	.LBE102:
 231              	.LBE103:
 232              	.LBE104:
 233              	.LBE105:
 234              	.LBE116:
 235              	.LBE118:
 236              	.LBE120:
 237              		.loc 1 139 5 is_stmt 1 view .LVU66
 238              		.loc 1 139 7 is_stmt 0 view .LVU67
 239 001a 4368     		ldr	r3, [r0, #4]
 240              		.loc 1 136 12 view .LVU68
 241 001c 013A     		subs	r2, r2, #1
 242              	.LVL7:
 243              		.loc 1 139 7 view .LVU69
 244 001e 1944     		add	r1, r1, r3
 245              	.LVL8:
 246              		.loc 1 141 5 is_stmt 1 view .LVU70
 247              		.loc 1 136 12 view .LVU71
 248 0020 F4D1     		bne	.L7
 249              		.loc 1 143 1 is_stmt 0 view .LVU72
 250 0022 5DF804FB 		ldr	pc, [sp], #4
 251              	.LVL9:
 252              	.L13:
 253              		.cfi_def_cfa_offset 0
 254              		.cfi_restore 14
 255              		.loc 1 143 1 view .LVU73
 256 0026 7047     		bx	lr
 257              		.cfi_endproc
 258              	.LFE354:
 259              		.size	chPoolLoadArray, .-chPoolLoadArray
 260              		.section	.text.chPoolAllocI,"ax",%progbits
 261              		.align	1
 262              		.p2align 2,,3
 263              		.global	chPoolAllocI
 264              		.syntax unified
 265              		.thumb
 266              		.thumb_func
 267              		.type	chPoolAllocI, %function
 268              	chPoolAllocI:
 269              	.LVL10:
 270              	.LFB355:
 271              		.loc 1 155 39 is_stmt 1 view -0
 272              		.cfi_startproc
 273              		@ args = 0, pretend = 0, frame = 0
 274              		@ frame_needed = 0, uses_anonymous_args = 0
 275              		@ link register save eliminated.
 276              		.loc 1 156 3 view .LVU75
 277              		.loc 1 158 21 view .LVU76
 278              		.loc 1 159 3 view .LVU77
 279              		.loc 1 159 3 view .LVU78
 280              		.loc 1 159 3 view .LVU79
 281              		.loc 1 161 3 view .LVU80
 282              		.loc 1 161 8 is_stmt 0 view .LVU81
 283 0000 0368     		ldr	r3, [r0]
 284              	.LVL11:
 285              		.loc 1 163 3 is_stmt 1 view .LVU82
ARM GAS  C:\Users\DEVELO~1\AppData\Local\Temp\ccbUxIoi.s 			page 6


 286              		.loc 1 163 6 is_stmt 0 view .LVU83
 287 0002 1BB1     		cbz	r3, .L17
 288              		.loc 1 164 5 is_stmt 1 view .LVU84
 289              		.loc 1 164 14 is_stmt 0 view .LVU85
 290 0004 1A68     		ldr	r2, [r3]
 291 0006 0260     		str	r2, [r0]
 292              	.L16:
 293              		.loc 1 175 1 view .LVU86
 294 0008 1846     		mov	r0, r3
 295              	.LVL12:
 296              		.loc 1 175 1 view .LVU87
 297 000a 7047     		bx	lr
 298              	.LVL13:
 299              	.L17:
 300              	.LBB123:
 301              	.LBI123:
 302              		.loc 1 155 7 is_stmt 1 view .LVU88
 303              	.LBB124:
 304              		.loc 1 166 8 view .LVU89
 305              		.loc 1 166 14 is_stmt 0 view .LVU90
 306 000c C268     		ldr	r2, [r0, #12]
 307              		.loc 1 166 11 view .LVU91
 308 000e 002A     		cmp	r2, #0
 309 0010 FAD0     		beq	.L16
 310              		.loc 1 167 5 is_stmt 1 view .LVU92
 311              		.loc 1 167 12 is_stmt 0 view .LVU93
 312 0012 D0E90101 		ldrd	r0, r1, [r0, #4]
 313              	.LVL14:
 314              		.loc 1 167 12 view .LVU94
 315 0016 1047     		bx	r2
 316              	.LVL15:
 317              		.loc 1 167 12 view .LVU95
 318              	.LBE124:
 319              	.LBE123:
 320              		.cfi_endproc
 321              	.LFE355:
 322              		.size	chPoolAllocI, .-chPoolAllocI
 323              		.section	.text.chPoolAlloc,"ax",%progbits
 324              		.align	1
 325              		.p2align 2,,3
 326              		.global	chPoolAlloc
 327              		.syntax unified
 328              		.thumb
 329              		.thumb_func
 330              		.type	chPoolAlloc, %function
 331              	chPoolAlloc:
 332              	.LVL16:
 333              	.LFB356:
 334              		.loc 1 187 38 is_stmt 1 view -0
 335              		.cfi_startproc
 336              		@ args = 0, pretend = 0, frame = 0
 337              		@ frame_needed = 0, uses_anonymous_args = 0
 338              		.loc 1 188 3 view .LVU97
 339              		.loc 1 190 3 view .LVU98
 340              	.LBB138:
 341              	.LBI138:
 342              		.loc 4 372 20 view .LVU99
ARM GAS  C:\Users\DEVELO~1\AppData\Local\Temp\ccbUxIoi.s 			page 7


 343              		.loc 4 374 3 view .LVU100
 344              	.LBB139:
 345              	.LBI139:
 346              		.loc 5 840 27 view .LVU101
 347              		.loc 5 848 3 view .LVU102
 348              	.LBB140:
 349              	.LBI140:
 350              		.loc 2 491 27 view .LVU103
 351              	.LBB141:
 352              		.loc 2 493 3 view .LVU104
 353              	.LBE141:
 354              	.LBE140:
 355              	.LBE139:
 356              	.LBE138:
 357              		.loc 1 187 38 is_stmt 0 view .LVU105
 358 0000 08B5     		push	{r3, lr}
 359              		.cfi_def_cfa_offset 8
 360              		.cfi_offset 3, -8
 361              		.cfi_offset 14, -4
 362              	.LBB148:
 363              	.LBB146:
 364              	.LBB144:
 365              	.LBB142:
 366              		.loc 2 493 3 view .LVU106
 367 0002 3022     		movs	r2, #48
 368              	.LBE142:
 369              	.LBE144:
 370              	.LBE146:
 371              	.LBE148:
 372              		.loc 1 187 38 view .LVU107
 373 0004 0346     		mov	r3, r0
 374              	.LBB149:
 375              	.LBB147:
 376              	.LBB145:
 377              	.LBB143:
 378              		.loc 2 493 3 view .LVU108
 379              		.syntax unified
 380              	@ 493 "../../../os/common/ext/ARM/CMSIS/Core/Include/cmsis_gcc.h" 1
 381 0006 82F31188 		MSR basepri, r2
 382              	@ 0 "" 2
 383              	.LVL17:
 384              		.loc 2 493 3 view .LVU109
 385              		.thumb
 386              		.syntax unified
 387              	.LBE143:
 388              	.LBE145:
 389              	.LBE147:
 390              		.loc 4 375 35 is_stmt 1 view .LVU110
 391              		.loc 4 376 21 view .LVU111
 392              	.LBE149:
 393              		.loc 1 191 3 view .LVU112
 394              	.LBB150:
 395              	.LBI150:
 396              		.loc 1 155 7 view .LVU113
 397              	.LBB151:
 398              		.loc 1 156 3 view .LVU114
 399              		.loc 1 158 21 view .LVU115
ARM GAS  C:\Users\DEVELO~1\AppData\Local\Temp\ccbUxIoi.s 			page 8


 400              		.loc 1 159 3 view .LVU116
 401              		.loc 1 159 3 view .LVU117
 402              		.loc 1 159 3 view .LVU118
 403              		.loc 1 161 3 view .LVU119
 404              		.loc 1 161 8 is_stmt 0 view .LVU120
 405 000a 0068     		ldr	r0, [r0]
 406              	.LVL18:
 407              		.loc 1 163 3 is_stmt 1 view .LVU121
 408              		.loc 1 163 6 is_stmt 0 view .LVU122
 409 000c 28B1     		cbz	r0, .L23
 410              		.loc 1 164 5 is_stmt 1 view .LVU123
 411              		.loc 1 164 14 is_stmt 0 view .LVU124
 412 000e 0268     		ldr	r2, [r0]
 413 0010 1A60     		str	r2, [r3]
 414              	.L24:
 415              		.loc 1 169 5 is_stmt 1 view .LVU125
 416              		.loc 1 174 3 view .LVU126
 417              	.LVL19:
 418              		.loc 1 174 3 is_stmt 0 view .LVU127
 419              	.LBE151:
 420              	.LBE150:
 421              		.loc 1 192 3 is_stmt 1 view .LVU128
 422              	.LBB155:
 423              	.LBI155:
 424              		.loc 4 386 20 view .LVU129
 425              	.LBB156:
 426              		.loc 4 388 23 view .LVU130
 427              		.loc 4 389 34 view .LVU131
 428              		.loc 4 395 3 view .LVU132
 429              		.loc 4 395 3 view .LVU133
 430              		.loc 4 395 3 view .LVU134
 431              		.loc 4 399 3 view .LVU135
 432              	.LBB157:
 433              	.LBI157:
 434              		.loc 5 864 27 view .LVU136
 435              		.loc 5 867 3 view .LVU137
 436              	.LBB158:
 437              	.LBI158:
 438              		.loc 2 491 27 view .LVU138
 439              	.LBB159:
 440              		.loc 2 493 3 view .LVU139
 441 0012 0023     		movs	r3, #0
 442              	.LVL20:
 443              		.loc 2 493 3 is_stmt 0 view .LVU140
 444              		.syntax unified
 445              	@ 493 "../../../os/common/ext/ARM/CMSIS/Core/Include/cmsis_gcc.h" 1
 446 0014 83F31188 		MSR basepri, r3
 447              	@ 0 "" 2
 448              	.LVL21:
 449              		.loc 2 493 3 view .LVU141
 450              		.thumb
 451              		.syntax unified
 452              	.LBE159:
 453              	.LBE158:
 454              	.LBE157:
 455              	.LBE156:
 456              	.LBE155:
ARM GAS  C:\Users\DEVELO~1\AppData\Local\Temp\ccbUxIoi.s 			page 9


 457              		.loc 1 194 3 is_stmt 1 view .LVU142
 458              		.loc 1 195 1 is_stmt 0 view .LVU143
 459 0018 08BD     		pop	{r3, pc}
 460              	.LVL22:
 461              	.L23:
 462              	.LBB164:
 463              	.LBB154:
 464              	.LBB152:
 465              	.LBI152:
 466              		.loc 1 155 7 is_stmt 1 view .LVU144
 467              	.LBB153:
 468              		.loc 1 166 8 view .LVU145
 469              		.loc 1 166 14 is_stmt 0 view .LVU146
 470 001a DA68     		ldr	r2, [r3, #12]
 471              		.loc 1 166 11 view .LVU147
 472 001c 002A     		cmp	r2, #0
 473 001e F8D0     		beq	.L24
 474              		.loc 1 167 5 is_stmt 1 view .LVU148
 475              		.loc 1 167 12 is_stmt 0 view .LVU149
 476 0020 D3E90101 		ldrd	r0, r1, [r3, #4]
 477              	.LVL23:
 478              		.loc 1 167 12 view .LVU150
 479 0024 9047     		blx	r2
 480              	.LVL24:
 481              		.loc 1 169 5 is_stmt 1 view .LVU151
 482              		.loc 1 169 5 view .LVU152
 483              		.loc 1 169 5 is_stmt 0 view .LVU153
 484              	.LBE153:
 485              	.LBE152:
 486              		.loc 1 169 5 is_stmt 1 view .LVU154
 487              		.loc 1 174 3 view .LVU155
 488              		.loc 1 174 3 is_stmt 0 view .LVU156
 489              	.LBE154:
 490              	.LBE164:
 491              		.loc 1 192 3 is_stmt 1 view .LVU157
 492              	.LBB165:
 493              		.loc 4 386 20 view .LVU158
 494              	.LBB163:
 495              		.loc 4 388 23 view .LVU159
 496              		.loc 4 389 34 view .LVU160
 497              		.loc 4 395 3 view .LVU161
 498              		.loc 4 395 3 view .LVU162
 499              		.loc 4 395 3 view .LVU163
 500              		.loc 4 399 3 view .LVU164
 501              	.LBB162:
 502              		.loc 5 864 27 view .LVU165
 503              		.loc 5 867 3 view .LVU166
 504              	.LBB161:
 505              		.loc 2 491 27 view .LVU167
 506              	.LBB160:
 507              		.loc 2 493 3 view .LVU168
 508 0026 0023     		movs	r3, #0
 509              		.syntax unified
 510              	@ 493 "../../../os/common/ext/ARM/CMSIS/Core/Include/cmsis_gcc.h" 1
 511 0028 83F31188 		MSR basepri, r3
 512              	@ 0 "" 2
 513              	.LVL25:
ARM GAS  C:\Users\DEVELO~1\AppData\Local\Temp\ccbUxIoi.s 			page 10


 514              		.loc 2 493 3 is_stmt 0 view .LVU169
 515              		.thumb
 516              		.syntax unified
 517              	.LBE160:
 518              	.LBE161:
 519              	.LBE162:
 520              	.LBE163:
 521              	.LBE165:
 522              		.loc 1 194 3 is_stmt 1 view .LVU170
 523              		.loc 1 195 1 is_stmt 0 view .LVU171
 524 002c 08BD     		pop	{r3, pc}
 525              		.cfi_endproc
 526              	.LFE356:
 527              		.size	chPoolAlloc, .-chPoolAlloc
 528 002e 00BF     		.section	.text.chPoolFreeI,"ax",%progbits
 529              		.align	1
 530              		.p2align 2,,3
 531              		.global	chPoolFreeI
 532              		.syntax unified
 533              		.thumb
 534              		.thumb_func
 535              		.type	chPoolFreeI, %function
 536              	chPoolFreeI:
 537              	.LVL26:
 538              	.LFB357:
 539              		.loc 1 209 49 is_stmt 1 view -0
 540              		.cfi_startproc
 541              		@ args = 0, pretend = 0, frame = 0
 542              		@ frame_needed = 0, uses_anonymous_args = 0
 543              		@ link register save eliminated.
 544              		.loc 1 210 3 view .LVU173
 545              		.loc 1 212 21 view .LVU174
 546              		.loc 1 213 3 view .LVU175
 547              		.loc 1 213 3 view .LVU176
 548              		.loc 1 213 3 view .LVU177
 549              		.loc 1 217 3 view .LVU178
 550              		.loc 1 217 13 is_stmt 0 view .LVU179
 551 0000 0368     		ldr	r3, [r0]
 552 0002 0B60     		str	r3, [r1]
 553              		.loc 1 218 3 is_stmt 1 view .LVU180
 554              		.loc 1 218 12 is_stmt 0 view .LVU181
 555 0004 0160     		str	r1, [r0]
 556              		.loc 1 219 1 view .LVU182
 557 0006 7047     		bx	lr
 558              		.cfi_endproc
 559              	.LFE357:
 560              		.size	chPoolFreeI, .-chPoolFreeI
 561              		.section	.text.chPoolFree,"ax",%progbits
 562              		.align	1
 563              		.p2align 2,,3
 564              		.global	chPoolFree
 565              		.syntax unified
 566              		.thumb
 567              		.thumb_func
 568              		.type	chPoolFree, %function
 569              	chPoolFree:
 570              	.LVL27:
ARM GAS  C:\Users\DEVELO~1\AppData\Local\Temp\ccbUxIoi.s 			page 11


 571              	.LFB358:
 572              		.loc 1 233 48 is_stmt 1 view -0
 573              		.cfi_startproc
 574              		@ args = 0, pretend = 0, frame = 0
 575              		@ frame_needed = 0, uses_anonymous_args = 0
 576              		@ link register save eliminated.
 577              		.loc 1 235 3 view .LVU184
 578              	.LBB166:
 579              	.LBI166:
 580              		.loc 4 372 20 view .LVU185
 581              		.loc 4 374 3 view .LVU186
 582              	.LBB167:
 583              	.LBI167:
 584              		.loc 5 840 27 view .LVU187
 585              		.loc 5 848 3 view .LVU188
 586              	.LBB168:
 587              	.LBI168:
 588              		.loc 2 491 27 view .LVU189
 589              	.LBB169:
 590              		.loc 2 493 3 view .LVU190
 591 0000 3023     		movs	r3, #48
 592              		.syntax unified
 593              	@ 493 "../../../os/common/ext/ARM/CMSIS/Core/Include/cmsis_gcc.h" 1
 594 0002 83F31188 		MSR basepri, r3
 595              	@ 0 "" 2
 596              	.LVL28:
 597              		.loc 2 493 3 is_stmt 0 view .LVU191
 598              		.thumb
 599              		.syntax unified
 600              	.LBE169:
 601              	.LBE168:
 602              	.LBE167:
 603              		.loc 4 375 35 is_stmt 1 view .LVU192
 604              		.loc 4 376 21 view .LVU193
 605              	.LBE166:
 606              		.loc 1 236 3 view .LVU194
 607              	.LBB170:
 608              	.LBI170:
 609              		.loc 1 209 6 view .LVU195
 610              	.LBB171:
 611              		.loc 1 210 3 view .LVU196
 612              		.loc 1 212 21 view .LVU197
 613              		.loc 1 213 3 view .LVU198
 614              		.loc 1 213 3 view .LVU199
 615              		.loc 1 213 3 view .LVU200
 616              		.loc 1 217 3 view .LVU201
 617              		.loc 1 217 13 is_stmt 0 view .LVU202
 618 0006 0268     		ldr	r2, [r0]
 619              	.LBE171:
 620              	.LBE170:
 621              	.LBB173:
 622              	.LBB174:
 623              	.LBB175:
 624              	.LBB176:
 625              	.LBB177:
 626              		.loc 2 493 3 view .LVU203
 627 0008 0023     		movs	r3, #0
ARM GAS  C:\Users\DEVELO~1\AppData\Local\Temp\ccbUxIoi.s 			page 12


 628              	.LBE177:
 629              	.LBE176:
 630              	.LBE175:
 631              	.LBE174:
 632              	.LBE173:
 633              	.LBB182:
 634              	.LBB172:
 635              		.loc 1 217 13 view .LVU204
 636 000a 0A60     		str	r2, [r1]
 637              		.loc 1 218 3 is_stmt 1 view .LVU205
 638              		.loc 1 218 12 is_stmt 0 view .LVU206
 639 000c 0160     		str	r1, [r0]
 640              	.LVL29:
 641              		.loc 1 218 12 view .LVU207
 642              	.LBE172:
 643              	.LBE182:
 644              		.loc 1 237 3 is_stmt 1 view .LVU208
 645              	.LBB183:
 646              	.LBI173:
 647              		.loc 4 386 20 view .LVU209
 648              	.LBB181:
 649              		.loc 4 388 23 view .LVU210
 650              		.loc 4 389 34 view .LVU211
 651              		.loc 4 395 3 view .LVU212
 652              		.loc 4 395 3 view .LVU213
 653              		.loc 4 395 3 view .LVU214
 654              		.loc 4 399 3 view .LVU215
 655              	.LBB180:
 656              	.LBI175:
 657              		.loc 5 864 27 view .LVU216
 658              		.loc 5 867 3 view .LVU217
 659              	.LBB179:
 660              	.LBI176:
 661              		.loc 2 491 27 view .LVU218
 662              	.LBB178:
 663              		.loc 2 493 3 view .LVU219
 664              		.syntax unified
 665              	@ 493 "../../../os/common/ext/ARM/CMSIS/Core/Include/cmsis_gcc.h" 1
 666 000e 83F31188 		MSR basepri, r3
 667              	@ 0 "" 2
 668              	.LVL30:
 669              		.loc 2 493 3 is_stmt 0 view .LVU220
 670              		.thumb
 671              		.syntax unified
 672              	.LBE178:
 673              	.LBE179:
 674              	.LBE180:
 675              	.LBE181:
 676              	.LBE183:
 677              		.loc 1 238 1 view .LVU221
 678 0012 7047     		bx	lr
 679              		.cfi_endproc
 680              	.LFE358:
 681              		.size	chPoolFree, .-chPoolFree
 682              		.section	.text.chGuardedPoolObjectInitAligned,"ax",%progbits
 683              		.align	1
 684              		.p2align 2,,3
ARM GAS  C:\Users\DEVELO~1\AppData\Local\Temp\ccbUxIoi.s 			page 13


 685              		.global	chGuardedPoolObjectInitAligned
 686              		.syntax unified
 687              		.thumb
 688              		.thumb_func
 689              		.type	chGuardedPoolObjectInitAligned, %function
 690              	chGuardedPoolObjectInitAligned:
 691              	.LVL31:
 692              	.LFB359:
 693              		.loc 1 254 53 is_stmt 1 view -0
 694              		.cfi_startproc
 695              		@ args = 0, pretend = 0, frame = 0
 696              		@ frame_needed = 0, uses_anonymous_args = 0
 697              		@ link register save eliminated.
 698              		.loc 1 256 3 view .LVU223
 699              		.loc 1 254 53 is_stmt 0 view .LVU224
 700 0000 10B4     		push	{r4}
 701              		.cfi_def_cfa_offset 4
 702              		.cfi_offset 4, -4
 703              	.LBB184:
 704              	.LBB185:
 705              		.loc 1 87 12 view .LVU225
 706 0002 0024     		movs	r4, #0
 707              	.LVL32:
 708              		.loc 1 87 12 view .LVU226
 709              	.LBE185:
 710              	.LBI184:
 711              		.loc 1 79 6 is_stmt 1 view .LVU227
 712              	.LBB186:
 713              		.loc 1 82 3 view .LVU228
 714              		.loc 1 82 3 view .LVU229
 715              		.loc 1 82 3 view .LVU230
 716              		.loc 1 87 3 view .LVU231
 717              		.loc 1 88 19 is_stmt 0 view .LVU232
 718 0004 C0E90341 		strd	r4, r1, [r0, #12]
 719              		.loc 1 89 3 is_stmt 1 view .LVU233
 720              		.loc 1 90 16 is_stmt 0 view .LVU234
 721 0008 C0E90524 		strd	r2, r4, [r0, #20]
 722              	.LVL33:
 723              		.loc 1 90 16 view .LVU235
 724              	.LBE186:
 725              	.LBE184:
 726              		.loc 1 257 3 is_stmt 1 view .LVU236
 727 000c 2146     		mov	r1, r4
 728              	.LVL34:
 729              		.loc 1 258 1 is_stmt 0 view .LVU237
 730 000e 5DF8044B 		ldr	r4, [sp], #4
 731              		.cfi_restore 4
 732              		.cfi_def_cfa_offset 0
 733              		.loc 1 257 3 view .LVU238
 734 0012 FFF7FEBF 		b	chSemObjectInit
 735              	.LVL35:
 736              		.loc 1 257 3 view .LVU239
 737              		.cfi_endproc
 738              	.LFE359:
 739              		.size	chGuardedPoolObjectInitAligned, .-chGuardedPoolObjectInitAligned
 740 0016 00BF     		.section	.text.chGuardedPoolObjectDispose,"ax",%progbits
 741              		.align	1
ARM GAS  C:\Users\DEVELO~1\AppData\Local\Temp\ccbUxIoi.s 			page 14


 742              		.p2align 2,,3
 743              		.global	chGuardedPoolObjectDispose
 744              		.syntax unified
 745              		.thumb
 746              		.thumb_func
 747              		.type	chGuardedPoolObjectDispose, %function
 748              	chGuardedPoolObjectDispose:
 749              	.LVL36:
 750              	.LFB360:
 751              		.loc 1 275 61 is_stmt 1 view -0
 752              		.cfi_startproc
 753              		@ args = 0, pretend = 0, frame = 0
 754              		@ frame_needed = 0, uses_anonymous_args = 0
 755              		@ link register save eliminated.
 756              		.loc 1 277 3 view .LVU241
 757              		.loc 1 277 3 view .LVU242
 758              		.loc 1 277 3 view .LVU243
 759              		.loc 1 279 3 view .LVU244
 760              		.loc 1 280 3 view .LVU245
 761 0000 FFF7FEBF 		b	chSemObjectDispose
 762              	.LVL37:
 763              		.loc 1 280 3 is_stmt 0 view .LVU246
 764              		.cfi_endproc
 765              	.LFE360:
 766              		.size	chGuardedPoolObjectDispose, .-chGuardedPoolObjectDispose
 767              		.section	.text.chGuardedPoolLoadArray,"ax",%progbits
 768              		.align	1
 769              		.p2align 2,,3
 770              		.global	chGuardedPoolLoadArray
 771              		.syntax unified
 772              		.thumb
 773              		.thumb_func
 774              		.type	chGuardedPoolLoadArray, %function
 775              	chGuardedPoolLoadArray:
 776              	.LVL38:
 777              	.LFB361:
 778              		.loc 1 296 76 is_stmt 1 view -0
 779              		.cfi_startproc
 780              		@ args = 0, pretend = 0, frame = 0
 781              		@ frame_needed = 0, uses_anonymous_args = 0
 782              		.loc 1 298 3 view .LVU248
 783              		.loc 1 298 3 view .LVU249
 784              		.loc 1 298 3 view .LVU250
 785              		.loc 1 300 3 view .LVU251
 786              		.loc 1 300 12 view .LVU252
 787 0000 CAB1     		cbz	r2, .L40
 788              		.loc 1 296 76 is_stmt 0 view .LVU253
 789 0002 2DE9F041 		push	{r4, r5, r6, r7, r8, lr}
 790              		.cfi_def_cfa_offset 24
 791              		.cfi_offset 4, -24
 792              		.cfi_offset 5, -20
 793              		.cfi_offset 6, -16
 794              		.cfi_offset 7, -12
 795              		.cfi_offset 8, -8
 796              		.cfi_offset 14, -4
 797 0006 0446     		mov	r4, r0
 798 0008 0D46     		mov	r5, r1
ARM GAS  C:\Users\DEVELO~1\AppData\Local\Temp\ccbUxIoi.s 			page 15


 799 000a 1646     		mov	r6, r2
 800              	.LBB204:
 801              	.LBB205:
 802              	.LBB206:
 803              	.LBB207:
 804              	.LBB208:
 805              	.LBB209:
 806              	.LBB210:
 807              		.loc 2 493 3 view .LVU254
 808 000c 4FF03008 		mov	r8, #48
 809              	.LBE210:
 810              	.LBE209:
 811              	.LBE208:
 812              	.LBE207:
 813              	.LBB214:
 814              	.LBB215:
 815              	.LBB216:
 816              	.LBB217:
 817              	.LBB218:
 818 0010 0027     		movs	r7, #0
 819              	.LVL39:
 820              	.L36:
 821              		.loc 2 493 3 view .LVU255
 822              	.LBE218:
 823              	.LBE217:
 824              	.LBE216:
 825              	.LBE215:
 826              	.LBE214:
 827              	.LBE206:
 828              	.LBE205:
 829              	.LBE204:
 830              		.loc 1 301 5 is_stmt 1 view .LVU256
 831              	.LBB233:
 832              	.LBI204:
 833              		.loc 3 342 20 view .LVU257
 834              		.loc 3 344 3 view .LVU258
 835              	.LBB232:
 836              	.LBI205:
 837              		.loc 1 372 6 view .LVU259
 838              	.LBB231:
 839              		.loc 1 374 3 view .LVU260
 840              	.LBB223:
 841              	.LBI207:
 842              		.loc 4 372 20 view .LVU261
 843              		.loc 4 374 3 view .LVU262
 844              	.LBB213:
 845              	.LBI208:
 846              		.loc 5 840 27 view .LVU263
 847              		.loc 5 848 3 view .LVU264
 848              	.LBB212:
 849              	.LBI209:
 850              		.loc 2 491 27 view .LVU265
 851              	.LBB211:
 852              		.loc 2 493 3 view .LVU266
 853              		.syntax unified
 854              	@ 493 "../../../os/common/ext/ARM/CMSIS/Core/Include/cmsis_gcc.h" 1
 855 0012 88F31188 		MSR basepri, r8
ARM GAS  C:\Users\DEVELO~1\AppData\Local\Temp\ccbUxIoi.s 			page 16


 856              	@ 0 "" 2
 857              	.LVL40:
 858              		.loc 2 493 3 is_stmt 0 view .LVU267
 859              		.thumb
 860              		.syntax unified
 861              	.LBE211:
 862              	.LBE212:
 863              	.LBE213:
 864              		.loc 4 375 35 is_stmt 1 view .LVU268
 865              		.loc 4 376 21 view .LVU269
 866              	.LBE223:
 867              		.loc 1 375 3 view .LVU270
 868              	.LBB224:
 869              	.LBI224:
 870              		.loc 3 304 20 view .LVU271
 871              	.LBB225:
 872              		.loc 3 306 3 view .LVU272
 873              	.LBB226:
 874              	.LBI226:
 875              		.loc 1 209 6 view .LVU273
 876              	.LBB227:
 877              		.loc 1 210 3 view .LVU274
 878              		.loc 1 212 21 view .LVU275
 879              		.loc 1 213 3 view .LVU276
 880              		.loc 1 213 3 view .LVU277
 881              		.loc 1 213 3 view .LVU278
 882              		.loc 1 217 3 view .LVU279
 883              		.loc 1 217 13 is_stmt 0 view .LVU280
 884 0016 E368     		ldr	r3, [r4, #12]
 885              	.LBE227:
 886              	.LBE226:
 887              		.loc 3 307 3 view .LVU281
 888 0018 2046     		mov	r0, r4
 889              	.LBB229:
 890              	.LBB228:
 891              		.loc 1 217 13 view .LVU282
 892 001a 2B60     		str	r3, [r5]
 893              		.loc 1 218 3 is_stmt 1 view .LVU283
 894              		.loc 1 218 12 is_stmt 0 view .LVU284
 895 001c E560     		str	r5, [r4, #12]
 896              	.LVL41:
 897              		.loc 1 218 12 view .LVU285
 898              	.LBE228:
 899              	.LBE229:
 900              		.loc 3 307 3 is_stmt 1 view .LVU286
 901 001e FFF7FEFF 		bl	chSemSignalI
 902              	.LVL42:
 903              		.loc 3 307 3 is_stmt 0 view .LVU287
 904              	.LBE225:
 905              	.LBE224:
 906              		.loc 1 376 3 is_stmt 1 view .LVU288
 907 0022 FFF7FEFF 		bl	chSchRescheduleS
 908              	.LVL43:
 909              		.loc 1 377 3 view .LVU289
 910              	.LBB230:
 911              	.LBI214:
 912              		.loc 4 386 20 view .LVU290
ARM GAS  C:\Users\DEVELO~1\AppData\Local\Temp\ccbUxIoi.s 			page 17


 913              	.LBB222:
 914              		.loc 4 388 23 view .LVU291
 915              		.loc 4 389 34 view .LVU292
 916              		.loc 4 395 3 view .LVU293
 917              		.loc 4 395 3 view .LVU294
 918              		.loc 4 395 3 view .LVU295
 919              		.loc 4 399 3 view .LVU296
 920              	.LBB221:
 921              	.LBI216:
 922              		.loc 5 864 27 view .LVU297
 923              		.loc 5 867 3 view .LVU298
 924              	.LBB220:
 925              	.LBI217:
 926              		.loc 2 491 27 view .LVU299
 927              	.LBB219:
 928              		.loc 2 493 3 view .LVU300
 929              		.syntax unified
 930              	@ 493 "../../../os/common/ext/ARM/CMSIS/Core/Include/cmsis_gcc.h" 1
 931 0026 87F31188 		MSR basepri, r7
 932              	@ 0 "" 2
 933              	.LVL44:
 934              		.loc 2 493 3 is_stmt 0 view .LVU301
 935              		.thumb
 936              		.syntax unified
 937              	.LBE219:
 938              	.LBE220:
 939              	.LBE221:
 940              	.LBE222:
 941              	.LBE230:
 942              	.LBE231:
 943              	.LBE232:
 944              	.LBE233:
 945              		.loc 1 303 5 is_stmt 1 view .LVU302
 946              		.loc 1 303 7 is_stmt 0 view .LVU303
 947 002a 2369     		ldr	r3, [r4, #16]
 948              		.loc 1 300 12 view .LVU304
 949 002c 013E     		subs	r6, r6, #1
 950              	.LVL45:
 951              		.loc 1 303 7 view .LVU305
 952 002e 1D44     		add	r5, r5, r3
 953              	.LVL46:
 954              		.loc 1 305 5 is_stmt 1 view .LVU306
 955              		.loc 1 300 12 view .LVU307
 956 0030 EFD1     		bne	.L36
 957              		.loc 1 307 1 is_stmt 0 view .LVU308
 958 0032 BDE8F081 		pop	{r4, r5, r6, r7, r8, pc}
 959              	.LVL47:
 960              	.L40:
 961              		.cfi_def_cfa_offset 0
 962              		.cfi_restore 4
 963              		.cfi_restore 5
 964              		.cfi_restore 6
 965              		.cfi_restore 7
 966              		.cfi_restore 8
 967              		.cfi_restore 14
 968              		.loc 1 307 1 view .LVU309
 969 0036 7047     		bx	lr
ARM GAS  C:\Users\DEVELO~1\AppData\Local\Temp\ccbUxIoi.s 			page 18


 970              		.cfi_endproc
 971              	.LFE361:
 972              		.size	chGuardedPoolLoadArray, .-chGuardedPoolLoadArray
 973              		.section	.text.chGuardedPoolAllocTimeoutS,"ax",%progbits
 974              		.align	1
 975              		.p2align 2,,3
 976              		.global	chGuardedPoolAllocTimeoutS
 977              		.syntax unified
 978              		.thumb
 979              		.thumb_func
 980              		.type	chGuardedPoolAllocTimeoutS, %function
 981              	chGuardedPoolAllocTimeoutS:
 982              	.LVL48:
 983              	.LFB362:
 984              		.loc 1 324 57 is_stmt 1 view -0
 985              		.cfi_startproc
 986              		@ args = 0, pretend = 0, frame = 0
 987              		@ frame_needed = 0, uses_anonymous_args = 0
 988              		.loc 1 325 3 view .LVU311
 989              		.loc 1 327 3 view .LVU312
 990              		.loc 1 324 57 is_stmt 0 view .LVU313
 991 0000 10B5     		push	{r4, lr}
 992              		.cfi_def_cfa_offset 8
 993              		.cfi_offset 4, -8
 994              		.cfi_offset 14, -4
 995              		.loc 1 324 57 view .LVU314
 996 0002 0446     		mov	r4, r0
 997              		.loc 1 327 9 view .LVU315
 998 0004 FFF7FEFF 		bl	chSemWaitTimeoutS
 999              	.LVL49:
 1000              		.loc 1 328 3 is_stmt 1 view .LVU316
 1001              		.loc 1 328 6 is_stmt 0 view .LVU317
 1002 0008 60B9     		cbnz	r0, .L46
 1003              		.loc 1 332 3 is_stmt 1 view .LVU318
 1004              	.LVL50:
 1005              	.LBB238:
 1006              	.LBI238:
 1007              		.loc 1 155 7 view .LVU319
 1008              	.LBB239:
 1009              		.loc 1 156 3 view .LVU320
 1010              		.loc 1 158 21 view .LVU321
 1011              		.loc 1 159 3 view .LVU322
 1012              		.loc 1 159 3 view .LVU323
 1013              		.loc 1 159 3 view .LVU324
 1014              		.loc 1 161 3 view .LVU325
 1015              		.loc 1 161 8 is_stmt 0 view .LVU326
 1016 000a E068     		ldr	r0, [r4, #12]
 1017              	.LVL51:
 1018              		.loc 1 163 3 is_stmt 1 view .LVU327
 1019              		.loc 1 163 6 is_stmt 0 view .LVU328
 1020 000c 10B1     		cbz	r0, .L45
 1021              		.loc 1 164 5 is_stmt 1 view .LVU329
 1022              		.loc 1 164 14 is_stmt 0 view .LVU330
 1023 000e 0368     		ldr	r3, [r0]
 1024 0010 E360     		str	r3, [r4, #12]
 1025              	.L43:
 1026              	.LBE239:
ARM GAS  C:\Users\DEVELO~1\AppData\Local\Temp\ccbUxIoi.s 			page 19


 1027              	.LBE238:
 1028              		.loc 1 333 1 view .LVU331
 1029 0012 10BD     		pop	{r4, pc}
 1030              	.LVL52:
 1031              	.L45:
 1032              	.LBB246:
 1033              	.LBB244:
 1034              	.LBB240:
 1035              	.LBI240:
 1036              		.loc 1 155 7 is_stmt 1 view .LVU332
 1037              	.LBB241:
 1038              		.loc 1 166 8 view .LVU333
 1039              		.loc 1 166 14 is_stmt 0 view .LVU334
 1040 0014 A369     		ldr	r3, [r4, #24]
 1041              		.loc 1 166 11 view .LVU335
 1042 0016 002B     		cmp	r3, #0
 1043 0018 FBD0     		beq	.L43
 1044              		.loc 1 167 5 is_stmt 1 view .LVU336
 1045              		.loc 1 167 12 is_stmt 0 view .LVU337
 1046 001a D4E90401 		ldrd	r0, r1, [r4, #16]
 1047              	.LVL53:
 1048              		.loc 1 167 12 view .LVU338
 1049              	.LBE241:
 1050              	.LBE240:
 1051              	.LBE244:
 1052              	.LBE246:
 1053              		.loc 1 333 1 view .LVU339
 1054 001e BDE81040 		pop	{r4, lr}
 1055              		.cfi_remember_state
 1056              		.cfi_restore 14
 1057              		.cfi_restore 4
 1058              		.cfi_def_cfa_offset 0
 1059              	.LVL54:
 1060              	.LBB247:
 1061              	.LBB245:
 1062              	.LBB243:
 1063              	.LBB242:
 1064              		.loc 1 167 12 view .LVU340
 1065 0022 1847     		bx	r3
 1066              	.LVL55:
 1067              	.L46:
 1068              		.cfi_restore_state
 1069              		.loc 1 167 12 view .LVU341
 1070              	.LBE242:
 1071              	.LBE243:
 1072              	.LBE245:
 1073              	.LBE247:
 1074              		.loc 1 329 12 view .LVU342
 1075 0024 0020     		movs	r0, #0
 1076              	.LVL56:
 1077              		.loc 1 333 1 view .LVU343
 1078 0026 10BD     		pop	{r4, pc}
 1079              		.loc 1 333 1 view .LVU344
 1080              		.cfi_endproc
 1081              	.LFE362:
 1082              		.size	chGuardedPoolAllocTimeoutS, .-chGuardedPoolAllocTimeoutS
 1083              		.section	.text.chGuardedPoolAllocTimeout,"ax",%progbits
ARM GAS  C:\Users\DEVELO~1\AppData\Local\Temp\ccbUxIoi.s 			page 20


 1084              		.align	1
 1085              		.p2align 2,,3
 1086              		.global	chGuardedPoolAllocTimeout
 1087              		.syntax unified
 1088              		.thumb
 1089              		.thumb_func
 1090              		.type	chGuardedPoolAllocTimeout, %function
 1091              	chGuardedPoolAllocTimeout:
 1092              	.LVL57:
 1093              	.LFB363:
 1094              		.loc 1 350 56 is_stmt 1 view -0
 1095              		.cfi_startproc
 1096              		@ args = 0, pretend = 0, frame = 0
 1097              		@ frame_needed = 0, uses_anonymous_args = 0
 1098              		.loc 1 350 56 is_stmt 0 view .LVU346
 1099 0000 10B5     		push	{r4, lr}
 1100              		.cfi_def_cfa_offset 8
 1101              		.cfi_offset 4, -8
 1102              		.cfi_offset 14, -4
 1103              	.LBB263:
 1104              	.LBB264:
 1105              	.LBB265:
 1106              	.LBB266:
 1107              		.loc 2 493 3 view .LVU347
 1108 0002 3023     		movs	r3, #48
 1109              	.LBE266:
 1110              	.LBE265:
 1111              	.LBE264:
 1112              	.LBE263:
 1113              		.loc 1 350 56 view .LVU348
 1114 0004 0446     		mov	r4, r0
 1115              		.loc 1 351 3 is_stmt 1 view .LVU349
 1116              		.loc 1 353 3 view .LVU350
 1117              	.LBB270:
 1118              	.LBI263:
 1119              		.loc 4 372 20 view .LVU351
 1120              		.loc 4 374 3 view .LVU352
 1121              	.LBB269:
 1122              	.LBI264:
 1123              		.loc 5 840 27 view .LVU353
 1124              		.loc 5 848 3 view .LVU354
 1125              	.LVL58:
 1126              	.LBB268:
 1127              	.LBI265:
 1128              		.loc 2 491 27 view .LVU355
 1129              	.LBB267:
 1130              		.loc 2 493 3 view .LVU356
 1131              		.syntax unified
 1132              	@ 493 "../../../os/common/ext/ARM/CMSIS/Core/Include/cmsis_gcc.h" 1
 1133 0006 83F31188 		MSR basepri, r3
 1134              	@ 0 "" 2
 1135              	.LVL59:
 1136              		.loc 2 493 3 is_stmt 0 view .LVU357
 1137              		.thumb
 1138              		.syntax unified
 1139              	.LBE267:
 1140              	.LBE268:
ARM GAS  C:\Users\DEVELO~1\AppData\Local\Temp\ccbUxIoi.s 			page 21


 1141              	.LBE269:
 1142              		.loc 4 375 35 is_stmt 1 view .LVU358
 1143              		.loc 4 376 21 view .LVU359
 1144              	.LBE270:
 1145              		.loc 1 354 3 view .LVU360
 1146              	.LBB271:
 1147              	.LBI271:
 1148              		.loc 1 323 7 view .LVU361
 1149              	.LBB272:
 1150              		.loc 1 325 3 view .LVU362
 1151              		.loc 1 327 3 view .LVU363
 1152              		.loc 1 327 9 is_stmt 0 view .LVU364
 1153 000a FFF7FEFF 		bl	chSemWaitTimeoutS
 1154              	.LVL60:
 1155              		.loc 1 328 3 is_stmt 1 view .LVU365
 1156              		.loc 1 328 6 is_stmt 0 view .LVU366
 1157 000e 88B9     		cbnz	r0, .L54
 1158              		.loc 1 332 3 is_stmt 1 view .LVU367
 1159              	.LVL61:
 1160              	.LBB273:
 1161              	.LBI273:
 1162              		.loc 1 155 7 view .LVU368
 1163              	.LBB274:
 1164              		.loc 1 156 3 view .LVU369
 1165              		.loc 1 158 21 view .LVU370
 1166              		.loc 1 159 3 view .LVU371
 1167              		.loc 1 159 3 view .LVU372
 1168              		.loc 1 159 3 view .LVU373
 1169              		.loc 1 161 3 view .LVU374
 1170              		.loc 1 161 8 is_stmt 0 view .LVU375
 1171 0010 E068     		ldr	r0, [r4, #12]
 1172              	.LVL62:
 1173              		.loc 1 163 3 is_stmt 1 view .LVU376
 1174              		.loc 1 163 6 is_stmt 0 view .LVU377
 1175 0012 28B1     		cbz	r0, .L53
 1176              		.loc 1 164 5 is_stmt 1 view .LVU378
 1177              		.loc 1 164 14 is_stmt 0 view .LVU379
 1178 0014 0368     		ldr	r3, [r0]
 1179 0016 E360     		str	r3, [r4, #12]
 1180              	.L52:
 1181              	.LVL63:
 1182              		.loc 1 164 14 view .LVU380
 1183              	.LBE274:
 1184              	.LBE273:
 1185              	.LBE272:
 1186              	.LBE271:
 1187              		.loc 1 355 3 is_stmt 1 view .LVU381
 1188              	.LBB281:
 1189              	.LBI281:
 1190              		.loc 4 386 20 view .LVU382
 1191              	.LBB282:
 1192              		.loc 4 388 23 view .LVU383
 1193              		.loc 4 389 34 view .LVU384
 1194              		.loc 4 395 3 view .LVU385
 1195              		.loc 4 395 3 view .LVU386
 1196              		.loc 4 395 3 view .LVU387
 1197              		.loc 4 399 3 view .LVU388
ARM GAS  C:\Users\DEVELO~1\AppData\Local\Temp\ccbUxIoi.s 			page 22


 1198              	.LBB283:
 1199              	.LBI283:
 1200              		.loc 5 864 27 view .LVU389
 1201              		.loc 5 867 3 view .LVU390
 1202              	.LBB284:
 1203              	.LBI284:
 1204              		.loc 2 491 27 view .LVU391
 1205              	.LBB285:
 1206              		.loc 2 493 3 view .LVU392
 1207 0018 0023     		movs	r3, #0
 1208              		.syntax unified
 1209              	@ 493 "../../../os/common/ext/ARM/CMSIS/Core/Include/cmsis_gcc.h" 1
 1210 001a 83F31188 		MSR basepri, r3
 1211              	@ 0 "" 2
 1212              	.LVL64:
 1213              		.loc 2 493 3 is_stmt 0 view .LVU393
 1214              		.thumb
 1215              		.syntax unified
 1216              	.LBE285:
 1217              	.LBE284:
 1218              	.LBE283:
 1219              	.LBE282:
 1220              	.LBE281:
 1221              		.loc 1 357 3 is_stmt 1 view .LVU394
 1222              		.loc 1 358 1 is_stmt 0 view .LVU395
 1223 001e 10BD     		pop	{r4, pc}
 1224              	.LVL65:
 1225              	.L53:
 1226              	.LBB294:
 1227              	.LBB279:
 1228              	.LBB278:
 1229              	.LBB277:
 1230              	.LBB275:
 1231              	.LBI275:
 1232              		.loc 1 155 7 is_stmt 1 view .LVU396
 1233              	.LBB276:
 1234              		.loc 1 166 8 view .LVU397
 1235              		.loc 1 166 14 is_stmt 0 view .LVU398
 1236 0020 A369     		ldr	r3, [r4, #24]
 1237              		.loc 1 166 11 view .LVU399
 1238 0022 002B     		cmp	r3, #0
 1239 0024 F8D0     		beq	.L52
 1240              		.loc 1 167 5 is_stmt 1 view .LVU400
 1241              		.loc 1 167 12 is_stmt 0 view .LVU401
 1242 0026 D4E90401 		ldrd	r0, r1, [r4, #16]
 1243              	.LVL66:
 1244              		.loc 1 167 12 view .LVU402
 1245 002a 9847     		blx	r3
 1246              	.LVL67:
 1247              		.loc 1 169 5 is_stmt 1 view .LVU403
 1248              		.loc 1 169 5 view .LVU404
 1249              		.loc 1 169 5 is_stmt 0 view .LVU405
 1250              	.LBE276:
 1251              	.LBE275:
 1252              	.LBE277:
 1253              	.LBE278:
 1254              	.LBE279:
ARM GAS  C:\Users\DEVELO~1\AppData\Local\Temp\ccbUxIoi.s 			page 23


 1255              	.LBE294:
 1256              		.loc 1 355 3 is_stmt 1 view .LVU406
 1257              	.LBB295:
 1258              		.loc 4 386 20 view .LVU407
 1259              	.LBB292:
 1260              		.loc 4 388 23 view .LVU408
 1261              		.loc 4 389 34 view .LVU409
 1262              		.loc 4 395 3 view .LVU410
 1263              		.loc 4 395 3 view .LVU411
 1264              		.loc 4 395 3 view .LVU412
 1265              		.loc 4 399 3 view .LVU413
 1266              	.LBB290:
 1267              		.loc 5 864 27 view .LVU414
 1268              		.loc 5 867 3 view .LVU415
 1269              	.LBB288:
 1270              		.loc 2 491 27 view .LVU416
 1271              	.LBB286:
 1272              		.loc 2 493 3 view .LVU417
 1273 002c 0023     		movs	r3, #0
 1274              		.syntax unified
 1275              	@ 493 "../../../os/common/ext/ARM/CMSIS/Core/Include/cmsis_gcc.h" 1
 1276 002e 83F31188 		MSR basepri, r3
 1277              	@ 0 "" 2
 1278              	.LVL68:
 1279              		.loc 2 493 3 is_stmt 0 view .LVU418
 1280              		.thumb
 1281              		.syntax unified
 1282              	.LBE286:
 1283              	.LBE288:
 1284              	.LBE290:
 1285              	.LBE292:
 1286              	.LBE295:
 1287              		.loc 1 357 3 is_stmt 1 view .LVU419
 1288              		.loc 1 358 1 is_stmt 0 view .LVU420
 1289 0032 10BD     		pop	{r4, pc}
 1290              	.LVL69:
 1291              	.L54:
 1292              	.LBB296:
 1293              	.LBB280:
 1294              		.loc 1 329 12 view .LVU421
 1295 0034 0020     		movs	r0, #0
 1296              	.LVL70:
 1297              		.loc 1 329 12 view .LVU422
 1298              	.LBE280:
 1299              	.LBE296:
 1300              		.loc 1 355 3 is_stmt 1 view .LVU423
 1301              	.LBB297:
 1302              		.loc 4 386 20 view .LVU424
 1303              	.LBB293:
 1304              		.loc 4 388 23 view .LVU425
 1305              		.loc 4 389 34 view .LVU426
 1306              		.loc 4 395 3 view .LVU427
 1307              		.loc 4 395 3 view .LVU428
 1308              		.loc 4 395 3 view .LVU429
 1309              		.loc 4 399 3 view .LVU430
 1310              	.LBB291:
 1311              		.loc 5 864 27 view .LVU431
ARM GAS  C:\Users\DEVELO~1\AppData\Local\Temp\ccbUxIoi.s 			page 24


 1312              		.loc 5 867 3 view .LVU432
 1313              	.LBB289:
 1314              		.loc 2 491 27 view .LVU433
 1315              	.LBB287:
 1316              		.loc 2 493 3 view .LVU434
 1317 0036 0023     		movs	r3, #0
 1318              		.syntax unified
 1319              	@ 493 "../../../os/common/ext/ARM/CMSIS/Core/Include/cmsis_gcc.h" 1
 1320 0038 83F31188 		MSR basepri, r3
 1321              	@ 0 "" 2
 1322              	.LVL71:
 1323              		.loc 2 493 3 is_stmt 0 view .LVU435
 1324              		.thumb
 1325              		.syntax unified
 1326              	.LBE287:
 1327              	.LBE289:
 1328              	.LBE291:
 1329              	.LBE293:
 1330              	.LBE297:
 1331              		.loc 1 357 3 is_stmt 1 view .LVU436
 1332              		.loc 1 358 1 is_stmt 0 view .LVU437
 1333 003c 10BD     		pop	{r4, pc}
 1334              		.loc 1 358 1 view .LVU438
 1335              		.cfi_endproc
 1336              	.LFE363:
 1337              		.size	chGuardedPoolAllocTimeout, .-chGuardedPoolAllocTimeout
 1338 003e 00BF     		.section	.text.chGuardedPoolFree,"ax",%progbits
 1339              		.align	1
 1340              		.p2align 2,,3
 1341              		.global	chGuardedPoolFree
 1342              		.syntax unified
 1343              		.thumb
 1344              		.thumb_func
 1345              		.type	chGuardedPoolFree, %function
 1346              	chGuardedPoolFree:
 1347              	.LVL72:
 1348              	.LFB364:
 1349              		.loc 1 372 64 is_stmt 1 view -0
 1350              		.cfi_startproc
 1351              		@ args = 0, pretend = 0, frame = 0
 1352              		@ frame_needed = 0, uses_anonymous_args = 0
 1353              		.loc 1 374 3 view .LVU440
 1354              	.LBB298:
 1355              	.LBI298:
 1356              		.loc 4 372 20 view .LVU441
 1357              		.loc 4 374 3 view .LVU442
 1358              	.LBB299:
 1359              	.LBI299:
 1360              		.loc 5 840 27 view .LVU443
 1361              		.loc 5 848 3 view .LVU444
 1362              	.LBB300:
 1363              	.LBI300:
 1364              		.loc 2 491 27 view .LVU445
 1365              	.LBB301:
 1366              		.loc 2 493 3 view .LVU446
 1367 0000 3022     		movs	r2, #48
 1368              	.LBE301:
ARM GAS  C:\Users\DEVELO~1\AppData\Local\Temp\ccbUxIoi.s 			page 25


 1369              	.LBE300:
 1370              	.LBE299:
 1371              	.LBE298:
 1372              		.loc 1 372 64 is_stmt 0 view .LVU447
 1373 0002 08B5     		push	{r3, lr}
 1374              		.cfi_def_cfa_offset 8
 1375              		.cfi_offset 3, -8
 1376              		.cfi_offset 14, -4
 1377              	.LBB305:
 1378              	.LBB304:
 1379              	.LBB303:
 1380              	.LBB302:
 1381              		.loc 2 493 3 view .LVU448
 1382              		.syntax unified
 1383              	@ 493 "../../../os/common/ext/ARM/CMSIS/Core/Include/cmsis_gcc.h" 1
 1384 0004 82F31188 		MSR basepri, r2
 1385              	@ 0 "" 2
 1386              	.LVL73:
 1387              		.loc 2 493 3 view .LVU449
 1388              		.thumb
 1389              		.syntax unified
 1390              	.LBE302:
 1391              	.LBE303:
 1392              	.LBE304:
 1393              		.loc 4 375 35 is_stmt 1 view .LVU450
 1394              		.loc 4 376 21 view .LVU451
 1395              	.LBE305:
 1396              		.loc 1 375 3 view .LVU452
 1397              	.LBB306:
 1398              	.LBI306:
 1399              		.loc 3 304 20 view .LVU453
 1400              	.LBB307:
 1401              		.loc 3 306 3 view .LVU454
 1402              	.LBB308:
 1403              	.LBI308:
 1404              		.loc 1 209 6 view .LVU455
 1405              	.LBB309:
 1406              		.loc 1 210 3 view .LVU456
 1407              		.loc 1 212 21 view .LVU457
 1408              		.loc 1 213 3 view .LVU458
 1409              		.loc 1 213 3 view .LVU459
 1410              		.loc 1 213 3 view .LVU460
 1411              		.loc 1 217 3 view .LVU461
 1412              		.loc 1 217 13 is_stmt 0 view .LVU462
 1413 0008 C268     		ldr	r2, [r0, #12]
 1414 000a 0A60     		str	r2, [r1]
 1415              		.loc 1 218 3 is_stmt 1 view .LVU463
 1416              		.loc 1 218 12 is_stmt 0 view .LVU464
 1417 000c C160     		str	r1, [r0, #12]
 1418              	.LVL74:
 1419              		.loc 1 218 12 view .LVU465
 1420              	.LBE309:
 1421              	.LBE308:
 1422              		.loc 3 307 3 is_stmt 1 view .LVU466
 1423 000e FFF7FEFF 		bl	chSemSignalI
 1424              	.LVL75:
 1425              		.loc 3 307 3 is_stmt 0 view .LVU467
ARM GAS  C:\Users\DEVELO~1\AppData\Local\Temp\ccbUxIoi.s 			page 26


 1426              	.LBE307:
 1427              	.LBE306:
 1428              		.loc 1 376 3 is_stmt 1 view .LVU468
 1429 0012 FFF7FEFF 		bl	chSchRescheduleS
 1430              	.LVL76:
 1431              		.loc 1 377 3 view .LVU469
 1432              	.LBB310:
 1433              	.LBI310:
 1434              		.loc 4 386 20 view .LVU470
 1435              	.LBB311:
 1436              		.loc 4 388 23 view .LVU471
 1437              		.loc 4 389 34 view .LVU472
 1438              		.loc 4 395 3 view .LVU473
 1439              		.loc 4 395 3 view .LVU474
 1440              		.loc 4 395 3 view .LVU475
 1441              		.loc 4 399 3 view .LVU476
 1442              	.LBB312:
 1443              	.LBI312:
 1444              		.loc 5 864 27 view .LVU477
 1445              		.loc 5 867 3 view .LVU478
 1446              	.LBB313:
 1447              	.LBI313:
 1448              		.loc 2 491 27 view .LVU479
 1449              	.LBB314:
 1450              		.loc 2 493 3 view .LVU480
 1451 0016 0023     		movs	r3, #0
 1452              		.syntax unified
 1453              	@ 493 "../../../os/common/ext/ARM/CMSIS/Core/Include/cmsis_gcc.h" 1
 1454 0018 83F31188 		MSR basepri, r3
 1455              	@ 0 "" 2
 1456              	.LVL77:
 1457              		.loc 2 493 3 is_stmt 0 view .LVU481
 1458              		.thumb
 1459              		.syntax unified
 1460              	.LBE314:
 1461              	.LBE313:
 1462              	.LBE312:
 1463              	.LBE311:
 1464              	.LBE310:
 1465              		.loc 1 378 1 view .LVU482
 1466 001c 08BD     		pop	{r3, pc}
 1467              		.cfi_endproc
 1468              	.LFE364:
 1469              		.size	chGuardedPoolFree, .-chGuardedPoolFree
 1470 001e 00BF     		.text
 1471              	.Letext0:
 1472              		.file 6 "c:\\chibistudio\\tools\\gnu tools arm embedded\\11.3 2022.08\\lib\\gcc\\arm-none-eabi\\11
 1473              		.file 7 "c:\\chibistudio\\tools\\gnu tools arm embedded\\11.3 2022.08\\arm-none-eabi\\include\\mac
 1474              		.file 8 "c:\\chibistudio\\tools\\gnu tools arm embedded\\11.3 2022.08\\arm-none-eabi\\include\\sys
 1475              		.file 9 "../../../os/rt/include/chearly.h"
 1476              		.file 10 "../../../os/rt/include/chtime.h"
 1477              		.file 11 "../../../os/rt/include/chlists.h"
 1478              		.file 12 "../../../os/rt/include/chsem.h"
 1479              		.file 13 "../../../os/oslib/include/chmemcore.h"
 1480              		.file 14 "../../../os/rt/include/chschd.h"