ARM GAS  C:\Users\DEVELO~1\AppData\Local\Temp\ccLnAmLl.s 			page 1


   1              		.cpu cortex-m7
   2              		.arch armv7e-m
   3              		.fpu fpv5-d16
   4              		.eabi_attribute 28, 1
   5              		.eabi_attribute 20, 1
   6              		.eabi_attribute 21, 1
   7              		.eabi_attribute 23, 3
   8              		.eabi_attribute 24, 1
   9              		.eabi_attribute 25, 1
  10              		.eabi_attribute 26, 1
  11              		.eabi_attribute 30, 2
  12              		.eabi_attribute 34, 1
  13              		.eabi_attribute 18, 4
  14              		.file	"chmemcore.c"
  15              		.text
  16              	.Ltext0:
  17              		.cfi_sections	.debug_frame
  18              		.section	.text.__core_init,"ax",%progbits
  19              		.align	1
  20              		.p2align 2,,3
  21              		.global	__core_init
  22              		.syntax unified
  23              		.thumb
  24              		.thumb_func
  25              		.type	__core_init, %function
  26              	__core_init:
  27              	.LFB352:
  28              		.file 1 "../../../os/oslib/src/chmemcore.c"
  29              		.loc 1 81 24 view -0
  30              		.cfi_startproc
  31              		@ args = 0, pretend = 0, frame = 0
  32              		@ frame_needed = 0, uses_anonymous_args = 0
  33              		@ link register save eliminated.
  34              		.loc 1 83 3 view .LVU1
  35              		.loc 1 84 3 view .LVU2
  36              		.loc 1 87 3 view .LVU3
  37              		.loc 1 87 22 is_stmt 0 view .LVU4
  38 0000 024B     		ldr	r3, .L3
  39 0002 0349     		ldr	r1, .L3+4
  40              		.loc 1 88 22 view .LVU5
  41 0004 034A     		ldr	r2, .L3+8
  42 0006 C3E90012 		strd	r1, r2, [r3]
  43              		.loc 1 96 1 view .LVU6
  44 000a 7047     		bx	lr
  45              	.L4:
  46              		.align	2
  47              	.L3:
  48 000c 00000000 		.word	.LANCHOR0
  49 0010 00000000 		.word	__heap_base__
  50 0014 00000000 		.word	__heap_end__
  51              		.cfi_endproc
  52              	.LFE352:
  53              		.size	__core_init, .-__core_init
  54              		.section	.text.chCoreAllocFromBaseI,"ax",%progbits
  55              		.align	1
  56              		.p2align 2,,3
  57              		.global	chCoreAllocFromBaseI
ARM GAS  C:\Users\DEVELO~1\AppData\Local\Temp\ccLnAmLl.s 			page 2


  58              		.syntax unified
  59              		.thumb
  60              		.thumb_func
  61              		.type	chCoreAllocFromBaseI, %function
  62              	chCoreAllocFromBaseI:
  63              	.LVL0:
  64              	.LFB353:
  65              		.loc 1 112 72 is_stmt 1 view -0
  66              		.cfi_startproc
  67              		@ args = 0, pretend = 0, frame = 0
  68              		@ frame_needed = 0, uses_anonymous_args = 0
  69              		@ link register save eliminated.
  70              		.loc 1 113 3 view .LVU8
  71              		.loc 1 115 21 view .LVU9
  72              		.loc 1 116 3 view .LVU10
  73              		.loc 1 116 3 view .LVU11
  74              		.loc 1 116 3 view .LVU12
  75              		.loc 1 118 3 view .LVU13
  76              		.loc 1 118 18 is_stmt 0 view .LVU14
  77 0000 0C4B     		ldr	r3, .L9
  78 0002 01F1FF3C 		add	ip, r1, #-1
  79 0006 4942     		rsbs	r1, r1, #0
  80              	.LVL1:
  81              		.loc 1 112 72 view .LVU15
  82 0008 10B4     		push	{r4}
  83              		.cfi_def_cfa_offset 4
  84              		.cfi_offset 4, -4
  85              		.loc 1 118 18 view .LVU16
  86 000a 1C68     		ldr	r4, [r3]
  87 000c 2244     		add	r2, r2, r4
  88              	.LVL2:
  89              		.loc 1 118 18 view .LVU17
  90 000e 6244     		add	r2, r2, ip
  91 0010 0A40     		ands	r2, r2, r1
  92              	.LVL3:
  93              		.loc 1 119 3 is_stmt 1 view .LVU18
  94              		.loc 1 122 6 is_stmt 0 view .LVU19
  95 0012 5968     		ldr	r1, [r3, #4]
  96              	.LVL4:
  97              		.loc 1 119 8 view .LVU20
  98 0014 1044     		add	r0, r0, r2
  99              	.LVL5:
 100              		.loc 1 122 3 is_stmt 1 view .LVU21
 101              		.loc 1 122 34 is_stmt 0 view .LVU22
 102 0016 8842     		cmp	r0, r1
 103 0018 06D8     		bhi	.L7
 104 001a A042     		cmp	r0, r4
 105 001c 04D3     		bcc	.L7
 106              		.loc 1 126 3 is_stmt 1 view .LVU23
 107              		.loc 1 126 22 is_stmt 0 view .LVU24
 108 001e 1860     		str	r0, [r3]
 109              		.loc 1 128 3 is_stmt 1 view .LVU25
 110              		.loc 1 129 1 is_stmt 0 view .LVU26
 111 0020 1046     		mov	r0, r2
 112              	.LVL6:
 113              		.loc 1 129 1 view .LVU27
 114 0022 5DF8044B 		ldr	r4, [sp], #4
ARM GAS  C:\Users\DEVELO~1\AppData\Local\Temp\ccLnAmLl.s 			page 3


 115              		.cfi_remember_state
 116              		.cfi_restore 4
 117              		.cfi_def_cfa_offset 0
 118 0026 7047     		bx	lr
 119              	.LVL7:
 120              	.L7:
 121              		.cfi_restore_state
 122              		.loc 1 123 12 view .LVU28
 123 0028 0022     		movs	r2, #0
 124              	.LVL8:
 125              		.loc 1 129 1 view .LVU29
 126 002a 5DF8044B 		ldr	r4, [sp], #4
 127              		.cfi_restore 4
 128              		.cfi_def_cfa_offset 0
 129              	.LVL9:
 130              		.loc 1 129 1 view .LVU30
 131 002e 1046     		mov	r0, r2
 132              	.LVL10:
 133              		.loc 1 129 1 view .LVU31
 134 0030 7047     		bx	lr
 135              	.L10:
 136 0032 00BF     		.align	2
 137              	.L9:
 138 0034 00000000 		.word	.LANCHOR0
 139              		.cfi_endproc
 140              	.LFE353:
 141              		.size	chCoreAllocFromBaseI, .-chCoreAllocFromBaseI
 142              		.section	.text.chCoreAllocFromTopI,"ax",%progbits
 143              		.align	1
 144              		.p2align 2,,3
 145              		.global	chCoreAllocFromTopI
 146              		.syntax unified
 147              		.thumb
 148              		.thumb_func
 149              		.type	chCoreAllocFromTopI, %function
 150              	chCoreAllocFromTopI:
 151              	.LVL11:
 152              	.LFB354:
 153              		.loc 1 145 71 is_stmt 1 view -0
 154              		.cfi_startproc
 155              		@ args = 0, pretend = 0, frame = 0
 156              		@ frame_needed = 0, uses_anonymous_args = 0
 157              		@ link register save eliminated.
 158              		.loc 1 146 3 view .LVU33
 159              		.loc 1 148 21 view .LVU34
 160              		.loc 1 149 3 view .LVU35
 161              		.loc 1 149 3 view .LVU36
 162              		.loc 1 149 3 view .LVU37
 163              		.loc 1 151 3 view .LVU38
 164              		.loc 1 151 18 is_stmt 0 view .LVU39
 165 0000 094B     		ldr	r3, .L15
 166 0002 4942     		rsbs	r1, r1, #0
 167              	.LVL12:
 168              		.loc 1 145 71 view .LVU40
 169 0004 10B4     		push	{r4}
 170              		.cfi_def_cfa_offset 4
 171              		.cfi_offset 4, -4
ARM GAS  C:\Users\DEVELO~1\AppData\Local\Temp\ccLnAmLl.s 			page 4


 172              		.loc 1 151 18 view .LVU41
 173 0006 5C68     		ldr	r4, [r3, #4]
 174 0008 201A     		subs	r0, r4, r0
 175              	.LVL13:
 176              		.loc 1 151 5 view .LVU42
 177 000a 0840     		ands	r0, r0, r1
 178              	.LVL14:
 179              		.loc 1 152 3 is_stmt 1 view .LVU43
 180              		.loc 1 155 6 is_stmt 0 view .LVU44
 181 000c 1968     		ldr	r1, [r3]
 182              	.LVL15:
 183              		.loc 1 152 8 view .LVU45
 184 000e 821A     		subs	r2, r0, r2
 185              	.LVL16:
 186              		.loc 1 155 3 is_stmt 1 view .LVU46
 187              		.loc 1 155 35 is_stmt 0 view .LVU47
 188 0010 8A42     		cmp	r2, r1
 189 0012 05D3     		bcc	.L13
 190 0014 A242     		cmp	r2, r4
 191 0016 03D8     		bhi	.L13
 192              		.loc 1 159 3 is_stmt 1 view .LVU48
 193              		.loc 1 162 1 is_stmt 0 view .LVU49
 194 0018 5DF8044B 		ldr	r4, [sp], #4
 195              		.cfi_remember_state
 196              		.cfi_restore 4
 197              		.cfi_def_cfa_offset 0
 198              		.loc 1 159 21 view .LVU50
 199 001c 5A60     		str	r2, [r3, #4]
 200              		.loc 1 161 3 is_stmt 1 view .LVU51
 201              		.loc 1 162 1 is_stmt 0 view .LVU52
 202 001e 7047     		bx	lr
 203              	.L13:
 204              		.cfi_restore_state
 205              		.loc 1 156 12 view .LVU53
 206 0020 0020     		movs	r0, #0
 207              	.LVL17:
 208              		.loc 1 162 1 view .LVU54
 209 0022 5DF8044B 		ldr	r4, [sp], #4
 210              		.cfi_restore 4
 211              		.cfi_def_cfa_offset 0
 212              	.LVL18:
 213              		.loc 1 162 1 view .LVU55
 214 0026 7047     		bx	lr
 215              	.L16:
 216              		.align	2
 217              	.L15:
 218 0028 00000000 		.word	.LANCHOR0
 219              		.cfi_endproc
 220              	.LFE354:
 221              		.size	chCoreAllocFromTopI, .-chCoreAllocFromTopI
 222              		.section	.text.chCoreAllocFromBase,"ax",%progbits
 223              		.align	1
 224              		.p2align 2,,3
 225              		.global	chCoreAllocFromBase
 226              		.syntax unified
 227              		.thumb
 228              		.thumb_func
ARM GAS  C:\Users\DEVELO~1\AppData\Local\Temp\ccLnAmLl.s 			page 5


 229              		.type	chCoreAllocFromBase, %function
 230              	chCoreAllocFromBase:
 231              	.LVL19:
 232              	.LFB355:
 233              		.loc 1 178 71 is_stmt 1 view -0
 234              		.cfi_startproc
 235              		@ args = 0, pretend = 0, frame = 0
 236              		@ frame_needed = 0, uses_anonymous_args = 0
 237              		@ link register save eliminated.
 238              		.loc 1 179 3 view .LVU57
 239              		.loc 1 181 3 view .LVU58
 240              	.LBB45:
 241              	.LBI45:
 242              		.file 2 "../../../os/rt/include/chsys.h"
 243              		.loc 2 372 20 view .LVU59
 244              		.loc 2 374 3 view .LVU60
 245              	.LBB46:
 246              	.LBI46:
 247              		.file 3 "../../../os/common/ports/ARMv7-M/chcore.h"
 248              		.loc 3 840 27 view .LVU61
 249              		.loc 3 848 3 view .LVU62
 250              	.LBB47:
 251              	.LBI47:
 252              		.file 4 "../../../os/common/ext/ARM/CMSIS/Core/Include/cmsis_gcc.h"
 253              		.loc 4 491 27 view .LVU63
 254              	.LBB48:
 255              		.loc 4 493 3 view .LVU64
 256 0000 3023     		movs	r3, #48
 257              	.LBE48:
 258              	.LBE47:
 259              	.LBE46:
 260              	.LBE45:
 261              		.loc 1 178 71 is_stmt 0 view .LVU65
 262 0002 30B4     		push	{r4, r5}
 263              		.cfi_def_cfa_offset 8
 264              		.cfi_offset 4, -8
 265              		.cfi_offset 5, -4
 266              	.LBB52:
 267              	.LBB51:
 268              	.LBB50:
 269              	.LBB49:
 270              		.loc 4 493 3 view .LVU66
 271              		.syntax unified
 272              	@ 493 "../../../os/common/ext/ARM/CMSIS/Core/Include/cmsis_gcc.h" 1
 273 0004 83F31188 		MSR basepri, r3
 274              	@ 0 "" 2
 275              	.LVL20:
 276              		.loc 4 493 3 view .LVU67
 277              		.thumb
 278              		.syntax unified
 279              	.LBE49:
 280              	.LBE50:
 281              	.LBE51:
 282              		.loc 2 375 35 is_stmt 1 view .LVU68
 283              		.loc 2 376 21 view .LVU69
 284              	.LBE52:
 285              		.loc 1 182 3 view .LVU70
ARM GAS  C:\Users\DEVELO~1\AppData\Local\Temp\ccLnAmLl.s 			page 6


 286              	.LBB53:
 287              	.LBI53:
 288              		.loc 1 112 7 view .LVU71
 289              	.LBB54:
 290              		.loc 1 113 3 view .LVU72
 291              		.loc 1 115 21 view .LVU73
 292              		.loc 1 116 3 view .LVU74
 293              		.loc 1 116 3 view .LVU75
 294              		.loc 1 116 3 view .LVU76
 295              		.loc 1 118 3 view .LVU77
 296              		.loc 1 118 18 is_stmt 0 view .LVU78
 297 0008 0D4C     		ldr	r4, .L21
 298 000a 2568     		ldr	r5, [r4]
 299 000c AB18     		adds	r3, r5, r2
 300 000e 4A1E     		subs	r2, r1, #1
 301              	.LVL21:
 302              		.loc 1 118 18 view .LVU79
 303 0010 4942     		rsbs	r1, r1, #0
 304              	.LVL22:
 305              		.loc 1 118 18 view .LVU80
 306 0012 1344     		add	r3, r3, r2
 307              		.loc 1 122 6 view .LVU81
 308 0014 6268     		ldr	r2, [r4, #4]
 309              		.loc 1 118 18 view .LVU82
 310 0016 0B40     		ands	r3, r3, r1
 311              	.LVL23:
 312              		.loc 1 119 3 is_stmt 1 view .LVU83
 313              		.loc 1 119 8 is_stmt 0 view .LVU84
 314 0018 1844     		add	r0, r0, r3
 315              	.LVL24:
 316              		.loc 1 122 3 is_stmt 1 view .LVU85
 317              		.loc 1 122 34 is_stmt 0 view .LVU86
 318 001a 9042     		cmp	r0, r2
 319 001c 08D8     		bhi	.L19
 320 001e 8542     		cmp	r5, r0
 321 0020 06D8     		bhi	.L19
 322              		.loc 1 126 3 is_stmt 1 view .LVU87
 323              	.LBE54:
 324              	.LBE53:
 325              	.LBB57:
 326              	.LBB58:
 327              	.LBB59:
 328              	.LBB60:
 329              	.LBB61:
 330              		.loc 4 493 3 is_stmt 0 view .LVU88
 331 0022 0022     		movs	r2, #0
 332              	.LBE61:
 333              	.LBE60:
 334              	.LBE59:
 335              	.LBE58:
 336              	.LBE57:
 337              	.LBB70:
 338              	.LBB55:
 339              		.loc 1 126 22 view .LVU89
 340 0024 2060     		str	r0, [r4]
 341              		.loc 1 128 3 is_stmt 1 view .LVU90
 342              	.LVL25:
ARM GAS  C:\Users\DEVELO~1\AppData\Local\Temp\ccLnAmLl.s 			page 7


 343              		.loc 1 128 3 is_stmt 0 view .LVU91
 344              	.LBE55:
 345              	.LBE70:
 346              		.loc 1 183 3 is_stmt 1 view .LVU92
 347              	.LBB71:
 348              	.LBI57:
 349              		.loc 2 386 20 view .LVU93
 350              	.LBB68:
 351              		.loc 2 388 23 view .LVU94
 352              		.loc 2 389 34 view .LVU95
 353              		.loc 2 395 3 view .LVU96
 354              		.loc 2 395 3 view .LVU97
 355              		.loc 2 395 3 view .LVU98
 356              		.loc 2 399 3 view .LVU99
 357              	.LBB66:
 358              	.LBI59:
 359              		.loc 3 864 27 view .LVU100
 360              		.loc 3 867 3 view .LVU101
 361              	.LBB64:
 362              	.LBI60:
 363              		.loc 4 491 27 view .LVU102
 364              	.LBB62:
 365              		.loc 4 493 3 view .LVU103
 366              		.syntax unified
 367              	@ 493 "../../../os/common/ext/ARM/CMSIS/Core/Include/cmsis_gcc.h" 1
 368 0026 82F31188 		MSR basepri, r2
 369              	@ 0 "" 2
 370              	.LVL26:
 371              		.loc 4 493 3 is_stmt 0 view .LVU104
 372              		.thumb
 373              		.syntax unified
 374              	.LBE62:
 375              	.LBE64:
 376              	.LBE66:
 377              	.LBE68:
 378              	.LBE71:
 379              		.loc 1 185 3 is_stmt 1 view .LVU105
 380              		.loc 1 186 1 is_stmt 0 view .LVU106
 381 002a 1846     		mov	r0, r3
 382 002c 30BC     		pop	{r4, r5}
 383              		.cfi_remember_state
 384              		.cfi_restore 5
 385              		.cfi_restore 4
 386              		.cfi_def_cfa_offset 0
 387 002e 7047     		bx	lr
 388              	.LVL27:
 389              	.L19:
 390              		.cfi_restore_state
 391              	.LBB72:
 392              	.LBB56:
 393              		.loc 1 123 12 view .LVU107
 394 0030 0023     		movs	r3, #0
 395              	.LVL28:
 396              		.loc 1 123 12 view .LVU108
 397              	.LBE56:
 398              	.LBE72:
 399              		.loc 1 183 3 is_stmt 1 view .LVU109
ARM GAS  C:\Users\DEVELO~1\AppData\Local\Temp\ccLnAmLl.s 			page 8


 400              	.LBB73:
 401              		.loc 2 386 20 view .LVU110
 402              	.LBB69:
 403              		.loc 2 388 23 view .LVU111
 404              		.loc 2 389 34 view .LVU112
 405              		.loc 2 395 3 view .LVU113
 406              		.loc 2 395 3 view .LVU114
 407              		.loc 2 395 3 view .LVU115
 408              		.loc 2 399 3 view .LVU116
 409              	.LBB67:
 410              		.loc 3 864 27 view .LVU117
 411              		.loc 3 867 3 view .LVU118
 412              	.LBB65:
 413              		.loc 4 491 27 view .LVU119
 414              	.LBB63:
 415              		.loc 4 493 3 view .LVU120
 416 0032 0022     		movs	r2, #0
 417              		.syntax unified
 418              	@ 493 "../../../os/common/ext/ARM/CMSIS/Core/Include/cmsis_gcc.h" 1
 419 0034 82F31188 		MSR basepri, r2
 420              	@ 0 "" 2
 421              	.LVL29:
 422              		.loc 4 493 3 is_stmt 0 view .LVU121
 423              		.thumb
 424              		.syntax unified
 425              	.LBE63:
 426              	.LBE65:
 427              	.LBE67:
 428              	.LBE69:
 429              	.LBE73:
 430              		.loc 1 185 3 is_stmt 1 view .LVU122
 431              		.loc 1 186 1 is_stmt 0 view .LVU123
 432 0038 1846     		mov	r0, r3
 433 003a 30BC     		pop	{r4, r5}
 434              		.cfi_restore 5
 435              		.cfi_restore 4
 436              		.cfi_def_cfa_offset 0
 437 003c 7047     		bx	lr
 438              	.L22:
 439 003e 00BF     		.align	2
 440              	.L21:
 441 0040 00000000 		.word	.LANCHOR0
 442              		.cfi_endproc
 443              	.LFE355:
 444              		.size	chCoreAllocFromBase, .-chCoreAllocFromBase
 445              		.section	.text.chCoreAllocFromTop,"ax",%progbits
 446              		.align	1
 447              		.p2align 2,,3
 448              		.global	chCoreAllocFromTop
 449              		.syntax unified
 450              		.thumb
 451              		.thumb_func
 452              		.type	chCoreAllocFromTop, %function
 453              	chCoreAllocFromTop:
 454              	.LVL30:
 455              	.LFB356:
 456              		.loc 1 202 70 is_stmt 1 view -0
ARM GAS  C:\Users\DEVELO~1\AppData\Local\Temp\ccLnAmLl.s 			page 9


 457              		.cfi_startproc
 458              		@ args = 0, pretend = 0, frame = 0
 459              		@ frame_needed = 0, uses_anonymous_args = 0
 460              		@ link register save eliminated.
 461              		.loc 1 203 3 view .LVU125
 462              		.loc 1 205 3 view .LVU126
 463              	.LBB85:
 464              	.LBI85:
 465              		.loc 2 372 20 view .LVU127
 466              		.loc 2 374 3 view .LVU128
 467              	.LBB86:
 468              	.LBI86:
 469              		.loc 3 840 27 view .LVU129
 470              		.loc 3 848 3 view .LVU130
 471              	.LBB87:
 472              	.LBI87:
 473              		.loc 4 491 27 view .LVU131
 474              	.LBB88:
 475              		.loc 4 493 3 view .LVU132
 476 0000 3023     		movs	r3, #48
 477              	.LBE88:
 478              	.LBE87:
 479              	.LBE86:
 480              	.LBE85:
 481              		.loc 1 202 70 is_stmt 0 view .LVU133
 482 0002 10B4     		push	{r4}
 483              		.cfi_def_cfa_offset 4
 484              		.cfi_offset 4, -4
 485              	.LBB92:
 486              	.LBB91:
 487              	.LBB90:
 488              	.LBB89:
 489              		.loc 4 493 3 view .LVU134
 490              		.syntax unified
 491              	@ 493 "../../../os/common/ext/ARM/CMSIS/Core/Include/cmsis_gcc.h" 1
 492 0004 83F31188 		MSR basepri, r3
 493              	@ 0 "" 2
 494              	.LVL31:
 495              		.loc 4 493 3 view .LVU135
 496              		.thumb
 497              		.syntax unified
 498              	.LBE89:
 499              	.LBE90:
 500              	.LBE91:
 501              		.loc 2 375 35 is_stmt 1 view .LVU136
 502              		.loc 2 376 21 view .LVU137
 503              	.LBE92:
 504              		.loc 1 206 3 view .LVU138
 505              	.LBB93:
 506              	.LBI93:
 507              		.loc 1 145 7 view .LVU139
 508              	.LBB94:
 509              		.loc 1 146 3 view .LVU140
 510              		.loc 1 148 21 view .LVU141
 511              		.loc 1 149 3 view .LVU142
 512              		.loc 1 149 3 view .LVU143
 513              		.loc 1 149 3 view .LVU144
ARM GAS  C:\Users\DEVELO~1\AppData\Local\Temp\ccLnAmLl.s 			page 10


 514              		.loc 1 151 3 view .LVU145
 515              		.loc 1 151 18 is_stmt 0 view .LVU146
 516 0008 0C4B     		ldr	r3, .L27
 517 000a 4942     		rsbs	r1, r1, #0
 518              	.LVL32:
 519              		.loc 1 151 18 view .LVU147
 520 000c 5C68     		ldr	r4, [r3, #4]
 521 000e 201A     		subs	r0, r4, r0
 522              	.LVL33:
 523              		.loc 1 151 5 view .LVU148
 524 0010 0840     		ands	r0, r0, r1
 525              	.LVL34:
 526              		.loc 1 152 3 is_stmt 1 view .LVU149
 527              		.loc 1 155 6 is_stmt 0 view .LVU150
 528 0012 1968     		ldr	r1, [r3]
 529              	.LVL35:
 530              		.loc 1 152 8 view .LVU151
 531 0014 821A     		subs	r2, r0, r2
 532              	.LVL36:
 533              		.loc 1 155 3 is_stmt 1 view .LVU152
 534              		.loc 1 155 35 is_stmt 0 view .LVU153
 535 0016 8A42     		cmp	r2, r1
 536 0018 08D3     		bcc	.L25
 537 001a 9442     		cmp	r4, r2
 538 001c 06D3     		bcc	.L25
 539              		.loc 1 159 3 is_stmt 1 view .LVU154
 540              		.loc 1 159 21 is_stmt 0 view .LVU155
 541 001e 5A60     		str	r2, [r3, #4]
 542              		.loc 1 161 3 is_stmt 1 view .LVU156
 543              	.LVL37:
 544              		.loc 1 161 3 is_stmt 0 view .LVU157
 545              	.LBE94:
 546              	.LBE93:
 547              		.loc 1 207 3 is_stmt 1 view .LVU158
 548              	.LBB96:
 549              	.LBI96:
 550              		.loc 2 386 20 view .LVU159
 551              	.LBB97:
 552              		.loc 2 388 23 view .LVU160
 553              		.loc 2 389 34 view .LVU161
 554              		.loc 2 395 3 view .LVU162
 555              		.loc 2 395 3 view .LVU163
 556              		.loc 2 395 3 view .LVU164
 557              		.loc 2 399 3 view .LVU165
 558              	.LBB98:
 559              	.LBI98:
 560              		.loc 3 864 27 view .LVU166
 561              		.loc 3 867 3 view .LVU167
 562              	.LBB99:
 563              	.LBI99:
 564              		.loc 4 491 27 view .LVU168
 565              	.LBB100:
 566              		.loc 4 493 3 view .LVU169
 567 0020 0023     		movs	r3, #0
 568              		.syntax unified
 569              	@ 493 "../../../os/common/ext/ARM/CMSIS/Core/Include/cmsis_gcc.h" 1
 570 0022 83F31188 		MSR basepri, r3
ARM GAS  C:\Users\DEVELO~1\AppData\Local\Temp\ccLnAmLl.s 			page 11


 571              	@ 0 "" 2
 572              	.LVL38:
 573              		.loc 4 493 3 is_stmt 0 view .LVU170
 574              		.thumb
 575              		.syntax unified
 576              	.LBE100:
 577              	.LBE99:
 578              	.LBE98:
 579              	.LBE97:
 580              	.LBE96:
 581              		.loc 1 209 3 is_stmt 1 view .LVU171
 582              		.loc 1 210 1 is_stmt 0 view .LVU172
 583 0026 5DF8044B 		ldr	r4, [sp], #4
 584              		.cfi_remember_state
 585              		.cfi_restore 4
 586              		.cfi_def_cfa_offset 0
 587 002a 7047     		bx	lr
 588              	.LVL39:
 589              	.L25:
 590              		.cfi_restore_state
 591              	.LBB105:
 592              	.LBB95:
 593              		.loc 1 156 12 view .LVU173
 594 002c 0020     		movs	r0, #0
 595              	.LVL40:
 596              		.loc 1 156 12 view .LVU174
 597              	.LBE95:
 598              	.LBE105:
 599              		.loc 1 207 3 is_stmt 1 view .LVU175
 600              	.LBB106:
 601              		.loc 2 386 20 view .LVU176
 602              	.LBB104:
 603              		.loc 2 388 23 view .LVU177
 604              		.loc 2 389 34 view .LVU178
 605              		.loc 2 395 3 view .LVU179
 606              		.loc 2 395 3 view .LVU180
 607              		.loc 2 395 3 view .LVU181
 608              		.loc 2 399 3 view .LVU182
 609              	.LBB103:
 610              		.loc 3 864 27 view .LVU183
 611              		.loc 3 867 3 view .LVU184
 612              	.LBB102:
 613              		.loc 4 491 27 view .LVU185
 614              	.LBB101:
 615              		.loc 4 493 3 view .LVU186
 616 002e 0023     		movs	r3, #0
 617              		.syntax unified
 618              	@ 493 "../../../os/common/ext/ARM/CMSIS/Core/Include/cmsis_gcc.h" 1
 619 0030 83F31188 		MSR basepri, r3
 620              	@ 0 "" 2
 621              	.LVL41:
 622              		.loc 4 493 3 is_stmt 0 view .LVU187
 623              		.thumb
 624              		.syntax unified
 625              	.LBE101:
 626              	.LBE102:
 627              	.LBE103:
ARM GAS  C:\Users\DEVELO~1\AppData\Local\Temp\ccLnAmLl.s 			page 12


 628              	.LBE104:
 629              	.LBE106:
 630              		.loc 1 209 3 is_stmt 1 view .LVU188
 631              		.loc 1 210 1 is_stmt 0 view .LVU189
 632 0034 5DF8044B 		ldr	r4, [sp], #4
 633              		.cfi_restore 4
 634              		.cfi_def_cfa_offset 0
 635 0038 7047     		bx	lr
 636              	.L28:
 637 003a 00BF     		.align	2
 638              	.L27:
 639 003c 00000000 		.word	.LANCHOR0
 640              		.cfi_endproc
 641              	.LFE356:
 642              		.size	chCoreAllocFromTop, .-chCoreAllocFromTop
 643              		.section	.text.chCoreGetStatusX,"ax",%progbits
 644              		.align	1
 645              		.p2align 2,,3
 646              		.global	chCoreGetStatusX
 647              		.syntax unified
 648              		.thumb
 649              		.thumb_func
 650              		.type	chCoreGetStatusX, %function
 651              	chCoreGetStatusX:
 652              	.LVL42:
 653              	.LFB357:
 654              		.loc 1 219 43 is_stmt 1 view -0
 655              		.cfi_startproc
 656              		@ args = 0, pretend = 0, frame = 0
 657              		@ frame_needed = 0, uses_anonymous_args = 0
 658              		@ link register save eliminated.
 659              		.loc 1 221 3 view .LVU191
 660              		.loc 1 221 25 is_stmt 0 view .LVU192
 661 0000 034B     		ldr	r3, .L30
 662              		.loc 1 223 42 view .LVU193
 663 0002 D3E90023 		ldrd	r2, r3, [r3]
 664 0006 9B1A     		subs	r3, r3, r2
 665              		.loc 1 223 13 view .LVU194
 666 0008 C0E90023 		strd	r2, r3, [r0]
 667              		.loc 1 225 1 view .LVU195
 668 000c 7047     		bx	lr
 669              	.L31:
 670 000e 00BF     		.align	2
 671              	.L30:
 672 0010 00000000 		.word	.LANCHOR0
 673              		.cfi_endproc
 674              	.LFE357:
 675              		.size	chCoreGetStatusX, .-chCoreGetStatusX
 676              		.global	ch_memcore
 677              		.section	.bss.ch_memcore,"aw",%nobits
 678              		.align	2
 679              		.set	.LANCHOR0,. + 0
 680              		.type	ch_memcore, %object
 681              		.size	ch_memcore, 8
 682              	ch_memcore:
 683 0000 00000000 		.space	8
 683      00000000 
ARM GAS  C:\Users\DEVELO~1\AppData\Local\Temp\ccLnAmLl.s 			page 13


 684              		.text
 685              	.Letext0:
 686              		.file 5 "c:\\chibistudio\\tools\\gnu tools arm embedded\\11.3 2022.08\\lib\\gcc\\arm-none-eabi\\11
 687              		.file 6 "c:\\chibistudio\\tools\\gnu tools arm embedded\\11.3 2022.08\\arm-none-eabi\\include\\mac
 688              		.file 7 "c:\\chibistudio\\tools\\gnu tools arm embedded\\11.3 2022.08\\arm-none-eabi\\include\\sys
 689              		.file 8 "../../../os/oslib/include/chmemchecks.h"
 690              		.file 9 "../../../os/oslib/include/chmemcore.h"