ARM GAS  C:\Users\DEVELO~1\AppData\Local\Temp\ccco2Nld.s 			page 1


   1              		.cpu cortex-m7
   2              		.arch armv7e-m
   3              		.fpu fpv5-d16
   4              		.eabi_attribute 28, 1
   5              		.eabi_attribute 20, 1
   6              		.eabi_attribute 21, 1
   7              		.eabi_attribute 23, 3
   8              		.eabi_attribute 24, 1
   9              		.eabi_attribute 25, 1
  10              		.eabi_attribute 26, 1
  11              		.eabi_attribute 30, 2
  12              		.eabi_attribute 34, 1
  13              		.eabi_attribute 18, 4
  14              		.file	"chmsg.c"
  15              		.text
  16              	.Ltext0:
  17              		.cfi_sections	.debug_frame
  18              		.section	.text.chMsgSend,"ax",%progbits
  19              		.align	1
  20              		.p2align 2,,3
  21              		.global	chMsgSend
  22              		.syntax unified
  23              		.thumb
  24              		.thumb_func
  25              		.type	chMsgSend, %function
  26              	chMsgSend:
  27              	.LVL0:
  28              	.LFB352:
  29              		.file 1 "../../../os/rt/src/chmsg.c"
  30              		.loc 1 85 42 view -0
  31              		.cfi_startproc
  32              		@ args = 0, pretend = 0, frame = 0
  33              		@ frame_needed = 0, uses_anonymous_args = 0
  34              		.loc 1 86 3 view .LVU1
  35              	.LBB58:
  36              	.LBI58:
  37              		.file 2 "../../../os/rt/include/chthreads.h"
  38              		.loc 2 527 25 view .LVU2
  39              	.LBB59:
  40              		.loc 2 529 3 view .LVU3
  41              	.LBE59:
  42              	.LBE58:
  43              		.loc 1 85 42 is_stmt 0 view .LVU4
  44 0000 38B5     		push	{r3, r4, r5, lr}
  45              		.cfi_def_cfa_offset 16
  46              		.cfi_offset 3, -16
  47              		.cfi_offset 4, -12
  48              		.cfi_offset 5, -8
  49              		.cfi_offset 14, -4
  50              	.LBB62:
  51              	.LBB60:
  52              		.loc 2 529 10 view .LVU5
  53 0002 0D4C     		ldr	r4, .L6
  54              	.LBE60:
  55              	.LBE62:
  56              	.LBB63:
  57              	.LBB64:
ARM GAS  C:\Users\DEVELO~1\AppData\Local\Temp\ccco2Nld.s 			page 2


  58              	.LBB65:
  59              	.LBB66:
  60              		.file 3 "../../../os/common/ext/ARM/CMSIS/Core/Include/cmsis_gcc.h"
  61              		.loc 3 493 3 view .LVU6
  62 0004 3022     		movs	r2, #48
  63              	.LBE66:
  64              	.LBE65:
  65              	.LBE64:
  66              	.LBE63:
  67              	.LBB70:
  68              	.LBB61:
  69              		.loc 2 529 10 view .LVU7
  70 0006 E468     		ldr	r4, [r4, #12]
  71              	.LVL1:
  72              		.loc 2 529 10 view .LVU8
  73              	.LBE61:
  74              	.LBE70:
  75              		.loc 1 88 3 is_stmt 1 view .LVU9
  76              		.loc 1 88 3 view .LVU10
  77              		.loc 1 88 3 view .LVU11
  78              		.loc 1 90 3 view .LVU12
  79              	.LBB71:
  80              	.LBI63:
  81              		.file 4 "../../../os/rt/include/chsys.h"
  82              		.loc 4 372 20 view .LVU13
  83              		.loc 4 374 3 view .LVU14
  84              	.LBB69:
  85              	.LBI64:
  86              		.file 5 "../../../os/common/ports/ARMv7-M/chcore.h"
  87              		.loc 5 840 27 view .LVU15
  88              		.loc 5 848 3 view .LVU16
  89              	.LBB68:
  90              	.LBI65:
  91              		.loc 3 491 27 view .LVU17
  92              	.LBB67:
  93              		.loc 3 493 3 view .LVU18
  94              		.syntax unified
  95              	@ 493 "../../../os/common/ext/ARM/CMSIS/Core/Include/cmsis_gcc.h" 1
  96 0008 82F31188 		MSR basepri, r2
  97              	@ 0 "" 2
  98              	.LVL2:
  99              		.loc 3 493 3 is_stmt 0 view .LVU19
 100              		.thumb
 101              		.syntax unified
 102              	.LBE67:
 103              	.LBE68:
 104              	.LBE69:
 105              		.loc 4 375 35 is_stmt 1 view .LVU20
 106              		.loc 4 376 21 view .LVU21
 107              	.LBE71:
 108              		.loc 1 91 3 view .LVU22
 109              	.LBB72:
 110              	.LBB73:
 111              		.file 6 "../../../os/rt/include/chlists.h"
 112              		.loc 6 325 21 is_stmt 0 view .LVU23
 113 000c 026C     		ldr	r2, [r0, #64]
 114              	.LBE73:
ARM GAS  C:\Users\DEVELO~1\AppData\Local\Temp\ccco2Nld.s 			page 3


 115              	.LBE72:
 116              		.loc 1 92 3 view .LVU24
 117 000e 00F13C05 		add	r5, r0, #60
 118              		.loc 1 91 21 view .LVU25
 119 0012 6163     		str	r1, [r4, #52]
 120              		.loc 1 92 3 is_stmt 1 view .LVU26
 121              	.LVL3:
 122              	.LBB76:
 123              	.LBI72:
 124              		.loc 6 322 20 view .LVU27
 125              	.LBB74:
 126              		.loc 6 324 3 view .LVU28
 127              		.loc 6 325 3 view .LVU29
 128              		.loc 6 324 17 is_stmt 0 view .LVU30
 129 0014 2560     		str	r5, [r4]
 130              		.loc 6 325 17 view .LVU31
 131 0016 6260     		str	r2, [r4, #4]
 132              		.loc 6 326 3 is_stmt 1 view .LVU32
 133              		.loc 6 326 17 is_stmt 0 view .LVU33
 134 0018 1460     		str	r4, [r2]
 135              		.loc 6 327 3 is_stmt 1 view .LVU34
 136              	.LBE74:
 137              	.LBE76:
 138              		.loc 1 93 6 is_stmt 0 view .LVU35
 139 001a 027F     		ldrb	r2, [r0, #28]	@ zero_extendqisi2
 140              	.LBB77:
 141              	.LBB75:
 142              		.loc 6 327 17 view .LVU36
 143 001c 0464     		str	r4, [r0, #64]
 144              	.LVL4:
 145              		.loc 6 327 17 view .LVU37
 146              	.LBE75:
 147              	.LBE77:
 148              		.loc 1 93 3 is_stmt 1 view .LVU38
 149              		.loc 1 93 6 is_stmt 0 view .LVU39
 150 001e 0E2A     		cmp	r2, #14
 151 0020 07D0     		beq	.L5
 152              	.LVL5:
 153              	.L2:
 154              		.loc 1 96 3 is_stmt 1 view .LVU40
 155 0022 0C20     		movs	r0, #12
 156 0024 FFF7FEFF 		bl	chSchGoSleepS
 157              	.LVL6:
 158              		.loc 1 97 3 view .LVU41
 159              		.loc 1 97 7 is_stmt 0 view .LVU42
 160 0028 606B     		ldr	r0, [r4, #52]
 161              	.LVL7:
 162              		.loc 1 98 3 is_stmt 1 view .LVU43
 163              	.LBB78:
 164              	.LBI78:
 165              		.loc 4 386 20 view .LVU44
 166              	.LBB79:
 167              		.loc 4 388 23 view .LVU45
 168              		.loc 4 389 34 view .LVU46
 169              		.loc 4 395 3 view .LVU47
 170              		.loc 4 395 3 view .LVU48
 171              		.loc 4 395 3 view .LVU49
ARM GAS  C:\Users\DEVELO~1\AppData\Local\Temp\ccco2Nld.s 			page 4


 172              		.loc 4 399 3 view .LVU50
 173              	.LBB80:
 174              	.LBI80:
 175              		.loc 5 864 27 view .LVU51
 176              		.loc 5 867 3 view .LVU52
 177              	.LBB81:
 178              	.LBI81:
 179              		.loc 3 491 27 view .LVU53
 180              	.LBB82:
 181              		.loc 3 493 3 view .LVU54
 182 002a 0023     		movs	r3, #0
 183              		.syntax unified
 184              	@ 493 "../../../os/common/ext/ARM/CMSIS/Core/Include/cmsis_gcc.h" 1
 185 002c 83F31188 		MSR basepri, r3
 186              	@ 0 "" 2
 187              	.LVL8:
 188              		.loc 3 493 3 is_stmt 0 view .LVU55
 189              		.thumb
 190              		.syntax unified
 191              	.LBE82:
 192              	.LBE81:
 193              	.LBE80:
 194              	.LBE79:
 195              	.LBE78:
 196              		.loc 1 100 3 is_stmt 1 view .LVU56
 197              		.loc 1 101 1 is_stmt 0 view .LVU57
 198 0030 38BD     		pop	{r3, r4, r5, pc}
 199              	.LVL9:
 200              	.L5:
 201              		.loc 1 94 5 is_stmt 1 view .LVU58
 202              		.loc 1 94 12 is_stmt 0 view .LVU59
 203 0032 FFF7FEFF 		bl	chSchReadyI
 204              	.LVL10:
 205              		.loc 1 94 12 view .LVU60
 206 0036 F4E7     		b	.L2
 207              	.L7:
 208              		.align	2
 209              	.L6:
 210 0038 00000000 		.word	ch0
 211              		.cfi_endproc
 212              	.LFE352:
 213              		.size	chMsgSend, .-chMsgSend
 214              		.section	.text.chMsgWaitS,"ax",%progbits
 215              		.align	1
 216              		.p2align 2,,3
 217              		.global	chMsgWaitS
 218              		.syntax unified
 219              		.thumb
 220              		.thumb_func
 221              		.type	chMsgWaitS, %function
 222              	chMsgWaitS:
 223              	.LFB353:
 224              		.loc 1 119 28 is_stmt 1 view -0
 225              		.cfi_startproc
 226              		@ args = 0, pretend = 0, frame = 0
 227              		@ frame_needed = 0, uses_anonymous_args = 0
 228              		.loc 1 120 3 view .LVU62
ARM GAS  C:\Users\DEVELO~1\AppData\Local\Temp\ccco2Nld.s 			page 5


 229              	.LBB83:
 230              	.LBI83:
 231              		.loc 2 527 25 view .LVU63
 232              	.LBB84:
 233              		.loc 2 529 3 view .LVU64
 234              	.LBE84:
 235              	.LBE83:
 236              		.loc 1 119 28 is_stmt 0 view .LVU65
 237 0000 38B5     		push	{r3, r4, r5, lr}
 238              		.cfi_def_cfa_offset 16
 239              		.cfi_offset 3, -16
 240              		.cfi_offset 4, -12
 241              		.cfi_offset 5, -8
 242              		.cfi_offset 14, -4
 243              	.LBB86:
 244              	.LBB85:
 245              		.loc 2 529 10 view .LVU66
 246 0002 094B     		ldr	r3, .L12
 247 0004 DD68     		ldr	r5, [r3, #12]
 248              	.LVL11:
 249              		.loc 2 529 10 view .LVU67
 250              	.LBE85:
 251              	.LBE86:
 252              		.loc 1 121 3 is_stmt 1 view .LVU68
 253              		.loc 1 123 21 view .LVU69
 254              		.loc 1 125 3 view .LVU70
 255              	.LBB87:
 256              	.LBI87:
 257              		.file 7 "../../../os/rt/include/chmsg.h"
 258              		.loc 7 172 20 view .LVU71
 259              	.LBB88:
 260              		.loc 7 174 21 view .LVU72
 261              		.loc 7 176 3 view .LVU73
 262              		.loc 7 176 29 is_stmt 0 view .LVU74
 263 0006 2C46     		mov	r4, r5
 264 0008 54F83C0F 		ldr	r0, [r4, #60]!
 265              	.LVL12:
 266              		.loc 7 176 29 view .LVU75
 267              	.LBE88:
 268              	.LBE87:
 269              		.loc 1 125 6 view .LVU76
 270 000c 8442     		cmp	r4, r0
 271 000e 05D0     		beq	.L11
 272              	.L9:
 273              		.loc 1 128 3 is_stmt 1 view .LVU77
 274              	.LVL13:
 275              	.LBB89:
 276              	.LBI89:
 277              		.loc 6 340 27 view .LVU78
 278              	.LBB90:
 279              		.loc 6 341 3 view .LVU79
 280              		.loc 6 343 3 view .LVU80
 281              		.loc 6 343 21 is_stmt 0 view .LVU81
 282 0010 0368     		ldr	r3, [r0]
 283              	.LBE90:
 284              	.LBE89:
 285              		.loc 1 129 13 view .LVU82
ARM GAS  C:\Users\DEVELO~1\AppData\Local\Temp\ccco2Nld.s 			page 6


 286 0012 0D22     		movs	r2, #13
 287              	.LBB93:
 288              	.LBB91:
 289              		.loc 6 343 18 view .LVU83
 290 0014 EB63     		str	r3, [r5, #60]
 291              	.LVL14:
 292              		.loc 6 344 3 is_stmt 1 view .LVU84
 293              		.loc 6 344 18 is_stmt 0 view .LVU85
 294 0016 5C60     		str	r4, [r3, #4]
 295              		.loc 6 346 3 is_stmt 1 view .LVU86
 296              	.LVL15:
 297              		.loc 6 346 3 is_stmt 0 view .LVU87
 298              	.LBE91:
 299              	.LBE93:
 300              		.loc 1 129 3 is_stmt 1 view .LVU88
 301              		.loc 1 129 13 is_stmt 0 view .LVU89
 302 0018 0277     		strb	r2, [r0, #28]
 303              		.loc 1 131 3 is_stmt 1 view .LVU90
 304              		.loc 1 132 1 is_stmt 0 view .LVU91
 305 001a 38BD     		pop	{r3, r4, r5, pc}
 306              	.LVL16:
 307              	.L11:
 308              		.loc 1 126 5 is_stmt 1 view .LVU92
 309 001c 0E20     		movs	r0, #14
 310 001e FFF7FEFF 		bl	chSchGoSleepS
 311              	.LVL17:
 312              	.LBB94:
 313              	.LBB92:
 314              		.loc 6 341 15 is_stmt 0 view .LVU93
 315 0022 E86B     		ldr	r0, [r5, #60]
 316 0024 F4E7     		b	.L9
 317              	.L13:
 318 0026 00BF     		.align	2
 319              	.L12:
 320 0028 00000000 		.word	ch0
 321              	.LBE92:
 322              	.LBE94:
 323              		.cfi_endproc
 324              	.LFE353:
 325              		.size	chMsgWaitS, .-chMsgWaitS
 326              		.section	.text.chMsgWaitTimeoutS,"ax",%progbits
 327              		.align	1
 328              		.p2align 2,,3
 329              		.global	chMsgWaitTimeoutS
 330              		.syntax unified
 331              		.thumb
 332              		.thumb_func
 333              		.type	chMsgWaitTimeoutS, %function
 334              	chMsgWaitTimeoutS:
 335              	.LVL18:
 336              	.LFB354:
 337              		.loc 1 155 52 is_stmt 1 view -0
 338              		.cfi_startproc
 339              		@ args = 0, pretend = 0, frame = 0
 340              		@ frame_needed = 0, uses_anonymous_args = 0
 341              		.loc 1 156 3 view .LVU95
 342              	.LBB95:
ARM GAS  C:\Users\DEVELO~1\AppData\Local\Temp\ccco2Nld.s 			page 7


 343              	.LBI95:
 344              		.loc 2 527 25 view .LVU96
 345              	.LBB96:
 346              		.loc 2 529 3 view .LVU97
 347              	.LBE96:
 348              	.LBE95:
 349              		.loc 1 155 52 is_stmt 0 view .LVU98
 350 0000 38B5     		push	{r3, r4, r5, lr}
 351              		.cfi_def_cfa_offset 16
 352              		.cfi_offset 3, -16
 353              		.cfi_offset 4, -12
 354              		.cfi_offset 5, -8
 355              		.cfi_offset 14, -4
 356              	.LBB98:
 357              	.LBB97:
 358              		.loc 2 529 10 view .LVU99
 359 0002 0B4B     		ldr	r3, .L20
 360 0004 DD68     		ldr	r5, [r3, #12]
 361              	.LVL19:
 362              		.loc 2 529 10 view .LVU100
 363              	.LBE97:
 364              	.LBE98:
 365              		.loc 1 157 3 is_stmt 1 view .LVU101
 366              		.loc 1 159 21 view .LVU102
 367              		.loc 1 161 3 view .LVU103
 368              	.LBB99:
 369              	.LBI99:
 370              		.loc 7 172 20 view .LVU104
 371              	.LBB100:
 372              		.loc 7 174 21 view .LVU105
 373              		.loc 7 176 3 view .LVU106
 374              		.loc 7 176 29 is_stmt 0 view .LVU107
 375 0006 2C46     		mov	r4, r5
 376 0008 54F83C3F 		ldr	r3, [r4, #60]!
 377              	.LVL20:
 378              		.loc 7 176 29 view .LVU108
 379              	.LBE100:
 380              	.LBE99:
 381              		.loc 1 161 6 view .LVU109
 382 000c 9C42     		cmp	r4, r3
 383 000e 06D0     		beq	.L19
 384              	.LVL21:
 385              	.L15:
 386              		.loc 1 166 3 is_stmt 1 view .LVU110
 387              	.LBB101:
 388              	.LBI101:
 389              		.loc 6 340 27 view .LVU111
 390              	.LBB102:
 391              		.loc 6 341 3 view .LVU112
 392              		.loc 6 343 3 view .LVU113
 393              		.loc 6 343 21 is_stmt 0 view .LVU114
 394 0010 1A68     		ldr	r2, [r3]
 395              	.LBE102:
 396              	.LBE101:
 397              		.loc 1 167 13 view .LVU115
 398 0012 0D21     		movs	r1, #13
 399              	.LBB105:
ARM GAS  C:\Users\DEVELO~1\AppData\Local\Temp\ccco2Nld.s 			page 8


 400              	.LBB103:
 401              		.loc 6 343 18 view .LVU116
 402 0014 EA63     		str	r2, [r5, #60]
 403              	.LVL22:
 404              		.loc 6 344 3 is_stmt 1 view .LVU117
 405              		.loc 6 344 18 is_stmt 0 view .LVU118
 406 0016 5460     		str	r4, [r2, #4]
 407              		.loc 6 346 3 is_stmt 1 view .LVU119
 408              	.LVL23:
 409              		.loc 6 346 3 is_stmt 0 view .LVU120
 410              	.LBE103:
 411              	.LBE105:
 412              		.loc 1 167 3 is_stmt 1 view .LVU121
 413              		.loc 1 167 13 is_stmt 0 view .LVU122
 414 0018 1977     		strb	r1, [r3, #28]
 415              		.loc 1 169 3 is_stmt 1 view .LVU123
 416              	.L14:
 417              		.loc 1 170 1 is_stmt 0 view .LVU124
 418 001a 1846     		mov	r0, r3
 419 001c 38BD     		pop	{r3, r4, r5, pc}
 420              	.LVL24:
 421              	.L19:
 422              		.loc 1 162 5 is_stmt 1 view .LVU125
 423              		.loc 1 162 9 is_stmt 0 view .LVU126
 424 001e 0146     		mov	r1, r0
 425 0020 0E20     		movs	r0, #14
 426              	.LVL25:
 427              		.loc 1 162 9 view .LVU127
 428 0022 FFF7FEFF 		bl	chSchGoSleepTimeoutS
 429              	.LVL26:
 430              		.loc 1 162 8 view .LVU128
 431 0026 08B9     		cbnz	r0, .L17
 432              	.LBB106:
 433              	.LBB104:
 434              		.loc 6 341 15 view .LVU129
 435 0028 EB6B     		ldr	r3, [r5, #60]
 436 002a F1E7     		b	.L15
 437              	.L17:
 438              		.loc 6 341 15 view .LVU130
 439              	.LBE104:
 440              	.LBE106:
 441              		.loc 1 163 14 view .LVU131
 442 002c 0023     		movs	r3, #0
 443 002e F4E7     		b	.L14
 444              	.L21:
 445              		.align	2
 446              	.L20:
 447 0030 00000000 		.word	ch0
 448              		.cfi_endproc
 449              	.LFE354:
 450              		.size	chMsgWaitTimeoutS, .-chMsgWaitTimeoutS
 451              		.section	.text.chMsgPollS,"ax",%progbits
 452              		.align	1
 453              		.p2align 2,,3
 454              		.global	chMsgPollS
 455              		.syntax unified
 456              		.thumb
ARM GAS  C:\Users\DEVELO~1\AppData\Local\Temp\ccco2Nld.s 			page 9


 457              		.thumb_func
 458              		.type	chMsgPollS, %function
 459              	chMsgPollS:
 460              	.LFB355:
 461              		.loc 1 189 28 is_stmt 1 view -0
 462              		.cfi_startproc
 463              		@ args = 0, pretend = 0, frame = 0
 464              		@ frame_needed = 0, uses_anonymous_args = 0
 465              		@ link register save eliminated.
 466              		.loc 1 190 3 view .LVU133
 467              	.LBB107:
 468              	.LBI107:
 469              		.loc 2 527 25 view .LVU134
 470              	.LBB108:
 471              		.loc 2 529 3 view .LVU135
 472              		.loc 2 529 10 is_stmt 0 view .LVU136
 473 0000 084B     		ldr	r3, .L25
 474 0002 DA68     		ldr	r2, [r3, #12]
 475              	.LVL27:
 476              		.loc 2 529 10 view .LVU137
 477              	.LBE108:
 478              	.LBE107:
 479              		.loc 1 191 3 is_stmt 1 view .LVU138
 480              		.loc 1 193 3 view .LVU139
 481              	.LBB109:
 482              	.LBI109:
 483              		.loc 7 172 20 view .LVU140
 484              	.LBB110:
 485              		.loc 7 174 21 view .LVU141
 486              		.loc 7 176 3 view .LVU142
 487              		.loc 7 176 29 is_stmt 0 view .LVU143
 488 0004 1346     		mov	r3, r2
 489 0006 53F83C0F 		ldr	r0, [r3, #60]!
 490              	.LVL28:
 491              		.loc 7 176 29 view .LVU144
 492              	.LBE110:
 493              	.LBE109:
 494              		.loc 1 193 6 view .LVU145
 495 000a 8342     		cmp	r3, r0
 496 000c 07D0     		beq	.L24
 497              		.loc 1 194 5 is_stmt 1 view .LVU146
 498              	.LVL29:
 499              	.LBB111:
 500              	.LBI111:
 501              		.loc 6 340 27 view .LVU147
 502              	.LBB112:
 503              		.loc 6 341 3 view .LVU148
 504              		.loc 6 343 3 view .LVU149
 505              		.loc 6 343 21 is_stmt 0 view .LVU150
 506 000e 0168     		ldr	r1, [r0]
 507              	.LBE112:
 508              	.LBE111:
 509              		.loc 1 195 15 view .LVU151
 510 0010 4FF00D0C 		mov	ip, #13
 511              	.LBB114:
 512              	.LBB113:
 513              		.loc 6 343 18 view .LVU152
ARM GAS  C:\Users\DEVELO~1\AppData\Local\Temp\ccco2Nld.s 			page 10


 514 0014 D163     		str	r1, [r2, #60]
 515              		.loc 6 344 3 is_stmt 1 view .LVU153
 516              		.loc 6 344 18 is_stmt 0 view .LVU154
 517 0016 4B60     		str	r3, [r1, #4]
 518              		.loc 6 346 3 is_stmt 1 view .LVU155
 519              	.LVL30:
 520              		.loc 6 346 3 is_stmt 0 view .LVU156
 521              	.LBE113:
 522              	.LBE114:
 523              		.loc 1 195 5 is_stmt 1 view .LVU157
 524              		.loc 1 195 15 is_stmt 0 view .LVU158
 525 0018 80F81CC0 		strb	ip, [r0, #28]
 526 001c 7047     		bx	lr
 527              	.LVL31:
 528              	.L24:
 529              		.loc 1 191 13 view .LVU159
 530 001e 0020     		movs	r0, #0
 531              		.loc 1 198 3 is_stmt 1 view .LVU160
 532              		.loc 1 199 1 is_stmt 0 view .LVU161
 533 0020 7047     		bx	lr
 534              	.L26:
 535 0022 00BF     		.align	2
 536              	.L25:
 537 0024 00000000 		.word	ch0
 538              		.cfi_endproc
 539              	.LFE355:
 540              		.size	chMsgPollS, .-chMsgPollS
 541              		.section	.text.chMsgRelease,"ax",%progbits
 542              		.align	1
 543              		.p2align 2,,3
 544              		.global	chMsgRelease
 545              		.syntax unified
 546              		.thumb
 547              		.thumb_func
 548              		.type	chMsgRelease, %function
 549              	chMsgRelease:
 550              	.LVL32:
 551              	.LFB356:
 552              		.loc 1 211 44 is_stmt 1 view -0
 553              		.cfi_startproc
 554              		@ args = 0, pretend = 0, frame = 0
 555              		@ frame_needed = 0, uses_anonymous_args = 0
 556              		.loc 1 213 3 view .LVU163
 557              	.LBB115:
 558              	.LBI115:
 559              		.loc 4 372 20 view .LVU164
 560              		.loc 4 374 3 view .LVU165
 561              	.LBB116:
 562              	.LBI116:
 563              		.loc 5 840 27 view .LVU166
 564              		.loc 5 848 3 view .LVU167
 565              	.LBB117:
 566              	.LBI117:
 567              		.loc 3 491 27 view .LVU168
 568              	.LBB118:
 569              		.loc 3 493 3 view .LVU169
 570              	.LBE118:
ARM GAS  C:\Users\DEVELO~1\AppData\Local\Temp\ccco2Nld.s 			page 11


 571              	.LBE117:
 572              	.LBE116:
 573              	.LBE115:
 574              		.loc 1 211 44 is_stmt 0 view .LVU170
 575 0000 08B5     		push	{r3, lr}
 576              		.cfi_def_cfa_offset 8
 577              		.cfi_offset 3, -8
 578              		.cfi_offset 14, -4
 579              	.LBB122:
 580              	.LBB121:
 581              	.LBB120:
 582              	.LBB119:
 583              		.loc 3 493 3 view .LVU171
 584 0002 3023     		movs	r3, #48
 585              		.syntax unified
 586              	@ 493 "../../../os/common/ext/ARM/CMSIS/Core/Include/cmsis_gcc.h" 1
 587 0004 83F31188 		MSR basepri, r3
 588              	@ 0 "" 2
 589              	.LVL33:
 590              		.loc 3 493 3 view .LVU172
 591              		.thumb
 592              		.syntax unified
 593              	.LBE119:
 594              	.LBE120:
 595              	.LBE121:
 596              		.loc 4 375 35 is_stmt 1 view .LVU173
 597              		.loc 4 376 21 view .LVU174
 598              	.LBE122:
 599              		.loc 1 214 3 view .LVU175
 600              		.loc 1 214 3 view .LVU176
 601              		.loc 1 214 3 view .LVU177
 602              		.loc 1 215 3 view .LVU178
 603              	.LBB123:
 604              	.LBI123:
 605              		.loc 7 206 20 view .LVU179
 606              	.LBB124:
 607              		.loc 7 208 21 view .LVU180
 608              		.loc 7 210 3 view .LVU181
 609 0008 FFF7FEFF 		bl	chSchWakeupS
 610              	.LVL34:
 611              		.loc 7 210 3 is_stmt 0 view .LVU182
 612              	.LBE124:
 613              	.LBE123:
 614              		.loc 1 216 3 is_stmt 1 view .LVU183
 615              	.LBB125:
 616              	.LBI125:
 617              		.loc 4 386 20 view .LVU184
 618              	.LBB126:
 619              		.loc 4 388 23 view .LVU185
 620              		.loc 4 389 34 view .LVU186
 621              		.loc 4 395 3 view .LVU187
 622              		.loc 4 395 3 view .LVU188
 623              		.loc 4 395 3 view .LVU189
 624              		.loc 4 399 3 view .LVU190
 625              	.LBB127:
 626              	.LBI127:
 627              		.loc 5 864 27 view .LVU191
ARM GAS  C:\Users\DEVELO~1\AppData\Local\Temp\ccco2Nld.s 			page 12


 628              		.loc 5 867 3 view .LVU192
 629              	.LBB128:
 630              	.LBI128:
 631              		.loc 3 491 27 view .LVU193
 632              	.LBB129:
 633              		.loc 3 493 3 view .LVU194
 634 000c 0023     		movs	r3, #0
 635              		.syntax unified
 636              	@ 493 "../../../os/common/ext/ARM/CMSIS/Core/Include/cmsis_gcc.h" 1
 637 000e 83F31188 		MSR basepri, r3
 638              	@ 0 "" 2
 639              	.LVL35:
 640              		.loc 3 493 3 is_stmt 0 view .LVU195
 641              		.thumb
 642              		.syntax unified
 643              	.LBE129:
 644              	.LBE128:
 645              	.LBE127:
 646              	.LBE126:
 647              	.LBE125:
 648              		.loc 1 217 1 view .LVU196
 649 0012 08BD     		pop	{r3, pc}
 650              		.cfi_endproc
 651              	.LFE356:
 652              		.size	chMsgRelease, .-chMsgRelease
 653              		.text
 654              	.Letext0:
 655              		.file 8 "c:\\chibistudio\\tools\\gnu tools arm embedded\\11.3 2022.08\\arm-none-eabi\\include\\mac
 656              		.file 9 "c:\\chibistudio\\tools\\gnu tools arm embedded\\11.3 2022.08\\arm-none-eabi\\include\\sys
 657              		.file 10 "../../../os/common/ports/ARM-common/include/chtypes.h"
 658              		.file 11 "../../../os/rt/include/chearly.h"
 659              		.file 12 "../../../os/rt/include/chobjects.h"
 660              		.file 13 "../../../os/rt/include/chrfcu.h"
 661              		.file 14 "../../../os/rt/include/chdebug.h"
 662              		.file 15 "../../../os/rt/include/chtime.h"
 663              		.file 16 "../../../os/rt/include/chtrace.h"
 664              		.file 17 "../../../os/rt/include/chsem.h"
 665              		.file 18 "../../../os/rt/include/chmtx.h"
 666              		.file 19 "../../../os/rt/include/chschd.h"