ARM GAS  C:\Users\DEVELO~1\AppData\Local\Temp\ccHerZYT.s 			page 1


   1              		.cpu cortex-m7
   2              		.arch armv7e-m
   3              		.fpu fpv5-d16
   4              		.eabi_attribute 28, 1
   5              		.eabi_attribute 20, 1
   6              		.eabi_attribute 21, 1
   7              		.eabi_attribute 23, 3
   8              		.eabi_attribute 24, 1
   9              		.eabi_attribute 25, 1
  10              		.eabi_attribute 26, 1
  11              		.eabi_attribute 30, 2
  12              		.eabi_attribute 34, 1
  13              		.eabi_attribute 18, 4
  14              		.file	"chpipes.c"
  15              		.text
  16              	.Ltext0:
  17              		.cfi_sections	.debug_frame
  18              		.section	.text.chPipeObjectInit,"ax",%progbits
  19              		.align	1
  20              		.p2align 2,,3
  21              		.global	chPipeObjectInit
  22              		.syntax unified
  23              		.thumb
  24              		.thumb_func
  25              		.type	chPipeObjectInit, %function
  26              	chPipeObjectInit:
  27              	.LVL0:
  28              	.LFB354:
  29              		.file 1 "../../../os/oslib/src/chpipes.c"
  30              		.loc 1 207 59 view -0
  31              		.cfi_startproc
  32              		@ args = 0, pretend = 0, frame = 0
  33              		@ frame_needed = 0, uses_anonymous_args = 0
  34              		.loc 1 209 3 view .LVU1
  35              		.loc 1 209 3 view .LVU2
  36              		.loc 1 209 3 view .LVU3
  37              		.loc 1 211 3 view .LVU4
  38              		.loc 1 207 59 is_stmt 0 view .LVU5
  39 0000 10B5     		push	{r4, lr}
  40              		.cfi_def_cfa_offset 8
  41              		.cfi_offset 4, -8
  42              		.cfi_offset 14, -4
  43              		.loc 1 215 14 view .LVU6
  44 0002 0023     		movs	r3, #0
  45              		.loc 1 207 59 view .LVU7
  46 0004 0446     		mov	r4, r0
  47              		.loc 1 214 16 view .LVU8
  48 0006 0A44     		add	r2, r2, r1
  49              	.LVL1:
  50              		.loc 1 219 3 view .LVU9
  51 0008 2030     		adds	r0, r0, #32
  52              	.LVL2:
  53              		.loc 1 211 14 view .LVU10
  54 000a 2160     		str	r1, [r4]
  55              		.loc 1 212 3 is_stmt 1 view .LVU11
  56              		.loc 1 214 14 is_stmt 0 view .LVU12
  57 000c 6260     		str	r2, [r4, #4]
ARM GAS  C:\Users\DEVELO~1\AppData\Local\Temp\ccHerZYT.s 			page 2


  58              		.loc 1 215 14 view .LVU13
  59 000e 2361     		str	r3, [r4, #16]
  60              		.loc 1 216 14 view .LVU14
  61 0010 2375     		strb	r3, [r4, #20]
  62              		.loc 1 213 14 view .LVU15
  63 0012 C4E90211 		strd	r1, r1, [r4, #8]
  64              		.loc 1 214 3 is_stmt 1 view .LVU16
  65              		.loc 1 215 3 view .LVU17
  66              		.loc 1 216 3 view .LVU18
  67              		.loc 1 217 3 view .LVU19
  68              		.loc 1 218 14 is_stmt 0 view .LVU20
  69 0016 C4E90633 		strd	r3, r3, [r4, #24]
  70              		.loc 1 219 3 is_stmt 1 view .LVU21
  71 001a FFF7FEFF 		bl	chMtxObjectInit
  72              	.LVL3:
  73              		.loc 1 220 3 view .LVU22
  74 001e 04F13000 		add	r0, r4, #48
  75 0022 FFF7FEFF 		bl	chMtxObjectInit
  76              	.LVL4:
  77              		.loc 1 221 3 view .LVU23
  78 0026 04F14000 		add	r0, r4, #64
  79              		.loc 1 222 1 is_stmt 0 view .LVU24
  80 002a BDE81040 		pop	{r4, lr}
  81              		.cfi_restore 14
  82              		.cfi_restore 4
  83              		.cfi_def_cfa_offset 0
  84              	.LVL5:
  85              		.loc 1 221 3 view .LVU25
  86 002e FFF7FEBF 		b	chMtxObjectInit
  87              	.LVL6:
  88              		.loc 1 221 3 view .LVU26
  89              		.cfi_endproc
  90              	.LFE354:
  91              		.size	chPipeObjectInit, .-chPipeObjectInit
  92 0032 00BF     		.section	.text.chPipeReset,"ax",%progbits
  93              		.align	1
  94              		.p2align 2,,3
  95              		.global	chPipeReset
  96              		.syntax unified
  97              		.thumb
  98              		.thumb_func
  99              		.type	chPipeReset, %function
 100              	chPipeReset:
 101              	.LVL7:
 102              	.LFB355:
 103              		.loc 1 236 30 is_stmt 1 view -0
 104              		.cfi_startproc
 105              		@ args = 0, pretend = 0, frame = 0
 106              		@ frame_needed = 0, uses_anonymous_args = 0
 107              		.loc 1 238 3 view .LVU28
 108              		.loc 1 238 3 view .LVU29
 109              		.loc 1 238 3 view .LVU30
 110              		.loc 1 240 3 view .LVU31
 111              		.loc 1 236 30 is_stmt 0 view .LVU32
 112 0000 70B5     		push	{r4, r5, r6, lr}
 113              		.cfi_def_cfa_offset 16
 114              		.cfi_offset 4, -16
ARM GAS  C:\Users\DEVELO~1\AppData\Local\Temp\ccHerZYT.s 			page 3


 115              		.cfi_offset 5, -12
 116              		.cfi_offset 6, -8
 117              		.cfi_offset 14, -4
 118              		.loc 1 240 3 view .LVU33
 119 0002 00F12005 		add	r5, r0, #32
 120              		.loc 1 236 30 view .LVU34
 121 0006 0446     		mov	r4, r0
 122              		.loc 1 244 13 view .LVU35
 123 0008 0026     		movs	r6, #0
 124              		.loc 1 240 3 view .LVU36
 125 000a 2846     		mov	r0, r5
 126              	.LVL8:
 127              		.loc 1 240 3 view .LVU37
 128 000c FFF7FEFF 		bl	chMtxLock
 129              	.LVL9:
 130              		.loc 1 242 3 is_stmt 1 view .LVU38
 131              		.loc 1 242 17 is_stmt 0 view .LVU39
 132 0010 2368     		ldr	r3, [r4]
 133              		.loc 1 245 13 view .LVU40
 134 0012 0122     		movs	r2, #1
 135              		.loc 1 244 13 view .LVU41
 136 0014 2661     		str	r6, [r4, #16]
 137              		.loc 1 243 13 view .LVU42
 138 0016 C4E90233 		strd	r3, r3, [r4, #8]
 139              		.loc 1 244 3 is_stmt 1 view .LVU43
 140              		.loc 1 245 3 view .LVU44
 141              		.loc 1 245 13 is_stmt 0 view .LVU45
 142 001a 2275     		strb	r2, [r4, #20]
 143              		.loc 1 247 3 is_stmt 1 view .LVU46
 144              	.LBB68:
 145              	.LBI68:
 146              		.file 2 "../../../os/rt/include/chsys.h"
 147              		.loc 2 372 20 view .LVU47
 148              		.loc 2 374 3 view .LVU48
 149              	.LBB69:
 150              	.LBI69:
 151              		.file 3 "../../../os/common/ports/ARMv7-M/chcore.h"
 152              		.loc 3 840 27 view .LVU49
 153              		.loc 3 848 3 view .LVU50
 154              	.LVL10:
 155              	.LBB70:
 156              	.LBI70:
 157              		.file 4 "../../../os/common/ext/ARM/CMSIS/Core/Include/cmsis_gcc.h"
 158              		.loc 4 491 27 view .LVU51
 159              	.LBB71:
 160              		.loc 4 493 3 view .LVU52
 161 001c 3023     		movs	r3, #48
 162              		.syntax unified
 163              	@ 493 "../../../os/common/ext/ARM/CMSIS/Core/Include/cmsis_gcc.h" 1
 164 001e 83F31188 		MSR basepri, r3
 165              	@ 0 "" 2
 166              	.LVL11:
 167              		.loc 4 493 3 is_stmt 0 view .LVU53
 168              		.thumb
 169              		.syntax unified
 170              	.LBE71:
 171              	.LBE70:
ARM GAS  C:\Users\DEVELO~1\AppData\Local\Temp\ccHerZYT.s 			page 4


 172              	.LBE69:
 173              		.loc 2 375 35 is_stmt 1 view .LVU54
 174              		.loc 2 376 21 view .LVU55
 175              	.LBE68:
 176              		.loc 1 248 3 view .LVU56
 177 0022 6FF00101 		mvn	r1, #1
 178 0026 04F11800 		add	r0, r4, #24
 179 002a FFF7FEFF 		bl	chThdResumeI
 180              	.LVL12:
 181              		.loc 1 249 3 view .LVU57
 182 002e 6FF00101 		mvn	r1, #1
 183 0032 04F11C00 		add	r0, r4, #28
 184 0036 FFF7FEFF 		bl	chThdResumeI
 185              	.LVL13:
 186              		.loc 1 250 3 view .LVU58
 187 003a FFF7FEFF 		bl	chSchRescheduleS
 188              	.LVL14:
 189              		.loc 1 251 3 view .LVU59
 190              	.LBB72:
 191              	.LBI72:
 192              		.loc 2 386 20 view .LVU60
 193              	.LBB73:
 194              		.loc 2 388 23 view .LVU61
 195              		.loc 2 389 34 view .LVU62
 196              		.loc 2 395 3 view .LVU63
 197              		.loc 2 395 3 view .LVU64
 198              		.loc 2 395 3 view .LVU65
 199              		.loc 2 399 3 view .LVU66
 200              	.LBB74:
 201              	.LBI74:
 202              		.loc 3 864 27 view .LVU67
 203              		.loc 3 867 3 view .LVU68
 204              	.LBB75:
 205              	.LBI75:
 206              		.loc 4 491 27 view .LVU69
 207              	.LBB76:
 208              		.loc 4 493 3 view .LVU70
 209              		.syntax unified
 210              	@ 493 "../../../os/common/ext/ARM/CMSIS/Core/Include/cmsis_gcc.h" 1
 211 003e 86F31188 		MSR basepri, r6
 212              	@ 0 "" 2
 213              	.LVL15:
 214              		.loc 4 493 3 is_stmt 0 view .LVU71
 215              		.thumb
 216              		.syntax unified
 217              	.LBE76:
 218              	.LBE75:
 219              	.LBE74:
 220              	.LBE73:
 221              	.LBE72:
 222              		.loc 1 253 3 is_stmt 1 view .LVU72
 223 0042 2846     		mov	r0, r5
 224              		.loc 1 254 1 is_stmt 0 view .LVU73
 225 0044 BDE87040 		pop	{r4, r5, r6, lr}
 226              		.cfi_restore 14
 227              		.cfi_restore 6
 228              		.cfi_restore 5
ARM GAS  C:\Users\DEVELO~1\AppData\Local\Temp\ccHerZYT.s 			page 5


 229              		.cfi_restore 4
 230              		.cfi_def_cfa_offset 0
 231              	.LVL16:
 232              		.loc 1 253 3 view .LVU74
 233 0048 FFF7FEBF 		b	chMtxUnlock
 234              	.LVL17:
 235              		.loc 1 253 3 view .LVU75
 236              		.cfi_endproc
 237              	.LFE355:
 238              		.size	chPipeReset, .-chPipeReset
 239              		.section	.text.chPipeWriteTimeout,"ax",%progbits
 240              		.align	1
 241              		.p2align 2,,3
 242              		.global	chPipeWriteTimeout
 243              		.syntax unified
 244              		.thumb
 245              		.thumb_func
 246              		.type	chPipeWriteTimeout, %function
 247              	chPipeWriteTimeout:
 248              	.LVL18:
 249              	.LFB356:
 250              		.loc 1 278 60 is_stmt 1 view -0
 251              		.cfi_startproc
 252              		@ args = 0, pretend = 0, frame = 8
 253              		@ frame_needed = 0, uses_anonymous_args = 0
 254              		.loc 1 279 3 view .LVU77
 255              		.loc 1 278 60 is_stmt 0 view .LVU78
 256 0000 2DE9F04F 		push	{r4, r5, r6, r7, r8, r9, r10, fp, lr}
 257              		.cfi_def_cfa_offset 36
 258              		.cfi_offset 4, -36
 259              		.cfi_offset 5, -32
 260              		.cfi_offset 6, -28
 261              		.cfi_offset 7, -24
 262              		.cfi_offset 8, -20
 263              		.cfi_offset 9, -16
 264              		.cfi_offset 10, -12
 265              		.cfi_offset 11, -8
 266              		.cfi_offset 14, -4
 267 0004 2DED028B 		vpush.64	{d8}
 268              		.cfi_def_cfa_offset 44
 269              		.cfi_offset 80, -44
 270              		.cfi_offset 81, -40
 271 0008 08EE103A 		vmov	s16, r3	@ int
 272 000c 83B0     		sub	sp, sp, #12
 273              		.cfi_def_cfa_offset 56
 274              		.loc 1 284 6 view .LVU79
 275 000e 037D     		ldrb	r3, [r0, #20]	@ zero_extendqisi2
 276              	.LVL19:
 277              		.loc 1 278 60 view .LVU80
 278 0010 0192     		str	r2, [sp, #4]
 279              	.LVL20:
 280              		.loc 1 281 3 is_stmt 1 view .LVU81
 281              		.loc 1 281 3 view .LVU82
 282              		.loc 1 281 3 view .LVU83
 283              		.loc 1 284 3 view .LVU84
 284              		.loc 1 284 6 is_stmt 0 view .LVU85
 285 0012 3BB1     		cbz	r3, .L25
ARM GAS  C:\Users\DEVELO~1\AppData\Local\Temp\ccHerZYT.s 			page 6


 286              		.loc 1 285 12 view .LVU86
 287 0014 4FF00008 		mov	r8, #0
 288              		.loc 1 318 1 view .LVU87
 289 0018 4046     		mov	r0, r8
 290              	.LVL21:
 291              		.loc 1 318 1 view .LVU88
 292 001a 03B0     		add	sp, sp, #12
 293              		.cfi_remember_state
 294              		.cfi_def_cfa_offset 44
 295              		@ sp needed
 296 001c BDEC028B 		vldm	sp!, {d8}
 297              		.cfi_restore 80
 298              		.cfi_restore 81
 299              		.cfi_def_cfa_offset 36
 300              	.LVL22:
 301              		.loc 1 318 1 view .LVU89
 302 0020 BDE8F08F 		pop	{r4, r5, r6, r7, r8, r9, r10, fp, pc}
 303              	.LVL23:
 304              	.L25:
 305              		.cfi_restore_state
 306              		.loc 1 288 3 is_stmt 1 view .LVU90
 307 0024 00F13003 		add	r3, r0, #48
 308 0028 1446     		mov	r4, r2
 309 002a 0546     		mov	r5, r0
 310 002c 0F46     		mov	r7, r1
 311 002e 1846     		mov	r0, r3
 312              	.LVL24:
 313              		.loc 1 288 3 is_stmt 0 view .LVU91
 314 0030 08EE903A 		vmov	s17, r3	@ int
 315 0034 FFF7FEFF 		bl	chMtxLock
 316              	.LVL25:
 317              		.loc 1 290 3 is_stmt 1 view .LVU92
 318              		.loc 1 290 12 view .LVU93
 319 0038 002C     		cmp	r4, #0
 320 003a 44D0     		beq	.L15
 321              	.LVL26:
 322              	.LBB96:
 323              	.LBB97:
 324              	.LBB98:
 325              		.loc 1 108 3 is_stmt 0 view .LVU94
 326 003c 05F12009 		add	r9, r5, #32
 327 0040 DDF80480 		ldr	r8, [sp, #4]
 328              	.LBE98:
 329              	.LBE97:
 330              		.loc 1 311 7 view .LVU95
 331 0044 05F11C0A 		add	r10, r5, #28
 332              	.LVL27:
 333              	.L16:
 334              		.loc 1 291 5 is_stmt 1 view .LVU96
 335              		.loc 1 293 5 view .LVU97
 336              	.LBB116:
 337              	.LBI97:
 338              		.loc 1 105 15 view .LVU98
 339              	.LBB113:
 340              		.loc 1 106 3 view .LVU99
 341              		.loc 1 108 3 view .LVU100
 342 0048 4846     		mov	r0, r9
ARM GAS  C:\Users\DEVELO~1\AppData\Local\Temp\ccHerZYT.s 			page 7


 343 004a FFF7FEFF 		bl	chMtxLock
 344              	.LVL28:
 345              		.loc 1 111 3 view .LVU101
 346              	.LBB99:
 347              	.LBI99:
 348              		.file 5 "../../../os/oslib/include/chpipes.h"
 349              		.loc 5 187 22 view .LVU102
 350              	.LBB100:
 351              		.loc 5 189 3 view .LVU103
 352              	.LBB101:
 353              	.LBI101:
 354              		.loc 5 158 22 view .LVU104
 355              	.LBB102:
 356              		.loc 5 162 3 view .LVU105
 357              	.LBE102:
 358              	.LBE101:
 359              	.LBE100:
 360              	.LBE99:
 361              		.loc 1 125 8 view .LVU106
 362              	.LBB110:
 363              	.LBB107:
 364              	.LBB104:
 365              	.LBB105:
 366              		.loc 5 176 12 is_stmt 0 view .LVU107
 367 004e 2B69     		ldr	r3, [r5, #16]
 368              	.LVL29:
 369              		.loc 5 176 12 view .LVU108
 370              	.LBE105:
 371              	.LBE104:
 372              	.LBE107:
 373              	.LBE110:
 374              		.loc 1 118 29 view .LVU109
 375 0050 A868     		ldr	r0, [r5, #8]
 376              	.LBB111:
 377              	.LBB108:
 378              	.LBB106:
 379              	.LBB103:
 380              		.loc 5 162 27 view .LVU110
 381 0052 D5E90046 		ldrd	r4, r6, [r5]
 382 0056 341B     		subs	r4, r6, r4
 383              	.LBE103:
 384              	.LBE106:
 385              	.LBE108:
 386              	.LBE111:
 387              		.loc 1 118 25 view .LVU111
 388 0058 361A     		subs	r6, r6, r0
 389              	.LBB112:
 390              	.LBB109:
 391              		.loc 5 189 28 view .LVU112
 392 005a E41A     		subs	r4, r4, r3
 393 005c 4445     		cmp	r4, r8
 394 005e 28BF     		it	cs
 395 0060 4446     		movcs	r4, r8
 396              	.LVL30:
 397              		.loc 5 189 28 view .LVU113
 398              	.LBE109:
 399              	.LBE112:
ARM GAS  C:\Users\DEVELO~1\AppData\Local\Temp\ccHerZYT.s 			page 8


 400              		.loc 1 114 3 is_stmt 1 view .LVU114
 401              		.loc 1 114 11 is_stmt 0 view .LVU115
 402 0062 2344     		add	r3, r3, r4
 403              		.loc 1 121 6 view .LVU116
 404 0064 B442     		cmp	r4, r6
 405              		.loc 1 114 11 view .LVU117
 406 0066 2B61     		str	r3, [r5, #16]
 407              		.loc 1 118 3 is_stmt 1 view .LVU118
 408              	.LVL31:
 409              		.loc 1 121 3 view .LVU119
 410              		.loc 1 121 6 is_stmt 0 view .LVU120
 411 0068 3ED3     		bcc	.L26
 412              		.loc 1 126 5 is_stmt 1 view .LVU121
 413              		.loc 1 133 5 view .LVU122
 414              		.loc 1 128 8 is_stmt 0 view .LVU123
 415 006a A4EB060B 		sub	fp, r4, r6
 416              		.loc 1 126 5 view .LVU124
 417 006e 3246     		mov	r2, r6
 418              		.loc 1 133 5 view .LVU125
 419 0070 3946     		mov	r1, r7
 420              		.loc 1 125 11 view .LVU126
 421 0072 34D9     		bls	.L12
 422              		.loc 1 126 5 view .LVU127
 423 0074 FFF7FEFF 		bl	memcpy
 424              	.LVL32:
 425              		.loc 1 127 5 is_stmt 1 view .LVU128
 426              		.loc 1 128 5 view .LVU129
 427              		.loc 1 129 5 view .LVU130
 428 0078 5A46     		mov	r2, fp
 429 007a B919     		adds	r1, r7, r6
 430              	.LVL33:
 431              		.loc 1 129 5 is_stmt 0 view .LVU131
 432 007c 2868     		ldr	r0, [r5]
 433 007e FFF7FEFF 		bl	memcpy
 434              	.LVL34:
 435              		.loc 1 130 5 is_stmt 1 view .LVU132
 436              		.loc 1 130 28 is_stmt 0 view .LVU133
 437 0082 2A68     		ldr	r2, [r5]
 438 0084 5A44     		add	r2, r2, fp
 439              	.LVL35:
 440              	.L11:
 441              		.loc 1 137 3 view .LVU134
 442 0086 4846     		mov	r0, r9
 443              		.loc 1 123 15 view .LVU135
 444 0088 AA60     		str	r2, [r5, #8]
 445              		.loc 1 137 3 is_stmt 1 view .LVU136
 446 008a FFF7FEFF 		bl	chMtxUnlock
 447              	.LVL36:
 448              		.loc 1 139 3 view .LVU137
 449              		.loc 1 139 3 is_stmt 0 view .LVU138
 450              	.LBE113:
 451              	.LBE116:
 452              		.loc 1 294 5 is_stmt 1 view .LVU139
 453              	.LBB117:
 454              		.loc 1 295 7 view .LVU140
 455              		.loc 1 297 7 view .LVU141
 456              	.LBB118:
ARM GAS  C:\Users\DEVELO~1\AppData\Local\Temp\ccHerZYT.s 			page 9


 457              	.LBI118:
 458              		.loc 2 372 20 view .LVU142
 459              		.loc 2 374 3 view .LVU143
 460              	.LBB119:
 461              	.LBI119:
 462              		.loc 3 840 27 view .LVU144
 463              		.loc 3 848 3 view .LVU145
 464              	.LBB120:
 465              	.LBI120:
 466              		.loc 4 491 27 view .LVU146
 467              	.LBB121:
 468              		.loc 4 493 3 view .LVU147
 469              	.LBE121:
 470              	.LBE120:
 471              	.LBE119:
 472              	.LBE118:
 473              	.LBE117:
 474              		.loc 1 307 7 view .LVU148
 475              		.loc 1 311 7 is_stmt 0 view .LVU149
 476 008e 0021     		movs	r1, #0
 477 0090 5046     		mov	r0, r10
 478              		.loc 1 294 8 view .LVU150
 479 0092 84B9     		cbnz	r4, .L13
 480              	.LBB131:
 481              	.LBB125:
 482              	.LBB124:
 483              	.LBB123:
 484              	.LBB122:
 485              		.loc 4 493 3 view .LVU151
 486 0094 3023     		movs	r3, #48
 487              		.syntax unified
 488              	@ 493 "../../../os/common/ext/ARM/CMSIS/Core/Include/cmsis_gcc.h" 1
 489 0096 83F31188 		MSR basepri, r3
 490              	@ 0 "" 2
 491              	.LVL37:
 492              		.loc 4 493 3 view .LVU152
 493              		.thumb
 494              		.syntax unified
 495              	.LBE122:
 496              	.LBE123:
 497              	.LBE124:
 498              		.loc 2 375 35 is_stmt 1 view .LVU153
 499              		.loc 2 376 21 view .LVU154
 500              	.LBE125:
 501              		.loc 1 298 7 view .LVU155
 502              		.loc 1 298 13 is_stmt 0 view .LVU156
 503 009a 18EE101A 		vmov	r1, s16	@ int
 504 009e 05F11800 		add	r0, r5, #24
 505 00a2 FFF7FEFF 		bl	chThdSuspendTimeoutS
 506              	.LVL38:
 507              		.loc 1 299 7 is_stmt 1 view .LVU157
 508              	.LBB126:
 509              	.LBI126:
 510              		.loc 2 386 20 view .LVU158
 511              	.LBB127:
 512              		.loc 2 388 23 view .LVU159
 513              		.loc 2 389 34 view .LVU160
ARM GAS  C:\Users\DEVELO~1\AppData\Local\Temp\ccHerZYT.s 			page 10


 514              		.loc 2 395 3 view .LVU161
 515              		.loc 2 395 3 view .LVU162
 516              		.loc 2 395 3 view .LVU163
 517              		.loc 2 399 3 view .LVU164
 518              	.LBB128:
 519              	.LBI128:
 520              		.loc 3 864 27 view .LVU165
 521              		.loc 3 867 3 view .LVU166
 522              	.LBB129:
 523              	.LBI129:
 524              		.loc 4 491 27 view .LVU167
 525              	.LBB130:
 526              		.loc 4 493 3 view .LVU168
 527              		.syntax unified
 528              	@ 493 "../../../os/common/ext/ARM/CMSIS/Core/Include/cmsis_gcc.h" 1
 529 00a6 84F31188 		MSR basepri, r4
 530              	@ 0 "" 2
 531              	.LVL39:
 532              		.loc 4 493 3 is_stmt 0 view .LVU169
 533              		.thumb
 534              		.syntax unified
 535              	.LBE130:
 536              	.LBE129:
 537              	.LBE128:
 538              	.LBE127:
 539              	.LBE126:
 540              		.loc 1 302 7 is_stmt 1 view .LVU170
 541              		.loc 1 302 10 is_stmt 0 view .LVU171
 542 00aa 0028     		cmp	r0, #0
 543 00ac CCD0     		beq	.L16
 544              	.LBE131:
 545              	.LBE96:
 546              		.loc 1 317 14 view .LVU172
 547 00ae 019B     		ldr	r3, [sp, #4]
 548 00b0 A3EB0808 		sub	r8, r3, r8
 549              	.LVL40:
 550              		.loc 1 317 14 view .LVU173
 551 00b4 09E0     		b	.L9
 552              	.LVL41:
 553              	.L13:
 554              	.LBB134:
 555              		.loc 1 307 10 view .LVU174
 556 00b6 A8EB0408 		sub	r8, r8, r4
 557              	.LVL42:
 558              		.loc 1 308 7 is_stmt 1 view .LVU175
 559              		.loc 1 308 10 is_stmt 0 view .LVU176
 560 00ba 2744     		add	r7, r7, r4
 561              	.LVL43:
 562              		.loc 1 311 7 is_stmt 1 view .LVU177
 563 00bc FFF7FEFF 		bl	chThdResume
 564              	.LVL44:
 565              		.loc 1 311 7 is_stmt 0 view .LVU178
 566              	.LBE134:
 567              		.loc 1 290 12 is_stmt 1 view .LVU179
 568 00c0 B8F1000F 		cmp	r8, #0
 569 00c4 C0D1     		bne	.L16
 570              	.LVL45:
ARM GAS  C:\Users\DEVELO~1\AppData\Local\Temp\ccHerZYT.s 			page 11


 571              	.L15:
 572              	.LBB135:
 573              	.LBB132:
 574              	.LBB114:
 575              		.loc 1 108 3 is_stmt 0 view .LVU180
 576 00c6 DDF80480 		ldr	r8, [sp, #4]
 577              	.L9:
 578              		.loc 1 108 3 view .LVU181
 579              	.LBE114:
 580              	.LBE132:
 581              	.LBE135:
 582              		.loc 1 315 3 is_stmt 1 view .LVU182
 583 00ca 18EE900A 		vmov	r0, s17	@ int
 584 00ce FFF7FEFF 		bl	chMtxUnlock
 585              	.LVL46:
 586              		.loc 1 317 3 view .LVU183
 587              		.loc 1 318 1 is_stmt 0 view .LVU184
 588 00d2 4046     		mov	r0, r8
 589 00d4 03B0     		add	sp, sp, #12
 590              		.cfi_remember_state
 591              		.cfi_def_cfa_offset 44
 592              		@ sp needed
 593 00d6 BDEC028B 		vldm	sp!, {d8}
 594              		.cfi_restore 80
 595              		.cfi_restore 81
 596              		.cfi_def_cfa_offset 36
 597              	.LVL47:
 598              		.loc 1 318 1 view .LVU185
 599 00da BDE8F08F 		pop	{r4, r5, r6, r7, r8, r9, r10, fp, pc}
 600              	.LVL48:
 601              	.L12:
 602              		.cfi_restore_state
 603              	.LBB136:
 604              	.LBB133:
 605              	.LBB115:
 606              		.loc 1 133 5 view .LVU186
 607 00de 2246     		mov	r2, r4
 608              	.LVL49:
 609              		.loc 1 133 5 view .LVU187
 610 00e0 FFF7FEFF 		bl	memcpy
 611              	.LVL50:
 612              		.loc 1 134 5 is_stmt 1 view .LVU188
 613              		.loc 1 134 19 is_stmt 0 view .LVU189
 614 00e4 2A68     		ldr	r2, [r5]
 615 00e6 CEE7     		b	.L11
 616              	.L26:
 617              		.loc 1 122 5 is_stmt 1 view .LVU190
 618 00e8 2246     		mov	r2, r4
 619 00ea 3946     		mov	r1, r7
 620 00ec FFF7FEFF 		bl	memcpy
 621              	.LVL51:
 622              		.loc 1 123 5 view .LVU191
 623              		.loc 1 123 15 is_stmt 0 view .LVU192
 624 00f0 AA68     		ldr	r2, [r5, #8]
 625 00f2 2244     		add	r2, r2, r4
 626 00f4 C7E7     		b	.L11
 627              	.LBE115:
ARM GAS  C:\Users\DEVELO~1\AppData\Local\Temp\ccHerZYT.s 			page 12


 628              	.LBE133:
 629              	.LBE136:
 630              		.cfi_endproc
 631              	.LFE356:
 632              		.size	chPipeWriteTimeout, .-chPipeWriteTimeout
 633 00f6 00BF     		.section	.text.chPipeReadTimeout,"ax",%progbits
 634              		.align	1
 635              		.p2align 2,,3
 636              		.global	chPipeReadTimeout
 637              		.syntax unified
 638              		.thumb
 639              		.thumb_func
 640              		.type	chPipeReadTimeout, %function
 641              	chPipeReadTimeout:
 642              	.LVL52:
 643              	.LFB357:
 644              		.loc 1 342 59 is_stmt 1 view -0
 645              		.cfi_startproc
 646              		@ args = 0, pretend = 0, frame = 8
 647              		@ frame_needed = 0, uses_anonymous_args = 0
 648              		.loc 1 343 3 view .LVU194
 649              		.loc 1 342 59 is_stmt 0 view .LVU195
 650 0000 2DE9F04F 		push	{r4, r5, r6, r7, r8, r9, r10, fp, lr}
 651              		.cfi_def_cfa_offset 36
 652              		.cfi_offset 4, -36
 653              		.cfi_offset 5, -32
 654              		.cfi_offset 6, -28
 655              		.cfi_offset 7, -24
 656              		.cfi_offset 8, -20
 657              		.cfi_offset 9, -16
 658              		.cfi_offset 10, -12
 659              		.cfi_offset 11, -8
 660              		.cfi_offset 14, -4
 661 0004 2DED028B 		vpush.64	{d8}
 662              		.cfi_def_cfa_offset 44
 663              		.cfi_offset 80, -44
 664              		.cfi_offset 81, -40
 665 0008 08EE103A 		vmov	s16, r3	@ int
 666 000c 83B0     		sub	sp, sp, #12
 667              		.cfi_def_cfa_offset 56
 668              		.loc 1 348 6 view .LVU196
 669 000e 037D     		ldrb	r3, [r0, #20]	@ zero_extendqisi2
 670              	.LVL53:
 671              		.loc 1 342 59 view .LVU197
 672 0010 0192     		str	r2, [sp, #4]
 673              	.LVL54:
 674              		.loc 1 345 3 is_stmt 1 view .LVU198
 675              		.loc 1 345 3 view .LVU199
 676              		.loc 1 345 3 view .LVU200
 677              		.loc 1 348 3 view .LVU201
 678              		.loc 1 348 6 is_stmt 0 view .LVU202
 679 0012 3BB1     		cbz	r3, .L46
 680              		.loc 1 349 12 view .LVU203
 681 0014 4FF00008 		mov	r8, #0
 682              		.loc 1 382 1 view .LVU204
 683 0018 4046     		mov	r0, r8
 684              	.LVL55:
ARM GAS  C:\Users\DEVELO~1\AppData\Local\Temp\ccHerZYT.s 			page 13


 685              		.loc 1 382 1 view .LVU205
 686 001a 03B0     		add	sp, sp, #12
 687              		.cfi_remember_state
 688              		.cfi_def_cfa_offset 44
 689              		@ sp needed
 690 001c BDEC028B 		vldm	sp!, {d8}
 691              		.cfi_restore 80
 692              		.cfi_restore 81
 693              		.cfi_def_cfa_offset 36
 694              	.LVL56:
 695              		.loc 1 382 1 view .LVU206
 696 0020 BDE8F08F 		pop	{r4, r5, r6, r7, r8, r9, r10, fp, pc}
 697              	.LVL57:
 698              	.L46:
 699              		.cfi_restore_state
 700              		.loc 1 352 3 is_stmt 1 view .LVU207
 701 0024 00F14003 		add	r3, r0, #64
 702 0028 1546     		mov	r5, r2
 703 002a 0446     		mov	r4, r0
 704 002c 0F46     		mov	r7, r1
 705 002e 1846     		mov	r0, r3
 706              	.LVL58:
 707              		.loc 1 352 3 is_stmt 0 view .LVU208
 708 0030 08EE903A 		vmov	s17, r3	@ int
 709 0034 FFF7FEFF 		bl	chMtxLock
 710              	.LVL59:
 711              		.loc 1 354 3 is_stmt 1 view .LVU209
 712              		.loc 1 354 12 view .LVU210
 713 0038 002D     		cmp	r5, #0
 714 003a 43D0     		beq	.L36
 715              	.LVL60:
 716              	.LBB152:
 717              	.LBB153:
 718              	.LBB154:
 719              		.loc 1 159 3 is_stmt 0 view .LVU211
 720 003c 04F12009 		add	r9, r4, #32
 721 0040 DDF80480 		ldr	r8, [sp, #4]
 722              	.LBE154:
 723              	.LBE153:
 724              		.loc 1 375 7 view .LVU212
 725 0044 04F1180A 		add	r10, r4, #24
 726              	.LVL61:
 727              	.L37:
 728              		.loc 1 355 5 is_stmt 1 view .LVU213
 729              		.loc 1 357 5 view .LVU214
 730              	.LBB160:
 731              	.LBI153:
 732              		.loc 1 156 15 view .LVU215
 733              	.LBB157:
 734              		.loc 1 157 3 view .LVU216
 735              		.loc 1 159 3 view .LVU217
 736 0048 4846     		mov	r0, r9
 737 004a FFF7FEFF 		bl	chMtxLock
 738              	.LVL62:
 739              		.loc 1 162 3 view .LVU218
 740              	.LBB155:
 741              	.LBI155:
ARM GAS  C:\Users\DEVELO~1\AppData\Local\Temp\ccHerZYT.s 			page 14


 742              		.loc 5 174 22 view .LVU219
 743              	.LBB156:
 744              		.loc 5 176 3 view .LVU220
 745              	.LBE156:
 746              	.LBE155:
 747              		.loc 1 176 8 view .LVU221
 748              		.loc 1 169 25 is_stmt 0 view .LVU222
 749 004e 6668     		ldr	r6, [r4, #4]
 750              		.loc 1 169 29 view .LVU223
 751 0050 D4E90313 		ldrd	r1, r3, [r4, #12]
 752 0054 4345     		cmp	r3, r8
 753 0056 1D46     		mov	r5, r3
 754              		.loc 1 169 25 view .LVU224
 755 0058 A6EB0106 		sub	r6, r6, r1
 756 005c 28BF     		it	cs
 757 005e 4546     		movcs	r5, r8
 758              	.LVL63:
 759              		.loc 1 165 3 is_stmt 1 view .LVU225
 760              		.loc 1 165 11 is_stmt 0 view .LVU226
 761 0060 5B1B     		subs	r3, r3, r5
 762              		.loc 1 172 6 view .LVU227
 763 0062 B542     		cmp	r5, r6
 764              		.loc 1 165 11 view .LVU228
 765 0064 2361     		str	r3, [r4, #16]
 766              		.loc 1 169 3 is_stmt 1 view .LVU229
 767              	.LVL64:
 768              		.loc 1 172 3 view .LVU230
 769              		.loc 1 172 6 is_stmt 0 view .LVU231
 770 0066 3ED3     		bcc	.L47
 771              		.loc 1 177 5 is_stmt 1 view .LVU232
 772              		.loc 1 184 5 view .LVU233
 773              		.loc 1 179 8 is_stmt 0 view .LVU234
 774 0068 A5EB060B 		sub	fp, r5, r6
 775              		.loc 1 177 5 view .LVU235
 776 006c 3246     		mov	r2, r6
 777              		.loc 1 184 5 view .LVU236
 778 006e 3846     		mov	r0, r7
 779              		.loc 1 176 11 view .LVU237
 780 0070 34D9     		bls	.L33
 781              		.loc 1 177 5 view .LVU238
 782 0072 FFF7FEFF 		bl	memcpy
 783              	.LVL65:
 784              		.loc 1 178 5 is_stmt 1 view .LVU239
 785              		.loc 1 179 5 view .LVU240
 786              		.loc 1 180 5 view .LVU241
 787 0076 5A46     		mov	r2, fp
 788 0078 B819     		adds	r0, r7, r6
 789              	.LVL66:
 790              		.loc 1 180 5 is_stmt 0 view .LVU242
 791 007a 2168     		ldr	r1, [r4]
 792 007c FFF7FEFF 		bl	memcpy
 793              	.LVL67:
 794              		.loc 1 181 5 is_stmt 1 view .LVU243
 795              		.loc 1 181 28 is_stmt 0 view .LVU244
 796 0080 2268     		ldr	r2, [r4]
 797 0082 5A44     		add	r2, r2, fp
 798              	.LVL68:
ARM GAS  C:\Users\DEVELO~1\AppData\Local\Temp\ccHerZYT.s 			page 15


 799              	.L32:
 800              		.loc 1 188 3 view .LVU245
 801 0084 4846     		mov	r0, r9
 802              		.loc 1 174 15 view .LVU246
 803 0086 E260     		str	r2, [r4, #12]
 804              		.loc 1 188 3 is_stmt 1 view .LVU247
 805 0088 FFF7FEFF 		bl	chMtxUnlock
 806              	.LVL69:
 807              		.loc 1 190 3 view .LVU248
 808              		.loc 1 190 3 is_stmt 0 view .LVU249
 809              	.LBE157:
 810              	.LBE160:
 811              		.loc 1 358 5 is_stmt 1 view .LVU250
 812              	.LBB161:
 813              		.loc 1 359 7 view .LVU251
 814              		.loc 1 361 7 view .LVU252
 815              	.LBB162:
 816              	.LBI162:
 817              		.loc 2 372 20 view .LVU253
 818              		.loc 2 374 3 view .LVU254
 819              	.LBB163:
 820              	.LBI163:
 821              		.loc 3 840 27 view .LVU255
 822              		.loc 3 848 3 view .LVU256
 823              	.LBB164:
 824              	.LBI164:
 825              		.loc 4 491 27 view .LVU257
 826              	.LBB165:
 827              		.loc 4 493 3 view .LVU258
 828              	.LBE165:
 829              	.LBE164:
 830              	.LBE163:
 831              	.LBE162:
 832              	.LBE161:
 833              		.loc 1 371 7 view .LVU259
 834              		.loc 1 375 7 is_stmt 0 view .LVU260
 835 008c 0021     		movs	r1, #0
 836 008e 5046     		mov	r0, r10
 837              		.loc 1 358 8 view .LVU261
 838 0090 85B9     		cbnz	r5, .L34
 839              	.LBB175:
 840              	.LBB169:
 841              	.LBB168:
 842              	.LBB167:
 843              	.LBB166:
 844              		.loc 4 493 3 view .LVU262
 845 0092 3023     		movs	r3, #48
 846              		.syntax unified
 847              	@ 493 "../../../os/common/ext/ARM/CMSIS/Core/Include/cmsis_gcc.h" 1
 848 0094 83F31188 		MSR basepri, r3
 849              	@ 0 "" 2
 850              	.LVL70:
 851              		.loc 4 493 3 view .LVU263
 852              		.thumb
 853              		.syntax unified
 854              	.LBE166:
 855              	.LBE167:
ARM GAS  C:\Users\DEVELO~1\AppData\Local\Temp\ccHerZYT.s 			page 16


 856              	.LBE168:
 857              		.loc 2 375 35 is_stmt 1 view .LVU264
 858              		.loc 2 376 21 view .LVU265
 859              	.LBE169:
 860              		.loc 1 362 7 view .LVU266
 861              		.loc 1 362 13 is_stmt 0 view .LVU267
 862 0098 18EE101A 		vmov	r1, s16	@ int
 863 009c 04F11C00 		add	r0, r4, #28
 864 00a0 FFF7FEFF 		bl	chThdSuspendTimeoutS
 865              	.LVL71:
 866              		.loc 1 363 7 is_stmt 1 view .LVU268
 867              	.LBB170:
 868              	.LBI170:
 869              		.loc 2 386 20 view .LVU269
 870              	.LBB171:
 871              		.loc 2 388 23 view .LVU270
 872              		.loc 2 389 34 view .LVU271
 873              		.loc 2 395 3 view .LVU272
 874              		.loc 2 395 3 view .LVU273
 875              		.loc 2 395 3 view .LVU274
 876              		.loc 2 399 3 view .LVU275
 877              	.LBB172:
 878              	.LBI172:
 879              		.loc 3 864 27 view .LVU276
 880              		.loc 3 867 3 view .LVU277
 881              	.LBB173:
 882              	.LBI173:
 883              		.loc 4 491 27 view .LVU278
 884              	.LBB174:
 885              		.loc 4 493 3 view .LVU279
 886              		.syntax unified
 887              	@ 493 "../../../os/common/ext/ARM/CMSIS/Core/Include/cmsis_gcc.h" 1
 888 00a4 85F31188 		MSR basepri, r5
 889              	@ 0 "" 2
 890              	.LVL72:
 891              		.loc 4 493 3 is_stmt 0 view .LVU280
 892              		.thumb
 893              		.syntax unified
 894              	.LBE174:
 895              	.LBE173:
 896              	.LBE172:
 897              	.LBE171:
 898              	.LBE170:
 899              		.loc 1 366 7 is_stmt 1 view .LVU281
 900              		.loc 1 366 10 is_stmt 0 view .LVU282
 901 00a8 0028     		cmp	r0, #0
 902 00aa CDD0     		beq	.L37
 903              	.LBE175:
 904              	.LBE152:
 905              		.loc 1 381 14 view .LVU283
 906 00ac 019B     		ldr	r3, [sp, #4]
 907 00ae A3EB0808 		sub	r8, r3, r8
 908              	.LVL73:
 909              		.loc 1 381 14 view .LVU284
 910 00b2 09E0     		b	.L30
 911              	.LVL74:
 912              	.L34:
ARM GAS  C:\Users\DEVELO~1\AppData\Local\Temp\ccHerZYT.s 			page 17


 913              	.LBB178:
 914              		.loc 1 371 10 view .LVU285
 915 00b4 A8EB0508 		sub	r8, r8, r5
 916              	.LVL75:
 917              		.loc 1 372 7 is_stmt 1 view .LVU286
 918              		.loc 1 372 10 is_stmt 0 view .LVU287
 919 00b8 2F44     		add	r7, r7, r5
 920              	.LVL76:
 921              		.loc 1 375 7 is_stmt 1 view .LVU288
 922 00ba FFF7FEFF 		bl	chThdResume
 923              	.LVL77:
 924              		.loc 1 375 7 is_stmt 0 view .LVU289
 925              	.LBE178:
 926              		.loc 1 354 12 is_stmt 1 view .LVU290
 927 00be B8F1000F 		cmp	r8, #0
 928 00c2 C1D1     		bne	.L37
 929              	.LVL78:
 930              	.L36:
 931              	.LBB179:
 932              	.LBB176:
 933              	.LBB158:
 934              		.loc 1 159 3 is_stmt 0 view .LVU291
 935 00c4 DDF80480 		ldr	r8, [sp, #4]
 936              	.L30:
 937              		.loc 1 159 3 view .LVU292
 938              	.LBE158:
 939              	.LBE176:
 940              	.LBE179:
 941              		.loc 1 379 3 is_stmt 1 view .LVU293
 942 00c8 18EE900A 		vmov	r0, s17	@ int
 943 00cc FFF7FEFF 		bl	chMtxUnlock
 944              	.LVL79:
 945              		.loc 1 381 3 view .LVU294
 946              		.loc 1 382 1 is_stmt 0 view .LVU295
 947 00d0 4046     		mov	r0, r8
 948 00d2 03B0     		add	sp, sp, #12
 949              		.cfi_remember_state
 950              		.cfi_def_cfa_offset 44
 951              		@ sp needed
 952 00d4 BDEC028B 		vldm	sp!, {d8}
 953              		.cfi_restore 80
 954              		.cfi_restore 81
 955              		.cfi_def_cfa_offset 36
 956              	.LVL80:
 957              		.loc 1 382 1 view .LVU296
 958 00d8 BDE8F08F 		pop	{r4, r5, r6, r7, r8, r9, r10, fp, pc}
 959              	.LVL81:
 960              	.L33:
 961              		.cfi_restore_state
 962              	.LBB180:
 963              	.LBB177:
 964              	.LBB159:
 965              		.loc 1 184 5 view .LVU297
 966 00dc 2A46     		mov	r2, r5
 967              	.LVL82:
 968              		.loc 1 184 5 view .LVU298
 969 00de FFF7FEFF 		bl	memcpy
ARM GAS  C:\Users\DEVELO~1\AppData\Local\Temp\ccHerZYT.s 			page 18


 970              	.LVL83:
 971              		.loc 1 185 5 is_stmt 1 view .LVU299
 972              		.loc 1 185 19 is_stmt 0 view .LVU300
 973 00e2 2268     		ldr	r2, [r4]
 974 00e4 CEE7     		b	.L32
 975              	.L47:
 976              		.loc 1 173 5 is_stmt 1 view .LVU301
 977 00e6 2A46     		mov	r2, r5
 978 00e8 3846     		mov	r0, r7
 979 00ea FFF7FEFF 		bl	memcpy
 980              	.LVL84:
 981              		.loc 1 174 5 view .LVU302
 982              		.loc 1 174 15 is_stmt 0 view .LVU303
 983 00ee E268     		ldr	r2, [r4, #12]
 984 00f0 2A44     		add	r2, r2, r5
 985 00f2 C7E7     		b	.L32
 986              	.LBE159:
 987              	.LBE177:
 988              	.LBE180:
 989              		.cfi_endproc
 990              	.LFE357:
 991              		.size	chPipeReadTimeout, .-chPipeReadTimeout
 992              		.text
 993              	.Letext0:
 994              		.file 6 "c:\\chibistudio\\tools\\gnu tools arm embedded\\11.3 2022.08\\lib\\gcc\\arm-none-eabi\\11
 995              		.file 7 "c:\\chibistudio\\tools\\gnu tools arm embedded\\11.3 2022.08\\arm-none-eabi\\include\\mac
 996              		.file 8 "c:\\chibistudio\\tools\\gnu tools arm embedded\\11.3 2022.08\\arm-none-eabi\\include\\sys
 997              		.file 9 "../../../os/common/ports/ARM-common/include/chtypes.h"
 998              		.file 10 "../../../os/rt/include/chearly.h"
 999              		.file 11 "../../../os/rt/include/chobjects.h"
 1000              		.file 12 "../../../os/rt/include/chrfcu.h"
 1001              		.file 13 "../../../os/rt/include/chdebug.h"
 1002              		.file 14 "../../../os/rt/include/chtime.h"
 1003              		.file 15 "../../../os/rt/include/chtrace.h"
 1004              		.file 16 "../../../os/rt/include/chlists.h"
 1005              		.file 17 "../../../os/rt/include/chsem.h"
 1006              		.file 18 "../../../os/rt/include/chmtx.h"
 1007              		.file 19 "c:\\chibistudio\\tools\\gnu tools arm embedded\\11.3 2022.08\\arm-none-eabi\\include\\st
 1008              		.file 20 "../../../os/rt/include/chthreads.h"
 1009              		.file 21 "../../../os/rt/include/chschd.h"
 1010              		.file 22 "<built-in>"