ARM GAS  C:\Users\DEVELO~1\AppData\Local\Temp\ccd9QVAr.s 			page 1


   1              		.cpu cortex-m7
   2              		.arch armv7e-m
   3              		.fpu fpv5-d16
   4              		.eabi_attribute 28, 1
   5              		.eabi_attribute 20, 1
   6              		.eabi_attribute 21, 1
   7              		.eabi_attribute 23, 3
   8              		.eabi_attribute 24, 1
   9              		.eabi_attribute 25, 1
  10              		.eabi_attribute 26, 1
  11              		.eabi_attribute 30, 2
  12              		.eabi_attribute 34, 1
  13              		.eabi_attribute 18, 4
  14              		.file	"chregistry.c"
  15              		.text
  16              	.Ltext0:
  17              		.cfi_sections	.debug_frame
  18              		.section	.text.chRegGarbageCollect,"ax",%progbits
  19              		.align	1
  20              		.p2align 2,,3
  21              		.global	chRegGarbageCollect
  22              		.syntax unified
  23              		.thumb
  24              		.thumb_func
  25              		.type	chRegGarbageCollect, %function
  26              	chRegGarbageCollect:
  27              	.LVL0:
  28              	.LFB352:
  29              		.file 1 "./docs/ChibiOS/os/rt/src/chregistry.c"
  30              		.loc 1 164 42 view -0
  31              		.cfi_startproc
  32              		@ args = 0, pretend = 0, frame = 0
  33              		@ frame_needed = 0, uses_anonymous_args = 0
  34              		.loc 1 165 3 view .LVU1
  35              		.loc 1 166 3 view .LVU2
  36              		.loc 1 168 3 view .LVU3
  37              	.LBB110:
  38              	.LBI110:
  39              		.loc 1 201 11 view .LVU4
  40              	.LBB111:
  41              		.loc 1 202 3 view .LVU5
  42              		.loc 1 203 3 view .LVU6
  43              		.loc 1 205 3 view .LVU7
  44              	.LBB112:
  45              	.LBI112:
  46              		.file 2 "./docs/ChibiOS/os/rt/include/chsys.h"
  47              		.loc 2 372 20 view .LVU8
  48              		.loc 2 374 3 view .LVU9
  49              	.LBB113:
  50              	.LBI113:
  51              		.file 3 "./docs/ChibiOS/os/common/ports/ARMv7-M/chcore.h"
  52              		.loc 3 840 27 view .LVU10
  53              		.loc 3 848 3 view .LVU11
  54              	.LBB114:
  55              	.LBI114:
  56              		.file 4 "./docs/ChibiOS/os/common/ext/ARM/CMSIS/Core/Include/cmsis_gcc.h"
  57              		.loc 4 491 27 view .LVU12
ARM GAS  C:\Users\DEVELO~1\AppData\Local\Temp\ccd9QVAr.s 			page 2


  58              	.LBB115:
  59              		.loc 4 493 3 view .LVU13
  60              	.LBE115:
  61              	.LBE114:
  62              	.LBE113:
  63              	.LBE112:
  64              	.LBE111:
  65              	.LBE110:
  66              		.loc 1 164 42 is_stmt 0 view .LVU14
  67 0000 2DE9F843 		push	{r3, r4, r5, r6, r7, r8, r9, lr}
  68              		.cfi_def_cfa_offset 32
  69              		.cfi_offset 3, -32
  70              		.cfi_offset 4, -28
  71              		.cfi_offset 5, -24
  72              		.cfi_offset 6, -20
  73              		.cfi_offset 7, -16
  74              		.cfi_offset 8, -12
  75              		.cfi_offset 9, -8
  76              		.cfi_offset 14, -4
  77              	.LBB136:
  78              	.LBB134:
  79              	.LBB122:
  80              	.LBB120:
  81              	.LBB118:
  82              	.LBB116:
  83              		.loc 4 493 3 view .LVU15
  84 0004 3025     		movs	r5, #48
  85              	.LBE116:
  86              	.LBE118:
  87              	.LBE120:
  88              	.LBE122:
  89              	.LBE134:
  90              	.LBE136:
  91              		.loc 1 164 42 view .LVU16
  92 0006 0746     		mov	r7, r0
  93              	.LBB137:
  94              	.LBB135:
  95              	.LBB123:
  96              	.LBB121:
  97              	.LBB119:
  98              	.LBB117:
  99              		.loc 4 493 3 view .LVU17
 100              		.syntax unified
 101              	@ 493 "./docs/ChibiOS/os/common/ext/ARM/CMSIS/Core/Include/cmsis_gcc.h" 1
 102 0008 85F31188 		MSR basepri, r5
 103              	@ 0 "" 2
 104              	.LVL1:
 105              		.loc 4 493 3 view .LVU18
 106              		.thumb
 107              		.syntax unified
 108              	.LBE117:
 109              	.LBE119:
 110              	.LBE121:
 111              		.loc 2 375 35 is_stmt 1 view .LVU19
 112              		.loc 2 376 21 view .LVU20
 113              	.LBE123:
 114              		.loc 1 206 3 view .LVU21
ARM GAS  C:\Users\DEVELO~1\AppData\Local\Temp\ccd9QVAr.s 			page 3


 115              		.loc 1 206 5 is_stmt 0 view .LVU22
 116 000c 1E4E     		ldr	r6, .L10
 117              	.LBB124:
 118              	.LBB125:
 119              	.LBB126:
 120              	.LBB127:
 121              	.LBB128:
 122              		.loc 4 493 3 view .LVU23
 123 000e 4FF00008 		mov	r8, #0
 124              	.LBE128:
 125              	.LBE127:
 126              	.LBE126:
 127              	.LBE125:
 128              	.LBE124:
 129              		.loc 1 206 5 view .LVU24
 130 0012 56F8303F 		ldr	r3, [r6, #48]!
 131              	.LVL2:
 132              		.loc 1 207 3 is_stmt 1 view .LVU25
 133              		.loc 1 209 11 is_stmt 0 view .LVU26
 134 0016 13F8062C 		ldrb	r2, [r3, #-6]	@ zero_extendqisi2
 135              		.loc 1 207 6 view .LVU27
 136 001a A3F12404 		sub	r4, r3, #36
 137              	.LVL3:
 138              		.loc 1 209 3 is_stmt 1 view .LVU28
 139              		.loc 1 209 11 is_stmt 0 view .LVU29
 140 001e 0132     		adds	r2, r2, #1
 141 0020 03F8062C 		strb	r2, [r3, #-6]
 142              		.loc 1 211 3 is_stmt 1 view .LVU30
 143              	.LBB133:
 144              	.LBI124:
 145              		.loc 2 386 20 view .LVU31
 146              	.LBB132:
 147              		.loc 2 388 23 view .LVU32
 148              		.loc 2 389 34 view .LVU33
 149              		.loc 2 395 3 view .LVU34
 150              		.loc 2 395 3 view .LVU35
 151              		.loc 2 395 3 view .LVU36
 152              		.loc 2 399 3 view .LVU37
 153              	.LBB131:
 154              	.LBI126:
 155              		.loc 3 864 27 view .LVU38
 156              		.loc 3 867 3 view .LVU39
 157              	.LVL4:
 158              	.LBB130:
 159              	.LBI127:
 160              		.loc 4 491 27 view .LVU40
 161              	.LBB129:
 162              		.loc 4 493 3 view .LVU41
 163              		.syntax unified
 164              	@ 493 "./docs/ChibiOS/os/common/ext/ARM/CMSIS/Core/Include/cmsis_gcc.h" 1
 165 0024 88F31188 		MSR basepri, r8
 166              	@ 0 "" 2
 167              	.LVL5:
 168              		.loc 4 493 3 is_stmt 0 view .LVU42
 169              		.thumb
 170              		.syntax unified
 171              	.LBE129:
ARM GAS  C:\Users\DEVELO~1\AppData\Local\Temp\ccd9QVAr.s 			page 4


 172              	.LBE130:
 173              	.LBE131:
 174              	.LBE132:
 175              	.LBE133:
 176              		.loc 1 213 3 is_stmt 1 view .LVU43
 177              		.loc 1 213 3 is_stmt 0 view .LVU44
 178              	.LBE135:
 179              	.LBE137:
 180              	.LBB138:
 181              	.LBB139:
 182              	.LBB140:
 183              	.LBB141:
 184              	.LBB142:
 185              	.LBB143:
 186              	.LBB144:
 187              		.loc 4 493 3 view .LVU45
 188 0028 C146     		mov	r9, r8
 189 002a 11E0     		b	.L4
 190              	.LVL6:
 191              	.L2:
 192              		.loc 4 493 3 view .LVU46
 193              	.LBE144:
 194              	.LBE143:
 195              	.LBE142:
 196              	.LBE141:
 197              	.LBE140:
 198              	.LBE139:
 199              	.LBE138:
 200              		.loc 1 182 5 is_stmt 1 view .LVU47
 201              	.LBB172:
 202              	.LBI138:
 203              		.loc 1 227 11 view .LVU48
 204              	.LBB170:
 205              		.loc 1 228 3 view .LVU49
 206              		.loc 1 229 3 view .LVU50
 207              		.loc 1 231 3 view .LVU51
 208              	.LBB153:
 209              	.LBI153:
 210              		.loc 2 372 20 view .LVU52
 211              		.loc 2 374 3 view .LVU53
 212              	.LBB154:
 213              	.LBI154:
 214              		.loc 3 840 27 view .LVU54
 215              		.loc 3 848 3 view .LVU55
 216              	.LBB155:
 217              	.LBI155:
 218              		.loc 4 491 27 view .LVU56
 219              	.LBB156:
 220              		.loc 4 493 3 view .LVU57
 221              		.syntax unified
 222              	@ 493 "./docs/ChibiOS/os/common/ext/ARM/CMSIS/Core/Include/cmsis_gcc.h" 1
 223 002c 85F31188 		MSR basepri, r5
 224              	@ 0 "" 2
 225              	.LVL7:
 226              		.loc 4 493 3 is_stmt 0 view .LVU58
 227              		.thumb
 228              		.syntax unified
ARM GAS  C:\Users\DEVELO~1\AppData\Local\Temp\ccd9QVAr.s 			page 5


 229              	.LBE156:
 230              	.LBE155:
 231              	.LBE154:
 232              		.loc 2 375 35 is_stmt 1 view .LVU59
 233              		.loc 2 376 21 view .LVU60
 234              	.LBE153:
 235              		.loc 1 234 3 view .LVU61
 236              	.LBB160:
 237              		.loc 1 239 5 view .LVU62
 238              	.LBE160:
 239              		.loc 1 234 7 is_stmt 0 view .LVU63
 240 0030 636A     		ldr	r3, [r4, #36]
 241              	.LVL8:
 242              		.loc 1 235 3 is_stmt 1 view .LVU64
 243              	.LBB161:
 244              		.loc 1 240 5 view .LVU65
 245              	.LBE161:
 246              		.loc 1 235 6 is_stmt 0 view .LVU66
 247 0032 B342     		cmp	r3, r6
 248              	.LBB162:
 249              		.loc 1 240 9 view .LVU67
 250 0034 A3F12401 		sub	r1, r3, #36
 251              	.LVL9:
 252              		.loc 1 243 5 is_stmt 1 view .LVU68
 253              		.loc 1 243 5 view .LVU69
 254              		.loc 1 243 5 view .LVU70
 255              		.loc 1 245 5 view .LVU71
 256              	.LBE162:
 257              		.loc 1 235 6 is_stmt 0 view .LVU72
 258 0038 1CD0     		beq	.L6
 259              	.L9:
 260              	.LBB163:
 261              		.loc 1 245 14 view .LVU73
 262 003a 13F8062C 		ldrb	r2, [r3, #-6]	@ zero_extendqisi2
 263 003e 0132     		adds	r2, r2, #1
 264 0040 03F8062C 		strb	r2, [r3, #-6]
 265              		.loc 1 245 14 view .LVU74
 266              	.LBE163:
 267              		.loc 1 248 3 is_stmt 1 view .LVU75
 268              	.LBB164:
 269              	.LBI140:
 270              		.loc 2 386 20 view .LVU76
 271              	.LBB151:
 272              		.loc 2 388 23 view .LVU77
 273              		.loc 2 389 34 view .LVU78
 274              		.loc 2 395 3 view .LVU79
 275              		.loc 2 395 3 view .LVU80
 276              		.loc 2 395 3 view .LVU81
 277              		.loc 2 399 3 view .LVU82
 278              	.LBB149:
 279              	.LBI142:
 280              		.loc 3 864 27 view .LVU83
 281              		.loc 3 867 3 view .LVU84
 282              	.LVL10:
 283              	.LBB147:
 284              	.LBI143:
 285              		.loc 4 491 27 view .LVU85
ARM GAS  C:\Users\DEVELO~1\AppData\Local\Temp\ccd9QVAr.s 			page 6


 286              	.LBB145:
 287              		.loc 4 493 3 view .LVU86
 288              		.syntax unified
 289              	@ 493 "./docs/ChibiOS/os/common/ext/ARM/CMSIS/Core/Include/cmsis_gcc.h" 1
 290 0044 89F31188 		MSR basepri, r9
 291              	@ 0 "" 2
 292              	.LVL11:
 293              		.loc 4 493 3 is_stmt 0 view .LVU87
 294              		.thumb
 295              		.syntax unified
 296              	.LBE145:
 297              	.LBE147:
 298              	.LBE149:
 299              	.LBE151:
 300              	.LBE164:
 301              		.loc 1 250 3 is_stmt 1 view .LVU88
 302 0048 2046     		mov	r0, r4
 303 004a 0C46     		mov	r4, r1
 304              	.LVL12:
 305              		.loc 1 250 3 is_stmt 0 view .LVU89
 306 004c FFF7FEFF 		bl	chThdRelease
 307              	.LVL13:
 308              		.loc 1 253 3 is_stmt 1 view .LVU90
 309              		.loc 1 253 3 is_stmt 0 view .LVU91
 310              	.LBE170:
 311              	.LBE172:
 312              		.loc 1 183 15 is_stmt 1 view .LVU92
 313              	.L4:
 314              		.loc 1 169 3 view .LVU93
 315              		.loc 1 170 5 view .LVU94
 316              	.LBB173:
 317              	.LBI173:
 318              		.file 5 "./docs/ChibiOS/os/rt/include/chthreads.h"
 319              		.loc 5 514 21 view .LVU95
 320              	.LBB174:
 321              		.loc 5 516 3 view .LVU96
 322              		.loc 5 516 3 is_stmt 0 view .LVU97
 323              	.LBE174:
 324              	.LBE173:
 325              		.loc 1 170 8 view .LVU98
 326 0050 236B     		ldr	r3, [r4, #48]
 327 0052 9F42     		cmp	r7, r3
 328 0054 EAD1     		bne	.L2
 329              		.loc 1 173 7 is_stmt 1 view .LVU99
 330              		.loc 1 179 9 view .LVU100
 331              		.loc 1 178 10 is_stmt 0 view .LVU101
 332 0056 A37F     		ldrb	r3, [r4, #30]	@ zero_extendqisi2
 333              		.loc 1 173 8 view .LVU102
 334 0058 08F10108 		add	r8, r8, #1
 335              	.LVL14:
 336              		.loc 1 178 7 is_stmt 1 view .LVU103
 337              		.loc 1 179 9 is_stmt 0 view .LVU104
 338 005c 2046     		mov	r0, r4
 339              		.loc 1 178 10 view .LVU105
 340 005e 012B     		cmp	r3, #1
 341 0060 E4D9     		bls	.L2
 342              		.loc 1 179 9 view .LVU106
ARM GAS  C:\Users\DEVELO~1\AppData\Local\Temp\ccd9QVAr.s 			page 7


 343 0062 FFF7FEFF 		bl	chThdRelease
 344              	.LVL15:
 345              		.loc 1 182 5 is_stmt 1 view .LVU107
 346              	.LBB175:
 347              		.loc 1 227 11 view .LVU108
 348              	.LBB171:
 349              		.loc 1 228 3 view .LVU109
 350              		.loc 1 229 3 view .LVU110
 351              		.loc 1 231 3 view .LVU111
 352              	.LBB165:
 353              		.loc 2 372 20 view .LVU112
 354              		.loc 2 374 3 view .LVU113
 355              	.LBB159:
 356              		.loc 3 840 27 view .LVU114
 357              		.loc 3 848 3 view .LVU115
 358              	.LBB158:
 359              		.loc 4 491 27 view .LVU116
 360              	.LBB157:
 361              		.loc 4 493 3 view .LVU117
 362              		.syntax unified
 363              	@ 493 "./docs/ChibiOS/os/common/ext/ARM/CMSIS/Core/Include/cmsis_gcc.h" 1
 364 0066 85F31188 		MSR basepri, r5
 365              	@ 0 "" 2
 366              	.LVL16:
 367              		.loc 4 493 3 is_stmt 0 view .LVU118
 368              		.thumb
 369              		.syntax unified
 370              	.LBE157:
 371              	.LBE158:
 372              	.LBE159:
 373              		.loc 2 375 35 is_stmt 1 view .LVU119
 374              		.loc 2 376 21 view .LVU120
 375              	.LBE165:
 376              		.loc 1 234 3 view .LVU121
 377              	.LBB166:
 378              		.loc 1 239 5 view .LVU122
 379              	.LBE166:
 380              		.loc 1 234 7 is_stmt 0 view .LVU123
 381 006a 636A     		ldr	r3, [r4, #36]
 382              	.LVL17:
 383              		.loc 1 235 3 is_stmt 1 view .LVU124
 384              	.LBB167:
 385              		.loc 1 240 5 view .LVU125
 386              	.LBE167:
 387              		.loc 1 235 6 is_stmt 0 view .LVU126
 388 006c B342     		cmp	r3, r6
 389              	.LBB168:
 390              		.loc 1 240 9 view .LVU127
 391 006e A3F12401 		sub	r1, r3, #36
 392              	.LVL18:
 393              		.loc 1 243 5 is_stmt 1 view .LVU128
 394              		.loc 1 243 5 view .LVU129
 395              		.loc 1 243 5 view .LVU130
 396              		.loc 1 245 5 view .LVU131
 397              	.LBE168:
 398              		.loc 1 235 6 is_stmt 0 view .LVU132
 399 0072 E2D1     		bne	.L9
ARM GAS  C:\Users\DEVELO~1\AppData\Local\Temp\ccd9QVAr.s 			page 8


 400              	.L6:
 401              	.LVL19:
 402              		.loc 1 248 3 is_stmt 1 view .LVU133
 403              	.LBB169:
 404              		.loc 2 386 20 view .LVU134
 405              	.LBB152:
 406              		.loc 2 388 23 view .LVU135
 407              		.loc 2 389 34 view .LVU136
 408              		.loc 2 395 3 view .LVU137
 409              		.loc 2 395 3 view .LVU138
 410              		.loc 2 395 3 view .LVU139
 411              		.loc 2 399 3 view .LVU140
 412              	.LBB150:
 413              		.loc 3 864 27 view .LVU141
 414              		.loc 3 867 3 view .LVU142
 415              	.LBB148:
 416              		.loc 4 491 27 view .LVU143
 417              	.LBB146:
 418              		.loc 4 493 3 view .LVU144
 419 0074 0023     		movs	r3, #0
 420              	.LVL20:
 421              		.loc 4 493 3 is_stmt 0 view .LVU145
 422              		.syntax unified
 423              	@ 493 "./docs/ChibiOS/os/common/ext/ARM/CMSIS/Core/Include/cmsis_gcc.h" 1
 424 0076 83F31188 		MSR basepri, r3
 425              	@ 0 "" 2
 426              	.LVL21:
 427              		.loc 4 493 3 view .LVU146
 428              		.thumb
 429              		.syntax unified
 430              	.LBE146:
 431              	.LBE148:
 432              	.LBE150:
 433              	.LBE152:
 434              	.LBE169:
 435              		.loc 1 250 3 is_stmt 1 view .LVU147
 436 007a 2046     		mov	r0, r4
 437 007c FFF7FEFF 		bl	chThdRelease
 438              	.LVL22:
 439              		.loc 1 253 3 view .LVU148
 440              		.loc 1 253 3 is_stmt 0 view .LVU149
 441              	.LBE171:
 442              	.LBE175:
 443              		.loc 1 183 15 is_stmt 1 view .LVU150
 444              		.loc 1 185 3 view .LVU151
 445              		.loc 1 186 1 is_stmt 0 view .LVU152
 446 0080 4046     		mov	r0, r8
 447 0082 BDE8F883 		pop	{r3, r4, r5, r6, r7, r8, r9, pc}
 448              	.LVL23:
 449              	.L11:
 450              		.loc 1 186 1 view .LVU153
 451 0086 00BF     		.align	2
 452              	.L10:
 453 0088 00000000 		.word	ch0
 454              		.cfi_endproc
 455              	.LFE352:
 456              		.size	chRegGarbageCollect, .-chRegGarbageCollect
ARM GAS  C:\Users\DEVELO~1\AppData\Local\Temp\ccd9QVAr.s 			page 9


 457              		.section	.text.chRegFirstThread,"ax",%progbits
 458              		.align	1
 459              		.p2align 2,,3
 460              		.global	chRegFirstThread
 461              		.syntax unified
 462              		.thumb
 463              		.thumb_func
 464              		.type	chRegFirstThread, %function
 465              	chRegFirstThread:
 466              	.LFB353:
 467              		.loc 1 201 34 is_stmt 1 view -0
 468              		.cfi_startproc
 469              		@ args = 0, pretend = 0, frame = 0
 470              		@ frame_needed = 0, uses_anonymous_args = 0
 471              		@ link register save eliminated.
 472              		.loc 1 202 3 view .LVU155
 473              		.loc 1 203 3 view .LVU156
 474              		.loc 1 205 3 view .LVU157
 475              	.LBB176:
 476              	.LBI176:
 477              		.loc 2 372 20 view .LVU158
 478              		.loc 2 374 3 view .LVU159
 479              	.LBB177:
 480              	.LBI177:
 481              		.loc 3 840 27 view .LVU160
 482              		.loc 3 848 3 view .LVU161
 483              	.LVL24:
 484              	.LBB178:
 485              	.LBI178:
 486              		.loc 4 491 27 view .LVU162
 487              	.LBB179:
 488              		.loc 4 493 3 view .LVU163
 489 0000 3023     		movs	r3, #48
 490              		.syntax unified
 491              	@ 493 "./docs/ChibiOS/os/common/ext/ARM/CMSIS/Core/Include/cmsis_gcc.h" 1
 492 0002 83F31188 		MSR basepri, r3
 493              	@ 0 "" 2
 494              	.LVL25:
 495              		.loc 4 493 3 is_stmt 0 view .LVU164
 496              		.thumb
 497              		.syntax unified
 498              	.LBE179:
 499              	.LBE178:
 500              	.LBE177:
 501              		.loc 2 375 35 is_stmt 1 view .LVU165
 502              		.loc 2 376 21 view .LVU166
 503              	.LBE176:
 504              		.loc 1 206 3 view .LVU167
 505              		.loc 1 206 5 is_stmt 0 view .LVU168
 506 0006 064B     		ldr	r3, .L13
 507              	.LBB180:
 508              	.LBB181:
 509              	.LBB182:
 510              	.LBB183:
 511              	.LBB184:
 512              		.loc 4 493 3 view .LVU169
 513 0008 0022     		movs	r2, #0
ARM GAS  C:\Users\DEVELO~1\AppData\Local\Temp\ccd9QVAr.s 			page 10


 514              	.LBE184:
 515              	.LBE183:
 516              	.LBE182:
 517              	.LBE181:
 518              	.LBE180:
 519              		.loc 1 206 5 view .LVU170
 520 000a 186B     		ldr	r0, [r3, #48]
 521              	.LVL26:
 522              		.loc 1 207 3 is_stmt 1 view .LVU171
 523              		.loc 1 209 3 view .LVU172
 524              		.loc 1 209 11 is_stmt 0 view .LVU173
 525 000c 10F8063C 		ldrb	r3, [r0, #-6]	@ zero_extendqisi2
 526 0010 0133     		adds	r3, r3, #1
 527 0012 00F8063C 		strb	r3, [r0, #-6]
 528              		.loc 1 211 3 is_stmt 1 view .LVU174
 529              	.LBB189:
 530              	.LBI180:
 531              		.loc 2 386 20 view .LVU175
 532              	.LBB188:
 533              		.loc 2 388 23 view .LVU176
 534              		.loc 2 389 34 view .LVU177
 535              		.loc 2 395 3 view .LVU178
 536              		.loc 2 395 3 view .LVU179
 537              		.loc 2 395 3 view .LVU180
 538              		.loc 2 399 3 view .LVU181
 539              	.LBB187:
 540              	.LBI182:
 541              		.loc 3 864 27 view .LVU182
 542              		.loc 3 867 3 view .LVU183
 543              	.LVL27:
 544              	.LBB186:
 545              	.LBI183:
 546              		.loc 4 491 27 view .LVU184
 547              	.LBB185:
 548              		.loc 4 493 3 view .LVU185
 549              		.syntax unified
 550              	@ 493 "./docs/ChibiOS/os/common/ext/ARM/CMSIS/Core/Include/cmsis_gcc.h" 1
 551 0016 82F31188 		MSR basepri, r2
 552              	@ 0 "" 2
 553              	.LVL28:
 554              		.loc 4 493 3 is_stmt 0 view .LVU186
 555              		.thumb
 556              		.syntax unified
 557              	.LBE185:
 558              	.LBE186:
 559              	.LBE187:
 560              	.LBE188:
 561              	.LBE189:
 562              		.loc 1 213 3 is_stmt 1 view .LVU187
 563              		.loc 1 214 1 is_stmt 0 view .LVU188
 564 001a 2438     		subs	r0, r0, #36
 565              	.LVL29:
 566              		.loc 1 214 1 view .LVU189
 567 001c 7047     		bx	lr
 568              	.L14:
 569 001e 00BF     		.align	2
 570              	.L13:
ARM GAS  C:\Users\DEVELO~1\AppData\Local\Temp\ccd9QVAr.s 			page 11


 571 0020 00000000 		.word	ch0
 572              		.cfi_endproc
 573              	.LFE353:
 574              		.size	chRegFirstThread, .-chRegFirstThread
 575              		.section	.text.chRegNextThread,"ax",%progbits
 576              		.align	1
 577              		.p2align 2,,3
 578              		.global	chRegNextThread
 579              		.syntax unified
 580              		.thumb
 581              		.thumb_func
 582              		.type	chRegNextThread, %function
 583              	chRegNextThread:
 584              	.LVL30:
 585              	.LFB354:
 586              		.loc 1 227 41 is_stmt 1 view -0
 587              		.cfi_startproc
 588              		@ args = 0, pretend = 0, frame = 0
 589              		@ frame_needed = 0, uses_anonymous_args = 0
 590              		.loc 1 228 3 view .LVU191
 591              		.loc 1 229 3 view .LVU192
 592              		.loc 1 231 3 view .LVU193
 593              	.LBB200:
 594              	.LBI200:
 595              		.loc 2 372 20 view .LVU194
 596              		.loc 2 374 3 view .LVU195
 597              	.LBB201:
 598              	.LBI201:
 599              		.loc 3 840 27 view .LVU196
 600              		.loc 3 848 3 view .LVU197
 601              	.LBB202:
 602              	.LBI202:
 603              		.loc 4 491 27 view .LVU198
 604              	.LBB203:
 605              		.loc 4 493 3 view .LVU199
 606 0000 3023     		movs	r3, #48
 607              	.LBE203:
 608              	.LBE202:
 609              	.LBE201:
 610              	.LBE200:
 611              		.loc 1 227 41 is_stmt 0 view .LVU200
 612 0002 10B5     		push	{r4, lr}
 613              		.cfi_def_cfa_offset 8
 614              		.cfi_offset 4, -8
 615              		.cfi_offset 14, -4
 616              	.LBB207:
 617              	.LBB206:
 618              	.LBB205:
 619              	.LBB204:
 620              		.loc 4 493 3 view .LVU201
 621              		.syntax unified
 622              	@ 493 "./docs/ChibiOS/os/common/ext/ARM/CMSIS/Core/Include/cmsis_gcc.h" 1
 623 0004 83F31188 		MSR basepri, r3
 624              	@ 0 "" 2
 625              	.LVL31:
 626              		.loc 4 493 3 view .LVU202
 627              		.thumb
ARM GAS  C:\Users\DEVELO~1\AppData\Local\Temp\ccd9QVAr.s 			page 12


 628              		.syntax unified
 629              	.LBE204:
 630              	.LBE205:
 631              	.LBE206:
 632              		.loc 2 375 35 is_stmt 1 view .LVU203
 633              		.loc 2 376 21 view .LVU204
 634              	.LBE207:
 635              		.loc 1 234 3 view .LVU205
 636              		.loc 1 235 6 is_stmt 0 view .LVU206
 637 0008 0C4A     		ldr	r2, .L19
 638              		.loc 1 234 7 view .LVU207
 639 000a 436A     		ldr	r3, [r0, #36]
 640              	.LVL32:
 641              		.loc 1 235 3 is_stmt 1 view .LVU208
 642              		.loc 1 235 6 is_stmt 0 view .LVU209
 643 000c 9342     		cmp	r3, r2
 644 000e 0DD0     		beq	.L17
 645              	.LBB208:
 646              		.loc 1 239 5 is_stmt 1 view .LVU210
 647              	.LVL33:
 648              		.loc 1 240 5 view .LVU211
 649              		.loc 1 245 14 is_stmt 0 view .LVU212
 650 0010 13F8062C 		ldrb	r2, [r3, #-6]	@ zero_extendqisi2
 651              		.loc 1 240 9 view .LVU213
 652 0014 A3F12404 		sub	r4, r3, #36
 653              	.LVL34:
 654              		.loc 1 243 5 is_stmt 1 view .LVU214
 655              		.loc 1 243 5 view .LVU215
 656              		.loc 1 243 5 view .LVU216
 657              		.loc 1 245 5 view .LVU217
 658              		.loc 1 245 14 is_stmt 0 view .LVU218
 659 0018 0132     		adds	r2, r2, #1
 660 001a 03F8062C 		strb	r2, [r3, #-6]
 661              		.loc 1 245 14 view .LVU219
 662              	.LBE208:
 663              		.loc 1 248 3 is_stmt 1 view .LVU220
 664              	.LBB209:
 665              	.LBI209:
 666              		.loc 2 386 20 view .LVU221
 667              	.LBB210:
 668              		.loc 2 388 23 view .LVU222
 669              		.loc 2 389 34 view .LVU223
 670              		.loc 2 395 3 view .LVU224
 671              		.loc 2 395 3 view .LVU225
 672              		.loc 2 395 3 view .LVU226
 673              		.loc 2 399 3 view .LVU227
 674              	.LBB211:
 675              	.LBI211:
 676              		.loc 3 864 27 view .LVU228
 677              		.loc 3 867 3 view .LVU229
 678              	.LVL35:
 679              	.LBB212:
 680              	.LBI212:
 681              		.loc 4 491 27 view .LVU230
 682              	.LBB213:
 683              		.loc 4 493 3 view .LVU231
 684 001e 0023     		movs	r3, #0
ARM GAS  C:\Users\DEVELO~1\AppData\Local\Temp\ccd9QVAr.s 			page 13


 685              	.LVL36:
 686              		.loc 4 493 3 is_stmt 0 view .LVU232
 687              		.syntax unified
 688              	@ 493 "./docs/ChibiOS/os/common/ext/ARM/CMSIS/Core/Include/cmsis_gcc.h" 1
 689 0020 83F31188 		MSR basepri, r3
 690              	@ 0 "" 2
 691              	.LVL37:
 692              		.loc 4 493 3 view .LVU233
 693              		.thumb
 694              		.syntax unified
 695              	.LBE213:
 696              	.LBE212:
 697              	.LBE211:
 698              	.LBE210:
 699              	.LBE209:
 700              		.loc 1 250 3 is_stmt 1 view .LVU234
 701 0024 FFF7FEFF 		bl	chThdRelease
 702              	.LVL38:
 703              		.loc 1 253 3 view .LVU235
 704              		.loc 1 254 1 is_stmt 0 view .LVU236
 705 0028 2046     		mov	r0, r4
 706 002a 10BD     		pop	{r4, pc}
 707              	.LVL39:
 708              	.L17:
 709              		.loc 1 236 9 view .LVU237
 710 002c 0024     		movs	r4, #0
 711              	.LVL40:
 712              		.loc 1 248 3 is_stmt 1 view .LVU238
 713              	.LBB218:
 714              		.loc 2 386 20 view .LVU239
 715              	.LBB217:
 716              		.loc 2 388 23 view .LVU240
 717              		.loc 2 389 34 view .LVU241
 718              		.loc 2 395 3 view .LVU242
 719              		.loc 2 395 3 view .LVU243
 720              		.loc 2 395 3 view .LVU244
 721              		.loc 2 399 3 view .LVU245
 722              	.LBB216:
 723              		.loc 3 864 27 view .LVU246
 724              		.loc 3 867 3 view .LVU247
 725              	.LBB215:
 726              		.loc 4 491 27 view .LVU248
 727              	.LBB214:
 728              		.loc 4 493 3 view .LVU249
 729 002e 0023     		movs	r3, #0
 730              	.LVL41:
 731              		.loc 4 493 3 is_stmt 0 view .LVU250
 732              		.syntax unified
 733              	@ 493 "./docs/ChibiOS/os/common/ext/ARM/CMSIS/Core/Include/cmsis_gcc.h" 1
 734 0030 83F31188 		MSR basepri, r3
 735              	@ 0 "" 2
 736              	.LVL42:
 737              		.loc 4 493 3 view .LVU251
 738              		.thumb
 739              		.syntax unified
 740              	.LBE214:
 741              	.LBE215:
ARM GAS  C:\Users\DEVELO~1\AppData\Local\Temp\ccd9QVAr.s 			page 14


 742              	.LBE216:
 743              	.LBE217:
 744              	.LBE218:
 745              		.loc 1 250 3 is_stmt 1 view .LVU252
 746 0034 FFF7FEFF 		bl	chThdRelease
 747              	.LVL43:
 748              		.loc 1 253 3 view .LVU253
 749              		.loc 1 254 1 is_stmt 0 view .LVU254
 750 0038 2046     		mov	r0, r4
 751 003a 10BD     		pop	{r4, pc}
 752              	.LVL44:
 753              	.L20:
 754              		.loc 1 254 1 view .LVU255
 755              		.align	2
 756              	.L19:
 757 003c 30000000 		.word	ch0+48
 758              		.cfi_endproc
 759              	.LFE354:
 760              		.size	chRegNextThread, .-chRegNextThread
 761              		.section	.text.chRegFindThreadByName,"ax",%progbits
 762              		.align	1
 763              		.p2align 2,,3
 764              		.global	chRegFindThreadByName
 765              		.syntax unified
 766              		.thumb
 767              		.thumb_func
 768              		.type	chRegFindThreadByName, %function
 769              	chRegFindThreadByName:
 770              	.LVL45:
 771              	.LFB355:
 772              		.loc 1 268 51 is_stmt 1 view -0
 773              		.cfi_startproc
 774              		@ args = 0, pretend = 0, frame = 0
 775              		@ frame_needed = 0, uses_anonymous_args = 0
 776              		.loc 1 269 3 view .LVU257
 777              		.loc 1 272 3 view .LVU258
 778              	.LBB244:
 779              	.LBI244:
 780              		.loc 1 201 11 view .LVU259
 781              	.LBB245:
 782              		.loc 1 202 3 view .LVU260
 783              		.loc 1 203 3 view .LVU261
 784              		.loc 1 205 3 view .LVU262
 785              	.LBB246:
 786              	.LBI246:
 787              		.loc 2 372 20 view .LVU263
 788              		.loc 2 374 3 view .LVU264
 789              	.LBB247:
 790              	.LBI247:
 791              		.loc 3 840 27 view .LVU265
 792              		.loc 3 848 3 view .LVU266
 793              	.LBB248:
 794              	.LBI248:
 795              		.loc 4 491 27 view .LVU267
 796              	.LBB249:
 797              		.loc 4 493 3 view .LVU268
 798              	.LBE249:
ARM GAS  C:\Users\DEVELO~1\AppData\Local\Temp\ccd9QVAr.s 			page 15


 799              	.LBE248:
 800              	.LBE247:
 801              	.LBE246:
 802              	.LBE245:
 803              	.LBE244:
 804              		.loc 1 268 51 is_stmt 0 view .LVU269
 805 0000 2DE9F041 		push	{r4, r5, r6, r7, r8, lr}
 806              		.cfi_def_cfa_offset 24
 807              		.cfi_offset 4, -24
 808              		.cfi_offset 5, -20
 809              		.cfi_offset 6, -16
 810              		.cfi_offset 7, -12
 811              		.cfi_offset 8, -8
 812              		.cfi_offset 14, -4
 813              	.LBB270:
 814              	.LBB268:
 815              	.LBB256:
 816              	.LBB254:
 817              	.LBB252:
 818              	.LBB250:
 819              		.loc 4 493 3 view .LVU270
 820 0004 3025     		movs	r5, #48
 821              	.LBE250:
 822              	.LBE252:
 823              	.LBE254:
 824              	.LBE256:
 825              	.LBE268:
 826              	.LBE270:
 827              		.loc 1 268 51 view .LVU271
 828 0006 0646     		mov	r6, r0
 829              	.LBB271:
 830              	.LBB269:
 831              	.LBB257:
 832              	.LBB255:
 833              	.LBB253:
 834              	.LBB251:
 835              		.loc 4 493 3 view .LVU272
 836              		.syntax unified
 837              	@ 493 "./docs/ChibiOS/os/common/ext/ARM/CMSIS/Core/Include/cmsis_gcc.h" 1
 838 0008 85F31188 		MSR basepri, r5
 839              	@ 0 "" 2
 840              	.LVL46:
 841              		.loc 4 493 3 view .LVU273
 842              		.thumb
 843              		.syntax unified
 844              	.LBE251:
 845              	.LBE253:
 846              	.LBE255:
 847              		.loc 2 375 35 is_stmt 1 view .LVU274
 848              		.loc 2 376 21 view .LVU275
 849              	.LBE257:
 850              		.loc 1 206 3 view .LVU276
 851              		.loc 1 206 5 is_stmt 0 view .LVU277
 852 000c 174F     		ldr	r7, .L29
 853              	.LBB258:
 854              	.LBB259:
 855              	.LBB260:
ARM GAS  C:\Users\DEVELO~1\AppData\Local\Temp\ccd9QVAr.s 			page 16


 856              	.LBB261:
 857              	.LBB262:
 858              		.loc 4 493 3 view .LVU278
 859 000e 4FF00008 		mov	r8, #0
 860              	.LBE262:
 861              	.LBE261:
 862              	.LBE260:
 863              	.LBE259:
 864              	.LBE258:
 865              		.loc 1 206 5 view .LVU279
 866 0012 57F8303F 		ldr	r3, [r7, #48]!
 867              	.LVL47:
 868              		.loc 1 207 3 is_stmt 1 view .LVU280
 869              		.loc 1 209 11 is_stmt 0 view .LVU281
 870 0016 13F8062C 		ldrb	r2, [r3, #-6]	@ zero_extendqisi2
 871              		.loc 1 207 6 view .LVU282
 872 001a A3F12404 		sub	r4, r3, #36
 873              	.LVL48:
 874              		.loc 1 209 3 is_stmt 1 view .LVU283
 875              		.loc 1 209 11 is_stmt 0 view .LVU284
 876 001e 0132     		adds	r2, r2, #1
 877 0020 03F8062C 		strb	r2, [r3, #-6]
 878              		.loc 1 211 3 is_stmt 1 view .LVU285
 879              	.LBB267:
 880              	.LBI258:
 881              		.loc 2 386 20 view .LVU286
 882              	.LBB266:
 883              		.loc 2 388 23 view .LVU287
 884              		.loc 2 389 34 view .LVU288
 885              		.loc 2 395 3 view .LVU289
 886              		.loc 2 395 3 view .LVU290
 887              		.loc 2 395 3 view .LVU291
 888              		.loc 2 399 3 view .LVU292
 889              	.LBB265:
 890              	.LBI260:
 891              		.loc 3 864 27 view .LVU293
 892              		.loc 3 867 3 view .LVU294
 893              	.LVL49:
 894              	.LBB264:
 895              	.LBI261:
 896              		.loc 4 491 27 view .LVU295
 897              	.LBB263:
 898              		.loc 4 493 3 view .LVU296
 899              		.syntax unified
 900              	@ 493 "./docs/ChibiOS/os/common/ext/ARM/CMSIS/Core/Include/cmsis_gcc.h" 1
 901 0024 88F31188 		MSR basepri, r8
 902              	@ 0 "" 2
 903              	.LVL50:
 904              		.loc 4 493 3 is_stmt 0 view .LVU297
 905              		.thumb
 906              		.syntax unified
 907              	.LBE263:
 908              	.LBE264:
 909              	.LBE265:
 910              	.LBE266:
 911              	.LBE267:
 912              		.loc 1 213 3 is_stmt 1 view .LVU298
ARM GAS  C:\Users\DEVELO~1\AppData\Local\Temp\ccd9QVAr.s 			page 17


 913              		.loc 1 213 3 is_stmt 0 view .LVU299
 914 0028 0AE0     		b	.L24
 915              	.LVL51:
 916              	.L23:
 917              		.loc 1 213 3 view .LVU300
 918              	.LBE269:
 919              	.LBE271:
 920              	.LBB272:
 921              	.LBB273:
 922              	.LBB274:
 923              		.loc 1 245 14 view .LVU301
 924 002a 13F8062C 		ldrb	r2, [r3, #-6]	@ zero_extendqisi2
 925 002e 0132     		adds	r2, r2, #1
 926 0030 03F8062C 		strb	r2, [r3, #-6]
 927              		.loc 1 245 14 view .LVU302
 928              	.LBE274:
 929              		.loc 1 248 3 is_stmt 1 view .LVU303
 930              	.LBB275:
 931              	.LBI275:
 932              		.loc 2 386 20 view .LVU304
 933              	.LBB276:
 934              		.loc 2 388 23 view .LVU305
 935              		.loc 2 389 34 view .LVU306
 936              		.loc 2 395 3 view .LVU307
 937              		.loc 2 395 3 view .LVU308
 938              		.loc 2 395 3 view .LVU309
 939              		.loc 2 399 3 view .LVU310
 940              	.LBB277:
 941              	.LBI277:
 942              		.loc 3 864 27 view .LVU311
 943              		.loc 3 867 3 view .LVU312
 944              	.LVL52:
 945              	.LBB278:
 946              	.LBI278:
 947              		.loc 4 491 27 view .LVU313
 948              	.LBB279:
 949              		.loc 4 493 3 view .LVU314
 950              		.syntax unified
 951              	@ 493 "./docs/ChibiOS/os/common/ext/ARM/CMSIS/Core/Include/cmsis_gcc.h" 1
 952 0034 88F31188 		MSR basepri, r8
 953              	@ 0 "" 2
 954              	.LVL53:
 955              		.loc 4 493 3 is_stmt 0 view .LVU315
 956              		.thumb
 957              		.syntax unified
 958              	.LBE279:
 959              	.LBE278:
 960              	.LBE277:
 961              	.LBE276:
 962              	.LBE275:
 963              		.loc 1 250 3 is_stmt 1 view .LVU316
 964 0038 2046     		mov	r0, r4
 965 003a 0C46     		mov	r4, r1
 966              	.LVL54:
 967              		.loc 1 250 3 is_stmt 0 view .LVU317
 968 003c FFF7FEFF 		bl	chThdRelease
 969              	.LVL55:
ARM GAS  C:\Users\DEVELO~1\AppData\Local\Temp\ccd9QVAr.s 			page 18


 970              		.loc 1 253 3 is_stmt 1 view .LVU318
 971              		.loc 1 253 3 is_stmt 0 view .LVU319
 972              	.LBE273:
 973              	.LBE272:
 974              		.loc 1 278 16 is_stmt 1 view .LVU320
 975              	.L24:
 976              		.loc 1 273 3 view .LVU321
 977              		.loc 1 274 5 view .LVU322
 978              	.LBB299:
 979              	.LBI299:
 980              		.file 6 "./docs/ChibiOS/os/rt/include/chregistry.h"
 981              		.loc 6 186 27 view .LVU323
 982              	.LBB300:
 983              		.loc 6 189 3 view .LVU324
 984              		.loc 6 189 3 is_stmt 0 view .LVU325
 985              	.LBE300:
 986              	.LBE299:
 987              		.loc 1 274 9 view .LVU326
 988 0040 3146     		mov	r1, r6
 989 0042 206A     		ldr	r0, [r4, #32]
 990 0044 FFF7FEFF 		bl	strcmp
 991              	.LVL56:
 992              		.loc 1 277 5 is_stmt 1 view .LVU327
 993              	.LBB301:
 994              	.LBI272:
 995              		.loc 1 227 11 view .LVU328
 996              	.LBB296:
 997              		.loc 1 228 3 view .LVU329
 998              		.loc 1 229 3 view .LVU330
 999              		.loc 1 231 3 view .LVU331
 1000              	.LBB284:
 1001              	.LBI284:
 1002              		.loc 2 372 20 view .LVU332
 1003              		.loc 2 374 3 view .LVU333
 1004              	.LBB285:
 1005              	.LBI285:
 1006              		.loc 3 840 27 view .LVU334
 1007              		.loc 3 848 3 view .LVU335
 1008              	.LBB286:
 1009              	.LBI286:
 1010              		.loc 4 491 27 view .LVU336
 1011              	.LBB287:
 1012              		.loc 4 493 3 view .LVU337
 1013              	.LBE287:
 1014              	.LBE286:
 1015              	.LBE285:
 1016              	.LBE284:
 1017              	.LBE296:
 1018              	.LBE301:
 1019              		.loc 1 274 8 is_stmt 0 view .LVU338
 1020 0048 68B1     		cbz	r0, .L21
 1021              	.LBB302:
 1022              	.LBB297:
 1023              	.LBB291:
 1024              	.LBB290:
 1025              	.LBB289:
 1026              	.LBB288:
ARM GAS  C:\Users\DEVELO~1\AppData\Local\Temp\ccd9QVAr.s 			page 19


 1027              		.loc 4 493 3 view .LVU339
 1028              		.syntax unified
 1029              	@ 493 "./docs/ChibiOS/os/common/ext/ARM/CMSIS/Core/Include/cmsis_gcc.h" 1
 1030 004a 85F31188 		MSR basepri, r5
 1031              	@ 0 "" 2
 1032              	.LVL57:
 1033              		.loc 4 493 3 view .LVU340
 1034              		.thumb
 1035              		.syntax unified
 1036              	.LBE288:
 1037              	.LBE289:
 1038              	.LBE290:
 1039              		.loc 2 375 35 is_stmt 1 view .LVU341
 1040              		.loc 2 376 21 view .LVU342
 1041              	.LBE291:
 1042              		.loc 1 234 3 view .LVU343
 1043              	.LBB292:
 1044              		.loc 1 239 5 view .LVU344
 1045              	.LBE292:
 1046              		.loc 1 234 7 is_stmt 0 view .LVU345
 1047 004e 636A     		ldr	r3, [r4, #36]
 1048              	.LVL58:
 1049              		.loc 1 235 3 is_stmt 1 view .LVU346
 1050              	.LBB293:
 1051              		.loc 1 240 5 view .LVU347
 1052              	.LBE293:
 1053              		.loc 1 235 6 is_stmt 0 view .LVU348
 1054 0050 BB42     		cmp	r3, r7
 1055              	.LBB294:
 1056              		.loc 1 240 9 view .LVU349
 1057 0052 A3F12401 		sub	r1, r3, #36
 1058              	.LVL59:
 1059              		.loc 1 243 5 is_stmt 1 view .LVU350
 1060              		.loc 1 243 5 view .LVU351
 1061              		.loc 1 243 5 view .LVU352
 1062              		.loc 1 245 5 view .LVU353
 1063              	.LBE294:
 1064              		.loc 1 235 6 is_stmt 0 view .LVU354
 1065 0056 E8D1     		bne	.L23
 1066              	.LVL60:
 1067              		.loc 1 248 3 is_stmt 1 view .LVU355
 1068              	.LBB295:
 1069              		.loc 2 386 20 view .LVU356
 1070              	.LBB283:
 1071              		.loc 2 388 23 view .LVU357
 1072              		.loc 2 389 34 view .LVU358
 1073              		.loc 2 395 3 view .LVU359
 1074              		.loc 2 395 3 view .LVU360
 1075              		.loc 2 395 3 view .LVU361
 1076              		.loc 2 399 3 view .LVU362
 1077              	.LBB282:
 1078              		.loc 3 864 27 view .LVU363
 1079              		.loc 3 867 3 view .LVU364
 1080              	.LBB281:
 1081              		.loc 4 491 27 view .LVU365
 1082              	.LBB280:
 1083              		.loc 4 493 3 view .LVU366
ARM GAS  C:\Users\DEVELO~1\AppData\Local\Temp\ccd9QVAr.s 			page 20


 1084 0058 0023     		movs	r3, #0
 1085              	.LVL61:
 1086              		.loc 4 493 3 is_stmt 0 view .LVU367
 1087              		.syntax unified
 1088              	@ 493 "./docs/ChibiOS/os/common/ext/ARM/CMSIS/Core/Include/cmsis_gcc.h" 1
 1089 005a 83F31188 		MSR basepri, r3
 1090              	@ 0 "" 2
 1091              	.LVL62:
 1092              		.loc 4 493 3 view .LVU368
 1093              		.thumb
 1094              		.syntax unified
 1095              	.LBE280:
 1096              	.LBE281:
 1097              	.LBE282:
 1098              	.LBE283:
 1099              	.LBE295:
 1100              		.loc 1 250 3 is_stmt 1 view .LVU369
 1101 005e 2046     		mov	r0, r4
 1102              	.LBE297:
 1103              	.LBE302:
 1104              		.loc 1 280 10 is_stmt 0 view .LVU370
 1105 0060 1C46     		mov	r4, r3
 1106              	.LVL63:
 1107              	.LBB303:
 1108              	.LBB298:
 1109              		.loc 1 250 3 view .LVU371
 1110 0062 FFF7FEFF 		bl	chThdRelease
 1111              	.LVL64:
 1112              		.loc 1 253 3 is_stmt 1 view .LVU372
 1113              		.loc 1 253 3 is_stmt 0 view .LVU373
 1114              	.LBE298:
 1115              	.LBE303:
 1116              		.loc 1 278 16 is_stmt 1 view .LVU374
 1117              	.L21:
 1118              		.loc 1 281 1 is_stmt 0 view .LVU375
 1119 0066 2046     		mov	r0, r4
 1120 0068 BDE8F081 		pop	{r4, r5, r6, r7, r8, pc}
 1121              	.LVL65:
 1122              	.L30:
 1123              		.loc 1 281 1 view .LVU376
 1124              		.align	2
 1125              	.L29:
 1126 006c 00000000 		.word	ch0
 1127              		.cfi_endproc
 1128              	.LFE355:
 1129              		.size	chRegFindThreadByName, .-chRegFindThreadByName
 1130              		.section	.text.chRegFindThreadByPointer,"ax",%progbits
 1131              		.align	1
 1132              		.p2align 2,,3
 1133              		.global	chRegFindThreadByPointer
 1134              		.syntax unified
 1135              		.thumb
 1136              		.thumb_func
 1137              		.type	chRegFindThreadByPointer, %function
 1138              	chRegFindThreadByPointer:
 1139              	.LVL66:
 1140              	.LFB356:
ARM GAS  C:\Users\DEVELO~1\AppData\Local\Temp\ccd9QVAr.s 			page 21


 1141              		.loc 1 295 50 is_stmt 1 view -0
 1142              		.cfi_startproc
 1143              		@ args = 0, pretend = 0, frame = 0
 1144              		@ frame_needed = 0, uses_anonymous_args = 0
 1145              		.loc 1 296 3 view .LVU378
 1146              		.loc 1 299 3 view .LVU379
 1147              	.LBB327:
 1148              	.LBI327:
 1149              		.loc 1 201 11 view .LVU380
 1150              	.LBB328:
 1151              		.loc 1 202 3 view .LVU381
 1152              		.loc 1 203 3 view .LVU382
 1153              		.loc 1 205 3 view .LVU383
 1154              	.LBB329:
 1155              	.LBI329:
 1156              		.loc 2 372 20 view .LVU384
 1157              		.loc 2 374 3 view .LVU385
 1158              	.LBB330:
 1159              	.LBI330:
 1160              		.loc 3 840 27 view .LVU386
 1161              		.loc 3 848 3 view .LVU387
 1162              	.LBB331:
 1163              	.LBI331:
 1164              		.loc 4 491 27 view .LVU388
 1165              	.LBB332:
 1166              		.loc 4 493 3 view .LVU389
 1167              	.LBE332:
 1168              	.LBE331:
 1169              	.LBE330:
 1170              	.LBE329:
 1171              	.LBE328:
 1172              	.LBE327:
 1173              		.loc 1 295 50 is_stmt 0 view .LVU390
 1174 0000 2DE9F041 		push	{r4, r5, r6, r7, r8, lr}
 1175              		.cfi_def_cfa_offset 24
 1176              		.cfi_offset 4, -24
 1177              		.cfi_offset 5, -20
 1178              		.cfi_offset 6, -16
 1179              		.cfi_offset 7, -12
 1180              		.cfi_offset 8, -8
 1181              		.cfi_offset 14, -4
 1182              	.LBB353:
 1183              	.LBB351:
 1184              	.LBB339:
 1185              	.LBB337:
 1186              	.LBB335:
 1187              	.LBB333:
 1188              		.loc 4 493 3 view .LVU391
 1189 0004 3025     		movs	r5, #48
 1190              	.LBE333:
 1191              	.LBE335:
 1192              	.LBE337:
 1193              	.LBE339:
 1194              	.LBE351:
 1195              	.LBE353:
 1196              		.loc 1 295 50 view .LVU392
 1197 0006 0746     		mov	r7, r0
ARM GAS  C:\Users\DEVELO~1\AppData\Local\Temp\ccd9QVAr.s 			page 22


 1198              	.LBB354:
 1199              	.LBB352:
 1200              	.LBB340:
 1201              	.LBB338:
 1202              	.LBB336:
 1203              	.LBB334:
 1204              		.loc 4 493 3 view .LVU393
 1205              		.syntax unified
 1206              	@ 493 "./docs/ChibiOS/os/common/ext/ARM/CMSIS/Core/Include/cmsis_gcc.h" 1
 1207 0008 85F31188 		MSR basepri, r5
 1208              	@ 0 "" 2
 1209              	.LVL67:
 1210              		.loc 4 493 3 view .LVU394
 1211              		.thumb
 1212              		.syntax unified
 1213              	.LBE334:
 1214              	.LBE336:
 1215              	.LBE338:
 1216              		.loc 2 375 35 is_stmt 1 view .LVU395
 1217              		.loc 2 376 21 view .LVU396
 1218              	.LBE340:
 1219              		.loc 1 206 3 view .LVU397
 1220              		.loc 1 206 5 is_stmt 0 view .LVU398
 1221 000c 164E     		ldr	r6, .L38
 1222              	.LBB341:
 1223              	.LBB342:
 1224              	.LBB343:
 1225              	.LBB344:
 1226              	.LBB345:
 1227              		.loc 4 493 3 view .LVU399
 1228 000e 4FF00008 		mov	r8, #0
 1229              	.LBE345:
 1230              	.LBE344:
 1231              	.LBE343:
 1232              	.LBE342:
 1233              	.LBE341:
 1234              		.loc 1 206 5 view .LVU400
 1235 0012 336B     		ldr	r3, [r6, #48]
 1236              	.LVL68:
 1237              		.loc 1 207 3 is_stmt 1 view .LVU401
 1238              		.loc 1 209 11 is_stmt 0 view .LVU402
 1239 0014 13F8062C 		ldrb	r2, [r3, #-6]	@ zero_extendqisi2
 1240              		.loc 1 207 6 view .LVU403
 1241 0018 A3F12400 		sub	r0, r3, #36
 1242              	.LVL69:
 1243              		.loc 1 209 3 is_stmt 1 view .LVU404
 1244              		.loc 1 209 11 is_stmt 0 view .LVU405
 1245 001c 0132     		adds	r2, r2, #1
 1246 001e 03F8062C 		strb	r2, [r3, #-6]
 1247              		.loc 1 211 3 is_stmt 1 view .LVU406
 1248              	.LBB350:
 1249              	.LBI341:
 1250              		.loc 2 386 20 view .LVU407
 1251              	.LBB349:
 1252              		.loc 2 388 23 view .LVU408
 1253              		.loc 2 389 34 view .LVU409
 1254              		.loc 2 395 3 view .LVU410
ARM GAS  C:\Users\DEVELO~1\AppData\Local\Temp\ccd9QVAr.s 			page 23


 1255              		.loc 2 395 3 view .LVU411
 1256              		.loc 2 395 3 view .LVU412
 1257              		.loc 2 399 3 view .LVU413
 1258              	.LBB348:
 1259              	.LBI343:
 1260              		.loc 3 864 27 view .LVU414
 1261              		.loc 3 867 3 view .LVU415
 1262              	.LVL70:
 1263              	.LBB347:
 1264              	.LBI344:
 1265              		.loc 4 491 27 view .LVU416
 1266              	.LBB346:
 1267              		.loc 4 493 3 view .LVU417
 1268              		.syntax unified
 1269              	@ 493 "./docs/ChibiOS/os/common/ext/ARM/CMSIS/Core/Include/cmsis_gcc.h" 1
 1270 0022 88F31188 		MSR basepri, r8
 1271              	@ 0 "" 2
 1272              	.LVL71:
 1273              		.loc 4 493 3 is_stmt 0 view .LVU418
 1274              		.thumb
 1275              		.syntax unified
 1276              	.LBE346:
 1277              	.LBE347:
 1278              	.LBE348:
 1279              	.LBE349:
 1280              	.LBE350:
 1281              		.loc 1 213 3 is_stmt 1 view .LVU419
 1282              		.loc 1 213 3 is_stmt 0 view .LVU420
 1283              	.LBE352:
 1284              	.LBE354:
 1285              		.loc 1 300 3 is_stmt 1 view .LVU421
 1286              		.loc 1 301 5 view .LVU422
 1287              		.loc 1 301 8 is_stmt 0 view .LVU423
 1288 0026 8742     		cmp	r7, r0
 1289 0028 1CD0     		beq	.L35
 1290 002a 2E44     		add	r6, r6, r5
 1291 002c 0BE0     		b	.L34
 1292              	.LVL72:
 1293              	.L33:
 1294              	.LBB355:
 1295              	.LBB356:
 1296              	.LBB357:
 1297              		.loc 1 245 14 view .LVU424
 1298 002e 13F8062C 		ldrb	r2, [r3, #-6]	@ zero_extendqisi2
 1299 0032 0132     		adds	r2, r2, #1
 1300 0034 03F8062C 		strb	r2, [r3, #-6]
 1301              		.loc 1 245 14 view .LVU425
 1302              	.LBE357:
 1303              		.loc 1 248 3 is_stmt 1 view .LVU426
 1304              	.LBB358:
 1305              	.LBI358:
 1306              		.loc 2 386 20 view .LVU427
 1307              	.LBB359:
 1308              		.loc 2 388 23 view .LVU428
 1309              		.loc 2 389 34 view .LVU429
 1310              		.loc 2 395 3 view .LVU430
 1311              		.loc 2 395 3 view .LVU431
ARM GAS  C:\Users\DEVELO~1\AppData\Local\Temp\ccd9QVAr.s 			page 24


 1312              		.loc 2 395 3 view .LVU432
 1313              		.loc 2 399 3 view .LVU433
 1314              	.LBB360:
 1315              	.LBI360:
 1316              		.loc 3 864 27 view .LVU434
 1317              		.loc 3 867 3 view .LVU435
 1318              	.LVL73:
 1319              	.LBB361:
 1320              	.LBI361:
 1321              		.loc 4 491 27 view .LVU436
 1322              	.LBB362:
 1323              		.loc 4 493 3 view .LVU437
 1324              		.syntax unified
 1325              	@ 493 "./docs/ChibiOS/os/common/ext/ARM/CMSIS/Core/Include/cmsis_gcc.h" 1
 1326 0038 88F31188 		MSR basepri, r8
 1327              	@ 0 "" 2
 1328              	.LVL74:
 1329              		.loc 4 493 3 is_stmt 0 view .LVU438
 1330              		.thumb
 1331              		.syntax unified
 1332              	.LBE362:
 1333              	.LBE361:
 1334              	.LBE360:
 1335              	.LBE359:
 1336              	.LBE358:
 1337              		.loc 1 250 3 is_stmt 1 view .LVU439
 1338 003c FFF7FEFF 		bl	chThdRelease
 1339              	.LVL75:
 1340              		.loc 1 253 3 view .LVU440
 1341              		.loc 1 253 3 is_stmt 0 view .LVU441
 1342              	.LBE356:
 1343              	.LBE355:
 1344              		.loc 1 305 16 is_stmt 1 view .LVU442
 1345              		.loc 1 300 3 view .LVU443
 1346              		.loc 1 301 5 view .LVU444
 1347              		.loc 1 301 8 is_stmt 0 view .LVU445
 1348 0040 A742     		cmp	r7, r4
 1349 0042 2046     		mov	r0, r4
 1350 0044 0BD0     		beq	.L31
 1351              	.LVL76:
 1352              	.L34:
 1353              		.loc 1 304 5 is_stmt 1 view .LVU446
 1354              	.LBB376:
 1355              	.LBI355:
 1356              		.loc 1 227 11 view .LVU447
 1357              	.LBB375:
 1358              		.loc 1 228 3 view .LVU448
 1359              		.loc 1 229 3 view .LVU449
 1360              		.loc 1 231 3 view .LVU450
 1361              	.LBB367:
 1362              	.LBI367:
 1363              		.loc 2 372 20 view .LVU451
 1364              		.loc 2 374 3 view .LVU452
 1365              	.LBB368:
 1366              	.LBI368:
 1367              		.loc 3 840 27 view .LVU453
 1368              		.loc 3 848 3 view .LVU454
ARM GAS  C:\Users\DEVELO~1\AppData\Local\Temp\ccd9QVAr.s 			page 25


 1369              	.LBB369:
 1370              	.LBI369:
 1371              		.loc 4 491 27 view .LVU455
 1372              	.LBB370:
 1373              		.loc 4 493 3 view .LVU456
 1374              		.syntax unified
 1375              	@ 493 "./docs/ChibiOS/os/common/ext/ARM/CMSIS/Core/Include/cmsis_gcc.h" 1
 1376 0046 85F31188 		MSR basepri, r5
 1377              	@ 0 "" 2
 1378              	.LVL77:
 1379              		.loc 4 493 3 is_stmt 0 view .LVU457
 1380              		.thumb
 1381              		.syntax unified
 1382              	.LBE370:
 1383              	.LBE369:
 1384              	.LBE368:
 1385              		.loc 2 375 35 is_stmt 1 view .LVU458
 1386              		.loc 2 376 21 view .LVU459
 1387              	.LBE367:
 1388              		.loc 1 234 3 view .LVU460
 1389              	.LBB371:
 1390              		.loc 1 239 5 view .LVU461
 1391              	.LBE371:
 1392              		.loc 1 234 7 is_stmt 0 view .LVU462
 1393 004a 436A     		ldr	r3, [r0, #36]
 1394              	.LVL78:
 1395              		.loc 1 235 3 is_stmt 1 view .LVU463
 1396              	.LBB372:
 1397              		.loc 1 240 5 view .LVU464
 1398              	.LBE372:
 1399              		.loc 1 235 6 is_stmt 0 view .LVU465
 1400 004c B342     		cmp	r3, r6
 1401              	.LBB373:
 1402              		.loc 1 240 9 view .LVU466
 1403 004e A3F12404 		sub	r4, r3, #36
 1404              	.LVL79:
 1405              		.loc 1 243 5 is_stmt 1 view .LVU467
 1406              		.loc 1 243 5 view .LVU468
 1407              		.loc 1 243 5 view .LVU469
 1408              		.loc 1 245 5 view .LVU470
 1409              	.LBE373:
 1410              		.loc 1 235 6 is_stmt 0 view .LVU471
 1411 0052 ECD1     		bne	.L33
 1412              	.LVL80:
 1413              		.loc 1 248 3 is_stmt 1 view .LVU472
 1414              	.LBB374:
 1415              		.loc 2 386 20 view .LVU473
 1416              	.LBB366:
 1417              		.loc 2 388 23 view .LVU474
 1418              		.loc 2 389 34 view .LVU475
 1419              		.loc 2 395 3 view .LVU476
 1420              		.loc 2 395 3 view .LVU477
 1421              		.loc 2 395 3 view .LVU478
 1422              		.loc 2 399 3 view .LVU479
 1423              	.LBB365:
 1424              		.loc 3 864 27 view .LVU480
 1425              		.loc 3 867 3 view .LVU481
ARM GAS  C:\Users\DEVELO~1\AppData\Local\Temp\ccd9QVAr.s 			page 26


 1426              	.LBB364:
 1427              		.loc 4 491 27 view .LVU482
 1428              	.LBB363:
 1429              		.loc 4 493 3 view .LVU483
 1430 0054 0024     		movs	r4, #0
 1431              		.syntax unified
 1432              	@ 493 "./docs/ChibiOS/os/common/ext/ARM/CMSIS/Core/Include/cmsis_gcc.h" 1
 1433 0056 84F31188 		MSR basepri, r4
 1434              	@ 0 "" 2
 1435              	.LVL81:
 1436              		.loc 4 493 3 is_stmt 0 view .LVU484
 1437              		.thumb
 1438              		.syntax unified
 1439              	.LBE363:
 1440              	.LBE364:
 1441              	.LBE365:
 1442              	.LBE366:
 1443              	.LBE374:
 1444              		.loc 1 250 3 is_stmt 1 view .LVU485
 1445 005a FFF7FEFF 		bl	chThdRelease
 1446              	.LVL82:
 1447              		.loc 1 253 3 view .LVU486
 1448              		.loc 1 253 3 is_stmt 0 view .LVU487
 1449              	.LBE375:
 1450              	.LBE376:
 1451              		.loc 1 305 16 is_stmt 1 view .LVU488
 1452              	.L31:
 1453              		.loc 1 308 1 is_stmt 0 view .LVU489
 1454 005e 2046     		mov	r0, r4
 1455 0060 BDE8F081 		pop	{r4, r5, r6, r7, r8, pc}
 1456              	.LVL83:
 1457              	.L35:
 1458              		.loc 1 301 8 view .LVU490
 1459 0064 3C46     		mov	r4, r7
 1460 0066 FAE7     		b	.L31
 1461              	.L39:
 1462              		.align	2
 1463              	.L38:
 1464 0068 00000000 		.word	ch0
 1465              		.cfi_endproc
 1466              	.LFE356:
 1467              		.size	chRegFindThreadByPointer, .-chRegFindThreadByPointer
 1468              		.section	.text.chRegFindThreadByWorkingArea,"ax",%progbits
 1469              		.align	1
 1470              		.p2align 2,,3
 1471              		.global	chRegFindThreadByWorkingArea
 1472              		.syntax unified
 1473              		.thumb
 1474              		.thumb_func
 1475              		.type	chRegFindThreadByWorkingArea, %function
 1476              	chRegFindThreadByWorkingArea:
 1477              	.LVL84:
 1478              	.LFB357:
 1479              		.loc 1 322 55 is_stmt 1 view -0
 1480              		.cfi_startproc
 1481              		@ args = 0, pretend = 0, frame = 0
 1482              		@ frame_needed = 0, uses_anonymous_args = 0
ARM GAS  C:\Users\DEVELO~1\AppData\Local\Temp\ccd9QVAr.s 			page 27


 1483              		.loc 1 323 3 view .LVU492
 1484              		.loc 1 326 3 view .LVU493
 1485              	.LBB402:
 1486              	.LBI402:
 1487              		.loc 1 201 11 view .LVU494
 1488              	.LBB403:
 1489              		.loc 1 202 3 view .LVU495
 1490              		.loc 1 203 3 view .LVU496
 1491              		.loc 1 205 3 view .LVU497
 1492              	.LBB404:
 1493              	.LBI404:
 1494              		.loc 2 372 20 view .LVU498
 1495              		.loc 2 374 3 view .LVU499
 1496              	.LBB405:
 1497              	.LBI405:
 1498              		.loc 3 840 27 view .LVU500
 1499              		.loc 3 848 3 view .LVU501
 1500              	.LBB406:
 1501              	.LBI406:
 1502              		.loc 4 491 27 view .LVU502
 1503              	.LBB407:
 1504              		.loc 4 493 3 view .LVU503
 1505              	.LBE407:
 1506              	.LBE406:
 1507              	.LBE405:
 1508              	.LBE404:
 1509              	.LBE403:
 1510              	.LBE402:
 1511              		.loc 1 322 55 is_stmt 0 view .LVU504
 1512 0000 2DE9F843 		push	{r3, r4, r5, r6, r7, r8, r9, lr}
 1513              		.cfi_def_cfa_offset 32
 1514              		.cfi_offset 3, -32
 1515              		.cfi_offset 4, -28
 1516              		.cfi_offset 5, -24
 1517              		.cfi_offset 6, -20
 1518              		.cfi_offset 7, -16
 1519              		.cfi_offset 8, -12
 1520              		.cfi_offset 9, -8
 1521              		.cfi_offset 14, -4
 1522              	.LBB428:
 1523              	.LBB426:
 1524              	.LBB414:
 1525              	.LBB412:
 1526              	.LBB410:
 1527              	.LBB408:
 1528              		.loc 4 493 3 view .LVU505
 1529 0004 3025     		movs	r5, #48
 1530              	.LBE408:
 1531              	.LBE410:
 1532              	.LBE412:
 1533              	.LBE414:
 1534              	.LBE426:
 1535              	.LBE428:
 1536              		.loc 1 322 55 view .LVU506
 1537 0006 0746     		mov	r7, r0
 1538              	.LBB429:
 1539              	.LBB427:
ARM GAS  C:\Users\DEVELO~1\AppData\Local\Temp\ccd9QVAr.s 			page 28


 1540              	.LBB415:
 1541              	.LBB413:
 1542              	.LBB411:
 1543              	.LBB409:
 1544              		.loc 4 493 3 view .LVU507
 1545              		.syntax unified
 1546              	@ 493 "./docs/ChibiOS/os/common/ext/ARM/CMSIS/Core/Include/cmsis_gcc.h" 1
 1547 0008 85F31188 		MSR basepri, r5
 1548              	@ 0 "" 2
 1549              	.LVL85:
 1550              		.loc 4 493 3 view .LVU508
 1551              		.thumb
 1552              		.syntax unified
 1553              	.LBE409:
 1554              	.LBE411:
 1555              	.LBE413:
 1556              		.loc 2 375 35 is_stmt 1 view .LVU509
 1557              		.loc 2 376 21 view .LVU510
 1558              	.LBE415:
 1559              		.loc 1 206 3 view .LVU511
 1560              		.loc 1 206 5 is_stmt 0 view .LVU512
 1561 000c 194E     		ldr	r6, .L47
 1562              	.LBB416:
 1563              	.LBB417:
 1564              	.LBB418:
 1565              	.LBB419:
 1566              	.LBB420:
 1567              		.loc 4 493 3 view .LVU513
 1568 000e 4FF00008 		mov	r8, #0
 1569              	.LBE420:
 1570              	.LBE419:
 1571              	.LBE418:
 1572              	.LBE417:
 1573              	.LBE416:
 1574              		.loc 1 206 5 view .LVU514
 1575 0012 336B     		ldr	r3, [r6, #48]
 1576              	.LVL86:
 1577              		.loc 1 207 3 is_stmt 1 view .LVU515
 1578              		.loc 1 209 11 is_stmt 0 view .LVU516
 1579 0014 13F8062C 		ldrb	r2, [r3, #-6]	@ zero_extendqisi2
 1580              		.loc 1 207 6 view .LVU517
 1581 0018 A3F12400 		sub	r0, r3, #36
 1582              	.LVL87:
 1583              		.loc 1 209 3 is_stmt 1 view .LVU518
 1584              		.loc 1 209 11 is_stmt 0 view .LVU519
 1585 001c 0132     		adds	r2, r2, #1
 1586 001e 03F8062C 		strb	r2, [r3, #-6]
 1587              		.loc 1 211 3 is_stmt 1 view .LVU520
 1588              	.LBB425:
 1589              	.LBI416:
 1590              		.loc 2 386 20 view .LVU521
 1591              	.LBB424:
 1592              		.loc 2 388 23 view .LVU522
 1593              		.loc 2 389 34 view .LVU523
 1594              		.loc 2 395 3 view .LVU524
 1595              		.loc 2 395 3 view .LVU525
 1596              		.loc 2 395 3 view .LVU526
ARM GAS  C:\Users\DEVELO~1\AppData\Local\Temp\ccd9QVAr.s 			page 29


 1597              		.loc 2 399 3 view .LVU527
 1598              	.LBB423:
 1599              	.LBI418:
 1600              		.loc 3 864 27 view .LVU528
 1601              		.loc 3 867 3 view .LVU529
 1602              	.LVL88:
 1603              	.LBB422:
 1604              	.LBI419:
 1605              		.loc 4 491 27 view .LVU530
 1606              	.LBB421:
 1607              		.loc 4 493 3 view .LVU531
 1608              		.syntax unified
 1609              	@ 493 "./docs/ChibiOS/os/common/ext/ARM/CMSIS/Core/Include/cmsis_gcc.h" 1
 1610 0022 88F31188 		MSR basepri, r8
 1611              	@ 0 "" 2
 1612              	.LVL89:
 1613              		.loc 4 493 3 is_stmt 0 view .LVU532
 1614              		.thumb
 1615              		.syntax unified
 1616              	.LBE421:
 1617              	.LBE422:
 1618              	.LBE423:
 1619              	.LBE424:
 1620              	.LBE425:
 1621              		.loc 1 213 3 is_stmt 1 view .LVU533
 1622              		.loc 1 213 3 is_stmt 0 view .LVU534
 1623              	.LBE427:
 1624              	.LBE429:
 1625              		.loc 1 327 3 is_stmt 1 view .LVU535
 1626              		.loc 1 328 5 view .LVU536
 1627              	.LBB430:
 1628              	.LBI430:
 1629              		.loc 5 570 26 view .LVU537
 1630              	.LBB431:
 1631              		.loc 5 572 3 view .LVU538
 1632              		.loc 5 572 3 is_stmt 0 view .LVU539
 1633              	.LBE431:
 1634              	.LBE430:
 1635              		.loc 1 328 8 view .LVU540
 1636 0026 53F8103C 		ldr	r3, [r3, #-16]
 1637 002a 9F42     		cmp	r7, r3
 1638 002c 1FD0     		beq	.L44
 1639 002e 2E44     		add	r6, r6, r5
 1640 0030 0DE0     		b	.L43
 1641              	.LVL90:
 1642              	.L42:
 1643              	.LBB433:
 1644              	.LBB434:
 1645              	.LBB435:
 1646              		.loc 1 245 14 view .LVU541
 1647 0032 14F8063C 		ldrb	r3, [r4, #-6]	@ zero_extendqisi2
 1648 0036 0133     		adds	r3, r3, #1
 1649 0038 04F8063C 		strb	r3, [r4, #-6]
 1650              		.loc 1 245 14 view .LVU542
 1651              	.LBE435:
 1652              		.loc 1 248 3 is_stmt 1 view .LVU543
 1653              	.LBB436:
ARM GAS  C:\Users\DEVELO~1\AppData\Local\Temp\ccd9QVAr.s 			page 30


 1654              	.LBI436:
 1655              		.loc 2 386 20 view .LVU544
 1656              	.LBB437:
 1657              		.loc 2 388 23 view .LVU545
 1658              		.loc 2 389 34 view .LVU546
 1659              		.loc 2 395 3 view .LVU547
 1660              		.loc 2 395 3 view .LVU548
 1661              		.loc 2 395 3 view .LVU549
 1662              		.loc 2 399 3 view .LVU550
 1663              	.LBB438:
 1664              	.LBI438:
 1665              		.loc 3 864 27 view .LVU551
 1666              		.loc 3 867 3 view .LVU552
 1667              	.LVL91:
 1668              	.LBB439:
 1669              	.LBI439:
 1670              		.loc 4 491 27 view .LVU553
 1671              	.LBB440:
 1672              		.loc 4 493 3 view .LVU554
 1673              		.syntax unified
 1674              	@ 493 "./docs/ChibiOS/os/common/ext/ARM/CMSIS/Core/Include/cmsis_gcc.h" 1
 1675 003c 88F31188 		MSR basepri, r8
 1676              	@ 0 "" 2
 1677              	.LVL92:
 1678              		.loc 4 493 3 is_stmt 0 view .LVU555
 1679              		.thumb
 1680              		.syntax unified
 1681              	.LBE440:
 1682              	.LBE439:
 1683              	.LBE438:
 1684              	.LBE437:
 1685              	.LBE436:
 1686              		.loc 1 250 3 is_stmt 1 view .LVU556
 1687 0040 FFF7FEFF 		bl	chThdRelease
 1688              	.LVL93:
 1689              		.loc 1 253 3 view .LVU557
 1690              		.loc 1 253 3 is_stmt 0 view .LVU558
 1691              	.LBE434:
 1692              	.LBE433:
 1693              		.loc 1 332 16 is_stmt 1 view .LVU559
 1694              		.loc 1 327 3 view .LVU560
 1695              		.loc 1 328 5 view .LVU561
 1696              	.LBB456:
 1697              		.loc 5 570 26 view .LVU562
 1698              	.LBB432:
 1699              		.loc 5 572 3 view .LVU563
 1700              		.loc 5 572 3 is_stmt 0 view .LVU564
 1701              	.LBE432:
 1702              	.LBE456:
 1703              		.loc 1 328 8 view .LVU565
 1704 0044 54F8103C 		ldr	r3, [r4, #-16]
 1705              	.LBB457:
 1706              	.LBB454:
 1707              	.LBB445:
 1708              		.loc 1 240 9 view .LVU566
 1709 0048 4846     		mov	r0, r9
 1710              	.LBE445:
ARM GAS  C:\Users\DEVELO~1\AppData\Local\Temp\ccd9QVAr.s 			page 31


 1711              	.LBE454:
 1712              	.LBE457:
 1713              		.loc 1 328 8 view .LVU567
 1714 004a 9F42     		cmp	r7, r3
 1715 004c 0CD0     		beq	.L40
 1716              	.LVL94:
 1717              	.L43:
 1718              		.loc 1 331 5 is_stmt 1 view .LVU568
 1719              	.LBB458:
 1720              	.LBI433:
 1721              		.loc 1 227 11 view .LVU569
 1722              	.LBB455:
 1723              		.loc 1 228 3 view .LVU570
 1724              		.loc 1 229 3 view .LVU571
 1725              		.loc 1 231 3 view .LVU572
 1726              	.LBB446:
 1727              	.LBI446:
 1728              		.loc 2 372 20 view .LVU573
 1729              		.loc 2 374 3 view .LVU574
 1730              	.LBB447:
 1731              	.LBI447:
 1732              		.loc 3 840 27 view .LVU575
 1733              		.loc 3 848 3 view .LVU576
 1734              	.LBB448:
 1735              	.LBI448:
 1736              		.loc 4 491 27 view .LVU577
 1737              	.LBB449:
 1738              		.loc 4 493 3 view .LVU578
 1739              		.syntax unified
 1740              	@ 493 "./docs/ChibiOS/os/common/ext/ARM/CMSIS/Core/Include/cmsis_gcc.h" 1
 1741 004e 85F31188 		MSR basepri, r5
 1742              	@ 0 "" 2
 1743              	.LVL95:
 1744              		.loc 4 493 3 is_stmt 0 view .LVU579
 1745              		.thumb
 1746              		.syntax unified
 1747              	.LBE449:
 1748              	.LBE448:
 1749              	.LBE447:
 1750              		.loc 2 375 35 is_stmt 1 view .LVU580
 1751              		.loc 2 376 21 view .LVU581
 1752              	.LBE446:
 1753              		.loc 1 234 3 view .LVU582
 1754              	.LBB450:
 1755              		.loc 1 239 5 view .LVU583
 1756              	.LBE450:
 1757              		.loc 1 234 7 is_stmt 0 view .LVU584
 1758 0052 446A     		ldr	r4, [r0, #36]
 1759              	.LVL96:
 1760              		.loc 1 235 3 is_stmt 1 view .LVU585
 1761              	.LBB451:
 1762              		.loc 1 240 5 view .LVU586
 1763              	.LBE451:
 1764              		.loc 1 235 6 is_stmt 0 view .LVU587
 1765 0054 B442     		cmp	r4, r6
 1766              	.LBB452:
 1767              		.loc 1 240 9 view .LVU588
ARM GAS  C:\Users\DEVELO~1\AppData\Local\Temp\ccd9QVAr.s 			page 32


 1768 0056 A4F12409 		sub	r9, r4, #36
 1769              	.LVL97:
 1770              		.loc 1 243 5 is_stmt 1 view .LVU589
 1771              		.loc 1 243 5 view .LVU590
 1772              		.loc 1 243 5 view .LVU591
 1773              		.loc 1 245 5 view .LVU592
 1774              	.LBE452:
 1775              		.loc 1 235 6 is_stmt 0 view .LVU593
 1776 005a EAD1     		bne	.L42
 1777              	.LVL98:
 1778              		.loc 1 248 3 is_stmt 1 view .LVU594
 1779              	.LBB453:
 1780              		.loc 2 386 20 view .LVU595
 1781              	.LBB444:
 1782              		.loc 2 388 23 view .LVU596
 1783              		.loc 2 389 34 view .LVU597
 1784              		.loc 2 395 3 view .LVU598
 1785              		.loc 2 395 3 view .LVU599
 1786              		.loc 2 395 3 view .LVU600
 1787              		.loc 2 399 3 view .LVU601
 1788              	.LBB443:
 1789              		.loc 3 864 27 view .LVU602
 1790              		.loc 3 867 3 view .LVU603
 1791              	.LBB442:
 1792              		.loc 4 491 27 view .LVU604
 1793              	.LBB441:
 1794              		.loc 4 493 3 view .LVU605
 1795 005c 4FF00009 		mov	r9, #0
 1796              		.syntax unified
 1797              	@ 493 "./docs/ChibiOS/os/common/ext/ARM/CMSIS/Core/Include/cmsis_gcc.h" 1
 1798 0060 89F31188 		MSR basepri, r9
 1799              	@ 0 "" 2
 1800              	.LVL99:
 1801              		.loc 4 493 3 is_stmt 0 view .LVU606
 1802              		.thumb
 1803              		.syntax unified
 1804              	.LBE441:
 1805              	.LBE442:
 1806              	.LBE443:
 1807              	.LBE444:
 1808              	.LBE453:
 1809              		.loc 1 250 3 is_stmt 1 view .LVU607
 1810 0064 FFF7FEFF 		bl	chThdRelease
 1811              	.LVL100:
 1812              		.loc 1 253 3 view .LVU608
 1813              		.loc 1 253 3 is_stmt 0 view .LVU609
 1814              	.LBE455:
 1815              	.LBE458:
 1816              		.loc 1 332 16 is_stmt 1 view .LVU610
 1817              	.L40:
 1818              		.loc 1 335 1 is_stmt 0 view .LVU611
 1819 0068 4846     		mov	r0, r9
 1820 006a BDE8F883 		pop	{r3, r4, r5, r6, r7, r8, r9, pc}
 1821              	.LVL101:
 1822              	.L44:
 1823              		.loc 1 326 9 view .LVU612
 1824 006e 8146     		mov	r9, r0
ARM GAS  C:\Users\DEVELO~1\AppData\Local\Temp\ccd9QVAr.s 			page 33


 1825 0070 FAE7     		b	.L40
 1826              	.L48:
 1827 0072 00BF     		.align	2
 1828              	.L47:
 1829 0074 00000000 		.word	ch0
 1830              		.cfi_endproc
 1831              	.LFE357:
 1832              		.size	chRegFindThreadByWorkingArea, .-chRegFindThreadByWorkingArea
 1833              		.global	ch_debug
 1834              		.section	.rodata.ch_debug,"a"
 1835              		.align	2
 1836              		.type	ch_debug, %object
 1837              		.size	ch_debug, 44
 1838              	ch_debug:
 1839 0000 6D61696E 		.ascii	"main"
 1840 0004 00       		.byte	0
 1841 0005 2C       		.byte	44
 1842 0006 0040     		.short	16384
 1843 0008 04       		.byte	4
 1844 0009 04       		.byte	4
 1845 000a 50       		.byte	80
 1846 000b 08       		.byte	8
 1847 000c 0C       		.byte	12
 1848 000d 24       		.byte	36
 1849 000e 28       		.byte	40
 1850 000f 20       		.byte	32
 1851 0010 14       		.byte	20
 1852 0011 1C       		.byte	28
 1853 0012 1D       		.byte	29
 1854 0013 1E       		.byte	30
 1855 0014 00       		.byte	0
 1856 0015 00       		.byte	0
 1857 0016 00000000 		.ascii	"\000\000\000\000"
 1858 001a 64       		.byte	100
 1859 001b 04       		.byte	4
 1860 001c 01       		.byte	1
 1861 001d 00       		.byte	0
 1862 001e 04       		.byte	4
 1863 001f 00       		.byte	0
 1864 0020 00       		.byte	0
 1865 0021 00000000 		.ascii	"\000\000\000\000"
 1866 0025 0C       		.byte	12
 1867 0026 00       		.byte	0
 1868 0027 10       		.byte	16
 1869 0028 30       		.byte	48
 1870 0029 38       		.byte	56
 1871 002a 3C       		.byte	60
 1872 002b 00       		.space	1
 1873              		.text
 1874              	.Letext0:
 1875              		.file 7 "c:\\chibistudio\\tools\\gnu tools arm embedded\\11.3 2022.08\\lib\\gcc\\arm-none-eabi\\11
 1876              		.file 8 "c:\\chibistudio\\tools\\gnu tools arm embedded\\11.3 2022.08\\arm-none-eabi\\include\\mac
 1877              		.file 9 "c:\\chibistudio\\tools\\gnu tools arm embedded\\11.3 2022.08\\arm-none-eabi\\include\\sys
 1878              		.file 10 "./docs/ChibiOS/os/common/ports/ARM-common/include/chtypes.h"
 1879              		.file 11 "./docs/ChibiOS/os/rt/include/chearly.h"
 1880              		.file 12 "./docs/ChibiOS/os/rt/include/chobjects.h"
 1881              		.file 13 "./docs/ChibiOS/os/rt/include/chrfcu.h"
ARM GAS  C:\Users\DEVELO~1\AppData\Local\Temp\ccd9QVAr.s 			page 34


 1882              		.file 14 "./docs/ChibiOS/os/rt/include/chdebug.h"
 1883              		.file 15 "./docs/ChibiOS/os/rt/include/chtime.h"
 1884              		.file 16 "./docs/ChibiOS/os/rt/include/chtrace.h"
 1885              		.file 17 "./docs/ChibiOS/os/rt/include/chlists.h"
 1886              		.file 18 "./docs/ChibiOS/os/rt/include/chtm.h"
 1887              		.file 19 "./docs/ChibiOS/os/rt/include/chsem.h"
 1888              		.file 20 "./docs/ChibiOS/os/rt/include/chmtx.h"
 1889              		.file 21 "c:\\chibistudio\\tools\\gnu tools arm embedded\\11.3 2022.08\\arm-none-eabi\\include\\st