ARM GAS  C:\Users\DEVELO~1\AppData\Local\Temp\ccAP8jcX.s 			page 1


   1              		.cpu cortex-m7
   2              		.arch armv7e-m
   3              		.fpu fpv5-d16
   4              		.eabi_attribute 28, 1
   5              		.eabi_attribute 20, 1
   6              		.eabi_attribute 21, 1
   7              		.eabi_attribute 23, 3
   8              		.eabi_attribute 24, 1
   9              		.eabi_attribute 25, 1
  10              		.eabi_attribute 26, 1
  11              		.eabi_attribute 30, 2
  12              		.eabi_attribute 34, 1
  13              		.eabi_attribute 18, 4
  14              		.file	"chrfcu.c"
  15              		.text
  16              	.Ltext0:
  17              		.cfi_sections	.debug_frame
  18              		.section	.text.chRFCUCollectFaultsI,"ax",%progbits
  19              		.align	1
  20              		.p2align 2,,3
  21              		.global	chRFCUCollectFaultsI
  22              		.syntax unified
  23              		.thumb
  24              		.thumb_func
  25              		.type	chRFCUCollectFaultsI, %function
  26              	chRFCUCollectFaultsI:
  27              	.LVL0:
  28              	.LFB352:
  29              		.file 1 "../../../os/rt/src/chrfcu.c"
  30              		.loc 1 60 45 view -0
  31              		.cfi_startproc
  32              		@ args = 0, pretend = 0, frame = 0
  33              		@ frame_needed = 0, uses_anonymous_args = 0
  34              		@ link register save eliminated.
  35              		.loc 1 63 3 view .LVU1
  36              		.loc 1 63 23 is_stmt 0 view .LVU2
  37 0000 024A     		ldr	r2, .L3
  38 0002 D36B     		ldr	r3, [r2, #60]
  39 0004 1843     		orrs	r0, r0, r3
  40              	.LVL1:
  41              		.loc 1 63 23 view .LVU3
  42 0006 D063     		str	r0, [r2, #60]
  43              		.loc 1 68 3 is_stmt 1 view .LVU4
  44              		.loc 1 68 35 view .LVU5
  45              		.loc 1 69 1 is_stmt 0 view .LVU6
  46 0008 7047     		bx	lr
  47              	.L4:
  48 000a 00BF     		.align	2
  49              	.L3:
  50 000c 00000000 		.word	ch0
  51              		.cfi_endproc
  52              	.LFE352:
  53              		.size	chRFCUCollectFaultsI, .-chRFCUCollectFaultsI
  54              		.section	.text.chRFCUGetAndClearFaultsI,"ax",%progbits
  55              		.align	1
  56              		.p2align 2,,3
  57              		.global	chRFCUGetAndClearFaultsI
ARM GAS  C:\Users\DEVELO~1\AppData\Local\Temp\ccAP8jcX.s 			page 2


  58              		.syntax unified
  59              		.thumb
  60              		.thumb_func
  61              		.type	chRFCUGetAndClearFaultsI, %function
  62              	chRFCUGetAndClearFaultsI:
  63              	.LVL2:
  64              	.LFB353:
  65              		.loc 1 79 56 is_stmt 1 view -0
  66              		.cfi_startproc
  67              		@ args = 0, pretend = 0, frame = 0
  68              		@ frame_needed = 0, uses_anonymous_args = 0
  69              		@ link register save eliminated.
  70              		.loc 1 80 3 view .LVU8
  71              		.loc 1 83 3 view .LVU9
  72              		.loc 1 85 3 view .LVU10
  73              		.loc 1 85 16 is_stmt 0 view .LVU11
  74 0000 034B     		ldr	r3, .L6
  75 0002 DA6B     		ldr	r2, [r3, #60]
  76              	.LVL3:
  77              		.loc 1 86 3 is_stmt 1 view .LVU12
  78              		.loc 1 86 18 is_stmt 0 view .LVU13
  79 0004 22EA0001 		bic	r1, r2, r0
  80              		.loc 1 94 1 view .LVU14
  81 0008 1040     		ands	r0, r0, r2
  82              	.LVL4:
  83              		.loc 1 86 18 view .LVU15
  84 000a D963     		str	r1, [r3, #60]
  85              		.loc 1 93 3 is_stmt 1 view .LVU16
  86              		.loc 1 94 1 is_stmt 0 view .LVU17
  87 000c 7047     		bx	lr
  88              	.L7:
  89 000e 00BF     		.align	2
  90              	.L6:
  91 0010 00000000 		.word	ch0
  92              		.cfi_endproc
  93              	.LFE353:
  94              		.size	chRFCUGetAndClearFaultsI, .-chRFCUGetAndClearFaultsI
  95              		.text
  96              	.Letext0:
  97              		.file 2 "c:\\chibistudio\\tools\\gnu tools arm embedded\\11.3 2022.08\\arm-none-eabi\\include\\mac
  98              		.file 3 "c:\\chibistudio\\tools\\gnu tools arm embedded\\11.3 2022.08\\arm-none-eabi\\include\\sys
  99              		.file 4 "../../../os/common/ports/ARM-common/include/chtypes.h"
 100              		.file 5 "../../../os/rt/include/chearly.h"
 101              		.file 6 "../../../os/rt/include/chobjects.h"
 102              		.file 7 "../../../os/rt/include/chrfcu.h"
 103              		.file 8 "../../../os/rt/include/chdebug.h"
 104              		.file 9 "../../../os/rt/include/chtime.h"
 105              		.file 10 "../../../os/rt/include/chtrace.h"
 106              		.file 11 "../../../os/common/ports/ARMv7-M/chcore.h"
 107              		.file 12 "../../../os/rt/include/chlists.h"
 108              		.file 13 "../../../os/rt/include/chsem.h"
 109              		.file 14 "../../../os/rt/include/chmtx.h"
 110              		.file 15 "../../../os/rt/include/chsys.h"
 111              		.section	.debug_info,"",%progbits
 112              	.Ldebug_info0:
 113 0000 6C0A0000 		.4byte	0xa6c
 114 0004 0500     		.2byte	0x5
ARM GAS  C:\Users\DEVELO~1\AppData\Local\Temp\ccAP8jcX.s 			page 3


 115 0006 01       		.byte	0x1
 116 0007 04       		.byte	0x4
 117 0008 00000000 		.4byte	.Ldebug_abbrev0
 118 000c 14       		.uleb128 0x14
 119 000d 65020000 		.4byte	.LASF127
 120 0011 1D       		.byte	0x1d
 121 0012 DC040000 		.4byte	.LASF128
 122 0016 C7010000 		.4byte	.LASF129
 123 001a 0C000000 		.4byte	.LLRL3
 124 001e 00000000 		.4byte	0
 125 0022 00000000 		.4byte	.Ldebug_line0
 126 0026 15       		.uleb128 0x15
 127 0027 04       		.byte	0x4
 128 0028 05       		.byte	0x5
 129 0029 696E7400 		.ascii	"int\000"
 130 002d 06       		.uleb128 0x6
 131 002e 04       		.byte	0x4
 132 002f 07       		.byte	0x7
 133 0030 A4010000 		.4byte	.LASF0
 134 0034 06       		.uleb128 0x6
 135 0035 08       		.byte	0x8
 136 0036 05       		.byte	0x5
 137 0037 A9000000 		.4byte	.LASF1
 138 003b 06       		.uleb128 0x6
 139 003c 08       		.byte	0x8
 140 003d 04       		.byte	0x4
 141 003e F8040000 		.4byte	.LASF2
 142 0042 06       		.uleb128 0x6
 143 0043 01       		.byte	0x1
 144 0044 06       		.byte	0x6
 145 0045 B7000000 		.4byte	.LASF3
 146 0049 01       		.uleb128 0x1
 147 004a 1F000000 		.4byte	.LASF6
 148 004e 02       		.byte	0x2
 149 004f 2B       		.byte	0x2b
 150 0050 18       		.byte	0x18
 151 0051 55000000 		.4byte	0x55
 152 0055 06       		.uleb128 0x6
 153 0056 01       		.byte	0x1
 154 0057 08       		.byte	0x8
 155 0058 71040000 		.4byte	.LASF4
 156 005c 06       		.uleb128 0x6
 157 005d 02       		.byte	0x2
 158 005e 05       		.byte	0x5
 159 005f 86040000 		.4byte	.LASF5
 160 0063 01       		.uleb128 0x1
 161 0064 17050000 		.4byte	.LASF7
 162 0068 02       		.byte	0x2
 163 0069 39       		.byte	0x39
 164 006a 19       		.byte	0x19
 165 006b 6F000000 		.4byte	0x6f
 166 006f 06       		.uleb128 0x6
 167 0070 02       		.byte	0x2
 168 0071 07       		.byte	0x7
 169 0072 39020000 		.4byte	.LASF8
 170 0076 01       		.uleb128 0x1
 171 0077 44030000 		.4byte	.LASF9
ARM GAS  C:\Users\DEVELO~1\AppData\Local\Temp\ccAP8jcX.s 			page 4


 172 007b 02       		.byte	0x2
 173 007c 4D       		.byte	0x4d
 174 007d 18       		.byte	0x18
 175 007e 82000000 		.4byte	0x82
 176 0082 06       		.uleb128 0x6
 177 0083 04       		.byte	0x4
 178 0084 05       		.byte	0x5
 179 0085 46000000 		.4byte	.LASF10
 180 0089 01       		.uleb128 0x1
 181 008a 48010000 		.4byte	.LASF11
 182 008e 02       		.byte	0x2
 183 008f 4F       		.byte	0x4f
 184 0090 19       		.byte	0x19
 185 0091 95000000 		.4byte	0x95
 186 0095 06       		.uleb128 0x6
 187 0096 04       		.byte	0x4
 188 0097 07       		.byte	0x7
 189 0098 C3000000 		.4byte	.LASF12
 190 009c 01       		.uleb128 0x1
 191 009d 21040000 		.4byte	.LASF13
 192 00a1 02       		.byte	0x2
 193 00a2 69       		.byte	0x69
 194 00a3 19       		.byte	0x19
 195 00a4 A8000000 		.4byte	0xa8
 196 00a8 06       		.uleb128 0x6
 197 00a9 08       		.byte	0x8
 198 00aa 07       		.byte	0x7
 199 00ab E3000000 		.4byte	.LASF14
 200 00af 01       		.uleb128 0x1
 201 00b0 CF050000 		.4byte	.LASF15
 202 00b4 03       		.byte	0x3
 203 00b5 18       		.byte	0x18
 204 00b6 13       		.byte	0x13
 205 00b7 49000000 		.4byte	0x49
 206 00bb 01       		.uleb128 0x1
 207 00bc 1B010000 		.4byte	.LASF16
 208 00c0 03       		.byte	0x3
 209 00c1 24       		.byte	0x24
 210 00c2 14       		.byte	0x14
 211 00c3 63000000 		.4byte	0x63
 212 00c7 01       		.uleb128 0x1
 213 00c8 69040000 		.4byte	.LASF17
 214 00cc 03       		.byte	0x3
 215 00cd 2C       		.byte	0x2c
 216 00ce 13       		.byte	0x13
 217 00cf 76000000 		.4byte	0x76
 218 00d3 01       		.uleb128 0x1
 219 00d4 C6040000 		.4byte	.LASF18
 220 00d8 03       		.byte	0x3
 221 00d9 30       		.byte	0x30
 222 00da 14       		.byte	0x14
 223 00db 89000000 		.4byte	0x89
 224 00df 01       		.uleb128 0x1
 225 00e0 D5030000 		.4byte	.LASF19
 226 00e4 03       		.byte	0x3
 227 00e5 3C       		.byte	0x3c
 228 00e6 14       		.byte	0x14
ARM GAS  C:\Users\DEVELO~1\AppData\Local\Temp\ccAP8jcX.s 			page 5


 229 00e7 9C000000 		.4byte	0x9c
 230 00eb 0F       		.uleb128 0xf
 231 00ec DF000000 		.4byte	0xdf
 232 00f0 01       		.uleb128 0x1
 233 00f1 6A000000 		.4byte	.LASF20
 234 00f5 04       		.byte	0x4
 235 00f6 48       		.byte	0x48
 236 00f7 1D       		.byte	0x1d
 237 00f8 DF000000 		.4byte	0xdf
 238 00fc 01       		.uleb128 0x1
 239 00fd 00010000 		.4byte	.LASF21
 240 0101 05       		.byte	0x5
 241 0102 50       		.byte	0x50
 242 0103 19       		.byte	0x19
 243 0104 F0000000 		.4byte	0xf0
 244 0108 01       		.uleb128 0x1
 245 0109 05030000 		.4byte	.LASF22
 246 010d 05       		.byte	0x5
 247 010e 53       		.byte	0x53
 248 010f 19       		.byte	0x19
 249 0110 AF000000 		.4byte	0xaf
 250 0114 01       		.uleb128 0x1
 251 0115 0A010000 		.4byte	.LASF23
 252 0119 05       		.byte	0x5
 253 011a 54       		.byte	0x54
 254 011b 19       		.byte	0x19
 255 011c AF000000 		.4byte	0xaf
 256 0120 01       		.uleb128 0x1
 257 0121 40040000 		.4byte	.LASF24
 258 0125 05       		.byte	0x5
 259 0126 55       		.byte	0x55
 260 0127 19       		.byte	0x19
 261 0128 AF000000 		.4byte	0xaf
 262 012c 01       		.uleb128 0x1
 263 012d 52040000 		.4byte	.LASF25
 264 0131 05       		.byte	0x5
 265 0132 57       		.byte	0x57
 266 0133 19       		.byte	0x19
 267 0134 D3000000 		.4byte	0xd3
 268 0138 01       		.uleb128 0x1
 269 0139 56020000 		.4byte	.LASF26
 270 013d 05       		.byte	0x5
 271 013e 58       		.byte	0x58
 272 013f 19       		.byte	0x19
 273 0140 C7000000 		.4byte	0xc7
 274 0144 01       		.uleb128 0x1
 275 0145 23030000 		.4byte	.LASF27
 276 0149 05       		.byte	0x5
 277 014a 5A       		.byte	0x5a
 278 014b 19       		.byte	0x19
 279 014c D3000000 		.4byte	0xd3
 280 0150 01       		.uleb128 0x1
 281 0151 95010000 		.4byte	.LASF28
 282 0155 05       		.byte	0x5
 283 0156 5C       		.byte	0x5c
 284 0157 19       		.byte	0x19
 285 0158 C7000000 		.4byte	0xc7
ARM GAS  C:\Users\DEVELO~1\AppData\Local\Temp\ccAP8jcX.s 			page 6


 286 015c 01       		.uleb128 0x1
 287 015d 36040000 		.4byte	.LASF29
 288 0161 05       		.byte	0x5
 289 0162 80       		.byte	0x80
 290 0163 12       		.byte	0x12
 291 0164 2D000000 		.4byte	0x2d
 292 0168 01       		.uleb128 0x1
 293 0169 22050000 		.4byte	.LASF30
 294 016d 05       		.byte	0x5
 295 016e 85       		.byte	0x85
 296 016f 1A       		.byte	0x1a
 297 0170 74010000 		.4byte	0x174
 298 0174 07       		.uleb128 0x7
 299 0175 4C020000 		.4byte	.LASF47
 300 0179 50       		.byte	0x50
 301 017a 06       		.byte	0x6
 302 017b A9       		.byte	0xa9
 303 017c 08       		.byte	0x8
 304 017d 6B020000 		.4byte	0x26b
 305 0181 08       		.uleb128 0x8
 306 0182 68647200 		.ascii	"hdr\000"
 307 0186 06       		.byte	0x6
 308 0187 BA       		.byte	0xba
 309 0188 05       		.byte	0x5
 310 0189 31080000 		.4byte	0x831
 311 018d 00       		.byte	0
 312 018e 08       		.uleb128 0x8
 313 018f 63747800 		.ascii	"ctx\000"
 314 0193 06       		.byte	0x6
 315 0194 BE       		.byte	0xbe
 316 0195 21       		.byte	0x21
 317 0196 82060000 		.4byte	0x682
 318 019a 0C       		.byte	0xc
 319 019b 02       		.uleb128 0x2
 320 019c D6040000 		.4byte	.LASF31
 321 01a0 06       		.byte	0x6
 322 01a1 C2       		.byte	0xc2
 323 01a2 22       		.byte	0x22
 324 01a3 35090000 		.4byte	0x935
 325 01a7 10       		.byte	0x10
 326 01a8 02       		.uleb128 0x2
 327 01a9 04050000 		.4byte	.LASF32
 328 01ad 06       		.byte	0x6
 329 01ae C8       		.byte	0xc8
 330 01af 22       		.byte	0x22
 331 01b0 3A090000 		.4byte	0x93a
 332 01b4 14       		.byte	0x14
 333 01b5 02       		.uleb128 0x2
 334 01b6 C3050000 		.4byte	.LASF33
 335 01ba 06       		.byte	0x6
 336 01bb CD       		.byte	0xcd
 337 01bc 21       		.byte	0x21
 338 01bd 3A090000 		.4byte	0x93a
 339 01c1 18       		.byte	0x18
 340 01c2 02       		.uleb128 0x2
 341 01c3 FA000000 		.4byte	.LASF34
 342 01c7 06       		.byte	0x6
ARM GAS  C:\Users\DEVELO~1\AppData\Local\Temp\ccAP8jcX.s 			page 7


 343 01c8 D1       		.byte	0xd1
 344 01c9 21       		.byte	0x21
 345 01ca 14010000 		.4byte	0x114
 346 01ce 1C       		.byte	0x1c
 347 01cf 02       		.uleb128 0x2
 348 01d0 D7050000 		.4byte	.LASF35
 349 01d4 06       		.byte	0x6
 350 01d5 D5       		.byte	0xd5
 351 01d6 21       		.byte	0x21
 352 01d7 08010000 		.4byte	0x108
 353 01db 1D       		.byte	0x1d
 354 01dc 02       		.uleb128 0x2
 355 01dd 48040000 		.4byte	.LASF36
 356 01e1 06       		.byte	0x6
 357 01e2 DA       		.byte	0xda
 358 01e3 21       		.byte	0x21
 359 01e4 20010000 		.4byte	0x120
 360 01e8 1E       		.byte	0x1e
 361 01e9 02       		.uleb128 0x2
 362 01ea 10020000 		.4byte	.LASF37
 363 01ee 06       		.byte	0x6
 364 01ef DE       		.byte	0xde
 365 01f0 22       		.byte	0x22
 366 01f1 58030000 		.4byte	0x358
 367 01f5 20       		.byte	0x20
 368 01f6 02       		.uleb128 0x2
 369 01f7 E6050000 		.4byte	.LASF38
 370 01fb 06       		.byte	0x6
 371 01fc E2       		.byte	0xe2
 372 01fd 21       		.byte	0x21
 373 01fe CF060000 		.4byte	0x6cf
 374 0202 24       		.byte	0x24
 375 0203 02       		.uleb128 0x2
 376 0204 62000000 		.4byte	.LASF39
 377 0208 06       		.byte	0x6
 378 0209 E8       		.byte	0xe8
 379 020a 21       		.byte	0x21
 380 020b 15080000 		.4byte	0x815
 381 020f 2C       		.byte	0x2c
 382 0210 02       		.uleb128 0x2
 383 0211 97000000 		.4byte	.LASF40
 384 0215 06       		.byte	0x6
 385 0216 EE       		.byte	0xee
 386 0217 22       		.byte	0x22
 387 0218 BA030000 		.4byte	0x3ba
 388 021c 30       		.byte	0x30
 389 021d 03       		.uleb128 0x3
 390 021e 7500     		.ascii	"u\000"
 391 0220 06       		.byte	0x6
 392 0221 3F01     		.2byte	0x13f
 393 0223 21       		.byte	0x21
 394 0224 5E080000 		.4byte	0x85e
 395 0228 34       		.byte	0x34
 396 0229 04       		.uleb128 0x4
 397 022a 68010000 		.4byte	.LASF41
 398 022e 4401     		.2byte	0x144
 399 0230 21       		.byte	0x21
ARM GAS  C:\Users\DEVELO~1\AppData\Local\Temp\ccAP8jcX.s 			page 8


 400 0231 A3060000 		.4byte	0x6a3
 401 0235 38       		.byte	0x38
 402 0236 04       		.uleb128 0x4
 403 0237 9B010000 		.4byte	.LASF42
 404 023b 4A01     		.2byte	0x14a
 405 023d 21       		.byte	0x21
 406 023e CF060000 		.4byte	0x6cf
 407 0242 3C       		.byte	0x3c
 408 0243 04       		.uleb128 0x4
 409 0244 5C020000 		.4byte	.LASF43
 410 0248 5001     		.2byte	0x150
 411 024a 21       		.byte	0x21
 412 024b 44010000 		.4byte	0x144
 413 024f 44       		.byte	0x44
 414 0250 04       		.uleb128 0x4
 415 0251 FF050000 		.4byte	.LASF44
 416 0255 5701     		.2byte	0x157
 417 0257 22       		.byte	0x22
 418 0258 30090000 		.4byte	0x930
 419 025c 48       		.byte	0x48
 420 025d 04       		.uleb128 0x4
 421 025e 76030000 		.4byte	.LASF45
 422 0262 5B01     		.2byte	0x15b
 423 0264 21       		.byte	0x21
 424 0265 2C010000 		.4byte	0x12c
 425 0269 4C       		.byte	0x4c
 426 026a 00       		.byte	0
 427 026b 01       		.uleb128 0x1
 428 026c 76050000 		.4byte	.LASF46
 429 0270 05       		.byte	0x5
 430 0271 8A       		.byte	0x8a
 431 0272 1F       		.byte	0x1f
 432 0273 77020000 		.4byte	0x277
 433 0277 16       		.uleb128 0x16
 434 0278 67050000 		.4byte	.LASF48
 435 027c F008     		.2byte	0x8f0
 436 027e 06       		.byte	0x6
 437 027f 9701     		.2byte	0x197
 438 0281 08       		.byte	0x8
 439 0282 0A030000 		.4byte	0x30a
 440 0286 04       		.uleb128 0x4
 441 0287 C9050000 		.4byte	.LASF49
 442 028b 9B01     		.2byte	0x19b
 443 028d 21       		.byte	0x21
 444 028e 68090000 		.4byte	0x968
 445 0292 00       		.byte	0
 446 0293 04       		.uleb128 0x4
 447 0294 3A000000 		.4byte	.LASF50
 448 0298 9F01     		.2byte	0x19f
 449 029a 21       		.byte	0x21
 450 029b D6070000 		.4byte	0x7d6
 451 029f 10       		.byte	0x10
 452 02a0 04       		.uleb128 0x4
 453 02a1 84050000 		.4byte	.LASF51
 454 02a5 A601     		.2byte	0x1a6
 455 02a7 21       		.byte	0x21
 456 02a8 FD070000 		.4byte	0x7fd
ARM GAS  C:\Users\DEVELO~1\AppData\Local\Temp\ccAP8jcX.s 			page 9


 457 02ac 30       		.byte	0x30
 458 02ad 04       		.uleb128 0x4
 459 02ae 2C020000 		.4byte	.LASF52
 460 02b2 AB01     		.2byte	0x1ab
 461 02b4 21       		.byte	0x21
 462 02b5 5C010000 		.4byte	0x15c
 463 02b9 38       		.byte	0x38
 464 02ba 04       		.uleb128 0x4
 465 02bb 1A000000 		.4byte	.LASF53
 466 02bf B101     		.2byte	0x1b1
 467 02c1 21       		.byte	0x21
 468 02c2 31030000 		.4byte	0x331
 469 02c6 3C       		.byte	0x3c
 470 02c7 04       		.uleb128 0x4
 471 02c8 10050000 		.4byte	.LASF54
 472 02cc B601     		.2byte	0x1b6
 473 02ce 22       		.byte	0x22
 474 02cf D3090000 		.4byte	0x9d3
 475 02d3 40       		.byte	0x40
 476 02d4 04       		.uleb128 0x4
 477 02d5 20060000 		.4byte	.LASF55
 478 02d9 BA01     		.2byte	0x1ba
 479 02db 21       		.byte	0x21
 480 02dc 68010000 		.4byte	0x168
 481 02e0 44       		.byte	0x44
 482 02e1 04       		.uleb128 0x4
 483 02e2 79000000 		.4byte	.LASF56
 484 02e6 BF01     		.2byte	0x1bf
 485 02e8 21       		.byte	0x21
 486 02e9 68010000 		.4byte	0x168
 487 02ed 94       		.byte	0x94
 488 02ee 03       		.uleb128 0x3
 489 02ef 64626700 		.ascii	"dbg\000"
 490 02f3 06       		.byte	0x6
 491 02f4 C401     		.2byte	0x1c4
 492 02f6 21       		.byte	0x21
 493 02f7 6E030000 		.4byte	0x36e
 494 02fb E4       		.byte	0xe4
 495 02fc 04       		.uleb128 0x4
 496 02fd ED050000 		.4byte	.LASF57
 497 0301 C901     		.2byte	0x1c9
 498 0303 21       		.byte	0x21
 499 0304 10050000 		.4byte	0x510
 500 0308 E8       		.byte	0xe8
 501 0309 00       		.byte	0
 502 030a 01       		.uleb128 0x1
 503 030b 7F030000 		.4byte	.LASF58
 504 030f 07       		.byte	0x7
 505 0310 3F       		.byte	0x3f
 506 0311 12       		.byte	0x12
 507 0312 D3000000 		.4byte	0xd3
 508 0316 07       		.uleb128 0x7
 509 0317 13010000 		.4byte	.LASF59
 510 031b 04       		.byte	0x4
 511 031c 07       		.byte	0x7
 512 031d 44       		.byte	0x44
 513 031e 10       		.byte	0x10
ARM GAS  C:\Users\DEVELO~1\AppData\Local\Temp\ccAP8jcX.s 			page 10


 514 031f 31030000 		.4byte	0x331
 515 0323 02       		.uleb128 0x2
 516 0324 53010000 		.4byte	.LASF60
 517 0328 07       		.byte	0x7
 518 0329 48       		.byte	0x48
 519 032a 21       		.byte	0x21
 520 032b 0A030000 		.4byte	0x30a
 521 032f 00       		.byte	0
 522 0330 00       		.byte	0
 523 0331 01       		.uleb128 0x1
 524 0332 7F040000 		.4byte	.LASF61
 525 0336 07       		.byte	0x7
 526 0337 49       		.byte	0x49
 527 0338 03       		.byte	0x3
 528 0339 16030000 		.4byte	0x316
 529 033d 07       		.uleb128 0x7
 530 033e 58010000 		.4byte	.LASF62
 531 0342 04       		.byte	0x4
 532 0343 08       		.byte	0x8
 533 0344 3E       		.byte	0x3e
 534 0345 10       		.byte	0x10
 535 0346 58030000 		.4byte	0x358
 536 034a 02       		.uleb128 0x2
 537 034b 56050000 		.4byte	.LASF63
 538 034f 08       		.byte	0x8
 539 0350 46       		.byte	0x46
 540 0351 24       		.byte	0x24
 541 0352 5D030000 		.4byte	0x35d
 542 0356 00       		.byte	0
 543 0357 00       		.byte	0
 544 0358 05       		.uleb128 0x5
 545 0359 69030000 		.4byte	0x369
 546 035d 0F       		.uleb128 0xf
 547 035e 58030000 		.4byte	0x358
 548 0362 06       		.uleb128 0x6
 549 0363 01       		.byte	0x1
 550 0364 08       		.byte	0x8
 551 0365 0B050000 		.4byte	.LASF64
 552 0369 10       		.uleb128 0x10
 553 036a 62030000 		.4byte	0x362
 554 036e 01       		.uleb128 0x1
 555 036f B8010000 		.4byte	.LASF65
 556 0373 08       		.byte	0x8
 557 0374 51       		.byte	0x51
 558 0375 03       		.byte	0x3
 559 0376 3D030000 		.4byte	0x33d
 560 037a 01       		.uleb128 0x1
 561 037b 31050000 		.4byte	.LASF66
 562 037f 09       		.byte	0x9
 563 0380 6D       		.byte	0x6d
 564 0381 12       		.byte	0x12
 565 0382 D3000000 		.4byte	0xd3
 566 0386 01       		.uleb128 0x1
 567 0387 87010000 		.4byte	.LASF67
 568 038b 09       		.byte	0x9
 569 038c 79       		.byte	0x79
 570 038d 12       		.byte	0x12
ARM GAS  C:\Users\DEVELO~1\AppData\Local\Temp\ccAP8jcX.s 			page 11


 571 038e D3000000 		.4byte	0xd3
 572 0392 0A       		.uleb128 0xa
 573 0393 08       		.byte	0x8
 574 0394 83       		.byte	0x83
 575 0395 05       		.byte	0x5
 576 0396 B5030000 		.4byte	0x3b5
 577 039a 08       		.uleb128 0x8
 578 039b 6E747000 		.ascii	"ntp\000"
 579 039f 0A       		.byte	0xa
 580 03a0 87       		.byte	0x87
 581 03a1 1E       		.byte	0x1e
 582 03a2 B5030000 		.4byte	0x3b5
 583 03a6 00       		.byte	0
 584 03a7 02       		.uleb128 0x2
 585 03a8 99040000 		.4byte	.LASF68
 586 03ac 0A       		.byte	0xa
 587 03ad 8B       		.byte	0x8b
 588 03ae 1E       		.byte	0x1e
 589 03af BA030000 		.4byte	0x3ba
 590 03b3 04       		.byte	0x4
 591 03b4 00       		.byte	0
 592 03b5 05       		.uleb128 0x5
 593 03b6 68010000 		.4byte	0x168
 594 03ba 17       		.uleb128 0x17
 595 03bb 04       		.byte	0x4
 596 03bc 0A       		.uleb128 0xa
 597 03bd 08       		.byte	0x8
 598 03be 90       		.byte	0x90
 599 03bf 05       		.byte	0x5
 600 03c0 DE030000 		.4byte	0x3de
 601 03c4 08       		.uleb128 0x8
 602 03c5 747000   		.ascii	"tp\000"
 603 03c8 0A       		.byte	0xa
 604 03c9 94       		.byte	0x94
 605 03ca 1E       		.byte	0x1e
 606 03cb B5030000 		.4byte	0x3b5
 607 03cf 00       		.byte	0
 608 03d0 08       		.uleb128 0x8
 609 03d1 6D736700 		.ascii	"msg\000"
 610 03d5 0A       		.byte	0xa
 611 03d6 98       		.byte	0x98
 612 03d7 1D       		.byte	0x1d
 613 03d8 38010000 		.4byte	0x138
 614 03dc 04       		.byte	0x4
 615 03dd 00       		.byte	0
 616 03de 0A       		.uleb128 0xa
 617 03df 04       		.byte	0x4
 618 03e0 9D       		.byte	0x9d
 619 03e1 05       		.byte	0x5
 620 03e2 F4030000 		.4byte	0x3f4
 621 03e6 02       		.uleb128 0x2
 622 03e7 10020000 		.4byte	.LASF37
 623 03eb 0A       		.byte	0xa
 624 03ec A1       		.byte	0xa1
 625 03ed 1E       		.byte	0x1e
 626 03ee 58030000 		.4byte	0x358
 627 03f2 00       		.byte	0
ARM GAS  C:\Users\DEVELO~1\AppData\Local\Temp\ccAP8jcX.s 			page 12


 628 03f3 00       		.byte	0
 629 03f4 0A       		.uleb128 0xa
 630 03f5 04       		.byte	0x4
 631 03f6 A6       		.byte	0xa6
 632 03f7 05       		.byte	0x5
 633 03f8 0A040000 		.4byte	0x40a
 634 03fc 02       		.uleb128 0x2
 635 03fd A7040000 		.4byte	.LASF69
 636 0401 0A       		.byte	0xa
 637 0402 AA       		.byte	0xaa
 638 0403 1E       		.byte	0x1e
 639 0404 58030000 		.4byte	0x358
 640 0408 00       		.byte	0
 641 0409 00       		.byte	0
 642 040a 0A       		.uleb128 0xa
 643 040b 08       		.byte	0x8
 644 040c AF       		.byte	0xaf
 645 040d 05       		.byte	0x5
 646 040e 2D040000 		.4byte	0x42d
 647 0412 08       		.uleb128 0x8
 648 0413 75703100 		.ascii	"up1\000"
 649 0417 0A       		.byte	0xa
 650 0418 B3       		.byte	0xb3
 651 0419 1E       		.byte	0x1e
 652 041a BA030000 		.4byte	0x3ba
 653 041e 00       		.byte	0
 654 041f 08       		.uleb128 0x8
 655 0420 75703200 		.ascii	"up2\000"
 656 0424 0A       		.byte	0xa
 657 0425 B7       		.byte	0xb7
 658 0426 1E       		.byte	0x1e
 659 0427 BA030000 		.4byte	0x3ba
 660 042b 04       		.byte	0x4
 661 042c 00       		.byte	0
 662 042d 11       		.uleb128 0x11
 663 042e 08       		.byte	0x8
 664 042f 0A       		.byte	0xa
 665 0430 7F       		.byte	0x7f
 666 0431 6B040000 		.4byte	0x46b
 667 0435 0D       		.uleb128 0xd
 668 0436 737700   		.ascii	"sw\000"
 669 0439 8C       		.byte	0x8c
 670 043a 92030000 		.4byte	0x392
 671 043e 0D       		.uleb128 0xd
 672 043f 72647900 		.ascii	"rdy\000"
 673 0443 99       		.byte	0x99
 674 0444 BC030000 		.4byte	0x3bc
 675 0448 0D       		.uleb128 0xd
 676 0449 69737200 		.ascii	"isr\000"
 677 044d A2       		.byte	0xa2
 678 044e DE030000 		.4byte	0x3de
 679 0452 0B       		.uleb128 0xb
 680 0453 5D000000 		.4byte	.LASF70
 681 0457 0A       		.byte	0xa
 682 0458 AB       		.byte	0xab
 683 0459 07       		.byte	0x7
 684 045a F4030000 		.4byte	0x3f4
ARM GAS  C:\Users\DEVELO~1\AppData\Local\Temp\ccAP8jcX.s 			page 13


 685 045e 0B       		.uleb128 0xb
 686 045f 4D040000 		.4byte	.LASF71
 687 0463 0A       		.byte	0xa
 688 0464 B8       		.byte	0xb8
 689 0465 07       		.byte	0x7
 690 0466 0A040000 		.4byte	0x40a
 691 046a 00       		.byte	0
 692 046b 0A       		.uleb128 0xa
 693 046c 10       		.byte	0x10
 694 046d 6C       		.byte	0x6c
 695 046e 09       		.byte	0x9
 696 046f B0040000 		.4byte	0x4b0
 697 0473 0E       		.uleb128 0xe
 698 0474 41000000 		.4byte	.LASF72
 699 0478 70       		.byte	0x70
 700 0479 D3000000 		.4byte	0xd3
 701 047d 03       		.byte	0x3
 702 047e 00       		.byte	0
 703 047f 0E       		.uleb128 0xe
 704 0480 FA000000 		.4byte	.LASF34
 705 0484 74       		.byte	0x74
 706 0485 D3000000 		.4byte	0xd3
 707 0489 05       		.byte	0x5
 708 048a 03       		.byte	0x3
 709 048b 0E       		.uleb128 0xe
 710 048c 64030000 		.4byte	.LASF73
 711 0490 7A       		.byte	0x7a
 712 0491 D3000000 		.4byte	0xd3
 713 0495 18       		.byte	0x18
 714 0496 08       		.byte	0x8
 715 0497 02       		.uleb128 0x2
 716 0498 01040000 		.4byte	.LASF74
 717 049c 0A       		.byte	0xa
 718 049d 7E       		.byte	0x7e
 719 049e 19       		.byte	0x19
 720 049f 7A030000 		.4byte	0x37a
 721 04a3 04       		.byte	0x4
 722 04a4 08       		.uleb128 0x8
 723 04a5 7500     		.ascii	"u\000"
 724 04a7 0A       		.byte	0xa
 725 04a8 B9       		.byte	0xb9
 726 04a9 05       		.byte	0x5
 727 04aa 2D040000 		.4byte	0x42d
 728 04ae 08       		.byte	0x8
 729 04af 00       		.byte	0
 730 04b0 01       		.uleb128 0x1
 731 04b1 4F000000 		.4byte	.LASF75
 732 04b5 0A       		.byte	0xa
 733 04b6 BA       		.byte	0xba
 734 04b7 03       		.byte	0x3
 735 04b8 6B040000 		.4byte	0x46b
 736 04bc 18       		.uleb128 0x18
 737 04bd 0808     		.2byte	0x808
 738 04bf 0A       		.byte	0xa
 739 04c0 C0       		.byte	0xc0
 740 04c1 09       		.byte	0x9
 741 04c2 FB040000 		.4byte	0x4fb
ARM GAS  C:\Users\DEVELO~1\AppData\Local\Temp\ccAP8jcX.s 			page 14


 742 04c6 02       		.uleb128 0x2
 743 04c7 BF030000 		.4byte	.LASF76
 744 04cb 0A       		.byte	0xa
 745 04cc C4       		.byte	0xc4
 746 04cd 19       		.byte	0x19
 747 04ce BB000000 		.4byte	0xbb
 748 04d2 00       		.byte	0
 749 04d3 02       		.uleb128 0x2
 750 04d4 34020000 		.4byte	.LASF77
 751 04d8 0A       		.byte	0xa
 752 04d9 C8       		.byte	0xc8
 753 04da 19       		.byte	0x19
 754 04db BB000000 		.4byte	0xbb
 755 04df 02       		.byte	0x2
 756 04e0 08       		.uleb128 0x8
 757 04e1 70747200 		.ascii	"ptr\000"
 758 04e5 0A       		.byte	0xa
 759 04e6 CC       		.byte	0xcc
 760 04e7 1A       		.byte	0x1a
 761 04e8 FB040000 		.4byte	0x4fb
 762 04ec 04       		.byte	0x4
 763 04ed 02       		.uleb128 0x2
 764 04ee 3B050000 		.4byte	.LASF78
 765 04f2 0A       		.byte	0xa
 766 04f3 D0       		.byte	0xd0
 767 04f4 19       		.byte	0x19
 768 04f5 00050000 		.4byte	0x500
 769 04f9 08       		.byte	0x8
 770 04fa 00       		.byte	0
 771 04fb 05       		.uleb128 0x5
 772 04fc B0040000 		.4byte	0x4b0
 773 0500 19       		.uleb128 0x19
 774 0501 B0040000 		.4byte	0x4b0
 775 0505 10050000 		.4byte	0x510
 776 0509 1A       		.uleb128 0x1a
 777 050a 2D000000 		.4byte	0x2d
 778 050e 7F       		.byte	0x7f
 779 050f 00       		.byte	0
 780 0510 01       		.uleb128 0x1
 781 0511 24010000 		.4byte	.LASF79
 782 0515 0A       		.byte	0xa
 783 0516 D1       		.byte	0xd1
 784 0517 03       		.byte	0x3
 785 0518 BC040000 		.4byte	0x4bc
 786 051c 0C       		.uleb128 0xc
 787 051d 2E000000 		.4byte	.LASF80
 788 0521 64       		.byte	0x64
 789 0522 0B       		.byte	0xb
 790 0523 3F02     		.2byte	0x23f
 791 0525 08       		.byte	0x8
 792 0526 82060000 		.4byte	0x682
 793 052a 03       		.uleb128 0x3
 794 052b 73313600 		.ascii	"s16\000"
 795 052f 0B       		.byte	0xb
 796 0530 4102     		.2byte	0x241
 797 0532 11       		.byte	0x11
 798 0533 D3000000 		.4byte	0xd3
ARM GAS  C:\Users\DEVELO~1\AppData\Local\Temp\ccAP8jcX.s 			page 15


 799 0537 00       		.byte	0
 800 0538 03       		.uleb128 0x3
 801 0539 73313700 		.ascii	"s17\000"
 802 053d 0B       		.byte	0xb
 803 053e 4202     		.2byte	0x242
 804 0540 11       		.byte	0x11
 805 0541 D3000000 		.4byte	0xd3
 806 0545 04       		.byte	0x4
 807 0546 03       		.uleb128 0x3
 808 0547 73313800 		.ascii	"s18\000"
 809 054b 0B       		.byte	0xb
 810 054c 4302     		.2byte	0x243
 811 054e 11       		.byte	0x11
 812 054f D3000000 		.4byte	0xd3
 813 0553 08       		.byte	0x8
 814 0554 03       		.uleb128 0x3
 815 0555 73313900 		.ascii	"s19\000"
 816 0559 0B       		.byte	0xb
 817 055a 4402     		.2byte	0x244
 818 055c 11       		.byte	0x11
 819 055d D3000000 		.4byte	0xd3
 820 0561 0C       		.byte	0xc
 821 0562 03       		.uleb128 0x3
 822 0563 73323000 		.ascii	"s20\000"
 823 0567 0B       		.byte	0xb
 824 0568 4502     		.2byte	0x245
 825 056a 11       		.byte	0x11
 826 056b D3000000 		.4byte	0xd3
 827 056f 10       		.byte	0x10
 828 0570 03       		.uleb128 0x3
 829 0571 73323100 		.ascii	"s21\000"
 830 0575 0B       		.byte	0xb
 831 0576 4602     		.2byte	0x246
 832 0578 11       		.byte	0x11
 833 0579 D3000000 		.4byte	0xd3
 834 057d 14       		.byte	0x14
 835 057e 03       		.uleb128 0x3
 836 057f 73323200 		.ascii	"s22\000"
 837 0583 0B       		.byte	0xb
 838 0584 4702     		.2byte	0x247
 839 0586 11       		.byte	0x11
 840 0587 D3000000 		.4byte	0xd3
 841 058b 18       		.byte	0x18
 842 058c 03       		.uleb128 0x3
 843 058d 73323300 		.ascii	"s23\000"
 844 0591 0B       		.byte	0xb
 845 0592 4802     		.2byte	0x248
 846 0594 11       		.byte	0x11
 847 0595 D3000000 		.4byte	0xd3
 848 0599 1C       		.byte	0x1c
 849 059a 03       		.uleb128 0x3
 850 059b 73323400 		.ascii	"s24\000"
 851 059f 0B       		.byte	0xb
 852 05a0 4902     		.2byte	0x249
 853 05a2 11       		.byte	0x11
 854 05a3 D3000000 		.4byte	0xd3
 855 05a7 20       		.byte	0x20
ARM GAS  C:\Users\DEVELO~1\AppData\Local\Temp\ccAP8jcX.s 			page 16


 856 05a8 03       		.uleb128 0x3
 857 05a9 73323500 		.ascii	"s25\000"
 858 05ad 0B       		.byte	0xb
 859 05ae 4A02     		.2byte	0x24a
 860 05b0 11       		.byte	0x11
 861 05b1 D3000000 		.4byte	0xd3
 862 05b5 24       		.byte	0x24
 863 05b6 03       		.uleb128 0x3
 864 05b7 73323600 		.ascii	"s26\000"
 865 05bb 0B       		.byte	0xb
 866 05bc 4B02     		.2byte	0x24b
 867 05be 11       		.byte	0x11
 868 05bf D3000000 		.4byte	0xd3
 869 05c3 28       		.byte	0x28
 870 05c4 03       		.uleb128 0x3
 871 05c5 73323700 		.ascii	"s27\000"
 872 05c9 0B       		.byte	0xb
 873 05ca 4C02     		.2byte	0x24c
 874 05cc 11       		.byte	0x11
 875 05cd D3000000 		.4byte	0xd3
 876 05d1 2C       		.byte	0x2c
 877 05d2 03       		.uleb128 0x3
 878 05d3 73323800 		.ascii	"s28\000"
 879 05d7 0B       		.byte	0xb
 880 05d8 4D02     		.2byte	0x24d
 881 05da 11       		.byte	0x11
 882 05db D3000000 		.4byte	0xd3
 883 05df 30       		.byte	0x30
 884 05e0 03       		.uleb128 0x3
 885 05e1 73323900 		.ascii	"s29\000"
 886 05e5 0B       		.byte	0xb
 887 05e6 4E02     		.2byte	0x24e
 888 05e8 11       		.byte	0x11
 889 05e9 D3000000 		.4byte	0xd3
 890 05ed 34       		.byte	0x34
 891 05ee 03       		.uleb128 0x3
 892 05ef 73333000 		.ascii	"s30\000"
 893 05f3 0B       		.byte	0xb
 894 05f4 4F02     		.2byte	0x24f
 895 05f6 11       		.byte	0x11
 896 05f7 D3000000 		.4byte	0xd3
 897 05fb 38       		.byte	0x38
 898 05fc 03       		.uleb128 0x3
 899 05fd 73333100 		.ascii	"s31\000"
 900 0601 0B       		.byte	0xb
 901 0602 5002     		.2byte	0x250
 902 0604 11       		.byte	0x11
 903 0605 D3000000 		.4byte	0xd3
 904 0609 3C       		.byte	0x3c
 905 060a 03       		.uleb128 0x3
 906 060b 723400   		.ascii	"r4\000"
 907 060e 0B       		.byte	0xb
 908 060f 5202     		.2byte	0x252
 909 0611 11       		.byte	0x11
 910 0612 D3000000 		.4byte	0xd3
 911 0616 40       		.byte	0x40
 912 0617 03       		.uleb128 0x3
ARM GAS  C:\Users\DEVELO~1\AppData\Local\Temp\ccAP8jcX.s 			page 17


 913 0618 723500   		.ascii	"r5\000"
 914 061b 0B       		.byte	0xb
 915 061c 5302     		.2byte	0x253
 916 061e 11       		.byte	0x11
 917 061f D3000000 		.4byte	0xd3
 918 0623 44       		.byte	0x44
 919 0624 03       		.uleb128 0x3
 920 0625 723600   		.ascii	"r6\000"
 921 0628 0B       		.byte	0xb
 922 0629 5402     		.2byte	0x254
 923 062b 11       		.byte	0x11
 924 062c D3000000 		.4byte	0xd3
 925 0630 48       		.byte	0x48
 926 0631 03       		.uleb128 0x3
 927 0632 723700   		.ascii	"r7\000"
 928 0635 0B       		.byte	0xb
 929 0636 5502     		.2byte	0x255
 930 0638 11       		.byte	0x11
 931 0639 D3000000 		.4byte	0xd3
 932 063d 4C       		.byte	0x4c
 933 063e 03       		.uleb128 0x3
 934 063f 723800   		.ascii	"r8\000"
 935 0642 0B       		.byte	0xb
 936 0643 5602     		.2byte	0x256
 937 0645 11       		.byte	0x11
 938 0646 D3000000 		.4byte	0xd3
 939 064a 50       		.byte	0x50
 940 064b 03       		.uleb128 0x3
 941 064c 723900   		.ascii	"r9\000"
 942 064f 0B       		.byte	0xb
 943 0650 5702     		.2byte	0x257
 944 0652 11       		.byte	0x11
 945 0653 D3000000 		.4byte	0xd3
 946 0657 54       		.byte	0x54
 947 0658 03       		.uleb128 0x3
 948 0659 72313000 		.ascii	"r10\000"
 949 065d 0B       		.byte	0xb
 950 065e 5802     		.2byte	0x258
 951 0660 11       		.byte	0x11
 952 0661 D3000000 		.4byte	0xd3
 953 0665 58       		.byte	0x58
 954 0666 03       		.uleb128 0x3
 955 0667 72313100 		.ascii	"r11\000"
 956 066b 0B       		.byte	0xb
 957 066c 5902     		.2byte	0x259
 958 066e 11       		.byte	0x11
 959 066f D3000000 		.4byte	0xd3
 960 0673 5C       		.byte	0x5c
 961 0674 03       		.uleb128 0x3
 962 0675 6C7200   		.ascii	"lr\000"
 963 0678 0B       		.byte	0xb
 964 0679 5A02     		.2byte	0x25a
 965 067b 11       		.byte	0x11
 966 067c D3000000 		.4byte	0xd3
 967 0680 60       		.byte	0x60
 968 0681 00       		.byte	0
 969 0682 0C       		.uleb128 0xc
ARM GAS  C:\Users\DEVELO~1\AppData\Local\Temp\ccAP8jcX.s 			page 18


 970 0683 F4030000 		.4byte	.LASF81
 971 0687 04       		.byte	0x4
 972 0688 0B       		.byte	0xb
 973 0689 6302     		.2byte	0x263
 974 068b 08       		.byte	0x8
 975 068c 9E060000 		.4byte	0x69e
 976 0690 03       		.uleb128 0x3
 977 0691 737000   		.ascii	"sp\000"
 978 0694 0B       		.byte	0xb
 979 0695 6402     		.2byte	0x264
 980 0697 1A       		.byte	0x1a
 981 0698 9E060000 		.4byte	0x69e
 982 069c 00       		.byte	0
 983 069d 00       		.byte	0
 984 069e 05       		.uleb128 0x5
 985 069f 1C050000 		.4byte	0x51c
 986 06a3 01       		.uleb128 0x1
 987 06a4 B5030000 		.4byte	.LASF82
 988 06a8 0C       		.byte	0xc
 989 06a9 32       		.byte	0x32
 990 06aa 18       		.byte	0x18
 991 06ab AF060000 		.4byte	0x6af
 992 06af 07       		.uleb128 0x7
 993 06b0 0D030000 		.4byte	.LASF83
 994 06b4 04       		.byte	0x4
 995 06b5 0C       		.byte	0xc
 996 06b6 38       		.byte	0x38
 997 06b7 08       		.byte	0x8
 998 06b8 CA060000 		.4byte	0x6ca
 999 06bc 02       		.uleb128 0x2
 1000 06bd 92000000 		.4byte	.LASF84
 1001 06c1 0C       		.byte	0xc
 1002 06c2 39       		.byte	0x39
 1003 06c3 1A       		.byte	0x1a
 1004 06c4 CA060000 		.4byte	0x6ca
 1005 06c8 00       		.byte	0
 1006 06c9 00       		.byte	0
 1007 06ca 05       		.uleb128 0x5
 1008 06cb A3060000 		.4byte	0x6a3
 1009 06cf 01       		.uleb128 0x1
 1010 06d0 05020000 		.4byte	.LASF85
 1011 06d4 0C       		.byte	0xc
 1012 06d5 3F       		.byte	0x3f
 1013 06d6 19       		.byte	0x19
 1014 06d7 DB060000 		.4byte	0x6db
 1015 06db 07       		.uleb128 0x7
 1016 06dc 5A040000 		.4byte	.LASF86
 1017 06e0 08       		.byte	0x8
 1018 06e1 0C       		.byte	0xc
 1019 06e2 45       		.byte	0x45
 1020 06e3 08       		.byte	0x8
 1021 06e4 03070000 		.4byte	0x703
 1022 06e8 02       		.uleb128 0x2
 1023 06e9 92000000 		.4byte	.LASF84
 1024 06ed 0C       		.byte	0xc
 1025 06ee 46       		.byte	0x46
 1026 06ef 1A       		.byte	0x1a
ARM GAS  C:\Users\DEVELO~1\AppData\Local\Temp\ccAP8jcX.s 			page 19


 1027 06f0 03070000 		.4byte	0x703
 1028 06f4 00       		.byte	0
 1029 06f5 02       		.uleb128 0x2
 1030 06f6 29000000 		.4byte	.LASF87
 1031 06fa 0C       		.byte	0xc
 1032 06fb 47       		.byte	0x47
 1033 06fc 1A       		.byte	0x1a
 1034 06fd 03070000 		.4byte	0x703
 1035 0701 04       		.byte	0x4
 1036 0702 00       		.byte	0
 1037 0703 05       		.uleb128 0x5
 1038 0704 CF060000 		.4byte	0x6cf
 1039 0708 01       		.uleb128 0x1
 1040 0709 42050000 		.4byte	.LASF88
 1041 070d 0C       		.byte	0xc
 1042 070e 4E       		.byte	0x4e
 1043 070f 22       		.byte	0x22
 1044 0710 14070000 		.4byte	0x714
 1045 0714 07       		.uleb128 0x7
 1046 0715 8C050000 		.4byte	.LASF89
 1047 0719 0C       		.byte	0xc
 1048 071a 0C       		.byte	0xc
 1049 071b 55       		.byte	0x55
 1050 071c 08       		.byte	0x8
 1051 071d 49070000 		.4byte	0x749
 1052 0721 02       		.uleb128 0x2
 1053 0722 92000000 		.4byte	.LASF84
 1054 0726 0C       		.byte	0xc
 1055 0727 56       		.byte	0x56
 1056 0728 1A       		.byte	0x1a
 1057 0729 49070000 		.4byte	0x749
 1058 072d 00       		.byte	0
 1059 072e 02       		.uleb128 0x2
 1060 072f 29000000 		.4byte	.LASF87
 1061 0733 0C       		.byte	0xc
 1062 0734 57       		.byte	0x57
 1063 0735 1A       		.byte	0x1a
 1064 0736 49070000 		.4byte	0x749
 1065 073a 04       		.byte	0x4
 1066 073b 02       		.uleb128 0x2
 1067 073c 06040000 		.4byte	.LASF90
 1068 0740 0C       		.byte	0xc
 1069 0741 58       		.byte	0x58
 1070 0742 19       		.byte	0x19
 1071 0743 2C010000 		.4byte	0x12c
 1072 0747 08       		.byte	0x8
 1073 0748 00       		.byte	0
 1074 0749 05       		.uleb128 0x5
 1075 074a 08070000 		.4byte	0x708
 1076 074e 01       		.uleb128 0x1
 1077 074f 9E050000 		.4byte	.LASF91
 1078 0753 0C       		.byte	0xc
 1079 0754 5F       		.byte	0x5f
 1080 0755 1E       		.byte	0x1e
 1081 0756 5A070000 		.4byte	0x75a
 1082 075a 07       		.uleb128 0x7
 1083 075b D5000000 		.4byte	.LASF92
ARM GAS  C:\Users\DEVELO~1\AppData\Local\Temp\ccAP8jcX.s 			page 20


 1084 075f 0C       		.byte	0xc
 1085 0760 0C       		.byte	0xc
 1086 0761 64       		.byte	0x64
 1087 0762 08       		.byte	0x8
 1088 0763 8F070000 		.4byte	0x78f
 1089 0767 02       		.uleb128 0x2
 1090 0768 92000000 		.4byte	.LASF84
 1091 076c 0C       		.byte	0xc
 1092 076d 65       		.byte	0x65
 1093 076e 1A       		.byte	0x1a
 1094 076f 8F070000 		.4byte	0x78f
 1095 0773 00       		.byte	0
 1096 0774 02       		.uleb128 0x2
 1097 0775 29000000 		.4byte	.LASF87
 1098 0779 0C       		.byte	0xc
 1099 077a 66       		.byte	0x66
 1100 077b 1A       		.byte	0x1a
 1101 077c 8F070000 		.4byte	0x78f
 1102 0780 04       		.byte	0x4
 1103 0781 02       		.uleb128 0x2
 1104 0782 8C000000 		.4byte	.LASF93
 1105 0786 0C       		.byte	0xc
 1106 0787 67       		.byte	0x67
 1107 0788 19       		.byte	0x19
 1108 0789 86030000 		.4byte	0x386
 1109 078d 08       		.byte	0x8
 1110 078e 00       		.byte	0
 1111 078f 05       		.uleb128 0x5
 1112 0790 4E070000 		.4byte	0x74e
 1113 0794 07       		.uleb128 0x7
 1114 0795 9E030000 		.4byte	.LASF94
 1115 0799 20       		.byte	0x20
 1116 079a 06       		.byte	0x6
 1117 079b 64       		.byte	0x64
 1118 079c 10       		.byte	0x10
 1119 079d D6070000 		.4byte	0x7d6
 1120 07a1 02       		.uleb128 0x2
 1121 07a2 2B050000 		.4byte	.LASF95
 1122 07a6 06       		.byte	0x6
 1123 07a7 68       		.byte	0x68
 1124 07a8 21       		.byte	0x21
 1125 07a9 4E070000 		.4byte	0x74e
 1126 07ad 00       		.byte	0
 1127 07ae 02       		.uleb128 0x2
 1128 07af 90040000 		.4byte	.LASF96
 1129 07b3 06       		.byte	0x6
 1130 07b4 73       		.byte	0x73
 1131 07b5 21       		.byte	0x21
 1132 07b6 7A030000 		.4byte	0x37a
 1133 07ba 0C       		.byte	0xc
 1134 07bb 02       		.uleb128 0x2
 1135 07bc 2C040000 		.4byte	.LASF97
 1136 07c0 06       		.byte	0x6
 1137 07c1 7B       		.byte	0x7b
 1138 07c2 21       		.byte	0x21
 1139 07c3 86030000 		.4byte	0x386
 1140 07c7 10       		.byte	0x10
ARM GAS  C:\Users\DEVELO~1\AppData\Local\Temp\ccAP8jcX.s 			page 21


 1141 07c8 02       		.uleb128 0x2
 1142 07c9 6C030000 		.4byte	.LASF98
 1143 07cd 06       		.byte	0x6
 1144 07ce 81       		.byte	0x81
 1145 07cf 21       		.byte	0x21
 1146 07d0 EB000000 		.4byte	0xeb
 1147 07d4 18       		.byte	0x18
 1148 07d5 00       		.byte	0
 1149 07d6 01       		.uleb128 0x1
 1150 07d7 4E030000 		.4byte	.LASF99
 1151 07db 06       		.byte	0x6
 1152 07dc 83       		.byte	0x83
 1153 07dd 03       		.byte	0x3
 1154 07de 94070000 		.4byte	0x794
 1155 07e2 07       		.uleb128 0x7
 1156 07e3 33010000 		.4byte	.LASF100
 1157 07e7 08       		.byte	0x8
 1158 07e8 06       		.byte	0x6
 1159 07e9 88       		.byte	0x88
 1160 07ea 10       		.byte	0x10
 1161 07eb FD070000 		.4byte	0x7fd
 1162 07ef 02       		.uleb128 0x2
 1163 07f0 26020000 		.4byte	.LASF101
 1164 07f4 06       		.byte	0x6
 1165 07f5 8C       		.byte	0x8c
 1166 07f6 21       		.byte	0x21
 1167 07f7 CF060000 		.4byte	0x6cf
 1168 07fb 00       		.byte	0
 1169 07fc 00       		.byte	0
 1170 07fd 01       		.uleb128 0x1
 1171 07fe BB040000 		.4byte	.LASF102
 1172 0802 06       		.byte	0x6
 1173 0803 8D       		.byte	0x8d
 1174 0804 03       		.byte	0x3
 1175 0805 E2070000 		.4byte	0x7e2
 1176 0809 01       		.uleb128 0x1
 1177 080a 8B030000 		.4byte	.LASF103
 1178 080e 06       		.byte	0x6
 1179 080f 92       		.byte	0x92
 1180 0810 14       		.byte	0x14
 1181 0811 B5030000 		.4byte	0x3b5
 1182 0815 01       		.uleb128 0x1
 1183 0816 15020000 		.4byte	.LASF104
 1184 081a 06       		.byte	0x6
 1185 081b A1       		.byte	0xa1
 1186 081c 10       		.byte	0x10
 1187 081d 21080000 		.4byte	0x821
 1188 0821 05       		.uleb128 0x5
 1189 0822 26080000 		.4byte	0x826
 1190 0826 1B       		.uleb128 0x1b
 1191 0827 31080000 		.4byte	0x831
 1192 082b 1C       		.uleb128 0x1c
 1193 082c B5030000 		.4byte	0x3b5
 1194 0830 00       		.byte	0
 1195 0831 11       		.uleb128 0x11
 1196 0832 0C       		.byte	0xc
 1197 0833 06       		.byte	0x6
ARM GAS  C:\Users\DEVELO~1\AppData\Local\Temp\ccAP8jcX.s 			page 22


 1198 0834 AD       		.byte	0xad
 1199 0835 5E080000 		.4byte	0x85e
 1200 0839 0B       		.uleb128 0xb
 1201 083a FA050000 		.4byte	.LASF105
 1202 083e 06       		.byte	0x6
 1203 083f B1       		.byte	0xb1
 1204 0840 21       		.byte	0x21
 1205 0841 A3060000 		.4byte	0x6a3
 1206 0845 0B       		.uleb128 0xb
 1207 0846 26020000 		.4byte	.LASF101
 1208 084a 06       		.byte	0x6
 1209 084b B5       		.byte	0xb5
 1210 084c 21       		.byte	0x21
 1211 084d CF060000 		.4byte	0x6cf
 1212 0851 0B       		.uleb128 0xb
 1213 0852 60050000 		.4byte	.LASF106
 1214 0856 06       		.byte	0x6
 1215 0857 B9       		.byte	0xb9
 1216 0858 21       		.byte	0x21
 1217 0859 08070000 		.4byte	0x708
 1218 085d 00       		.byte	0
 1219 085e 1D       		.uleb128 0x1d
 1220 085f 04       		.byte	0x4
 1221 0860 06       		.byte	0x6
 1222 0861 0201     		.2byte	0x102
 1223 0863 03       		.byte	0x3
 1224 0864 C9080000 		.4byte	0x8c9
 1225 0868 09       		.uleb128 0x9
 1226 0869 13000000 		.4byte	.LASF107
 1227 086d 0901     		.2byte	0x109
 1228 086f 21       		.byte	0x21
 1229 0870 38010000 		.4byte	0x138
 1230 0874 09       		.uleb128 0x9
 1231 0875 3F010000 		.4byte	.LASF108
 1232 0879 1001     		.2byte	0x110
 1233 087b 21       		.byte	0x21
 1234 087c 38010000 		.4byte	0x138
 1235 0880 09       		.uleb128 0x9
 1236 0881 99040000 		.4byte	.LASF68
 1237 0885 1701     		.2byte	0x117
 1238 0887 22       		.byte	0x22
 1239 0888 BA030000 		.4byte	0x3ba
 1240 088c 09       		.uleb128 0x9
 1241 088d 0D000000 		.4byte	.LASF109
 1242 0891 1E01     		.2byte	0x11e
 1243 0893 22       		.byte	0x22
 1244 0894 C9080000 		.4byte	0x8c9
 1245 0898 09       		.uleb128 0x9
 1246 0899 84000000 		.4byte	.LASF110
 1247 089d 2301     		.2byte	0x123
 1248 089f 21       		.byte	0x21
 1249 08a0 38010000 		.4byte	0x138
 1250 08a4 09       		.uleb128 0x9
 1251 08a5 B1010000 		.4byte	.LASF111
 1252 08a9 2C01     		.2byte	0x12c
 1253 08ab 22       		.byte	0x22
 1254 08ac F6080000 		.4byte	0x8f6
ARM GAS  C:\Users\DEVELO~1\AppData\Local\Temp\ccAP8jcX.s 			page 23


 1255 08b0 09       		.uleb128 0x9
 1256 08b1 CF040000 		.4byte	.LASF112
 1257 08b5 3501     		.2byte	0x135
 1258 08b7 22       		.byte	0x22
 1259 08b8 30090000 		.4byte	0x930
 1260 08bc 09       		.uleb128 0x9
 1261 08bd A0040000 		.4byte	.LASF113
 1262 08c1 3D01     		.2byte	0x13d
 1263 08c3 21       		.byte	0x21
 1264 08c4 44010000 		.4byte	0x144
 1265 08c8 00       		.byte	0
 1266 08c9 05       		.uleb128 0x5
 1267 08ca 09080000 		.4byte	0x809
 1268 08ce 07       		.uleb128 0x7
 1269 08cf AE040000 		.4byte	.LASF114
 1270 08d3 0C       		.byte	0xc
 1271 08d4 0D       		.byte	0xd
 1272 08d5 34       		.byte	0x34
 1273 08d6 10       		.byte	0x10
 1274 08d7 F6080000 		.4byte	0x8f6
 1275 08db 02       		.uleb128 0x2
 1276 08dc 26020000 		.4byte	.LASF101
 1277 08e0 0D       		.byte	0xd
 1278 08e1 35       		.byte	0x35
 1279 08e2 19       		.byte	0x19
 1280 08e3 CF060000 		.4byte	0x6cf
 1281 08e7 00       		.byte	0
 1282 08e8 08       		.uleb128 0x8
 1283 08e9 636E7400 		.ascii	"cnt\000"
 1284 08ed 0D       		.byte	0xd
 1285 08ee 37       		.byte	0x37
 1286 08ef 19       		.byte	0x19
 1287 08f0 50010000 		.4byte	0x150
 1288 08f4 08       		.byte	0x8
 1289 08f5 00       		.byte	0
 1290 08f6 05       		.uleb128 0x5
 1291 08f7 CE080000 		.4byte	0x8ce
 1292 08fb 07       		.uleb128 0x7
 1293 08fc DD050000 		.4byte	.LASF115
 1294 0900 10       		.byte	0x10
 1295 0901 0E       		.byte	0xe
 1296 0902 39       		.byte	0x39
 1297 0903 08       		.byte	0x8
 1298 0904 30090000 		.4byte	0x930
 1299 0908 02       		.uleb128 0x2
 1300 0909 26020000 		.4byte	.LASF101
 1301 090d 0E       		.byte	0xe
 1302 090e 3A       		.byte	0x3a
 1303 090f 19       		.byte	0x19
 1304 0910 CF060000 		.4byte	0x6cf
 1305 0914 00       		.byte	0
 1306 0915 02       		.uleb128 0x2
 1307 0916 D6040000 		.4byte	.LASF31
 1308 091a 0E       		.byte	0xe
 1309 091b 3C       		.byte	0x3c
 1310 091c 1A       		.byte	0x1a
 1311 091d B5030000 		.4byte	0x3b5
ARM GAS  C:\Users\DEVELO~1\AppData\Local\Temp\ccAP8jcX.s 			page 24


 1312 0921 08       		.byte	0x8
 1313 0922 02       		.uleb128 0x2
 1314 0923 92000000 		.4byte	.LASF84
 1315 0927 0E       		.byte	0xe
 1316 0928 3E       		.byte	0x3e
 1317 0929 1A       		.byte	0x1a
 1318 092a F1090000 		.4byte	0x9f1
 1319 092e 0C       		.byte	0xc
 1320 092f 00       		.byte	0
 1321 0930 05       		.uleb128 0x5
 1322 0931 FB080000 		.4byte	0x8fb
 1323 0935 05       		.uleb128 0x5
 1324 0936 6B020000 		.4byte	0x26b
 1325 093a 05       		.uleb128 0x5
 1326 093b FC000000 		.4byte	0xfc
 1327 093f 0C       		.uleb128 0xc
 1328 0940 15030000 		.4byte	.LASF116
 1329 0944 10       		.byte	0x10
 1330 0945 06       		.byte	0x6
 1331 0946 6C01     		.2byte	0x16c
 1332 0948 10       		.byte	0x10
 1333 0949 68090000 		.4byte	0x968
 1334 094d 04       		.uleb128 0x4
 1335 094e 60050000 		.4byte	.LASF106
 1336 0952 7101     		.2byte	0x171
 1337 0954 21       		.byte	0x21
 1338 0955 08070000 		.4byte	0x708
 1339 0959 00       		.byte	0
 1340 095a 04       		.uleb128 0x4
 1341 095b 19040000 		.4byte	.LASF117
 1342 095f 7501     		.2byte	0x175
 1343 0961 22       		.byte	0x22
 1344 0962 B5030000 		.4byte	0x3b5
 1345 0966 0C       		.byte	0xc
 1346 0967 00       		.byte	0
 1347 0968 12       		.uleb128 0x12
 1348 0969 00000000 		.4byte	.LASF118
 1349 096d 7601     		.2byte	0x176
 1350 096f 3F090000 		.4byte	0x93f
 1351 0973 0C       		.uleb128 0xc
 1352 0974 DE030000 		.4byte	.LASF119
 1353 0978 14       		.byte	0x14
 1354 0979 06       		.byte	0x6
 1355 097a 7B01     		.2byte	0x17b
 1356 097c 10       		.byte	0x10
 1357 097d C3090000 		.4byte	0x9c3
 1358 0981 04       		.uleb128 0x4
 1359 0982 10020000 		.4byte	.LASF37
 1360 0986 7F01     		.2byte	0x17f
 1361 0988 22       		.byte	0x22
 1362 0989 58030000 		.4byte	0x358
 1363 098d 00       		.byte	0
 1364 098e 04       		.uleb128 0x4
 1365 098f C9030000 		.4byte	.LASF120
 1366 0993 8301     		.2byte	0x183
 1367 0995 22       		.byte	0x22
 1368 0996 3A090000 		.4byte	0x93a
ARM GAS  C:\Users\DEVELO~1\AppData\Local\Temp\ccAP8jcX.s 			page 25


 1369 099a 04       		.byte	0x4
 1370 099b 04       		.uleb128 0x4
 1371 099c 9E000000 		.4byte	.LASF121
 1372 09a0 8701     		.2byte	0x187
 1373 09a2 22       		.byte	0x22
 1374 09a3 3A090000 		.4byte	0x93a
 1375 09a7 08       		.byte	0x8
 1376 09a8 04       		.uleb128 0x4
 1377 09a9 70010000 		.4byte	.LASF122
 1378 09ad 8C01     		.2byte	0x18c
 1379 09af 22       		.byte	0x22
 1380 09b0 3A090000 		.4byte	0x93a
 1381 09b4 0C       		.byte	0xc
 1382 09b5 04       		.uleb128 0x4
 1383 09b6 0B040000 		.4byte	.LASF123
 1384 09ba 9001     		.2byte	0x190
 1385 09bc 22       		.byte	0x22
 1386 09bd 3A090000 		.4byte	0x93a
 1387 09c1 10       		.byte	0x10
 1388 09c2 00       		.byte	0
 1389 09c3 12       		.uleb128 0x12
 1390 09c4 AE050000 		.4byte	.LASF124
 1391 09c8 9201     		.2byte	0x192
 1392 09ca 73090000 		.4byte	0x973
 1393 09ce 10       		.uleb128 0x10
 1394 09cf C3090000 		.4byte	0x9c3
 1395 09d3 05       		.uleb128 0x5
 1396 09d4 CE090000 		.4byte	0x9ce
 1397 09d8 1E       		.uleb128 0x1e
 1398 09d9 63683000 		.ascii	"ch0\000"
 1399 09dd 0F       		.byte	0xf
 1400 09de 1F01     		.2byte	0x11f
 1401 09e0 16       		.byte	0x16
 1402 09e1 6B020000 		.4byte	0x26b
 1403 09e5 01       		.uleb128 0x1
 1404 09e6 7F010000 		.4byte	.LASF125
 1405 09ea 0E       		.byte	0xe
 1406 09eb 34       		.byte	0x34
 1407 09ec 19       		.byte	0x19
 1408 09ed FB080000 		.4byte	0x8fb
 1409 09f1 05       		.uleb128 0x5
 1410 09f2 E5090000 		.4byte	0x9e5
 1411 09f6 06       		.uleb128 0x6
 1412 09f7 01       		.byte	0x1
 1413 09f8 02       		.byte	0x2
 1414 09f9 63040000 		.4byte	.LASF126
 1415 09fd 1F       		.uleb128 0x1f
 1416 09fe 07060000 		.4byte	.LASF130
 1417 0a02 01       		.byte	0x1
 1418 0a03 4F       		.byte	0x4f
 1419 0a04 0D       		.byte	0xd
 1420 0a05 0A030000 		.4byte	0x30a
 1421 0a09 00000000 		.4byte	.LFB353
 1422 0a0d 14000000 		.4byte	.LFE353-.LFB353
 1423 0a11 01       		.uleb128 0x1
 1424 0a12 9C       		.byte	0x9c
 1425 0a13 490A0000 		.4byte	0xa49
ARM GAS  C:\Users\DEVELO~1\AppData\Local\Temp\ccAP8jcX.s 			page 26


 1426 0a17 13       		.uleb128 0x13
 1427 0a18 53010000 		.4byte	.LASF60
 1428 0a1c 4F       		.byte	0x4f
 1429 0a1d 32       		.byte	0x32
 1430 0a1e 0A030000 		.4byte	0x30a
 1431 0a22 10000000 		.4byte	.LLST1
 1432 0a26 0C000000 		.4byte	.LVUS1
 1433 0a2a 20       		.uleb128 0x20
 1434 0a2b 6D00     		.ascii	"m\000"
 1435 0a2d 01       		.byte	0x1
 1436 0a2e 50       		.byte	0x50
 1437 0a2f 0F       		.byte	0xf
 1438 0a30 0A030000 		.4byte	0x30a
 1439 0a34 27000000 		.4byte	.LLST2
 1440 0a38 23000000 		.4byte	.LVUS2
 1441 0a3c 21       		.uleb128 0x21
 1442 0a3d 6F697000 		.ascii	"oip\000"
 1443 0a41 01       		.byte	0x1
 1444 0a42 53       		.byte	0x53
 1445 0a43 12       		.byte	0x12
 1446 0a44 35090000 		.4byte	0x935
 1447 0a48 00       		.byte	0
 1448 0a49 22       		.uleb128 0x22
 1449 0a4a 2F030000 		.4byte	.LASF131
 1450 0a4e 01       		.byte	0x1
 1451 0a4f 3C       		.byte	0x3c
 1452 0a50 06       		.byte	0x6
 1453 0a51 00000000 		.4byte	.LFB352
 1454 0a55 10000000 		.4byte	.LFE352-.LFB352
 1455 0a59 01       		.uleb128 0x1
 1456 0a5a 9C       		.byte	0x9c
 1457 0a5b 13       		.uleb128 0x13
 1458 0a5c 53010000 		.4byte	.LASF60
 1459 0a60 3C       		.byte	0x3c
 1460 0a61 27       		.byte	0x27
 1461 0a62 0A030000 		.4byte	0x30a
 1462 0a66 40000000 		.4byte	.LLST0
 1463 0a6a 3C000000 		.4byte	.LVUS0
 1464 0a6e 00       		.byte	0
 1465 0a6f 00       		.byte	0
 1466              		.section	.debug_abbrev,"",%progbits
 1467              	.Ldebug_abbrev0:
 1468 0000 01       		.uleb128 0x1
 1469 0001 16       		.uleb128 0x16
 1470 0002 00       		.byte	0
 1471 0003 03       		.uleb128 0x3
 1472 0004 0E       		.uleb128 0xe
 1473 0005 3A       		.uleb128 0x3a
 1474 0006 0B       		.uleb128 0xb
 1475 0007 3B       		.uleb128 0x3b
 1476 0008 0B       		.uleb128 0xb
 1477 0009 39       		.uleb128 0x39
 1478 000a 0B       		.uleb128 0xb
 1479 000b 49       		.uleb128 0x49
 1480 000c 13       		.uleb128 0x13
 1481 000d 00       		.byte	0
 1482 000e 00       		.byte	0
ARM GAS  C:\Users\DEVELO~1\AppData\Local\Temp\ccAP8jcX.s 			page 27


 1483 000f 02       		.uleb128 0x2
 1484 0010 0D       		.uleb128 0xd
 1485 0011 00       		.byte	0
 1486 0012 03       		.uleb128 0x3
 1487 0013 0E       		.uleb128 0xe
 1488 0014 3A       		.uleb128 0x3a
 1489 0015 0B       		.uleb128 0xb
 1490 0016 3B       		.uleb128 0x3b
 1491 0017 0B       		.uleb128 0xb
 1492 0018 39       		.uleb128 0x39
 1493 0019 0B       		.uleb128 0xb
 1494 001a 49       		.uleb128 0x49
 1495 001b 13       		.uleb128 0x13
 1496 001c 38       		.uleb128 0x38
 1497 001d 0B       		.uleb128 0xb
 1498 001e 00       		.byte	0
 1499 001f 00       		.byte	0
 1500 0020 03       		.uleb128 0x3
 1501 0021 0D       		.uleb128 0xd
 1502 0022 00       		.byte	0
 1503 0023 03       		.uleb128 0x3
 1504 0024 08       		.uleb128 0x8
 1505 0025 3A       		.uleb128 0x3a
 1506 0026 0B       		.uleb128 0xb
 1507 0027 3B       		.uleb128 0x3b
 1508 0028 05       		.uleb128 0x5
 1509 0029 39       		.uleb128 0x39
 1510 002a 0B       		.uleb128 0xb
 1511 002b 49       		.uleb128 0x49
 1512 002c 13       		.uleb128 0x13
 1513 002d 38       		.uleb128 0x38
 1514 002e 0B       		.uleb128 0xb
 1515 002f 00       		.byte	0
 1516 0030 00       		.byte	0
 1517 0031 04       		.uleb128 0x4
 1518 0032 0D       		.uleb128 0xd
 1519 0033 00       		.byte	0
 1520 0034 03       		.uleb128 0x3
 1521 0035 0E       		.uleb128 0xe
 1522 0036 3A       		.uleb128 0x3a
 1523 0037 21       		.uleb128 0x21
 1524 0038 06       		.sleb128 6
 1525 0039 3B       		.uleb128 0x3b
 1526 003a 05       		.uleb128 0x5
 1527 003b 39       		.uleb128 0x39
 1528 003c 0B       		.uleb128 0xb
 1529 003d 49       		.uleb128 0x49
 1530 003e 13       		.uleb128 0x13
 1531 003f 38       		.uleb128 0x38
 1532 0040 0B       		.uleb128 0xb
 1533 0041 00       		.byte	0
 1534 0042 00       		.byte	0
 1535 0043 05       		.uleb128 0x5
 1536 0044 0F       		.uleb128 0xf
 1537 0045 00       		.byte	0
 1538 0046 0B       		.uleb128 0xb
 1539 0047 21       		.uleb128 0x21
ARM GAS  C:\Users\DEVELO~1\AppData\Local\Temp\ccAP8jcX.s 			page 28


 1540 0048 04       		.sleb128 4
 1541 0049 49       		.uleb128 0x49
 1542 004a 13       		.uleb128 0x13
 1543 004b 00       		.byte	0
 1544 004c 00       		.byte	0
 1545 004d 06       		.uleb128 0x6
 1546 004e 24       		.uleb128 0x24
 1547 004f 00       		.byte	0
 1548 0050 0B       		.uleb128 0xb
 1549 0051 0B       		.uleb128 0xb
 1550 0052 3E       		.uleb128 0x3e
 1551 0053 0B       		.uleb128 0xb
 1552 0054 03       		.uleb128 0x3
 1553 0055 0E       		.uleb128 0xe
 1554 0056 00       		.byte	0
 1555 0057 00       		.byte	0
 1556 0058 07       		.uleb128 0x7
 1557 0059 13       		.uleb128 0x13
 1558 005a 01       		.byte	0x1
 1559 005b 03       		.uleb128 0x3
 1560 005c 0E       		.uleb128 0xe
 1561 005d 0B       		.uleb128 0xb
 1562 005e 0B       		.uleb128 0xb
 1563 005f 3A       		.uleb128 0x3a
 1564 0060 0B       		.uleb128 0xb
 1565 0061 3B       		.uleb128 0x3b
 1566 0062 0B       		.uleb128 0xb
 1567 0063 39       		.uleb128 0x39
 1568 0064 0B       		.uleb128 0xb
 1569 0065 01       		.uleb128 0x1
 1570 0066 13       		.uleb128 0x13
 1571 0067 00       		.byte	0
 1572 0068 00       		.byte	0
 1573 0069 08       		.uleb128 0x8
 1574 006a 0D       		.uleb128 0xd
 1575 006b 00       		.byte	0
 1576 006c 03       		.uleb128 0x3
 1577 006d 08       		.uleb128 0x8
 1578 006e 3A       		.uleb128 0x3a
 1579 006f 0B       		.uleb128 0xb
 1580 0070 3B       		.uleb128 0x3b
 1581 0071 0B       		.uleb128 0xb
 1582 0072 39       		.uleb128 0x39
 1583 0073 0B       		.uleb128 0xb
 1584 0074 49       		.uleb128 0x49
 1585 0075 13       		.uleb128 0x13
 1586 0076 38       		.uleb128 0x38
 1587 0077 0B       		.uleb128 0xb
 1588 0078 00       		.byte	0
 1589 0079 00       		.byte	0
 1590 007a 09       		.uleb128 0x9
 1591 007b 0D       		.uleb128 0xd
 1592 007c 00       		.byte	0
 1593 007d 03       		.uleb128 0x3
 1594 007e 0E       		.uleb128 0xe
 1595 007f 3A       		.uleb128 0x3a
 1596 0080 21       		.uleb128 0x21
ARM GAS  C:\Users\DEVELO~1\AppData\Local\Temp\ccAP8jcX.s 			page 29


 1597 0081 06       		.sleb128 6
 1598 0082 3B       		.uleb128 0x3b
 1599 0083 05       		.uleb128 0x5
 1600 0084 39       		.uleb128 0x39
 1601 0085 0B       		.uleb128 0xb
 1602 0086 49       		.uleb128 0x49
 1603 0087 13       		.uleb128 0x13
 1604 0088 00       		.byte	0
 1605 0089 00       		.byte	0
 1606 008a 0A       		.uleb128 0xa
 1607 008b 13       		.uleb128 0x13
 1608 008c 01       		.byte	0x1
 1609 008d 0B       		.uleb128 0xb
 1610 008e 0B       		.uleb128 0xb
 1611 008f 3A       		.uleb128 0x3a
 1612 0090 21       		.uleb128 0x21
 1613 0091 0A       		.sleb128 10
 1614 0092 3B       		.uleb128 0x3b
 1615 0093 0B       		.uleb128 0xb
 1616 0094 39       		.uleb128 0x39
 1617 0095 0B       		.uleb128 0xb
 1618 0096 01       		.uleb128 0x1
 1619 0097 13       		.uleb128 0x13
 1620 0098 00       		.byte	0
 1621 0099 00       		.byte	0
 1622 009a 0B       		.uleb128 0xb
 1623 009b 0D       		.uleb128 0xd
 1624 009c 00       		.byte	0
 1625 009d 03       		.uleb128 0x3
 1626 009e 0E       		.uleb128 0xe
 1627 009f 3A       		.uleb128 0x3a
 1628 00a0 0B       		.uleb128 0xb
 1629 00a1 3B       		.uleb128 0x3b
 1630 00a2 0B       		.uleb128 0xb
 1631 00a3 39       		.uleb128 0x39
 1632 00a4 0B       		.uleb128 0xb
 1633 00a5 49       		.uleb128 0x49
 1634 00a6 13       		.uleb128 0x13
 1635 00a7 00       		.byte	0
 1636 00a8 00       		.byte	0
 1637 00a9 0C       		.uleb128 0xc
 1638 00aa 13       		.uleb128 0x13
 1639 00ab 01       		.byte	0x1
 1640 00ac 03       		.uleb128 0x3
 1641 00ad 0E       		.uleb128 0xe
 1642 00ae 0B       		.uleb128 0xb
 1643 00af 0B       		.uleb128 0xb
 1644 00b0 3A       		.uleb128 0x3a
 1645 00b1 0B       		.uleb128 0xb
 1646 00b2 3B       		.uleb128 0x3b
 1647 00b3 05       		.uleb128 0x5
 1648 00b4 39       		.uleb128 0x39
 1649 00b5 0B       		.uleb128 0xb
 1650 00b6 01       		.uleb128 0x1
 1651 00b7 13       		.uleb128 0x13
 1652 00b8 00       		.byte	0
 1653 00b9 00       		.byte	0
ARM GAS  C:\Users\DEVELO~1\AppData\Local\Temp\ccAP8jcX.s 			page 30


 1654 00ba 0D       		.uleb128 0xd
 1655 00bb 0D       		.uleb128 0xd
 1656 00bc 00       		.byte	0
 1657 00bd 03       		.uleb128 0x3
 1658 00be 08       		.uleb128 0x8
 1659 00bf 3A       		.uleb128 0x3a
 1660 00c0 21       		.uleb128 0x21
 1661 00c1 0A       		.sleb128 10
 1662 00c2 3B       		.uleb128 0x3b
 1663 00c3 0B       		.uleb128 0xb
 1664 00c4 39       		.uleb128 0x39
 1665 00c5 21       		.uleb128 0x21
 1666 00c6 07       		.sleb128 7
 1667 00c7 49       		.uleb128 0x49
 1668 00c8 13       		.uleb128 0x13
 1669 00c9 00       		.byte	0
 1670 00ca 00       		.byte	0
 1671 00cb 0E       		.uleb128 0xe
 1672 00cc 0D       		.uleb128 0xd
 1673 00cd 00       		.byte	0
 1674 00ce 03       		.uleb128 0x3
 1675 00cf 0E       		.uleb128 0xe
 1676 00d0 3A       		.uleb128 0x3a
 1677 00d1 21       		.uleb128 0x21
 1678 00d2 0A       		.sleb128 10
 1679 00d3 3B       		.uleb128 0x3b
 1680 00d4 0B       		.uleb128 0xb
 1681 00d5 39       		.uleb128 0x39
 1682 00d6 21       		.uleb128 0x21
 1683 00d7 19       		.sleb128 25
 1684 00d8 49       		.uleb128 0x49
 1685 00d9 13       		.uleb128 0x13
 1686 00da 0D       		.uleb128 0xd
 1687 00db 0B       		.uleb128 0xb
 1688 00dc 6B       		.uleb128 0x6b
 1689 00dd 0B       		.uleb128 0xb
 1690 00de 00       		.byte	0
 1691 00df 00       		.byte	0
 1692 00e0 0F       		.uleb128 0xf
 1693 00e1 35       		.uleb128 0x35
 1694 00e2 00       		.byte	0
 1695 00e3 49       		.uleb128 0x49
 1696 00e4 13       		.uleb128 0x13
 1697 00e5 00       		.byte	0
 1698 00e6 00       		.byte	0
 1699 00e7 10       		.uleb128 0x10
 1700 00e8 26       		.uleb128 0x26
 1701 00e9 00       		.byte	0
 1702 00ea 49       		.uleb128 0x49
 1703 00eb 13       		.uleb128 0x13
 1704 00ec 00       		.byte	0
 1705 00ed 00       		.byte	0
 1706 00ee 11       		.uleb128 0x11
 1707 00ef 17       		.uleb128 0x17
 1708 00f0 01       		.byte	0x1
 1709 00f1 0B       		.uleb128 0xb
 1710 00f2 0B       		.uleb128 0xb
ARM GAS  C:\Users\DEVELO~1\AppData\Local\Temp\ccAP8jcX.s 			page 31


 1711 00f3 3A       		.uleb128 0x3a
 1712 00f4 0B       		.uleb128 0xb
 1713 00f5 3B       		.uleb128 0x3b
 1714 00f6 0B       		.uleb128 0xb
 1715 00f7 39       		.uleb128 0x39
 1716 00f8 21       		.uleb128 0x21
 1717 00f9 03       		.sleb128 3
 1718 00fa 01       		.uleb128 0x1
 1719 00fb 13       		.uleb128 0x13
 1720 00fc 00       		.byte	0
 1721 00fd 00       		.byte	0
 1722 00fe 12       		.uleb128 0x12
 1723 00ff 16       		.uleb128 0x16
 1724 0100 00       		.byte	0
 1725 0101 03       		.uleb128 0x3
 1726 0102 0E       		.uleb128 0xe
 1727 0103 3A       		.uleb128 0x3a
 1728 0104 21       		.uleb128 0x21
 1729 0105 06       		.sleb128 6
 1730 0106 3B       		.uleb128 0x3b
 1731 0107 05       		.uleb128 0x5
 1732 0108 39       		.uleb128 0x39
 1733 0109 21       		.uleb128 0x21
 1734 010a 03       		.sleb128 3
 1735 010b 49       		.uleb128 0x49
 1736 010c 13       		.uleb128 0x13
 1737 010d 00       		.byte	0
 1738 010e 00       		.byte	0
 1739 010f 13       		.uleb128 0x13
 1740 0110 05       		.uleb128 0x5
 1741 0111 00       		.byte	0
 1742 0112 03       		.uleb128 0x3
 1743 0113 0E       		.uleb128 0xe
 1744 0114 3A       		.uleb128 0x3a
 1745 0115 21       		.uleb128 0x21
 1746 0116 01       		.sleb128 1
 1747 0117 3B       		.uleb128 0x3b
 1748 0118 0B       		.uleb128 0xb
 1749 0119 39       		.uleb128 0x39
 1750 011a 0B       		.uleb128 0xb
 1751 011b 49       		.uleb128 0x49
 1752 011c 13       		.uleb128 0x13
 1753 011d 02       		.uleb128 0x2
 1754 011e 17       		.uleb128 0x17
 1755 011f B742     		.uleb128 0x2137
 1756 0121 17       		.uleb128 0x17
 1757 0122 00       		.byte	0
 1758 0123 00       		.byte	0
 1759 0124 14       		.uleb128 0x14
 1760 0125 11       		.uleb128 0x11
 1761 0126 01       		.byte	0x1
 1762 0127 25       		.uleb128 0x25
 1763 0128 0E       		.uleb128 0xe
 1764 0129 13       		.uleb128 0x13
 1765 012a 0B       		.uleb128 0xb
 1766 012b 03       		.uleb128 0x3
 1767 012c 0E       		.uleb128 0xe
ARM GAS  C:\Users\DEVELO~1\AppData\Local\Temp\ccAP8jcX.s 			page 32


 1768 012d 1B       		.uleb128 0x1b
 1769 012e 0E       		.uleb128 0xe
 1770 012f 55       		.uleb128 0x55
 1771 0130 17       		.uleb128 0x17
 1772 0131 11       		.uleb128 0x11
 1773 0132 01       		.uleb128 0x1
 1774 0133 10       		.uleb128 0x10
 1775 0134 17       		.uleb128 0x17
 1776 0135 00       		.byte	0
 1777 0136 00       		.byte	0
 1778 0137 15       		.uleb128 0x15
 1779 0138 24       		.uleb128 0x24
 1780 0139 00       		.byte	0
 1781 013a 0B       		.uleb128 0xb
 1782 013b 0B       		.uleb128 0xb
 1783 013c 3E       		.uleb128 0x3e
 1784 013d 0B       		.uleb128 0xb
 1785 013e 03       		.uleb128 0x3
 1786 013f 08       		.uleb128 0x8
 1787 0140 00       		.byte	0
 1788 0141 00       		.byte	0
 1789 0142 16       		.uleb128 0x16
 1790 0143 13       		.uleb128 0x13
 1791 0144 01       		.byte	0x1
 1792 0145 03       		.uleb128 0x3
 1793 0146 0E       		.uleb128 0xe
 1794 0147 0B       		.uleb128 0xb
 1795 0148 05       		.uleb128 0x5
 1796 0149 3A       		.uleb128 0x3a
 1797 014a 0B       		.uleb128 0xb
 1798 014b 3B       		.uleb128 0x3b
 1799 014c 05       		.uleb128 0x5
 1800 014d 39       		.uleb128 0x39
 1801 014e 0B       		.uleb128 0xb
 1802 014f 01       		.uleb128 0x1
 1803 0150 13       		.uleb128 0x13
 1804 0151 00       		.byte	0
 1805 0152 00       		.byte	0
 1806 0153 17       		.uleb128 0x17
 1807 0154 0F       		.uleb128 0xf
 1808 0155 00       		.byte	0
 1809 0156 0B       		.uleb128 0xb
 1810 0157 0B       		.uleb128 0xb
 1811 0158 00       		.byte	0
 1812 0159 00       		.byte	0
 1813 015a 18       		.uleb128 0x18
 1814 015b 13       		.uleb128 0x13
 1815 015c 01       		.byte	0x1
 1816 015d 0B       		.uleb128 0xb
 1817 015e 05       		.uleb128 0x5
 1818 015f 3A       		.uleb128 0x3a
 1819 0160 0B       		.uleb128 0xb
 1820 0161 3B       		.uleb128 0x3b
 1821 0162 0B       		.uleb128 0xb
 1822 0163 39       		.uleb128 0x39
 1823 0164 0B       		.uleb128 0xb
 1824 0165 01       		.uleb128 0x1
ARM GAS  C:\Users\DEVELO~1\AppData\Local\Temp\ccAP8jcX.s 			page 33


 1825 0166 13       		.uleb128 0x13
 1826 0167 00       		.byte	0
 1827 0168 00       		.byte	0
 1828 0169 19       		.uleb128 0x19
 1829 016a 01       		.uleb128 0x1
 1830 016b 01       		.byte	0x1
 1831 016c 49       		.uleb128 0x49
 1832 016d 13       		.uleb128 0x13
 1833 016e 01       		.uleb128 0x1
 1834 016f 13       		.uleb128 0x13
 1835 0170 00       		.byte	0
 1836 0171 00       		.byte	0
 1837 0172 1A       		.uleb128 0x1a
 1838 0173 21       		.uleb128 0x21
 1839 0174 00       		.byte	0
 1840 0175 49       		.uleb128 0x49
 1841 0176 13       		.uleb128 0x13
 1842 0177 2F       		.uleb128 0x2f
 1843 0178 0B       		.uleb128 0xb
 1844 0179 00       		.byte	0
 1845 017a 00       		.byte	0
 1846 017b 1B       		.uleb128 0x1b
 1847 017c 15       		.uleb128 0x15
 1848 017d 01       		.byte	0x1
 1849 017e 27       		.uleb128 0x27
 1850 017f 19       		.uleb128 0x19
 1851 0180 01       		.uleb128 0x1
 1852 0181 13       		.uleb128 0x13
 1853 0182 00       		.byte	0
 1854 0183 00       		.byte	0
 1855 0184 1C       		.uleb128 0x1c
 1856 0185 05       		.uleb128 0x5
 1857 0186 00       		.byte	0
 1858 0187 49       		.uleb128 0x49
 1859 0188 13       		.uleb128 0x13
 1860 0189 00       		.byte	0
 1861 018a 00       		.byte	0
 1862 018b 1D       		.uleb128 0x1d
 1863 018c 17       		.uleb128 0x17
 1864 018d 01       		.byte	0x1
 1865 018e 0B       		.uleb128 0xb
 1866 018f 0B       		.uleb128 0xb
 1867 0190 3A       		.uleb128 0x3a
 1868 0191 0B       		.uleb128 0xb
 1869 0192 3B       		.uleb128 0x3b
 1870 0193 05       		.uleb128 0x5
 1871 0194 39       		.uleb128 0x39
 1872 0195 0B       		.uleb128 0xb
 1873 0196 01       		.uleb128 0x1
 1874 0197 13       		.uleb128 0x13
 1875 0198 00       		.byte	0
 1876 0199 00       		.byte	0
 1877 019a 1E       		.uleb128 0x1e
 1878 019b 34       		.uleb128 0x34
 1879 019c 00       		.byte	0
 1880 019d 03       		.uleb128 0x3
 1881 019e 08       		.uleb128 0x8
ARM GAS  C:\Users\DEVELO~1\AppData\Local\Temp\ccAP8jcX.s 			page 34


 1882 019f 3A       		.uleb128 0x3a
 1883 01a0 0B       		.uleb128 0xb
 1884 01a1 3B       		.uleb128 0x3b
 1885 01a2 05       		.uleb128 0x5
 1886 01a3 39       		.uleb128 0x39
 1887 01a4 0B       		.uleb128 0xb
 1888 01a5 49       		.uleb128 0x49
 1889 01a6 13       		.uleb128 0x13
 1890 01a7 3F       		.uleb128 0x3f
 1891 01a8 19       		.uleb128 0x19
 1892 01a9 3C       		.uleb128 0x3c
 1893 01aa 19       		.uleb128 0x19
 1894 01ab 00       		.byte	0
 1895 01ac 00       		.byte	0
 1896 01ad 1F       		.uleb128 0x1f
 1897 01ae 2E       		.uleb128 0x2e
 1898 01af 01       		.byte	0x1
 1899 01b0 3F       		.uleb128 0x3f
 1900 01b1 19       		.uleb128 0x19
 1901 01b2 03       		.uleb128 0x3
 1902 01b3 0E       		.uleb128 0xe
 1903 01b4 3A       		.uleb128 0x3a
 1904 01b5 0B       		.uleb128 0xb
 1905 01b6 3B       		.uleb128 0x3b
 1906 01b7 0B       		.uleb128 0xb
 1907 01b8 39       		.uleb128 0x39
 1908 01b9 0B       		.uleb128 0xb
 1909 01ba 27       		.uleb128 0x27
 1910 01bb 19       		.uleb128 0x19
 1911 01bc 49       		.uleb128 0x49
 1912 01bd 13       		.uleb128 0x13
 1913 01be 11       		.uleb128 0x11
 1914 01bf 01       		.uleb128 0x1
 1915 01c0 12       		.uleb128 0x12
 1916 01c1 06       		.uleb128 0x6
 1917 01c2 40       		.uleb128 0x40
 1918 01c3 18       		.uleb128 0x18
 1919 01c4 7A       		.uleb128 0x7a
 1920 01c5 19       		.uleb128 0x19
 1921 01c6 01       		.uleb128 0x1
 1922 01c7 13       		.uleb128 0x13
 1923 01c8 00       		.byte	0
 1924 01c9 00       		.byte	0
 1925 01ca 20       		.uleb128 0x20
 1926 01cb 34       		.uleb128 0x34
 1927 01cc 00       		.byte	0
 1928 01cd 03       		.uleb128 0x3
 1929 01ce 08       		.uleb128 0x8
 1930 01cf 3A       		.uleb128 0x3a
 1931 01d0 0B       		.uleb128 0xb
 1932 01d1 3B       		.uleb128 0x3b
 1933 01d2 0B       		.uleb128 0xb
 1934 01d3 39       		.uleb128 0x39
 1935 01d4 0B       		.uleb128 0xb
 1936 01d5 49       		.uleb128 0x49
 1937 01d6 13       		.uleb128 0x13
 1938 01d7 02       		.uleb128 0x2
ARM GAS  C:\Users\DEVELO~1\AppData\Local\Temp\ccAP8jcX.s 			page 35


 1939 01d8 17       		.uleb128 0x17
 1940 01d9 B742     		.uleb128 0x2137
 1941 01db 17       		.uleb128 0x17
 1942 01dc 00       		.byte	0
 1943 01dd 00       		.byte	0
 1944 01de 21       		.uleb128 0x21
 1945 01df 34       		.uleb128 0x34
 1946 01e0 00       		.byte	0
 1947 01e1 03       		.uleb128 0x3
 1948 01e2 08       		.uleb128 0x8
 1949 01e3 3A       		.uleb128 0x3a
 1950 01e4 0B       		.uleb128 0xb
 1951 01e5 3B       		.uleb128 0x3b
 1952 01e6 0B       		.uleb128 0xb
 1953 01e7 39       		.uleb128 0x39
 1954 01e8 0B       		.uleb128 0xb
 1955 01e9 49       		.uleb128 0x49
 1956 01ea 13       		.uleb128 0x13
 1957 01eb 00       		.byte	0
 1958 01ec 00       		.byte	0
 1959 01ed 22       		.uleb128 0x22
 1960 01ee 2E       		.uleb128 0x2e
 1961 01ef 01       		.byte	0x1
 1962 01f0 3F       		.uleb128 0x3f
 1963 01f1 19       		.uleb128 0x19
 1964 01f2 03       		.uleb128 0x3
 1965 01f3 0E       		.uleb128 0xe
 1966 01f4 3A       		.uleb128 0x3a
 1967 01f5 0B       		.uleb128 0xb
 1968 01f6 3B       		.uleb128 0x3b
 1969 01f7 0B       		.uleb128 0xb
 1970 01f8 39       		.uleb128 0x39
 1971 01f9 0B       		.uleb128 0xb
 1972 01fa 27       		.uleb128 0x27
 1973 01fb 19       		.uleb128 0x19
 1974 01fc 11       		.uleb128 0x11
 1975 01fd 01       		.uleb128 0x1
 1976 01fe 12       		.uleb128 0x12
 1977 01ff 06       		.uleb128 0x6
 1978 0200 40       		.uleb128 0x40
 1979 0201 18       		.uleb128 0x18
 1980 0202 7A       		.uleb128 0x7a
 1981 0203 19       		.uleb128 0x19
 1982 0204 00       		.byte	0
 1983 0205 00       		.byte	0
 1984 0206 00       		.byte	0
 1985              		.section	.debug_loclists,"",%progbits
 1986 0000 4F000000 		.4byte	.Ldebug_loc3-.Ldebug_loc2
 1987              	.Ldebug_loc2:
 1988 0004 0500     		.2byte	0x5
 1989 0006 04       		.byte	0x4
 1990 0007 00       		.byte	0
 1991 0008 00000000 		.4byte	0
 1992              	.Ldebug_loc0:
 1993              	.LVUS1:
 1994 000c 00       		.uleb128 0
 1995 000d 00       		.uleb128 .LVU15
ARM GAS  C:\Users\DEVELO~1\AppData\Local\Temp\ccAP8jcX.s 			page 36


 1996 000e 00       		.uleb128 .LVU15
 1997 000f 00       		.uleb128 0
 1998              	.LLST1:
 1999 0010 06       		.byte	0x6
 2000 0011 00000000 		.4byte	.LVL2
 2001 0015 04       		.byte	0x4
 2002 0016 00       		.uleb128 .LVL2-.LVL2
 2003 0017 0A       		.uleb128 .LVL4-.LVL2
 2004 0018 01       		.uleb128 0x1
 2005 0019 50       		.byte	0x50
 2006 001a 04       		.byte	0x4
 2007 001b 0A       		.uleb128 .LVL4-.LVL2
 2008 001c 14       		.uleb128 .LFE353-.LVL2
 2009 001d 04       		.uleb128 0x4
 2010 001e A3       		.byte	0xa3
 2011 001f 01       		.uleb128 0x1
 2012 0020 50       		.byte	0x50
 2013 0021 9F       		.byte	0x9f
 2014 0022 00       		.byte	0
 2015              	.LVUS2:
 2016 0023 00       		.uleb128 .LVU12
 2017 0024 00       		.uleb128 .LVU15
 2018 0025 00       		.uleb128 .LVU15
 2019 0026 00       		.uleb128 0
 2020              	.LLST2:
 2021 0027 06       		.byte	0x6
 2022 0028 04000000 		.4byte	.LVL3
 2023 002c 04       		.byte	0x4
 2024 002d 00       		.uleb128 .LVL3-.LVL3
 2025 002e 06       		.uleb128 .LVL4-.LVL3
 2026 002f 06       		.uleb128 0x6
 2027 0030 72       		.byte	0x72
 2028 0031 00       		.sleb128 0
 2029 0032 70       		.byte	0x70
 2030 0033 00       		.sleb128 0
 2031 0034 1A       		.byte	0x1a
 2032 0035 9F       		.byte	0x9f
 2033 0036 04       		.byte	0x4
 2034 0037 06       		.uleb128 .LVL4-.LVL3
 2035 0038 10       		.uleb128 .LFE353-.LVL3
 2036 0039 01       		.uleb128 0x1
 2037 003a 50       		.byte	0x50
 2038 003b 00       		.byte	0
 2039              	.LVUS0:
 2040 003c 00       		.uleb128 0
 2041 003d 00       		.uleb128 .LVU3
 2042 003e 00       		.uleb128 .LVU3
 2043 003f 00       		.uleb128 0
 2044              	.LLST0:
 2045 0040 06       		.byte	0x6
 2046 0041 00000000 		.4byte	.LVL0
 2047 0045 04       		.byte	0x4
 2048 0046 00       		.uleb128 .LVL0-.LVL0
 2049 0047 06       		.uleb128 .LVL1-.LVL0
 2050 0048 01       		.uleb128 0x1
 2051 0049 50       		.byte	0x50
 2052 004a 04       		.byte	0x4
ARM GAS  C:\Users\DEVELO~1\AppData\Local\Temp\ccAP8jcX.s 			page 37


 2053 004b 06       		.uleb128 .LVL1-.LVL0
 2054 004c 10       		.uleb128 .LFE352-.LVL0
 2055 004d 04       		.uleb128 0x4
 2056 004e A3       		.byte	0xa3
 2057 004f 01       		.uleb128 0x1
 2058 0050 50       		.byte	0x50
 2059 0051 9F       		.byte	0x9f
 2060 0052 00       		.byte	0
 2061              	.Ldebug_loc3:
 2062              		.section	.debug_aranges,"",%progbits
 2063 0000 24000000 		.4byte	0x24
 2064 0004 0200     		.2byte	0x2
 2065 0006 00000000 		.4byte	.Ldebug_info0
 2066 000a 04       		.byte	0x4
 2067 000b 00       		.byte	0
 2068 000c 0000     		.2byte	0
 2069 000e 0000     		.2byte	0
 2070 0010 00000000 		.4byte	.LFB352
 2071 0014 10000000 		.4byte	.LFE352-.LFB352
 2072 0018 00000000 		.4byte	.LFB353
 2073 001c 14000000 		.4byte	.LFE353-.LFB353
 2074 0020 00000000 		.4byte	0
 2075 0024 00000000 		.4byte	0
 2076              		.section	.debug_rnglists,"",%progbits
 2077              	.Ldebug_ranges0:
 2078 0000 15000000 		.4byte	.Ldebug_ranges3-.Ldebug_ranges2
 2079              	.Ldebug_ranges2:
 2080 0004 0500     		.2byte	0x5
 2081 0006 04       		.byte	0x4
 2082 0007 00       		.byte	0
 2083 0008 00000000 		.4byte	0
 2084              	.LLRL3:
 2085 000c 07       		.byte	0x7
 2086 000d 00000000 		.4byte	.LFB352
 2087 0011 10       		.uleb128 .LFE352-.LFB352
 2088 0012 07       		.byte	0x7
 2089 0013 00000000 		.4byte	.LFB353
 2090 0017 14       		.uleb128 .LFE353-.LFB353
 2091 0018 00       		.byte	0
 2092              	.Ldebug_ranges3:
 2093              		.section	.debug_line,"",%progbits
 2094              	.Ldebug_line0:
 2095 0000 53020000 		.section	.debug_str,"MS",%progbits,1
 2095      0300F601 
 2095      00000201 
 2095      FB0E0D00 
 2095      01010101 
 2096              	.LASF118:
 2097 0000 72656164 		.ascii	"ready_list_t\000"
 2097      795F6C69 
 2097      73745F74 
 2097      00
 2098              	.LASF109:
 2099 000d 77747472 		.ascii	"wttrp\000"
 2099      7000
 2100              	.LASF107:
 2101 0013 7264796D 		.ascii	"rdymsg\000"
ARM GAS  C:\Users\DEVELO~1\AppData\Local\Temp\ccAP8jcX.s 			page 38


 2101      736700
 2102              	.LASF53:
 2103 001a 72666375 		.ascii	"rfcu\000"
 2103      00
 2104              	.LASF6:
 2105 001f 5F5F7569 		.ascii	"__uint8_t\000"
 2105      6E74385F 
 2105      7400
 2106              	.LASF87:
 2107 0029 70726576 		.ascii	"prev\000"
 2107      00
 2108              	.LASF80:
 2109 002e 706F7274 		.ascii	"port_intctx\000"
 2109      5F696E74 
 2109      63747800 
 2110              	.LASF50:
 2111 003a 76746C69 		.ascii	"vtlist\000"
 2111      737400
 2112              	.LASF72:
 2113 0041 74797065 		.ascii	"type\000"
 2113      00
 2114              	.LASF10:
 2115 0046 6C6F6E67 		.ascii	"long int\000"
 2115      20696E74 
 2115      00
 2116              	.LASF75:
 2117 004f 74726163 		.ascii	"trace_event_t\000"
 2117      655F6576 
 2117      656E745F 
 2117      7400
 2118              	.LASF70:
 2119 005d 68616C74 		.ascii	"halt\000"
 2119      00
 2120              	.LASF39:
 2121 0062 64697370 		.ascii	"dispose\000"
 2121      6F736500 
 2122              	.LASF20:
 2123 006a 706F7274 		.ascii	"port_stkline_t\000"
 2123      5F73746B 
 2123      6C696E65 
 2123      5F7400
 2124              	.LASF56:
 2125 0079 6D61696E 		.ascii	"mainthread\000"
 2125      74687265 
 2125      616400
 2126              	.LASF110:
 2127 0084 73656E74 		.ascii	"sentmsg\000"
 2127      6D736700 
 2128              	.LASF93:
 2129 008c 64656C74 		.ascii	"delta\000"
 2129      6100
 2130              	.LASF84:
 2131 0092 6E657874 		.ascii	"next\000"
 2131      00
 2132              	.LASF40:
 2133 0097 6F626A65 		.ascii	"object\000"
 2133      637400
ARM GAS  C:\Users\DEVELO~1\AppData\Local\Temp\ccAP8jcX.s 			page 39


 2134              	.LASF121:
 2135 009e 63737461 		.ascii	"cstack_end\000"
 2135      636B5F65 
 2135      6E6400
 2136              	.LASF1:
 2137 00a9 6C6F6E67 		.ascii	"long long int\000"
 2137      206C6F6E 
 2137      6720696E 
 2137      7400
 2138              	.LASF3:
 2139 00b7 7369676E 		.ascii	"signed char\000"
 2139      65642063 
 2139      68617200 
 2140              	.LASF12:
 2141 00c3 6C6F6E67 		.ascii	"long unsigned int\000"
 2141      20756E73 
 2141      69676E65 
 2141      6420696E 
 2141      7400
 2142              	.LASF92:
 2143 00d5 63685F64 		.ascii	"ch_delta_list\000"
 2143      656C7461 
 2143      5F6C6973 
 2143      7400
 2144              	.LASF14:
 2145 00e3 6C6F6E67 		.ascii	"long long unsigned int\000"
 2145      206C6F6E 
 2145      6720756E 
 2145      7369676E 
 2145      65642069 
 2146              	.LASF34:
 2147 00fa 73746174 		.ascii	"state\000"
 2147      6500
 2148              	.LASF21:
 2149 0100 73746B6C 		.ascii	"stkline_t\000"
 2149      696E655F 
 2149      7400
 2150              	.LASF23:
 2151 010a 74737461 		.ascii	"tstate_t\000"
 2151      74655F74 
 2151      00
 2152              	.LASF59:
 2153 0113 63685F72 		.ascii	"ch_rfcu\000"
 2153      66637500 
 2154              	.LASF16:
 2155 011b 75696E74 		.ascii	"uint16_t\000"
 2155      31365F74 
 2155      00
 2156              	.LASF79:
 2157 0124 74726163 		.ascii	"trace_buffer_t\000"
 2157      655F6275 
 2157      66666572 
 2157      5F7400
 2158              	.LASF100:
 2159 0133 63685F72 		.ascii	"ch_registry\000"
 2159      65676973 
 2159      74727900 
ARM GAS  C:\Users\DEVELO~1\AppData\Local\Temp\ccAP8jcX.s 			page 40


 2160              	.LASF108:
 2161 013f 65786974 		.ascii	"exitcode\000"
 2161      636F6465 
 2161      00
 2162              	.LASF11:
 2163 0148 5F5F7569 		.ascii	"__uint32_t\000"
 2163      6E743332 
 2163      5F7400
 2164              	.LASF60:
 2165 0153 6D61736B 		.ascii	"mask\000"
 2165      00
 2166              	.LASF62:
 2167 0158 63685F73 		.ascii	"ch_system_debug\000"
 2167      79737465 
 2167      6D5F6465 
 2167      62756700 
 2168              	.LASF41:
 2169 0168 77616974 		.ascii	"waiting\000"
 2169      696E6700 
 2170              	.LASF122:
 2171 0170 69646C65 		.ascii	"idlestack_base\000"
 2171      73746163 
 2171      6B5F6261 
 2171      736500
 2172              	.LASF125:
 2173 017f 6D757465 		.ascii	"mutex_t\000"
 2173      785F7400 
 2174              	.LASF67:
 2175 0187 73797369 		.ascii	"sysinterval_t\000"
 2175      6E746572 
 2175      76616C5F 
 2175      7400
 2176              	.LASF28:
 2177 0195 636E745F 		.ascii	"cnt_t\000"
 2177      7400
 2178              	.LASF42:
 2179 019b 6D736771 		.ascii	"msgqueue\000"
 2179      75657565 
 2179      00
 2180              	.LASF0:
 2181 01a4 756E7369 		.ascii	"unsigned int\000"
 2181      676E6564 
 2181      20696E74 
 2181      00
 2182              	.LASF111:
 2183 01b1 77747365 		.ascii	"wtsemp\000"
 2183      6D7000
 2184              	.LASF65:
 2185 01b8 73797374 		.ascii	"system_debug_t\000"
 2185      656D5F64 
 2185      65627567 
 2185      5F7400
 2186              	.LASF129:
 2187 01c7 433A5C43 		.ascii	"C:\\ChibiStudio\\ChibiOS-master\\demos\\STM32\\CUST"
 2187      68696269 
 2187      53747564 
 2187      696F5C43 
ARM GAS  C:\Users\DEVELO~1\AppData\Local\Temp\ccAP8jcX.s 			page 41


 2187      68696269 
 2188 01f5 4F4D5F48 		.ascii	"OM_H743IIT6_maj\000"
 2188      37343349 
 2188      4954365F 
 2188      6D616A00 
 2189              	.LASF85:
 2190 0205 63685F71 		.ascii	"ch_queue_t\000"
 2190      75657565 
 2190      5F7400
 2191              	.LASF37:
 2192 0210 6E616D65 		.ascii	"name\000"
 2192      00
 2193              	.LASF104:
 2194 0215 74687265 		.ascii	"thread_dispose_t\000"
 2194      61645F64 
 2194      6973706F 
 2194      73655F74 
 2194      00
 2195              	.LASF101:
 2196 0226 71756575 		.ascii	"queue\000"
 2196      6500
 2197              	.LASF52:
 2198 022c 636F7265 		.ascii	"core_id\000"
 2198      5F696400 
 2199              	.LASF77:
 2200 0234 73697A65 		.ascii	"size\000"
 2200      00
 2201              	.LASF8:
 2202 0239 73686F72 		.ascii	"short unsigned int\000"
 2202      7420756E 
 2202      7369676E 
 2202      65642069 
 2202      6E7400
 2203              	.LASF47:
 2204 024c 63685F74 		.ascii	"ch_thread\000"
 2204      68726561 
 2204      6400
 2205              	.LASF26:
 2206 0256 6D73675F 		.ascii	"msg_t\000"
 2206      7400
 2207              	.LASF43:
 2208 025c 6570656E 		.ascii	"epending\000"
 2208      64696E67 
 2208      00
 2209              	.LASF127:
 2210 0265 474E5520 		.ascii	"GNU C17 11.3.1 20220712 -mcpu=cortex-m7 -mthumb -mf"
 2210      43313720 
 2210      31312E33 
 2210      2E312032 
 2210      30323230 
 2211 0298 6C6F6174 		.ascii	"loat-abi=hard -mfpu=fpv5-d16 -march=armv7e-m+fp.dp "
 2211      2D616269 
 2211      3D686172 
 2211      64202D6D 
 2211      6670753D 
 2212 02cb 2D676764 		.ascii	"-ggdb -O2 -ffunction-sections -fdata-sections -fno-"
 2212      62202D4F 
ARM GAS  C:\Users\DEVELO~1\AppData\Local\Temp\ccAP8jcX.s 			page 42


 2212      32202D66 
 2212      66756E63 
 2212      74696F6E 
 2213 02fe 636F6D6D 		.ascii	"common\000"
 2213      6F6E00
 2214              	.LASF22:
 2215 0305 746D6F64 		.ascii	"tmode_t\000"
 2215      655F7400 
 2216              	.LASF83:
 2217 030d 63685F6C 		.ascii	"ch_list\000"
 2217      69737400 
 2218              	.LASF116:
 2219 0315 63685F72 		.ascii	"ch_ready_list\000"
 2219      65616479 
 2219      5F6C6973 
 2219      7400
 2220              	.LASF27:
 2221 0323 6576656E 		.ascii	"eventmask_t\000"
 2221      746D6173 
 2221      6B5F7400 
 2222              	.LASF131:
 2223 032f 63685246 		.ascii	"chRFCUCollectFaultsI\000"
 2223      4355436F 
 2223      6C6C6563 
 2223      74466175 
 2223      6C747349 
 2224              	.LASF9:
 2225 0344 5F5F696E 		.ascii	"__int32_t\000"
 2225      7433325F 
 2225      7400
 2226              	.LASF99:
 2227 034e 76697274 		.ascii	"virtual_timers_list_t\000"
 2227      75616C5F 
 2227      74696D65 
 2227      72735F6C 
 2227      6973745F 
 2228              	.LASF73:
 2229 0364 72747374 		.ascii	"rtstamp\000"
 2229      616D7000 
 2230              	.LASF98:
 2231 036c 6C617374 		.ascii	"laststamp\000"
 2231      7374616D 
 2231      7000
 2232              	.LASF45:
 2233 0376 7265616C 		.ascii	"realprio\000"
 2233      7072696F 
 2233      00
 2234              	.LASF58:
 2235 037f 72666375 		.ascii	"rfcu_mask_t\000"
 2235      5F6D6173 
 2235      6B5F7400 
 2236              	.LASF103:
 2237 038b 74687265 		.ascii	"thread_reference_t\000"
 2237      61645F72 
 2237      65666572 
 2237      656E6365 
 2237      5F7400
ARM GAS  C:\Users\DEVELO~1\AppData\Local\Temp\ccAP8jcX.s 			page 43


 2238              	.LASF94:
 2239 039e 63685F76 		.ascii	"ch_virtual_timers_list\000"
 2239      69727475 
 2239      616C5F74 
 2239      696D6572 
 2239      735F6C69 
 2240              	.LASF82:
 2241 03b5 63685F6C 		.ascii	"ch_list_t\000"
 2241      6973745F 
 2241      7400
 2242              	.LASF76:
 2243 03bf 73757370 		.ascii	"suspended\000"
 2243      656E6465 
 2243      6400
 2244              	.LASF120:
 2245 03c9 63737461 		.ascii	"cstack_base\000"
 2245      636B5F62 
 2245      61736500 
 2246              	.LASF19:
 2247 03d5 75696E74 		.ascii	"uint64_t\000"
 2247      36345F74 
 2247      00
 2248              	.LASF119:
 2249 03de 63685F6F 		.ascii	"ch_os_instance_config\000"
 2249      735F696E 
 2249      7374616E 
 2249      63655F63 
 2249      6F6E6669 
 2250              	.LASF81:
 2251 03f4 706F7274 		.ascii	"port_context\000"
 2251      5F636F6E 
 2251      74657874 
 2251      00
 2252              	.LASF74:
 2253 0401 74696D65 		.ascii	"time\000"
 2253      00
 2254              	.LASF90:
 2255 0406 7072696F 		.ascii	"prio\000"
 2255      00
 2256              	.LASF123:
 2257 040b 69646C65 		.ascii	"idlestack_end\000"
 2257      73746163 
 2257      6B5F656E 
 2257      6400
 2258              	.LASF117:
 2259 0419 63757272 		.ascii	"current\000"
 2259      656E7400 
 2260              	.LASF13:
 2261 0421 5F5F7569 		.ascii	"__uint64_t\000"
 2261      6E743634 
 2261      5F7400
 2262              	.LASF97:
 2263 042c 6C617374 		.ascii	"lastdelta\000"
 2263      64656C74 
 2263      6100
 2264              	.LASF29:
 2265 0436 636F7265 		.ascii	"core_id_t\000"
ARM GAS  C:\Users\DEVELO~1\AppData\Local\Temp\ccAP8jcX.s 			page 44


 2265      5F69645F 
 2265      7400
 2266              	.LASF24:
 2267 0440 74726566 		.ascii	"trefs_t\000"
 2267      735F7400 
 2268              	.LASF36:
 2269 0448 72656673 		.ascii	"refs\000"
 2269      00
 2270              	.LASF71:
 2271 044d 75736572 		.ascii	"user\000"
 2271      00
 2272              	.LASF25:
 2273 0452 74707269 		.ascii	"tprio_t\000"
 2273      6F5F7400 
 2274              	.LASF86:
 2275 045a 63685F71 		.ascii	"ch_queue\000"
 2275      75657565 
 2275      00
 2276              	.LASF126:
 2277 0463 5F426F6F 		.ascii	"_Bool\000"
 2277      6C00
 2278              	.LASF17:
 2279 0469 696E7433 		.ascii	"int32_t\000"
 2279      325F7400 
 2280              	.LASF4:
 2281 0471 756E7369 		.ascii	"unsigned char\000"
 2281      676E6564 
 2281      20636861 
 2281      7200
 2282              	.LASF61:
 2283 047f 72666375 		.ascii	"rfcu_t\000"
 2283      5F7400
 2284              	.LASF5:
 2285 0486 73686F72 		.ascii	"short int\000"
 2285      7420696E 
 2285      7400
 2286              	.LASF96:
 2287 0490 6C617374 		.ascii	"lasttime\000"
 2287      74696D65 
 2287      00
 2288              	.LASF68:
 2289 0499 77746F62 		.ascii	"wtobjp\000"
 2289      6A7000
 2290              	.LASF113:
 2291 04a0 65776D61 		.ascii	"ewmask\000"
 2291      736B00
 2292              	.LASF69:
 2293 04a7 72656173 		.ascii	"reason\000"
 2293      6F6E00
 2294              	.LASF114:
 2295 04ae 63685F73 		.ascii	"ch_semaphore\000"
 2295      656D6170 
 2295      686F7265 
 2295      00
 2296              	.LASF102:
 2297 04bb 72656769 		.ascii	"registry_t\000"
 2297      73747279 
ARM GAS  C:\Users\DEVELO~1\AppData\Local\Temp\ccAP8jcX.s 			page 45


 2297      5F7400
 2298              	.LASF18:
 2299 04c6 75696E74 		.ascii	"uint32_t\000"
 2299      33325F74 
 2299      00
 2300              	.LASF112:
 2301 04cf 77746D74 		.ascii	"wtmtxp\000"
 2301      787000
 2302              	.LASF31:
 2303 04d6 6F776E65 		.ascii	"owner\000"
 2303      7200
 2304              	.LASF128:
 2305 04dc 2E2E2F2E 		.ascii	"../../../os/rt/src/chrfcu.c\000"
 2305      2E2F2E2E 
 2305      2F6F732F 
 2305      72742F73 
 2305      72632F63 
 2306              	.LASF2:
 2307 04f8 6C6F6E67 		.ascii	"long double\000"
 2307      20646F75 
 2307      626C6500 
 2308              	.LASF32:
 2309 0504 77616261 		.ascii	"wabase\000"
 2309      736500
 2310              	.LASF64:
 2311 050b 63686172 		.ascii	"char\000"
 2311      00
 2312              	.LASF54:
 2313 0510 636F6E66 		.ascii	"config\000"
 2313      696700
 2314              	.LASF7:
 2315 0517 5F5F7569 		.ascii	"__uint16_t\000"
 2315      6E743136 
 2315      5F7400
 2316              	.LASF30:
 2317 0522 74687265 		.ascii	"thread_t\000"
 2317      61645F74 
 2317      00
 2318              	.LASF95:
 2319 052b 646C6973 		.ascii	"dlist\000"
 2319      7400
 2320              	.LASF66:
 2321 0531 73797374 		.ascii	"systime_t\000"
 2321      696D655F 
 2321      7400
 2322              	.LASF78:
 2323 053b 62756666 		.ascii	"buffer\000"
 2323      657200
 2324              	.LASF88:
 2325 0542 63685F70 		.ascii	"ch_priority_queue_t\000"
 2325      72696F72 
 2325      6974795F 
 2325      71756575 
 2325      655F7400 
 2326              	.LASF63:
 2327 0556 70616E69 		.ascii	"panic_msg\000"
 2327      635F6D73 
ARM GAS  C:\Users\DEVELO~1\AppData\Local\Temp\ccAP8jcX.s 			page 46


 2327      6700
 2328              	.LASF106:
 2329 0560 70717565 		.ascii	"pqueue\000"
 2329      756500
 2330              	.LASF48:
 2331 0567 63685F6F 		.ascii	"ch_os_instance\000"
 2331      735F696E 
 2331      7374616E 
 2331      636500
 2332              	.LASF46:
 2333 0576 6F735F69 		.ascii	"os_instance_t\000"
 2333      6E737461 
 2333      6E63655F 
 2333      7400
 2334              	.LASF51:
 2335 0584 7265676C 		.ascii	"reglist\000"
 2335      69737400 
 2336              	.LASF89:
 2337 058c 63685F70 		.ascii	"ch_priority_queue\000"
 2337      72696F72 
 2337      6974795F 
 2337      71756575 
 2337      6500
 2338              	.LASF91:
 2339 059e 63685F64 		.ascii	"ch_delta_list_t\000"
 2339      656C7461 
 2339      5F6C6973 
 2339      745F7400 
 2340              	.LASF124:
 2341 05ae 6F735F69 		.ascii	"os_instance_config_t\000"
 2341      6E737461 
 2341      6E63655F 
 2341      636F6E66 
 2341      69675F74 
 2342              	.LASF33:
 2343 05c3 7761656E 		.ascii	"waend\000"
 2343      6400
 2344              	.LASF49:
 2345 05c9 726C6973 		.ascii	"rlist\000"
 2345      7400
 2346              	.LASF15:
 2347 05cf 75696E74 		.ascii	"uint8_t\000"
 2347      385F7400 
 2348              	.LASF35:
 2349 05d7 666C6167 		.ascii	"flags\000"
 2349      7300
 2350              	.LASF115:
 2351 05dd 63685F6D 		.ascii	"ch_mutex\000"
 2351      75746578 
 2351      00
 2352              	.LASF38:
 2353 05e6 72717565 		.ascii	"rqueue\000"
 2353      756500
 2354              	.LASF57:
 2355 05ed 74726163 		.ascii	"trace_buffer\000"
 2355      655F6275 
 2355      66666572 
ARM GAS  C:\Users\DEVELO~1\AppData\Local\Temp\ccAP8jcX.s 			page 47


 2355      00
 2356              	.LASF105:
 2357 05fa 6C697374 		.ascii	"list\000"
 2357      00
 2358              	.LASF44:
 2359 05ff 6D74786C 		.ascii	"mtxlist\000"
 2359      69737400 
 2360              	.LASF130:
 2361 0607 63685246 		.ascii	"chRFCUGetAndClearFaultsI\000"
 2361      43554765 
 2361      74416E64 
 2361      436C6561 
 2361      72466175 
 2362              	.LASF55:
 2363 0620 69646C65 		.ascii	"idlethread\000"
 2363      74687265 
 2363      616400
 2364              		.ident	"GCC: (Arm GNU Toolchain 11.3.Rel1) 11.3.1 20220712"
ARM GAS  C:\Users\DEVELO~1\AppData\Local\Temp\ccAP8jcX.s 			page 48


DEFINED SYMBOLS
                            *ABS*:00000000 chrfcu.c
C:\Users\DEVELO~1\AppData\Local\Temp\ccAP8jcX.s:19     .text.chRFCUCollectFaultsI:00000000 $t
C:\Users\DEVELO~1\AppData\Local\Temp\ccAP8jcX.s:26     .text.chRFCUCollectFaultsI:00000000 chRFCUCollectFaultsI
C:\Users\DEVELO~1\AppData\Local\Temp\ccAP8jcX.s:50     .text.chRFCUCollectFaultsI:0000000c $d
C:\Users\DEVELO~1\AppData\Local\Temp\ccAP8jcX.s:55     .text.chRFCUGetAndClearFaultsI:00000000 $t
C:\Users\DEVELO~1\AppData\Local\Temp\ccAP8jcX.s:62     .text.chRFCUGetAndClearFaultsI:00000000 chRFCUGetAndClearFaultsI
C:\Users\DEVELO~1\AppData\Local\Temp\ccAP8jcX.s:91     .text.chRFCUGetAndClearFaultsI:00000010 $d

UNDEFINED SYMBOLS
ch0
