ARM GAS  C:\Users\DEVELO~1\AppData\Local\Temp\ccXOSPp0.s 			page 1


   1              		.cpu cortex-m7
   2              		.arch armv7e-m
   3              		.fpu fpv5-d16
   4              		.eabi_attribute 28, 1
   5              		.eabi_attribute 20, 1
   6              		.eabi_attribute 21, 1
   7              		.eabi_attribute 23, 3
   8              		.eabi_attribute 24, 1
   9              		.eabi_attribute 25, 1
  10              		.eabi_attribute 26, 1
  11              		.eabi_attribute 30, 2
  12              		.eabi_attribute 34, 1
  13              		.eabi_attribute 18, 4
  14              		.file	"chsafety.c"
  15              		.text
  16              	.Ltext0:
  17              		.cfi_sections	.debug_frame
  18              		.section	.text.chSftIntegrityCheckI,"ax",%progbits
  19              		.align	1
  20              		.p2align 2,,3
  21              		.global	chSftIntegrityCheckI
  22              		.syntax unified
  23              		.thumb
  24              		.thumb_func
  25              		.type	chSftIntegrityCheckI, %function
  26              	chSftIntegrityCheckI:
  27              	.LVL0:
  28              	.LFB352:
  29              		.file 1 "../../../os/rt/src/chsafety.c"
  30              		.loc 1 152 46 view -0
  31              		.cfi_startproc
  32              		@ args = 0, pretend = 0, frame = 0
  33              		@ frame_needed = 0, uses_anonymous_args = 0
  34              		.loc 1 153 3 view .LVU1
  35              		.loc 1 155 21 view .LVU2
  36              		.loc 1 158 3 view .LVU3
  37              		.loc 1 158 6 is_stmt 0 view .LVU4
  38 0000 C107     		lsls	r1, r0, #31
  39              		.loc 1 152 46 view .LVU5
  40 0002 F8B5     		push	{r3, r4, r5, r6, r7, lr}
  41              		.cfi_def_cfa_offset 24
  42              		.cfi_offset 3, -24
  43              		.cfi_offset 4, -20
  44              		.cfi_offset 5, -16
  45              		.cfi_offset 6, -12
  46              		.cfi_offset 7, -8
  47              		.cfi_offset 14, -4
  48              		.loc 1 152 46 view .LVU6
  49 0004 0546     		mov	r5, r0
  50              		.loc 1 158 6 view .LVU7
  51 0006 09D5     		bpl	.L2
  52              	.LBB14:
  53              		.loc 1 161 26 view .LVU8
  54 0008 174E     		ldr	r6, .L28
  55              	.LBB15:
  56              		.loc 1 168 7 view .LVU9
  57 000a 184F     		ldr	r7, .L28+4
ARM GAS  C:\Users\DEVELO~1\AppData\Local\Temp\ccXOSPp0.s 			page 2


  58              	.LBE15:
  59              		.loc 1 161 26 view .LVU10
  60 000c 3446     		mov	r4, r6
  61              	.LVL1:
  62              	.L4:
  63              		.loc 1 162 5 is_stmt 1 view .LVU11
  64              	.LBB16:
  65              		.loc 1 163 7 view .LVU12
  66              		.loc 1 166 7 view .LVU13
  67 000e 2346     		mov	r3, r4
  68              		.loc 1 166 12 is_stmt 0 view .LVU14
  69 0010 2468     		ldr	r4, [r4]
  70              	.LVL2:
  71              		.loc 1 167 7 is_stmt 1 view .LVU15
  72              		.loc 1 168 7 view .LVU16
  73              		.loc 1 168 7 view .LVU17
  74              		.loc 1 168 7 view .LVU18
  75 0012 6268     		ldr	r2, [r4, #4]
  76 0014 9A42     		cmp	r2, r3
  77 0016 1AD1     		bne	.L25
  78              	.LVL3:
  79              	.L3:
  80              		.loc 1 168 7 discriminator 5 view .LVU19
  81              		.loc 1 168 7 discriminator 5 view .LVU20
  82              		.loc 1 169 7 discriminator 5 view .LVU21
  83              		.loc 1 169 7 is_stmt 0 discriminator 5 view .LVU22
  84              	.LBE16:
  85              		.loc 1 170 22 is_stmt 1 discriminator 5 view .LVU23
  86 0018 B442     		cmp	r4, r6
  87 001a F8D1     		bne	.L4
  88              	.LVL4:
  89              	.L2:
  90              		.loc 1 170 22 is_stmt 0 discriminator 5 view .LVU24
  91              	.LBE14:
  92              		.loc 1 174 3 is_stmt 1 view .LVU25
  93              		.loc 1 174 6 is_stmt 0 view .LVU26
  94 001c AA07     		lsls	r2, r5, #30
  95 001e 09D5     		bpl	.L5
  96              	.LBB18:
  97              		.loc 1 177 22 view .LVU27
  98 0020 134E     		ldr	r6, .L28+8
  99              	.LBB19:
 100              		.loc 1 184 7 view .LVU28
 101 0022 124F     		ldr	r7, .L28+4
 102              	.LBE19:
 103              		.loc 1 177 22 view .LVU29
 104 0024 3446     		mov	r4, r6
 105              	.L7:
 106              	.LVL5:
 107              		.loc 1 178 5 is_stmt 1 view .LVU30
 108              	.LBB20:
 109              		.loc 1 179 7 view .LVU31
 110              		.loc 1 182 7 view .LVU32
 111 0026 2346     		mov	r3, r4
 112              		.loc 1 182 12 is_stmt 0 view .LVU33
 113 0028 2468     		ldr	r4, [r4]
 114              	.LVL6:
ARM GAS  C:\Users\DEVELO~1\AppData\Local\Temp\ccXOSPp0.s 			page 3


 115              		.loc 1 183 7 is_stmt 1 view .LVU34
 116              		.loc 1 184 7 view .LVU35
 117              		.loc 1 184 7 view .LVU36
 118              		.loc 1 184 7 view .LVU37
 119 002a 6268     		ldr	r2, [r4, #4]
 120 002c 9A42     		cmp	r2, r3
 121 002e 16D1     		bne	.L26
 122              	.LVL7:
 123              	.L6:
 124              		.loc 1 184 7 discriminator 5 view .LVU38
 125              		.loc 1 184 7 discriminator 5 view .LVU39
 126              		.loc 1 185 7 discriminator 5 view .LVU40
 127              		.loc 1 185 7 is_stmt 0 discriminator 5 view .LVU41
 128              	.LBE20:
 129              		.loc 1 186 22 is_stmt 1 discriminator 5 view .LVU42
 130 0030 B442     		cmp	r4, r6
 131 0032 F8D1     		bne	.L7
 132              	.LVL8:
 133              	.L5:
 134              		.loc 1 186 22 is_stmt 0 discriminator 5 view .LVU43
 135              	.LBE18:
 136              		.loc 1 190 3 is_stmt 1 view .LVU44
 137              		.loc 1 190 6 is_stmt 0 view .LVU45
 138 0034 6B07     		lsls	r3, r5, #29
 139 0036 09D5     		bpl	.L1
 140              	.LBB22:
 141              		.loc 1 193 17 view .LVU46
 142 0038 0E4D     		ldr	r5, .L28+12
 143              	.LVL9:
 144              	.LBB23:
 145              		.loc 1 200 7 view .LVU47
 146 003a 0C4E     		ldr	r6, .L28+4
 147              	.LBE23:
 148              		.loc 1 193 17 view .LVU48
 149 003c 2C46     		mov	r4, r5
 150              	.L10:
 151              	.LVL10:
 152              		.loc 1 194 5 is_stmt 1 view .LVU49
 153              	.LBB24:
 154              		.loc 1 195 7 view .LVU50
 155              		.loc 1 198 7 view .LVU51
 156 003e 2346     		mov	r3, r4
 157              		.loc 1 198 12 is_stmt 0 view .LVU52
 158 0040 2468     		ldr	r4, [r4]
 159              	.LVL11:
 160              		.loc 1 199 7 is_stmt 1 view .LVU53
 161              		.loc 1 200 7 view .LVU54
 162              		.loc 1 200 7 view .LVU55
 163              		.loc 1 200 7 view .LVU56
 164 0042 6268     		ldr	r2, [r4, #4]
 165 0044 9A42     		cmp	r2, r3
 166 0046 06D1     		bne	.L27
 167              	.LVL12:
 168              	.L9:
 169              		.loc 1 200 7 discriminator 5 view .LVU57
 170              		.loc 1 200 7 discriminator 5 view .LVU58
 171              		.loc 1 201 7 discriminator 5 view .LVU59
ARM GAS  C:\Users\DEVELO~1\AppData\Local\Temp\ccXOSPp0.s 			page 4


 172              		.loc 1 201 7 is_stmt 0 discriminator 5 view .LVU60
 173              	.LBE24:
 174              		.loc 1 202 22 is_stmt 1 discriminator 5 view .LVU61
 175 0048 AC42     		cmp	r4, r5
 176 004a F8D1     		bne	.L10
 177              	.LVL13:
 178              	.L1:
 179              		.loc 1 202 22 is_stmt 0 discriminator 5 view .LVU62
 180              	.LBE22:
 181              		.loc 1 211 1 view .LVU63
 182 004c F8BD     		pop	{r3, r4, r5, r6, r7, pc}
 183              	.LVL14:
 184              	.L25:
 185              	.LBB26:
 186              	.LBB17:
 187              		.loc 1 168 7 is_stmt 1 discriminator 3 view .LVU64
 188 004e 3846     		mov	r0, r7
 189 0050 FFF7FEFF 		bl	chSysHalt
 190              	.LVL15:
 191              		.loc 1 168 7 is_stmt 0 discriminator 3 view .LVU65
 192 0054 E0E7     		b	.L3
 193              	.LVL16:
 194              	.L27:
 195              		.loc 1 168 7 discriminator 3 view .LVU66
 196              	.LBE17:
 197              	.LBE26:
 198              	.LBB27:
 199              	.LBB25:
 200              		.loc 1 200 7 is_stmt 1 discriminator 3 view .LVU67
 201 0056 3046     		mov	r0, r6
 202 0058 FFF7FEFF 		bl	chSysHalt
 203              	.LVL17:
 204              		.loc 1 200 7 is_stmt 0 discriminator 3 view .LVU68
 205 005c F4E7     		b	.L9
 206              	.LVL18:
 207              	.L26:
 208              		.loc 1 200 7 discriminator 3 view .LVU69
 209              	.LBE25:
 210              	.LBE27:
 211              	.LBB28:
 212              	.LBB21:
 213              		.loc 1 184 7 is_stmt 1 discriminator 3 view .LVU70
 214 005e 3846     		mov	r0, r7
 215 0060 FFF7FEFF 		bl	chSysHalt
 216              	.LVL19:
 217              		.loc 1 184 7 is_stmt 0 discriminator 3 view .LVU71
 218 0064 E4E7     		b	.L6
 219              	.L29:
 220 0066 00BF     		.align	2
 221              	.L28:
 222 0068 00000000 		.word	ch0
 223 006c 00000000 		.word	.LANCHOR0
 224 0070 10000000 		.word	ch0+16
 225 0074 30000000 		.word	ch0+48
 226              	.LBE21:
 227              	.LBE28:
 228              		.cfi_endproc
ARM GAS  C:\Users\DEVELO~1\AppData\Local\Temp\ccXOSPp0.s 			page 5


 229              	.LFE352:
 230              		.size	chSftIntegrityCheckI, .-chSftIntegrityCheckI
 231              		.section	.rodata.__func__.1,"a"
 232              		.align	2
 233              		.set	.LANCHOR0,. + 0
 234              		.type	__func__.1, %object
 235              		.size	__func__.1, 21
 236              	__func__.1:
 237 0000 63685366 		.ascii	"chSftIntegrityCheckI\000"
 237      74496E74 
 237      65677269 
 237      74794368 
 237      65636B49 
 238              		.text
 239              	.Letext0:
 240              		.file 2 "c:\\chibistudio\\tools\\gnu tools arm embedded\\11.3 2022.08\\arm-none-eabi\\include\\mac
 241              		.file 3 "c:\\chibistudio\\tools\\gnu tools arm embedded\\11.3 2022.08\\arm-none-eabi\\include\\sys
 242              		.file 4 "../../../os/common/ports/ARM-common/include/chtypes.h"
 243              		.file 5 "../../../os/rt/include/chearly.h"
 244              		.file 6 "../../../os/rt/include/chobjects.h"
 245              		.file 7 "../../../os/rt/include/chrfcu.h"
 246              		.file 8 "../../../os/rt/include/chdebug.h"
 247              		.file 9 "../../../os/rt/include/chtime.h"
 248              		.file 10 "../../../os/rt/include/chtrace.h"
 249              		.file 11 "../../../os/common/ports/ARMv7-M/chcore.h"
 250              		.file 12 "../../../os/rt/include/chlists.h"
 251              		.file 13 "../../../os/rt/include/chsem.h"
 252              		.file 14 "../../../os/rt/include/chmtx.h"
 253              		.file 15 "../../../os/rt/include/chsafety.h"
 254              		.file 16 "../../../os/rt/include/chsys.h"