ARM GAS  C:\Users\DEVELO~1\AppData\Local\Temp\ccBPxlbB.s 			page 1


   1              		.cpu cortex-m7
   2              		.arch armv7e-m
   3              		.fpu fpv5-d16
   4              		.eabi_attribute 28, 1
   5              		.eabi_attribute 20, 1
   6              		.eabi_attribute 21, 1
   7              		.eabi_attribute 23, 3
   8              		.eabi_attribute 24, 1
   9              		.eabi_attribute 25, 1
  10              		.eabi_attribute 26, 1
  11              		.eabi_attribute 30, 2
  12              		.eabi_attribute 34, 1
  13              		.eabi_attribute 18, 4
  14              		.file	"chtm.c"
  15              		.text
  16              	.Ltext0:
  17              		.cfi_sections	.debug_frame
  18              		.section	.text.chTMObjectInit,"ax",%progbits
  19              		.align	1
  20              		.p2align 2,,3
  21              		.global	chTMObjectInit
  22              		.syntax unified
  23              		.thumb
  24              		.thumb_func
  25              		.type	chTMObjectInit, %function
  26              	chTMObjectInit:
  27              	.LVL0:
  28              	.LFB353:
  29              		.file 1 "../../../os/rt/src/chtm.c"
  30              		.loc 1 81 46 view -0
  31              		.cfi_startproc
  32              		@ args = 0, pretend = 0, frame = 0
  33              		@ frame_needed = 0, uses_anonymous_args = 0
  34              		@ link register save eliminated.
  35              		.loc 1 83 3 view .LVU1
  36              		.loc 1 87 19 is_stmt 0 view .LVU2
  37 0000 9FED057B 		vldr.64	d7, .L3	@ int
  38              		.loc 1 84 19 view .LVU3
  39 0004 0023     		movs	r3, #0
  40              		.loc 1 83 19 view .LVU4
  41 0006 4FF0FF32 		mov	r2, #-1
  42              		.loc 1 86 19 view .LVU5
  43 000a C0E90233 		strd	r3, r3, [r0, #8]
  44              		.loc 1 84 19 view .LVU6
  45 000e C0E90023 		strd	r2, r3, [r0]
  46              		.loc 1 85 3 is_stmt 1 view .LVU7
  47              		.loc 1 87 3 view .LVU8
  48              		.loc 1 87 19 is_stmt 0 view .LVU9
  49 0012 80ED047B 		vstr.64	d7, [r0, #16]	@ int
  50              		.loc 1 88 1 view .LVU10
  51 0016 7047     		bx	lr
  52              	.L4:
  53              		.align	3
  54              	.L3:
  55 0018 00000000 		.word	0
  56 001c 00000000 		.word	0
  57              		.cfi_endproc
ARM GAS  C:\Users\DEVELO~1\AppData\Local\Temp\ccBPxlbB.s 			page 2


  58              	.LFE353:
  59              		.size	chTMObjectInit, .-chTMObjectInit
  60              		.section	.text.chTMObjectDispose,"ax",%progbits
  61              		.align	1
  62              		.p2align 2,,3
  63              		.global	chTMObjectDispose
  64              		.syntax unified
  65              		.thumb
  66              		.thumb_func
  67              		.type	chTMObjectDispose, %function
  68              	chTMObjectDispose:
  69              	.LVL1:
  70              	.LFB354:
  71              		.loc 1 105 49 is_stmt 1 view -0
  72              		.cfi_startproc
  73              		@ args = 0, pretend = 0, frame = 0
  74              		@ frame_needed = 0, uses_anonymous_args = 0
  75              		@ link register save eliminated.
  76              		.loc 1 107 3 view .LVU12
  77              		.loc 1 107 3 view .LVU13
  78              		.loc 1 107 3 view .LVU14
  79              		.loc 1 112 1 is_stmt 0 view .LVU15
  80 0000 7047     		bx	lr
  81              		.cfi_endproc
  82              	.LFE354:
  83              		.size	chTMObjectDispose, .-chTMObjectDispose
  84 0002 00BF     		.section	.text.chTMStartMeasurementX,"ax",%progbits
  85              		.align	1
  86              		.p2align 2,,3
  87              		.global	chTMStartMeasurementX
  88              		.syntax unified
  89              		.thumb
  90              		.thumb_func
  91              		.type	chTMStartMeasurementX, %function
  92              	chTMStartMeasurementX:
  93              	.LVL2:
  94              	.LFB355:
  95              		.loc 1 122 62 is_stmt 1 view -0
  96              		.cfi_startproc
  97              		@ args = 0, pretend = 0, frame = 0
  98              		@ frame_needed = 0, uses_anonymous_args = 0
  99              		@ link register save eliminated.
 100              		.loc 1 124 3 view .LVU17
 101              	.LBB8:
 102              	.LBI8:
 103              		.file 2 "../../../os/common/ports/ARMv7-M/chcore.h"
 104              		.loc 2 952 30 view .LVU18
 105              	.LBB9:
 106              		.loc 2 954 3 view .LVU19
 107              		.loc 2 954 13 is_stmt 0 view .LVU20
 108 0000 014B     		ldr	r3, .L7
 109 0002 5B68     		ldr	r3, [r3, #4]
 110              	.LBE9:
 111              	.LBE8:
 112              		.loc 1 124 13 view .LVU21
 113 0004 8360     		str	r3, [r0, #8]
 114              		.loc 1 125 1 view .LVU22
ARM GAS  C:\Users\DEVELO~1\AppData\Local\Temp\ccBPxlbB.s 			page 3


 115 0006 7047     		bx	lr
 116              	.L8:
 117              		.align	2
 118              	.L7:
 119 0008 001000E0 		.word	-536866816
 120              		.cfi_endproc
 121              	.LFE355:
 122              		.size	chTMStartMeasurementX, .-chTMStartMeasurementX
 123              		.section	.text.chTMStopMeasurementX,"ax",%progbits
 124              		.align	1
 125              		.p2align 2,,3
 126              		.global	chTMStopMeasurementX
 127              		.syntax unified
 128              		.thumb
 129              		.thumb_func
 130              		.type	chTMStopMeasurementX, %function
 131              	chTMStopMeasurementX:
 132              	.LVL3:
 133              	.LFB356:
 134              		.loc 1 135 61 is_stmt 1 view -0
 135              		.cfi_startproc
 136              		@ args = 0, pretend = 0, frame = 0
 137              		@ frame_needed = 0, uses_anonymous_args = 0
 138              		@ link register save eliminated.
 139              		.loc 1 137 3 view .LVU24
 140              	.LBB14:
 141              	.LBI14:
 142              		.loc 2 952 30 view .LVU25
 143              	.LBB15:
 144              		.loc 2 954 3 view .LVU26
 145              	.LBE15:
 146              	.LBE14:
 147              		.loc 1 137 3 is_stmt 0 view .LVU27
 148 0000 0E4A     		ldr	r2, .L13
 149              	.LBB18:
 150              	.LBB16:
 151              		.loc 2 954 13 view .LVU28
 152 0002 0F4B     		ldr	r3, .L13+4
 153              	.LBE16:
 154              	.LBE18:
 155              	.LBB19:
 156              	.LBB20:
 157              		.loc 1 60 33 view .LVU29
 158 0004 8168     		ldr	r1, [r0, #8]
 159              	.LBE20:
 160              	.LBE19:
 161              	.LBB22:
 162              	.LBB17:
 163              		.loc 2 954 13 view .LVU30
 164 0006 5B68     		ldr	r3, [r3, #4]
 165              	.LBE17:
 166              	.LBE22:
 167              		.loc 1 135 61 view .LVU31
 168 0008 10B4     		push	{r4}
 169              		.cfi_def_cfa_offset 4
 170              		.cfi_offset 4, -4
 171              		.loc 1 137 3 view .LVU32
ARM GAS  C:\Users\DEVELO~1\AppData\Local\Temp\ccBPxlbB.s 			page 4


 172 000a 9468     		ldr	r4, [r2, #8]
 173              	.LVL4:
 174              	.LBB23:
 175              	.LBI19:
 176              		.loc 1 55 20 is_stmt 1 view .LVU33
 177              	.LBB21:
 178              		.loc 1 59 3 view .LVU34
 179              		.loc 1 61 19 is_stmt 0 view .LVU35
 180 000c 0269     		ldr	r2, [r0, #16]
 181              		.loc 1 60 33 view .LVU36
 182 000e 1B1B     		subs	r3, r3, r4
 183              	.LVL5:
 184              		.loc 1 59 9 view .LVU37
 185 0010 C468     		ldr	r4, [r0, #12]
 186              	.LVL6:
 187              		.loc 1 60 33 view .LVU38
 188 0012 5B1A     		subs	r3, r3, r1
 189              		.loc 1 61 19 view .LVU39
 190 0014 4169     		ldr	r1, [r0, #20]
 191              		.loc 1 59 9 view .LVU40
 192 0016 0134     		adds	r4, r4, #1
 193              		.loc 1 61 19 view .LVU41
 194 0018 D218     		adds	r2, r2, r3
 195 001a 0261     		str	r2, [r0, #16]
 196 001c 41F10001 		adc	r1, r1, #0
 197              		.loc 1 62 6 view .LVU42
 198 0020 4268     		ldr	r2, [r0, #4]
 199              		.loc 1 61 19 view .LVU43
 200 0022 4161     		str	r1, [r0, #20]
 201              		.loc 1 62 6 view .LVU44
 202 0024 9342     		cmp	r3, r2
 203              		.loc 1 65 6 view .LVU45
 204 0026 0268     		ldr	r2, [r0]
 205              		.loc 1 63 16 view .LVU46
 206 0028 88BF     		it	hi
 207 002a 4360     		strhi	r3, [r0, #4]
 208              		.loc 1 65 6 view .LVU47
 209 002c 9342     		cmp	r3, r2
 210              		.loc 1 59 9 view .LVU48
 211 002e C0E90234 		strd	r3, r4, [r0, #8]
 212              		.loc 1 60 3 is_stmt 1 view .LVU49
 213              		.loc 1 61 3 view .LVU50
 214              		.loc 1 62 3 view .LVU51
 215              		.loc 1 63 5 view .LVU52
 216              		.loc 1 65 3 view .LVU53
 217              		.loc 1 66 5 view .LVU54
 218              		.loc 1 66 15 is_stmt 0 view .LVU55
 219 0032 38BF     		it	cc
 220 0034 0360     		strcc	r3, [r0]
 221              	.LVL7:
 222              		.loc 1 66 15 view .LVU56
 223              	.LBE21:
 224              	.LBE23:
 225              		.loc 1 138 1 view .LVU57
 226 0036 5DF8044B 		ldr	r4, [sp], #4
 227              		.cfi_restore 4
 228              		.cfi_def_cfa_offset 0
ARM GAS  C:\Users\DEVELO~1\AppData\Local\Temp\ccBPxlbB.s 			page 5


 229 003a 7047     		bx	lr
 230              	.L14:
 231              		.align	2
 232              	.L13:
 233 003c 00000000 		.word	ch_system
 234 0040 001000E0 		.word	-536866816
 235              		.cfi_endproc
 236              	.LFE356:
 237              		.size	chTMStopMeasurementX, .-chTMStopMeasurementX
 238              		.section	.text.chTMChainMeasurementToX,"ax",%progbits
 239              		.align	1
 240              		.p2align 2,,3
 241              		.global	chTMChainMeasurementToX
 242              		.syntax unified
 243              		.thumb
 244              		.thumb_func
 245              		.type	chTMChainMeasurementToX, %function
 246              	chTMChainMeasurementToX:
 247              	.LVL8:
 248              	.LFB357:
 249              		.loc 1 153 65 is_stmt 1 view -0
 250              		.cfi_startproc
 251              		@ args = 0, pretend = 0, frame = 0
 252              		@ frame_needed = 0, uses_anonymous_args = 0
 253              		@ link register save eliminated.
 254              		.loc 1 156 3 view .LVU59
 255              	.LBB28:
 256              	.LBI28:
 257              		.loc 2 952 30 view .LVU60
 258              	.LBB29:
 259              		.loc 2 954 3 view .LVU61
 260              		.loc 2 954 13 is_stmt 0 view .LVU62
 261 0000 0D4B     		ldr	r3, .L19
 262              	.LBE29:
 263              	.LBE28:
 264              		.loc 1 153 65 view .LVU63
 265 0002 30B4     		push	{r4, r5}
 266              		.cfi_def_cfa_offset 8
 267              		.cfi_offset 4, -8
 268              		.cfi_offset 5, -4
 269              	.LBB31:
 270              	.LBB30:
 271              		.loc 2 954 13 view .LVU64
 272 0004 5D68     		ldr	r5, [r3, #4]
 273              	.LVL9:
 274              		.loc 2 954 13 view .LVU65
 275              	.LBE30:
 276              	.LBE31:
 277              		.loc 1 160 3 is_stmt 1 view .LVU66
 278              	.LBB32:
 279              	.LBI32:
 280              		.loc 1 55 20 view .LVU67
 281              	.LBB33:
 282              		.loc 1 59 3 view .LVU68
 283              		.loc 1 60 20 is_stmt 0 view .LVU69
 284 0006 8368     		ldr	r3, [r0, #8]
 285              		.loc 1 59 9 view .LVU70
ARM GAS  C:\Users\DEVELO~1\AppData\Local\Temp\ccBPxlbB.s 			page 6


 286 0008 D0E90342 		ldrd	r4, r2, [r0, #12]
 287              		.loc 1 60 20 view .LVU71
 288 000c EB1A     		subs	r3, r5, r3
 289              		.loc 1 59 9 view .LVU72
 290 000e 0134     		adds	r4, r4, #1
 291              		.loc 1 61 19 view .LVU73
 292 0010 D218     		adds	r2, r2, r3
 293              		.loc 1 60 13 view .LVU74
 294 0012 8360     		str	r3, [r0, #8]
 295              		.loc 1 59 9 view .LVU75
 296 0014 C460     		str	r4, [r0, #12]
 297              		.loc 1 60 3 is_stmt 1 view .LVU76
 298              		.loc 1 61 3 view .LVU77
 299              		.loc 1 61 19 is_stmt 0 view .LVU78
 300 0016 0261     		str	r2, [r0, #16]
 301 0018 4269     		ldr	r2, [r0, #20]
 302              		.loc 1 62 6 view .LVU79
 303 001a 4468     		ldr	r4, [r0, #4]
 304              		.loc 1 61 19 view .LVU80
 305 001c 42F10002 		adc	r2, r2, #0
 306              		.loc 1 62 6 view .LVU81
 307 0020 A342     		cmp	r3, r4
 308              		.loc 1 61 19 view .LVU82
 309 0022 4261     		str	r2, [r0, #20]
 310              		.loc 1 62 3 is_stmt 1 view .LVU83
 311              		.loc 1 63 5 view .LVU84
 312              		.loc 1 65 6 is_stmt 0 view .LVU85
 313 0024 0268     		ldr	r2, [r0]
 314              		.loc 1 63 16 view .LVU86
 315 0026 88BF     		it	hi
 316 0028 4360     		strhi	r3, [r0, #4]
 317              		.loc 1 65 3 is_stmt 1 view .LVU87
 318              		.loc 1 65 6 is_stmt 0 view .LVU88
 319 002a 9342     		cmp	r3, r2
 320              		.loc 1 66 5 is_stmt 1 view .LVU89
 321              		.loc 1 66 15 is_stmt 0 view .LVU90
 322 002c 38BF     		it	cc
 323 002e 0360     		strcc	r3, [r0]
 324              	.LVL10:
 325              		.loc 1 66 15 view .LVU91
 326              	.LBE33:
 327              	.LBE32:
 328              		.loc 1 161 3 is_stmt 1 view .LVU92
 329              		.loc 1 161 14 is_stmt 0 view .LVU93
 330 0030 8D60     		str	r5, [r1, #8]
 331              		.loc 1 162 1 view .LVU94
 332 0032 30BC     		pop	{r4, r5}
 333              		.cfi_restore 5
 334              		.cfi_restore 4
 335              		.cfi_def_cfa_offset 0
 336              	.LVL11:
 337              		.loc 1 162 1 view .LVU95
 338 0034 7047     		bx	lr
 339              	.L20:
 340 0036 00BF     		.align	2
 341              	.L19:
 342 0038 001000E0 		.word	-536866816
ARM GAS  C:\Users\DEVELO~1\AppData\Local\Temp\ccBPxlbB.s 			page 7


 343              		.cfi_endproc
 344              	.LFE357:
 345              		.size	chTMChainMeasurementToX, .-chTMChainMeasurementToX
 346              		.text
 347              	.Letext0:
 348              		.file 3 "c:\\chibistudio\\tools\\gnu tools arm embedded\\11.3 2022.08\\arm-none-eabi\\include\\mac
 349              		.file 4 "c:\\chibistudio\\tools\\gnu tools arm embedded\\11.3 2022.08\\arm-none-eabi\\include\\sys
 350              		.file 5 "../../../os/common/ports/ARM-common/include/chtypes.h"
 351              		.file 6 "../../../os/rt/include/chearly.h"
 352              		.file 7 "../../../os/rt/include/chobjects.h"
 353              		.file 8 "../../../os/rt/include/chrfcu.h"
 354              		.file 9 "../../../os/rt/include/chdebug.h"
 355              		.file 10 "../../../os/rt/include/chtime.h"
 356              		.file 11 "../../../os/rt/include/chtrace.h"
 357              		.file 12 "../../../os/common/ext/ARM/CMSIS/Core/Include/core_cm7.h"
 358              		.file 13 "../../../os/rt/include/chlists.h"
 359              		.file 14 "../../../os/rt/include/chtm.h"
 360              		.file 15 "../../../os/rt/include/chsem.h"
 361              		.file 16 "../../../os/rt/include/chmtx.h"
 362              		.file 17 "../../../os/rt/include/chsys.h"