ARM GAS  C:\Users\DEVELO~1\AppData\Local\Temp\cciLwlbk.s 			page 1


   1              		.cpu cortex-m7
   2              		.arch armv7e-m
   3              		.fpu fpv5-d16
   4              		.eabi_attribute 28, 1
   5              		.eabi_attribute 20, 1
   6              		.eabi_attribute 21, 1
   7              		.eabi_attribute 23, 3
   8              		.eabi_attribute 24, 1
   9              		.eabi_attribute 25, 1
  10              		.eabi_attribute 26, 1
  11              		.eabi_attribute 30, 2
  12              		.eabi_attribute 34, 1
  13              		.eabi_attribute 18, 4
  14              		.file	"crt1.c"
  15              		.text
  16              	.Ltext0:
  17              		.cfi_sections	.debug_frame
  18              		.section	.text.__cpu_init,"ax",%progbits
  19              		.align	1
  20              		.p2align 2,,3
  21              		.weak	__cpu_init
  22              		.syntax unified
  23              		.thumb
  24              		.thumb_func
  25              		.type	__cpu_init, %function
  26              	__cpu_init:
  27              	.LFB141:
  28              		.file 1 "../../../os/common/startup/ARMCMx/compilers/GCC/crt1.c"
  29              		.loc 1 141 23 view -0
  30              		.cfi_startproc
  31              		@ args = 0, pretend = 0, frame = 0
  32              		@ frame_needed = 0, uses_anonymous_args = 0
  33              		.loc 1 144 3 view .LVU1
  34              	.LBB71:
  35              	.LBI71:
  36              		.file 2 "../../../os/common/ext/ARM/CMSIS/Core/Include/core_cm7.h"
  37              		.loc 2 2229 22 view .LVU2
  38              	.LBB72:
  39              		.loc 2 2232 5 view .LVU3
  40              	.LBB73:
  41              	.LBI73:
  42              		.file 3 "../../../os/common/ext/ARM/CMSIS/Core/Include/cmsis_gcc.h"
  43              		.loc 3 877 27 view .LVU4
  44              	.LBB74:
  45              		.loc 3 879 3 view .LVU5
  46              	.LBE74:
  47              	.LBE73:
  48              	.LBE72:
  49              	.LBE71:
  50              		.loc 1 141 23 is_stmt 0 view .LVU6
  51 0000 10B5     		push	{r4, lr}
  52              		.cfi_def_cfa_offset 8
  53              		.cfi_offset 4, -8
  54              		.cfi_offset 14, -4
  55              	.LBB88:
  56              	.LBB87:
  57              	.LBB76:
ARM GAS  C:\Users\DEVELO~1\AppData\Local\Temp\cciLwlbk.s 			page 2


  58              	.LBB75:
  59              		.loc 3 879 3 view .LVU7
  60              		.syntax unified
  61              	@ 879 "../../../os/common/ext/ARM/CMSIS/Core/Include/cmsis_gcc.h" 1
  62 0002 BFF34F8F 		dsb 0xF
  63              	@ 0 "" 2
  64              		.thumb
  65              		.syntax unified
  66              	.LBE75:
  67              	.LBE76:
  68              		.loc 2 2233 5 is_stmt 1 view .LVU8
  69              	.LBB77:
  70              	.LBI77:
  71              		.loc 3 866 27 view .LVU9
  72              	.LBB78:
  73              		.loc 3 868 3 view .LVU10
  74              		.syntax unified
  75              	@ 868 "../../../os/common/ext/ARM/CMSIS/Core/Include/cmsis_gcc.h" 1
  76 0006 BFF36F8F 		isb 0xF
  77              	@ 0 "" 2
  78              		.thumb
  79              		.syntax unified
  80              	.LBE78:
  81              	.LBE77:
  82              		.loc 2 2234 5 view .LVU11
  83              		.loc 2 2234 18 is_stmt 0 view .LVU12
  84 000a 1C48     		ldr	r0, .L8
  85 000c 0022     		movs	r2, #0
  86 000e C0F85022 		str	r2, [r0, #592]
  87              		.loc 2 2235 5 is_stmt 1 view .LVU13
  88              	.LBB79:
  89              	.LBI79:
  90              		.loc 3 877 27 view .LVU14
  91              	.LBB80:
  92              		.loc 3 879 3 view .LVU15
  93              		.syntax unified
  94              	@ 879 "../../../os/common/ext/ARM/CMSIS/Core/Include/cmsis_gcc.h" 1
  95 0012 BFF34F8F 		dsb 0xF
  96              	@ 0 "" 2
  97              		.thumb
  98              		.syntax unified
  99              	.LBE80:
 100              	.LBE79:
 101              		.loc 2 2236 5 view .LVU16
 102              	.LBB81:
 103              	.LBI81:
 104              		.loc 3 866 27 view .LVU17
 105              	.LBB82:
 106              		.loc 3 868 3 view .LVU18
 107              		.syntax unified
 108              	@ 868 "../../../os/common/ext/ARM/CMSIS/Core/Include/cmsis_gcc.h" 1
 109 0016 BFF36F8F 		isb 0xF
 110              	@ 0 "" 2
 111              		.thumb
 112              		.syntax unified
 113              	.LBE82:
 114              	.LBE81:
ARM GAS  C:\Users\DEVELO~1\AppData\Local\Temp\cciLwlbk.s 			page 3


 115              		.loc 2 2237 5 view .LVU19
 116              		.loc 2 2237 14 is_stmt 0 view .LVU20
 117 001a 4369     		ldr	r3, [r0, #20]
 118 001c 43F40033 		orr	r3, r3, #131072
 119 0020 4361     		str	r3, [r0, #20]
 120              		.loc 2 2238 5 is_stmt 1 view .LVU21
 121              	.LBB83:
 122              	.LBI83:
 123              		.loc 3 877 27 view .LVU22
 124              	.LBB84:
 125              		.loc 3 879 3 view .LVU23
 126              		.syntax unified
 127              	@ 879 "../../../os/common/ext/ARM/CMSIS/Core/Include/cmsis_gcc.h" 1
 128 0022 BFF34F8F 		dsb 0xF
 129              	@ 0 "" 2
 130              		.thumb
 131              		.syntax unified
 132              	.LBE84:
 133              	.LBE83:
 134              		.loc 2 2239 5 view .LVU24
 135              	.LBB85:
 136              	.LBI85:
 137              		.loc 3 866 27 view .LVU25
 138              	.LBB86:
 139              		.loc 3 868 3 view .LVU26
 140              		.syntax unified
 141              	@ 868 "../../../os/common/ext/ARM/CMSIS/Core/Include/cmsis_gcc.h" 1
 142 0026 BFF36F8F 		isb 0xF
 143              	@ 0 "" 2
 144              		.thumb
 145              		.syntax unified
 146              	.LBE86:
 147              	.LBE85:
 148              	.LBE87:
 149              	.LBE88:
 150              		.loc 1 145 3 view .LVU27
 151              	.LBB89:
 152              	.LBI89:
 153              		.loc 2 2281 22 view .LVU28
 154              	.LBB90:
 155              		.loc 2 2284 5 view .LVU29
 156              		.loc 2 2285 5 view .LVU30
 157              		.loc 2 2286 5 view .LVU31
 158              		.loc 2 2288 5 view .LVU32
 159              		.loc 2 2288 17 is_stmt 0 view .LVU33
 160 002a C0F88420 		str	r2, [r0, #132]
 161              		.loc 2 2289 5 is_stmt 1 view .LVU34
 162              	.LBB91:
 163              	.LBI91:
 164              		.loc 3 877 27 view .LVU35
 165              	.LBB92:
 166              		.loc 3 879 3 view .LVU36
 167              		.syntax unified
 168              	@ 879 "../../../os/common/ext/ARM/CMSIS/Core/Include/cmsis_gcc.h" 1
 169 002e BFF34F8F 		dsb 0xF
 170              	@ 0 "" 2
 171              		.thumb
ARM GAS  C:\Users\DEVELO~1\AppData\Local\Temp\cciLwlbk.s 			page 4


 172              		.syntax unified
 173              	.LBE92:
 174              	.LBE91:
 175              		.loc 2 2291 5 view .LVU37
 176              		.loc 2 2291 12 is_stmt 0 view .LVU38
 177 0032 D0F88030 		ldr	r3, [r0, #128]
 178              	.LVL0:
 179              		.loc 2 2294 5 is_stmt 1 view .LVU39
 180              		.loc 2 2298 52 is_stmt 0 view .LVU40
 181 0036 43F6E074 		movw	r4, #16352
 182              		.loc 2 2294 10 view .LVU41
 183 003a C3F34E3C 		ubfx	ip, r3, #13, #15
 184              		.loc 2 2296 12 view .LVU42
 185 003e C3F3C90E 		ubfx	lr, r3, #3, #10
 186 0042 4FEA4C1C 		lsl	ip, ip, #5
 187              	.LVL1:
 188              	.L3:
 189              		.loc 2 2295 5 is_stmt 1 view .LVU43
 190              		.loc 2 2296 7 view .LVU44
 191              		.loc 2 2298 52 is_stmt 0 view .LVU45
 192 0046 0CEA0401 		and	r1, ip, r4
 193              		.loc 2 2296 12 view .LVU46
 194 004a 7346     		mov	r3, lr
 195              	.L2:
 196              	.LVL2:
 197              		.loc 2 2297 7 is_stmt 1 view .LVU47
 198              		.loc 2 2298 9 view .LVU48
 199              		.loc 2 2298 73 is_stmt 0 view .LVU49
 200 004c 41EA8372 		orr	r2, r1, r3, lsl #30
 201              		.loc 2 2303 20 view .LVU50
 202 0050 013B     		subs	r3, r3, #1
 203              	.LVL3:
 204              		.loc 2 2298 20 view .LVU51
 205 0052 C0F86022 		str	r2, [r0, #608]
 206              		.loc 2 2303 23 is_stmt 1 view .LVU52
 207              	.LVL4:
 208              		.loc 2 2303 23 is_stmt 0 view .LVU53
 209 0056 5A1C     		adds	r2, r3, #1
 210 0058 F8D1     		bne	.L2
 211              		.loc 2 2304 20 is_stmt 1 view .LVU54
 212 005a ACF1200C 		sub	ip, ip, #32
 213 005e 1CF1200F 		cmn	ip, #32
 214 0062 F0D1     		bne	.L3
 215              		.loc 2 2305 5 view .LVU55
 216              	.LBB93:
 217              	.LBI93:
 218              		.loc 3 877 27 view .LVU56
 219              	.LBB94:
 220              		.loc 3 879 3 view .LVU57
 221              		.syntax unified
 222              	@ 879 "../../../os/common/ext/ARM/CMSIS/Core/Include/cmsis_gcc.h" 1
 223 0064 BFF34F8F 		dsb 0xF
 224              	@ 0 "" 2
 225              		.thumb
 226              		.syntax unified
 227              	.LBE94:
 228              	.LBE93:
ARM GAS  C:\Users\DEVELO~1\AppData\Local\Temp\cciLwlbk.s 			page 5


 229              		.loc 2 2307 5 view .LVU58
 230              		.loc 2 2307 14 is_stmt 0 view .LVU59
 231 0068 4369     		ldr	r3, [r0, #20]
 232              	.LVL5:
 233              		.loc 2 2307 14 view .LVU60
 234 006a 43F48033 		orr	r3, r3, #65536
 235 006e 4361     		str	r3, [r0, #20]
 236              		.loc 2 2309 5 is_stmt 1 view .LVU61
 237              	.LBB95:
 238              	.LBI95:
 239              		.loc 3 877 27 view .LVU62
 240              	.LBB96:
 241              		.loc 3 879 3 view .LVU63
 242              		.syntax unified
 243              	@ 879 "../../../os/common/ext/ARM/CMSIS/Core/Include/cmsis_gcc.h" 1
 244 0070 BFF34F8F 		dsb 0xF
 245              	@ 0 "" 2
 246              		.thumb
 247              		.syntax unified
 248              	.LBE96:
 249              	.LBE95:
 250              		.loc 2 2310 5 view .LVU64
 251              	.LBB97:
 252              	.LBI97:
 253              		.loc 3 866 27 view .LVU65
 254              	.LBB98:
 255              		.loc 3 868 3 view .LVU66
 256              		.syntax unified
 257              	@ 868 "../../../os/common/ext/ARM/CMSIS/Core/Include/cmsis_gcc.h" 1
 258 0074 BFF36F8F 		isb 0xF
 259              	@ 0 "" 2
 260              	.LVL6:
 261              		.loc 3 868 3 is_stmt 0 view .LVU67
 262              		.thumb
 263              		.syntax unified
 264              	.LBE98:
 265              	.LBE97:
 266              	.LBE90:
 267              	.LBE89:
 268              		.loc 1 147 1 view .LVU68
 269 0078 10BD     		pop	{r4, pc}
 270              	.L9:
 271 007a 00BF     		.align	2
 272              	.L8:
 273 007c 00ED00E0 		.word	-536810240
 274              		.cfi_endproc
 275              	.LFE141:
 276              		.size	__cpu_init, .-__cpu_init
 277              		.section	.text.__early_init,"ax",%progbits
 278              		.align	1
 279              		.p2align 2,,3
 280              		.weak	__early_init
 281              		.syntax unified
 282              		.thumb
 283              		.thumb_func
 284              		.type	__early_init, %function
 285              	__early_init:
ARM GAS  C:\Users\DEVELO~1\AppData\Local\Temp\cciLwlbk.s 			page 6


 286              	.LFB142:
 287              		.loc 1 160 25 is_stmt 1 view -0
 288              		.cfi_startproc
 289              		@ args = 0, pretend = 0, frame = 0
 290              		@ frame_needed = 0, uses_anonymous_args = 0
 291              		@ link register save eliminated.
 292              		.loc 1 160 26 view .LVU70
 293 0000 7047     		bx	lr
 294              		.cfi_endproc
 295              	.LFE142:
 296              		.size	__early_init, .-__early_init
 297 0002 00BF     		.section	.text.__late_init,"ax",%progbits
 298              		.align	1
 299              		.p2align 2,,3
 300              		.weak	__late_init
 301              		.syntax unified
 302              		.thumb
 303              		.thumb_func
 304              		.type	__late_init, %function
 305              	__late_init:
 306              	.LFB147:
 307              		.cfi_startproc
 308              		@ args = 0, pretend = 0, frame = 0
 309              		@ frame_needed = 0, uses_anonymous_args = 0
 310              		@ link register save eliminated.
 311 0000 7047     		bx	lr
 312              		.cfi_endproc
 313              	.LFE147:
 314              		.size	__late_init, .-__late_init
 315 0002 00BF     		.section	.text.__default_exit,"ax",%progbits
 316              		.align	1
 317              		.p2align 2,,3
 318              		.weak	__default_exit
 319              		.syntax unified
 320              		.thumb
 321              		.thumb_func
 322              		.type	__default_exit, %function
 323              	__default_exit:
 324              	.LFB144:
 325              		.loc 1 187 27 view -0
 326              		.cfi_startproc
 327              		@ Volatile: function does not return.
 328              		@ args = 0, pretend = 0, frame = 0
 329              		@ frame_needed = 0, uses_anonymous_args = 0
 330              		@ link register save eliminated.
 331              	.L13:
 332              		.loc 1 190 3 discriminator 1 view .LVU72
 333              		.loc 1 191 3 discriminator 1 view .LVU73
 334              		.loc 1 190 9 discriminator 1 view .LVU74
 335 0000 FEE7     		b	.L13
 336              		.cfi_endproc
 337              	.LFE144:
 338              		.size	__default_exit, .-__default_exit
 339 0002 00BF     		.section	.text.__init_ram_areas,"ax",%progbits
 340              		.align	1
 341              		.p2align 2,,3
 342              		.global	__init_ram_areas
ARM GAS  C:\Users\DEVELO~1\AppData\Local\Temp\cciLwlbk.s 			page 7


 343              		.syntax unified
 344              		.thumb
 345              		.thumb_func
 346              		.type	__init_ram_areas, %function
 347              	__init_ram_areas:
 348              	.LFB145:
 349              		.loc 1 236 29 view -0
 350              		.cfi_startproc
 351              		@ args = 0, pretend = 0, frame = 0
 352              		@ frame_needed = 0, uses_anonymous_args = 0
 353              		.loc 1 238 3 view .LVU76
 354              	.LVL7:
 355              		.loc 1 236 29 is_stmt 0 view .LVU77
 356 0000 F8B5     		push	{r3, r4, r5, r6, r7, lr}
 357              		.cfi_def_cfa_offset 24
 358              		.cfi_offset 3, -24
 359              		.cfi_offset 4, -20
 360              		.cfi_offset 5, -16
 361              		.cfi_offset 6, -12
 362              		.cfi_offset 7, -8
 363              		.cfi_offset 14, -4
 364 0002 2B4D     		ldr	r5, .L30
 365              		.loc 1 236 29 view .LVU78
 366 0004 2B4F     		ldr	r7, .L30+4
 367 0006 2C49     		ldr	r1, .L30+8
 368 0008 05F17004 		add	r4, r5, #112
 369 000c 2B48     		ldr	r0, .L30+12
 370 000e 2C4A     		ldr	r2, .L30+16
 371              	.LVL8:
 372              	.L21:
 373              		.loc 1 240 3 is_stmt 1 view .LVU79
 374              	.LBB118:
 375              		.loc 1 241 5 view .LVU80
 376              		.loc 1 242 5 view .LVU81
 377              		.loc 1 245 5 view .LVU82
 378              		.loc 1 245 14 view .LVU83
 379 0010 8842     		cmp	r0, r1
 380 0012 0DD2     		bcs	.L15
 381 0014 043A     		subs	r2, r2, #4
 382 0016 0346     		mov	r3, r0
 383              	.LVL9:
 384              	.L16:
 385              		.loc 1 246 7 view .LVU84
 386              		.loc 1 246 12 is_stmt 0 view .LVU85
 387 0018 52F8046F 		ldr	r6, [r2, #4]!
 388              	.LVL10:
 389              		.loc 1 246 10 view .LVU86
 390 001c 43F8046B 		str	r6, [r3], #4
 391              	.LVL11:
 392              		.loc 1 247 7 is_stmt 1 view .LVU87
 393              		.loc 1 248 7 view .LVU88
 394              		.loc 1 245 14 view .LVU89
 395 0020 8B42     		cmp	r3, r1
 396 0022 F9D3     		bcc	.L16
 397              		.loc 1 247 8 is_stmt 0 view .LVU90
 398 0024 4B1E     		subs	r3, r1, #1
 399              	.LVL12:
ARM GAS  C:\Users\DEVELO~1\AppData\Local\Temp\cciLwlbk.s 			page 8


 400              		.loc 1 247 8 view .LVU91
 401 0026 1B1A     		subs	r3, r3, r0
 402 0028 23F00303 		bic	r3, r3, #3
 403 002c 0433     		adds	r3, r3, #4
 404 002e 1844     		add	r0, r0, r3
 405              	.LVL13:
 406              	.L15:
 407              		.loc 1 252 14 is_stmt 1 view .LVU92
 408 0030 B842     		cmp	r0, r7
 409 0032 07D2     		bcs	.L20
 410              		.loc 1 253 10 is_stmt 0 view .LVU93
 411 0034 013F     		subs	r7, r7, #1
 412 0036 0021     		movs	r1, #0
 413 0038 3F1A     		subs	r7, r7, r0
 414 003a 27F00302 		bic	r2, r7, #3
 415 003e 0432     		adds	r2, r2, #4
 416 0040 FFF7FEFF 		bl	memset
 417              	.LVL14:
 418              	.L20:
 419              		.loc 1 256 5 is_stmt 1 view .LVU94
 420              		.loc 1 256 5 is_stmt 0 view .LVU95
 421              	.LBE118:
 422              		.loc 1 258 14 is_stmt 1 view .LVU96
 423 0044 A542     		cmp	r5, r4
 424 0046 05D0     		beq	.L29
 425              	.LBB119:
 426              		.loc 1 242 15 is_stmt 0 view .LVU97
 427 0048 D5E90420 		ldrd	r2, r0, [r5, #16]
 428              		.loc 1 252 19 view .LVU98
 429 004c D5E90617 		ldrd	r1, r7, [r5, #24]
 430 0050 1035     		adds	r5, r5, #16
 431              	.LVL15:
 432              		.loc 1 252 19 view .LVU99
 433 0052 DDE7     		b	.L21
 434              	.LVL16:
 435              	.L29:
 436              		.loc 1 252 19 view .LVU100
 437              	.LBE119:
 438              		.loc 1 262 3 is_stmt 1 view .LVU101
 439              	.LBB120:
 440              	.LBI120:
 441              		.loc 2 2392 22 view .LVU102
 442              	.LBB121:
 443              		.loc 2 2395 5 view .LVU103
 444              		.loc 2 2396 5 view .LVU104
 445              		.loc 2 2397 5 view .LVU105
 446              		.loc 2 2399 6 view .LVU106
 447              		.loc 2 2399 18 is_stmt 0 view .LVU107
 448 0054 1B48     		ldr	r0, .L30+20
 449 0056 0023     		movs	r3, #0
 450 0058 C0F88430 		str	r3, [r0, #132]
 451              		.loc 2 2400 4 is_stmt 1 view .LVU108
 452              	.LBB122:
 453              	.LBI122:
 454              		.loc 3 877 27 view .LVU109
 455              	.LBB123:
 456              		.loc 3 879 3 view .LVU110
ARM GAS  C:\Users\DEVELO~1\AppData\Local\Temp\cciLwlbk.s 			page 9


 457              		.syntax unified
 458              	@ 879 "../../../os/common/ext/ARM/CMSIS/Core/Include/cmsis_gcc.h" 1
 459 005c BFF34F8F 		dsb 0xF
 460              	@ 0 "" 2
 461              		.thumb
 462              		.syntax unified
 463              	.LBE123:
 464              	.LBE122:
 465              		.loc 2 2402 5 view .LVU111
 466              		.loc 2 2402 12 is_stmt 0 view .LVU112
 467 0060 D0F88050 		ldr	r5, [r0, #128]
 468              	.LVL17:
 469              		.loc 2 2405 5 is_stmt 1 view .LVU113
 470              		.loc 2 2409 52 is_stmt 0 view .LVU114
 471 0064 43F6E076 		movw	r6, #16352
 472              		.loc 2 2405 10 view .LVU115
 473 0068 C5F34E34 		ubfx	r4, r5, #13, #15
 474              		.loc 2 2407 12 view .LVU116
 475 006c C5F3C905 		ubfx	r5, r5, #3, #10
 476              	.LVL18:
 477              		.loc 2 2407 12 view .LVU117
 478 0070 6401     		lsls	r4, r4, #5
 479              	.L23:
 480              		.loc 2 2406 5 is_stmt 1 view .LVU118
 481              		.loc 2 2407 7 view .LVU119
 482              	.LVL19:
 483              		.loc 2 2409 52 is_stmt 0 view .LVU120
 484 0072 04EA0601 		and	r1, r4, r6
 485              		.loc 2 2407 12 view .LVU121
 486 0076 2B46     		mov	r3, r5
 487              	.L22:
 488              	.LVL20:
 489              		.loc 2 2408 7 is_stmt 1 view .LVU122
 490              		.loc 2 2409 9 view .LVU123
 491              		.loc 2 2409 73 is_stmt 0 view .LVU124
 492 0078 41EA8372 		orr	r2, r1, r3, lsl #30
 493              		.loc 2 2414 20 view .LVU125
 494 007c 013B     		subs	r3, r3, #1
 495              	.LVL21:
 496              		.loc 2 2409 20 view .LVU126
 497 007e C0F86C22 		str	r2, [r0, #620]
 498              		.loc 2 2414 23 is_stmt 1 view .LVU127
 499              	.LVL22:
 500              		.loc 2 2414 23 is_stmt 0 view .LVU128
 501 0082 5A1C     		adds	r2, r3, #1
 502 0084 F8D1     		bne	.L22
 503              		.loc 2 2415 20 is_stmt 1 view .LVU129
 504 0086 203C     		subs	r4, r4, #32
 505 0088 14F1200F 		cmn	r4, #32
 506 008c F1D1     		bne	.L23
 507              		.loc 2 2417 5 view .LVU130
 508              	.LBB124:
 509              	.LBI124:
 510              		.loc 3 877 27 view .LVU131
 511              	.LBB125:
 512              		.loc 3 879 3 view .LVU132
 513              		.syntax unified
ARM GAS  C:\Users\DEVELO~1\AppData\Local\Temp\cciLwlbk.s 			page 10


 514              	@ 879 "../../../os/common/ext/ARM/CMSIS/Core/Include/cmsis_gcc.h" 1
 515 008e BFF34F8F 		dsb 0xF
 516              	@ 0 "" 2
 517              		.thumb
 518              		.syntax unified
 519              	.LBE125:
 520              	.LBE124:
 521              		.loc 2 2418 5 view .LVU133
 522              	.LBB126:
 523              	.LBI126:
 524              		.loc 3 866 27 view .LVU134
 525              	.LBB127:
 526              		.loc 3 868 3 view .LVU135
 527              		.syntax unified
 528              	@ 868 "../../../os/common/ext/ARM/CMSIS/Core/Include/cmsis_gcc.h" 1
 529 0092 BFF36F8F 		isb 0xF
 530              	@ 0 "" 2
 531              	.LVL23:
 532              		.loc 3 868 3 is_stmt 0 view .LVU136
 533              		.thumb
 534              		.syntax unified
 535              	.LBE127:
 536              	.LBE126:
 537              	.LBE121:
 538              	.LBE120:
 539              		.loc 1 263 3 is_stmt 1 view .LVU137
 540              	.LBB128:
 541              	.LBI128:
 542              		.loc 2 2265 22 view .LVU138
 543              	.LBB129:
 544              		.loc 2 2268 5 view .LVU139
 545              	.LBB130:
 546              	.LBI130:
 547              		.loc 3 877 27 view .LVU140
 548              	.LBB131:
 549              		.loc 3 879 3 view .LVU141
 550              		.syntax unified
 551              	@ 879 "../../../os/common/ext/ARM/CMSIS/Core/Include/cmsis_gcc.h" 1
 552 0096 BFF34F8F 		dsb 0xF
 553              	@ 0 "" 2
 554              		.thumb
 555              		.syntax unified
 556              	.LBE131:
 557              	.LBE130:
 558              		.loc 2 2269 5 view .LVU142
 559              	.LBB132:
 560              	.LBI132:
 561              		.loc 3 866 27 view .LVU143
 562              	.LBB133:
 563              		.loc 3 868 3 view .LVU144
 564              		.syntax unified
 565              	@ 868 "../../../os/common/ext/ARM/CMSIS/Core/Include/cmsis_gcc.h" 1
 566 009a BFF36F8F 		isb 0xF
 567              	@ 0 "" 2
 568              		.thumb
 569              		.syntax unified
 570              	.LBE133:
ARM GAS  C:\Users\DEVELO~1\AppData\Local\Temp\cciLwlbk.s 			page 11


 571              	.LBE132:
 572              		.loc 2 2270 5 view .LVU145
 573              		.loc 2 2270 18 is_stmt 0 view .LVU146
 574 009e 0023     		movs	r3, #0
 575 00a0 C0F85032 		str	r3, [r0, #592]
 576              		.loc 2 2271 5 is_stmt 1 view .LVU147
 577              	.LBB134:
 578              	.LBI134:
 579              		.loc 3 877 27 view .LVU148
 580              	.LBB135:
 581              		.loc 3 879 3 view .LVU149
 582              		.syntax unified
 583              	@ 879 "../../../os/common/ext/ARM/CMSIS/Core/Include/cmsis_gcc.h" 1
 584 00a4 BFF34F8F 		dsb 0xF
 585              	@ 0 "" 2
 586              		.thumb
 587              		.syntax unified
 588              	.LBE135:
 589              	.LBE134:
 590              		.loc 2 2272 5 view .LVU150
 591              	.LBB136:
 592              	.LBI136:
 593              		.loc 3 866 27 view .LVU151
 594              	.LBB137:
 595              		.loc 3 868 3 view .LVU152
 596              		.syntax unified
 597              	@ 868 "../../../os/common/ext/ARM/CMSIS/Core/Include/cmsis_gcc.h" 1
 598 00a8 BFF36F8F 		isb 0xF
 599              	@ 0 "" 2
 600              		.thumb
 601              		.syntax unified
 602              	.LBE137:
 603              	.LBE136:
 604              	.LBE129:
 605              	.LBE128:
 606              		.loc 1 266 1 is_stmt 0 view .LVU153
 607 00ac F8BD     		pop	{r3, r4, r5, r6, r7, pc}
 608              	.L31:
 609 00ae 00BF     		.align	2
 610              	.L30:
 611 00b0 00000000 		.word	.LANCHOR0
 612 00b4 00000000 		.word	__ram0_noinit__
 613 00b8 00000000 		.word	__ram0_clear__
 614 00bc 00000000 		.word	__ram0_init__
 615 00c0 00000000 		.word	__ram0_init_text__
 616 00c4 00ED00E0 		.word	-536810240
 617              		.cfi_endproc
 618              	.LFE145:
 619              		.size	__init_ram_areas, .-__init_ram_areas
 620              		.section	.rodata.ram_areas,"a"
 621              		.align	2
 622              		.set	.LANCHOR0,. + 0
 623              		.type	ram_areas, %object
 624              		.size	ram_areas, 128
 625              	ram_areas:
 626 0000 00000000 		.word	__ram0_init_text__
 627 0004 00000000 		.word	__ram0_init__
ARM GAS  C:\Users\DEVELO~1\AppData\Local\Temp\cciLwlbk.s 			page 12


 628 0008 00000000 		.word	__ram0_clear__
 629 000c 00000000 		.word	__ram0_noinit__
 630 0010 00000000 		.word	__ram1_init_text__
 631 0014 00000000 		.word	__ram1_init__
 632 0018 00000000 		.word	__ram1_clear__
 633 001c 00000000 		.word	__ram1_noinit__
 634 0020 00000000 		.word	__ram2_init_text__
 635 0024 00000000 		.word	__ram2_init__
 636 0028 00000000 		.word	__ram2_clear__
 637 002c 00000000 		.word	__ram2_noinit__
 638 0030 00000000 		.word	__ram3_init_text__
 639 0034 00000000 		.word	__ram3_init__
 640 0038 00000000 		.word	__ram3_clear__
 641 003c 00000000 		.word	__ram3_noinit__
 642 0040 00000000 		.word	__ram4_init_text__
 643 0044 00000000 		.word	__ram4_init__
 644 0048 00000000 		.word	__ram4_clear__
 645 004c 00000000 		.word	__ram4_noinit__
 646 0050 00000000 		.word	__ram5_init_text__
 647 0054 00000000 		.word	__ram5_init__
 648 0058 00000000 		.word	__ram5_clear__
 649 005c 00000000 		.word	__ram5_noinit__
 650 0060 00000000 		.word	__ram6_init_text__
 651 0064 00000000 		.word	__ram6_init__
 652 0068 00000000 		.word	__ram6_clear__
 653 006c 00000000 		.word	__ram6_noinit__
 654 0070 00000000 		.word	__ram7_init_text__
 655 0074 00000000 		.word	__ram7_init__
 656 0078 00000000 		.word	__ram7_clear__
 657 007c 00000000 		.word	__ram7_noinit__
 658              		.text
 659              	.Letext0:
 660              		.file 4 "c:\\chibistudio\\tools\\gnu tools arm embedded\\11.3 2022.08\\arm-none-eabi\\include\\mac
 661              		.file 5 "c:\\chibistudio\\tools\\gnu tools arm embedded\\11.3 2022.08\\arm-none-eabi\\include\\sys
 662              		.file 6 "<built-in>"