ARM GAS  C:\Users\DEVELO~1\AppData\Local\Temp\ccmY94sC.s 			page 1


   1              		.cpu cortex-m7
   2              		.arch armv7e-m
   3              		.fpu fpv5-d16
   4              		.eabi_attribute 28, 1
   5              		.eabi_attribute 20, 1
   6              		.eabi_attribute 21, 1
   7              		.eabi_attribute 23, 3
   8              		.eabi_attribute 24, 1
   9              		.eabi_attribute 25, 1
  10              		.eabi_attribute 26, 1
  11              		.eabi_attribute 30, 2
  12              		.eabi_attribute 34, 1
  13              		.eabi_attribute 18, 4
  14              		.file	"diskio.c"
  15              		.text
  16              	.Ltext0:
  17              		.cfi_sections	.debug_frame
  18              		.section	.text.disk_status,"ax",%progbits
  19              		.align	1
  20              		.p2align 2,,3
  21              		.global	disk_status
  22              		.syntax unified
  23              		.thumb
  24              		.thumb_func
  25              		.type	disk_status, %function
  26              	disk_status:
  27              	.LVL0:
  28              	.LFB449:
  29              		.file 1 "drivers/sd/ff16/diskio.c"
  30              		.loc 1 35 32 view -0
  31              		.cfi_startproc
  32              		@ args = 0, pretend = 0, frame = 0
  33              		@ frame_needed = 0, uses_anonymous_args = 0
  34              		.loc 1 36 5 view .LVU1
  35              		.loc 1 36 8 is_stmt 0 view .LVU2
  36 0000 08B1     		cbz	r0, .L11
  37              		.loc 1 37 16 view .LVU3
  38 0002 0120     		movs	r0, #1
  39              	.LVL1:
  40              		.loc 1 45 1 view .LVU4
  41 0004 7047     		bx	lr
  42              	.LVL2:
  43              	.L11:
  44              		.loc 1 40 5 is_stmt 1 view .LVU5
  45              		.loc 1 35 32 is_stmt 0 view .LVU6
  46 0006 08B5     		push	{r3, lr}
  47              		.cfi_def_cfa_offset 8
  48              		.cfi_offset 3, -8
  49              		.cfi_offset 14, -4
  50              		.loc 1 40 10 view .LVU7
  51 0008 FFF7FEFF 		bl	drv_sd_hal_is_card_present
  52              	.LVL3:
  53              		.loc 1 40 8 view .LVU8
  54 000c 10B1     		cbz	r0, .L3
  55              		.loc 1 44 12 view .LVU9
  56 000e 044B     		ldr	r3, .L12
  57 0010 1878     		ldrb	r0, [r3]	@ zero_extendqisi2
ARM GAS  C:\Users\DEVELO~1\AppData\Local\Temp\ccmY94sC.s 			page 2


  58              		.loc 1 45 1 view .LVU10
  59 0012 08BD     		pop	{r3, pc}
  60              	.L3:
  61              		.loc 1 41 9 is_stmt 1 view .LVU11
  62              		.loc 1 41 19 is_stmt 0 view .LVU12
  63 0014 0323     		movs	r3, #3
  64 0016 024A     		ldr	r2, .L12
  65 0018 1846     		mov	r0, r3
  66              		.loc 1 44 5 is_stmt 1 view .LVU13
  67              		.loc 1 41 19 is_stmt 0 view .LVU14
  68 001a 1370     		strb	r3, [r2]
  69              		.loc 1 45 1 view .LVU15
  70 001c 08BD     		pop	{r3, pc}
  71              	.L13:
  72 001e 00BF     		.align	2
  73              	.L12:
  74 0020 00000000 		.word	.LANCHOR0
  75              		.cfi_endproc
  76              	.LFE449:
  77              		.size	disk_status, .-disk_status
  78              		.section	.text.disk_initialize,"ax",%progbits
  79              		.align	1
  80              		.p2align 2,,3
  81              		.global	disk_initialize
  82              		.syntax unified
  83              		.thumb
  84              		.thumb_func
  85              		.type	disk_initialize, %function
  86              	disk_initialize:
  87              	.LVL4:
  88              	.LFB450:
  89              		.loc 1 51 36 is_stmt 1 view -0
  90              		.cfi_startproc
  91              		@ args = 0, pretend = 0, frame = 0
  92              		@ frame_needed = 0, uses_anonymous_args = 0
  93              		.loc 1 52 5 view .LVU17
  94              		.loc 1 52 8 is_stmt 0 view .LVU18
  95 0000 08B1     		cbz	r0, .L23
  96              		.loc 1 53 16 view .LVU19
  97 0002 0120     		movs	r0, #1
  98              	.LVL5:
  99              		.loc 1 71 1 view .LVU20
 100 0004 7047     		bx	lr
 101              	.LVL6:
 102              	.L23:
 103              		.loc 1 56 5 is_stmt 1 view .LVU21
 104              		.loc 1 51 36 is_stmt 0 view .LVU22
 105 0006 08B5     		push	{r3, lr}
 106              		.cfi_def_cfa_offset 8
 107              		.cfi_offset 3, -8
 108              		.cfi_offset 14, -4
 109              		.loc 1 56 5 view .LVU23
 110 0008 FFF7FEFF 		bl	drv_sd_hal_init
 111              	.LVL7:
 112              		.loc 1 58 5 is_stmt 1 view .LVU24
 113              		.loc 1 58 10 is_stmt 0 view .LVU25
 114 000c FFF7FEFF 		bl	drv_sd_hal_is_card_present
ARM GAS  C:\Users\DEVELO~1\AppData\Local\Temp\ccmY94sC.s 			page 3


 115              	.LVL8:
 116              		.loc 1 58 8 view .LVU26
 117 0010 28B1     		cbz	r0, .L24
 118              		.loc 1 63 5 is_stmt 1 view .LVU27
 119              		.loc 1 63 30 is_stmt 0 view .LVU28
 120 0012 FFF7FEFF 		bl	drv_sd_hal_connect
 121              	.LVL9:
 122              		.loc 1 64 5 is_stmt 1 view .LVU29
 123              		.loc 1 64 8 is_stmt 0 view .LVU30
 124 0016 38B9     		cbnz	r0, .L25
 125              		.loc 1 69 5 is_stmt 1 view .LVU31
 126              		.loc 1 69 15 is_stmt 0 view .LVU32
 127 0018 064B     		ldr	r3, .L26
 128 001a 1870     		strb	r0, [r3]
 129              		.loc 1 70 5 is_stmt 1 view .LVU33
 130              		.loc 1 71 1 is_stmt 0 view .LVU34
 131 001c 08BD     		pop	{r3, pc}
 132              	.LVL10:
 133              	.L24:
 134              		.loc 1 59 9 is_stmt 1 view .LVU35
 135              		.loc 1 59 19 is_stmt 0 view .LVU36
 136 001e 0323     		movs	r3, #3
 137 0020 044A     		ldr	r2, .L26
 138              		.loc 1 60 16 view .LVU37
 139 0022 1846     		mov	r0, r3
 140              		.loc 1 59 19 view .LVU38
 141 0024 1370     		strb	r3, [r2]
 142              		.loc 1 60 9 is_stmt 1 view .LVU39
 143              		.loc 1 71 1 is_stmt 0 view .LVU40
 144 0026 08BD     		pop	{r3, pc}
 145              	.LVL11:
 146              	.L25:
 147              		.loc 1 65 9 is_stmt 1 view .LVU41
 148              		.loc 1 65 19 is_stmt 0 view .LVU42
 149 0028 0123     		movs	r3, #1
 150 002a 024A     		ldr	r2, .L26
 151              		.loc 1 66 16 view .LVU43
 152 002c 1846     		mov	r0, r3
 153              	.LVL12:
 154              		.loc 1 65 19 view .LVU44
 155 002e 1370     		strb	r3, [r2]
 156              		.loc 1 66 9 is_stmt 1 view .LVU45
 157              		.loc 1 71 1 is_stmt 0 view .LVU46
 158 0030 08BD     		pop	{r3, pc}
 159              	.L27:
 160 0032 00BF     		.align	2
 161              	.L26:
 162 0034 00000000 		.word	.LANCHOR0
 163              		.cfi_endproc
 164              	.LFE450:
 165              		.size	disk_initialize, .-disk_initialize
 166              		.section	.text.disk_read,"ax",%progbits
 167              		.align	1
 168              		.p2align 2,,3
 169              		.global	disk_read
 170              		.syntax unified
 171              		.thumb
ARM GAS  C:\Users\DEVELO~1\AppData\Local\Temp\ccmY94sC.s 			page 4


 172              		.thumb_func
 173              		.type	disk_read, %function
 174              	disk_read:
 175              	.LVL13:
 176              	.LFB451:
 177              		.loc 1 77 68 is_stmt 1 view -0
 178              		.cfi_startproc
 179              		@ args = 0, pretend = 0, frame = 0
 180              		@ frame_needed = 0, uses_anonymous_args = 0
 181              		.loc 1 78 5 view .LVU48
 182              		.loc 1 78 41 is_stmt 0 view .LVU49
 183 0000 002B     		cmp	r3, #0
 184 0002 18BF     		it	ne
 185 0004 0029     		cmpne	r1, #0
 186 0006 14D0     		beq	.L31
 187 0008 98B9     		cbnz	r0, .L31
 188              		.loc 1 82 5 is_stmt 1 view .LVU50
 189              		.loc 1 77 68 is_stmt 0 view .LVU51
 190 000a 70B5     		push	{r4, r5, r6, lr}
 191              		.cfi_def_cfa_offset 16
 192              		.cfi_offset 4, -16
 193              		.cfi_offset 5, -12
 194              		.cfi_offset 6, -8
 195              		.cfi_offset 14, -4
 196 000c 0C46     		mov	r4, r1
 197 000e 1646     		mov	r6, r2
 198 0010 1D46     		mov	r5, r3
 199              		.loc 1 82 10 view .LVU52
 200 0012 FFF7FEFF 		bl	drv_sd_hal_is_card_present
 201              	.LVL14:
 202              		.loc 1 82 8 view .LVU53
 203 0016 70B1     		cbz	r0, .L40
 204              		.loc 1 87 5 is_stmt 1 view .LVU54
 205              		.loc 1 87 11 is_stmt 0 view .LVU55
 206 0018 FFF7FEFF 		bl	drv_sd_hal_connect
 207              	.LVL15:
 208              		.loc 1 89 5 is_stmt 1 view .LVU56
 209              		.loc 1 89 30 is_stmt 0 view .LVU57
 210 001c 2A46     		mov	r2, r5
 211 001e 3146     		mov	r1, r6
 212 0020 2046     		mov	r0, r4
 213 0022 FFF7FEFF 		bl	drv_sd_hal_read_blocks
 214              	.LVL16:
 215              		.loc 1 90 5 is_stmt 1 view .LVU58
 216              	.LBB6:
 217              	.LBI6:
 218              		.loc 1 17 16 view .LVU59
 219              	.LBB7:
 220              		.loc 1 18 5 view .LVU60
 221 0026 18B1     		cbz	r0, .L29
 222 0028 0128     		cmp	r0, #1
 223 002a 14BF     		ite	ne
 224 002c 0120     		movne	r0, #1
 225              	.LVL17:
 226              		.loc 1 18 5 is_stmt 0 view .LVU61
 227 002e 0320     		moveq	r0, #3
 228              	.L29:
ARM GAS  C:\Users\DEVELO~1\AppData\Local\Temp\ccmY94sC.s 			page 5


 229              		.loc 1 18 5 view .LVU62
 230              	.LBE7:
 231              	.LBE6:
 232              		.loc 1 91 1 view .LVU63
 233 0030 70BD     		pop	{r4, r5, r6, pc}
 234              	.LVL18:
 235              	.L31:
 236              		.cfi_def_cfa_offset 0
 237              		.cfi_restore 4
 238              		.cfi_restore 5
 239              		.cfi_restore 6
 240              		.cfi_restore 14
 241              		.loc 1 79 16 view .LVU64
 242 0032 0420     		movs	r0, #4
 243              	.LVL19:
 244              		.loc 1 91 1 view .LVU65
 245 0034 7047     		bx	lr
 246              	.LVL20:
 247              	.L40:
 248              		.cfi_def_cfa_offset 16
 249              		.cfi_offset 4, -16
 250              		.cfi_offset 5, -12
 251              		.cfi_offset 6, -8
 252              		.cfi_offset 14, -4
 253              		.loc 1 83 9 is_stmt 1 view .LVU66
 254              		.loc 1 83 19 is_stmt 0 view .LVU67
 255 0036 0323     		movs	r3, #3
 256 0038 014A     		ldr	r2, .L41
 257              		.loc 1 84 16 view .LVU68
 258 003a 1846     		mov	r0, r3
 259              		.loc 1 83 19 view .LVU69
 260 003c 1370     		strb	r3, [r2]
 261              		.loc 1 84 9 is_stmt 1 view .LVU70
 262              		.loc 1 91 1 is_stmt 0 view .LVU71
 263 003e 70BD     		pop	{r4, r5, r6, pc}
 264              	.LVL21:
 265              	.L42:
 266              		.loc 1 91 1 view .LVU72
 267              		.align	2
 268              	.L41:
 269 0040 00000000 		.word	.LANCHOR0
 270              		.cfi_endproc
 271              	.LFE451:
 272              		.size	disk_read, .-disk_read
 273              		.section	.text.disk_write,"ax",%progbits
 274              		.align	1
 275              		.p2align 2,,3
 276              		.global	disk_write
 277              		.syntax unified
 278              		.thumb
 279              		.thumb_func
 280              		.type	disk_write, %function
 281              	disk_write:
 282              	.LVL22:
 283              	.LFB452:
 284              		.loc 1 98 75 is_stmt 1 view -0
 285              		.cfi_startproc
ARM GAS  C:\Users\DEVELO~1\AppData\Local\Temp\ccmY94sC.s 			page 6


 286              		@ args = 0, pretend = 0, frame = 0
 287              		@ frame_needed = 0, uses_anonymous_args = 0
 288              		.loc 1 99 5 view .LVU74
 289              		.loc 1 99 41 is_stmt 0 view .LVU75
 290 0000 002B     		cmp	r3, #0
 291 0002 18BF     		it	ne
 292 0004 0029     		cmpne	r1, #0
 293 0006 14D0     		beq	.L46
 294 0008 98B9     		cbnz	r0, .L46
 295              		.loc 1 103 5 is_stmt 1 view .LVU76
 296              		.loc 1 98 75 is_stmt 0 view .LVU77
 297 000a 70B5     		push	{r4, r5, r6, lr}
 298              		.cfi_def_cfa_offset 16
 299              		.cfi_offset 4, -16
 300              		.cfi_offset 5, -12
 301              		.cfi_offset 6, -8
 302              		.cfi_offset 14, -4
 303 000c 0C46     		mov	r4, r1
 304 000e 1646     		mov	r6, r2
 305 0010 1D46     		mov	r5, r3
 306              		.loc 1 103 10 view .LVU78
 307 0012 FFF7FEFF 		bl	drv_sd_hal_is_card_present
 308              	.LVL23:
 309              		.loc 1 103 8 view .LVU79
 310 0016 70B1     		cbz	r0, .L55
 311              		.loc 1 108 5 is_stmt 1 view .LVU80
 312              		.loc 1 108 11 is_stmt 0 view .LVU81
 313 0018 FFF7FEFF 		bl	drv_sd_hal_connect
 314              	.LVL24:
 315              		.loc 1 110 5 is_stmt 1 view .LVU82
 316              		.loc 1 110 30 is_stmt 0 view .LVU83
 317 001c 2A46     		mov	r2, r5
 318 001e 3146     		mov	r1, r6
 319 0020 2046     		mov	r0, r4
 320 0022 FFF7FEFF 		bl	drv_sd_hal_write_blocks
 321              	.LVL25:
 322              		.loc 1 111 5 is_stmt 1 view .LVU84
 323              	.LBB8:
 324              	.LBI8:
 325              		.loc 1 17 16 view .LVU85
 326              	.LBB9:
 327              		.loc 1 18 5 view .LVU86
 328 0026 18B1     		cbz	r0, .L44
 329 0028 0128     		cmp	r0, #1
 330 002a 14BF     		ite	ne
 331 002c 0120     		movne	r0, #1
 332              	.LVL26:
 333              		.loc 1 18 5 is_stmt 0 view .LVU87
 334 002e 0320     		moveq	r0, #3
 335              	.L44:
 336              		.loc 1 18 5 view .LVU88
 337              	.LBE9:
 338              	.LBE8:
 339              		.loc 1 112 1 view .LVU89
 340 0030 70BD     		pop	{r4, r5, r6, pc}
 341              	.LVL27:
 342              	.L46:
ARM GAS  C:\Users\DEVELO~1\AppData\Local\Temp\ccmY94sC.s 			page 7


 343              		.cfi_def_cfa_offset 0
 344              		.cfi_restore 4
 345              		.cfi_restore 5
 346              		.cfi_restore 6
 347              		.cfi_restore 14
 348              		.loc 1 100 16 view .LVU90
 349 0032 0420     		movs	r0, #4
 350              	.LVL28:
 351              		.loc 1 112 1 view .LVU91
 352 0034 7047     		bx	lr
 353              	.LVL29:
 354              	.L55:
 355              		.cfi_def_cfa_offset 16
 356              		.cfi_offset 4, -16
 357              		.cfi_offset 5, -12
 358              		.cfi_offset 6, -8
 359              		.cfi_offset 14, -4
 360              		.loc 1 104 9 is_stmt 1 view .LVU92
 361              		.loc 1 104 19 is_stmt 0 view .LVU93
 362 0036 0323     		movs	r3, #3
 363 0038 014A     		ldr	r2, .L56
 364              		.loc 1 105 16 view .LVU94
 365 003a 1846     		mov	r0, r3
 366              		.loc 1 104 19 view .LVU95
 367 003c 1370     		strb	r3, [r2]
 368              		.loc 1 105 9 is_stmt 1 view .LVU96
 369              		.loc 1 112 1 is_stmt 0 view .LVU97
 370 003e 70BD     		pop	{r4, r5, r6, pc}
 371              	.LVL30:
 372              	.L57:
 373              		.loc 1 112 1 view .LVU98
 374              		.align	2
 375              	.L56:
 376 0040 00000000 		.word	.LANCHOR0
 377              		.cfi_endproc
 378              	.LFE452:
 379              		.size	disk_write, .-disk_write
 380              		.section	.text.disk_ioctl,"ax",%progbits
 381              		.align	1
 382              		.p2align 2,,3
 383              		.global	disk_ioctl
 384              		.syntax unified
 385              		.thumb
 386              		.thumb_func
 387              		.type	disk_ioctl, %function
 388              	disk_ioctl:
 389              	.LVL31:
 390              	.LFB453:
 391              		.loc 1 119 53 is_stmt 1 view -0
 392              		.cfi_startproc
 393              		@ args = 0, pretend = 0, frame = 8
 394              		@ frame_needed = 0, uses_anonymous_args = 0
 395              		.loc 1 120 5 view .LVU100
 396              		.loc 1 120 8 is_stmt 0 view .LVU101
 397 0000 28BB     		cbnz	r0, .L79
 398              		.loc 1 124 5 is_stmt 1 view .LVU102
 399              		.loc 1 119 53 is_stmt 0 view .LVU103
ARM GAS  C:\Users\DEVELO~1\AppData\Local\Temp\ccmY94sC.s 			page 8


 400 0002 30B5     		push	{r4, r5, lr}
 401              		.cfi_def_cfa_offset 12
 402              		.cfi_offset 4, -12
 403              		.cfi_offset 5, -8
 404              		.cfi_offset 14, -4
 405 0004 83B0     		sub	sp, sp, #12
 406              		.cfi_def_cfa_offset 24
 407 0006 0C46     		mov	r4, r1
 408 0008 1546     		mov	r5, r2
 409              		.loc 1 124 10 view .LVU104
 410 000a FFF7FEFF 		bl	drv_sd_hal_is_card_present
 411              	.LVL32:
 412              		.loc 1 124 8 view .LVU105
 413 000e 00B3     		cbz	r0, .L69
 414              		.loc 1 128 5 is_stmt 1 view .LVU106
 415              		.loc 1 128 8 is_stmt 0 view .LVU107
 416 0010 05B9     		cbnz	r5, .L72
 417 0012 2CB9     		cbnz	r4, .L70
 418              	.L72:
 419              		.loc 1 132 5 is_stmt 1 view .LVU108
 420 0014 032C     		cmp	r4, #3
 421 0016 03D8     		bhi	.L70
 422 0018 DFE804F0 		tbb	[pc, r4]
 423              	.L64:
 424 001c 15       		.byte	(.L67-.L64)/2
 425 001d 0E       		.byte	(.L66-.L64)/2
 426 001e 09       		.byte	(.L65-.L64)/2
 427 001f 05       		.byte	(.L63-.L64)/2
 428              		.p2align 1
 429              	.L70:
 430 0020 0420     		movs	r0, #4
 431              	.L60:
 432              		.loc 1 153 1 is_stmt 0 discriminator 1 view .LVU109
 433 0022 03B0     		add	sp, sp, #12
 434              		.cfi_remember_state
 435              		.cfi_def_cfa_offset 12
 436              		@ sp needed
 437 0024 30BD     		pop	{r4, r5, pc}
 438              	.LVL33:
 439              	.L63:
 440              		.cfi_restore_state
 441              		.loc 1 148 9 is_stmt 1 view .LVU110
 442              		.loc 1 148 26 is_stmt 0 view .LVU111
 443 0026 0123     		movs	r3, #1
 444              		.loc 1 149 16 view .LVU112
 445 0028 0020     		movs	r0, #0
 446              		.loc 1 148 26 view .LVU113
 447 002a 2B60     		str	r3, [r5]
 448              		.loc 1 149 9 is_stmt 1 view .LVU114
 449              		.loc 1 149 16 is_stmt 0 view .LVU115
 450 002c F9E7     		b	.L60
 451              	.L65:
 452              		.loc 1 145 9 is_stmt 1 view .LVU116
 453              		.loc 1 145 25 is_stmt 0 view .LVU117
 454 002e 4FF40073 		mov	r3, #512
 455              		.loc 1 146 16 view .LVU118
 456 0032 0020     		movs	r0, #0
ARM GAS  C:\Users\DEVELO~1\AppData\Local\Temp\ccmY94sC.s 			page 9


 457              		.loc 1 145 25 view .LVU119
 458 0034 2B80     		strh	r3, [r5]	@ movhi
 459              		.loc 1 146 9 is_stmt 1 view .LVU120
 460              		.loc 1 146 16 is_stmt 0 view .LVU121
 461 0036 F4E7     		b	.L60
 462              	.L66:
 463              	.LBB10:
 464              		.loc 1 137 9 is_stmt 1 view .LVU122
 465              		.loc 1 138 9 view .LVU123
 466              		.loc 1 138 13 is_stmt 0 view .LVU124
 467 0038 6846     		mov	r0, sp
 468 003a FFF7FEFF 		bl	drv_sd_hal_get_info
 469              	.LVL34:
 470              		.loc 1 138 12 view .LVU125
 471 003e 58B9     		cbnz	r0, .L71
 472              		.loc 1 141 9 is_stmt 1 view .LVU126
 473              		.loc 1 141 26 is_stmt 0 view .LVU127
 474 0040 019B     		ldr	r3, [sp, #4]
 475 0042 2B60     		str	r3, [r5]
 476              		.loc 1 142 9 is_stmt 1 view .LVU128
 477              		.loc 1 142 16 is_stmt 0 view .LVU129
 478 0044 EDE7     		b	.L60
 479              	.L67:
 480              		.loc 1 142 16 view .LVU130
 481              	.LBE10:
 482              		.loc 1 134 9 is_stmt 1 view .LVU131
 483 0046 FFF7FEFF 		bl	drv_sd_hal_sync
 484              	.LVL35:
 485              		.loc 1 135 9 view .LVU132
 486              		.loc 1 135 16 is_stmt 0 view .LVU133
 487 004a 2046     		mov	r0, r4
 488 004c E9E7     		b	.L60
 489              	.LVL36:
 490              	.L79:
 491              		.cfi_def_cfa_offset 0
 492              		.cfi_restore 4
 493              		.cfi_restore 5
 494              		.cfi_restore 14
 495              		.loc 1 121 16 view .LVU134
 496 004e 0420     		movs	r0, #4
 497              	.LVL37:
 498              		.loc 1 153 1 view .LVU135
 499 0050 7047     		bx	lr
 500              	.LVL38:
 501              	.L69:
 502              		.cfi_def_cfa_offset 24
 503              		.cfi_offset 4, -12
 504              		.cfi_offset 5, -8
 505              		.cfi_offset 14, -4
 506              		.loc 1 125 16 view .LVU136
 507 0052 0320     		movs	r0, #3
 508              		.loc 1 153 1 view .LVU137
 509 0054 03B0     		add	sp, sp, #12
 510              		.cfi_remember_state
 511              		.cfi_def_cfa_offset 12
 512              		@ sp needed
 513 0056 30BD     		pop	{r4, r5, pc}
ARM GAS  C:\Users\DEVELO~1\AppData\Local\Temp\ccmY94sC.s 			page 10


 514              	.LVL39:
 515              	.L71:
 516              		.cfi_restore_state
 517              	.LBB11:
 518              		.loc 1 139 20 view .LVU138
 519 0058 2046     		mov	r0, r4
 520 005a E2E7     		b	.L60
 521              	.LBE11:
 522              		.cfi_endproc
 523              	.LFE453:
 524              		.size	disk_ioctl, .-disk_ioctl
 525              		.section	.data.sd_status,"aw"
 526              		.set	.LANCHOR0,. + 0
 527              		.type	sd_status, %object
 528              		.size	sd_status, 1
 529              	sd_status:
 530 0000 01       		.byte	1
 531              		.text
 532              	.Letext0:
 533              		.file 2 "c:\\chibistudio\\tools\\gnu tools arm embedded\\11.3 2022.08\\arm-none-eabi\\include\\mac
 534              		.file 3 "c:\\chibistudio\\tools\\gnu tools arm embedded\\11.3 2022.08\\arm-none-eabi\\include\\sys
 535              		.file 4 "drivers/sd/ff16/ff.h"
 536              		.file 5 "drivers/sd/ff16/diskio.h"
 537              		.file 6 "c:\\chibistudio\\tools\\gnu tools arm embedded\\11.3 2022.08\\lib\\gcc\\arm-none-eabi\\11
 538              		.file 7 "./docs/ChibiOS/os/hal/include/hal_ioblock.h"
 539              		.file 8 "drivers/sd/drv_sd_hal.h"