ARM GAS  C:\Users\DEVELO~1\AppData\Local\Temp\ccI4EJGJ.s 			page 1


   1              		.cpu cortex-m7
   2              		.arch armv7e-m
   3              		.fpu fpv5-d16
   4              		.eabi_attribute 28, 1
   5              		.eabi_attribute 20, 1
   6              		.eabi_attribute 21, 1
   7              		.eabi_attribute 23, 3
   8              		.eabi_attribute 24, 1
   9              		.eabi_attribute 25, 1
  10              		.eabi_attribute 26, 1
  11              		.eabi_attribute 30, 2
  12              		.eabi_attribute 34, 1
  13              		.eabi_attribute 18, 4
  14              		.file	"drivers.c"
  15              		.text
  16              	.Ltext0:
  17              		.cfi_sections	.debug_frame
  18              		.section	.text.drivers_init_all,"ax",%progbits
  19              		.align	1
  20              		.p2align 2,,3
  21              		.global	drivers_init_all
  22              		.syntax unified
  23              		.thumb
  24              		.thumb_func
  25              		.type	drivers_init_all, %function
  26              	drivers_init_all:
  27              	.LFB448:
  28              		.file 1 "drivers/drivers.c"
  29              		.loc 1 9 29 view -0
  30              		.cfi_startproc
  31              		@ args = 0, pretend = 0, frame = 0
  32              		@ frame_needed = 0, uses_anonymous_args = 0
  33              		.loc 1 10 5 view .LVU1
  34              		.loc 1 9 29 is_stmt 0 view .LVU2
  35 0000 08B5     		push	{r3, lr}
  36              		.cfi_def_cfa_offset 8
  37              		.cfi_offset 3, -8
  38              		.cfi_offset 14, -4
  39              		.loc 1 10 5 view .LVU3
  40 0002 FFF7FEFF 		bl	drv_display_init
  41              	.LVL0:
  42              		.loc 1 11 5 is_stmt 1 view .LVU4
  43 0006 FFF7FEFF 		bl	drv_leds_addr_init
  44              	.LVL1:
  45              		.loc 1 12 5 view .LVU5
  46 000a FFF7FEFF 		bl	drv_buttons_start
  47              	.LVL2:
  48              		.loc 1 13 5 view .LVU6
  49 000e FFF7FEFF 		bl	drv_encoders_start
  50              	.LVL3:
  51              		.loc 1 14 5 view .LVU7
  52              		.loc 1 15 1 is_stmt 0 view .LVU8
  53 0012 BDE80840 		pop	{r3, lr}
  54              		.cfi_restore 14
  55              		.cfi_restore 3
  56              		.cfi_def_cfa_offset 0
  57              		.loc 1 14 5 view .LVU9
ARM GAS  C:\Users\DEVELO~1\AppData\Local\Temp\ccI4EJGJ.s 			page 2


  58 0016 FFF7FEBF 		b	drv_pots_start
  59              	.LVL4:
  60              		.cfi_endproc
  61              	.LFE448:
  62              		.size	drivers_init_all, .-drivers_init_all
  63 001a 00BF     		.section	.text.drivers_update_all,"ax",%progbits
  64              		.align	1
  65              		.p2align 2,,3
  66              		.global	drivers_update_all
  67              		.syntax unified
  68              		.thumb
  69              		.thumb_func
  70              		.type	drivers_update_all, %function
  71              	drivers_update_all:
  72              	.LFB449:
  73              		.loc 1 18 31 is_stmt 1 view -0
  74              		.cfi_startproc
  75              		@ args = 0, pretend = 0, frame = 0
  76              		@ frame_needed = 0, uses_anonymous_args = 0
  77              		@ link register save eliminated.
  78              		.loc 1 21 5 view .LVU11
  79 0000 FFF7FEBF 		b	drv_display_update
  80              	.LVL5:
  81              		.cfi_endproc
  82              	.LFE449:
  83              		.size	drivers_update_all, .-drivers_update_all
  84              		.text
  85              	.Letext0:
  86              		.file 2 "drivers/drv_display.h"
  87              		.file 3 "drivers/drv_pots.h"
  88              		.file 4 "drivers/drv_encoders.h"
  89              		.file 5 "drivers/drv_buttons.h"
  90              		.file 6 "drivers/drv_leds_addr.h"
  91              		.section	.debug_info,"",%progbits
  92              	.Ldebug_info0:
  93 0000 0E010000 		.4byte	0x10e
  94 0004 0500     		.2byte	0x5
  95 0006 01       		.byte	0x1
  96 0007 04       		.byte	0x4
  97 0008 00000000 		.4byte	.Ldebug_abbrev0
  98 000c 05       		.uleb128 0x5
  99 000d 9C000000 		.4byte	.LASF18
 100 0011 1D       		.byte	0x1d
 101 0012 45010000 		.4byte	.LASF19
 102 0016 5D010000 		.4byte	.LASF20
 103 001a 0C000000 		.4byte	.LLRL0
 104 001e 00000000 		.4byte	0
 105 0022 00000000 		.4byte	.Ldebug_line0
 106 0026 06       		.uleb128 0x6
 107 0027 04       		.byte	0x4
 108 0028 05       		.byte	0x5
 109 0029 696E7400 		.ascii	"int\000"
 110 002d 01       		.uleb128 0x1
 111 002e 04       		.byte	0x4
 112 002f 07       		.byte	0x7
 113 0030 0E000000 		.4byte	.LASF0
 114 0034 01       		.uleb128 0x1
ARM GAS  C:\Users\DEVELO~1\AppData\Local\Temp\ccI4EJGJ.s 			page 3


 115 0035 08       		.byte	0x8
 116 0036 05       		.byte	0x5
 117 0037 00000000 		.4byte	.LASF1
 118 003b 01       		.uleb128 0x1
 119 003c 08       		.byte	0x8
 120 003d 04       		.byte	0x4
 121 003e CB010000 		.4byte	.LASF2
 122 0042 01       		.uleb128 0x1
 123 0043 01       		.byte	0x1
 124 0044 06       		.byte	0x6
 125 0045 AE010000 		.4byte	.LASF3
 126 0049 01       		.uleb128 0x1
 127 004a 01       		.byte	0x1
 128 004b 08       		.byte	0x8
 129 004c 89000000 		.4byte	.LASF4
 130 0050 01       		.uleb128 0x1
 131 0051 02       		.byte	0x2
 132 0052 05       		.byte	0x5
 133 0053 EA010000 		.4byte	.LASF5
 134 0057 01       		.uleb128 0x1
 135 0058 02       		.byte	0x2
 136 0059 07       		.byte	0x7
 137 005a 9B010000 		.4byte	.LASF6
 138 005e 01       		.uleb128 0x1
 139 005f 04       		.byte	0x4
 140 0060 05       		.byte	0x5
 141 0061 3C010000 		.4byte	.LASF7
 142 0065 01       		.uleb128 0x1
 143 0066 04       		.byte	0x4
 144 0067 07       		.byte	0x7
 145 0068 60000000 		.4byte	.LASF8
 146 006c 01       		.uleb128 0x1
 147 006d 08       		.byte	0x8
 148 006e 07       		.byte	0x7
 149 006f 72000000 		.4byte	.LASF9
 150 0073 01       		.uleb128 0x1
 151 0074 01       		.byte	0x1
 152 0075 08       		.byte	0x8
 153 0076 97000000 		.4byte	.LASF10
 154 007a 01       		.uleb128 0x1
 155 007b 01       		.byte	0x1
 156 007c 02       		.byte	0x2
 157 007d 57010000 		.4byte	.LASF11
 158 0081 02       		.uleb128 0x2
 159 0082 F4010000 		.4byte	.LASF12
 160 0086 02       		.byte	0x2
 161 0087 14       		.byte	0x14
 162 0088 06       		.byte	0x6
 163 0089 02       		.uleb128 0x2
 164 008a 51000000 		.4byte	.LASF13
 165 008e 03       		.byte	0x3
 166 008f 07       		.byte	0x7
 167 0090 0A       		.byte	0xa
 168 0091 02       		.uleb128 0x2
 169 0092 D7010000 		.4byte	.LASF14
 170 0096 04       		.byte	0x4
 171 0097 0D       		.byte	0xd
ARM GAS  C:\Users\DEVELO~1\AppData\Local\Temp\ccI4EJGJ.s 			page 4


 172 0098 09       		.byte	0x9
 173 0099 02       		.uleb128 0x2
 174 009a 2E000000 		.4byte	.LASF15
 175 009e 05       		.byte	0x5
 176 009f 0A       		.byte	0xa
 177 00a0 0A       		.byte	0xa
 178 00a1 02       		.uleb128 0x2
 179 00a2 07020000 		.4byte	.LASF16
 180 00a6 06       		.byte	0x6
 181 00a7 5D       		.byte	0x5d
 182 00a8 06       		.byte	0x6
 183 00a9 02       		.uleb128 0x2
 184 00aa BA010000 		.4byte	.LASF17
 185 00ae 02       		.byte	0x2
 186 00af 12       		.byte	0x12
 187 00b0 06       		.byte	0x6
 188 00b1 07       		.uleb128 0x7
 189 00b2 1B000000 		.4byte	.LASF21
 190 00b6 01       		.byte	0x1
 191 00b7 12       		.byte	0x12
 192 00b8 06       		.byte	0x6
 193 00b9 00000000 		.4byte	.LFB449
 194 00bd 04000000 		.4byte	.LFE449-.LFB449
 195 00c1 01       		.uleb128 0x1
 196 00c2 9C       		.byte	0x9c
 197 00c3 D1000000 		.4byte	0xd1
 198 00c7 04       		.uleb128 0x4
 199 00c8 04000000 		.4byte	.LVL5
 200 00cc 81000000 		.4byte	0x81
 201 00d0 00       		.byte	0
 202 00d1 08       		.uleb128 0x8
 203 00d2 40000000 		.4byte	.LASF22
 204 00d6 01       		.byte	0x1
 205 00d7 09       		.byte	0x9
 206 00d8 06       		.byte	0x6
 207 00d9 00000000 		.4byte	.LFB448
 208 00dd 1A000000 		.4byte	.LFE448-.LFB448
 209 00e1 01       		.uleb128 0x1
 210 00e2 9C       		.byte	0x9c
 211 00e3 03       		.uleb128 0x3
 212 00e4 06000000 		.4byte	.LVL0
 213 00e8 A9000000 		.4byte	0xa9
 214 00ec 03       		.uleb128 0x3
 215 00ed 0A000000 		.4byte	.LVL1
 216 00f1 A1000000 		.4byte	0xa1
 217 00f5 03       		.uleb128 0x3
 218 00f6 0E000000 		.4byte	.LVL2
 219 00fa 99000000 		.4byte	0x99
 220 00fe 03       		.uleb128 0x3
 221 00ff 12000000 		.4byte	.LVL3
 222 0103 91000000 		.4byte	0x91
 223 0107 04       		.uleb128 0x4
 224 0108 1A000000 		.4byte	.LVL4
 225 010c 89000000 		.4byte	0x89
 226 0110 00       		.byte	0
 227 0111 00       		.byte	0
 228              		.section	.debug_abbrev,"",%progbits
ARM GAS  C:\Users\DEVELO~1\AppData\Local\Temp\ccI4EJGJ.s 			page 5


 229              	.Ldebug_abbrev0:
 230 0000 01       		.uleb128 0x1
 231 0001 24       		.uleb128 0x24
 232 0002 00       		.byte	0
 233 0003 0B       		.uleb128 0xb
 234 0004 0B       		.uleb128 0xb
 235 0005 3E       		.uleb128 0x3e
 236 0006 0B       		.uleb128 0xb
 237 0007 03       		.uleb128 0x3
 238 0008 0E       		.uleb128 0xe
 239 0009 00       		.byte	0
 240 000a 00       		.byte	0
 241 000b 02       		.uleb128 0x2
 242 000c 2E       		.uleb128 0x2e
 243 000d 00       		.byte	0
 244 000e 3F       		.uleb128 0x3f
 245 000f 19       		.uleb128 0x19
 246 0010 03       		.uleb128 0x3
 247 0011 0E       		.uleb128 0xe
 248 0012 3A       		.uleb128 0x3a
 249 0013 0B       		.uleb128 0xb
 250 0014 3B       		.uleb128 0x3b
 251 0015 0B       		.uleb128 0xb
 252 0016 39       		.uleb128 0x39
 253 0017 0B       		.uleb128 0xb
 254 0018 27       		.uleb128 0x27
 255 0019 19       		.uleb128 0x19
 256 001a 3C       		.uleb128 0x3c
 257 001b 19       		.uleb128 0x19
 258 001c 00       		.byte	0
 259 001d 00       		.byte	0
 260 001e 03       		.uleb128 0x3
 261 001f 48       		.uleb128 0x48
 262 0020 00       		.byte	0
 263 0021 7D       		.uleb128 0x7d
 264 0022 01       		.uleb128 0x1
 265 0023 7F       		.uleb128 0x7f
 266 0024 13       		.uleb128 0x13
 267 0025 00       		.byte	0
 268 0026 00       		.byte	0
 269 0027 04       		.uleb128 0x4
 270 0028 48       		.uleb128 0x48
 271 0029 00       		.byte	0
 272 002a 7D       		.uleb128 0x7d
 273 002b 01       		.uleb128 0x1
 274 002c 8201     		.uleb128 0x82
 275 002e 19       		.uleb128 0x19
 276 002f 7F       		.uleb128 0x7f
 277 0030 13       		.uleb128 0x13
 278 0031 00       		.byte	0
 279 0032 00       		.byte	0
 280 0033 05       		.uleb128 0x5
 281 0034 11       		.uleb128 0x11
 282 0035 01       		.byte	0x1
 283 0036 25       		.uleb128 0x25
 284 0037 0E       		.uleb128 0xe
 285 0038 13       		.uleb128 0x13
ARM GAS  C:\Users\DEVELO~1\AppData\Local\Temp\ccI4EJGJ.s 			page 6


 286 0039 0B       		.uleb128 0xb
 287 003a 03       		.uleb128 0x3
 288 003b 0E       		.uleb128 0xe
 289 003c 1B       		.uleb128 0x1b
 290 003d 0E       		.uleb128 0xe
 291 003e 55       		.uleb128 0x55
 292 003f 17       		.uleb128 0x17
 293 0040 11       		.uleb128 0x11
 294 0041 01       		.uleb128 0x1
 295 0042 10       		.uleb128 0x10
 296 0043 17       		.uleb128 0x17
 297 0044 00       		.byte	0
 298 0045 00       		.byte	0
 299 0046 06       		.uleb128 0x6
 300 0047 24       		.uleb128 0x24
 301 0048 00       		.byte	0
 302 0049 0B       		.uleb128 0xb
 303 004a 0B       		.uleb128 0xb
 304 004b 3E       		.uleb128 0x3e
 305 004c 0B       		.uleb128 0xb
 306 004d 03       		.uleb128 0x3
 307 004e 08       		.uleb128 0x8
 308 004f 00       		.byte	0
 309 0050 00       		.byte	0
 310 0051 07       		.uleb128 0x7
 311 0052 2E       		.uleb128 0x2e
 312 0053 01       		.byte	0x1
 313 0054 3F       		.uleb128 0x3f
 314 0055 19       		.uleb128 0x19
 315 0056 03       		.uleb128 0x3
 316 0057 0E       		.uleb128 0xe
 317 0058 3A       		.uleb128 0x3a
 318 0059 0B       		.uleb128 0xb
 319 005a 3B       		.uleb128 0x3b
 320 005b 0B       		.uleb128 0xb
 321 005c 39       		.uleb128 0x39
 322 005d 0B       		.uleb128 0xb
 323 005e 27       		.uleb128 0x27
 324 005f 19       		.uleb128 0x19
 325 0060 11       		.uleb128 0x11
 326 0061 01       		.uleb128 0x1
 327 0062 12       		.uleb128 0x12
 328 0063 06       		.uleb128 0x6
 329 0064 40       		.uleb128 0x40
 330 0065 18       		.uleb128 0x18
 331 0066 7A       		.uleb128 0x7a
 332 0067 19       		.uleb128 0x19
 333 0068 01       		.uleb128 0x1
 334 0069 13       		.uleb128 0x13
 335 006a 00       		.byte	0
 336 006b 00       		.byte	0
 337 006c 08       		.uleb128 0x8
 338 006d 2E       		.uleb128 0x2e
 339 006e 01       		.byte	0x1
 340 006f 3F       		.uleb128 0x3f
 341 0070 19       		.uleb128 0x19
 342 0071 03       		.uleb128 0x3
ARM GAS  C:\Users\DEVELO~1\AppData\Local\Temp\ccI4EJGJ.s 			page 7


 343 0072 0E       		.uleb128 0xe
 344 0073 3A       		.uleb128 0x3a
 345 0074 0B       		.uleb128 0xb
 346 0075 3B       		.uleb128 0x3b
 347 0076 0B       		.uleb128 0xb
 348 0077 39       		.uleb128 0x39
 349 0078 0B       		.uleb128 0xb
 350 0079 27       		.uleb128 0x27
 351 007a 19       		.uleb128 0x19
 352 007b 11       		.uleb128 0x11
 353 007c 01       		.uleb128 0x1
 354 007d 12       		.uleb128 0x12
 355 007e 06       		.uleb128 0x6
 356 007f 40       		.uleb128 0x40
 357 0080 18       		.uleb128 0x18
 358 0081 7A       		.uleb128 0x7a
 359 0082 19       		.uleb128 0x19
 360 0083 00       		.byte	0
 361 0084 00       		.byte	0
 362 0085 00       		.byte	0
 363              		.section	.debug_aranges,"",%progbits
 364 0000 24000000 		.4byte	0x24
 365 0004 0200     		.2byte	0x2
 366 0006 00000000 		.4byte	.Ldebug_info0
 367 000a 04       		.byte	0x4
 368 000b 00       		.byte	0
 369 000c 0000     		.2byte	0
 370 000e 0000     		.2byte	0
 371 0010 00000000 		.4byte	.LFB448
 372 0014 1A000000 		.4byte	.LFE448-.LFB448
 373 0018 00000000 		.4byte	.LFB449
 374 001c 04000000 		.4byte	.LFE449-.LFB449
 375 0020 00000000 		.4byte	0
 376 0024 00000000 		.4byte	0
 377              		.section	.debug_rnglists,"",%progbits
 378              	.Ldebug_ranges0:
 379 0000 15000000 		.4byte	.Ldebug_ranges3-.Ldebug_ranges2
 380              	.Ldebug_ranges2:
 381 0004 0500     		.2byte	0x5
 382 0006 04       		.byte	0x4
 383 0007 00       		.byte	0
 384 0008 00000000 		.4byte	0
 385              	.LLRL0:
 386 000c 07       		.byte	0x7
 387 000d 00000000 		.4byte	.LFB448
 388 0011 1A       		.uleb128 .LFE448-.LFB448
 389 0012 07       		.byte	0x7
 390 0013 00000000 		.4byte	.LFB449
 391 0017 04       		.uleb128 .LFE449-.LFB449
 392 0018 00       		.byte	0
 393              	.Ldebug_ranges3:
 394              		.section	.debug_line,"",%progbits
 395              	.Ldebug_line0:
 396 0000 BC000000 		.section	.debug_str,"MS",%progbits,1
 396      03007D00 
 396      00000201 
 396      FB0E0D00 
ARM GAS  C:\Users\DEVELO~1\AppData\Local\Temp\ccI4EJGJ.s 			page 8


 396      01010101 
 397              	.LASF1:
 398 0000 6C6F6E67 		.ascii	"long long int\000"
 398      206C6F6E 
 398      6720696E 
 398      7400
 399              	.LASF0:
 400 000e 756E7369 		.ascii	"unsigned int\000"
 400      676E6564 
 400      20696E74 
 400      00
 401              	.LASF21:
 402 001b 64726976 		.ascii	"drivers_update_all\000"
 402      6572735F 
 402      75706461 
 402      74655F61 
 402      6C6C00
 403              	.LASF15:
 404 002e 6472765F 		.ascii	"drv_buttons_start\000"
 404      62757474 
 404      6F6E735F 
 404      73746172 
 404      7400
 405              	.LASF22:
 406 0040 64726976 		.ascii	"drivers_init_all\000"
 406      6572735F 
 406      696E6974 
 406      5F616C6C 
 406      00
 407              	.LASF13:
 408 0051 6472765F 		.ascii	"drv_pots_start\000"
 408      706F7473 
 408      5F737461 
 408      727400
 409              	.LASF8:
 410 0060 6C6F6E67 		.ascii	"long unsigned int\000"
 410      20756E73 
 410      69676E65 
 410      6420696E 
 410      7400
 411              	.LASF9:
 412 0072 6C6F6E67 		.ascii	"long long unsigned int\000"
 412      206C6F6E 
 412      6720756E 
 412      7369676E 
 412      65642069 
 413              	.LASF4:
 414 0089 756E7369 		.ascii	"unsigned char\000"
 414      676E6564 
 414      20636861 
 414      7200
 415              	.LASF10:
 416 0097 63686172 		.ascii	"char\000"
 416      00
 417              	.LASF18:
 418 009c 474E5520 		.ascii	"GNU C17 11.3.1 20220712 -mcpu=cortex-m7 -mthumb -mf"
 418      43313720 
ARM GAS  C:\Users\DEVELO~1\AppData\Local\Temp\ccI4EJGJ.s 			page 9


 418      31312E33 
 418      2E312032 
 418      30323230 
 419 00cf 6C6F6174 		.ascii	"loat-abi=hard -mfpu=fpv5-d16 -march=armv7e-m+fp.dp "
 419      2D616269 
 419      3D686172 
 419      64202D6D 
 419      6670753D 
 420 0102 2D676764 		.ascii	"-ggdb -O2 -ffunction-sections -fdata-sections -fno-"
 420      62202D4F 
 420      32202D66 
 420      66756E63 
 420      74696F6E 
 421 0135 636F6D6D 		.ascii	"common\000"
 421      6F6E00
 422              	.LASF7:
 423 013c 6C6F6E67 		.ascii	"long int\000"
 423      20696E74 
 423      00
 424              	.LASF19:
 425 0145 64726976 		.ascii	"drivers/drivers.c\000"
 425      6572732F 
 425      64726976 
 425      6572732E 
 425      6300
 426              	.LASF11:
 427 0157 5F426F6F 		.ascii	"_Bool\000"
 427      6C00
 428              	.LASF20:
 429 015d 433A5C43 		.ascii	"C:\\ChibiStudio\\ChibiOS-master\\demos\\STM32\\CUST"
 429      68696269 
 429      53747564 
 429      696F5C43 
 429      68696269 
 430 018b 4F4D5F48 		.ascii	"OM_H743IIT6_maj\000"
 430      37343349 
 430      4954365F 
 430      6D616A00 
 431              	.LASF6:
 432 019b 73686F72 		.ascii	"short unsigned int\000"
 432      7420756E 
 432      7369676E 
 432      65642069 
 432      6E7400
 433              	.LASF3:
 434 01ae 7369676E 		.ascii	"signed char\000"
 434      65642063 
 434      68617200 
 435              	.LASF17:
 436 01ba 6472765F 		.ascii	"drv_display_init\000"
 436      64697370 
 436      6C61795F 
 436      696E6974 
 436      00
 437              	.LASF2:
 438 01cb 6C6F6E67 		.ascii	"long double\000"
 438      20646F75 
ARM GAS  C:\Users\DEVELO~1\AppData\Local\Temp\ccI4EJGJ.s 			page 10


 438      626C6500 
 439              	.LASF14:
 440 01d7 6472765F 		.ascii	"drv_encoders_start\000"
 440      656E636F 
 440      64657273 
 440      5F737461 
 440      727400
 441              	.LASF5:
 442 01ea 73686F72 		.ascii	"short int\000"
 442      7420696E 
 442      7400
 443              	.LASF12:
 444 01f4 6472765F 		.ascii	"drv_display_update\000"
 444      64697370 
 444      6C61795F 
 444      75706461 
 444      746500
 445              	.LASF16:
 446 0207 6472765F 		.ascii	"drv_leds_addr_init\000"
 446      6C656473 
 446      5F616464 
 446      725F696E 
 446      697400
 447              		.ident	"GCC: (Arm GNU Toolchain 11.3.Rel1) 11.3.1 20220712"
ARM GAS  C:\Users\DEVELO~1\AppData\Local\Temp\ccI4EJGJ.s 			page 11


DEFINED SYMBOLS
                            *ABS*:00000000 drivers.c
C:\Users\DEVELO~1\AppData\Local\Temp\ccI4EJGJ.s:19     .text.drivers_init_all:00000000 $t
C:\Users\DEVELO~1\AppData\Local\Temp\ccI4EJGJ.s:26     .text.drivers_init_all:00000000 drivers_init_all
C:\Users\DEVELO~1\AppData\Local\Temp\ccI4EJGJ.s:64     .text.drivers_update_all:00000000 $t
C:\Users\DEVELO~1\AppData\Local\Temp\ccI4EJGJ.s:71     .text.drivers_update_all:00000000 drivers_update_all

UNDEFINED SYMBOLS
drv_display_init
drv_leds_addr_init
drv_buttons_start
drv_encoders_start
drv_pots_start
drv_display_update
