ARM GAS  C:\Users\DEVELO~1\AppData\Local\Temp\ccGl4AbU.s 			page 1


   1              		.cpu cortex-m7
   2              		.arch armv7e-m
   3              		.fpu fpv5-d16
   4              		.eabi_attribute 28, 1
   5              		.eabi_attribute 20, 1
   6              		.eabi_attribute 21, 1
   7              		.eabi_attribute 23, 3
   8              		.eabi_attribute 24, 1
   9              		.eabi_attribute 25, 1
  10              		.eabi_attribute 26, 1
  11              		.eabi_attribute 30, 2
  12              		.eabi_attribute 34, 1
  13              		.eabi_attribute 18, 4
  14              		.file	"drivers.c"
  15              		.text
  16              	.Ltext0:
  17              		.cfi_sections	.debug_frame
  18              		.section	.text.drivers_init_all,"ax",%progbits
  19              		.align	1
  20              		.p2align 2,,3
  21              		.global	drivers_init_all
  22              		.syntax unified
  23              		.thumb
  24              		.thumb_func
  25              		.type	drivers_init_all, %function
  26              	drivers_init_all:
  27              	.LFB448:
  28              		.file 1 "drivers/drivers.c"
  29              		.loc 1 11 29 view -0
  30              		.cfi_startproc
  31              		@ args = 0, pretend = 0, frame = 0
  32              		@ frame_needed = 0, uses_anonymous_args = 0
  33              		.loc 1 12 5 view .LVU1
  34              		.loc 1 11 29 is_stmt 0 view .LVU2
  35 0000 08B5     		push	{r3, lr}
  36              		.cfi_def_cfa_offset 8
  37              		.cfi_offset 3, -8
  38              		.cfi_offset 14, -4
  39              		.loc 1 12 5 view .LVU3
  40 0002 0848     		ldr	r0, .L4
  41 0004 FFF7FEFF 		bl	chMtxObjectInit
  42              	.LVL0:
  43              		.loc 1 20 5 is_stmt 1 view .LVU4
  44 0008 FFF7FEFF 		bl	drv_display_init
  45              	.LVL1:
  46              		.loc 1 21 5 view .LVU5
  47 000c FFF7FEFF 		bl	drv_display_start
  48              	.LVL2:
  49              		.loc 1 22 5 view .LVU6
  50 0010 FFF7FEFF 		bl	drv_leds_addr_init
  51              	.LVL3:
  52              		.loc 1 23 5 view .LVU7
  53 0014 FFF7FEFF 		bl	drv_buttons_start
  54              	.LVL4:
  55              		.loc 1 24 5 view .LVU8
  56 0018 FFF7FEFF 		bl	drv_encoders_start
  57              	.LVL5:
ARM GAS  C:\Users\DEVELO~1\AppData\Local\Temp\ccGl4AbU.s 			page 2


  58              		.loc 1 25 5 view .LVU9
  59              		.loc 1 26 1 is_stmt 0 view .LVU10
  60 001c BDE80840 		pop	{r3, lr}
  61              		.cfi_restore 14
  62              		.cfi_restore 3
  63              		.cfi_def_cfa_offset 0
  64              		.loc 1 25 5 view .LVU11
  65 0020 FFF7FEBF 		b	drv_pots_start
  66              	.LVL6:
  67              	.L5:
  68              		.align	2
  69              	.L4:
  70 0024 00000000 		.word	.LANCHOR0
  71              		.cfi_endproc
  72              	.LFE448:
  73              		.size	drivers_init_all, .-drivers_init_all
  74              		.section	.text.drivers_update_all,"ax",%progbits
  75              		.align	1
  76              		.p2align 2,,3
  77              		.global	drivers_update_all
  78              		.syntax unified
  79              		.thumb
  80              		.thumb_func
  81              		.type	drivers_update_all, %function
  82              	drivers_update_all:
  83              	.LFB449:
  84              		.loc 1 29 31 is_stmt 1 view -0
  85              		.cfi_startproc
  86              		@ args = 0, pretend = 0, frame = 0
  87              		@ frame_needed = 0, uses_anonymous_args = 0
  88              		@ link register save eliminated.
  89              		.loc 1 32 5 view .LVU13
  90 0000 FFF7FEBF 		b	drv_display_update
  91              	.LVL7:
  92              		.cfi_endproc
  93              	.LFE449:
  94              		.size	drivers_update_all, .-drivers_update_all
  95              		.global	spi5_mutex
  96              		.section	.bss.spi5_mutex,"aw",%nobits
  97              		.align	2
  98              		.set	.LANCHOR0,. + 0
  99              		.type	spi5_mutex, %object
 100              		.size	spi5_mutex, 16
 101              	spi5_mutex:
 102 0000 00000000 		.space	16
 102      00000000 
 102      00000000 
 102      00000000 
 103              		.text
 104              	.Letext0:
 105              		.file 2 "c:\\chibistudio\\tools\\gnu tools arm embedded\\11.3 2022.08\\lib\\gcc\\arm-none-eabi\\11
 106              		.file 3 "c:\\chibistudio\\tools\\gnu tools arm embedded\\11.3 2022.08\\arm-none-eabi\\include\\mac
 107              		.file 4 "c:\\chibistudio\\tools\\gnu tools arm embedded\\11.3 2022.08\\arm-none-eabi\\include\\sys
 108              		.file 5 "./docs/ChibiOS/os/common/ports/ARM-common/include/chtypes.h"
 109              		.file 6 "./docs/ChibiOS/os/rt/include/chearly.h"
 110              		.file 7 "./docs/ChibiOS/os/rt/include/chobjects.h"
 111              		.file 8 "./docs/ChibiOS/os/rt/include/chrfcu.h"
ARM GAS  C:\Users\DEVELO~1\AppData\Local\Temp\ccGl4AbU.s 			page 3


 112              		.file 9 "./docs/ChibiOS/os/rt/include/chdebug.h"
 113              		.file 10 "./docs/ChibiOS/os/rt/include/chtime.h"
 114              		.file 11 "./docs/ChibiOS/os/rt/include/chtrace.h"
 115              		.file 12 "./docs/ChibiOS/os/common/ports/ARMv7-M/chcore.h"
 116              		.file 13 "./docs/ChibiOS/os/rt/include/chlists.h"
 117              		.file 14 "./docs/ChibiOS/os/rt/include/chsem.h"
 118              		.file 15 "./docs/ChibiOS/os/rt/include/chmtx.h"
 119              		.file 16 "drivers/drv_display.h"
 120              		.file 17 "drivers/drv_pots.h"
 121              		.file 18 "drivers/drv_encoders.h"
 122              		.file 19 "drivers/drv_buttons.h"
 123              		.file 20 "drivers/drv_leds_addr.h"
 124              		.file 21 "drivers/drivers.h"