ARM GAS  C:\Users\DEVELO~1\AppData\Local\Temp\ccYfsuUi.s 			page 1


   1              		.cpu cortex-m7
   2              		.arch armv7e-m
   3              		.fpu fpv5-d16
   4              		.eabi_attribute 28, 1
   5              		.eabi_attribute 20, 1
   6              		.eabi_attribute 21, 1
   7              		.eabi_attribute 23, 3
   8              		.eabi_attribute 24, 1
   9              		.eabi_attribute 25, 1
  10              		.eabi_attribute 26, 1
  11              		.eabi_attribute 30, 2
  12              		.eabi_attribute 34, 1
  13              		.eabi_attribute 18, 4
  14              		.file	"drv_sd_hal.c"
  15              		.text
  16              	.Ltext0:
  17              		.cfi_sections	.debug_frame
  18              		.section	.text.drv_sd_hal_init,"ax",%progbits
  19              		.align	1
  20              		.p2align 2,,3
  21              		.global	drv_sd_hal_init
  22              		.syntax unified
  23              		.thumb
  24              		.thumb_func
  25              		.type	drv_sd_hal_init, %function
  26              	drv_sd_hal_init:
  27              	.LFB448:
  28              		.file 1 "drivers/sd/drv_sd_hal.c"
  29              		.loc 1 17 28 view -0
  30              		.cfi_startproc
  31              		@ args = 0, pretend = 0, frame = 0
  32              		@ frame_needed = 0, uses_anonymous_args = 0
  33              		.loc 1 18 5 view .LVU1
  34              		.loc 1 17 28 is_stmt 0 view .LVU2
  35 0000 10B5     		push	{r4, lr}
  36              		.cfi_def_cfa_offset 8
  37              		.cfi_offset 4, -8
  38              		.cfi_offset 14, -4
  39              		.loc 1 18 9 view .LVU3
  40 0002 074C     		ldr	r4, .L6
  41              		.loc 1 18 8 view .LVU4
  42 0004 2378     		ldrb	r3, [r4]	@ zero_extendqisi2
  43 0006 03B1     		cbz	r3, .L5
  44              		.loc 1 23 1 view .LVU5
  45 0008 10BD     		pop	{r4, pc}
  46              	.L5:
  47              		.loc 1 19 9 is_stmt 1 view .LVU6
  48 000a 0648     		ldr	r0, .L6+4
  49 000c FFF7FEFF 		bl	sdcObjectInit
  50              	.LVL0:
  51              		.loc 1 20 9 view .LVU7
  52 0010 0549     		ldr	r1, .L6+8
  53 0012 0448     		ldr	r0, .L6+4
  54 0014 FFF7FEFF 		bl	sdcStart
  55              	.LVL1:
  56              		.loc 1 21 9 view .LVU8
  57              		.loc 1 21 28 is_stmt 0 view .LVU9
ARM GAS  C:\Users\DEVELO~1\AppData\Local\Temp\ccYfsuUi.s 			page 2


  58 0018 0123     		movs	r3, #1
  59 001a 2370     		strb	r3, [r4]
  60              		.loc 1 23 1 view .LVU10
  61 001c 10BD     		pop	{r4, pc}
  62              	.L7:
  63 001e 00BF     		.align	2
  64              	.L6:
  65 0020 00000000 		.word	.LANCHOR0
  66 0024 00000000 		.word	SDCD1
  67 0028 00000000 		.word	.LANCHOR1
  68              		.cfi_endproc
  69              	.LFE448:
  70              		.size	drv_sd_hal_init, .-drv_sd_hal_init
  71              		.section	.text.drv_sd_hal_deinit,"ax",%progbits
  72              		.align	1
  73              		.p2align 2,,3
  74              		.global	drv_sd_hal_deinit
  75              		.syntax unified
  76              		.thumb
  77              		.thumb_func
  78              		.type	drv_sd_hal_deinit, %function
  79              	drv_sd_hal_deinit:
  80              	.LFB449:
  81              		.loc 1 25 30 is_stmt 1 view -0
  82              		.cfi_startproc
  83              		@ args = 0, pretend = 0, frame = 0
  84              		@ frame_needed = 0, uses_anonymous_args = 0
  85              		.loc 1 26 5 view .LVU12
  86              	.LBB16:
  87              	.LBI16:
  88              		.loc 1 96 6 view .LVU13
  89              	.LBB17:
  90              		.loc 1 97 5 view .LVU14
  91              	.LBE17:
  92              	.LBE16:
  93              		.loc 1 25 30 is_stmt 0 view .LVU15
  94 0000 10B5     		push	{r4, lr}
  95              		.cfi_def_cfa_offset 8
  96              		.cfi_offset 4, -8
  97              		.cfi_offset 14, -4
  98              	.LBB19:
  99              	.LBB18:
 100              		.loc 1 97 11 view .LVU16
 101 0002 044C     		ldr	r4, .L10
 102 0004 2046     		mov	r0, r4
 103 0006 FFF7FEFF 		bl	sdcSync
 104              	.LVL2:
 105              	.LBE18:
 106              	.LBE19:
 107              		.loc 1 27 5 is_stmt 1 view .LVU17
 108 000a 2046     		mov	r0, r4
 109              		.loc 1 28 1 is_stmt 0 view .LVU18
 110 000c BDE81040 		pop	{r4, lr}
 111              		.cfi_restore 14
 112              		.cfi_restore 4
 113              		.cfi_def_cfa_offset 0
 114              		.loc 1 27 5 view .LVU19
ARM GAS  C:\Users\DEVELO~1\AppData\Local\Temp\ccYfsuUi.s 			page 3


 115 0010 FFF7FEBF 		b	sdcStop
 116              	.LVL3:
 117              	.L11:
 118              		.align	2
 119              	.L10:
 120 0014 00000000 		.word	SDCD1
 121              		.cfi_endproc
 122              	.LFE449:
 123              		.size	drv_sd_hal_deinit, .-drv_sd_hal_deinit
 124              		.section	.text.drv_sd_hal_is_card_present,"ax",%progbits
 125              		.align	1
 126              		.p2align 2,,3
 127              		.global	drv_sd_hal_is_card_present
 128              		.syntax unified
 129              		.thumb
 130              		.thumb_func
 131              		.type	drv_sd_hal_is_card_present, %function
 132              	drv_sd_hal_is_card_present:
 133              	.LFB450:
 134              		.loc 1 30 39 is_stmt 1 view -0
 135              		.cfi_startproc
 136              		@ args = 0, pretend = 0, frame = 0
 137              		@ frame_needed = 0, uses_anonymous_args = 0
 138              		@ link register save eliminated.
 139              		.loc 1 31 5 view .LVU21
 140              		.loc 1 31 12 is_stmt 0 view .LVU22
 141 0000 0148     		ldr	r0, .L13
 142 0002 FFF7FEBF 		b	sdc_lld_is_card_inserted
 143              	.LVL4:
 144              	.L14:
 145 0006 00BF     		.align	2
 146              	.L13:
 147 0008 00000000 		.word	SDCD1
 148              		.cfi_endproc
 149              	.LFE450:
 150              		.size	drv_sd_hal_is_card_present, .-drv_sd_hal_is_card_present
 151              		.section	.text.drv_sd_hal_connect,"ax",%progbits
 152              		.align	1
 153              		.p2align 2,,3
 154              		.global	drv_sd_hal_connect
 155              		.syntax unified
 156              		.thumb
 157              		.thumb_func
 158              		.type	drv_sd_hal_connect, %function
 159              	drv_sd_hal_connect:
 160              	.LFB451:
 161              		.loc 1 34 42 is_stmt 1 view -0
 162              		.cfi_startproc
 163              		@ args = 0, pretend = 0, frame = 0
 164              		@ frame_needed = 0, uses_anonymous_args = 0
 165              		.loc 1 35 5 view .LVU24
 166              		.loc 1 34 42 is_stmt 0 view .LVU25
 167 0000 10B5     		push	{r4, lr}
 168              		.cfi_def_cfa_offset 8
 169              		.cfi_offset 4, -8
 170              		.cfi_offset 14, -4
 171              		.loc 1 35 9 view .LVU26
ARM GAS  C:\Users\DEVELO~1\AppData\Local\Temp\ccYfsuUi.s 			page 4


 172 0002 0A4C     		ldr	r4, .L22
 173              		.loc 1 35 8 view .LVU27
 174 0004 2378     		ldrb	r3, [r4]	@ zero_extendqisi2
 175 0006 0BB1     		cbz	r3, .L21
 176              		.loc 1 36 16 view .LVU28
 177 0008 0020     		movs	r0, #0
 178              		.loc 1 46 1 view .LVU29
 179 000a 10BD     		pop	{r4, pc}
 180              	.L21:
 181              		.loc 1 38 5 is_stmt 1 view .LVU30
 182              	.LBB20:
 183              	.LBI20:
 184              		.loc 1 30 6 view .LVU31
 185              	.LBB21:
 186              		.loc 1 31 5 view .LVU32
 187              		.loc 1 31 12 is_stmt 0 view .LVU33
 188 000c 0848     		ldr	r0, .L22+4
 189 000e FFF7FEFF 		bl	sdc_lld_is_card_inserted
 190              	.LVL5:
 191              	.LBE21:
 192              	.LBE20:
 193              		.loc 1 38 8 view .LVU34
 194 0012 30B1     		cbz	r0, .L18
 195              		.loc 1 41 5 is_stmt 1 view .LVU35
 196              		.loc 1 41 9 is_stmt 0 view .LVU36
 197 0014 0648     		ldr	r0, .L22+4
 198 0016 FFF7FEFF 		bl	sdcConnect
 199              	.LVL6:
 200              		.loc 1 41 8 view .LVU37
 201 001a 20B9     		cbnz	r0, .L19
 202              		.loc 1 44 5 is_stmt 1 view .LVU38
 203              		.loc 1 44 18 is_stmt 0 view .LVU39
 204 001c 0123     		movs	r3, #1
 205 001e 2370     		strb	r3, [r4]
 206              		.loc 1 45 5 is_stmt 1 view .LVU40
 207              		.loc 1 46 1 is_stmt 0 view .LVU41
 208 0020 10BD     		pop	{r4, pc}
 209              	.L18:
 210              		.loc 1 39 16 view .LVU42
 211 0022 0120     		movs	r0, #1
 212              		.loc 1 46 1 view .LVU43
 213 0024 10BD     		pop	{r4, pc}
 214              	.L19:
 215              		.loc 1 42 16 view .LVU44
 216 0026 0220     		movs	r0, #2
 217              		.loc 1 46 1 view .LVU45
 218 0028 10BD     		pop	{r4, pc}
 219              	.L23:
 220 002a 00BF     		.align	2
 221              	.L22:
 222 002c 00000000 		.word	.LANCHOR2
 223 0030 00000000 		.word	SDCD1
 224              		.cfi_endproc
 225              	.LFE451:
 226              		.size	drv_sd_hal_connect, .-drv_sd_hal_connect
 227              		.section	.text.drv_sd_hal_disconnect,"ax",%progbits
 228              		.align	1
ARM GAS  C:\Users\DEVELO~1\AppData\Local\Temp\ccYfsuUi.s 			page 5


 229              		.p2align 2,,3
 230              		.global	drv_sd_hal_disconnect
 231              		.syntax unified
 232              		.thumb
 233              		.thumb_func
 234              		.type	drv_sd_hal_disconnect, %function
 235              	drv_sd_hal_disconnect:
 236              	.LFB452:
 237              		.loc 1 48 34 is_stmt 1 view -0
 238              		.cfi_startproc
 239              		@ args = 0, pretend = 0, frame = 0
 240              		@ frame_needed = 0, uses_anonymous_args = 0
 241              		.loc 1 49 5 view .LVU47
 242              		.loc 1 48 34 is_stmt 0 view .LVU48
 243 0000 10B5     		push	{r4, lr}
 244              		.cfi_def_cfa_offset 8
 245              		.cfi_offset 4, -8
 246              		.cfi_offset 14, -4
 247              		.loc 1 49 9 view .LVU49
 248 0002 054C     		ldr	r4, .L31
 249              		.loc 1 49 8 view .LVU50
 250 0004 2378     		ldrb	r3, [r4]	@ zero_extendqisi2
 251 0006 03B9     		cbnz	r3, .L30
 252              		.loc 1 54 1 view .LVU51
 253 0008 10BD     		pop	{r4, pc}
 254              	.L30:
 255              		.loc 1 52 5 is_stmt 1 view .LVU52
 256 000a 0448     		ldr	r0, .L31+4
 257 000c FFF7FEFF 		bl	sdcDisconnect
 258              	.LVL7:
 259              		.loc 1 53 5 view .LVU53
 260              		.loc 1 53 18 is_stmt 0 view .LVU54
 261 0010 0023     		movs	r3, #0
 262 0012 2370     		strb	r3, [r4]
 263              		.loc 1 54 1 view .LVU55
 264 0014 10BD     		pop	{r4, pc}
 265              	.L32:
 266 0016 00BF     		.align	2
 267              	.L31:
 268 0018 00000000 		.word	.LANCHOR2
 269 001c 00000000 		.word	SDCD1
 270              		.cfi_endproc
 271              	.LFE452:
 272              		.size	drv_sd_hal_disconnect, .-drv_sd_hal_disconnect
 273              		.section	.text.drv_sd_hal_read_blocks,"ax",%progbits
 274              		.align	1
 275              		.p2align 2,,3
 276              		.global	drv_sd_hal_read_blocks
 277              		.syntax unified
 278              		.thumb
 279              		.thumb_func
 280              		.type	drv_sd_hal_read_blocks, %function
 281              	drv_sd_hal_read_blocks:
 282              	.LVL8:
 283              	.LFB454:
 284              		.loc 1 72 90 is_stmt 1 view -0
 285              		.cfi_startproc
ARM GAS  C:\Users\DEVELO~1\AppData\Local\Temp\ccYfsuUi.s 			page 6


 286              		@ args = 0, pretend = 0, frame = 0
 287              		@ frame_needed = 0, uses_anonymous_args = 0
 288              		.loc 1 73 5 view .LVU57
 289              	.LBB28:
 290              	.LBI28:
 291              		.loc 1 30 6 view .LVU58
 292              	.LBB29:
 293              		.loc 1 31 5 view .LVU59
 294              	.LBE29:
 295              	.LBE28:
 296              		.loc 1 72 90 is_stmt 0 view .LVU60
 297 0000 70B5     		push	{r4, r5, r6, lr}
 298              		.cfi_def_cfa_offset 16
 299              		.cfi_offset 4, -16
 300              		.cfi_offset 5, -12
 301              		.cfi_offset 6, -8
 302              		.cfi_offset 14, -4
 303              		.loc 1 72 90 view .LVU61
 304 0002 0546     		mov	r5, r0
 305              	.LBB32:
 306              	.LBB30:
 307              		.loc 1 31 12 view .LVU62
 308 0004 0F48     		ldr	r0, .L42
 309              	.LVL9:
 310              		.loc 1 31 12 view .LVU63
 311              	.LBE30:
 312              	.LBE32:
 313              		.loc 1 72 90 view .LVU64
 314 0006 0C46     		mov	r4, r1
 315 0008 1646     		mov	r6, r2
 316              	.LBB33:
 317              	.LBB31:
 318              		.loc 1 31 12 view .LVU65
 319 000a FFF7FEFF 		bl	sdc_lld_is_card_inserted
 320              	.LVL10:
 321              		.loc 1 31 12 view .LVU66
 322              	.LBE31:
 323              	.LBE33:
 324              		.loc 1 73 8 view .LVU67
 325 000e 10B1     		cbz	r0, .L36
 326              		.loc 1 73 42 discriminator 1 view .LVU68
 327 0010 0D4B     		ldr	r3, .L42+4
 328              		.loc 1 73 39 discriminator 1 view .LVU69
 329 0012 1B78     		ldrb	r3, [r3]	@ zero_extendqisi2
 330 0014 0BB9     		cbnz	r3, .L41
 331              	.L36:
 332              		.loc 1 74 16 view .LVU70
 333 0016 0120     		movs	r0, #1
 334              	.L34:
 335              		.loc 1 82 1 view .LVU71
 336 0018 70BD     		pop	{r4, r5, r6, pc}
 337              	.LVL11:
 338              	.L41:
 339              		.loc 1 76 5 is_stmt 1 view .LVU72
 340              		.loc 1 76 17 is_stmt 0 view .LVU73
 341 001a 3346     		mov	r3, r6
 342 001c 2A46     		mov	r2, r5
ARM GAS  C:\Users\DEVELO~1\AppData\Local\Temp\ccYfsuUi.s 			page 7


 343 001e 2146     		mov	r1, r4
 344 0020 0848     		ldr	r0, .L42
 345 0022 FFF7FEFF 		bl	sdcRead
 346              	.LVL12:
 347              		.loc 1 77 5 is_stmt 1 view .LVU74
 348              		.loc 1 77 25 is_stmt 0 view .LVU75
 349 0026 0748     		ldr	r0, .L42
 350 0028 FFF7FEFF 		bl	sdcGetAndClearErrors
 351              	.LVL13:
 352              		.loc 1 78 5 is_stmt 1 view .LVU76
 353              		.loc 1 81 5 view .LVU77
 354              	.LBB34:
 355              	.LBI34:
 356              		.loc 1 56 24 view .LVU78
 357              	.LBB35:
 358              		.loc 1 57 5 view .LVU79
 359              		.loc 1 57 8 is_stmt 0 view .LVU80
 360 002c 0028     		cmp	r0, #0
 361 002e F3D0     		beq	.L34
 362              	.LVL14:
 363              	.LBB36:
 364              	.LBI36:
 365              		.loc 1 56 24 is_stmt 1 view .LVU81
 366              	.LBB37:
 367              		.loc 1 60 5 view .LVU82
 368              		.loc 1 60 8 is_stmt 0 view .LVU83
 369 0030 8307     		lsls	r3, r0, #30
 370 0032 05D1     		bne	.L38
 371              		.loc 1 63 5 is_stmt 1 view .LVU84
 372              		.loc 1 67 16 is_stmt 0 view .LVU85
 373 0034 10F00C0F 		tst	r0, #12
 374 0038 14BF     		ite	ne
 375 003a 0420     		movne	r0, #4
 376              	.LVL15:
 377              		.loc 1 67 16 view .LVU86
 378 003c 0220     		moveq	r0, #2
 379              		.loc 1 67 16 view .LVU87
 380              	.LBE37:
 381              	.LBE36:
 382              	.LBE35:
 383              	.LBE34:
 384              		.loc 1 82 1 view .LVU88
 385 003e 70BD     		pop	{r4, r5, r6, pc}
 386              	.LVL16:
 387              	.L38:
 388              	.LBB41:
 389              	.LBB40:
 390              	.LBB39:
 391              	.LBB38:
 392              		.loc 1 61 16 view .LVU89
 393 0040 0320     		movs	r0, #3
 394              	.LVL17:
 395              		.loc 1 61 16 view .LVU90
 396              	.LBE38:
 397              	.LBE39:
 398              	.LBE40:
 399              	.LBE41:
ARM GAS  C:\Users\DEVELO~1\AppData\Local\Temp\ccYfsuUi.s 			page 8


 400              		.loc 1 82 1 view .LVU91
 401 0042 70BD     		pop	{r4, r5, r6, pc}
 402              	.LVL18:
 403              	.L43:
 404              		.loc 1 82 1 view .LVU92
 405              		.align	2
 406              	.L42:
 407 0044 00000000 		.word	SDCD1
 408 0048 00000000 		.word	.LANCHOR2
 409              		.cfi_endproc
 410              	.LFE454:
 411              		.size	drv_sd_hal_read_blocks, .-drv_sd_hal_read_blocks
 412              		.section	.text.drv_sd_hal_write_blocks,"ax",%progbits
 413              		.align	1
 414              		.p2align 2,,3
 415              		.global	drv_sd_hal_write_blocks
 416              		.syntax unified
 417              		.thumb
 418              		.thumb_func
 419              		.type	drv_sd_hal_write_blocks, %function
 420              	drv_sd_hal_write_blocks:
 421              	.LVL19:
 422              	.LFB455:
 423              		.loc 1 84 97 is_stmt 1 view -0
 424              		.cfi_startproc
 425              		@ args = 0, pretend = 0, frame = 0
 426              		@ frame_needed = 0, uses_anonymous_args = 0
 427              		.loc 1 85 5 view .LVU94
 428              	.LBB48:
 429              	.LBI48:
 430              		.loc 1 30 6 view .LVU95
 431              	.LBB49:
 432              		.loc 1 31 5 view .LVU96
 433              	.LBE49:
 434              	.LBE48:
 435              		.loc 1 84 97 is_stmt 0 view .LVU97
 436 0000 70B5     		push	{r4, r5, r6, lr}
 437              		.cfi_def_cfa_offset 16
 438              		.cfi_offset 4, -16
 439              		.cfi_offset 5, -12
 440              		.cfi_offset 6, -8
 441              		.cfi_offset 14, -4
 442              		.loc 1 84 97 view .LVU98
 443 0002 0546     		mov	r5, r0
 444              	.LBB52:
 445              	.LBB50:
 446              		.loc 1 31 12 view .LVU99
 447 0004 0F48     		ldr	r0, .L53
 448              	.LVL20:
 449              		.loc 1 31 12 view .LVU100
 450              	.LBE50:
 451              	.LBE52:
 452              		.loc 1 84 97 view .LVU101
 453 0006 0C46     		mov	r4, r1
 454 0008 1646     		mov	r6, r2
 455              	.LBB53:
 456              	.LBB51:
ARM GAS  C:\Users\DEVELO~1\AppData\Local\Temp\ccYfsuUi.s 			page 9


 457              		.loc 1 31 12 view .LVU102
 458 000a FFF7FEFF 		bl	sdc_lld_is_card_inserted
 459              	.LVL21:
 460              		.loc 1 31 12 view .LVU103
 461              	.LBE51:
 462              	.LBE53:
 463              		.loc 1 85 8 view .LVU104
 464 000e 10B1     		cbz	r0, .L47
 465              		.loc 1 85 42 discriminator 1 view .LVU105
 466 0010 0D4B     		ldr	r3, .L53+4
 467              		.loc 1 85 39 discriminator 1 view .LVU106
 468 0012 1B78     		ldrb	r3, [r3]	@ zero_extendqisi2
 469 0014 0BB9     		cbnz	r3, .L52
 470              	.L47:
 471              		.loc 1 86 16 view .LVU107
 472 0016 0120     		movs	r0, #1
 473              	.L45:
 474              		.loc 1 94 1 view .LVU108
 475 0018 70BD     		pop	{r4, r5, r6, pc}
 476              	.LVL22:
 477              	.L52:
 478              		.loc 1 88 5 is_stmt 1 view .LVU109
 479              		.loc 1 88 17 is_stmt 0 view .LVU110
 480 001a 3346     		mov	r3, r6
 481 001c 2A46     		mov	r2, r5
 482 001e 2146     		mov	r1, r4
 483 0020 0848     		ldr	r0, .L53
 484 0022 FFF7FEFF 		bl	sdcWrite
 485              	.LVL23:
 486              		.loc 1 89 5 is_stmt 1 view .LVU111
 487              		.loc 1 89 25 is_stmt 0 view .LVU112
 488 0026 0748     		ldr	r0, .L53
 489 0028 FFF7FEFF 		bl	sdcGetAndClearErrors
 490              	.LVL24:
 491              		.loc 1 90 5 is_stmt 1 view .LVU113
 492              		.loc 1 93 5 view .LVU114
 493              	.LBB54:
 494              	.LBI54:
 495              		.loc 1 56 24 view .LVU115
 496              	.LBB55:
 497              		.loc 1 57 5 view .LVU116
 498              		.loc 1 57 8 is_stmt 0 view .LVU117
 499 002c 0028     		cmp	r0, #0
 500 002e F3D0     		beq	.L45
 501              	.LVL25:
 502              	.LBB56:
 503              	.LBI56:
 504              		.loc 1 56 24 is_stmt 1 view .LVU118
 505              	.LBB57:
 506              		.loc 1 60 5 view .LVU119
 507              		.loc 1 60 8 is_stmt 0 view .LVU120
 508 0030 8307     		lsls	r3, r0, #30
 509 0032 05D1     		bne	.L49
 510              		.loc 1 63 5 is_stmt 1 view .LVU121
 511              		.loc 1 67 16 is_stmt 0 view .LVU122
 512 0034 10F00C0F 		tst	r0, #12
 513 0038 14BF     		ite	ne
ARM GAS  C:\Users\DEVELO~1\AppData\Local\Temp\ccYfsuUi.s 			page 10


 514 003a 0420     		movne	r0, #4
 515              	.LVL26:
 516              		.loc 1 67 16 view .LVU123
 517 003c 0220     		moveq	r0, #2
 518              		.loc 1 67 16 view .LVU124
 519              	.LBE57:
 520              	.LBE56:
 521              	.LBE55:
 522              	.LBE54:
 523              		.loc 1 94 1 view .LVU125
 524 003e 70BD     		pop	{r4, r5, r6, pc}
 525              	.LVL27:
 526              	.L49:
 527              	.LBB61:
 528              	.LBB60:
 529              	.LBB59:
 530              	.LBB58:
 531              		.loc 1 61 16 view .LVU126
 532 0040 0320     		movs	r0, #3
 533              	.LVL28:
 534              		.loc 1 61 16 view .LVU127
 535              	.LBE58:
 536              	.LBE59:
 537              	.LBE60:
 538              	.LBE61:
 539              		.loc 1 94 1 view .LVU128
 540 0042 70BD     		pop	{r4, r5, r6, pc}
 541              	.LVL29:
 542              	.L54:
 543              		.loc 1 94 1 view .LVU129
 544              		.align	2
 545              	.L53:
 546 0044 00000000 		.word	SDCD1
 547 0048 00000000 		.word	.LANCHOR2
 548              		.cfi_endproc
 549              	.LFE455:
 550              		.size	drv_sd_hal_write_blocks, .-drv_sd_hal_write_blocks
 551              		.section	.text.drv_sd_hal_sync,"ax",%progbits
 552              		.align	1
 553              		.p2align 2,,3
 554              		.global	drv_sd_hal_sync
 555              		.syntax unified
 556              		.thumb
 557              		.thumb_func
 558              		.type	drv_sd_hal_sync, %function
 559              	drv_sd_hal_sync:
 560              	.LFB456:
 561              		.loc 1 96 28 is_stmt 1 view -0
 562              		.cfi_startproc
 563              		@ args = 0, pretend = 0, frame = 0
 564              		@ frame_needed = 0, uses_anonymous_args = 0
 565              		@ link register save eliminated.
 566              		.loc 1 97 5 view .LVU131
 567              		.loc 1 97 11 is_stmt 0 view .LVU132
 568 0000 0148     		ldr	r0, .L56
 569 0002 FFF7FEBF 		b	sdcSync
 570              	.LVL30:
ARM GAS  C:\Users\DEVELO~1\AppData\Local\Temp\ccYfsuUi.s 			page 11


 571              	.L57:
 572 0006 00BF     		.align	2
 573              	.L56:
 574 0008 00000000 		.word	SDCD1
 575              		.cfi_endproc
 576              	.LFE456:
 577              		.size	drv_sd_hal_sync, .-drv_sd_hal_sync
 578              		.section	.text.drv_sd_hal_get_info,"ax",%progbits
 579              		.align	1
 580              		.p2align 2,,3
 581              		.global	drv_sd_hal_get_info
 582              		.syntax unified
 583              		.thumb
 584              		.thumb_func
 585              		.type	drv_sd_hal_get_info, %function
 586              	drv_sd_hal_get_info:
 587              	.LVL31:
 588              	.LFB457:
 589              		.loc 1 100 60 is_stmt 1 view -0
 590              		.cfi_startproc
 591              		@ args = 0, pretend = 0, frame = 0
 592              		@ frame_needed = 0, uses_anonymous_args = 0
 593              		.loc 1 101 5 view .LVU134
 594              		.loc 1 101 8 is_stmt 0 view .LVU135
 595 0000 88B1     		cbz	r0, .L60
 596              		.loc 1 104 5 is_stmt 1 view .LVU136
 597              	.LBB62:
 598              	.LBI62:
 599              		.loc 1 30 6 view .LVU137
 600              	.LBB63:
 601              		.loc 1 31 5 view .LVU138
 602              	.LBE63:
 603              	.LBE62:
 604              		.loc 1 100 60 is_stmt 0 view .LVU139
 605 0002 10B5     		push	{r4, lr}
 606              		.cfi_def_cfa_offset 8
 607              		.cfi_offset 4, -8
 608              		.cfi_offset 14, -4
 609 0004 0446     		mov	r4, r0
 610              	.LBB65:
 611              	.LBB64:
 612              		.loc 1 31 12 view .LVU140
 613 0006 0948     		ldr	r0, .L68
 614              	.LVL32:
 615              		.loc 1 31 12 view .LVU141
 616 0008 FFF7FEFF 		bl	sdc_lld_is_card_inserted
 617              	.LVL33:
 618              	.LBE64:
 619              	.LBE65:
 620              		.loc 1 104 8 view .LVU142
 621 000c 10B1     		cbz	r0, .L62
 622              		.loc 1 104 42 discriminator 1 view .LVU143
 623 000e 084B     		ldr	r3, .L68+4
 624              		.loc 1 104 39 discriminator 1 view .LVU144
 625 0010 1B78     		ldrb	r3, [r3]	@ zero_extendqisi2
 626 0012 0BB9     		cbnz	r3, .L67
 627              	.L62:
ARM GAS  C:\Users\DEVELO~1\AppData\Local\Temp\ccYfsuUi.s 			page 12


 628              		.loc 1 105 16 view .LVU145
 629 0014 0120     		movs	r0, #1
 630              		.loc 1 111 1 view .LVU146
 631 0016 10BD     		pop	{r4, pc}
 632              	.LVL34:
 633              	.L67:
 634              		.loc 1 107 5 is_stmt 1 view .LVU147
 635              		.loc 1 107 9 is_stmt 0 view .LVU148
 636 0018 2146     		mov	r1, r4
 637 001a 0448     		ldr	r0, .L68
 638 001c FFF7FEFF 		bl	sdcGetInfo
 639              	.LVL35:
 640              		.loc 1 107 8 view .LVU149
 641 0020 4000     		lsls	r0, r0, #1
 642 0022 C0B2     		uxtb	r0, r0
 643              		.loc 1 111 1 view .LVU150
 644 0024 10BD     		pop	{r4, pc}
 645              	.LVL36:
 646              	.L60:
 647              		.cfi_def_cfa_offset 0
 648              		.cfi_restore 4
 649              		.cfi_restore 14
 650              		.loc 1 102 16 view .LVU151
 651 0026 0220     		movs	r0, #2
 652              	.LVL37:
 653              		.loc 1 111 1 view .LVU152
 654 0028 7047     		bx	lr
 655              	.L69:
 656 002a 00BF     		.align	2
 657              	.L68:
 658 002c 00000000 		.word	SDCD1
 659 0030 00000000 		.word	.LANCHOR2
 660              		.cfi_endproc
 661              	.LFE457:
 662              		.size	drv_sd_hal_get_info, .-drv_sd_hal_get_info
 663              		.section	.bss.sd_connected,"aw",%nobits
 664              		.set	.LANCHOR2,. + 0
 665              		.type	sd_connected, %object
 666              		.size	sd_connected, 1
 667              	sd_connected:
 668 0000 00       		.space	1
 669              		.section	.bss.sd_hal_initialized,"aw",%nobits
 670              		.set	.LANCHOR0,. + 0
 671              		.type	sd_hal_initialized, %object
 672              		.size	sd_hal_initialized, 1
 673              	sd_hal_initialized:
 674 0000 00       		.space	1
 675              		.section	.rodata.sd_cfg,"a"
 676              		.align	2
 677              		.set	.LANCHOR1,. + 0
 678              		.type	sd_cfg, %object
 679              		.size	sd_cfg, 8
 680              	sd_cfg:
 681 0000 01       		.byte	1
 682 0001 000000   		.space	3
 683 0004 00000000 		.word	0
 684              		.text
ARM GAS  C:\Users\DEVELO~1\AppData\Local\Temp\ccYfsuUi.s 			page 13


 685              	.Letext0:
 686              		.file 2 "c:\\chibistudio\\tools\\gnu tools arm embedded\\11.3 2022.08\\lib\\gcc\\arm-none-eabi\\11
 687              		.file 3 "c:\\chibistudio\\tools\\gnu tools arm embedded\\11.3 2022.08\\arm-none-eabi\\include\\mac
 688              		.file 4 "c:\\chibistudio\\tools\\gnu tools arm embedded\\11.3 2022.08\\arm-none-eabi\\include\\sys
 689              		.file 5 "./docs/ChibiOS/os/common/ports/ARM-common/include/chtypes.h"
 690              		.file 6 "./docs/ChibiOS/os/rt/include/chearly.h"
 691              		.file 7 "./docs/ChibiOS/os/rt/include/chobjects.h"
 692              		.file 8 "./docs/ChibiOS/os/rt/include/chrfcu.h"
 693              		.file 9 "./docs/ChibiOS/os/rt/include/chdebug.h"
 694              		.file 10 "./docs/ChibiOS/os/rt/include/chtime.h"
 695              		.file 11 "./docs/ChibiOS/os/rt/include/chtrace.h"
 696              		.file 12 "./docs/ChibiOS/os/common/ext/ST/STM32H7xx/stm32h743xx.h"
 697              		.file 13 "./docs/ChibiOS/os/common/ports/ARMv7-M/chcore.h"
 698              		.file 14 "./docs/ChibiOS/os/rt/include/chlists.h"
 699              		.file 15 "./docs/ChibiOS/os/rt/include/chsem.h"
 700              		.file 16 "./docs/ChibiOS/os/rt/include/chmtx.h"
 701              		.file 17 "./docs/ChibiOS/os/hal/include/hal_ioblock.h"
 702              		.file 18 "./docs/ChibiOS/os/hal/include/hal_sdc.h"
 703              		.file 19 "./docs/ChibiOS/os/hal/ports/STM32/LLD/SDMMCv2/hal_sdc_lld.h"
 704              		.file 20 "drivers/sd/drv_sd_hal.h"
 705              		.section	.debug_info,"",%progbits
 706              	.Ldebug_info0:
 707 0000 DD130000 		.4byte	0x13dd
 708 0004 0500     		.2byte	0x5
 709 0006 01       		.byte	0x1
 710 0007 04       		.byte	0x4
 711 0008 00000000 		.4byte	.Ldebug_abbrev0
 712 000c 29       		.uleb128 0x29
 713 000d FF010000 		.4byte	.LASF223
 714 0011 1D       		.byte	0x1d
 715 0012 04060000 		.4byte	.LASF224
 716 0016 E5040000 		.4byte	.LASF225
 717 001a 72000000 		.4byte	.LLRL21
 718 001e 00000000 		.4byte	0
 719 0022 00000000 		.4byte	.Ldebug_line0
 720 0026 2A       		.uleb128 0x2a
 721 0027 04       		.byte	0x4
 722 0028 05       		.byte	0x5
 723 0029 696E7400 		.ascii	"int\000"
 724 002d 02       		.uleb128 0x2
 725 002e CE030000 		.4byte	.LASF4
 726 0032 02       		.byte	0x2
 727 0033 D1       		.byte	0xd1
 728 0034 17       		.byte	0x17
 729 0035 39000000 		.4byte	0x39
 730 0039 0A       		.uleb128 0xa
 731 003a 04       		.byte	0x4
 732 003b 07       		.byte	0x7
 733 003c DA000000 		.4byte	.LASF0
 734 0040 0A       		.uleb128 0xa
 735 0041 08       		.byte	0x8
 736 0042 05       		.byte	0x5
 737 0043 8B050000 		.4byte	.LASF1
 738 0047 0A       		.uleb128 0xa
 739 0048 08       		.byte	0x8
 740 0049 04       		.byte	0x4
 741 004a D2060000 		.4byte	.LASF2
ARM GAS  C:\Users\DEVELO~1\AppData\Local\Temp\ccYfsuUi.s 			page 14


 742 004e 0A       		.uleb128 0xa
 743 004f 01       		.byte	0x1
 744 0050 06       		.byte	0x6
 745 0051 5C090000 		.4byte	.LASF3
 746 0055 02       		.uleb128 0x2
 747 0056 B1070000 		.4byte	.LASF5
 748 005a 03       		.byte	0x3
 749 005b 2B       		.byte	0x2b
 750 005c 18       		.byte	0x18
 751 005d 61000000 		.4byte	0x61
 752 0061 0A       		.uleb128 0xa
 753 0062 01       		.byte	0x1
 754 0063 08       		.byte	0x8
 755 0064 A7080000 		.4byte	.LASF6
 756 0068 0A       		.uleb128 0xa
 757 0069 02       		.byte	0x2
 758 006a 05       		.byte	0x5
 759 006b 22070000 		.4byte	.LASF7
 760 006f 02       		.uleb128 0x2
 761 0070 46030000 		.4byte	.LASF8
 762 0074 03       		.byte	0x3
 763 0075 39       		.byte	0x39
 764 0076 19       		.byte	0x19
 765 0077 7B000000 		.4byte	0x7b
 766 007b 0A       		.uleb128 0xa
 767 007c 02       		.byte	0x2
 768 007d 07       		.byte	0x7
 769 007e 6E090000 		.4byte	.LASF9
 770 0082 02       		.uleb128 0x2
 771 0083 06010000 		.4byte	.LASF10
 772 0087 03       		.byte	0x3
 773 0088 4D       		.byte	0x4d
 774 0089 18       		.byte	0x18
 775 008a 8E000000 		.4byte	0x8e
 776 008e 0A       		.uleb128 0xa
 777 008f 04       		.byte	0x4
 778 0090 05       		.byte	0x5
 779 0091 00000000 		.4byte	.LASF11
 780 0095 02       		.uleb128 0x2
 781 0096 B5080000 		.4byte	.LASF12
 782 009a 03       		.byte	0x3
 783 009b 4F       		.byte	0x4f
 784 009c 19       		.byte	0x19
 785 009d A1000000 		.4byte	0xa1
 786 00a1 0A       		.uleb128 0xa
 787 00a2 04       		.byte	0x4
 788 00a3 07       		.byte	0x7
 789 00a4 20080000 		.4byte	.LASF13
 790 00a8 02       		.uleb128 0x2
 791 00a9 3B050000 		.4byte	.LASF14
 792 00ad 03       		.byte	0x3
 793 00ae 69       		.byte	0x69
 794 00af 19       		.byte	0x19
 795 00b0 B4000000 		.4byte	0xb4
 796 00b4 0A       		.uleb128 0xa
 797 00b5 08       		.byte	0x8
 798 00b6 07       		.byte	0x7
ARM GAS  C:\Users\DEVELO~1\AppData\Local\Temp\ccYfsuUi.s 			page 15


 799 00b7 04030000 		.4byte	.LASF15
 800 00bb 02       		.uleb128 0x2
 801 00bc 4D050000 		.4byte	.LASF16
 802 00c0 04       		.byte	0x4
 803 00c1 18       		.byte	0x18
 804 00c2 13       		.byte	0x13
 805 00c3 55000000 		.4byte	0x55
 806 00c7 11       		.uleb128 0x11
 807 00c8 BB000000 		.4byte	0xbb
 808 00cc 02       		.uleb128 0x2
 809 00cd DE060000 		.4byte	.LASF17
 810 00d1 04       		.byte	0x4
 811 00d2 24       		.byte	0x24
 812 00d3 14       		.byte	0x14
 813 00d4 6F000000 		.4byte	0x6f
 814 00d8 02       		.uleb128 0x2
 815 00d9 57080000 		.4byte	.LASF18
 816 00dd 04       		.byte	0x4
 817 00de 2C       		.byte	0x2c
 818 00df 13       		.byte	0x13
 819 00e0 82000000 		.4byte	0x82
 820 00e4 02       		.uleb128 0x2
 821 00e5 EC000000 		.4byte	.LASF19
 822 00e9 04       		.byte	0x4
 823 00ea 30       		.byte	0x30
 824 00eb 14       		.byte	0x14
 825 00ec 95000000 		.4byte	0x95
 826 00f0 1A       		.uleb128 0x1a
 827 00f1 E4000000 		.4byte	0xe4
 828 00f5 11       		.uleb128 0x11
 829 00f6 F0000000 		.4byte	0xf0
 830 00fa 02       		.uleb128 0x2
 831 00fb 8B070000 		.4byte	.LASF20
 832 00ff 04       		.byte	0x4
 833 0100 3C       		.byte	0x3c
 834 0101 14       		.byte	0x14
 835 0102 A8000000 		.4byte	0xa8
 836 0106 1A       		.uleb128 0x1a
 837 0107 FA000000 		.4byte	0xfa
 838 010b 02       		.uleb128 0x2
 839 010c 41000000 		.4byte	.LASF21
 840 0110 05       		.byte	0x5
 841 0111 48       		.byte	0x48
 842 0112 1D       		.byte	0x1d
 843 0113 FA000000 		.4byte	0xfa
 844 0117 02       		.uleb128 0x2
 845 0118 61030000 		.4byte	.LASF22
 846 011c 06       		.byte	0x6
 847 011d 50       		.byte	0x50
 848 011e 19       		.byte	0x19
 849 011f 0B010000 		.4byte	0x10b
 850 0123 02       		.uleb128 0x2
 851 0124 92060000 		.4byte	.LASF23
 852 0128 06       		.byte	0x6
 853 0129 53       		.byte	0x53
 854 012a 19       		.byte	0x19
 855 012b BB000000 		.4byte	0xbb
ARM GAS  C:\Users\DEVELO~1\AppData\Local\Temp\ccYfsuUi.s 			page 16


 856 012f 02       		.uleb128 0x2
 857 0130 23050000 		.4byte	.LASF24
 858 0134 06       		.byte	0x6
 859 0135 54       		.byte	0x54
 860 0136 19       		.byte	0x19
 861 0137 BB000000 		.4byte	0xbb
 862 013b 02       		.uleb128 0x2
 863 013c 18080000 		.4byte	.LASF25
 864 0140 06       		.byte	0x6
 865 0141 55       		.byte	0x55
 866 0142 19       		.byte	0x19
 867 0143 BB000000 		.4byte	0xbb
 868 0147 02       		.uleb128 0x2
 869 0148 CE020000 		.4byte	.LASF26
 870 014c 06       		.byte	0x6
 871 014d 57       		.byte	0x57
 872 014e 19       		.byte	0x19
 873 014f E4000000 		.4byte	0xe4
 874 0153 02       		.uleb128 0x2
 875 0154 AA050000 		.4byte	.LASF27
 876 0158 06       		.byte	0x6
 877 0159 58       		.byte	0x58
 878 015a 19       		.byte	0x19
 879 015b D8000000 		.4byte	0xd8
 880 015f 02       		.uleb128 0x2
 881 0160 A7020000 		.4byte	.LASF28
 882 0164 06       		.byte	0x6
 883 0165 5A       		.byte	0x5a
 884 0166 19       		.byte	0x19
 885 0167 E4000000 		.4byte	0xe4
 886 016b 02       		.uleb128 0x2
 887 016c 51030000 		.4byte	.LASF29
 888 0170 06       		.byte	0x6
 889 0171 5C       		.byte	0x5c
 890 0172 19       		.byte	0x19
 891 0173 D8000000 		.4byte	0xd8
 892 0177 02       		.uleb128 0x2
 893 0178 330A0000 		.4byte	.LASF30
 894 017c 06       		.byte	0x6
 895 017d 80       		.byte	0x80
 896 017e 12       		.byte	0x12
 897 017f 39000000 		.4byte	0x39
 898 0183 02       		.uleb128 0x2
 899 0184 C0030000 		.4byte	.LASF31
 900 0188 06       		.byte	0x6
 901 0189 85       		.byte	0x85
 902 018a 1A       		.byte	0x1a
 903 018b 8F010000 		.4byte	0x18f
 904 018f 09       		.uleb128 0x9
 905 0190 5E050000 		.4byte	.LASF48
 906 0194 50       		.byte	0x50
 907 0195 07       		.byte	0x7
 908 0196 A9       		.byte	0xa9
 909 0197 08       		.byte	0x8
 910 0198 8B020000 		.4byte	0x28b
 911 019c 08       		.uleb128 0x8
 912 019d 68647200 		.ascii	"hdr\000"
ARM GAS  C:\Users\DEVELO~1\AppData\Local\Temp\ccYfsuUi.s 			page 17


 913 01a1 07       		.byte	0x7
 914 01a2 BA       		.byte	0xba
 915 01a3 05       		.byte	0x5
 916 01a4 2A0A0000 		.4byte	0xa2a
 917 01a8 00       		.byte	0
 918 01a9 08       		.uleb128 0x8
 919 01aa 63747800 		.ascii	"ctx\000"
 920 01ae 07       		.byte	0x7
 921 01af BE       		.byte	0xbe
 922 01b0 21       		.byte	0x21
 923 01b1 7B080000 		.4byte	0x87b
 924 01b5 0C       		.byte	0xc
 925 01b6 01       		.uleb128 0x1
 926 01b7 91030000 		.4byte	.LASF32
 927 01bb 07       		.byte	0x7
 928 01bc C2       		.byte	0xc2
 929 01bd 22       		.byte	0x22
 930 01be 2E0B0000 		.4byte	0xb2e
 931 01c2 10       		.byte	0x10
 932 01c3 01       		.uleb128 0x1
 933 01c4 DE040000 		.4byte	.LASF33
 934 01c8 07       		.byte	0x7
 935 01c9 C8       		.byte	0xc8
 936 01ca 22       		.byte	0x22
 937 01cb 330B0000 		.4byte	0xb33
 938 01cf 14       		.byte	0x14
 939 01d0 01       		.uleb128 0x1
 940 01d1 55070000 		.4byte	.LASF34
 941 01d5 07       		.byte	0x7
 942 01d6 CD       		.byte	0xcd
 943 01d7 21       		.byte	0x21
 944 01d8 330B0000 		.4byte	0xb33
 945 01dc 18       		.byte	0x18
 946 01dd 01       		.uleb128 0x1
 947 01de 1D090000 		.4byte	.LASF35
 948 01e2 07       		.byte	0x7
 949 01e3 D1       		.byte	0xd1
 950 01e4 21       		.byte	0x21
 951 01e5 2F010000 		.4byte	0x12f
 952 01e9 1C       		.byte	0x1c
 953 01ea 01       		.uleb128 0x1
 954 01eb 8C000000 		.4byte	.LASF36
 955 01ef 07       		.byte	0x7
 956 01f0 D5       		.byte	0xd5
 957 01f1 21       		.byte	0x21
 958 01f2 23010000 		.4byte	0x123
 959 01f6 1D       		.byte	0x1d
 960 01f7 01       		.uleb128 0x1
 961 01f8 10010000 		.4byte	.LASF37
 962 01fc 07       		.byte	0x7
 963 01fd DA       		.byte	0xda
 964 01fe 21       		.byte	0x21
 965 01ff 3B010000 		.4byte	0x13b
 966 0203 1E       		.byte	0x1e
 967 0204 01       		.uleb128 0x1
 968 0205 15000000 		.4byte	.LASF38
 969 0209 07       		.byte	0x7
ARM GAS  C:\Users\DEVELO~1\AppData\Local\Temp\ccYfsuUi.s 			page 18


 970 020a DE       		.byte	0xde
 971 020b 22       		.byte	0x22
 972 020c 81030000 		.4byte	0x381
 973 0210 20       		.byte	0x20
 974 0211 01       		.uleb128 0x1
 975 0212 2C050000 		.4byte	.LASF39
 976 0216 07       		.byte	0x7
 977 0217 E2       		.byte	0xe2
 978 0218 21       		.byte	0x21
 979 0219 C8080000 		.4byte	0x8c8
 980 021d 24       		.byte	0x24
 981 021e 01       		.uleb128 0x1
 982 021f 39000000 		.4byte	.LASF40
 983 0223 07       		.byte	0x7
 984 0224 E8       		.byte	0xe8
 985 0225 21       		.byte	0x21
 986 0226 0E0A0000 		.4byte	0xa0e
 987 022a 2C       		.byte	0x2c
 988 022b 01       		.uleb128 0x1
 989 022c 19040000 		.4byte	.LASF41
 990 0230 07       		.byte	0x7
 991 0231 EE       		.byte	0xee
 992 0232 22       		.byte	0x22
 993 0233 E9030000 		.4byte	0x3e9
 994 0237 30       		.byte	0x30
 995 0238 04       		.uleb128 0x4
 996 0239 7500     		.ascii	"u\000"
 997 023b 07       		.byte	0x7
 998 023c 3F01     		.2byte	0x13f
 999 023e 21       		.byte	0x21
 1000 023f 570A0000 		.4byte	0xa57
 1001 0243 34       		.byte	0x34
 1002 0244 03       		.uleb128 0x3
 1003 0245 C0080000 		.4byte	.LASF42
 1004 0249 07       		.byte	0x7
 1005 024a 4401     		.2byte	0x144
 1006 024c 21       		.byte	0x21
 1007 024d 9C080000 		.4byte	0x89c
 1008 0251 38       		.byte	0x38
 1009 0252 03       		.uleb128 0x3
 1010 0253 55050000 		.4byte	.LASF43
 1011 0257 07       		.byte	0x7
 1012 0258 4A01     		.2byte	0x14a
 1013 025a 21       		.byte	0x21
 1014 025b C8080000 		.4byte	0x8c8
 1015 025f 3C       		.byte	0x3c
 1016 0260 03       		.uleb128 0x3
 1017 0261 D1000000 		.4byte	.LASF44
 1018 0265 07       		.byte	0x7
 1019 0266 5001     		.2byte	0x150
 1020 0268 21       		.byte	0x21
 1021 0269 5F010000 		.4byte	0x15f
 1022 026d 44       		.byte	0x44
 1023 026e 03       		.uleb128 0x3
 1024 026f 9C030000 		.4byte	.LASF45
 1025 0273 07       		.byte	0x7
 1026 0274 5701     		.2byte	0x157
ARM GAS  C:\Users\DEVELO~1\AppData\Local\Temp\ccYfsuUi.s 			page 19


 1027 0276 22       		.byte	0x22
 1028 0277 290B0000 		.4byte	0xb29
 1029 027b 48       		.byte	0x48
 1030 027c 03       		.uleb128 0x3
 1031 027d 9C000000 		.4byte	.LASF46
 1032 0281 07       		.byte	0x7
 1033 0282 5B01     		.2byte	0x15b
 1034 0284 21       		.byte	0x21
 1035 0285 47010000 		.4byte	0x147
 1036 0289 4C       		.byte	0x4c
 1037 028a 00       		.byte	0
 1038 028b 02       		.uleb128 0x2
 1039 028c 2B090000 		.4byte	.LASF47
 1040 0290 06       		.byte	0x6
 1041 0291 8A       		.byte	0x8a
 1042 0292 1F       		.byte	0x1f
 1043 0293 97020000 		.4byte	0x297
 1044 0297 2B       		.uleb128 0x2b
 1045 0298 58040000 		.4byte	.LASF49
 1046 029c F008     		.2byte	0x8f0
 1047 029e 07       		.byte	0x7
 1048 029f 9701     		.2byte	0x197
 1049 02a1 08       		.byte	0x8
 1050 02a2 33030000 		.4byte	0x333
 1051 02a6 03       		.uleb128 0x3
 1052 02a7 A5070000 		.4byte	.LASF50
 1053 02ab 07       		.byte	0x7
 1054 02ac 9B01     		.2byte	0x19b
 1055 02ae 21       		.byte	0x21
 1056 02af 630B0000 		.4byte	0xb63
 1057 02b3 00       		.byte	0
 1058 02b4 03       		.uleb128 0x3
 1059 02b5 3A010000 		.4byte	.LASF51
 1060 02b9 07       		.byte	0x7
 1061 02ba 9F01     		.2byte	0x19f
 1062 02bc 21       		.byte	0x21
 1063 02bd CF090000 		.4byte	0x9cf
 1064 02c1 10       		.byte	0x10
 1065 02c2 03       		.uleb128 0x3
 1066 02c3 4C090000 		.4byte	.LASF52
 1067 02c7 07       		.byte	0x7
 1068 02c8 A601     		.2byte	0x1a6
 1069 02ca 21       		.byte	0x21
 1070 02cb F6090000 		.4byte	0x9f6
 1071 02cf 30       		.byte	0x30
 1072 02d0 03       		.uleb128 0x3
 1073 02d1 FE000000 		.4byte	.LASF53
 1074 02d5 07       		.byte	0x7
 1075 02d6 AB01     		.2byte	0x1ab
 1076 02d8 21       		.byte	0x21
 1077 02d9 77010000 		.4byte	0x177
 1078 02dd 38       		.byte	0x38
 1079 02de 03       		.uleb128 0x3
 1080 02df BB030000 		.4byte	.LASF54
 1081 02e3 07       		.byte	0x7
 1082 02e4 B101     		.2byte	0x1b1
 1083 02e6 21       		.byte	0x21
ARM GAS  C:\Users\DEVELO~1\AppData\Local\Temp\ccYfsuUi.s 			page 20


 1084 02e7 5A030000 		.4byte	0x35a
 1085 02eb 3C       		.byte	0x3c
 1086 02ec 03       		.uleb128 0x3
 1087 02ed F1060000 		.4byte	.LASF55
 1088 02f1 07       		.byte	0x7
 1089 02f2 B601     		.2byte	0x1b6
 1090 02f4 22       		.byte	0x22
 1091 02f5 D50B0000 		.4byte	0xbd5
 1092 02f9 40       		.byte	0x40
 1093 02fa 03       		.uleb128 0x3
 1094 02fb 9A060000 		.4byte	.LASF56
 1095 02ff 07       		.byte	0x7
 1096 0300 BA01     		.2byte	0x1ba
 1097 0302 21       		.byte	0x21
 1098 0303 83010000 		.4byte	0x183
 1099 0307 44       		.byte	0x44
 1100 0308 03       		.uleb128 0x3
 1101 0309 12090000 		.4byte	.LASF57
 1102 030d 07       		.byte	0x7
 1103 030e BF01     		.2byte	0x1bf
 1104 0310 21       		.byte	0x21
 1105 0311 83010000 		.4byte	0x183
 1106 0315 94       		.byte	0x94
 1107 0316 04       		.uleb128 0x4
 1108 0317 64626700 		.ascii	"dbg\000"
 1109 031b 07       		.byte	0x7
 1110 031c C401     		.2byte	0x1c4
 1111 031e 21       		.byte	0x21
 1112 031f 97030000 		.4byte	0x397
 1113 0323 E4       		.byte	0xe4
 1114 0324 03       		.uleb128 0x3
 1115 0325 2B030000 		.4byte	.LASF58
 1116 0329 07       		.byte	0x7
 1117 032a C901     		.2byte	0x1c9
 1118 032c 21       		.byte	0x21
 1119 032d 44050000 		.4byte	0x544
 1120 0331 E8       		.byte	0xe8
 1121 0332 00       		.byte	0
 1122 0333 02       		.uleb128 0x2
 1123 0334 BF040000 		.4byte	.LASF59
 1124 0338 08       		.byte	0x8
 1125 0339 3F       		.byte	0x3f
 1126 033a 12       		.byte	0x12
 1127 033b E4000000 		.4byte	0xe4
 1128 033f 09       		.uleb128 0x9
 1129 0340 65000000 		.4byte	.LASF60
 1130 0344 04       		.byte	0x4
 1131 0345 08       		.byte	0x8
 1132 0346 44       		.byte	0x44
 1133 0347 10       		.byte	0x10
 1134 0348 5A030000 		.4byte	0x35a
 1135 034c 01       		.uleb128 0x1
 1136 034d 38060000 		.4byte	.LASF61
 1137 0351 08       		.byte	0x8
 1138 0352 48       		.byte	0x48
 1139 0353 21       		.byte	0x21
 1140 0354 33030000 		.4byte	0x333
ARM GAS  C:\Users\DEVELO~1\AppData\Local\Temp\ccYfsuUi.s 			page 21


 1141 0358 00       		.byte	0
 1142 0359 00       		.byte	0
 1143 035a 02       		.uleb128 0x2
 1144 035b 5F080000 		.4byte	.LASF62
 1145 035f 08       		.byte	0x8
 1146 0360 49       		.byte	0x49
 1147 0361 03       		.byte	0x3
 1148 0362 3F030000 		.4byte	0x33f
 1149 0366 09       		.uleb128 0x9
 1150 0367 BD010000 		.4byte	.LASF63
 1151 036b 04       		.byte	0x4
 1152 036c 09       		.byte	0x9
 1153 036d 3E       		.byte	0x3e
 1154 036e 10       		.byte	0x10
 1155 036f 81030000 		.4byte	0x381
 1156 0373 01       		.uleb128 0x1
 1157 0374 E5080000 		.4byte	.LASF64
 1158 0378 09       		.byte	0x9
 1159 0379 46       		.byte	0x46
 1160 037a 24       		.byte	0x24
 1161 037b 86030000 		.4byte	0x386
 1162 037f 00       		.byte	0
 1163 0380 00       		.byte	0
 1164 0381 06       		.uleb128 0x6
 1165 0382 92030000 		.4byte	0x392
 1166 0386 1A       		.uleb128 0x1a
 1167 0387 81030000 		.4byte	0x381
 1168 038b 0A       		.uleb128 0xa
 1169 038c 01       		.byte	0x1
 1170 038d 08       		.byte	0x8
 1171 038e AA040000 		.4byte	.LASF65
 1172 0392 11       		.uleb128 0x11
 1173 0393 8B030000 		.4byte	0x38b
 1174 0397 02       		.uleb128 0x2
 1175 0398 72050000 		.4byte	.LASF66
 1176 039c 09       		.byte	0x9
 1177 039d 51       		.byte	0x51
 1178 039e 03       		.byte	0x3
 1179 039f 66030000 		.4byte	0x366
 1180 03a3 02       		.uleb128 0x2
 1181 03a4 92000000 		.4byte	.LASF67
 1182 03a8 0A       		.byte	0xa
 1183 03a9 6D       		.byte	0x6d
 1184 03aa 12       		.byte	0x12
 1185 03ab E4000000 		.4byte	0xe4
 1186 03af 02       		.uleb128 0x2
 1187 03b0 5B060000 		.4byte	.LASF68
 1188 03b4 0A       		.byte	0xa
 1189 03b5 79       		.byte	0x79
 1190 03b6 12       		.byte	0x12
 1191 03b7 E4000000 		.4byte	0xe4
 1192 03bb 06       		.uleb128 0x6
 1193 03bc BB000000 		.4byte	0xbb
 1194 03c0 0D       		.uleb128 0xd
 1195 03c1 08       		.byte	0x8
 1196 03c2 0B       		.byte	0xb
 1197 03c3 83       		.byte	0x83
ARM GAS  C:\Users\DEVELO~1\AppData\Local\Temp\ccYfsuUi.s 			page 22


 1198 03c4 05       		.byte	0x5
 1199 03c5 E4030000 		.4byte	0x3e4
 1200 03c9 08       		.uleb128 0x8
 1201 03ca 6E747000 		.ascii	"ntp\000"
 1202 03ce 0B       		.byte	0xb
 1203 03cf 87       		.byte	0x87
 1204 03d0 1E       		.byte	0x1e
 1205 03d1 E4030000 		.4byte	0x3e4
 1206 03d5 00       		.byte	0
 1207 03d6 01       		.uleb128 0x1
 1208 03d7 2E010000 		.4byte	.LASF69
 1209 03db 0B       		.byte	0xb
 1210 03dc 8B       		.byte	0x8b
 1211 03dd 1E       		.byte	0x1e
 1212 03de E9030000 		.4byte	0x3e9
 1213 03e2 04       		.byte	0x4
 1214 03e3 00       		.byte	0
 1215 03e4 06       		.uleb128 0x6
 1216 03e5 83010000 		.4byte	0x183
 1217 03e9 2C       		.uleb128 0x2c
 1218 03ea 04       		.byte	0x4
 1219 03eb 0D       		.uleb128 0xd
 1220 03ec 08       		.byte	0x8
 1221 03ed 0B       		.byte	0xb
 1222 03ee 90       		.byte	0x90
 1223 03ef 05       		.byte	0x5
 1224 03f0 0E040000 		.4byte	0x40e
 1225 03f4 08       		.uleb128 0x8
 1226 03f5 747000   		.ascii	"tp\000"
 1227 03f8 0B       		.byte	0xb
 1228 03f9 94       		.byte	0x94
 1229 03fa 1E       		.byte	0x1e
 1230 03fb E4030000 		.4byte	0x3e4
 1231 03ff 00       		.byte	0
 1232 0400 08       		.uleb128 0x8
 1233 0401 6D736700 		.ascii	"msg\000"
 1234 0405 0B       		.byte	0xb
 1235 0406 98       		.byte	0x98
 1236 0407 1D       		.byte	0x1d
 1237 0408 53010000 		.4byte	0x153
 1238 040c 04       		.byte	0x4
 1239 040d 00       		.byte	0
 1240 040e 0D       		.uleb128 0xd
 1241 040f 04       		.byte	0x4
 1242 0410 0B       		.byte	0xb
 1243 0411 9D       		.byte	0x9d
 1244 0412 05       		.byte	0x5
 1245 0413 25040000 		.4byte	0x425
 1246 0417 01       		.uleb128 0x1
 1247 0418 15000000 		.4byte	.LASF38
 1248 041c 0B       		.byte	0xb
 1249 041d A1       		.byte	0xa1
 1250 041e 1E       		.byte	0x1e
 1251 041f 81030000 		.4byte	0x381
 1252 0423 00       		.byte	0
 1253 0424 00       		.byte	0
 1254 0425 0D       		.uleb128 0xd
ARM GAS  C:\Users\DEVELO~1\AppData\Local\Temp\ccYfsuUi.s 			page 23


 1255 0426 04       		.byte	0x4
 1256 0427 0B       		.byte	0xb
 1257 0428 A6       		.byte	0xa6
 1258 0429 05       		.byte	0x5
 1259 042a 3C040000 		.4byte	0x43c
 1260 042e 01       		.uleb128 0x1
 1261 042f 24030000 		.4byte	.LASF70
 1262 0433 0B       		.byte	0xb
 1263 0434 AA       		.byte	0xaa
 1264 0435 1E       		.byte	0x1e
 1265 0436 81030000 		.4byte	0x381
 1266 043a 00       		.byte	0
 1267 043b 00       		.byte	0
 1268 043c 0D       		.uleb128 0xd
 1269 043d 08       		.byte	0x8
 1270 043e 0B       		.byte	0xb
 1271 043f AF       		.byte	0xaf
 1272 0440 05       		.byte	0x5
 1273 0441 60040000 		.4byte	0x460
 1274 0445 08       		.uleb128 0x8
 1275 0446 75703100 		.ascii	"up1\000"
 1276 044a 0B       		.byte	0xb
 1277 044b B3       		.byte	0xb3
 1278 044c 1E       		.byte	0x1e
 1279 044d E9030000 		.4byte	0x3e9
 1280 0451 00       		.byte	0
 1281 0452 08       		.uleb128 0x8
 1282 0453 75703200 		.ascii	"up2\000"
 1283 0457 0B       		.byte	0xb
 1284 0458 B7       		.byte	0xb7
 1285 0459 1E       		.byte	0x1e
 1286 045a E9030000 		.4byte	0x3e9
 1287 045e 04       		.byte	0x4
 1288 045f 00       		.byte	0
 1289 0460 23       		.uleb128 0x23
 1290 0461 08       		.byte	0x8
 1291 0462 0B       		.byte	0xb
 1292 0463 7F       		.byte	0x7f
 1293 0464 9E040000 		.4byte	0x49e
 1294 0468 1B       		.uleb128 0x1b
 1295 0469 737700   		.ascii	"sw\000"
 1296 046c 8C       		.byte	0x8c
 1297 046d C0030000 		.4byte	0x3c0
 1298 0471 1B       		.uleb128 0x1b
 1299 0472 72647900 		.ascii	"rdy\000"
 1300 0476 99       		.byte	0x99
 1301 0477 EB030000 		.4byte	0x3eb
 1302 047b 1B       		.uleb128 0x1b
 1303 047c 69737200 		.ascii	"isr\000"
 1304 0480 A2       		.byte	0xa2
 1305 0481 0E040000 		.4byte	0x40e
 1306 0485 13       		.uleb128 0x13
 1307 0486 FF020000 		.4byte	.LASF71
 1308 048a 0B       		.byte	0xb
 1309 048b AB       		.byte	0xab
 1310 048c 07       		.byte	0x7
 1311 048d 25040000 		.4byte	0x425
ARM GAS  C:\Users\DEVELO~1\AppData\Local\Temp\ccYfsuUi.s 			page 24


 1312 0491 13       		.uleb128 0x13
 1313 0492 C9030000 		.4byte	.LASF72
 1314 0496 0B       		.byte	0xb
 1315 0497 B8       		.byte	0xb8
 1316 0498 07       		.byte	0x7
 1317 0499 3C040000 		.4byte	0x43c
 1318 049d 00       		.byte	0
 1319 049e 0D       		.uleb128 0xd
 1320 049f 10       		.byte	0x10
 1321 04a0 0B       		.byte	0xb
 1322 04a1 6C       		.byte	0x6c
 1323 04a2 09       		.byte	0x9
 1324 04a3 E4040000 		.4byte	0x4e4
 1325 04a7 1C       		.uleb128 0x1c
 1326 04a8 97080000 		.4byte	.LASF73
 1327 04ac 70       		.byte	0x70
 1328 04ad E4000000 		.4byte	0xe4
 1329 04b1 03       		.byte	0x3
 1330 04b2 00       		.byte	0
 1331 04b3 1C       		.uleb128 0x1c
 1332 04b4 1D090000 		.4byte	.LASF35
 1333 04b8 74       		.byte	0x74
 1334 04b9 E4000000 		.4byte	0xe4
 1335 04bd 05       		.byte	0x5
 1336 04be 03       		.byte	0x3
 1337 04bf 1C       		.uleb128 0x1c
 1338 04c0 49080000 		.4byte	.LASF74
 1339 04c4 7A       		.byte	0x7a
 1340 04c5 E4000000 		.4byte	0xe4
 1341 04c9 18       		.byte	0x18
 1342 04ca 08       		.byte	0x8
 1343 04cb 01       		.uleb128 0x1
 1344 04cc 8C030000 		.4byte	.LASF75
 1345 04d0 0B       		.byte	0xb
 1346 04d1 7E       		.byte	0x7e
 1347 04d2 19       		.byte	0x19
 1348 04d3 A3030000 		.4byte	0x3a3
 1349 04d7 04       		.byte	0x4
 1350 04d8 08       		.uleb128 0x8
 1351 04d9 7500     		.ascii	"u\000"
 1352 04db 0B       		.byte	0xb
 1353 04dc B9       		.byte	0xb9
 1354 04dd 05       		.byte	0x5
 1355 04de 60040000 		.4byte	0x460
 1356 04e2 08       		.byte	0x8
 1357 04e3 00       		.byte	0
 1358 04e4 02       		.uleb128 0x2
 1359 04e5 B3020000 		.4byte	.LASF76
 1360 04e9 0B       		.byte	0xb
 1361 04ea BA       		.byte	0xba
 1362 04eb 03       		.byte	0x3
 1363 04ec 9E040000 		.4byte	0x49e
 1364 04f0 2D       		.uleb128 0x2d
 1365 04f1 0808     		.2byte	0x808
 1366 04f3 0B       		.byte	0xb
 1367 04f4 C0       		.byte	0xc0
 1368 04f5 09       		.byte	0x9
ARM GAS  C:\Users\DEVELO~1\AppData\Local\Temp\ccYfsuUi.s 			page 25


 1369 04f6 2F050000 		.4byte	0x52f
 1370 04fa 01       		.uleb128 0x1
 1371 04fb AC000000 		.4byte	.LASF77
 1372 04ff 0B       		.byte	0xb
 1373 0500 C4       		.byte	0xc4
 1374 0501 19       		.byte	0x19
 1375 0502 CC000000 		.4byte	0xcc
 1376 0506 00       		.byte	0
 1377 0507 01       		.uleb128 0x1
 1378 0508 FF050000 		.4byte	.LASF78
 1379 050c 0B       		.byte	0xb
 1380 050d C8       		.byte	0xc8
 1381 050e 19       		.byte	0x19
 1382 050f CC000000 		.4byte	0xcc
 1383 0513 02       		.byte	0x2
 1384 0514 08       		.uleb128 0x8
 1385 0515 70747200 		.ascii	"ptr\000"
 1386 0519 0B       		.byte	0xb
 1387 051a CC       		.byte	0xcc
 1388 051b 1A       		.byte	0x1a
 1389 051c 2F050000 		.4byte	0x52f
 1390 0520 04       		.byte	0x4
 1391 0521 01       		.uleb128 0x1
 1392 0522 A5000000 		.4byte	.LASF79
 1393 0526 0B       		.byte	0xb
 1394 0527 D0       		.byte	0xd0
 1395 0528 19       		.byte	0x19
 1396 0529 34050000 		.4byte	0x534
 1397 052d 08       		.byte	0x8
 1398 052e 00       		.byte	0
 1399 052f 06       		.uleb128 0x6
 1400 0530 E4040000 		.4byte	0x4e4
 1401 0534 14       		.uleb128 0x14
 1402 0535 E4040000 		.4byte	0x4e4
 1403 0539 44050000 		.4byte	0x544
 1404 053d 15       		.uleb128 0x15
 1405 053e 39000000 		.4byte	0x39
 1406 0542 7F       		.byte	0x7f
 1407 0543 00       		.byte	0
 1408 0544 02       		.uleb128 0x2
 1409 0545 83060000 		.4byte	.LASF80
 1410 0549 0B       		.byte	0xb
 1411 054a D1       		.byte	0xd1
 1412 054b 03       		.byte	0x3
 1413 054c F0040000 		.4byte	0x4f0
 1414 0550 14       		.uleb128 0x14
 1415 0551 E4000000 		.4byte	0xe4
 1416 0555 60050000 		.4byte	0x560
 1417 0559 15       		.uleb128 0x15
 1418 055a 39000000 		.4byte	0x39
 1419 055e 07       		.byte	0x7
 1420 055f 00       		.byte	0
 1421 0560 14       		.uleb128 0x14
 1422 0561 E4000000 		.4byte	0xe4
 1423 0565 70050000 		.4byte	0x570
 1424 0569 15       		.uleb128 0x15
 1425 056a 39000000 		.4byte	0x39
ARM GAS  C:\Users\DEVELO~1\AppData\Local\Temp\ccYfsuUi.s 			page 26


 1426 056e 03       		.byte	0x3
 1427 056f 00       		.byte	0
 1428 0570 14       		.uleb128 0x14
 1429 0571 E4000000 		.4byte	0xe4
 1430 0575 80050000 		.4byte	0x580
 1431 0579 15       		.uleb128 0x15
 1432 057a 39000000 		.4byte	0x39
 1433 057e 02       		.byte	0x2
 1434 057f 00       		.byte	0
 1435 0580 2E       		.uleb128 0x2e
 1436 0581 0004     		.2byte	0x400
 1437 0583 0C       		.byte	0xc
 1438 0584 7D05     		.2byte	0x57d
 1439 0586 09       		.byte	0x9
 1440 0587 F9060000 		.4byte	0x6f9
 1441 058b 03       		.uleb128 0x3
 1442 058c 08080000 		.4byte	.LASF81
 1443 0590 0C       		.byte	0xc
 1444 0591 7F05     		.2byte	0x57f
 1445 0593 11       		.byte	0x11
 1446 0594 F0000000 		.4byte	0xf0
 1447 0598 00       		.byte	0
 1448 0599 03       		.uleb128 0x3
 1449 059a 34070000 		.4byte	.LASF82
 1450 059e 0C       		.byte	0xc
 1451 059f 8005     		.2byte	0x580
 1452 05a1 11       		.byte	0x11
 1453 05a2 F0000000 		.4byte	0xf0
 1454 05a6 04       		.byte	0x4
 1455 05a7 04       		.uleb128 0x4
 1456 05a8 41524700 		.ascii	"ARG\000"
 1457 05ac 0C       		.byte	0xc
 1458 05ad 8105     		.2byte	0x581
 1459 05af 11       		.byte	0x11
 1460 05b0 F0000000 		.4byte	0xf0
 1461 05b4 08       		.byte	0x8
 1462 05b5 04       		.uleb128 0x4
 1463 05b6 434D4400 		.ascii	"CMD\000"
 1464 05ba 0C       		.byte	0xc
 1465 05bb 8205     		.2byte	0x582
 1466 05bd 11       		.byte	0x11
 1467 05be F0000000 		.4byte	0xf0
 1468 05c2 0C       		.byte	0xc
 1469 05c3 03       		.uleb128 0x3
 1470 05c4 23090000 		.4byte	.LASF83
 1471 05c8 0C       		.byte	0xc
 1472 05c9 8305     		.2byte	0x583
 1473 05cb 11       		.byte	0x11
 1474 05cc F5000000 		.4byte	0xf5
 1475 05d0 10       		.byte	0x10
 1476 05d1 03       		.uleb128 0x3
 1477 05d2 92040000 		.4byte	.LASF84
 1478 05d6 0C       		.byte	0xc
 1479 05d7 8405     		.2byte	0x584
 1480 05d9 11       		.byte	0x11
 1481 05da F5000000 		.4byte	0xf5
 1482 05de 14       		.byte	0x14
ARM GAS  C:\Users\DEVELO~1\AppData\Local\Temp\ccYfsuUi.s 			page 27


 1483 05df 03       		.uleb128 0x3
 1484 05e0 98040000 		.4byte	.LASF85
 1485 05e4 0C       		.byte	0xc
 1486 05e5 8505     		.2byte	0x585
 1487 05e7 11       		.byte	0x11
 1488 05e8 F5000000 		.4byte	0xf5
 1489 05ec 18       		.byte	0x18
 1490 05ed 03       		.uleb128 0x3
 1491 05ee 9E040000 		.4byte	.LASF86
 1492 05f2 0C       		.byte	0xc
 1493 05f3 8605     		.2byte	0x586
 1494 05f5 11       		.byte	0x11
 1495 05f6 F5000000 		.4byte	0xf5
 1496 05fa 1C       		.byte	0x1c
 1497 05fb 03       		.uleb128 0x3
 1498 05fc A4040000 		.4byte	.LASF87
 1499 0600 0C       		.byte	0xc
 1500 0601 8705     		.2byte	0x587
 1501 0603 11       		.byte	0x11
 1502 0604 F5000000 		.4byte	0xf5
 1503 0608 20       		.byte	0x20
 1504 0609 03       		.uleb128 0x3
 1505 060a 46070000 		.4byte	.LASF88
 1506 060e 0C       		.byte	0xc
 1507 060f 8805     		.2byte	0x588
 1508 0611 11       		.byte	0x11
 1509 0612 F0000000 		.4byte	0xf0
 1510 0616 24       		.byte	0x24
 1511 0617 03       		.uleb128 0x3
 1512 0618 A0070000 		.4byte	.LASF89
 1513 061c 0C       		.byte	0xc
 1514 061d 8905     		.2byte	0x589
 1515 061f 11       		.byte	0x11
 1516 0620 F0000000 		.4byte	0xf0
 1517 0624 28       		.byte	0x28
 1518 0625 03       		.uleb128 0x3
 1519 0626 AB070000 		.4byte	.LASF90
 1520 062a 0C       		.byte	0xc
 1521 062b 8A05     		.2byte	0x58a
 1522 062d 11       		.byte	0x11
 1523 062e F0000000 		.4byte	0xf0
 1524 0632 2C       		.byte	0x2c
 1525 0633 03       		.uleb128 0x3
 1526 0634 DE080000 		.4byte	.LASF91
 1527 0638 0C       		.byte	0xc
 1528 0639 8B05     		.2byte	0x58b
 1529 063b 11       		.byte	0x11
 1530 063c F5000000 		.4byte	0xf5
 1531 0640 30       		.byte	0x30
 1532 0641 04       		.uleb128 0x4
 1533 0642 53544100 		.ascii	"STA\000"
 1534 0646 0C       		.byte	0xc
 1535 0647 8C05     		.2byte	0x58c
 1536 0649 11       		.byte	0x11
 1537 064a F5000000 		.4byte	0xf5
 1538 064e 34       		.byte	0x34
 1539 064f 04       		.uleb128 0x4
ARM GAS  C:\Users\DEVELO~1\AppData\Local\Temp\ccYfsuUi.s 			page 28


 1540 0650 49435200 		.ascii	"ICR\000"
 1541 0654 0C       		.byte	0xc
 1542 0655 8D05     		.2byte	0x58d
 1543 0657 11       		.byte	0x11
 1544 0658 F0000000 		.4byte	0xf0
 1545 065c 38       		.byte	0x38
 1546 065d 03       		.uleb128 0x3
 1547 065e 97030000 		.4byte	.LASF92
 1548 0662 0C       		.byte	0xc
 1549 0663 8E05     		.2byte	0x58e
 1550 0665 11       		.byte	0x11
 1551 0666 F0000000 		.4byte	0xf0
 1552 066a 3C       		.byte	0x3c
 1553 066b 03       		.uleb128 0x3
 1554 066c 4D070000 		.4byte	.LASF93
 1555 0670 0C       		.byte	0xc
 1556 0671 8F05     		.2byte	0x58f
 1557 0673 11       		.byte	0x11
 1558 0674 F0000000 		.4byte	0xf0
 1559 0678 40       		.byte	0x40
 1560 0679 03       		.uleb128 0x3
 1561 067a 04070000 		.4byte	.LASF94
 1562 067e 0C       		.byte	0xc
 1563 067f 9005     		.2byte	0x590
 1564 0681 11       		.byte	0x11
 1565 0682 70050000 		.4byte	0x570
 1566 0686 44       		.byte	0x44
 1567 0687 03       		.uleb128 0x3
 1568 0688 42040000 		.4byte	.LASF95
 1569 068c 0C       		.byte	0xc
 1570 068d 9105     		.2byte	0x591
 1571 068f 11       		.byte	0x11
 1572 0690 F0000000 		.4byte	0xf0
 1573 0694 50       		.byte	0x50
 1574 0695 03       		.uleb128 0x3
 1575 0696 0E080000 		.4byte	.LASF96
 1576 069a 0C       		.byte	0xc
 1577 069b 9205     		.2byte	0x592
 1578 069d 11       		.byte	0x11
 1579 069e F0000000 		.4byte	0xf0
 1580 06a2 54       		.byte	0x54
 1581 06a3 03       		.uleb128 0x3
 1582 06a4 090A0000 		.4byte	.LASF97
 1583 06a8 0C       		.byte	0xc
 1584 06a9 9305     		.2byte	0x593
 1585 06ab 11       		.byte	0x11
 1586 06ac F0000000 		.4byte	0xf0
 1587 06b0 58       		.byte	0x58
 1588 06b1 03       		.uleb128 0x3
 1589 06b2 130A0000 		.4byte	.LASF98
 1590 06b6 0C       		.byte	0xc
 1591 06b7 9405     		.2byte	0x594
 1592 06b9 11       		.byte	0x11
 1593 06ba F0000000 		.4byte	0xf0
 1594 06be 5C       		.byte	0x5c
 1595 06bf 03       		.uleb128 0x3
 1596 06c0 0E070000 		.4byte	.LASF99
ARM GAS  C:\Users\DEVELO~1\AppData\Local\Temp\ccYfsuUi.s 			page 29


 1597 06c4 0C       		.byte	0xc
 1598 06c5 9505     		.2byte	0x595
 1599 06c7 11       		.byte	0x11
 1600 06c8 50050000 		.4byte	0x550
 1601 06cc 60       		.byte	0x60
 1602 06cd 03       		.uleb128 0x3
 1603 06ce 3D060000 		.4byte	.LASF100
 1604 06d2 0C       		.byte	0xc
 1605 06d3 9605     		.2byte	0x596
 1606 06d5 11       		.byte	0x11
 1607 06d6 F0000000 		.4byte	0xf0
 1608 06da 80       		.byte	0x80
 1609 06db 03       		.uleb128 0x3
 1610 06dc 18070000 		.4byte	.LASF101
 1611 06e0 0C       		.byte	0xc
 1612 06e1 9705     		.2byte	0x597
 1613 06e3 11       		.byte	0x11
 1614 06e4 F9060000 		.4byte	0x6f9
 1615 06e8 84       		.byte	0x84
 1616 06e9 2F       		.uleb128 0x2f
 1617 06ea 76010000 		.4byte	.LASF102
 1618 06ee 0C       		.byte	0xc
 1619 06ef 9805     		.2byte	0x598
 1620 06f1 11       		.byte	0x11
 1621 06f2 F0000000 		.4byte	0xf0
 1622 06f6 FC03     		.2byte	0x3fc
 1623 06f8 00       		.byte	0
 1624 06f9 14       		.uleb128 0x14
 1625 06fa E4000000 		.4byte	0xe4
 1626 06fe 09070000 		.4byte	0x709
 1627 0702 15       		.uleb128 0x15
 1628 0703 39000000 		.4byte	0x39
 1629 0707 DD       		.byte	0xdd
 1630 0708 00       		.byte	0
 1631 0709 1D       		.uleb128 0x1d
 1632 070a CD090000 		.4byte	.LASF103
 1633 070e 0C       		.byte	0xc
 1634 070f 9905     		.2byte	0x599
 1635 0711 80050000 		.4byte	0x580
 1636 0715 16       		.uleb128 0x16
 1637 0716 3A070000 		.4byte	.LASF104
 1638 071a 64       		.byte	0x64
 1639 071b 0D       		.byte	0xd
 1640 071c 3F02     		.2byte	0x23f
 1641 071e 08       		.byte	0x8
 1642 071f 7B080000 		.4byte	0x87b
 1643 0723 04       		.uleb128 0x4
 1644 0724 73313600 		.ascii	"s16\000"
 1645 0728 0D       		.byte	0xd
 1646 0729 4102     		.2byte	0x241
 1647 072b 11       		.byte	0x11
 1648 072c E4000000 		.4byte	0xe4
 1649 0730 00       		.byte	0
 1650 0731 04       		.uleb128 0x4
 1651 0732 73313700 		.ascii	"s17\000"
 1652 0736 0D       		.byte	0xd
 1653 0737 4202     		.2byte	0x242
ARM GAS  C:\Users\DEVELO~1\AppData\Local\Temp\ccYfsuUi.s 			page 30


 1654 0739 11       		.byte	0x11
 1655 073a E4000000 		.4byte	0xe4
 1656 073e 04       		.byte	0x4
 1657 073f 04       		.uleb128 0x4
 1658 0740 73313800 		.ascii	"s18\000"
 1659 0744 0D       		.byte	0xd
 1660 0745 4302     		.2byte	0x243
 1661 0747 11       		.byte	0x11
 1662 0748 E4000000 		.4byte	0xe4
 1663 074c 08       		.byte	0x8
 1664 074d 04       		.uleb128 0x4
 1665 074e 73313900 		.ascii	"s19\000"
 1666 0752 0D       		.byte	0xd
 1667 0753 4402     		.2byte	0x244
 1668 0755 11       		.byte	0x11
 1669 0756 E4000000 		.4byte	0xe4
 1670 075a 0C       		.byte	0xc
 1671 075b 04       		.uleb128 0x4
 1672 075c 73323000 		.ascii	"s20\000"
 1673 0760 0D       		.byte	0xd
 1674 0761 4502     		.2byte	0x245
 1675 0763 11       		.byte	0x11
 1676 0764 E4000000 		.4byte	0xe4
 1677 0768 10       		.byte	0x10
 1678 0769 04       		.uleb128 0x4
 1679 076a 73323100 		.ascii	"s21\000"
 1680 076e 0D       		.byte	0xd
 1681 076f 4602     		.2byte	0x246
 1682 0771 11       		.byte	0x11
 1683 0772 E4000000 		.4byte	0xe4
 1684 0776 14       		.byte	0x14
 1685 0777 04       		.uleb128 0x4
 1686 0778 73323200 		.ascii	"s22\000"
 1687 077c 0D       		.byte	0xd
 1688 077d 4702     		.2byte	0x247
 1689 077f 11       		.byte	0x11
 1690 0780 E4000000 		.4byte	0xe4
 1691 0784 18       		.byte	0x18
 1692 0785 04       		.uleb128 0x4
 1693 0786 73323300 		.ascii	"s23\000"
 1694 078a 0D       		.byte	0xd
 1695 078b 4802     		.2byte	0x248
 1696 078d 11       		.byte	0x11
 1697 078e E4000000 		.4byte	0xe4
 1698 0792 1C       		.byte	0x1c
 1699 0793 04       		.uleb128 0x4
 1700 0794 73323400 		.ascii	"s24\000"
 1701 0798 0D       		.byte	0xd
 1702 0799 4902     		.2byte	0x249
 1703 079b 11       		.byte	0x11
 1704 079c E4000000 		.4byte	0xe4
 1705 07a0 20       		.byte	0x20
 1706 07a1 04       		.uleb128 0x4
 1707 07a2 73323500 		.ascii	"s25\000"
 1708 07a6 0D       		.byte	0xd
 1709 07a7 4A02     		.2byte	0x24a
 1710 07a9 11       		.byte	0x11
ARM GAS  C:\Users\DEVELO~1\AppData\Local\Temp\ccYfsuUi.s 			page 31


 1711 07aa E4000000 		.4byte	0xe4
 1712 07ae 24       		.byte	0x24
 1713 07af 04       		.uleb128 0x4
 1714 07b0 73323600 		.ascii	"s26\000"
 1715 07b4 0D       		.byte	0xd
 1716 07b5 4B02     		.2byte	0x24b
 1717 07b7 11       		.byte	0x11
 1718 07b8 E4000000 		.4byte	0xe4
 1719 07bc 28       		.byte	0x28
 1720 07bd 04       		.uleb128 0x4
 1721 07be 73323700 		.ascii	"s27\000"
 1722 07c2 0D       		.byte	0xd
 1723 07c3 4C02     		.2byte	0x24c
 1724 07c5 11       		.byte	0x11
 1725 07c6 E4000000 		.4byte	0xe4
 1726 07ca 2C       		.byte	0x2c
 1727 07cb 04       		.uleb128 0x4
 1728 07cc 73323800 		.ascii	"s28\000"
 1729 07d0 0D       		.byte	0xd
 1730 07d1 4D02     		.2byte	0x24d
 1731 07d3 11       		.byte	0x11
 1732 07d4 E4000000 		.4byte	0xe4
 1733 07d8 30       		.byte	0x30
 1734 07d9 04       		.uleb128 0x4
 1735 07da 73323900 		.ascii	"s29\000"
 1736 07de 0D       		.byte	0xd
 1737 07df 4E02     		.2byte	0x24e
 1738 07e1 11       		.byte	0x11
 1739 07e2 E4000000 		.4byte	0xe4
 1740 07e6 34       		.byte	0x34
 1741 07e7 04       		.uleb128 0x4
 1742 07e8 73333000 		.ascii	"s30\000"
 1743 07ec 0D       		.byte	0xd
 1744 07ed 4F02     		.2byte	0x24f
 1745 07ef 11       		.byte	0x11
 1746 07f0 E4000000 		.4byte	0xe4
 1747 07f4 38       		.byte	0x38
 1748 07f5 04       		.uleb128 0x4
 1749 07f6 73333100 		.ascii	"s31\000"
 1750 07fa 0D       		.byte	0xd
 1751 07fb 5002     		.2byte	0x250
 1752 07fd 11       		.byte	0x11
 1753 07fe E4000000 		.4byte	0xe4
 1754 0802 3C       		.byte	0x3c
 1755 0803 04       		.uleb128 0x4
 1756 0804 723400   		.ascii	"r4\000"
 1757 0807 0D       		.byte	0xd
 1758 0808 5202     		.2byte	0x252
 1759 080a 11       		.byte	0x11
 1760 080b E4000000 		.4byte	0xe4
 1761 080f 40       		.byte	0x40
 1762 0810 04       		.uleb128 0x4
 1763 0811 723500   		.ascii	"r5\000"
 1764 0814 0D       		.byte	0xd
 1765 0815 5302     		.2byte	0x253
 1766 0817 11       		.byte	0x11
 1767 0818 E4000000 		.4byte	0xe4
ARM GAS  C:\Users\DEVELO~1\AppData\Local\Temp\ccYfsuUi.s 			page 32


 1768 081c 44       		.byte	0x44
 1769 081d 04       		.uleb128 0x4
 1770 081e 723600   		.ascii	"r6\000"
 1771 0821 0D       		.byte	0xd
 1772 0822 5402     		.2byte	0x254
 1773 0824 11       		.byte	0x11
 1774 0825 E4000000 		.4byte	0xe4
 1775 0829 48       		.byte	0x48
 1776 082a 04       		.uleb128 0x4
 1777 082b 723700   		.ascii	"r7\000"
 1778 082e 0D       		.byte	0xd
 1779 082f 5502     		.2byte	0x255
 1780 0831 11       		.byte	0x11
 1781 0832 E4000000 		.4byte	0xe4
 1782 0836 4C       		.byte	0x4c
 1783 0837 04       		.uleb128 0x4
 1784 0838 723800   		.ascii	"r8\000"
 1785 083b 0D       		.byte	0xd
 1786 083c 5602     		.2byte	0x256
 1787 083e 11       		.byte	0x11
 1788 083f E4000000 		.4byte	0xe4
 1789 0843 50       		.byte	0x50
 1790 0844 04       		.uleb128 0x4
 1791 0845 723900   		.ascii	"r9\000"
 1792 0848 0D       		.byte	0xd
 1793 0849 5702     		.2byte	0x257
 1794 084b 11       		.byte	0x11
 1795 084c E4000000 		.4byte	0xe4
 1796 0850 54       		.byte	0x54
 1797 0851 04       		.uleb128 0x4
 1798 0852 72313000 		.ascii	"r10\000"
 1799 0856 0D       		.byte	0xd
 1800 0857 5802     		.2byte	0x258
 1801 0859 11       		.byte	0x11
 1802 085a E4000000 		.4byte	0xe4
 1803 085e 58       		.byte	0x58
 1804 085f 04       		.uleb128 0x4
 1805 0860 72313100 		.ascii	"r11\000"
 1806 0864 0D       		.byte	0xd
 1807 0865 5902     		.2byte	0x259
 1808 0867 11       		.byte	0x11
 1809 0868 E4000000 		.4byte	0xe4
 1810 086c 5C       		.byte	0x5c
 1811 086d 04       		.uleb128 0x4
 1812 086e 6C7200   		.ascii	"lr\000"
 1813 0871 0D       		.byte	0xd
 1814 0872 5A02     		.2byte	0x25a
 1815 0874 11       		.byte	0x11
 1816 0875 E4000000 		.4byte	0xe4
 1817 0879 60       		.byte	0x60
 1818 087a 00       		.byte	0
 1819 087b 16       		.uleb128 0x16
 1820 087c 41010000 		.4byte	.LASF105
 1821 0880 04       		.byte	0x4
 1822 0881 0D       		.byte	0xd
 1823 0882 6302     		.2byte	0x263
 1824 0884 08       		.byte	0x8
ARM GAS  C:\Users\DEVELO~1\AppData\Local\Temp\ccYfsuUi.s 			page 33


 1825 0885 97080000 		.4byte	0x897
 1826 0889 04       		.uleb128 0x4
 1827 088a 737000   		.ascii	"sp\000"
 1828 088d 0D       		.byte	0xd
 1829 088e 6402     		.2byte	0x264
 1830 0890 1A       		.byte	0x1a
 1831 0891 97080000 		.4byte	0x897
 1832 0895 00       		.byte	0
 1833 0896 00       		.byte	0
 1834 0897 06       		.uleb128 0x6
 1835 0898 15070000 		.4byte	0x715
 1836 089c 02       		.uleb128 0x2
 1837 089d E7060000 		.4byte	.LASF106
 1838 08a1 0E       		.byte	0xe
 1839 08a2 32       		.byte	0x32
 1840 08a3 18       		.byte	0x18
 1841 08a4 A8080000 		.4byte	0x8a8
 1842 08a8 09       		.uleb128 0x9
 1843 08a9 AA010000 		.4byte	.LASF107
 1844 08ad 04       		.byte	0x4
 1845 08ae 0E       		.byte	0xe
 1846 08af 38       		.byte	0x38
 1847 08b0 08       		.byte	0x8
 1848 08b1 C3080000 		.4byte	0x8c3
 1849 08b5 01       		.uleb128 0x1
 1850 08b6 E7000000 		.4byte	.LASF108
 1851 08ba 0E       		.byte	0xe
 1852 08bb 39       		.byte	0x39
 1853 08bc 1A       		.byte	0x1a
 1854 08bd C3080000 		.4byte	0x8c3
 1855 08c1 00       		.byte	0
 1856 08c2 00       		.byte	0
 1857 08c3 06       		.uleb128 0x6
 1858 08c4 9C080000 		.4byte	0x89c
 1859 08c8 02       		.uleb128 0x2
 1860 08c9 69060000 		.4byte	.LASF109
 1861 08cd 0E       		.byte	0xe
 1862 08ce 3F       		.byte	0x3f
 1863 08cf 19       		.byte	0x19
 1864 08d0 D4080000 		.4byte	0x8d4
 1865 08d4 09       		.uleb128 0x9
 1866 08d5 86080000 		.4byte	.LASF110
 1867 08d9 08       		.byte	0x8
 1868 08da 0E       		.byte	0xe
 1869 08db 45       		.byte	0x45
 1870 08dc 08       		.byte	0x8
 1871 08dd FC080000 		.4byte	0x8fc
 1872 08e1 01       		.uleb128 0x1
 1873 08e2 E7000000 		.4byte	.LASF108
 1874 08e6 0E       		.byte	0xe
 1875 08e7 46       		.byte	0x46
 1876 08e8 1A       		.byte	0x1a
 1877 08e9 FC080000 		.4byte	0x8fc
 1878 08ed 00       		.byte	0
 1879 08ee 01       		.uleb128 0x1
 1880 08ef 96010000 		.4byte	.LASF111
 1881 08f3 0E       		.byte	0xe
ARM GAS  C:\Users\DEVELO~1\AppData\Local\Temp\ccYfsuUi.s 			page 34


 1882 08f4 47       		.byte	0x47
 1883 08f5 1A       		.byte	0x1a
 1884 08f6 FC080000 		.4byte	0x8fc
 1885 08fa 04       		.byte	0x4
 1886 08fb 00       		.byte	0
 1887 08fc 06       		.uleb128 0x6
 1888 08fd C8080000 		.4byte	0x8c8
 1889 0901 02       		.uleb128 0x2
 1890 0902 DC030000 		.4byte	.LASF112
 1891 0906 0E       		.byte	0xe
 1892 0907 4E       		.byte	0x4e
 1893 0908 22       		.byte	0x22
 1894 0909 0D090000 		.4byte	0x90d
 1895 090d 09       		.uleb128 0x9
 1896 090e 74080000 		.4byte	.LASF113
 1897 0912 0C       		.byte	0xc
 1898 0913 0E       		.byte	0xe
 1899 0914 55       		.byte	0x55
 1900 0915 08       		.byte	0x8
 1901 0916 42090000 		.4byte	0x942
 1902 091a 01       		.uleb128 0x1
 1903 091b E7000000 		.4byte	.LASF108
 1904 091f 0E       		.byte	0xe
 1905 0920 56       		.byte	0x56
 1906 0921 1A       		.byte	0x1a
 1907 0922 42090000 		.4byte	0x942
 1908 0926 00       		.byte	0
 1909 0927 01       		.uleb128 0x1
 1910 0928 96010000 		.4byte	.LASF111
 1911 092c 0E       		.byte	0xe
 1912 092d 57       		.byte	0x57
 1913 092e 1A       		.byte	0x1a
 1914 092f 42090000 		.4byte	0x942
 1915 0933 04       		.byte	0x4
 1916 0934 01       		.uleb128 0x1
 1917 0935 7B040000 		.4byte	.LASF114
 1918 0939 0E       		.byte	0xe
 1919 093a 58       		.byte	0x58
 1920 093b 19       		.byte	0x19
 1921 093c 47010000 		.4byte	0x147
 1922 0940 08       		.byte	0x8
 1923 0941 00       		.byte	0
 1924 0942 06       		.uleb128 0x6
 1925 0943 01090000 		.4byte	0x901
 1926 0947 02       		.uleb128 0x2
 1927 0948 AF040000 		.4byte	.LASF115
 1928 094c 0E       		.byte	0xe
 1929 094d 5F       		.byte	0x5f
 1930 094e 1E       		.byte	0x1e
 1931 094f 53090000 		.4byte	0x953
 1932 0953 09       		.uleb128 0x9
 1933 0954 F1010000 		.4byte	.LASF116
 1934 0958 0C       		.byte	0xc
 1935 0959 0E       		.byte	0xe
 1936 095a 64       		.byte	0x64
 1937 095b 08       		.byte	0x8
 1938 095c 88090000 		.4byte	0x988
ARM GAS  C:\Users\DEVELO~1\AppData\Local\Temp\ccYfsuUi.s 			page 35


 1939 0960 01       		.uleb128 0x1
 1940 0961 E7000000 		.4byte	.LASF108
 1941 0965 0E       		.byte	0xe
 1942 0966 65       		.byte	0x65
 1943 0967 1A       		.byte	0x1a
 1944 0968 88090000 		.4byte	0x988
 1945 096c 00       		.byte	0
 1946 096d 01       		.uleb128 0x1
 1947 096e 96010000 		.4byte	.LASF111
 1948 0972 0E       		.byte	0xe
 1949 0973 66       		.byte	0x66
 1950 0974 1A       		.byte	0x1a
 1951 0975 88090000 		.4byte	0x988
 1952 0979 04       		.byte	0x4
 1953 097a 01       		.uleb128 0x1
 1954 097b 68090000 		.4byte	.LASF117
 1955 097f 0E       		.byte	0xe
 1956 0980 67       		.byte	0x67
 1957 0981 19       		.byte	0x19
 1958 0982 AF030000 		.4byte	0x3af
 1959 0986 08       		.byte	0x8
 1960 0987 00       		.byte	0
 1961 0988 06       		.uleb128 0x6
 1962 0989 47090000 		.4byte	0x947
 1963 098d 09       		.uleb128 0x9
 1964 098e A4030000 		.4byte	.LASF118
 1965 0992 20       		.byte	0x20
 1966 0993 07       		.byte	0x7
 1967 0994 64       		.byte	0x64
 1968 0995 10       		.byte	0x10
 1969 0996 CF090000 		.4byte	0x9cf
 1970 099a 01       		.uleb128 0x1
 1971 099b 7C070000 		.4byte	.LASF119
 1972 099f 07       		.byte	0x7
 1973 09a0 68       		.byte	0x68
 1974 09a1 21       		.byte	0x21
 1975 09a2 47090000 		.4byte	0x947
 1976 09a6 00       		.byte	0
 1977 09a7 01       		.uleb128 0x1
 1978 09a8 82070000 		.4byte	.LASF120
 1979 09ac 07       		.byte	0x7
 1980 09ad 73       		.byte	0x73
 1981 09ae 21       		.byte	0x21
 1982 09af A3030000 		.4byte	0x3a3
 1983 09b3 0C       		.byte	0xc
 1984 09b4 01       		.uleb128 0x1
 1985 09b5 C9050000 		.4byte	.LASF121
 1986 09b9 07       		.byte	0x7
 1987 09ba 7B       		.byte	0x7b
 1988 09bb 21       		.byte	0x21
 1989 09bc AF030000 		.4byte	0x3af
 1990 09c0 10       		.byte	0x10
 1991 09c1 01       		.uleb128 0x1
 1992 09c2 6C010000 		.4byte	.LASF122
 1993 09c6 07       		.byte	0x7
 1994 09c7 81       		.byte	0x81
 1995 09c8 21       		.byte	0x21
ARM GAS  C:\Users\DEVELO~1\AppData\Local\Temp\ccYfsuUi.s 			page 36


 1996 09c9 06010000 		.4byte	0x106
 1997 09cd 18       		.byte	0x18
 1998 09ce 00       		.byte	0
 1999 09cf 02       		.uleb128 0x2
 2000 09d0 C8080000 		.4byte	.LASF123
 2001 09d4 07       		.byte	0x7
 2002 09d5 83       		.byte	0x83
 2003 09d6 03       		.byte	0x3
 2004 09d7 8D090000 		.4byte	0x98d
 2005 09db 09       		.uleb128 0x9
 2006 09dc 50000000 		.4byte	.LASF124
 2007 09e0 08       		.byte	0x8
 2008 09e1 07       		.byte	0x7
 2009 09e2 88       		.byte	0x88
 2010 09e3 10       		.byte	0x10
 2011 09e4 F6090000 		.4byte	0x9f6
 2012 09e8 01       		.uleb128 0x1
 2013 09e9 51080000 		.4byte	.LASF125
 2014 09ed 07       		.byte	0x7
 2015 09ee 8C       		.byte	0x8c
 2016 09ef 21       		.byte	0x21
 2017 09f0 C8080000 		.4byte	0x8c8
 2018 09f4 00       		.byte	0
 2019 09f5 00       		.byte	0
 2020 09f6 02       		.uleb128 0x2
 2021 09f7 DB050000 		.4byte	.LASF126
 2022 09fb 07       		.byte	0x7
 2023 09fc 8D       		.byte	0x8d
 2024 09fd 03       		.byte	0x3
 2025 09fe DB090000 		.4byte	0x9db
 2026 0a02 02       		.uleb128 0x2
 2027 0a03 CB040000 		.4byte	.LASF127
 2028 0a07 07       		.byte	0x7
 2029 0a08 92       		.byte	0x92
 2030 0a09 14       		.byte	0x14
 2031 0a0a E4030000 		.4byte	0x3e4
 2032 0a0e 02       		.uleb128 0x2
 2033 0a0f 4A060000 		.4byte	.LASF128
 2034 0a13 07       		.byte	0x7
 2035 0a14 A1       		.byte	0xa1
 2036 0a15 10       		.byte	0x10
 2037 0a16 1A0A0000 		.4byte	0xa1a
 2038 0a1a 06       		.uleb128 0x6
 2039 0a1b 1F0A0000 		.4byte	0xa1f
 2040 0a1f 30       		.uleb128 0x30
 2041 0a20 2A0A0000 		.4byte	0xa2a
 2042 0a24 05       		.uleb128 0x5
 2043 0a25 E4030000 		.4byte	0x3e4
 2044 0a29 00       		.byte	0
 2045 0a2a 23       		.uleb128 0x23
 2046 0a2b 0C       		.byte	0xc
 2047 0a2c 07       		.byte	0x7
 2048 0a2d AD       		.byte	0xad
 2049 0a2e 570A0000 		.4byte	0xa57
 2050 0a32 13       		.uleb128 0x13
 2051 0a33 DD010000 		.4byte	.LASF129
 2052 0a37 07       		.byte	0x7
ARM GAS  C:\Users\DEVELO~1\AppData\Local\Temp\ccYfsuUi.s 			page 37


 2053 0a38 B1       		.byte	0xb1
 2054 0a39 21       		.byte	0x21
 2055 0a3a 9C080000 		.4byte	0x89c
 2056 0a3e 13       		.uleb128 0x13
 2057 0a3f 51080000 		.4byte	.LASF125
 2058 0a43 07       		.byte	0x7
 2059 0a44 B5       		.byte	0xb5
 2060 0a45 21       		.byte	0x21
 2061 0a46 C8080000 		.4byte	0x8c8
 2062 0a4a 13       		.uleb128 0x13
 2063 0a4b 3F030000 		.4byte	.LASF130
 2064 0a4f 07       		.byte	0x7
 2065 0a50 B9       		.byte	0xb9
 2066 0a51 21       		.byte	0x21
 2067 0a52 01090000 		.4byte	0x901
 2068 0a56 00       		.byte	0
 2069 0a57 31       		.uleb128 0x31
 2070 0a58 04       		.byte	0x4
 2071 0a59 07       		.byte	0x7
 2072 0a5a 0201     		.2byte	0x102
 2073 0a5c 03       		.byte	0x3
 2074 0a5d C20A0000 		.4byte	0xac2
 2075 0a61 0E       		.uleb128 0xe
 2076 0a62 D5030000 		.4byte	.LASF131
 2077 0a66 0901     		.2byte	0x109
 2078 0a68 21       		.byte	0x21
 2079 0a69 53010000 		.4byte	0x153
 2080 0a6d 0E       		.uleb128 0xe
 2081 0a6e 2A0A0000 		.4byte	.LASF132
 2082 0a72 1001     		.2byte	0x110
 2083 0a74 21       		.byte	0x21
 2084 0a75 53010000 		.4byte	0x153
 2085 0a79 0E       		.uleb128 0xe
 2086 0a7a 2E010000 		.4byte	.LASF69
 2087 0a7e 1701     		.2byte	0x117
 2088 0a80 22       		.byte	0x22
 2089 0a81 E9030000 		.4byte	0x3e9
 2090 0a85 0E       		.uleb128 0xe
 2091 0a86 1D0A0000 		.4byte	.LASF133
 2092 0a8a 1E01     		.2byte	0x11e
 2093 0a8c 22       		.byte	0x22
 2094 0a8d C20A0000 		.4byte	0xac2
 2095 0a91 0E       		.uleb128 0xe
 2096 0a92 9F020000 		.4byte	.LASF134
 2097 0a96 2301     		.2byte	0x123
 2098 0a98 21       		.byte	0x21
 2099 0a99 53010000 		.4byte	0x153
 2100 0a9d 0E       		.uleb128 0xe
 2101 0a9e 6D080000 		.4byte	.LASF135
 2102 0aa2 2C01     		.2byte	0x12c
 2103 0aa4 22       		.byte	0x22
 2104 0aa5 EF0A0000 		.4byte	0xaef
 2105 0aa9 0E       		.uleb128 0xe
 2106 0aaa 230A0000 		.4byte	.LASF136
 2107 0aae 3501     		.2byte	0x135
 2108 0ab0 22       		.byte	0x22
 2109 0ab1 290B0000 		.4byte	0xb29
ARM GAS  C:\Users\DEVELO~1\AppData\Local\Temp\ccYfsuUi.s 			page 38


 2110 0ab5 0E       		.uleb128 0xe
 2111 0ab6 7B010000 		.4byte	.LASF137
 2112 0aba 3D01     		.2byte	0x13d
 2113 0abc 21       		.byte	0x21
 2114 0abd 5F010000 		.4byte	0x15f
 2115 0ac1 00       		.byte	0
 2116 0ac2 06       		.uleb128 0x6
 2117 0ac3 020A0000 		.4byte	0xa02
 2118 0ac7 09       		.uleb128 0x9
 2119 0ac8 C1020000 		.4byte	.LASF138
 2120 0acc 0C       		.byte	0xc
 2121 0acd 0F       		.byte	0xf
 2122 0ace 34       		.byte	0x34
 2123 0acf 10       		.byte	0x10
 2124 0ad0 EF0A0000 		.4byte	0xaef
 2125 0ad4 01       		.uleb128 0x1
 2126 0ad5 51080000 		.4byte	.LASF125
 2127 0ad9 0F       		.byte	0xf
 2128 0ada 35       		.byte	0x35
 2129 0adb 19       		.byte	0x19
 2130 0adc C8080000 		.4byte	0x8c8
 2131 0ae0 00       		.byte	0
 2132 0ae1 08       		.uleb128 0x8
 2133 0ae2 636E7400 		.ascii	"cnt\000"
 2134 0ae6 0F       		.byte	0xf
 2135 0ae7 37       		.byte	0x37
 2136 0ae8 19       		.byte	0x19
 2137 0ae9 6B010000 		.4byte	0x16b
 2138 0aed 08       		.byte	0x8
 2139 0aee 00       		.byte	0
 2140 0aef 06       		.uleb128 0x6
 2141 0af0 C70A0000 		.4byte	0xac7
 2142 0af4 09       		.uleb128 0x9
 2143 0af5 39040000 		.4byte	.LASF139
 2144 0af9 10       		.byte	0x10
 2145 0afa 10       		.byte	0x10
 2146 0afb 39       		.byte	0x39
 2147 0afc 08       		.byte	0x8
 2148 0afd 290B0000 		.4byte	0xb29
 2149 0b01 01       		.uleb128 0x1
 2150 0b02 51080000 		.4byte	.LASF125
 2151 0b06 10       		.byte	0x10
 2152 0b07 3A       		.byte	0x3a
 2153 0b08 19       		.byte	0x19
 2154 0b09 C8080000 		.4byte	0x8c8
 2155 0b0d 00       		.byte	0
 2156 0b0e 01       		.uleb128 0x1
 2157 0b0f 91030000 		.4byte	.LASF32
 2158 0b13 10       		.byte	0x10
 2159 0b14 3C       		.byte	0x3c
 2160 0b15 1A       		.byte	0x1a
 2161 0b16 E4030000 		.4byte	0x3e4
 2162 0b1a 08       		.byte	0x8
 2163 0b1b 01       		.uleb128 0x1
 2164 0b1c E7000000 		.4byte	.LASF108
 2165 0b20 10       		.byte	0x10
 2166 0b21 3E       		.byte	0x3e
ARM GAS  C:\Users\DEVELO~1\AppData\Local\Temp\ccYfsuUi.s 			page 39


 2167 0b22 1A       		.byte	0x1a
 2168 0b23 E60B0000 		.4byte	0xbe6
 2169 0b27 0C       		.byte	0xc
 2170 0b28 00       		.byte	0
 2171 0b29 06       		.uleb128 0x6
 2172 0b2a F40A0000 		.4byte	0xaf4
 2173 0b2e 06       		.uleb128 0x6
 2174 0b2f 8B020000 		.4byte	0x28b
 2175 0b33 06       		.uleb128 0x6
 2176 0b34 17010000 		.4byte	0x117
 2177 0b38 16       		.uleb128 0x16
 2178 0b39 5E010000 		.4byte	.LASF140
 2179 0b3d 10       		.byte	0x10
 2180 0b3e 07       		.byte	0x7
 2181 0b3f 6C01     		.2byte	0x16c
 2182 0b41 10       		.byte	0x10
 2183 0b42 630B0000 		.4byte	0xb63
 2184 0b46 03       		.uleb128 0x3
 2185 0b47 3F030000 		.4byte	.LASF130
 2186 0b4b 07       		.byte	0x7
 2187 0b4c 7101     		.2byte	0x171
 2188 0b4e 21       		.byte	0x21
 2189 0b4f 01090000 		.4byte	0x901
 2190 0b53 00       		.byte	0
 2191 0b54 03       		.uleb128 0x3
 2192 0b55 DB090000 		.4byte	.LASF141
 2193 0b59 07       		.byte	0x7
 2194 0b5a 7501     		.2byte	0x175
 2195 0b5c 22       		.byte	0x22
 2196 0b5d E4030000 		.4byte	0x3e4
 2197 0b61 0C       		.byte	0xc
 2198 0b62 00       		.byte	0
 2199 0b63 1D       		.uleb128 0x1d
 2200 0b64 3C080000 		.4byte	.LASF142
 2201 0b68 07       		.byte	0x7
 2202 0b69 7601     		.2byte	0x176
 2203 0b6b 380B0000 		.4byte	0xb38
 2204 0b6f 16       		.uleb128 0x16
 2205 0b70 66070000 		.4byte	.LASF143
 2206 0b74 14       		.byte	0x14
 2207 0b75 07       		.byte	0x7
 2208 0b76 7B01     		.2byte	0x17b
 2209 0b78 10       		.byte	0x10
 2210 0b79 C40B0000 		.4byte	0xbc4
 2211 0b7d 03       		.uleb128 0x3
 2212 0b7e 15000000 		.4byte	.LASF38
 2213 0b82 07       		.byte	0x7
 2214 0b83 7F01     		.2byte	0x17f
 2215 0b85 22       		.byte	0x22
 2216 0b86 81030000 		.4byte	0x381
 2217 0b8a 00       		.byte	0
 2218 0b8b 03       		.uleb128 0x3
 2219 0b8c 09000000 		.4byte	.LASF144
 2220 0b90 07       		.byte	0x7
 2221 0b91 8301     		.2byte	0x183
 2222 0b93 22       		.byte	0x22
 2223 0b94 330B0000 		.4byte	0xb33
ARM GAS  C:\Users\DEVELO~1\AppData\Local\Temp\ccYfsuUi.s 			page 40


 2224 0b98 04       		.byte	0x4
 2225 0b99 03       		.uleb128 0x3
 2226 0b9a 5B070000 		.4byte	.LASF145
 2227 0b9e 07       		.byte	0x7
 2228 0b9f 8701     		.2byte	0x187
 2229 0ba1 22       		.byte	0x22
 2230 0ba2 330B0000 		.4byte	0xb33
 2231 0ba6 08       		.byte	0x8
 2232 0ba7 03       		.uleb128 0x3
 2233 0ba8 74060000 		.4byte	.LASF146
 2234 0bac 07       		.byte	0x7
 2235 0bad 8C01     		.2byte	0x18c
 2236 0baf 22       		.byte	0x22
 2237 0bb0 330B0000 		.4byte	0xb33
 2238 0bb4 0C       		.byte	0xc
 2239 0bb5 03       		.uleb128 0x3
 2240 0bb6 B0050000 		.4byte	.LASF147
 2241 0bba 07       		.byte	0x7
 2242 0bbb 9001     		.2byte	0x190
 2243 0bbd 22       		.byte	0x22
 2244 0bbe 330B0000 		.4byte	0xb33
 2245 0bc2 10       		.byte	0x10
 2246 0bc3 00       		.byte	0
 2247 0bc4 1D       		.uleb128 0x1d
 2248 0bc5 DC020000 		.4byte	.LASF148
 2249 0bc9 07       		.byte	0x7
 2250 0bca 9201     		.2byte	0x192
 2251 0bcc 6F0B0000 		.4byte	0xb6f
 2252 0bd0 11       		.uleb128 0x11
 2253 0bd1 C40B0000 		.4byte	0xbc4
 2254 0bd5 06       		.uleb128 0x6
 2255 0bd6 D00B0000 		.4byte	0xbd0
 2256 0bda 02       		.uleb128 0x2
 2257 0bdb 8F080000 		.4byte	.LASF149
 2258 0bdf 10       		.byte	0x10
 2259 0be0 34       		.byte	0x34
 2260 0be1 19       		.byte	0x19
 2261 0be2 F40A0000 		.4byte	0xaf4
 2262 0be6 06       		.uleb128 0x6
 2263 0be7 DA0B0000 		.4byte	0xbda
 2264 0beb 0A       		.uleb128 0xa
 2265 0bec 01       		.byte	0x1
 2266 0bed 02       		.byte	0x2
 2267 0bee 0D040000 		.4byte	.LASF150
 2268 0bf2 06       		.uleb128 0x6
 2269 0bf3 C7000000 		.4byte	0xc7
 2270 0bf7 1E       		.uleb128 0x1e
 2271 0bf8 61000000 		.4byte	0x61
 2272 0bfc 11       		.byte	0x11
 2273 0bfd 28       		.byte	0x28
 2274 0bfe 390C0000 		.4byte	0xc39
 2275 0c02 07       		.uleb128 0x7
 2276 0c03 B2010000 		.4byte	.LASF151
 2277 0c07 00       		.byte	0
 2278 0c08 07       		.uleb128 0x7
 2279 0c09 F6050000 		.4byte	.LASF152
 2280 0c0d 01       		.byte	0x1
ARM GAS  C:\Users\DEVELO~1\AppData\Local\Temp\ccYfsuUi.s 			page 41


 2281 0c0e 07       		.uleb128 0x7
 2282 0c0f BB000000 		.4byte	.LASF153
 2283 0c13 02       		.byte	0x2
 2284 0c14 07       		.uleb128 0x7
 2285 0c15 1F010000 		.4byte	.LASF154
 2286 0c19 03       		.byte	0x3
 2287 0c1a 07       		.uleb128 0x7
 2288 0c1b 80040000 		.4byte	.LASF155
 2289 0c1f 04       		.byte	0x4
 2290 0c20 07       		.uleb128 0x7
 2291 0c21 68050000 		.4byte	.LASF156
 2292 0c25 05       		.byte	0x5
 2293 0c26 07       		.uleb128 0x7
 2294 0c27 94070000 		.4byte	.LASF157
 2295 0c2b 06       		.byte	0x6
 2296 0c2c 07       		.uleb128 0x7
 2297 0c2d 06090000 		.4byte	.LASF158
 2298 0c31 07       		.byte	0x7
 2299 0c32 07       		.uleb128 0x7
 2300 0c33 F8060000 		.4byte	.LASF159
 2301 0c37 08       		.byte	0x8
 2302 0c38 00       		.byte	0
 2303 0c39 02       		.uleb128 0x2
 2304 0c3a 99050000 		.4byte	.LASF160
 2305 0c3e 11       		.byte	0x11
 2306 0c3f 32       		.byte	0x32
 2307 0c40 03       		.byte	0x3
 2308 0c41 F70B0000 		.4byte	0xbf7
 2309 0c45 0D       		.uleb128 0xd
 2310 0c46 08       		.byte	0x8
 2311 0c47 11       		.byte	0x11
 2312 0c48 37       		.byte	0x37
 2313 0c49 09       		.byte	0x9
 2314 0c4a 690C0000 		.4byte	0xc69
 2315 0c4e 01       		.uleb128 0x1
 2316 0c4f F5000000 		.4byte	.LASF161
 2317 0c53 11       		.byte	0x11
 2318 0c54 38       		.byte	0x38
 2319 0c55 11       		.byte	0x11
 2320 0c56 E4000000 		.4byte	0xe4
 2321 0c5a 00       		.byte	0
 2322 0c5b 01       		.uleb128 0x1
 2323 0c5c 33050000 		.4byte	.LASF162
 2324 0c60 11       		.byte	0x11
 2325 0c61 39       		.byte	0x39
 2326 0c62 11       		.byte	0x11
 2327 0c63 E4000000 		.4byte	0xe4
 2328 0c67 04       		.byte	0x4
 2329 0c68 00       		.byte	0
 2330 0c69 02       		.uleb128 0x2
 2331 0c6a 20040000 		.4byte	.LASF163
 2332 0c6e 11       		.byte	0x11
 2333 0c6f 3A       		.byte	0x3a
 2334 0c70 03       		.byte	0x3
 2335 0c71 450C0000 		.4byte	0xc45
 2336 0c75 17       		.uleb128 0x17
 2337 0c76 EB0B0000 		.4byte	0xbeb
ARM GAS  C:\Users\DEVELO~1\AppData\Local\Temp\ccYfsuUi.s 			page 42


 2338 0c7a 840C0000 		.4byte	0xc84
 2339 0c7e 05       		.uleb128 0x5
 2340 0c7f E9030000 		.4byte	0x3e9
 2341 0c83 00       		.byte	0
 2342 0c84 06       		.uleb128 0x6
 2343 0c85 750C0000 		.4byte	0xc75
 2344 0c89 17       		.uleb128 0x17
 2345 0c8a EB0B0000 		.4byte	0xbeb
 2346 0c8e A70C0000 		.4byte	0xca7
 2347 0c92 05       		.uleb128 0x5
 2348 0c93 E9030000 		.4byte	0x3e9
 2349 0c97 05       		.uleb128 0x5
 2350 0c98 E4000000 		.4byte	0xe4
 2351 0c9c 05       		.uleb128 0x5
 2352 0c9d BB030000 		.4byte	0x3bb
 2353 0ca1 05       		.uleb128 0x5
 2354 0ca2 E4000000 		.4byte	0xe4
 2355 0ca6 00       		.byte	0
 2356 0ca7 06       		.uleb128 0x6
 2357 0ca8 890C0000 		.4byte	0xc89
 2358 0cac 17       		.uleb128 0x17
 2359 0cad EB0B0000 		.4byte	0xbeb
 2360 0cb1 CA0C0000 		.4byte	0xcca
 2361 0cb5 05       		.uleb128 0x5
 2362 0cb6 E9030000 		.4byte	0x3e9
 2363 0cba 05       		.uleb128 0x5
 2364 0cbb E4000000 		.4byte	0xe4
 2365 0cbf 05       		.uleb128 0x5
 2366 0cc0 F20B0000 		.4byte	0xbf2
 2367 0cc4 05       		.uleb128 0x5
 2368 0cc5 E4000000 		.4byte	0xe4
 2369 0cc9 00       		.byte	0
 2370 0cca 06       		.uleb128 0x6
 2371 0ccb AC0C0000 		.4byte	0xcac
 2372 0ccf 17       		.uleb128 0x17
 2373 0cd0 EB0B0000 		.4byte	0xbeb
 2374 0cd4 E30C0000 		.4byte	0xce3
 2375 0cd8 05       		.uleb128 0x5
 2376 0cd9 E9030000 		.4byte	0x3e9
 2377 0cdd 05       		.uleb128 0x5
 2378 0cde E30C0000 		.4byte	0xce3
 2379 0ce2 00       		.byte	0
 2380 0ce3 06       		.uleb128 0x6
 2381 0ce4 690C0000 		.4byte	0xc69
 2382 0ce8 06       		.uleb128 0x6
 2383 0ce9 CF0C0000 		.4byte	0xccf
 2384 0ced 06       		.uleb128 0x6
 2385 0cee E4000000 		.4byte	0xe4
 2386 0cf2 1E       		.uleb128 0x1e
 2387 0cf3 61000000 		.4byte	0x61
 2388 0cf7 12       		.byte	0x12
 2389 0cf8 7A       		.byte	0x7a
 2390 0cf9 100D0000 		.4byte	0xd10
 2391 0cfd 07       		.uleb128 0x7
 2392 0cfe 39090000 		.4byte	.LASF164
 2393 0d02 00       		.byte	0
 2394 0d03 07       		.uleb128 0x7
ARM GAS  C:\Users\DEVELO~1\AppData\Local\Temp\ccYfsuUi.s 			page 43


 2395 0d04 7E030000 		.4byte	.LASF165
 2396 0d08 01       		.byte	0x1
 2397 0d09 07       		.uleb128 0x7
 2398 0d0a B5090000 		.4byte	.LASF166
 2399 0d0e 02       		.byte	0x2
 2400 0d0f 00       		.byte	0
 2401 0d10 02       		.uleb128 0x2
 2402 0d11 E9070000 		.4byte	.LASF167
 2403 0d15 12       		.byte	0x12
 2404 0d16 7E       		.byte	0x7e
 2405 0d17 03       		.byte	0x3
 2406 0d18 F20C0000 		.4byte	0xcf2
 2407 0d1c 02       		.uleb128 0x2
 2408 0d1d C3090000 		.4byte	.LASF168
 2409 0d21 13       		.byte	0x13
 2410 0d22 A8       		.byte	0xa8
 2411 0d23 12       		.byte	0x12
 2412 0d24 E4000000 		.4byte	0xe4
 2413 0d28 02       		.uleb128 0x2
 2414 0d29 23000000 		.4byte	.LASF169
 2415 0d2d 13       		.byte	0x13
 2416 0d2e AD       		.byte	0xad
 2417 0d2f 12       		.byte	0x12
 2418 0d30 E4000000 		.4byte	0xe4
 2419 0d34 02       		.uleb128 0x2
 2420 0d35 81050000 		.4byte	.LASF170
 2421 0d39 13       		.byte	0x13
 2422 0d3a B2       		.byte	0xb2
 2423 0d3b 1A       		.byte	0x1a
 2424 0d3c 400D0000 		.4byte	0xd40
 2425 0d40 09       		.uleb128 0x9
 2426 0d41 81050000 		.4byte	.LASF170
 2427 0d45 50       		.byte	0x50
 2428 0d46 13       		.byte	0x13
 2429 0d47 D8       		.byte	0xd8
 2430 0d48 08       		.byte	0x8
 2431 0d49 050E0000 		.4byte	0xe05
 2432 0d4d 08       		.uleb128 0x8
 2433 0d4e 766D7400 		.ascii	"vmt\000"
 2434 0d52 13       		.byte	0x13
 2435 0d53 DC       		.byte	0xdc
 2436 0d54 1E       		.byte	0x1e
 2437 0d55 C20E0000 		.4byte	0xec2
 2438 0d59 00       		.byte	0
 2439 0d5a 01       		.uleb128 0x1
 2440 0d5b 1D090000 		.4byte	.LASF35
 2441 0d5f 13       		.byte	0x13
 2442 0d60 DD       		.byte	0xdd
 2443 0d61 03       		.byte	0x3
 2444 0d62 390C0000 		.4byte	0xc39
 2445 0d66 04       		.byte	0x4
 2446 0d67 08       		.uleb128 0x8
 2447 0d68 63696400 		.ascii	"cid\000"
 2448 0d6c 13       		.byte	0x13
 2449 0d6d DD       		.byte	0xdd
 2450 0d6e 03       		.byte	0x3
 2451 0d6f 60050000 		.4byte	0x560
ARM GAS  C:\Users\DEVELO~1\AppData\Local\Temp\ccYfsuUi.s 			page 44


 2452 0d73 08       		.byte	0x8
 2453 0d74 08       		.uleb128 0x8
 2454 0d75 63736400 		.ascii	"csd\000"
 2455 0d79 13       		.byte	0x13
 2456 0d7a DD       		.byte	0xdd
 2457 0d7b 03       		.byte	0x3
 2458 0d7c 60050000 		.4byte	0x560
 2459 0d80 18       		.byte	0x18
 2460 0d81 01       		.uleb128 0x1
 2461 0d82 5C000000 		.4byte	.LASF171
 2462 0d86 13       		.byte	0x13
 2463 0d87 DD       		.byte	0xdd
 2464 0d88 03       		.byte	0x3
 2465 0d89 E4000000 		.4byte	0xe4
 2466 0d8d 28       		.byte	0x28
 2467 0d8e 01       		.uleb128 0x1
 2468 0d8f F1060000 		.4byte	.LASF55
 2469 0d93 13       		.byte	0x13
 2470 0d94 E1       		.byte	0xe1
 2471 0d95 1E       		.byte	0x1e
 2472 0d96 C70E0000 		.4byte	0xec7
 2473 0d9a 2C       		.byte	0x2c
 2474 0d9b 01       		.uleb128 0x1
 2475 0d9c 1B030000 		.4byte	.LASF172
 2476 0da0 13       		.byte	0x13
 2477 0da1 E5       		.byte	0xe5
 2478 0da2 1D       		.byte	0x1d
 2479 0da3 1C0D0000 		.4byte	0xd1c
 2480 0da7 30       		.byte	0x30
 2481 0da8 01       		.uleb128 0x1
 2482 0da9 38030000 		.4byte	.LASF173
 2483 0dad 13       		.byte	0x13
 2484 0dae E9       		.byte	0xe9
 2485 0daf 1D       		.byte	0x1d
 2486 0db0 280D0000 		.4byte	0xd28
 2487 0db4 34       		.byte	0x34
 2488 0db5 08       		.uleb128 0x8
 2489 0db6 72636100 		.ascii	"rca\000"
 2490 0dba 13       		.byte	0x13
 2491 0dbb ED       		.byte	0xed
 2492 0dbc 1D       		.byte	0x1d
 2493 0dbd E4000000 		.4byte	0xe4
 2494 0dc1 38       		.byte	0x38
 2495 0dc2 08       		.uleb128 0x8
 2496 0dc3 62756600 		.ascii	"buf\000"
 2497 0dc7 13       		.byte	0x13
 2498 0dc8 F1       		.byte	0xf1
 2499 0dc9 1E       		.byte	0x1e
 2500 0dca BB030000 		.4byte	0x3bb
 2501 0dce 3C       		.byte	0x3c
 2502 0dcf 01       		.uleb128 0x1
 2503 0dd0 66080000 		.4byte	.LASF174
 2504 0dd4 13       		.byte	0x13
 2505 0dd5 F6       		.byte	0xf6
 2506 0dd6 1D       		.byte	0x1d
 2507 0dd7 020A0000 		.4byte	0xa02
 2508 0ddb 40       		.byte	0x40
ARM GAS  C:\Users\DEVELO~1\AppData\Local\Temp\ccYfsuUi.s 			page 45


 2509 0ddc 01       		.uleb128 0x1
 2510 0ddd F1090000 		.4byte	.LASF175
 2511 0de1 13       		.byte	0x13
 2512 0de2 FB       		.byte	0xfb
 2513 0de3 1E       		.byte	0x1e
 2514 0de4 CC0E0000 		.4byte	0xecc
 2515 0de8 44       		.byte	0x44
 2516 0de9 01       		.uleb128 0x1
 2517 0dea 42060000 		.4byte	.LASF176
 2518 0dee 13       		.byte	0x13
 2519 0def FF       		.byte	0xff
 2520 0df0 1D       		.byte	0x1d
 2521 0df1 E4000000 		.4byte	0xe4
 2522 0df5 48       		.byte	0x48
 2523 0df6 03       		.uleb128 0x3
 2524 0df7 040A0000 		.4byte	.LASF177
 2525 0dfb 13       		.byte	0x13
 2526 0dfc 0301     		.2byte	0x103
 2527 0dfe 1E       		.byte	0x1e
 2528 0dff ED0C0000 		.4byte	0xced
 2529 0e03 4C       		.byte	0x4c
 2530 0e04 00       		.byte	0
 2531 0e05 0D       		.uleb128 0xd
 2532 0e06 08       		.byte	0x8
 2533 0e07 13       		.byte	0x13
 2534 0e08 B8       		.byte	0xb8
 2535 0e09 09       		.byte	0x9
 2536 0e0a 290E0000 		.4byte	0xe29
 2537 0e0e 01       		.uleb128 0x1
 2538 0e0f 32080000 		.4byte	.LASF178
 2539 0e13 13       		.byte	0x13
 2540 0e14 BC       		.byte	0xbc
 2541 0e15 11       		.byte	0x11
 2542 0e16 100D0000 		.4byte	0xd10
 2543 0e1a 00       		.byte	0
 2544 0e1b 01       		.uleb128 0x1
 2545 0e1c F6070000 		.4byte	.LASF179
 2546 0e20 13       		.byte	0x13
 2547 0e21 C3       		.byte	0xc3
 2548 0e22 11       		.byte	0x11
 2549 0e23 E4000000 		.4byte	0xe4
 2550 0e27 04       		.byte	0x4
 2551 0e28 00       		.byte	0
 2552 0e29 02       		.uleb128 0x2
 2553 0e2a 15010000 		.4byte	.LASF180
 2554 0e2e 13       		.byte	0x13
 2555 0e2f C4       		.byte	0xc4
 2556 0e30 03       		.byte	0x3
 2557 0e31 050E0000 		.4byte	0xe05
 2558 0e35 11       		.uleb128 0x11
 2559 0e36 290E0000 		.4byte	0xe29
 2560 0e3a 09       		.uleb128 0x9
 2561 0e3b 82010000 		.4byte	.LASF181
 2562 0e3f 24       		.byte	0x24
 2563 0e40 13       		.byte	0x13
 2564 0e41 D1       		.byte	0xd1
 2565 0e42 08       		.byte	0x8
ARM GAS  C:\Users\DEVELO~1\AppData\Local\Temp\ccYfsuUi.s 			page 46


 2566 0e43 BD0E0000 		.4byte	0xebd
 2567 0e47 01       		.uleb128 0x1
 2568 0e48 E6050000 		.4byte	.LASF182
 2569 0e4c 13       		.byte	0x13
 2570 0e4d D2       		.byte	0xd2
 2571 0e4e 03       		.byte	0x3
 2572 0e4f 2D000000 		.4byte	0x2d
 2573 0e53 00       		.byte	0
 2574 0e54 01       		.uleb128 0x1
 2575 0e55 2C060000 		.4byte	.LASF183
 2576 0e59 13       		.byte	0x13
 2577 0e5a D2       		.byte	0xd2
 2578 0e5b 03       		.byte	0x3
 2579 0e5c 840C0000 		.4byte	0xc84
 2580 0e60 04       		.byte	0x4
 2581 0e61 01       		.uleb128 0x1
 2582 0e62 F7090000 		.4byte	.LASF184
 2583 0e66 13       		.byte	0x13
 2584 0e67 D2       		.byte	0xd2
 2585 0e68 03       		.byte	0x3
 2586 0e69 840C0000 		.4byte	0xc84
 2587 0e6d 08       		.byte	0x8
 2588 0e6e 01       		.uleb128 0x1
 2589 0e6f 2C070000 		.4byte	.LASF185
 2590 0e73 13       		.byte	0x13
 2591 0e74 D2       		.byte	0xd2
 2592 0e75 03       		.byte	0x3
 2593 0e76 840C0000 		.4byte	0xc84
 2594 0e7a 0C       		.byte	0xc
 2595 0e7b 01       		.uleb128 0x1
 2596 0e7c C6000000 		.4byte	.LASF186
 2597 0e80 13       		.byte	0x13
 2598 0e81 D2       		.byte	0xd2
 2599 0e82 03       		.byte	0x3
 2600 0e83 840C0000 		.4byte	0xc84
 2601 0e87 10       		.byte	0x10
 2602 0e88 01       		.uleb128 0x1
 2603 0e89 D1070000 		.4byte	.LASF187
 2604 0e8d 13       		.byte	0x13
 2605 0e8e D2       		.byte	0xd2
 2606 0e8f 03       		.byte	0x3
 2607 0e90 A70C0000 		.4byte	0xca7
 2608 0e94 14       		.byte	0x14
 2609 0e95 01       		.uleb128 0x1
 2610 0e96 A4050000 		.4byte	.LASF188
 2611 0e9a 13       		.byte	0x13
 2612 0e9b D2       		.byte	0xd2
 2613 0e9c 03       		.byte	0x3
 2614 0e9d CA0C0000 		.4byte	0xcca
 2615 0ea1 18       		.byte	0x18
 2616 0ea2 01       		.uleb128 0x1
 2617 0ea3 35010000 		.4byte	.LASF189
 2618 0ea7 13       		.byte	0x13
 2619 0ea8 D2       		.byte	0xd2
 2620 0ea9 03       		.byte	0x3
 2621 0eaa 840C0000 		.4byte	0xc84
 2622 0eae 1C       		.byte	0x1c
ARM GAS  C:\Users\DEVELO~1\AppData\Local\Temp\ccYfsuUi.s 			page 47


 2623 0eaf 01       		.uleb128 0x1
 2624 0eb0 30040000 		.4byte	.LASF190
 2625 0eb4 13       		.byte	0x13
 2626 0eb5 D2       		.byte	0xd2
 2627 0eb6 03       		.byte	0x3
 2628 0eb7 E80C0000 		.4byte	0xce8
 2629 0ebb 20       		.byte	0x20
 2630 0ebc 00       		.byte	0
 2631 0ebd 11       		.uleb128 0x11
 2632 0ebe 3A0E0000 		.4byte	0xe3a
 2633 0ec2 06       		.uleb128 0x6
 2634 0ec3 BD0E0000 		.4byte	0xebd
 2635 0ec7 06       		.uleb128 0x6
 2636 0ec8 350E0000 		.4byte	0xe35
 2637 0ecc 06       		.uleb128 0x6
 2638 0ecd 09070000 		.4byte	0x709
 2639 0ed1 32       		.uleb128 0x32
 2640 0ed2 13040000 		.4byte	.LASF217
 2641 0ed6 13       		.byte	0x13
 2642 0ed7 0F01     		.2byte	0x10f
 2643 0ed9 12       		.byte	0x12
 2644 0eda 340D0000 		.4byte	0xd34
 2645 0ede 1E       		.uleb128 0x1e
 2646 0edf 61000000 		.4byte	0x61
 2647 0ee3 14       		.byte	0x14
 2648 0ee4 13       		.byte	0x13
 2649 0ee5 080F0000 		.4byte	0xf08
 2650 0ee9 07       		.uleb128 0x7
 2651 0eea 57030000 		.4byte	.LASF191
 2652 0eee 00       		.byte	0
 2653 0eef 07       		.uleb128 0x7
 2654 0ef0 E2010000 		.4byte	.LASF192
 2655 0ef4 01       		.byte	0x1
 2656 0ef5 07       		.uleb128 0x7
 2657 0ef6 4B040000 		.4byte	.LASF193
 2658 0efa 02       		.byte	0x2
 2659 0efb 07       		.uleb128 0x7
 2660 0efc 9C080000 		.4byte	.LASF194
 2661 0f00 03       		.byte	0x3
 2662 0f01 07       		.uleb128 0x7
 2663 0f02 9B010000 		.4byte	.LASF195
 2664 0f06 04       		.byte	0x4
 2665 0f07 00       		.byte	0
 2666 0f08 02       		.uleb128 0x2
 2667 0f09 CD010000 		.4byte	.LASF196
 2668 0f0d 14       		.byte	0x14
 2669 0f0e 19       		.byte	0x19
 2670 0f0f 03       		.byte	0x3
 2671 0f10 DE0E0000 		.4byte	0xede
 2672 0f14 33       		.uleb128 0x33
 2673 0f15 B6000000 		.4byte	.LASF216
 2674 0f19 01       		.byte	0x1
 2675 0f1a 09       		.byte	0x9
 2676 0f1b 13       		.byte	0x13
 2677 0f1c 200F0000 		.4byte	0xf20
 2678 0f20 06       		.uleb128 0x6
 2679 0f21 340D0000 		.4byte	0xd34
ARM GAS  C:\Users\DEVELO~1\AppData\Local\Temp\ccYfsuUi.s 			page 48


 2680 0f25 1F       		.uleb128 0x1f
 2681 0f26 8F010000 		.4byte	.LASF197
 2682 0f2a 0A       		.byte	0xa
 2683 0f2b 18       		.byte	0x18
 2684 0f2c 350E0000 		.4byte	0xe35
 2685 0f30 05       		.uleb128 0x5
 2686 0f31 03       		.byte	0x3
 2687 0f32 00000000 		.4byte	sd_cfg
 2688 0f36 1F       		.uleb128 0x1f
 2689 0f37 6B030000 		.4byte	.LASF198
 2690 0f3b 0E       		.byte	0xe
 2691 0f3c 0D       		.byte	0xd
 2692 0f3d EB0B0000 		.4byte	0xbeb
 2693 0f41 05       		.uleb128 0x5
 2694 0f42 03       		.byte	0x3
 2695 0f43 00000000 		.4byte	sd_hal_initialized
 2696 0f47 1F       		.uleb128 0x1f
 2697 0f48 7F000000 		.4byte	.LASF199
 2698 0f4c 0F       		.byte	0xf
 2699 0f4d 0D       		.byte	0xd
 2700 0f4e EB0B0000 		.4byte	0xbeb
 2701 0f52 05       		.uleb128 0x5
 2702 0f53 03       		.byte	0x3
 2703 0f54 00000000 		.4byte	sd_connected
 2704 0f58 0F       		.uleb128 0xf
 2705 0f59 2E000000 		.4byte	.LASF200
 2706 0f5d C6       		.byte	0xc6
 2707 0f5e 08       		.byte	0x8
 2708 0f5f EB0B0000 		.4byte	0xbeb
 2709 0f63 720F0000 		.4byte	0xf72
 2710 0f67 05       		.uleb128 0x5
 2711 0f68 200F0000 		.4byte	0xf20
 2712 0f6c 05       		.uleb128 0x5
 2713 0f6d E30C0000 		.4byte	0xce3
 2714 0f71 00       		.byte	0
 2715 0f72 0F       		.uleb128 0xf
 2716 0f73 54090000 		.4byte	.LASF201
 2717 0f77 C5       		.byte	0xc5
 2718 0f78 08       		.byte	0x8
 2719 0f79 EB0B0000 		.4byte	0xbeb
 2720 0f7d 870F0000 		.4byte	0xf87
 2721 0f81 05       		.uleb128 0x5
 2722 0f82 200F0000 		.4byte	0xf20
 2723 0f86 00       		.byte	0
 2724 0f87 0F       		.uleb128 0xf
 2725 0f88 FF070000 		.4byte	.LASF202
 2726 0f8c C2       		.byte	0xc2
 2727 0f8d 08       		.byte	0x8
 2728 0f8e EB0B0000 		.4byte	0xbeb
 2729 0f92 AB0F0000 		.4byte	0xfab
 2730 0f96 05       		.uleb128 0x5
 2731 0f97 200F0000 		.4byte	0xf20
 2732 0f9b 05       		.uleb128 0x5
 2733 0f9c E4000000 		.4byte	0xe4
 2734 0fa0 05       		.uleb128 0x5
 2735 0fa1 F20B0000 		.4byte	0xbf2
 2736 0fa5 05       		.uleb128 0x5
ARM GAS  C:\Users\DEVELO~1\AppData\Local\Temp\ccYfsuUi.s 			page 49


 2737 0fa6 E4000000 		.4byte	0xe4
 2738 0faa 00       		.byte	0
 2739 0fab 0F       		.uleb128 0xf
 2740 0fac F0030000 		.4byte	.LASF203
 2741 0fb0 C4       		.byte	0xc4
 2742 0fb1 0E       		.byte	0xe
 2743 0fb2 280D0000 		.4byte	0xd28
 2744 0fb6 C00F0000 		.4byte	0xfc0
 2745 0fba 05       		.uleb128 0x5
 2746 0fbb 200F0000 		.4byte	0xf20
 2747 0fbf 00       		.byte	0
 2748 0fc0 0F       		.uleb128 0xf
 2749 0fc1 D3050000 		.4byte	.LASF204
 2750 0fc5 C0       		.byte	0xc0
 2751 0fc6 08       		.byte	0x8
 2752 0fc7 EB0B0000 		.4byte	0xbeb
 2753 0fcb E40F0000 		.4byte	0xfe4
 2754 0fcf 05       		.uleb128 0x5
 2755 0fd0 200F0000 		.4byte	0xf20
 2756 0fd4 05       		.uleb128 0x5
 2757 0fd5 E4000000 		.4byte	0xe4
 2758 0fd9 05       		.uleb128 0x5
 2759 0fda BB030000 		.4byte	0x3bb
 2760 0fde 05       		.uleb128 0x5
 2761 0fdf E4000000 		.4byte	0xe4
 2762 0fe3 00       		.byte	0
 2763 0fe4 0F       		.uleb128 0xf
 2764 0fe5 E3090000 		.4byte	.LASF205
 2765 0fe9 BF       		.byte	0xbf
 2766 0fea 08       		.byte	0x8
 2767 0feb EB0B0000 		.4byte	0xbeb
 2768 0fef F90F0000 		.4byte	0xff9
 2769 0ff3 05       		.uleb128 0x5
 2770 0ff4 200F0000 		.4byte	0xf20
 2771 0ff8 00       		.byte	0
 2772 0ff9 0F       		.uleb128 0xf
 2773 0ffa BE050000 		.4byte	.LASF206
 2774 0ffe BE       		.byte	0xbe
 2775 0fff 08       		.byte	0x8
 2776 1000 EB0B0000 		.4byte	0xbeb
 2777 1004 0E100000 		.4byte	0x100e
 2778 1008 05       		.uleb128 0x5
 2779 1009 200F0000 		.4byte	0xf20
 2780 100d 00       		.byte	0
 2781 100e 34       		.uleb128 0x34
 2782 100f 81090000 		.4byte	.LASF207
 2783 1013 13       		.byte	0x13
 2784 1014 2E01     		.2byte	0x12e
 2785 1016 08       		.byte	0x8
 2786 1017 EB0B0000 		.4byte	0xbeb
 2787 101b 25100000 		.4byte	0x1025
 2788 101f 05       		.uleb128 0x5
 2789 1020 200F0000 		.4byte	0xf20
 2790 1024 00       		.byte	0
 2791 1025 24       		.uleb128 0x24
 2792 1026 05040000 		.4byte	.LASF209
 2793 102a BD       		.byte	0xbd
ARM GAS  C:\Users\DEVELO~1\AppData\Local\Temp\ccYfsuUi.s 			page 50


 2794 102b 35100000 		.4byte	0x1035
 2795 102f 05       		.uleb128 0x5
 2796 1030 200F0000 		.4byte	0xf20
 2797 1034 00       		.byte	0
 2798 1035 0F       		.uleb128 0xf
 2799 1036 1A000000 		.4byte	.LASF208
 2800 103a BC       		.byte	0xbc
 2801 103b 09       		.byte	0x9
 2802 103c 53010000 		.4byte	0x153
 2803 1040 4F100000 		.4byte	0x104f
 2804 1044 05       		.uleb128 0x5
 2805 1045 200F0000 		.4byte	0xf20
 2806 1049 05       		.uleb128 0x5
 2807 104a C70E0000 		.4byte	0xec7
 2808 104e 00       		.byte	0
 2809 104f 24       		.uleb128 0x24
 2810 1050 F1020000 		.4byte	.LASF210
 2811 1054 BB       		.byte	0xbb
 2812 1055 5F100000 		.4byte	0x105f
 2813 1059 05       		.uleb128 0x5
 2814 105a 200F0000 		.4byte	0xf20
 2815 105e 00       		.byte	0
 2816 105f 18       		.uleb128 0x18
 2817 1060 67040000 		.4byte	.LASF211
 2818 1064 64       		.byte	0x64
 2819 1065 080F0000 		.4byte	0xf08
 2820 1069 00000000 		.4byte	.LFB457
 2821 106d 34000000 		.4byte	.LFE457-.LFB457
 2822 1071 01       		.uleb128 0x1
 2823 1072 9C       		.byte	0x9c
 2824 1073 B9100000 		.4byte	0x10b9
 2825 1077 10       		.uleb128 0x10
 2826 1078 47090000 		.4byte	.LASF213
 2827 107c 64       		.byte	0x64
 2828 107d 36       		.byte	0x36
 2829 107e E30C0000 		.4byte	0xce3
 2830 1082 14000000 		.4byte	.LLST19
 2831 1086 0C000000 		.4byte	.LVUS19
 2832 108a 12       		.uleb128 0x12
 2833 108b 29130000 		.4byte	0x1329
 2834 108f 02000000 		.4byte	.LBI62
 2835 1093 01       		.byte	.LVU137
 2836 1094 66000000 		.4byte	.LLRL20
 2837 1098 68       		.byte	0x68
 2838 1099 0A       		.byte	0xa
 2839 109a A8100000 		.4byte	0x10a8
 2840 109e 0B       		.uleb128 0xb
 2841 109f 0C000000 		.4byte	.LVL33
 2842 10a3 0E100000 		.4byte	0x100e
 2843 10a7 00       		.byte	0
 2844 10a8 20       		.uleb128 0x20
 2845 10a9 20000000 		.4byte	.LVL35
 2846 10ad 580F0000 		.4byte	0xf58
 2847 10b1 0C       		.uleb128 0xc
 2848 10b2 01       		.uleb128 0x1
 2849 10b3 51       		.byte	0x51
 2850 10b4 02       		.uleb128 0x2
ARM GAS  C:\Users\DEVELO~1\AppData\Local\Temp\ccYfsuUi.s 			page 51


 2851 10b5 74       		.byte	0x74
 2852 10b6 00       		.sleb128 0
 2853 10b7 00       		.byte	0
 2854 10b8 00       		.byte	0
 2855 10b9 35       		.uleb128 0x35
 2856 10ba 1C060000 		.4byte	.LASF226
 2857 10be 01       		.byte	0x1
 2858 10bf 60       		.byte	0x60
 2859 10c0 06       		.byte	0x6
 2860 10c1 01       		.byte	0x1
 2861 10c2 18       		.uleb128 0x18
 2862 10c3 BA060000 		.4byte	.LASF212
 2863 10c7 54       		.byte	0x54
 2864 10c8 080F0000 		.4byte	0xf08
 2865 10cc 00000000 		.4byte	.LFB455
 2866 10d0 4C000000 		.4byte	.LFE455-.LFB455
 2867 10d4 01       		.uleb128 0x1
 2868 10d5 9C       		.byte	0x9c
 2869 10d6 B5110000 		.4byte	0x11b5
 2870 10da 10       		.uleb128 0x10
 2871 10db A5000000 		.4byte	.LASF79
 2872 10df 54       		.byte	0x54
 2873 10e0 38       		.byte	0x38
 2874 10e1 F20B0000 		.4byte	0xbf2
 2875 10e5 37000000 		.4byte	.LLST10
 2876 10e9 31000000 		.4byte	.LVUS10
 2877 10ed 10       		.uleb128 0x10
 2878 10ee 46050000 		.4byte	.LASF214
 2879 10f2 54       		.byte	0x54
 2880 10f3 49       		.byte	0x49
 2881 10f4 E4000000 		.4byte	0xe4
 2882 10f8 55000000 		.4byte	.LLST11
 2883 10fc 4F000000 		.4byte	.LVUS11
 2884 1100 10       		.uleb128 0x10
 2885 1101 D6020000 		.4byte	.LASF215
 2886 1105 54       		.byte	0x54
 2887 1106 5A       		.byte	0x5a
 2888 1107 E4000000 		.4byte	0xe4
 2889 110b 73000000 		.4byte	.LLST12
 2890 110f 6D000000 		.4byte	.LVUS12
 2891 1113 25       		.uleb128 0x25
 2892 1114 72657300 		.ascii	"res\000"
 2893 1118 58       		.byte	0x58
 2894 1119 53010000 		.4byte	0x153
 2895 111d 26       		.uleb128 0x26
 2896 111e 38030000 		.4byte	.LASF173
 2897 1122 59       		.byte	0x59
 2898 1123 280D0000 		.4byte	0xd28
 2899 1127 8F000000 		.4byte	.LLST13
 2900 112b 8B000000 		.4byte	.LVUS13
 2901 112f 12       		.uleb128 0x12
 2902 1130 29130000 		.4byte	0x1329
 2903 1134 00000000 		.4byte	.LBI48
 2904 1138 02       		.byte	.LVU95
 2905 1139 3F000000 		.4byte	.LLRL14
 2906 113d 55       		.byte	0x55
 2907 113e 0A       		.byte	0xa
ARM GAS  C:\Users\DEVELO~1\AppData\Local\Temp\ccYfsuUi.s 			page 52


 2908 113f 4D110000 		.4byte	0x114d
 2909 1143 0B       		.uleb128 0xb
 2910 1144 0E000000 		.4byte	.LVL21
 2911 1148 0E100000 		.4byte	0x100e
 2912 114c 00       		.byte	0
 2913 114d 12       		.uleb128 0x12
 2914 114e A8120000 		.4byte	0x12a8
 2915 1152 2C000000 		.4byte	.LBI54
 2916 1156 02       		.byte	.LVU115
 2917 1157 4E000000 		.4byte	.LLRL15
 2918 115b 5D       		.byte	0x5d
 2919 115c 0C       		.byte	0xc
 2920 115d 8B110000 		.4byte	0x118b
 2921 1161 19       		.uleb128 0x19
 2922 1162 B9120000 		.4byte	0x12b9
 2923 1166 A3000000 		.4byte	.LLST16
 2924 116a 9F000000 		.4byte	.LVUS16
 2925 116e 27       		.uleb128 0x27
 2926 116f A8120000 		.4byte	0x12a8
 2927 1173 30000000 		.4byte	.LBI56
 2928 1177 00       		.byte	.LVU118
 2929 1178 5A000000 		.4byte	.LLRL17
 2930 117c 19       		.uleb128 0x19
 2931 117d B9120000 		.4byte	0x12b9
 2932 1181 B7000000 		.4byte	.LLST18
 2933 1185 B3000000 		.4byte	.LVUS18
 2934 1189 00       		.byte	0
 2935 118a 00       		.byte	0
 2936 118b 28       		.uleb128 0x28
 2937 118c 26000000 		.4byte	.LVL23
 2938 1190 870F0000 		.4byte	0xf87
 2939 1194 AB110000 		.4byte	0x11ab
 2940 1198 0C       		.uleb128 0xc
 2941 1199 01       		.uleb128 0x1
 2942 119a 51       		.byte	0x51
 2943 119b 02       		.uleb128 0x2
 2944 119c 74       		.byte	0x74
 2945 119d 00       		.sleb128 0
 2946 119e 0C       		.uleb128 0xc
 2947 119f 01       		.uleb128 0x1
 2948 11a0 52       		.byte	0x52
 2949 11a1 02       		.uleb128 0x2
 2950 11a2 75       		.byte	0x75
 2951 11a3 00       		.sleb128 0
 2952 11a4 0C       		.uleb128 0xc
 2953 11a5 01       		.uleb128 0x1
 2954 11a6 53       		.byte	0x53
 2955 11a7 02       		.uleb128 0x2
 2956 11a8 76       		.byte	0x76
 2957 11a9 00       		.sleb128 0
 2958 11aa 00       		.byte	0
 2959 11ab 0B       		.uleb128 0xb
 2960 11ac 2C000000 		.4byte	.LVL24
 2961 11b0 AB0F0000 		.4byte	0xfab
 2962 11b4 00       		.byte	0
 2963 11b5 18       		.uleb128 0x18
 2964 11b6 EF080000 		.4byte	.LASF218
ARM GAS  C:\Users\DEVELO~1\AppData\Local\Temp\ccYfsuUi.s 			page 53


 2965 11ba 48       		.byte	0x48
 2966 11bb 080F0000 		.4byte	0xf08
 2967 11bf 00000000 		.4byte	.LFB454
 2968 11c3 4C000000 		.4byte	.LFE454-.LFB454
 2969 11c7 01       		.uleb128 0x1
 2970 11c8 9C       		.byte	0x9c
 2971 11c9 A8120000 		.4byte	0x12a8
 2972 11cd 10       		.uleb128 0x10
 2973 11ce A5000000 		.4byte	.LASF79
 2974 11d2 48       		.byte	0x48
 2975 11d3 31       		.byte	0x31
 2976 11d4 BB030000 		.4byte	0x3bb
 2977 11d8 CD000000 		.4byte	.LLST1
 2978 11dc C7000000 		.4byte	.LVUS1
 2979 11e0 10       		.uleb128 0x10
 2980 11e1 46050000 		.4byte	.LASF214
 2981 11e5 48       		.byte	0x48
 2982 11e6 42       		.byte	0x42
 2983 11e7 E4000000 		.4byte	0xe4
 2984 11eb EB000000 		.4byte	.LLST2
 2985 11ef E5000000 		.4byte	.LVUS2
 2986 11f3 10       		.uleb128 0x10
 2987 11f4 D6020000 		.4byte	.LASF215
 2988 11f8 48       		.byte	0x48
 2989 11f9 53       		.byte	0x53
 2990 11fa E4000000 		.4byte	0xe4
 2991 11fe 09010000 		.4byte	.LLST3
 2992 1202 03010000 		.4byte	.LVUS3
 2993 1206 25       		.uleb128 0x25
 2994 1207 72657300 		.ascii	"res\000"
 2995 120b 4C       		.byte	0x4c
 2996 120c 53010000 		.4byte	0x153
 2997 1210 26       		.uleb128 0x26
 2998 1211 38030000 		.4byte	.LASF173
 2999 1215 4D       		.byte	0x4d
 3000 1216 280D0000 		.4byte	0xd28
 3001 121a 25010000 		.4byte	.LLST4
 3002 121e 21010000 		.4byte	.LVUS4
 3003 1222 12       		.uleb128 0x12
 3004 1223 29130000 		.4byte	0x1329
 3005 1227 00000000 		.4byte	.LBI28
 3006 122b 02       		.byte	.LVU58
 3007 122c 18000000 		.4byte	.LLRL5
 3008 1230 49       		.byte	0x49
 3009 1231 0A       		.byte	0xa
 3010 1232 40120000 		.4byte	0x1240
 3011 1236 0B       		.uleb128 0xb
 3012 1237 0E000000 		.4byte	.LVL10
 3013 123b 0E100000 		.4byte	0x100e
 3014 123f 00       		.byte	0
 3015 1240 12       		.uleb128 0x12
 3016 1241 A8120000 		.4byte	0x12a8
 3017 1245 2C000000 		.4byte	.LBI34
 3018 1249 02       		.byte	.LVU78
 3019 124a 27000000 		.4byte	.LLRL6
 3020 124e 51       		.byte	0x51
 3021 124f 0C       		.byte	0xc
ARM GAS  C:\Users\DEVELO~1\AppData\Local\Temp\ccYfsuUi.s 			page 54


 3022 1250 7E120000 		.4byte	0x127e
 3023 1254 19       		.uleb128 0x19
 3024 1255 B9120000 		.4byte	0x12b9
 3025 1259 39010000 		.4byte	.LLST7
 3026 125d 35010000 		.4byte	.LVUS7
 3027 1261 27       		.uleb128 0x27
 3028 1262 A8120000 		.4byte	0x12a8
 3029 1266 30000000 		.4byte	.LBI36
 3030 126a 00       		.byte	.LVU81
 3031 126b 33000000 		.4byte	.LLRL8
 3032 126f 19       		.uleb128 0x19
 3033 1270 B9120000 		.4byte	0x12b9
 3034 1274 4D010000 		.4byte	.LLST9
 3035 1278 49010000 		.4byte	.LVUS9
 3036 127c 00       		.byte	0
 3037 127d 00       		.byte	0
 3038 127e 28       		.uleb128 0x28
 3039 127f 26000000 		.4byte	.LVL12
 3040 1283 C00F0000 		.4byte	0xfc0
 3041 1287 9E120000 		.4byte	0x129e
 3042 128b 0C       		.uleb128 0xc
 3043 128c 01       		.uleb128 0x1
 3044 128d 51       		.byte	0x51
 3045 128e 02       		.uleb128 0x2
 3046 128f 74       		.byte	0x74
 3047 1290 00       		.sleb128 0
 3048 1291 0C       		.uleb128 0xc
 3049 1292 01       		.uleb128 0x1
 3050 1293 52       		.byte	0x52
 3051 1294 02       		.uleb128 0x2
 3052 1295 75       		.byte	0x75
 3053 1296 00       		.sleb128 0
 3054 1297 0C       		.uleb128 0xc
 3055 1298 01       		.uleb128 0x1
 3056 1299 53       		.byte	0x53
 3057 129a 02       		.uleb128 0x2
 3058 129b 76       		.byte	0x76
 3059 129c 00       		.sleb128 0
 3060 129d 00       		.byte	0
 3061 129e 0B       		.uleb128 0xb
 3062 129f 2C000000 		.4byte	.LVL13
 3063 12a3 AB0F0000 		.4byte	0xfab
 3064 12a7 00       		.byte	0
 3065 12a8 36       		.uleb128 0x36
 3066 12a9 A5060000 		.4byte	.LASF227
 3067 12ad 01       		.byte	0x1
 3068 12ae 38       		.byte	0x38
 3069 12af 18       		.byte	0x18
 3070 12b0 080F0000 		.4byte	0xf08
 3071 12b4 01       		.byte	0x1
 3072 12b5 C6120000 		.4byte	0x12c6
 3073 12b9 37       		.uleb128 0x37
 3074 12ba 8C000000 		.4byte	.LASF36
 3075 12be 01       		.byte	0x1
 3076 12bf 38       		.byte	0x38
 3077 12c0 38       		.byte	0x38
 3078 12c1 280D0000 		.4byte	0xd28
ARM GAS  C:\Users\DEVELO~1\AppData\Local\Temp\ccYfsuUi.s 			page 55


 3079 12c5 00       		.byte	0
 3080 12c6 21       		.uleb128 0x21
 3081 12c7 BB070000 		.4byte	.LASF220
 3082 12cb 30       		.byte	0x30
 3083 12cc 00000000 		.4byte	.LFB452
 3084 12d0 20000000 		.4byte	.LFE452-.LFB452
 3085 12d4 01       		.uleb128 0x1
 3086 12d5 9C       		.byte	0x9c
 3087 12d6 E4120000 		.4byte	0x12e4
 3088 12da 0B       		.uleb128 0xb
 3089 12db 10000000 		.4byte	.LVL7
 3090 12df E40F0000 		.4byte	0xfe4
 3091 12e3 00       		.byte	0
 3092 12e4 18       		.uleb128 0x18
 3093 12e5 D6070000 		.4byte	.LASF219
 3094 12e9 22       		.byte	0x22
 3095 12ea 080F0000 		.4byte	0xf08
 3096 12ee 00000000 		.4byte	.LFB451
 3097 12f2 34000000 		.4byte	.LFE451-.LFB451
 3098 12f6 01       		.uleb128 0x1
 3099 12f7 9C       		.byte	0x9c
 3100 12f8 29130000 		.4byte	0x1329
 3101 12fc 38       		.uleb128 0x38
 3102 12fd 29130000 		.4byte	0x1329
 3103 1301 0C000000 		.4byte	.LBI20
 3104 1305 01       		.byte	.LVU31
 3105 1306 0C000000 		.4byte	.LBB20
 3106 130a 06000000 		.4byte	.LBE20-.LBB20
 3107 130e 01       		.byte	0x1
 3108 130f 26       		.byte	0x26
 3109 1310 0A       		.byte	0xa
 3110 1311 1F130000 		.4byte	0x131f
 3111 1315 0B       		.uleb128 0xb
 3112 1316 12000000 		.4byte	.LVL5
 3113 131a 0E100000 		.4byte	0x100e
 3114 131e 00       		.byte	0
 3115 131f 0B       		.uleb128 0xb
 3116 1320 1A000000 		.4byte	.LVL6
 3117 1324 F90F0000 		.4byte	0xff9
 3118 1328 00       		.byte	0
 3119 1329 39       		.uleb128 0x39
 3120 132a 9A090000 		.4byte	.LASF228
 3121 132e 01       		.byte	0x1
 3122 132f 1E       		.byte	0x1e
 3123 1330 06       		.byte	0x6
 3124 1331 EB0B0000 		.4byte	0xbeb
 3125 1335 01       		.byte	0x1
 3126 1336 21       		.uleb128 0x21
 3127 1337 6D000000 		.4byte	.LASF221
 3128 133b 19       		.byte	0x19
 3129 133c 00000000 		.4byte	.LFB449
 3130 1340 18000000 		.4byte	.LFE449-.LFB449
 3131 1344 01       		.uleb128 0x1
 3132 1345 9C       		.byte	0x9c
 3133 1346 79130000 		.4byte	0x1379
 3134 134a 12       		.uleb128 0x12
 3135 134b B9100000 		.4byte	0x10b9
ARM GAS  C:\Users\DEVELO~1\AppData\Local\Temp\ccYfsuUi.s 			page 56


 3136 134f 00000000 		.4byte	.LBI16
 3137 1353 02       		.byte	.LVU13
 3138 1354 0C000000 		.4byte	.LLRL0
 3139 1358 1A       		.byte	0x1a
 3140 1359 05       		.byte	0x5
 3141 135a 6F130000 		.4byte	0x136f
 3142 135e 20       		.uleb128 0x20
 3143 135f 0A000000 		.4byte	.LVL2
 3144 1363 720F0000 		.4byte	0xf72
 3145 1367 0C       		.uleb128 0xc
 3146 1368 01       		.uleb128 0x1
 3147 1369 50       		.byte	0x50
 3148 136a 02       		.uleb128 0x2
 3149 136b 74       		.byte	0x74
 3150 136c 00       		.sleb128 0
 3151 136d 00       		.byte	0
 3152 136e 00       		.byte	0
 3153 136f 22       		.uleb128 0x22
 3154 1370 14000000 		.4byte	.LVL3
 3155 1374 25100000 		.4byte	0x1025
 3156 1378 00       		.byte	0
 3157 1379 21       		.uleb128 0x21
 3158 137a 4E010000 		.4byte	.LASF222
 3159 137e 11       		.byte	0x11
 3160 137f 00000000 		.4byte	.LFB448
 3161 1383 2C000000 		.4byte	.LFE448-.LFB448
 3162 1387 01       		.uleb128 0x1
 3163 1388 9C       		.byte	0x9c
 3164 1389 AA130000 		.4byte	0x13aa
 3165 138d 0B       		.uleb128 0xb
 3166 138e 10000000 		.4byte	.LVL0
 3167 1392 4F100000 		.4byte	0x104f
 3168 1396 20       		.uleb128 0x20
 3169 1397 18000000 		.4byte	.LVL1
 3170 139b 35100000 		.4byte	0x1035
 3171 139f 0C       		.uleb128 0xc
 3172 13a0 01       		.uleb128 0x1
 3173 13a1 51       		.byte	0x51
 3174 13a2 05       		.uleb128 0x5
 3175 13a3 03       		.byte	0x3
 3176 13a4 00000000 		.4byte	.LANCHOR1
 3177 13a8 00       		.byte	0
 3178 13a9 00       		.byte	0
 3179 13aa 3A       		.uleb128 0x3a
 3180 13ab 29130000 		.4byte	0x1329
 3181 13af 00000000 		.4byte	.LFB450
 3182 13b3 0C000000 		.4byte	.LFE450-.LFB450
 3183 13b7 01       		.uleb128 0x1
 3184 13b8 9C       		.byte	0x9c
 3185 13b9 C7130000 		.4byte	0x13c7
 3186 13bd 22       		.uleb128 0x22
 3187 13be 06000000 		.4byte	.LVL4
 3188 13c2 0E100000 		.4byte	0x100e
 3189 13c6 00       		.byte	0
 3190 13c7 3B       		.uleb128 0x3b
 3191 13c8 B9100000 		.4byte	0x10b9
 3192 13cc 00000000 		.4byte	.LFB456
ARM GAS  C:\Users\DEVELO~1\AppData\Local\Temp\ccYfsuUi.s 			page 57


 3193 13d0 0C000000 		.4byte	.LFE456-.LFB456
 3194 13d4 01       		.uleb128 0x1
 3195 13d5 9C       		.byte	0x9c
 3196 13d6 22       		.uleb128 0x22
 3197 13d7 06000000 		.4byte	.LVL30
 3198 13db 720F0000 		.4byte	0xf72
 3199 13df 00       		.byte	0
 3200 13e0 00       		.byte	0
 3201              		.section	.debug_abbrev,"",%progbits
 3202              	.Ldebug_abbrev0:
 3203 0000 01       		.uleb128 0x1
 3204 0001 0D       		.uleb128 0xd
 3205 0002 00       		.byte	0
 3206 0003 03       		.uleb128 0x3
 3207 0004 0E       		.uleb128 0xe
 3208 0005 3A       		.uleb128 0x3a
 3209 0006 0B       		.uleb128 0xb
 3210 0007 3B       		.uleb128 0x3b
 3211 0008 0B       		.uleb128 0xb
 3212 0009 39       		.uleb128 0x39
 3213 000a 0B       		.uleb128 0xb
 3214 000b 49       		.uleb128 0x49
 3215 000c 13       		.uleb128 0x13
 3216 000d 38       		.uleb128 0x38
 3217 000e 0B       		.uleb128 0xb
 3218 000f 00       		.byte	0
 3219 0010 00       		.byte	0
 3220 0011 02       		.uleb128 0x2
 3221 0012 16       		.uleb128 0x16
 3222 0013 00       		.byte	0
 3223 0014 03       		.uleb128 0x3
 3224 0015 0E       		.uleb128 0xe
 3225 0016 3A       		.uleb128 0x3a
 3226 0017 0B       		.uleb128 0xb
 3227 0018 3B       		.uleb128 0x3b
 3228 0019 0B       		.uleb128 0xb
 3229 001a 39       		.uleb128 0x39
 3230 001b 0B       		.uleb128 0xb
 3231 001c 49       		.uleb128 0x49
 3232 001d 13       		.uleb128 0x13
 3233 001e 00       		.byte	0
 3234 001f 00       		.byte	0
 3235 0020 03       		.uleb128 0x3
 3236 0021 0D       		.uleb128 0xd
 3237 0022 00       		.byte	0
 3238 0023 03       		.uleb128 0x3
 3239 0024 0E       		.uleb128 0xe
 3240 0025 3A       		.uleb128 0x3a
 3241 0026 0B       		.uleb128 0xb
 3242 0027 3B       		.uleb128 0x3b
 3243 0028 05       		.uleb128 0x5
 3244 0029 39       		.uleb128 0x39
 3245 002a 0B       		.uleb128 0xb
 3246 002b 49       		.uleb128 0x49
 3247 002c 13       		.uleb128 0x13
 3248 002d 38       		.uleb128 0x38
 3249 002e 0B       		.uleb128 0xb
ARM GAS  C:\Users\DEVELO~1\AppData\Local\Temp\ccYfsuUi.s 			page 58


 3250 002f 00       		.byte	0
 3251 0030 00       		.byte	0
 3252 0031 04       		.uleb128 0x4
 3253 0032 0D       		.uleb128 0xd
 3254 0033 00       		.byte	0
 3255 0034 03       		.uleb128 0x3
 3256 0035 08       		.uleb128 0x8
 3257 0036 3A       		.uleb128 0x3a
 3258 0037 0B       		.uleb128 0xb
 3259 0038 3B       		.uleb128 0x3b
 3260 0039 05       		.uleb128 0x5
 3261 003a 39       		.uleb128 0x39
 3262 003b 0B       		.uleb128 0xb
 3263 003c 49       		.uleb128 0x49
 3264 003d 13       		.uleb128 0x13
 3265 003e 38       		.uleb128 0x38
 3266 003f 0B       		.uleb128 0xb
 3267 0040 00       		.byte	0
 3268 0041 00       		.byte	0
 3269 0042 05       		.uleb128 0x5
 3270 0043 05       		.uleb128 0x5
 3271 0044 00       		.byte	0
 3272 0045 49       		.uleb128 0x49
 3273 0046 13       		.uleb128 0x13
 3274 0047 00       		.byte	0
 3275 0048 00       		.byte	0
 3276 0049 06       		.uleb128 0x6
 3277 004a 0F       		.uleb128 0xf
 3278 004b 00       		.byte	0
 3279 004c 0B       		.uleb128 0xb
 3280 004d 21       		.uleb128 0x21
 3281 004e 04       		.sleb128 4
 3282 004f 49       		.uleb128 0x49
 3283 0050 13       		.uleb128 0x13
 3284 0051 00       		.byte	0
 3285 0052 00       		.byte	0
 3286 0053 07       		.uleb128 0x7
 3287 0054 28       		.uleb128 0x28
 3288 0055 00       		.byte	0
 3289 0056 03       		.uleb128 0x3
 3290 0057 0E       		.uleb128 0xe
 3291 0058 1C       		.uleb128 0x1c
 3292 0059 0B       		.uleb128 0xb
 3293 005a 00       		.byte	0
 3294 005b 00       		.byte	0
 3295 005c 08       		.uleb128 0x8
 3296 005d 0D       		.uleb128 0xd
 3297 005e 00       		.byte	0
 3298 005f 03       		.uleb128 0x3
 3299 0060 08       		.uleb128 0x8
 3300 0061 3A       		.uleb128 0x3a
 3301 0062 0B       		.uleb128 0xb
 3302 0063 3B       		.uleb128 0x3b
 3303 0064 0B       		.uleb128 0xb
 3304 0065 39       		.uleb128 0x39
 3305 0066 0B       		.uleb128 0xb
 3306 0067 49       		.uleb128 0x49
ARM GAS  C:\Users\DEVELO~1\AppData\Local\Temp\ccYfsuUi.s 			page 59


 3307 0068 13       		.uleb128 0x13
 3308 0069 38       		.uleb128 0x38
 3309 006a 0B       		.uleb128 0xb
 3310 006b 00       		.byte	0
 3311 006c 00       		.byte	0
 3312 006d 09       		.uleb128 0x9
 3313 006e 13       		.uleb128 0x13
 3314 006f 01       		.byte	0x1
 3315 0070 03       		.uleb128 0x3
 3316 0071 0E       		.uleb128 0xe
 3317 0072 0B       		.uleb128 0xb
 3318 0073 0B       		.uleb128 0xb
 3319 0074 3A       		.uleb128 0x3a
 3320 0075 0B       		.uleb128 0xb
 3321 0076 3B       		.uleb128 0x3b
 3322 0077 0B       		.uleb128 0xb
 3323 0078 39       		.uleb128 0x39
 3324 0079 0B       		.uleb128 0xb
 3325 007a 01       		.uleb128 0x1
 3326 007b 13       		.uleb128 0x13
 3327 007c 00       		.byte	0
 3328 007d 00       		.byte	0
 3329 007e 0A       		.uleb128 0xa
 3330 007f 24       		.uleb128 0x24
 3331 0080 00       		.byte	0
 3332 0081 0B       		.uleb128 0xb
 3333 0082 0B       		.uleb128 0xb
 3334 0083 3E       		.uleb128 0x3e
 3335 0084 0B       		.uleb128 0xb
 3336 0085 03       		.uleb128 0x3
 3337 0086 0E       		.uleb128 0xe
 3338 0087 00       		.byte	0
 3339 0088 00       		.byte	0
 3340 0089 0B       		.uleb128 0xb
 3341 008a 48       		.uleb128 0x48
 3342 008b 00       		.byte	0
 3343 008c 7D       		.uleb128 0x7d
 3344 008d 01       		.uleb128 0x1
 3345 008e 7F       		.uleb128 0x7f
 3346 008f 13       		.uleb128 0x13
 3347 0090 00       		.byte	0
 3348 0091 00       		.byte	0
 3349 0092 0C       		.uleb128 0xc
 3350 0093 49       		.uleb128 0x49
 3351 0094 00       		.byte	0
 3352 0095 02       		.uleb128 0x2
 3353 0096 18       		.uleb128 0x18
 3354 0097 7E       		.uleb128 0x7e
 3355 0098 18       		.uleb128 0x18
 3356 0099 00       		.byte	0
 3357 009a 00       		.byte	0
 3358 009b 0D       		.uleb128 0xd
 3359 009c 13       		.uleb128 0x13
 3360 009d 01       		.byte	0x1
 3361 009e 0B       		.uleb128 0xb
 3362 009f 0B       		.uleb128 0xb
 3363 00a0 3A       		.uleb128 0x3a
ARM GAS  C:\Users\DEVELO~1\AppData\Local\Temp\ccYfsuUi.s 			page 60


 3364 00a1 0B       		.uleb128 0xb
 3365 00a2 3B       		.uleb128 0x3b
 3366 00a3 0B       		.uleb128 0xb
 3367 00a4 39       		.uleb128 0x39
 3368 00a5 0B       		.uleb128 0xb
 3369 00a6 01       		.uleb128 0x1
 3370 00a7 13       		.uleb128 0x13
 3371 00a8 00       		.byte	0
 3372 00a9 00       		.byte	0
 3373 00aa 0E       		.uleb128 0xe
 3374 00ab 0D       		.uleb128 0xd
 3375 00ac 00       		.byte	0
 3376 00ad 03       		.uleb128 0x3
 3377 00ae 0E       		.uleb128 0xe
 3378 00af 3A       		.uleb128 0x3a
 3379 00b0 21       		.uleb128 0x21
 3380 00b1 07       		.sleb128 7
 3381 00b2 3B       		.uleb128 0x3b
 3382 00b3 05       		.uleb128 0x5
 3383 00b4 39       		.uleb128 0x39
 3384 00b5 0B       		.uleb128 0xb
 3385 00b6 49       		.uleb128 0x49
 3386 00b7 13       		.uleb128 0x13
 3387 00b8 00       		.byte	0
 3388 00b9 00       		.byte	0
 3389 00ba 0F       		.uleb128 0xf
 3390 00bb 2E       		.uleb128 0x2e
 3391 00bc 01       		.byte	0x1
 3392 00bd 3F       		.uleb128 0x3f
 3393 00be 19       		.uleb128 0x19
 3394 00bf 03       		.uleb128 0x3
 3395 00c0 0E       		.uleb128 0xe
 3396 00c1 3A       		.uleb128 0x3a
 3397 00c2 21       		.uleb128 0x21
 3398 00c3 12       		.sleb128 18
 3399 00c4 3B       		.uleb128 0x3b
 3400 00c5 0B       		.uleb128 0xb
 3401 00c6 39       		.uleb128 0x39
 3402 00c7 0B       		.uleb128 0xb
 3403 00c8 27       		.uleb128 0x27
 3404 00c9 19       		.uleb128 0x19
 3405 00ca 49       		.uleb128 0x49
 3406 00cb 13       		.uleb128 0x13
 3407 00cc 3C       		.uleb128 0x3c
 3408 00cd 19       		.uleb128 0x19
 3409 00ce 01       		.uleb128 0x1
 3410 00cf 13       		.uleb128 0x13
 3411 00d0 00       		.byte	0
 3412 00d1 00       		.byte	0
 3413 00d2 10       		.uleb128 0x10
 3414 00d3 05       		.uleb128 0x5
 3415 00d4 00       		.byte	0
 3416 00d5 03       		.uleb128 0x3
 3417 00d6 0E       		.uleb128 0xe
 3418 00d7 3A       		.uleb128 0x3a
 3419 00d8 21       		.uleb128 0x21
 3420 00d9 01       		.sleb128 1
ARM GAS  C:\Users\DEVELO~1\AppData\Local\Temp\ccYfsuUi.s 			page 61


 3421 00da 3B       		.uleb128 0x3b
 3422 00db 0B       		.uleb128 0xb
 3423 00dc 39       		.uleb128 0x39
 3424 00dd 0B       		.uleb128 0xb
 3425 00de 49       		.uleb128 0x49
 3426 00df 13       		.uleb128 0x13
 3427 00e0 02       		.uleb128 0x2
 3428 00e1 17       		.uleb128 0x17
 3429 00e2 B742     		.uleb128 0x2137
 3430 00e4 17       		.uleb128 0x17
 3431 00e5 00       		.byte	0
 3432 00e6 00       		.byte	0
 3433 00e7 11       		.uleb128 0x11
 3434 00e8 26       		.uleb128 0x26
 3435 00e9 00       		.byte	0
 3436 00ea 49       		.uleb128 0x49
 3437 00eb 13       		.uleb128 0x13
 3438 00ec 00       		.byte	0
 3439 00ed 00       		.byte	0
 3440 00ee 12       		.uleb128 0x12
 3441 00ef 1D       		.uleb128 0x1d
 3442 00f0 01       		.byte	0x1
 3443 00f1 31       		.uleb128 0x31
 3444 00f2 13       		.uleb128 0x13
 3445 00f3 52       		.uleb128 0x52
 3446 00f4 01       		.uleb128 0x1
 3447 00f5 B842     		.uleb128 0x2138
 3448 00f7 0B       		.uleb128 0xb
 3449 00f8 55       		.uleb128 0x55
 3450 00f9 17       		.uleb128 0x17
 3451 00fa 58       		.uleb128 0x58
 3452 00fb 21       		.uleb128 0x21
 3453 00fc 01       		.sleb128 1
 3454 00fd 59       		.uleb128 0x59
 3455 00fe 0B       		.uleb128 0xb
 3456 00ff 57       		.uleb128 0x57
 3457 0100 0B       		.uleb128 0xb
 3458 0101 01       		.uleb128 0x1
 3459 0102 13       		.uleb128 0x13
 3460 0103 00       		.byte	0
 3461 0104 00       		.byte	0
 3462 0105 13       		.uleb128 0x13
 3463 0106 0D       		.uleb128 0xd
 3464 0107 00       		.byte	0
 3465 0108 03       		.uleb128 0x3
 3466 0109 0E       		.uleb128 0xe
 3467 010a 3A       		.uleb128 0x3a
 3468 010b 0B       		.uleb128 0xb
 3469 010c 3B       		.uleb128 0x3b
 3470 010d 0B       		.uleb128 0xb
 3471 010e 39       		.uleb128 0x39
 3472 010f 0B       		.uleb128 0xb
 3473 0110 49       		.uleb128 0x49
 3474 0111 13       		.uleb128 0x13
 3475 0112 00       		.byte	0
 3476 0113 00       		.byte	0
 3477 0114 14       		.uleb128 0x14
ARM GAS  C:\Users\DEVELO~1\AppData\Local\Temp\ccYfsuUi.s 			page 62


 3478 0115 01       		.uleb128 0x1
 3479 0116 01       		.byte	0x1
 3480 0117 49       		.uleb128 0x49
 3481 0118 13       		.uleb128 0x13
 3482 0119 01       		.uleb128 0x1
 3483 011a 13       		.uleb128 0x13
 3484 011b 00       		.byte	0
 3485 011c 00       		.byte	0
 3486 011d 15       		.uleb128 0x15
 3487 011e 21       		.uleb128 0x21
 3488 011f 00       		.byte	0
 3489 0120 49       		.uleb128 0x49
 3490 0121 13       		.uleb128 0x13
 3491 0122 2F       		.uleb128 0x2f
 3492 0123 0B       		.uleb128 0xb
 3493 0124 00       		.byte	0
 3494 0125 00       		.byte	0
 3495 0126 16       		.uleb128 0x16
 3496 0127 13       		.uleb128 0x13
 3497 0128 01       		.byte	0x1
 3498 0129 03       		.uleb128 0x3
 3499 012a 0E       		.uleb128 0xe
 3500 012b 0B       		.uleb128 0xb
 3501 012c 0B       		.uleb128 0xb
 3502 012d 3A       		.uleb128 0x3a
 3503 012e 0B       		.uleb128 0xb
 3504 012f 3B       		.uleb128 0x3b
 3505 0130 05       		.uleb128 0x5
 3506 0131 39       		.uleb128 0x39
 3507 0132 0B       		.uleb128 0xb
 3508 0133 01       		.uleb128 0x1
 3509 0134 13       		.uleb128 0x13
 3510 0135 00       		.byte	0
 3511 0136 00       		.byte	0
 3512 0137 17       		.uleb128 0x17
 3513 0138 15       		.uleb128 0x15
 3514 0139 01       		.byte	0x1
 3515 013a 27       		.uleb128 0x27
 3516 013b 19       		.uleb128 0x19
 3517 013c 49       		.uleb128 0x49
 3518 013d 13       		.uleb128 0x13
 3519 013e 01       		.uleb128 0x1
 3520 013f 13       		.uleb128 0x13
 3521 0140 00       		.byte	0
 3522 0141 00       		.byte	0
 3523 0142 18       		.uleb128 0x18
 3524 0143 2E       		.uleb128 0x2e
 3525 0144 01       		.byte	0x1
 3526 0145 3F       		.uleb128 0x3f
 3527 0146 19       		.uleb128 0x19
 3528 0147 03       		.uleb128 0x3
 3529 0148 0E       		.uleb128 0xe
 3530 0149 3A       		.uleb128 0x3a
 3531 014a 21       		.uleb128 0x21
 3532 014b 01       		.sleb128 1
 3533 014c 3B       		.uleb128 0x3b
 3534 014d 0B       		.uleb128 0xb
ARM GAS  C:\Users\DEVELO~1\AppData\Local\Temp\ccYfsuUi.s 			page 63


 3535 014e 39       		.uleb128 0x39
 3536 014f 21       		.uleb128 0x21
 3537 0150 11       		.sleb128 17
 3538 0151 27       		.uleb128 0x27
 3539 0152 19       		.uleb128 0x19
 3540 0153 49       		.uleb128 0x49
 3541 0154 13       		.uleb128 0x13
 3542 0155 11       		.uleb128 0x11
 3543 0156 01       		.uleb128 0x1
 3544 0157 12       		.uleb128 0x12
 3545 0158 06       		.uleb128 0x6
 3546 0159 40       		.uleb128 0x40
 3547 015a 18       		.uleb128 0x18
 3548 015b 7A       		.uleb128 0x7a
 3549 015c 19       		.uleb128 0x19
 3550 015d 01       		.uleb128 0x1
 3551 015e 13       		.uleb128 0x13
 3552 015f 00       		.byte	0
 3553 0160 00       		.byte	0
 3554 0161 19       		.uleb128 0x19
 3555 0162 05       		.uleb128 0x5
 3556 0163 00       		.byte	0
 3557 0164 31       		.uleb128 0x31
 3558 0165 13       		.uleb128 0x13
 3559 0166 02       		.uleb128 0x2
 3560 0167 17       		.uleb128 0x17
 3561 0168 B742     		.uleb128 0x2137
 3562 016a 17       		.uleb128 0x17
 3563 016b 00       		.byte	0
 3564 016c 00       		.byte	0
 3565 016d 1A       		.uleb128 0x1a
 3566 016e 35       		.uleb128 0x35
 3567 016f 00       		.byte	0
 3568 0170 49       		.uleb128 0x49
 3569 0171 13       		.uleb128 0x13
 3570 0172 00       		.byte	0
 3571 0173 00       		.byte	0
 3572 0174 1B       		.uleb128 0x1b
 3573 0175 0D       		.uleb128 0xd
 3574 0176 00       		.byte	0
 3575 0177 03       		.uleb128 0x3
 3576 0178 08       		.uleb128 0x8
 3577 0179 3A       		.uleb128 0x3a
 3578 017a 21       		.uleb128 0x21
 3579 017b 0B       		.sleb128 11
 3580 017c 3B       		.uleb128 0x3b
 3581 017d 0B       		.uleb128 0xb
 3582 017e 39       		.uleb128 0x39
 3583 017f 21       		.uleb128 0x21
 3584 0180 07       		.sleb128 7
 3585 0181 49       		.uleb128 0x49
 3586 0182 13       		.uleb128 0x13
 3587 0183 00       		.byte	0
 3588 0184 00       		.byte	0
 3589 0185 1C       		.uleb128 0x1c
 3590 0186 0D       		.uleb128 0xd
 3591 0187 00       		.byte	0
ARM GAS  C:\Users\DEVELO~1\AppData\Local\Temp\ccYfsuUi.s 			page 64


 3592 0188 03       		.uleb128 0x3
 3593 0189 0E       		.uleb128 0xe
 3594 018a 3A       		.uleb128 0x3a
 3595 018b 21       		.uleb128 0x21
 3596 018c 0B       		.sleb128 11
 3597 018d 3B       		.uleb128 0x3b
 3598 018e 0B       		.uleb128 0xb
 3599 018f 39       		.uleb128 0x39
 3600 0190 21       		.uleb128 0x21
 3601 0191 19       		.sleb128 25
 3602 0192 49       		.uleb128 0x49
 3603 0193 13       		.uleb128 0x13
 3604 0194 0D       		.uleb128 0xd
 3605 0195 0B       		.uleb128 0xb
 3606 0196 6B       		.uleb128 0x6b
 3607 0197 0B       		.uleb128 0xb
 3608 0198 00       		.byte	0
 3609 0199 00       		.byte	0
 3610 019a 1D       		.uleb128 0x1d
 3611 019b 16       		.uleb128 0x16
 3612 019c 00       		.byte	0
 3613 019d 03       		.uleb128 0x3
 3614 019e 0E       		.uleb128 0xe
 3615 019f 3A       		.uleb128 0x3a
 3616 01a0 0B       		.uleb128 0xb
 3617 01a1 3B       		.uleb128 0x3b
 3618 01a2 05       		.uleb128 0x5
 3619 01a3 39       		.uleb128 0x39
 3620 01a4 21       		.uleb128 0x21
 3621 01a5 03       		.sleb128 3
 3622 01a6 49       		.uleb128 0x49
 3623 01a7 13       		.uleb128 0x13
 3624 01a8 00       		.byte	0
 3625 01a9 00       		.byte	0
 3626 01aa 1E       		.uleb128 0x1e
 3627 01ab 04       		.uleb128 0x4
 3628 01ac 01       		.byte	0x1
 3629 01ad 3E       		.uleb128 0x3e
 3630 01ae 21       		.uleb128 0x21
 3631 01af 07       		.sleb128 7
 3632 01b0 0B       		.uleb128 0xb
 3633 01b1 21       		.uleb128 0x21
 3634 01b2 01       		.sleb128 1
 3635 01b3 49       		.uleb128 0x49
 3636 01b4 13       		.uleb128 0x13
 3637 01b5 3A       		.uleb128 0x3a
 3638 01b6 0B       		.uleb128 0xb
 3639 01b7 3B       		.uleb128 0x3b
 3640 01b8 0B       		.uleb128 0xb
 3641 01b9 39       		.uleb128 0x39
 3642 01ba 21       		.uleb128 0x21
 3643 01bb 0E       		.sleb128 14
 3644 01bc 01       		.uleb128 0x1
 3645 01bd 13       		.uleb128 0x13
 3646 01be 00       		.byte	0
 3647 01bf 00       		.byte	0
 3648 01c0 1F       		.uleb128 0x1f
ARM GAS  C:\Users\DEVELO~1\AppData\Local\Temp\ccYfsuUi.s 			page 65


 3649 01c1 34       		.uleb128 0x34
 3650 01c2 00       		.byte	0
 3651 01c3 03       		.uleb128 0x3
 3652 01c4 0E       		.uleb128 0xe
 3653 01c5 3A       		.uleb128 0x3a
 3654 01c6 21       		.uleb128 0x21
 3655 01c7 01       		.sleb128 1
 3656 01c8 3B       		.uleb128 0x3b
 3657 01c9 0B       		.uleb128 0xb
 3658 01ca 39       		.uleb128 0x39
 3659 01cb 0B       		.uleb128 0xb
 3660 01cc 49       		.uleb128 0x49
 3661 01cd 13       		.uleb128 0x13
 3662 01ce 02       		.uleb128 0x2
 3663 01cf 18       		.uleb128 0x18
 3664 01d0 00       		.byte	0
 3665 01d1 00       		.byte	0
 3666 01d2 20       		.uleb128 0x20
 3667 01d3 48       		.uleb128 0x48
 3668 01d4 01       		.byte	0x1
 3669 01d5 7D       		.uleb128 0x7d
 3670 01d6 01       		.uleb128 0x1
 3671 01d7 7F       		.uleb128 0x7f
 3672 01d8 13       		.uleb128 0x13
 3673 01d9 00       		.byte	0
 3674 01da 00       		.byte	0
 3675 01db 21       		.uleb128 0x21
 3676 01dc 2E       		.uleb128 0x2e
 3677 01dd 01       		.byte	0x1
 3678 01de 3F       		.uleb128 0x3f
 3679 01df 19       		.uleb128 0x19
 3680 01e0 03       		.uleb128 0x3
 3681 01e1 0E       		.uleb128 0xe
 3682 01e2 3A       		.uleb128 0x3a
 3683 01e3 21       		.uleb128 0x21
 3684 01e4 01       		.sleb128 1
 3685 01e5 3B       		.uleb128 0x3b
 3686 01e6 0B       		.uleb128 0xb
 3687 01e7 39       		.uleb128 0x39
 3688 01e8 21       		.uleb128 0x21
 3689 01e9 06       		.sleb128 6
 3690 01ea 27       		.uleb128 0x27
 3691 01eb 19       		.uleb128 0x19
 3692 01ec 11       		.uleb128 0x11
 3693 01ed 01       		.uleb128 0x1
 3694 01ee 12       		.uleb128 0x12
 3695 01ef 06       		.uleb128 0x6
 3696 01f0 40       		.uleb128 0x40
 3697 01f1 18       		.uleb128 0x18
 3698 01f2 7A       		.uleb128 0x7a
 3699 01f3 19       		.uleb128 0x19
 3700 01f4 01       		.uleb128 0x1
 3701 01f5 13       		.uleb128 0x13
 3702 01f6 00       		.byte	0
 3703 01f7 00       		.byte	0
 3704 01f8 22       		.uleb128 0x22
 3705 01f9 48       		.uleb128 0x48
ARM GAS  C:\Users\DEVELO~1\AppData\Local\Temp\ccYfsuUi.s 			page 66


 3706 01fa 00       		.byte	0
 3707 01fb 7D       		.uleb128 0x7d
 3708 01fc 01       		.uleb128 0x1
 3709 01fd 8201     		.uleb128 0x82
 3710 01ff 19       		.uleb128 0x19
 3711 0200 7F       		.uleb128 0x7f
 3712 0201 13       		.uleb128 0x13
 3713 0202 00       		.byte	0
 3714 0203 00       		.byte	0
 3715 0204 23       		.uleb128 0x23
 3716 0205 17       		.uleb128 0x17
 3717 0206 01       		.byte	0x1
 3718 0207 0B       		.uleb128 0xb
 3719 0208 0B       		.uleb128 0xb
 3720 0209 3A       		.uleb128 0x3a
 3721 020a 0B       		.uleb128 0xb
 3722 020b 3B       		.uleb128 0x3b
 3723 020c 0B       		.uleb128 0xb
 3724 020d 39       		.uleb128 0x39
 3725 020e 21       		.uleb128 0x21
 3726 020f 03       		.sleb128 3
 3727 0210 01       		.uleb128 0x1
 3728 0211 13       		.uleb128 0x13
 3729 0212 00       		.byte	0
 3730 0213 00       		.byte	0
 3731 0214 24       		.uleb128 0x24
 3732 0215 2E       		.uleb128 0x2e
 3733 0216 01       		.byte	0x1
 3734 0217 3F       		.uleb128 0x3f
 3735 0218 19       		.uleb128 0x19
 3736 0219 03       		.uleb128 0x3
 3737 021a 0E       		.uleb128 0xe
 3738 021b 3A       		.uleb128 0x3a
 3739 021c 21       		.uleb128 0x21
 3740 021d 12       		.sleb128 18
 3741 021e 3B       		.uleb128 0x3b
 3742 021f 0B       		.uleb128 0xb
 3743 0220 39       		.uleb128 0x39
 3744 0221 21       		.uleb128 0x21
 3745 0222 08       		.sleb128 8
 3746 0223 27       		.uleb128 0x27
 3747 0224 19       		.uleb128 0x19
 3748 0225 3C       		.uleb128 0x3c
 3749 0226 19       		.uleb128 0x19
 3750 0227 01       		.uleb128 0x1
 3751 0228 13       		.uleb128 0x13
 3752 0229 00       		.byte	0
 3753 022a 00       		.byte	0
 3754 022b 25       		.uleb128 0x25
 3755 022c 34       		.uleb128 0x34
 3756 022d 00       		.byte	0
 3757 022e 03       		.uleb128 0x3
 3758 022f 08       		.uleb128 0x8
 3759 0230 3A       		.uleb128 0x3a
 3760 0231 21       		.uleb128 0x21
 3761 0232 01       		.sleb128 1
 3762 0233 3B       		.uleb128 0x3b
ARM GAS  C:\Users\DEVELO~1\AppData\Local\Temp\ccYfsuUi.s 			page 67


 3763 0234 0B       		.uleb128 0xb
 3764 0235 39       		.uleb128 0x39
 3765 0236 21       		.uleb128 0x21
 3766 0237 0B       		.sleb128 11
 3767 0238 49       		.uleb128 0x49
 3768 0239 13       		.uleb128 0x13
 3769 023a 00       		.byte	0
 3770 023b 00       		.byte	0
 3771 023c 26       		.uleb128 0x26
 3772 023d 34       		.uleb128 0x34
 3773 023e 00       		.byte	0
 3774 023f 03       		.uleb128 0x3
 3775 0240 0E       		.uleb128 0xe
 3776 0241 3A       		.uleb128 0x3a
 3777 0242 21       		.uleb128 0x21
 3778 0243 01       		.sleb128 1
 3779 0244 3B       		.uleb128 0x3b
 3780 0245 0B       		.uleb128 0xb
 3781 0246 39       		.uleb128 0x39
 3782 0247 21       		.uleb128 0x21
 3783 0248 10       		.sleb128 16
 3784 0249 49       		.uleb128 0x49
 3785 024a 13       		.uleb128 0x13
 3786 024b 02       		.uleb128 0x2
 3787 024c 17       		.uleb128 0x17
 3788 024d B742     		.uleb128 0x2137
 3789 024f 17       		.uleb128 0x17
 3790 0250 00       		.byte	0
 3791 0251 00       		.byte	0
 3792 0252 27       		.uleb128 0x27
 3793 0253 1D       		.uleb128 0x1d
 3794 0254 01       		.byte	0x1
 3795 0255 31       		.uleb128 0x31
 3796 0256 13       		.uleb128 0x13
 3797 0257 52       		.uleb128 0x52
 3798 0258 01       		.uleb128 0x1
 3799 0259 B842     		.uleb128 0x2138
 3800 025b 0B       		.uleb128 0xb
 3801 025c 55       		.uleb128 0x55
 3802 025d 17       		.uleb128 0x17
 3803 025e 58       		.uleb128 0x58
 3804 025f 21       		.uleb128 0x21
 3805 0260 01       		.sleb128 1
 3806 0261 59       		.uleb128 0x59
 3807 0262 21       		.uleb128 0x21
 3808 0263 38       		.sleb128 56
 3809 0264 57       		.uleb128 0x57
 3810 0265 21       		.uleb128 0x21
 3811 0266 18       		.sleb128 24
 3812 0267 00       		.byte	0
 3813 0268 00       		.byte	0
 3814 0269 28       		.uleb128 0x28
 3815 026a 48       		.uleb128 0x48
 3816 026b 01       		.byte	0x1
 3817 026c 7D       		.uleb128 0x7d
 3818 026d 01       		.uleb128 0x1
 3819 026e 7F       		.uleb128 0x7f
ARM GAS  C:\Users\DEVELO~1\AppData\Local\Temp\ccYfsuUi.s 			page 68


 3820 026f 13       		.uleb128 0x13
 3821 0270 01       		.uleb128 0x1
 3822 0271 13       		.uleb128 0x13
 3823 0272 00       		.byte	0
 3824 0273 00       		.byte	0
 3825 0274 29       		.uleb128 0x29
 3826 0275 11       		.uleb128 0x11
 3827 0276 01       		.byte	0x1
 3828 0277 25       		.uleb128 0x25
 3829 0278 0E       		.uleb128 0xe
 3830 0279 13       		.uleb128 0x13
 3831 027a 0B       		.uleb128 0xb
 3832 027b 03       		.uleb128 0x3
 3833 027c 0E       		.uleb128 0xe
 3834 027d 1B       		.uleb128 0x1b
 3835 027e 0E       		.uleb128 0xe
 3836 027f 55       		.uleb128 0x55
 3837 0280 17       		.uleb128 0x17
 3838 0281 11       		.uleb128 0x11
 3839 0282 01       		.uleb128 0x1
 3840 0283 10       		.uleb128 0x10
 3841 0284 17       		.uleb128 0x17
 3842 0285 00       		.byte	0
 3843 0286 00       		.byte	0
 3844 0287 2A       		.uleb128 0x2a
 3845 0288 24       		.uleb128 0x24
 3846 0289 00       		.byte	0
 3847 028a 0B       		.uleb128 0xb
 3848 028b 0B       		.uleb128 0xb
 3849 028c 3E       		.uleb128 0x3e
 3850 028d 0B       		.uleb128 0xb
 3851 028e 03       		.uleb128 0x3
 3852 028f 08       		.uleb128 0x8
 3853 0290 00       		.byte	0
 3854 0291 00       		.byte	0
 3855 0292 2B       		.uleb128 0x2b
 3856 0293 13       		.uleb128 0x13
 3857 0294 01       		.byte	0x1
 3858 0295 03       		.uleb128 0x3
 3859 0296 0E       		.uleb128 0xe
 3860 0297 0B       		.uleb128 0xb
 3861 0298 05       		.uleb128 0x5
 3862 0299 3A       		.uleb128 0x3a
 3863 029a 0B       		.uleb128 0xb
 3864 029b 3B       		.uleb128 0x3b
 3865 029c 05       		.uleb128 0x5
 3866 029d 39       		.uleb128 0x39
 3867 029e 0B       		.uleb128 0xb
 3868 029f 01       		.uleb128 0x1
 3869 02a0 13       		.uleb128 0x13
 3870 02a1 00       		.byte	0
 3871 02a2 00       		.byte	0
 3872 02a3 2C       		.uleb128 0x2c
 3873 02a4 0F       		.uleb128 0xf
 3874 02a5 00       		.byte	0
 3875 02a6 0B       		.uleb128 0xb
 3876 02a7 0B       		.uleb128 0xb
ARM GAS  C:\Users\DEVELO~1\AppData\Local\Temp\ccYfsuUi.s 			page 69


 3877 02a8 00       		.byte	0
 3878 02a9 00       		.byte	0
 3879 02aa 2D       		.uleb128 0x2d
 3880 02ab 13       		.uleb128 0x13
 3881 02ac 01       		.byte	0x1
 3882 02ad 0B       		.uleb128 0xb
 3883 02ae 05       		.uleb128 0x5
 3884 02af 3A       		.uleb128 0x3a
 3885 02b0 0B       		.uleb128 0xb
 3886 02b1 3B       		.uleb128 0x3b
 3887 02b2 0B       		.uleb128 0xb
 3888 02b3 39       		.uleb128 0x39
 3889 02b4 0B       		.uleb128 0xb
 3890 02b5 01       		.uleb128 0x1
 3891 02b6 13       		.uleb128 0x13
 3892 02b7 00       		.byte	0
 3893 02b8 00       		.byte	0
 3894 02b9 2E       		.uleb128 0x2e
 3895 02ba 13       		.uleb128 0x13
 3896 02bb 01       		.byte	0x1
 3897 02bc 0B       		.uleb128 0xb
 3898 02bd 05       		.uleb128 0x5
 3899 02be 3A       		.uleb128 0x3a
 3900 02bf 0B       		.uleb128 0xb
 3901 02c0 3B       		.uleb128 0x3b
 3902 02c1 05       		.uleb128 0x5
 3903 02c2 39       		.uleb128 0x39
 3904 02c3 0B       		.uleb128 0xb
 3905 02c4 01       		.uleb128 0x1
 3906 02c5 13       		.uleb128 0x13
 3907 02c6 00       		.byte	0
 3908 02c7 00       		.byte	0
 3909 02c8 2F       		.uleb128 0x2f
 3910 02c9 0D       		.uleb128 0xd
 3911 02ca 00       		.byte	0
 3912 02cb 03       		.uleb128 0x3
 3913 02cc 0E       		.uleb128 0xe
 3914 02cd 3A       		.uleb128 0x3a
 3915 02ce 0B       		.uleb128 0xb
 3916 02cf 3B       		.uleb128 0x3b
 3917 02d0 05       		.uleb128 0x5
 3918 02d1 39       		.uleb128 0x39
 3919 02d2 0B       		.uleb128 0xb
 3920 02d3 49       		.uleb128 0x49
 3921 02d4 13       		.uleb128 0x13
 3922 02d5 38       		.uleb128 0x38
 3923 02d6 05       		.uleb128 0x5
 3924 02d7 00       		.byte	0
 3925 02d8 00       		.byte	0
 3926 02d9 30       		.uleb128 0x30
 3927 02da 15       		.uleb128 0x15
 3928 02db 01       		.byte	0x1
 3929 02dc 27       		.uleb128 0x27
 3930 02dd 19       		.uleb128 0x19
 3931 02de 01       		.uleb128 0x1
 3932 02df 13       		.uleb128 0x13
 3933 02e0 00       		.byte	0
ARM GAS  C:\Users\DEVELO~1\AppData\Local\Temp\ccYfsuUi.s 			page 70


 3934 02e1 00       		.byte	0
 3935 02e2 31       		.uleb128 0x31
 3936 02e3 17       		.uleb128 0x17
 3937 02e4 01       		.byte	0x1
 3938 02e5 0B       		.uleb128 0xb
 3939 02e6 0B       		.uleb128 0xb
 3940 02e7 3A       		.uleb128 0x3a
 3941 02e8 0B       		.uleb128 0xb
 3942 02e9 3B       		.uleb128 0x3b
 3943 02ea 05       		.uleb128 0x5
 3944 02eb 39       		.uleb128 0x39
 3945 02ec 0B       		.uleb128 0xb
 3946 02ed 01       		.uleb128 0x1
 3947 02ee 13       		.uleb128 0x13
 3948 02ef 00       		.byte	0
 3949 02f0 00       		.byte	0
 3950 02f1 32       		.uleb128 0x32
 3951 02f2 34       		.uleb128 0x34
 3952 02f3 00       		.byte	0
 3953 02f4 03       		.uleb128 0x3
 3954 02f5 0E       		.uleb128 0xe
 3955 02f6 3A       		.uleb128 0x3a
 3956 02f7 0B       		.uleb128 0xb
 3957 02f8 3B       		.uleb128 0x3b
 3958 02f9 05       		.uleb128 0x5
 3959 02fa 39       		.uleb128 0x39
 3960 02fb 0B       		.uleb128 0xb
 3961 02fc 49       		.uleb128 0x49
 3962 02fd 13       		.uleb128 0x13
 3963 02fe 3F       		.uleb128 0x3f
 3964 02ff 19       		.uleb128 0x19
 3965 0300 3C       		.uleb128 0x3c
 3966 0301 19       		.uleb128 0x19
 3967 0302 00       		.byte	0
 3968 0303 00       		.byte	0
 3969 0304 33       		.uleb128 0x33
 3970 0305 34       		.uleb128 0x34
 3971 0306 00       		.byte	0
 3972 0307 03       		.uleb128 0x3
 3973 0308 0E       		.uleb128 0xe
 3974 0309 3A       		.uleb128 0x3a
 3975 030a 0B       		.uleb128 0xb
 3976 030b 3B       		.uleb128 0x3b
 3977 030c 0B       		.uleb128 0xb
 3978 030d 39       		.uleb128 0x39
 3979 030e 0B       		.uleb128 0xb
 3980 030f 49       		.uleb128 0x49
 3981 0310 13       		.uleb128 0x13
 3982 0311 00       		.byte	0
 3983 0312 00       		.byte	0
 3984 0313 34       		.uleb128 0x34
 3985 0314 2E       		.uleb128 0x2e
 3986 0315 01       		.byte	0x1
 3987 0316 3F       		.uleb128 0x3f
 3988 0317 19       		.uleb128 0x19
 3989 0318 03       		.uleb128 0x3
 3990 0319 0E       		.uleb128 0xe
ARM GAS  C:\Users\DEVELO~1\AppData\Local\Temp\ccYfsuUi.s 			page 71


 3991 031a 3A       		.uleb128 0x3a
 3992 031b 0B       		.uleb128 0xb
 3993 031c 3B       		.uleb128 0x3b
 3994 031d 05       		.uleb128 0x5
 3995 031e 39       		.uleb128 0x39
 3996 031f 0B       		.uleb128 0xb
 3997 0320 27       		.uleb128 0x27
 3998 0321 19       		.uleb128 0x19
 3999 0322 49       		.uleb128 0x49
 4000 0323 13       		.uleb128 0x13
 4001 0324 3C       		.uleb128 0x3c
 4002 0325 19       		.uleb128 0x19
 4003 0326 01       		.uleb128 0x1
 4004 0327 13       		.uleb128 0x13
 4005 0328 00       		.byte	0
 4006 0329 00       		.byte	0
 4007 032a 35       		.uleb128 0x35
 4008 032b 2E       		.uleb128 0x2e
 4009 032c 00       		.byte	0
 4010 032d 3F       		.uleb128 0x3f
 4011 032e 19       		.uleb128 0x19
 4012 032f 03       		.uleb128 0x3
 4013 0330 0E       		.uleb128 0xe
 4014 0331 3A       		.uleb128 0x3a
 4015 0332 0B       		.uleb128 0xb
 4016 0333 3B       		.uleb128 0x3b
 4017 0334 0B       		.uleb128 0xb
 4018 0335 39       		.uleb128 0x39
 4019 0336 0B       		.uleb128 0xb
 4020 0337 27       		.uleb128 0x27
 4021 0338 19       		.uleb128 0x19
 4022 0339 20       		.uleb128 0x20
 4023 033a 0B       		.uleb128 0xb
 4024 033b 00       		.byte	0
 4025 033c 00       		.byte	0
 4026 033d 36       		.uleb128 0x36
 4027 033e 2E       		.uleb128 0x2e
 4028 033f 01       		.byte	0x1
 4029 0340 03       		.uleb128 0x3
 4030 0341 0E       		.uleb128 0xe
 4031 0342 3A       		.uleb128 0x3a
 4032 0343 0B       		.uleb128 0xb
 4033 0344 3B       		.uleb128 0x3b
 4034 0345 0B       		.uleb128 0xb
 4035 0346 39       		.uleb128 0x39
 4036 0347 0B       		.uleb128 0xb
 4037 0348 27       		.uleb128 0x27
 4038 0349 19       		.uleb128 0x19
 4039 034a 49       		.uleb128 0x49
 4040 034b 13       		.uleb128 0x13
 4041 034c 20       		.uleb128 0x20
 4042 034d 0B       		.uleb128 0xb
 4043 034e 01       		.uleb128 0x1
 4044 034f 13       		.uleb128 0x13
 4045 0350 00       		.byte	0
 4046 0351 00       		.byte	0
 4047 0352 37       		.uleb128 0x37
ARM GAS  C:\Users\DEVELO~1\AppData\Local\Temp\ccYfsuUi.s 			page 72


 4048 0353 05       		.uleb128 0x5
 4049 0354 00       		.byte	0
 4050 0355 03       		.uleb128 0x3
 4051 0356 0E       		.uleb128 0xe
 4052 0357 3A       		.uleb128 0x3a
 4053 0358 0B       		.uleb128 0xb
 4054 0359 3B       		.uleb128 0x3b
 4055 035a 0B       		.uleb128 0xb
 4056 035b 39       		.uleb128 0x39
 4057 035c 0B       		.uleb128 0xb
 4058 035d 49       		.uleb128 0x49
 4059 035e 13       		.uleb128 0x13
 4060 035f 00       		.byte	0
 4061 0360 00       		.byte	0
 4062 0361 38       		.uleb128 0x38
 4063 0362 1D       		.uleb128 0x1d
 4064 0363 01       		.byte	0x1
 4065 0364 31       		.uleb128 0x31
 4066 0365 13       		.uleb128 0x13
 4067 0366 52       		.uleb128 0x52
 4068 0367 01       		.uleb128 0x1
 4069 0368 B842     		.uleb128 0x2138
 4070 036a 0B       		.uleb128 0xb
 4071 036b 11       		.uleb128 0x11
 4072 036c 01       		.uleb128 0x1
 4073 036d 12       		.uleb128 0x12
 4074 036e 06       		.uleb128 0x6
 4075 036f 58       		.uleb128 0x58
 4076 0370 0B       		.uleb128 0xb
 4077 0371 59       		.uleb128 0x59
 4078 0372 0B       		.uleb128 0xb
 4079 0373 57       		.uleb128 0x57
 4080 0374 0B       		.uleb128 0xb
 4081 0375 01       		.uleb128 0x1
 4082 0376 13       		.uleb128 0x13
 4083 0377 00       		.byte	0
 4084 0378 00       		.byte	0
 4085 0379 39       		.uleb128 0x39
 4086 037a 2E       		.uleb128 0x2e
 4087 037b 00       		.byte	0
 4088 037c 3F       		.uleb128 0x3f
 4089 037d 19       		.uleb128 0x19
 4090 037e 03       		.uleb128 0x3
 4091 037f 0E       		.uleb128 0xe
 4092 0380 3A       		.uleb128 0x3a
 4093 0381 0B       		.uleb128 0xb
 4094 0382 3B       		.uleb128 0x3b
 4095 0383 0B       		.uleb128 0xb
 4096 0384 39       		.uleb128 0x39
 4097 0385 0B       		.uleb128 0xb
 4098 0386 27       		.uleb128 0x27
 4099 0387 19       		.uleb128 0x19
 4100 0388 49       		.uleb128 0x49
 4101 0389 13       		.uleb128 0x13
 4102 038a 20       		.uleb128 0x20
 4103 038b 0B       		.uleb128 0xb
 4104 038c 00       		.byte	0
ARM GAS  C:\Users\DEVELO~1\AppData\Local\Temp\ccYfsuUi.s 			page 73


 4105 038d 00       		.byte	0
 4106 038e 3A       		.uleb128 0x3a
 4107 038f 2E       		.uleb128 0x2e
 4108 0390 01       		.byte	0x1
 4109 0391 31       		.uleb128 0x31
 4110 0392 13       		.uleb128 0x13
 4111 0393 11       		.uleb128 0x11
 4112 0394 01       		.uleb128 0x1
 4113 0395 12       		.uleb128 0x12
 4114 0396 06       		.uleb128 0x6
 4115 0397 40       		.uleb128 0x40
 4116 0398 18       		.uleb128 0x18
 4117 0399 7A       		.uleb128 0x7a
 4118 039a 19       		.uleb128 0x19
 4119 039b 01       		.uleb128 0x1
 4120 039c 13       		.uleb128 0x13
 4121 039d 00       		.byte	0
 4122 039e 00       		.byte	0
 4123 039f 3B       		.uleb128 0x3b
 4124 03a0 2E       		.uleb128 0x2e
 4125 03a1 01       		.byte	0x1
 4126 03a2 31       		.uleb128 0x31
 4127 03a3 13       		.uleb128 0x13
 4128 03a4 11       		.uleb128 0x11
 4129 03a5 01       		.uleb128 0x1
 4130 03a6 12       		.uleb128 0x12
 4131 03a7 06       		.uleb128 0x6
 4132 03a8 40       		.uleb128 0x40
 4133 03a9 18       		.uleb128 0x18
 4134 03aa 7A       		.uleb128 0x7a
 4135 03ab 19       		.uleb128 0x19
 4136 03ac 00       		.byte	0
 4137 03ad 00       		.byte	0
 4138 03ae 00       		.byte	0
 4139              		.section	.debug_loclists,"",%progbits
 4140 0000 59010000 		.4byte	.Ldebug_loc3-.Ldebug_loc2
 4141              	.Ldebug_loc2:
 4142 0004 0500     		.2byte	0x5
 4143 0006 04       		.byte	0x4
 4144 0007 00       		.byte	0
 4145 0008 00000000 		.4byte	0
 4146              	.Ldebug_loc0:
 4147              	.LVUS19:
 4148 000c 00       		.uleb128 0
 4149 000d 00       		.uleb128 .LVU141
 4150 000e 00       		.uleb128 .LVU141
 4151 000f 00       		.uleb128 .LVU151
 4152 0010 00       		.uleb128 .LVU151
 4153 0011 00       		.uleb128 .LVU152
 4154 0012 00       		.uleb128 .LVU152
 4155 0013 00       		.uleb128 0
 4156              	.LLST19:
 4157 0014 06       		.byte	0x6
 4158 0015 00000000 		.4byte	.LVL31
 4159 0019 04       		.byte	0x4
 4160 001a 00       		.uleb128 .LVL31-.LVL31
 4161 001b 08       		.uleb128 .LVL32-.LVL31
ARM GAS  C:\Users\DEVELO~1\AppData\Local\Temp\ccYfsuUi.s 			page 74


 4162 001c 01       		.uleb128 0x1
 4163 001d 50       		.byte	0x50
 4164 001e 04       		.byte	0x4
 4165 001f 08       		.uleb128 .LVL32-.LVL31
 4166 0020 26       		.uleb128 .LVL36-.LVL31
 4167 0021 01       		.uleb128 0x1
 4168 0022 54       		.byte	0x54
 4169 0023 04       		.byte	0x4
 4170 0024 26       		.uleb128 .LVL36-.LVL31
 4171 0025 28       		.uleb128 .LVL37-.LVL31
 4172 0026 01       		.uleb128 0x1
 4173 0027 50       		.byte	0x50
 4174 0028 04       		.byte	0x4
 4175 0029 28       		.uleb128 .LVL37-.LVL31
 4176 002a 34       		.uleb128 .LFE457-.LVL31
 4177 002b 04       		.uleb128 0x4
 4178 002c A3       		.byte	0xa3
 4179 002d 01       		.uleb128 0x1
 4180 002e 50       		.byte	0x50
 4181 002f 9F       		.byte	0x9f
 4182 0030 00       		.byte	0
 4183              	.LVUS10:
 4184 0031 00       		.uleb128 0
 4185 0032 00       		.uleb128 .LVU100
 4186 0033 00       		.uleb128 .LVU100
 4187 0034 00       		.uleb128 .LVU129
 4188 0035 00       		.uleb128 .LVU129
 4189 0036 00       		.uleb128 0
 4190              	.LLST10:
 4191 0037 06       		.byte	0x6
 4192 0038 00000000 		.4byte	.LVL19
 4193 003c 04       		.byte	0x4
 4194 003d 00       		.uleb128 .LVL19-.LVL19
 4195 003e 06       		.uleb128 .LVL20-.LVL19
 4196 003f 01       		.uleb128 0x1
 4197 0040 50       		.byte	0x50
 4198 0041 04       		.byte	0x4
 4199 0042 06       		.uleb128 .LVL20-.LVL19
 4200 0043 44       		.uleb128 .LVL29-.LVL19
 4201 0044 01       		.uleb128 0x1
 4202 0045 55       		.byte	0x55
 4203 0046 04       		.byte	0x4
 4204 0047 44       		.uleb128 .LVL29-.LVL19
 4205 0048 4C       		.uleb128 .LFE455-.LVL19
 4206 0049 04       		.uleb128 0x4
 4207 004a A3       		.byte	0xa3
 4208 004b 01       		.uleb128 0x1
 4209 004c 50       		.byte	0x50
 4210 004d 9F       		.byte	0x9f
 4211 004e 00       		.byte	0
 4212              	.LVUS11:
 4213 004f 00       		.uleb128 0
 4214 0050 00       		.uleb128 .LVU103
 4215 0051 00       		.uleb128 .LVU103
 4216 0052 00       		.uleb128 .LVU129
 4217 0053 00       		.uleb128 .LVU129
 4218 0054 00       		.uleb128 0
ARM GAS  C:\Users\DEVELO~1\AppData\Local\Temp\ccYfsuUi.s 			page 75


 4219              	.LLST11:
 4220 0055 06       		.byte	0x6
 4221 0056 00000000 		.4byte	.LVL19
 4222 005a 04       		.byte	0x4
 4223 005b 00       		.uleb128 .LVL19-.LVL19
 4224 005c 0D       		.uleb128 .LVL21-1-.LVL19
 4225 005d 01       		.uleb128 0x1
 4226 005e 51       		.byte	0x51
 4227 005f 04       		.byte	0x4
 4228 0060 0D       		.uleb128 .LVL21-1-.LVL19
 4229 0061 44       		.uleb128 .LVL29-.LVL19
 4230 0062 01       		.uleb128 0x1
 4231 0063 54       		.byte	0x54
 4232 0064 04       		.byte	0x4
 4233 0065 44       		.uleb128 .LVL29-.LVL19
 4234 0066 4C       		.uleb128 .LFE455-.LVL19
 4235 0067 04       		.uleb128 0x4
 4236 0068 A3       		.byte	0xa3
 4237 0069 01       		.uleb128 0x1
 4238 006a 51       		.byte	0x51
 4239 006b 9F       		.byte	0x9f
 4240 006c 00       		.byte	0
 4241              	.LVUS12:
 4242 006d 00       		.uleb128 0
 4243 006e 00       		.uleb128 .LVU103
 4244 006f 00       		.uleb128 .LVU103
 4245 0070 00       		.uleb128 .LVU129
 4246 0071 00       		.uleb128 .LVU129
 4247 0072 00       		.uleb128 0
 4248              	.LLST12:
 4249 0073 06       		.byte	0x6
 4250 0074 00000000 		.4byte	.LVL19
 4251 0078 04       		.byte	0x4
 4252 0079 00       		.uleb128 .LVL19-.LVL19
 4253 007a 0D       		.uleb128 .LVL21-1-.LVL19
 4254 007b 01       		.uleb128 0x1
 4255 007c 52       		.byte	0x52
 4256 007d 04       		.byte	0x4
 4257 007e 0D       		.uleb128 .LVL21-1-.LVL19
 4258 007f 44       		.uleb128 .LVL29-.LVL19
 4259 0080 01       		.uleb128 0x1
 4260 0081 56       		.byte	0x56
 4261 0082 04       		.byte	0x4
 4262 0083 44       		.uleb128 .LVL29-.LVL19
 4263 0084 4C       		.uleb128 .LFE455-.LVL19
 4264 0085 04       		.uleb128 0x4
 4265 0086 A3       		.byte	0xa3
 4266 0087 01       		.uleb128 0x1
 4267 0088 52       		.byte	0x52
 4268 0089 9F       		.byte	0x9f
 4269 008a 00       		.byte	0
 4270              	.LVUS13:
 4271 008b 00       		.uleb128 .LVU113
 4272 008c 00       		.uleb128 .LVU123
 4273 008d 00       		.uleb128 .LVU126
 4274 008e 00       		.uleb128 .LVU127
 4275              	.LLST13:
ARM GAS  C:\Users\DEVELO~1\AppData\Local\Temp\ccYfsuUi.s 			page 76


 4276 008f 06       		.byte	0x6
 4277 0090 2C000000 		.4byte	.LVL24
 4278 0094 04       		.byte	0x4
 4279 0095 00       		.uleb128 .LVL24-.LVL24
 4280 0096 10       		.uleb128 .LVL26-.LVL24
 4281 0097 01       		.uleb128 0x1
 4282 0098 50       		.byte	0x50
 4283 0099 04       		.byte	0x4
 4284 009a 14       		.uleb128 .LVL27-.LVL24
 4285 009b 16       		.uleb128 .LVL28-.LVL24
 4286 009c 01       		.uleb128 0x1
 4287 009d 50       		.byte	0x50
 4288 009e 00       		.byte	0
 4289              	.LVUS16:
 4290 009f 02       		.uleb128 .LVU115
 4291 00a0 00       		.uleb128 .LVU123
 4292 00a1 00       		.uleb128 .LVU126
 4293 00a2 00       		.uleb128 .LVU127
 4294              	.LLST16:
 4295 00a3 06       		.byte	0x6
 4296 00a4 2C000000 		.4byte	.LVL24
 4297 00a8 04       		.byte	0x4
 4298 00a9 00       		.uleb128 .LVL24-.LVL24
 4299 00aa 10       		.uleb128 .LVL26-.LVL24
 4300 00ab 01       		.uleb128 0x1
 4301 00ac 50       		.byte	0x50
 4302 00ad 04       		.byte	0x4
 4303 00ae 14       		.uleb128 .LVL27-.LVL24
 4304 00af 16       		.uleb128 .LVL28-.LVL24
 4305 00b0 01       		.uleb128 0x1
 4306 00b1 50       		.byte	0x50
 4307 00b2 00       		.byte	0
 4308              	.LVUS18:
 4309 00b3 00       		.uleb128 .LVU118
 4310 00b4 00       		.uleb128 .LVU123
 4311 00b5 00       		.uleb128 .LVU126
 4312 00b6 00       		.uleb128 .LVU127
 4313              	.LLST18:
 4314 00b7 06       		.byte	0x6
 4315 00b8 30000000 		.4byte	.LVL25
 4316 00bc 04       		.byte	0x4
 4317 00bd 00       		.uleb128 .LVL25-.LVL25
 4318 00be 0C       		.uleb128 .LVL26-.LVL25
 4319 00bf 01       		.uleb128 0x1
 4320 00c0 50       		.byte	0x50
 4321 00c1 04       		.byte	0x4
 4322 00c2 10       		.uleb128 .LVL27-.LVL25
 4323 00c3 12       		.uleb128 .LVL28-.LVL25
 4324 00c4 01       		.uleb128 0x1
 4325 00c5 50       		.byte	0x50
 4326 00c6 00       		.byte	0
 4327              	.LVUS1:
 4328 00c7 00       		.uleb128 0
 4329 00c8 00       		.uleb128 .LVU63
 4330 00c9 00       		.uleb128 .LVU63
 4331 00ca 00       		.uleb128 .LVU92
 4332 00cb 00       		.uleb128 .LVU92
ARM GAS  C:\Users\DEVELO~1\AppData\Local\Temp\ccYfsuUi.s 			page 77


 4333 00cc 00       		.uleb128 0
 4334              	.LLST1:
 4335 00cd 06       		.byte	0x6
 4336 00ce 00000000 		.4byte	.LVL8
 4337 00d2 04       		.byte	0x4
 4338 00d3 00       		.uleb128 .LVL8-.LVL8
 4339 00d4 06       		.uleb128 .LVL9-.LVL8
 4340 00d5 01       		.uleb128 0x1
 4341 00d6 50       		.byte	0x50
 4342 00d7 04       		.byte	0x4
 4343 00d8 06       		.uleb128 .LVL9-.LVL8
 4344 00d9 44       		.uleb128 .LVL18-.LVL8
 4345 00da 01       		.uleb128 0x1
 4346 00db 55       		.byte	0x55
 4347 00dc 04       		.byte	0x4
 4348 00dd 44       		.uleb128 .LVL18-.LVL8
 4349 00de 4C       		.uleb128 .LFE454-.LVL8
 4350 00df 04       		.uleb128 0x4
 4351 00e0 A3       		.byte	0xa3
 4352 00e1 01       		.uleb128 0x1
 4353 00e2 50       		.byte	0x50
 4354 00e3 9F       		.byte	0x9f
 4355 00e4 00       		.byte	0
 4356              	.LVUS2:
 4357 00e5 00       		.uleb128 0
 4358 00e6 00       		.uleb128 .LVU66
 4359 00e7 00       		.uleb128 .LVU66
 4360 00e8 00       		.uleb128 .LVU92
 4361 00e9 00       		.uleb128 .LVU92
 4362 00ea 00       		.uleb128 0
 4363              	.LLST2:
 4364 00eb 06       		.byte	0x6
 4365 00ec 00000000 		.4byte	.LVL8
 4366 00f0 04       		.byte	0x4
 4367 00f1 00       		.uleb128 .LVL8-.LVL8
 4368 00f2 0D       		.uleb128 .LVL10-1-.LVL8
 4369 00f3 01       		.uleb128 0x1
 4370 00f4 51       		.byte	0x51
 4371 00f5 04       		.byte	0x4
 4372 00f6 0D       		.uleb128 .LVL10-1-.LVL8
 4373 00f7 44       		.uleb128 .LVL18-.LVL8
 4374 00f8 01       		.uleb128 0x1
 4375 00f9 54       		.byte	0x54
 4376 00fa 04       		.byte	0x4
 4377 00fb 44       		.uleb128 .LVL18-.LVL8
 4378 00fc 4C       		.uleb128 .LFE454-.LVL8
 4379 00fd 04       		.uleb128 0x4
 4380 00fe A3       		.byte	0xa3
 4381 00ff 01       		.uleb128 0x1
 4382 0100 51       		.byte	0x51
 4383 0101 9F       		.byte	0x9f
 4384 0102 00       		.byte	0
 4385              	.LVUS3:
 4386 0103 00       		.uleb128 0
 4387 0104 00       		.uleb128 .LVU66
 4388 0105 00       		.uleb128 .LVU66
 4389 0106 00       		.uleb128 .LVU92
ARM GAS  C:\Users\DEVELO~1\AppData\Local\Temp\ccYfsuUi.s 			page 78


 4390 0107 00       		.uleb128 .LVU92
 4391 0108 00       		.uleb128 0
 4392              	.LLST3:
 4393 0109 06       		.byte	0x6
 4394 010a 00000000 		.4byte	.LVL8
 4395 010e 04       		.byte	0x4
 4396 010f 00       		.uleb128 .LVL8-.LVL8
 4397 0110 0D       		.uleb128 .LVL10-1-.LVL8
 4398 0111 01       		.uleb128 0x1
 4399 0112 52       		.byte	0x52
 4400 0113 04       		.byte	0x4
 4401 0114 0D       		.uleb128 .LVL10-1-.LVL8
 4402 0115 44       		.uleb128 .LVL18-.LVL8
 4403 0116 01       		.uleb128 0x1
 4404 0117 56       		.byte	0x56
 4405 0118 04       		.byte	0x4
 4406 0119 44       		.uleb128 .LVL18-.LVL8
 4407 011a 4C       		.uleb128 .LFE454-.LVL8
 4408 011b 04       		.uleb128 0x4
 4409 011c A3       		.byte	0xa3
 4410 011d 01       		.uleb128 0x1
 4411 011e 52       		.byte	0x52
 4412 011f 9F       		.byte	0x9f
 4413 0120 00       		.byte	0
 4414              	.LVUS4:
 4415 0121 00       		.uleb128 .LVU76
 4416 0122 00       		.uleb128 .LVU86
 4417 0123 00       		.uleb128 .LVU89
 4418 0124 00       		.uleb128 .LVU90
 4419              	.LLST4:
 4420 0125 06       		.byte	0x6
 4421 0126 2C000000 		.4byte	.LVL13
 4422 012a 04       		.byte	0x4
 4423 012b 00       		.uleb128 .LVL13-.LVL13
 4424 012c 10       		.uleb128 .LVL15-.LVL13
 4425 012d 01       		.uleb128 0x1
 4426 012e 50       		.byte	0x50
 4427 012f 04       		.byte	0x4
 4428 0130 14       		.uleb128 .LVL16-.LVL13
 4429 0131 16       		.uleb128 .LVL17-.LVL13
 4430 0132 01       		.uleb128 0x1
 4431 0133 50       		.byte	0x50
 4432 0134 00       		.byte	0
 4433              	.LVUS7:
 4434 0135 02       		.uleb128 .LVU78
 4435 0136 00       		.uleb128 .LVU86
 4436 0137 00       		.uleb128 .LVU89
 4437 0138 00       		.uleb128 .LVU90
 4438              	.LLST7:
 4439 0139 06       		.byte	0x6
 4440 013a 2C000000 		.4byte	.LVL13
 4441 013e 04       		.byte	0x4
 4442 013f 00       		.uleb128 .LVL13-.LVL13
 4443 0140 10       		.uleb128 .LVL15-.LVL13
 4444 0141 01       		.uleb128 0x1
 4445 0142 50       		.byte	0x50
 4446 0143 04       		.byte	0x4
ARM GAS  C:\Users\DEVELO~1\AppData\Local\Temp\ccYfsuUi.s 			page 79


 4447 0144 14       		.uleb128 .LVL16-.LVL13
 4448 0145 16       		.uleb128 .LVL17-.LVL13
 4449 0146 01       		.uleb128 0x1
 4450 0147 50       		.byte	0x50
 4451 0148 00       		.byte	0
 4452              	.LVUS9:
 4453 0149 00       		.uleb128 .LVU81
 4454 014a 00       		.uleb128 .LVU86
 4455 014b 00       		.uleb128 .LVU89
 4456 014c 00       		.uleb128 .LVU90
 4457              	.LLST9:
 4458 014d 06       		.byte	0x6
 4459 014e 30000000 		.4byte	.LVL14
 4460 0152 04       		.byte	0x4
 4461 0153 00       		.uleb128 .LVL14-.LVL14
 4462 0154 0C       		.uleb128 .LVL15-.LVL14
 4463 0155 01       		.uleb128 0x1
 4464 0156 50       		.byte	0x50
 4465 0157 04       		.byte	0x4
 4466 0158 10       		.uleb128 .LVL16-.LVL14
 4467 0159 12       		.uleb128 .LVL17-.LVL14
 4468 015a 01       		.uleb128 0x1
 4469 015b 50       		.byte	0x50
 4470 015c 00       		.byte	0
 4471              	.Ldebug_loc3:
 4472              		.section	.debug_aranges,"",%progbits
 4473 0000 5C000000 		.4byte	0x5c
 4474 0004 0200     		.2byte	0x2
 4475 0006 00000000 		.4byte	.Ldebug_info0
 4476 000a 04       		.byte	0x4
 4477 000b 00       		.byte	0
 4478 000c 0000     		.2byte	0
 4479 000e 0000     		.2byte	0
 4480 0010 00000000 		.4byte	.LFB448
 4481 0014 2C000000 		.4byte	.LFE448-.LFB448
 4482 0018 00000000 		.4byte	.LFB449
 4483 001c 18000000 		.4byte	.LFE449-.LFB449
 4484 0020 00000000 		.4byte	.LFB450
 4485 0024 0C000000 		.4byte	.LFE450-.LFB450
 4486 0028 00000000 		.4byte	.LFB451
 4487 002c 34000000 		.4byte	.LFE451-.LFB451
 4488 0030 00000000 		.4byte	.LFB452
 4489 0034 20000000 		.4byte	.LFE452-.LFB452
 4490 0038 00000000 		.4byte	.LFB454
 4491 003c 4C000000 		.4byte	.LFE454-.LFB454
 4492 0040 00000000 		.4byte	.LFB455
 4493 0044 4C000000 		.4byte	.LFE455-.LFB455
 4494 0048 00000000 		.4byte	.LFB456
 4495 004c 0C000000 		.4byte	.LFE456-.LFB456
 4496 0050 00000000 		.4byte	.LFB457
 4497 0054 34000000 		.4byte	.LFE457-.LFB457
 4498 0058 00000000 		.4byte	0
 4499 005c 00000000 		.4byte	0
 4500              		.section	.debug_rnglists,"",%progbits
 4501              	.Ldebug_ranges0:
 4502 0000 A5000000 		.4byte	.Ldebug_ranges3-.Ldebug_ranges2
 4503              	.Ldebug_ranges2:
ARM GAS  C:\Users\DEVELO~1\AppData\Local\Temp\ccYfsuUi.s 			page 80


 4504 0004 0500     		.2byte	0x5
 4505 0006 04       		.byte	0x4
 4506 0007 00       		.byte	0
 4507 0008 00000000 		.4byte	0
 4508              	.LLRL0:
 4509 000c 05       		.byte	0x5
 4510 000d 00000000 		.4byte	.LBB16
 4511 0011 04       		.byte	0x4
 4512 0012 00       		.uleb128 .LBB16-.LBB16
 4513 0013 00       		.uleb128 .LBE16-.LBB16
 4514 0014 04       		.byte	0x4
 4515 0015 02       		.uleb128 .LBB19-.LBB16
 4516 0016 0A       		.uleb128 .LBE19-.LBB16
 4517 0017 00       		.byte	0
 4518              	.LLRL5:
 4519 0018 05       		.byte	0x5
 4520 0019 00000000 		.4byte	.LBB28
 4521 001d 04       		.byte	0x4
 4522 001e 00       		.uleb128 .LBB28-.LBB28
 4523 001f 00       		.uleb128 .LBE28-.LBB28
 4524 0020 04       		.byte	0x4
 4525 0021 04       		.uleb128 .LBB32-.LBB28
 4526 0022 06       		.uleb128 .LBE32-.LBB28
 4527 0023 04       		.byte	0x4
 4528 0024 0A       		.uleb128 .LBB33-.LBB28
 4529 0025 0E       		.uleb128 .LBE33-.LBB28
 4530 0026 00       		.byte	0
 4531              	.LLRL6:
 4532 0027 05       		.byte	0x5
 4533 0028 2C000000 		.4byte	.LBB34
 4534 002c 04       		.byte	0x4
 4535 002d 00       		.uleb128 .LBB34-.LBB34
 4536 002e 12       		.uleb128 .LBE34-.LBB34
 4537 002f 04       		.byte	0x4
 4538 0030 14       		.uleb128 .LBB41-.LBB34
 4539 0031 16       		.uleb128 .LBE41-.LBB34
 4540 0032 00       		.byte	0
 4541              	.LLRL8:
 4542 0033 05       		.byte	0x5
 4543 0034 30000000 		.4byte	.LBB36
 4544 0038 04       		.byte	0x4
 4545 0039 00       		.uleb128 .LBB36-.LBB36
 4546 003a 0E       		.uleb128 .LBE36-.LBB36
 4547 003b 04       		.byte	0x4
 4548 003c 10       		.uleb128 .LBB39-.LBB36
 4549 003d 12       		.uleb128 .LBE39-.LBB36
 4550 003e 00       		.byte	0
 4551              	.LLRL14:
 4552 003f 05       		.byte	0x5
 4553 0040 00000000 		.4byte	.LBB48
 4554 0044 04       		.byte	0x4
 4555 0045 00       		.uleb128 .LBB48-.LBB48
 4556 0046 00       		.uleb128 .LBE48-.LBB48
 4557 0047 04       		.byte	0x4
 4558 0048 04       		.uleb128 .LBB52-.LBB48
 4559 0049 06       		.uleb128 .LBE52-.LBB48
 4560 004a 04       		.byte	0x4
ARM GAS  C:\Users\DEVELO~1\AppData\Local\Temp\ccYfsuUi.s 			page 81


 4561 004b 0A       		.uleb128 .LBB53-.LBB48
 4562 004c 0E       		.uleb128 .LBE53-.LBB48
 4563 004d 00       		.byte	0
 4564              	.LLRL15:
 4565 004e 05       		.byte	0x5
 4566 004f 2C000000 		.4byte	.LBB54
 4567 0053 04       		.byte	0x4
 4568 0054 00       		.uleb128 .LBB54-.LBB54
 4569 0055 12       		.uleb128 .LBE54-.LBB54
 4570 0056 04       		.byte	0x4
 4571 0057 14       		.uleb128 .LBB61-.LBB54
 4572 0058 16       		.uleb128 .LBE61-.LBB54
 4573 0059 00       		.byte	0
 4574              	.LLRL17:
 4575 005a 05       		.byte	0x5
 4576 005b 30000000 		.4byte	.LBB56
 4577 005f 04       		.byte	0x4
 4578 0060 00       		.uleb128 .LBB56-.LBB56
 4579 0061 0E       		.uleb128 .LBE56-.LBB56
 4580 0062 04       		.byte	0x4
 4581 0063 10       		.uleb128 .LBB59-.LBB56
 4582 0064 12       		.uleb128 .LBE59-.LBB56
 4583 0065 00       		.byte	0
 4584              	.LLRL20:
 4585 0066 05       		.byte	0x5
 4586 0067 02000000 		.4byte	.LBB62
 4587 006b 04       		.byte	0x4
 4588 006c 00       		.uleb128 .LBB62-.LBB62
 4589 006d 00       		.uleb128 .LBE62-.LBB62
 4590 006e 04       		.byte	0x4
 4591 006f 04       		.uleb128 .LBB65-.LBB62
 4592 0070 0A       		.uleb128 .LBE65-.LBB62
 4593 0071 00       		.byte	0
 4594              	.LLRL21:
 4595 0072 07       		.byte	0x7
 4596 0073 00000000 		.4byte	.LFB448
 4597 0077 2C       		.uleb128 .LFE448-.LFB448
 4598 0078 07       		.byte	0x7
 4599 0079 00000000 		.4byte	.LFB449
 4600 007d 18       		.uleb128 .LFE449-.LFB449
 4601 007e 07       		.byte	0x7
 4602 007f 00000000 		.4byte	.LFB450
 4603 0083 0C       		.uleb128 .LFE450-.LFB450
 4604 0084 07       		.byte	0x7
 4605 0085 00000000 		.4byte	.LFB451
 4606 0089 34       		.uleb128 .LFE451-.LFB451
 4607 008a 07       		.byte	0x7
 4608 008b 00000000 		.4byte	.LFB452
 4609 008f 20       		.uleb128 .LFE452-.LFB452
 4610 0090 07       		.byte	0x7
 4611 0091 00000000 		.4byte	.LFB454
 4612 0095 4C       		.uleb128 .LFE454-.LFB454
 4613 0096 07       		.byte	0x7
 4614 0097 00000000 		.4byte	.LFB455
 4615 009b 4C       		.uleb128 .LFE455-.LFB455
 4616 009c 07       		.byte	0x7
 4617 009d 00000000 		.4byte	.LFB456
ARM GAS  C:\Users\DEVELO~1\AppData\Local\Temp\ccYfsuUi.s 			page 82


 4618 00a1 0C       		.uleb128 .LFE456-.LFB456
 4619 00a2 07       		.byte	0x7
 4620 00a3 00000000 		.4byte	.LFB457
 4621 00a7 34       		.uleb128 .LFE457-.LFB457
 4622 00a8 00       		.byte	0
 4623              	.Ldebug_ranges3:
 4624              		.section	.debug_line,"",%progbits
 4625              	.Ldebug_line0:
 4626 0000 EB050000 		.section	.debug_str,"MS",%progbits,1
 4626      03002903 
 4626      00000201 
 4626      FB0E0D00 
 4626      01010101 
 4627              	.LASF11:
 4628 0000 6C6F6E67 		.ascii	"long int\000"
 4628      20696E74 
 4628      00
 4629              	.LASF144:
 4630 0009 63737461 		.ascii	"cstack_base\000"
 4630      636B5F62 
 4630      61736500 
 4631              	.LASF38:
 4632 0015 6E616D65 		.ascii	"name\000"
 4632      00
 4633              	.LASF208:
 4634 001a 73646353 		.ascii	"sdcStart\000"
 4634      74617274 
 4634      00
 4635              	.LASF169:
 4636 0023 73646366 		.ascii	"sdcflags_t\000"
 4636      6C616773 
 4636      5F7400
 4637              	.LASF200:
 4638 002e 73646347 		.ascii	"sdcGetInfo\000"
 4638      6574496E 
 4638      666F00
 4639              	.LASF40:
 4640 0039 64697370 		.ascii	"dispose\000"
 4640      6F736500 
 4641              	.LASF21:
 4642 0041 706F7274 		.ascii	"port_stkline_t\000"
 4642      5F73746B 
 4642      6C696E65 
 4642      5F7400
 4643              	.LASF124:
 4644 0050 63685F72 		.ascii	"ch_registry\000"
 4644      65676973 
 4644      74727900 
 4645              	.LASF171:
 4646 005c 63617061 		.ascii	"capacity\000"
 4646      63697479 
 4646      00
 4647              	.LASF60:
 4648 0065 63685F72 		.ascii	"ch_rfcu\000"
 4648      66637500 
 4649              	.LASF221:
 4650 006d 6472765F 		.ascii	"drv_sd_hal_deinit\000"
ARM GAS  C:\Users\DEVELO~1\AppData\Local\Temp\ccYfsuUi.s 			page 83


 4650      73645F68 
 4650      616C5F64 
 4650      65696E69 
 4650      7400
 4651              	.LASF199:
 4652 007f 73645F63 		.ascii	"sd_connected\000"
 4652      6F6E6E65 
 4652      63746564 
 4652      00
 4653              	.LASF36:
 4654 008c 666C6167 		.ascii	"flags\000"
 4654      7300
 4655              	.LASF67:
 4656 0092 73797374 		.ascii	"systime_t\000"
 4656      696D655F 
 4656      7400
 4657              	.LASF46:
 4658 009c 7265616C 		.ascii	"realprio\000"
 4658      7072696F 
 4658      00
 4659              	.LASF79:
 4660 00a5 62756666 		.ascii	"buffer\000"
 4660      657200
 4661              	.LASF77:
 4662 00ac 73757370 		.ascii	"suspended\000"
 4662      656E6465 
 4662      6400
 4663              	.LASF216:
 4664 00b6 73646364 		.ascii	"sdcd\000"
 4664      00
 4665              	.LASF153:
 4666 00bb 424C4B5F 		.ascii	"BLK_ACTIVE\000"
 4666      41435449 
 4666      564500
 4667              	.LASF186:
 4668 00c6 64697363 		.ascii	"disconnect\000"
 4668      6F6E6E65 
 4668      637400
 4669              	.LASF44:
 4670 00d1 6570656E 		.ascii	"epending\000"
 4670      64696E67 
 4670      00
 4671              	.LASF0:
 4672 00da 756E7369 		.ascii	"unsigned int\000"
 4672      676E6564 
 4672      20696E74 
 4672      00
 4673              	.LASF108:
 4674 00e7 6E657874 		.ascii	"next\000"
 4674      00
 4675              	.LASF19:
 4676 00ec 75696E74 		.ascii	"uint32_t\000"
 4676      33325F74 
 4676      00
 4677              	.LASF161:
 4678 00f5 626C6B5F 		.ascii	"blk_size\000"
 4678      73697A65 
ARM GAS  C:\Users\DEVELO~1\AppData\Local\Temp\ccYfsuUi.s 			page 84


 4678      00
 4679              	.LASF53:
 4680 00fe 636F7265 		.ascii	"core_id\000"
 4680      5F696400 
 4681              	.LASF10:
 4682 0106 5F5F696E 		.ascii	"__int32_t\000"
 4682      7433325F 
 4682      7400
 4683              	.LASF37:
 4684 0110 72656673 		.ascii	"refs\000"
 4684      00
 4685              	.LASF180:
 4686 0115 53444343 		.ascii	"SDCConfig\000"
 4686      6F6E6669 
 4686      6700
 4687              	.LASF154:
 4688 011f 424C4B5F 		.ascii	"BLK_CONNECTING\000"
 4688      434F4E4E 
 4688      45435449 
 4688      4E4700
 4689              	.LASF69:
 4690 012e 77746F62 		.ascii	"wtobjp\000"
 4690      6A7000
 4691              	.LASF189:
 4692 0135 73796E63 		.ascii	"sync\000"
 4692      00
 4693              	.LASF51:
 4694 013a 76746C69 		.ascii	"vtlist\000"
 4694      737400
 4695              	.LASF105:
 4696 0141 706F7274 		.ascii	"port_context\000"
 4696      5F636F6E 
 4696      74657874 
 4696      00
 4697              	.LASF222:
 4698 014e 6472765F 		.ascii	"drv_sd_hal_init\000"
 4698      73645F68 
 4698      616C5F69 
 4698      6E697400 
 4699              	.LASF140:
 4700 015e 63685F72 		.ascii	"ch_ready_list\000"
 4700      65616479 
 4700      5F6C6973 
 4700      7400
 4701              	.LASF122:
 4702 016c 6C617374 		.ascii	"laststamp\000"
 4702      7374616D 
 4702      7000
 4703              	.LASF102:
 4704 0176 49505652 		.ascii	"IPVR\000"
 4704      00
 4705              	.LASF137:
 4706 017b 65776D61 		.ascii	"ewmask\000"
 4706      736B00
 4707              	.LASF181:
 4708 0182 53444344 		.ascii	"SDCDriverVMT\000"
 4708      72697665 
ARM GAS  C:\Users\DEVELO~1\AppData\Local\Temp\ccYfsuUi.s 			page 85


 4708      72564D54 
 4708      00
 4709              	.LASF197:
 4710 018f 73645F63 		.ascii	"sd_cfg\000"
 4710      666700
 4711              	.LASF111:
 4712 0196 70726576 		.ascii	"prev\000"
 4712      00
 4713              	.LASF195:
 4714 019b 53445F48 		.ascii	"SD_HAL_TIMEOUT\000"
 4714      414C5F54 
 4714      494D454F 
 4714      555400
 4715              	.LASF107:
 4716 01aa 63685F6C 		.ascii	"ch_list\000"
 4716      69737400 
 4717              	.LASF151:
 4718 01b2 424C4B5F 		.ascii	"BLK_UNINIT\000"
 4718      554E494E 
 4718      495400
 4719              	.LASF63:
 4720 01bd 63685F73 		.ascii	"ch_system_debug\000"
 4720      79737465 
 4720      6D5F6465 
 4720      62756700 
 4721              	.LASF196:
 4722 01cd 73645F68 		.ascii	"sd_hal_status_t\000"
 4722      616C5F73 
 4722      74617475 
 4722      735F7400 
 4723              	.LASF129:
 4724 01dd 6C697374 		.ascii	"list\000"
 4724      00
 4725              	.LASF192:
 4726 01e2 53445F48 		.ascii	"SD_HAL_NO_CARD\000"
 4726      414C5F4E 
 4726      4F5F4341 
 4726      524400
 4727              	.LASF116:
 4728 01f1 63685F64 		.ascii	"ch_delta_list\000"
 4728      656C7461 
 4728      5F6C6973 
 4728      7400
 4729              	.LASF223:
 4730 01ff 474E5520 		.ascii	"GNU C17 11.3.1 20220712 -mcpu=cortex-m7 -mthumb -mf"
 4730      43313720 
 4730      31312E33 
 4730      2E312032 
 4730      30323230 
 4731 0232 6C6F6174 		.ascii	"loat-abi=hard -mfpu=fpv5-d16 -march=armv7e-m+fp.dp "
 4731      2D616269 
 4731      3D686172 
 4731      64202D6D 
 4731      6670753D 
 4732 0265 2D676764 		.ascii	"-ggdb -O2 -ffunction-sections -fdata-sections -fno-"
 4732      62202D4F 
 4732      32202D66 
ARM GAS  C:\Users\DEVELO~1\AppData\Local\Temp\ccYfsuUi.s 			page 86


 4732      66756E63 
 4732      74696F6E 
 4733 0298 636F6D6D 		.ascii	"common\000"
 4733      6F6E00
 4734              	.LASF134:
 4735 029f 73656E74 		.ascii	"sentmsg\000"
 4735      6D736700 
 4736              	.LASF28:
 4737 02a7 6576656E 		.ascii	"eventmask_t\000"
 4737      746D6173 
 4737      6B5F7400 
 4738              	.LASF76:
 4739 02b3 74726163 		.ascii	"trace_event_t\000"
 4739      655F6576 
 4739      656E745F 
 4739      7400
 4740              	.LASF138:
 4741 02c1 63685F73 		.ascii	"ch_semaphore\000"
 4741      656D6170 
 4741      686F7265 
 4741      00
 4742              	.LASF26:
 4743 02ce 74707269 		.ascii	"tprio_t\000"
 4743      6F5F7400 
 4744              	.LASF215:
 4745 02d6 636F756E 		.ascii	"count\000"
 4745      7400
 4746              	.LASF148:
 4747 02dc 6F735F69 		.ascii	"os_instance_config_t\000"
 4747      6E737461 
 4747      6E63655F 
 4747      636F6E66 
 4747      69675F74 
 4748              	.LASF210:
 4749 02f1 7364634F 		.ascii	"sdcObjectInit\000"
 4749      626A6563 
 4749      74496E69 
 4749      7400
 4750              	.LASF71:
 4751 02ff 68616C74 		.ascii	"halt\000"
 4751      00
 4752              	.LASF15:
 4753 0304 6C6F6E67 		.ascii	"long long unsigned int\000"
 4753      206C6F6E 
 4753      6720756E 
 4753      7369676E 
 4753      65642069 
 4754              	.LASF172:
 4755 031b 63617264 		.ascii	"cardmode\000"
 4755      6D6F6465 
 4755      00
 4756              	.LASF70:
 4757 0324 72656173 		.ascii	"reason\000"
 4757      6F6E00
 4758              	.LASF58:
 4759 032b 74726163 		.ascii	"trace_buffer\000"
 4759      655F6275 
ARM GAS  C:\Users\DEVELO~1\AppData\Local\Temp\ccYfsuUi.s 			page 87


 4759      66666572 
 4759      00
 4760              	.LASF173:
 4761 0338 6572726F 		.ascii	"errors\000"
 4761      727300
 4762              	.LASF130:
 4763 033f 70717565 		.ascii	"pqueue\000"
 4763      756500
 4764              	.LASF8:
 4765 0346 5F5F7569 		.ascii	"__uint16_t\000"
 4765      6E743136 
 4765      5F7400
 4766              	.LASF29:
 4767 0351 636E745F 		.ascii	"cnt_t\000"
 4767      7400
 4768              	.LASF191:
 4769 0357 53445F48 		.ascii	"SD_HAL_OK\000"
 4769      414C5F4F 
 4769      4B00
 4770              	.LASF22:
 4771 0361 73746B6C 		.ascii	"stkline_t\000"
 4771      696E655F 
 4771      7400
 4772              	.LASF198:
 4773 036b 73645F68 		.ascii	"sd_hal_initialized\000"
 4773      616C5F69 
 4773      6E697469 
 4773      616C697A 
 4773      656400
 4774              	.LASF165:
 4775 037e 5344435F 		.ascii	"SDC_MODE_4BIT\000"
 4775      4D4F4445 
 4775      5F344249 
 4775      5400
 4776              	.LASF75:
 4777 038c 74696D65 		.ascii	"time\000"
 4777      00
 4778              	.LASF32:
 4779 0391 6F776E65 		.ascii	"owner\000"
 4779      7200
 4780              	.LASF92:
 4781 0397 4D41534B 		.ascii	"MASK\000"
 4781      00
 4782              	.LASF45:
 4783 039c 6D74786C 		.ascii	"mtxlist\000"
 4783      69737400 
 4784              	.LASF118:
 4785 03a4 63685F76 		.ascii	"ch_virtual_timers_list\000"
 4785      69727475 
 4785      616C5F74 
 4785      696D6572 
 4785      735F6C69 
 4786              	.LASF54:
 4787 03bb 72666375 		.ascii	"rfcu\000"
 4787      00
 4788              	.LASF31:
 4789 03c0 74687265 		.ascii	"thread_t\000"
ARM GAS  C:\Users\DEVELO~1\AppData\Local\Temp\ccYfsuUi.s 			page 88


 4789      61645F74 
 4789      00
 4790              	.LASF72:
 4791 03c9 75736572 		.ascii	"user\000"
 4791      00
 4792              	.LASF4:
 4793 03ce 73697A65 		.ascii	"size_t\000"
 4793      5F7400
 4794              	.LASF131:
 4795 03d5 7264796D 		.ascii	"rdymsg\000"
 4795      736700
 4796              	.LASF112:
 4797 03dc 63685F70 		.ascii	"ch_priority_queue_t\000"
 4797      72696F72 
 4797      6974795F 
 4797      71756575 
 4797      655F7400 
 4798              	.LASF203:
 4799 03f0 73646347 		.ascii	"sdcGetAndClearErrors\000"
 4799      6574416E 
 4799      64436C65 
 4799      61724572 
 4799      726F7273 
 4800              	.LASF209:
 4801 0405 73646353 		.ascii	"sdcStop\000"
 4801      746F7000 
 4802              	.LASF150:
 4803 040d 5F426F6F 		.ascii	"_Bool\000"
 4803      6C00
 4804              	.LASF217:
 4805 0413 53444344 		.ascii	"SDCD1\000"
 4805      3100
 4806              	.LASF41:
 4807 0419 6F626A65 		.ascii	"object\000"
 4807      637400
 4808              	.LASF163:
 4809 0420 426C6F63 		.ascii	"BlockDeviceInfo\000"
 4809      6B446576 
 4809      69636549 
 4809      6E666F00 
 4810              	.LASF190:
 4811 0430 6765745F 		.ascii	"get_info\000"
 4811      696E666F 
 4811      00
 4812              	.LASF139:
 4813 0439 63685F6D 		.ascii	"ch_mutex\000"
 4813      75746578 
 4813      00
 4814              	.LASF95:
 4815 0442 49444D41 		.ascii	"IDMACTRL\000"
 4815      4354524C 
 4815      00
 4816              	.LASF193:
 4817 044b 53445F48 		.ascii	"SD_HAL_ERROR\000"
 4817      414C5F45 
 4817      52524F52 
 4817      00
ARM GAS  C:\Users\DEVELO~1\AppData\Local\Temp\ccYfsuUi.s 			page 89


 4818              	.LASF49:
 4819 0458 63685F6F 		.ascii	"ch_os_instance\000"
 4819      735F696E 
 4819      7374616E 
 4819      636500
 4820              	.LASF211:
 4821 0467 6472765F 		.ascii	"drv_sd_hal_get_info\000"
 4821      73645F68 
 4821      616C5F67 
 4821      65745F69 
 4821      6E666F00 
 4822              	.LASF114:
 4823 047b 7072696F 		.ascii	"prio\000"
 4823      00
 4824              	.LASF155:
 4825 0480 424C4B5F 		.ascii	"BLK_DISCONNECTING\000"
 4825      44495343 
 4825      4F4E4E45 
 4825      4354494E 
 4825      4700
 4826              	.LASF84:
 4827 0492 52455350 		.ascii	"RESP1\000"
 4827      3100
 4828              	.LASF85:
 4829 0498 52455350 		.ascii	"RESP2\000"
 4829      3200
 4830              	.LASF86:
 4831 049e 52455350 		.ascii	"RESP3\000"
 4831      3300
 4832              	.LASF87:
 4833 04a4 52455350 		.ascii	"RESP4\000"
 4833      3400
 4834              	.LASF65:
 4835 04aa 63686172 		.ascii	"char\000"
 4835      00
 4836              	.LASF115:
 4837 04af 63685F64 		.ascii	"ch_delta_list_t\000"
 4837      656C7461 
 4837      5F6C6973 
 4837      745F7400 
 4838              	.LASF59:
 4839 04bf 72666375 		.ascii	"rfcu_mask_t\000"
 4839      5F6D6173 
 4839      6B5F7400 
 4840              	.LASF127:
 4841 04cb 74687265 		.ascii	"thread_reference_t\000"
 4841      61645F72 
 4841      65666572 
 4841      656E6365 
 4841      5F7400
 4842              	.LASF33:
 4843 04de 77616261 		.ascii	"wabase\000"
 4843      736500
 4844              	.LASF225:
 4845 04e5 433A5C43 		.ascii	"C:\\ChibiStudio\\ChibiOS-master\\demos\\STM32\\CUST"
 4845      68696269 
 4845      53747564 
ARM GAS  C:\Users\DEVELO~1\AppData\Local\Temp\ccYfsuUi.s 			page 90


 4845      696F5C43 
 4845      68696269 
 4846 0513 4F4D5F48 		.ascii	"OM_H743IIT6_maj\000"
 4846      37343349 
 4846      4954365F 
 4846      6D616A00 
 4847              	.LASF24:
 4848 0523 74737461 		.ascii	"tstate_t\000"
 4848      74655F74 
 4848      00
 4849              	.LASF39:
 4850 052c 72717565 		.ascii	"rqueue\000"
 4850      756500
 4851              	.LASF162:
 4852 0533 626C6B5F 		.ascii	"blk_num\000"
 4852      6E756D00 
 4853              	.LASF14:
 4854 053b 5F5F7569 		.ascii	"__uint64_t\000"
 4854      6E743634 
 4854      5F7400
 4855              	.LASF214:
 4856 0546 73656374 		.ascii	"sector\000"
 4856      6F7200
 4857              	.LASF16:
 4858 054d 75696E74 		.ascii	"uint8_t\000"
 4858      385F7400 
 4859              	.LASF43:
 4860 0555 6D736771 		.ascii	"msgqueue\000"
 4860      75657565 
 4860      00
 4861              	.LASF48:
 4862 055e 63685F74 		.ascii	"ch_thread\000"
 4862      68726561 
 4862      6400
 4863              	.LASF156:
 4864 0568 424C4B5F 		.ascii	"BLK_READY\000"
 4864      52454144 
 4864      5900
 4865              	.LASF66:
 4866 0572 73797374 		.ascii	"system_debug_t\000"
 4866      656D5F64 
 4866      65627567 
 4866      5F7400
 4867              	.LASF170:
 4868 0581 53444344 		.ascii	"SDCDriver\000"
 4868      72697665 
 4868      7200
 4869              	.LASF1:
 4870 058b 6C6F6E67 		.ascii	"long long int\000"
 4870      206C6F6E 
 4870      6720696E 
 4870      7400
 4871              	.LASF160:
 4872 0599 626C6B73 		.ascii	"blkstate_t\000"
 4872      74617465 
 4872      5F7400
 4873              	.LASF188:
ARM GAS  C:\Users\DEVELO~1\AppData\Local\Temp\ccYfsuUi.s 			page 91


 4874 05a4 77726974 		.ascii	"write\000"
 4874      6500
 4875              	.LASF27:
 4876 05aa 6D73675F 		.ascii	"msg_t\000"
 4876      7400
 4877              	.LASF147:
 4878 05b0 69646C65 		.ascii	"idlestack_end\000"
 4878      73746163 
 4878      6B5F656E 
 4878      6400
 4879              	.LASF206:
 4880 05be 73646343 		.ascii	"sdcConnect\000"
 4880      6F6E6E65 
 4880      637400
 4881              	.LASF121:
 4882 05c9 6C617374 		.ascii	"lastdelta\000"
 4882      64656C74 
 4882      6100
 4883              	.LASF204:
 4884 05d3 73646352 		.ascii	"sdcRead\000"
 4884      65616400 
 4885              	.LASF126:
 4886 05db 72656769 		.ascii	"registry_t\000"
 4886      73747279 
 4886      5F7400
 4887              	.LASF182:
 4888 05e6 696E7374 		.ascii	"instance_offset\000"
 4888      616E6365 
 4888      5F6F6666 
 4888      73657400 
 4889              	.LASF152:
 4890 05f6 424C4B5F 		.ascii	"BLK_STOP\000"
 4890      53544F50 
 4890      00
 4891              	.LASF78:
 4892 05ff 73697A65 		.ascii	"size\000"
 4892      00
 4893              	.LASF224:
 4894 0604 64726976 		.ascii	"drivers/sd/drv_sd_hal.c\000"
 4894      6572732F 
 4894      73642F64 
 4894      72765F73 
 4894      645F6861 
 4895              	.LASF226:
 4896 061c 6472765F 		.ascii	"drv_sd_hal_sync\000"
 4896      73645F68 
 4896      616C5F73 
 4896      796E6300 
 4897              	.LASF183:
 4898 062c 69735F69 		.ascii	"is_inserted\000"
 4898      6E736572 
 4898      74656400 
 4899              	.LASF61:
 4900 0638 6D61736B 		.ascii	"mask\000"
 4900      00
 4901              	.LASF100:
 4902 063d 4649464F 		.ascii	"FIFO\000"
ARM GAS  C:\Users\DEVELO~1\AppData\Local\Temp\ccYfsuUi.s 			page 92


 4902      00
 4903              	.LASF176:
 4904 0642 636C6B66 		.ascii	"clkfreq\000"
 4904      72657100 
 4905              	.LASF128:
 4906 064a 74687265 		.ascii	"thread_dispose_t\000"
 4906      61645F64 
 4906      6973706F 
 4906      73655F74 
 4906      00
 4907              	.LASF68:
 4908 065b 73797369 		.ascii	"sysinterval_t\000"
 4908      6E746572 
 4908      76616C5F 
 4908      7400
 4909              	.LASF109:
 4910 0669 63685F71 		.ascii	"ch_queue_t\000"
 4910      75657565 
 4910      5F7400
 4911              	.LASF146:
 4912 0674 69646C65 		.ascii	"idlestack_base\000"
 4912      73746163 
 4912      6B5F6261 
 4912      736500
 4913              	.LASF80:
 4914 0683 74726163 		.ascii	"trace_buffer_t\000"
 4914      655F6275 
 4914      66666572 
 4914      5F7400
 4915              	.LASF23:
 4916 0692 746D6F64 		.ascii	"tmode_t\000"
 4916      655F7400 
 4917              	.LASF56:
 4918 069a 69646C65 		.ascii	"idlethread\000"
 4918      74687265 
 4918      616400
 4919              	.LASF227:
 4920 06a5 6472765F 		.ascii	"drv_sd_hal_translate\000"
 4920      73645F68 
 4920      616C5F74 
 4920      72616E73 
 4920      6C617465 
 4921              	.LASF212:
 4922 06ba 6472765F 		.ascii	"drv_sd_hal_write_blocks\000"
 4922      73645F68 
 4922      616C5F77 
 4922      72697465 
 4922      5F626C6F 
 4923              	.LASF2:
 4924 06d2 6C6F6E67 		.ascii	"long double\000"
 4924      20646F75 
 4924      626C6500 
 4925              	.LASF17:
 4926 06de 75696E74 		.ascii	"uint16_t\000"
 4926      31365F74 
 4926      00
 4927              	.LASF106:
ARM GAS  C:\Users\DEVELO~1\AppData\Local\Temp\ccYfsuUi.s 			page 93


 4928 06e7 63685F6C 		.ascii	"ch_list_t\000"
 4928      6973745F 
 4928      7400
 4929              	.LASF55:
 4930 06f1 636F6E66 		.ascii	"config\000"
 4930      696700
 4931              	.LASF159:
 4932 06f8 424C4B5F 		.ascii	"BLK_SYNCING\000"
 4932      53594E43 
 4932      494E4700 
 4933              	.LASF94:
 4934 0704 52455345 		.ascii	"RESERVED0\000"
 4934      52564544 
 4934      3000
 4935              	.LASF99:
 4936 070e 52455345 		.ascii	"RESERVED1\000"
 4936      52564544 
 4936      3100
 4937              	.LASF101:
 4938 0718 52455345 		.ascii	"RESERVED2\000"
 4938      52564544 
 4938      3200
 4939              	.LASF7:
 4940 0722 73686F72 		.ascii	"short int\000"
 4940      7420696E 
 4940      7400
 4941              	.LASF185:
 4942 072c 636F6E6E 		.ascii	"connect\000"
 4942      65637400 
 4943              	.LASF82:
 4944 0734 434C4B43 		.ascii	"CLKCR\000"
 4944      5200
 4945              	.LASF104:
 4946 073a 706F7274 		.ascii	"port_intctx\000"
 4946      5F696E74 
 4946      63747800 
 4947              	.LASF88:
 4948 0746 4454494D 		.ascii	"DTIMER\000"
 4948      455200
 4949              	.LASF93:
 4950 074d 41434B54 		.ascii	"ACKTIME\000"
 4950      494D4500 
 4951              	.LASF34:
 4952 0755 7761656E 		.ascii	"waend\000"
 4952      6400
 4953              	.LASF145:
 4954 075b 63737461 		.ascii	"cstack_end\000"
 4954      636B5F65 
 4954      6E6400
 4955              	.LASF143:
 4956 0766 63685F6F 		.ascii	"ch_os_instance_config\000"
 4956      735F696E 
 4956      7374616E 
 4956      63655F63 
 4956      6F6E6669 
 4957              	.LASF119:
 4958 077c 646C6973 		.ascii	"dlist\000"
ARM GAS  C:\Users\DEVELO~1\AppData\Local\Temp\ccYfsuUi.s 			page 94


 4958      7400
 4959              	.LASF120:
 4960 0782 6C617374 		.ascii	"lasttime\000"
 4960      74696D65 
 4960      00
 4961              	.LASF20:
 4962 078b 75696E74 		.ascii	"uint64_t\000"
 4962      36345F74 
 4962      00
 4963              	.LASF157:
 4964 0794 424C4B5F 		.ascii	"BLK_READING\000"
 4964      52454144 
 4964      494E4700 
 4965              	.LASF89:
 4966 07a0 444C454E 		.ascii	"DLEN\000"
 4966      00
 4967              	.LASF50:
 4968 07a5 726C6973 		.ascii	"rlist\000"
 4968      7400
 4969              	.LASF90:
 4970 07ab 44435452 		.ascii	"DCTRL\000"
 4970      4C00
 4971              	.LASF5:
 4972 07b1 5F5F7569 		.ascii	"__uint8_t\000"
 4972      6E74385F 
 4972      7400
 4973              	.LASF220:
 4974 07bb 6472765F 		.ascii	"drv_sd_hal_disconnect\000"
 4974      73645F68 
 4974      616C5F64 
 4974      6973636F 
 4974      6E6E6563 
 4975              	.LASF187:
 4976 07d1 72656164 		.ascii	"read\000"
 4976      00
 4977              	.LASF219:
 4978 07d6 6472765F 		.ascii	"drv_sd_hal_connect\000"
 4978      73645F68 
 4978      616C5F63 
 4978      6F6E6E65 
 4978      637400
 4979              	.LASF167:
 4980 07e9 73646362 		.ascii	"sdcbusmode_t\000"
 4980      75736D6F 
 4980      64655F74 
 4980      00
 4981              	.LASF179:
 4982 07f6 736C6F77 		.ascii	"slowdown\000"
 4982      646F776E 
 4982      00
 4983              	.LASF202:
 4984 07ff 73646357 		.ascii	"sdcWrite\000"
 4984      72697465 
 4984      00
 4985              	.LASF81:
 4986 0808 504F5745 		.ascii	"POWER\000"
 4986      5200
ARM GAS  C:\Users\DEVELO~1\AppData\Local\Temp\ccYfsuUi.s 			page 95


 4987              	.LASF96:
 4988 080e 49444D41 		.ascii	"IDMABSIZE\000"
 4988      4253495A 
 4988      4500
 4989              	.LASF25:
 4990 0818 74726566 		.ascii	"trefs_t\000"
 4990      735F7400 
 4991              	.LASF13:
 4992 0820 6C6F6E67 		.ascii	"long unsigned int\000"
 4992      20756E73 
 4992      69676E65 
 4992      6420696E 
 4992      7400
 4993              	.LASF178:
 4994 0832 6275735F 		.ascii	"bus_width\000"
 4994      77696474 
 4994      6800
 4995              	.LASF142:
 4996 083c 72656164 		.ascii	"ready_list_t\000"
 4996      795F6C69 
 4996      73745F74 
 4996      00
 4997              	.LASF74:
 4998 0849 72747374 		.ascii	"rtstamp\000"
 4998      616D7000 
 4999              	.LASF125:
 5000 0851 71756575 		.ascii	"queue\000"
 5000      6500
 5001              	.LASF18:
 5002 0857 696E7433 		.ascii	"int32_t\000"
 5002      325F7400 
 5003              	.LASF62:
 5004 085f 72666375 		.ascii	"rfcu_t\000"
 5004      5F7400
 5005              	.LASF174:
 5006 0866 74687265 		.ascii	"thread\000"
 5006      616400
 5007              	.LASF135:
 5008 086d 77747365 		.ascii	"wtsemp\000"
 5008      6D7000
 5009              	.LASF113:
 5010 0874 63685F70 		.ascii	"ch_priority_queue\000"
 5010      72696F72 
 5010      6974795F 
 5010      71756575 
 5010      6500
 5011              	.LASF110:
 5012 0886 63685F71 		.ascii	"ch_queue\000"
 5012      75657565 
 5012      00
 5013              	.LASF149:
 5014 088f 6D757465 		.ascii	"mutex_t\000"
 5014      785F7400 
 5015              	.LASF73:
 5016 0897 74797065 		.ascii	"type\000"
 5016      00
 5017              	.LASF194:
ARM GAS  C:\Users\DEVELO~1\AppData\Local\Temp\ccYfsuUi.s 			page 96


 5018 089c 53445F48 		.ascii	"SD_HAL_CRC\000"
 5018      414C5F43 
 5018      524300
 5019              	.LASF6:
 5020 08a7 756E7369 		.ascii	"unsigned char\000"
 5020      676E6564 
 5020      20636861 
 5020      7200
 5021              	.LASF12:
 5022 08b5 5F5F7569 		.ascii	"__uint32_t\000"
 5022      6E743332 
 5022      5F7400
 5023              	.LASF42:
 5024 08c0 77616974 		.ascii	"waiting\000"
 5024      696E6700 
 5025              	.LASF123:
 5026 08c8 76697274 		.ascii	"virtual_timers_list_t\000"
 5026      75616C5F 
 5026      74696D65 
 5026      72735F6C 
 5026      6973745F 
 5027              	.LASF91:
 5028 08de 44434F55 		.ascii	"DCOUNT\000"
 5028      4E5400
 5029              	.LASF64:
 5030 08e5 70616E69 		.ascii	"panic_msg\000"
 5030      635F6D73 
 5030      6700
 5031              	.LASF218:
 5032 08ef 6472765F 		.ascii	"drv_sd_hal_read_blocks\000"
 5032      73645F68 
 5032      616C5F72 
 5032      6561645F 
 5032      626C6F63 
 5033              	.LASF158:
 5034 0906 424C4B5F 		.ascii	"BLK_WRITING\000"
 5034      57524954 
 5034      494E4700 
 5035              	.LASF57:
 5036 0912 6D61696E 		.ascii	"mainthread\000"
 5036      74687265 
 5036      616400
 5037              	.LASF35:
 5038 091d 73746174 		.ascii	"state\000"
 5038      6500
 5039              	.LASF83:
 5040 0923 52455350 		.ascii	"RESPCMD\000"
 5040      434D4400 
 5041              	.LASF47:
 5042 092b 6F735F69 		.ascii	"os_instance_t\000"
 5042      6E737461 
 5042      6E63655F 
 5042      7400
 5043              	.LASF164:
 5044 0939 5344435F 		.ascii	"SDC_MODE_1BIT\000"
 5044      4D4F4445 
 5044      5F314249 
ARM GAS  C:\Users\DEVELO~1\AppData\Local\Temp\ccYfsuUi.s 			page 97


 5044      5400
 5045              	.LASF213:
 5046 0947 696E666F 		.ascii	"info\000"
 5046      00
 5047              	.LASF52:
 5048 094c 7265676C 		.ascii	"reglist\000"
 5048      69737400 
 5049              	.LASF201:
 5050 0954 73646353 		.ascii	"sdcSync\000"
 5050      796E6300 
 5051              	.LASF3:
 5052 095c 7369676E 		.ascii	"signed char\000"
 5052      65642063 
 5052      68617200 
 5053              	.LASF117:
 5054 0968 64656C74 		.ascii	"delta\000"
 5054      6100
 5055              	.LASF9:
 5056 096e 73686F72 		.ascii	"short unsigned int\000"
 5056      7420756E 
 5056      7369676E 
 5056      65642069 
 5056      6E7400
 5057              	.LASF207:
 5058 0981 7364635F 		.ascii	"sdc_lld_is_card_inserted\000"
 5058      6C6C645F 
 5058      69735F63 
 5058      6172645F 
 5058      696E7365 
 5059              	.LASF228:
 5060 099a 6472765F 		.ascii	"drv_sd_hal_is_card_present\000"
 5060      73645F68 
 5060      616C5F69 
 5060      735F6361 
 5060      72645F70 
 5061              	.LASF166:
 5062 09b5 5344435F 		.ascii	"SDC_MODE_8BIT\000"
 5062      4D4F4445 
 5062      5F384249 
 5062      5400
 5063              	.LASF168:
 5064 09c3 7364636D 		.ascii	"sdcmode_t\000"
 5064      6F64655F 
 5064      7400
 5065              	.LASF103:
 5066 09cd 53444D4D 		.ascii	"SDMMC_TypeDef\000"
 5066      435F5479 
 5066      70654465 
 5066      6600
 5067              	.LASF141:
 5068 09db 63757272 		.ascii	"current\000"
 5068      656E7400 
 5069              	.LASF205:
 5070 09e3 73646344 		.ascii	"sdcDisconnect\000"
 5070      6973636F 
 5070      6E6E6563 
 5070      7400
ARM GAS  C:\Users\DEVELO~1\AppData\Local\Temp\ccYfsuUi.s 			page 98


 5071              	.LASF175:
 5072 09f1 73646D6D 		.ascii	"sdmmc\000"
 5072      6300
 5073              	.LASF184:
 5074 09f7 69735F70 		.ascii	"is_protected\000"
 5074      726F7465 
 5074      63746564 
 5074      00
 5075              	.LASF177:
 5076 0a04 72657370 		.ascii	"resp\000"
 5076      00
 5077              	.LASF97:
 5078 0a09 49444D41 		.ascii	"IDMABASE0\000"
 5078      42415345 
 5078      3000
 5079              	.LASF98:
 5080 0a13 49444D41 		.ascii	"IDMABASE1\000"
 5080      42415345 
 5080      3100
 5081              	.LASF133:
 5082 0a1d 77747472 		.ascii	"wttrp\000"
 5082      7000
 5083              	.LASF136:
 5084 0a23 77746D74 		.ascii	"wtmtxp\000"
 5084      787000
 5085              	.LASF132:
 5086 0a2a 65786974 		.ascii	"exitcode\000"
 5086      636F6465 
 5086      00
 5087              	.LASF30:
 5088 0a33 636F7265 		.ascii	"core_id_t\000"
 5088      5F69645F 
 5088      7400
 5089              		.ident	"GCC: (Arm GNU Toolchain 11.3.Rel1) 11.3.1 20220712"
ARM GAS  C:\Users\DEVELO~1\AppData\Local\Temp\ccYfsuUi.s 			page 99


DEFINED SYMBOLS
                            *ABS*:00000000 drv_sd_hal.c
C:\Users\DEVELO~1\AppData\Local\Temp\ccYfsuUi.s:19     .text.drv_sd_hal_init:00000000 $t
C:\Users\DEVELO~1\AppData\Local\Temp\ccYfsuUi.s:26     .text.drv_sd_hal_init:00000000 drv_sd_hal_init
C:\Users\DEVELO~1\AppData\Local\Temp\ccYfsuUi.s:65     .text.drv_sd_hal_init:00000020 $d
C:\Users\DEVELO~1\AppData\Local\Temp\ccYfsuUi.s:72     .text.drv_sd_hal_deinit:00000000 $t
C:\Users\DEVELO~1\AppData\Local\Temp\ccYfsuUi.s:79     .text.drv_sd_hal_deinit:00000000 drv_sd_hal_deinit
C:\Users\DEVELO~1\AppData\Local\Temp\ccYfsuUi.s:120    .text.drv_sd_hal_deinit:00000014 $d
C:\Users\DEVELO~1\AppData\Local\Temp\ccYfsuUi.s:125    .text.drv_sd_hal_is_card_present:00000000 $t
C:\Users\DEVELO~1\AppData\Local\Temp\ccYfsuUi.s:132    .text.drv_sd_hal_is_card_present:00000000 drv_sd_hal_is_card_present
C:\Users\DEVELO~1\AppData\Local\Temp\ccYfsuUi.s:147    .text.drv_sd_hal_is_card_present:00000008 $d
C:\Users\DEVELO~1\AppData\Local\Temp\ccYfsuUi.s:152    .text.drv_sd_hal_connect:00000000 $t
C:\Users\DEVELO~1\AppData\Local\Temp\ccYfsuUi.s:159    .text.drv_sd_hal_connect:00000000 drv_sd_hal_connect
C:\Users\DEVELO~1\AppData\Local\Temp\ccYfsuUi.s:222    .text.drv_sd_hal_connect:0000002c $d
C:\Users\DEVELO~1\AppData\Local\Temp\ccYfsuUi.s:228    .text.drv_sd_hal_disconnect:00000000 $t
C:\Users\DEVELO~1\AppData\Local\Temp\ccYfsuUi.s:235    .text.drv_sd_hal_disconnect:00000000 drv_sd_hal_disconnect
C:\Users\DEVELO~1\AppData\Local\Temp\ccYfsuUi.s:268    .text.drv_sd_hal_disconnect:00000018 $d
C:\Users\DEVELO~1\AppData\Local\Temp\ccYfsuUi.s:274    .text.drv_sd_hal_read_blocks:00000000 $t
C:\Users\DEVELO~1\AppData\Local\Temp\ccYfsuUi.s:281    .text.drv_sd_hal_read_blocks:00000000 drv_sd_hal_read_blocks
C:\Users\DEVELO~1\AppData\Local\Temp\ccYfsuUi.s:407    .text.drv_sd_hal_read_blocks:00000044 $d
C:\Users\DEVELO~1\AppData\Local\Temp\ccYfsuUi.s:413    .text.drv_sd_hal_write_blocks:00000000 $t
C:\Users\DEVELO~1\AppData\Local\Temp\ccYfsuUi.s:420    .text.drv_sd_hal_write_blocks:00000000 drv_sd_hal_write_blocks
C:\Users\DEVELO~1\AppData\Local\Temp\ccYfsuUi.s:546    .text.drv_sd_hal_write_blocks:00000044 $d
C:\Users\DEVELO~1\AppData\Local\Temp\ccYfsuUi.s:552    .text.drv_sd_hal_sync:00000000 $t
C:\Users\DEVELO~1\AppData\Local\Temp\ccYfsuUi.s:559    .text.drv_sd_hal_sync:00000000 drv_sd_hal_sync
C:\Users\DEVELO~1\AppData\Local\Temp\ccYfsuUi.s:574    .text.drv_sd_hal_sync:00000008 $d
C:\Users\DEVELO~1\AppData\Local\Temp\ccYfsuUi.s:579    .text.drv_sd_hal_get_info:00000000 $t
C:\Users\DEVELO~1\AppData\Local\Temp\ccYfsuUi.s:586    .text.drv_sd_hal_get_info:00000000 drv_sd_hal_get_info
C:\Users\DEVELO~1\AppData\Local\Temp\ccYfsuUi.s:658    .text.drv_sd_hal_get_info:0000002c $d
C:\Users\DEVELO~1\AppData\Local\Temp\ccYfsuUi.s:667    .bss.sd_connected:00000000 sd_connected
C:\Users\DEVELO~1\AppData\Local\Temp\ccYfsuUi.s:668    .bss.sd_connected:00000000 $d
C:\Users\DEVELO~1\AppData\Local\Temp\ccYfsuUi.s:673    .bss.sd_hal_initialized:00000000 sd_hal_initialized
C:\Users\DEVELO~1\AppData\Local\Temp\ccYfsuUi.s:674    .bss.sd_hal_initialized:00000000 $d
C:\Users\DEVELO~1\AppData\Local\Temp\ccYfsuUi.s:676    .rodata.sd_cfg:00000000 $d
C:\Users\DEVELO~1\AppData\Local\Temp\ccYfsuUi.s:680    .rodata.sd_cfg:00000000 sd_cfg

UNDEFINED SYMBOLS
sdcObjectInit
sdcStart
SDCD1
sdcSync
sdcStop
sdc_lld_is_card_inserted
sdcConnect
sdcDisconnect
sdcRead
sdcGetAndClearErrors
sdcWrite
sdcGetInfo
