ARM GAS  C:\Users\DEVELO~1\AppData\Local\Temp\cc8dM8yg.s 			page 1


   1              		.cpu cortex-m7
   2              		.arch armv7e-m
   3              		.fpu fpv5-d16
   4              		.eabi_attribute 28, 1
   5              		.eabi_attribute 20, 1
   6              		.eabi_attribute 21, 1
   7              		.eabi_attribute 23, 3
   8              		.eabi_attribute 24, 1
   9              		.eabi_attribute 25, 1
  10              		.eabi_attribute 26, 1
  11              		.eabi_attribute 30, 2
  12              		.eabi_attribute 34, 1
  13              		.eabi_attribute 18, 4
  14              		.file	"drv_pots.c"
  15              		.text
  16              	.Ltext0:
  17              		.cfi_sections	.debug_frame
  18              		.section	.text.potReaderThread,"ax",%progbits
  19              		.align	1
  20              		.p2align 2,,3
  21              		.syntax unified
  22              		.thumb
  23              		.thumb_func
  24              		.type	potReaderThread, %function
  25              	potReaderThread:
  26              	.LVL0:
  27              	.LFB449:
  28              		.file 1 "drivers/drv_pots.c"
  29              		.loc 1 79 43 view -0
  30              		.cfi_startproc
  31              		@ args = 0, pretend = 0, frame = 0
  32              		@ frame_needed = 0, uses_anonymous_args = 0
  33              		.loc 1 80 5 view .LVU1
  34              		.loc 1 82 5 view .LVU2
  35              		.loc 1 79 43 is_stmt 0 view .LVU3
  36 0000 2DE9F041 		push	{r4, r5, r6, r7, r8, lr}
  37              		.cfi_def_cfa_offset 24
  38              		.cfi_offset 4, -24
  39              		.cfi_offset 5, -20
  40              		.cfi_offset 6, -16
  41              		.cfi_offset 7, -12
  42              		.cfi_offset 8, -8
  43              		.cfi_offset 14, -4
  44              		.loc 1 84 12 view .LVU4
  45 0004 DFF8B080 		ldr	r8, .L13+32
  46              		.loc 1 82 5 view .LVU5
  47 0008 0021     		movs	r1, #0
  48 000a 2348     		ldr	r0, .L13
  49              	.LVL1:
  50              		.loc 1 82 5 view .LVU6
  51 000c FFF7FEFF 		bl	adcStart
  52              	.LVL2:
  53              		.loc 1 84 5 is_stmt 1 view .LVU7
  54              		.loc 1 84 12 view .LVU8
  55 0010 98F80030 		ldrb	r3, [r8]	@ zero_extendqisi2
  56 0014 5BBB     		cbnz	r3, .L2
  57 0016 214E     		ldr	r6, .L13+4
ARM GAS  C:\Users\DEVELO~1\AppData\Local\Temp\cc8dM8yg.s 			page 2


  58              	.LBB14:
  59              	.LBB15:
  60              	.LBB16:
  61              	.LBB17:
  62              		.loc 1 61 5 is_stmt 0 view .LVU9
  63 0018 4FF48025 		mov	r5, #262144
  64 001c 204C     		ldr	r4, .L13+8
  65              	.L3:
  66              	.LVL3:
  67              		.loc 1 61 5 view .LVU10
  68              	.LBE17:
  69              	.LBE16:
  70              	.LBE15:
  71              		.loc 1 86 31 is_stmt 1 discriminator 1 view .LVU11
  72              	.LBB27:
  73              		.loc 1 88 13 discriminator 1 view .LVU12
  74              	.LBB25:
  75              	.LBI16:
  76              		.loc 1 60 20 discriminator 1 view .LVU13
  77              	.LBB18:
  78              		.loc 1 61 5 discriminator 1 view .LVU14
  79              		.loc 1 61 5 discriminator 1 view .LVU15
  80              	.LBE18:
  81              	.LBB19:
  82              		.loc 1 62 5 is_stmt 0 discriminator 1 view .LVU16
  83 001e 4FF40022 		mov	r2, #524288
  84              	.LBE19:
  85              	.LBB20:
  86              		.loc 1 63 5 discriminator 1 view .LVU17
  87 0022 4FF48013 		mov	r3, #1048576
  88              	.LBE20:
  89              	.LBB21:
  90              		.loc 1 61 5 discriminator 1 view .LVU18
  91 0026 A561     		str	r5, [r4, #24]
  92              	.LBE21:
  93              		.loc 1 61 53 is_stmt 1 discriminator 1 view .LVU19
  94              	.LBB22:
  95              		.loc 1 62 5 discriminator 1 view .LVU20
  96              	.LVL4:
  97              		.loc 1 62 5 discriminator 1 view .LVU21
  98              	.LBE22:
  99              	.LBE25:
 100              		.loc 1 89 13 is_stmt 0 discriminator 1 view .LVU22
 101 0028 0120     		movs	r0, #1
 102              	.LBB26:
 103              	.LBB23:
 104              		.loc 1 62 5 discriminator 1 view .LVU23
 105 002a A261     		str	r2, [r4, #24]
 106              	.LBE23:
 107              		.loc 1 62 53 is_stmt 1 discriminator 1 view .LVU24
 108              	.LBB24:
 109              		.loc 1 63 5 discriminator 1 view .LVU25
 110              	.LVL5:
 111              		.loc 1 63 5 discriminator 1 view .LVU26
 112 002c A361     		str	r3, [r4, #24]
 113              	.LBE24:
 114              		.loc 1 63 53 discriminator 1 view .LVU27
ARM GAS  C:\Users\DEVELO~1\AppData\Local\Temp\cc8dM8yg.s 			page 3


 115              	.LVL6:
 116              		.loc 1 63 53 is_stmt 0 discriminator 1 view .LVU28
 117              	.LBE26:
 118              		.loc 1 89 13 is_stmt 1 discriminator 1 view .LVU29
 119 002e FFF7FEFF 		bl	chThdSleep
 120              	.LVL7:
 121              		.loc 1 91 13 discriminator 1 view .LVU30
 122              		.loc 1 91 25 is_stmt 0 discriminator 1 view .LVU31
 123 0032 1C49     		ldr	r1, .L13+12
 124 0034 0123     		movs	r3, #1
 125 0036 194A     		ldr	r2, .L13+4
 126 0038 1748     		ldr	r0, .L13
 127 003a FFF7FEFF 		bl	adcConvert
 128              	.LVL8:
 129              		.loc 1 98 13 is_stmt 1 discriminator 1 view .LVU32
 130              		.loc 1 92 13 discriminator 1 view .LVU33
 131              		.loc 1 100 31 is_stmt 0 discriminator 1 view .LVU34
 132 003e 1A4F     		ldr	r7, .L13+16
 133              		.loc 1 98 73 discriminator 1 view .LVU35
 134 0040 1A49     		ldr	r1, .L13+20
 135              		.loc 1 92 16 discriminator 1 view .LVU36
 136 0042 00BB     		cbnz	r0, .L12
 137              		.loc 1 98 73 view .LVU37
 138 0044 0B88     		ldrh	r3, [r1]
 139              	.LVL9:
 140              		.loc 1 99 13 is_stmt 1 view .LVU38
 141              		.loc 1 98 33 is_stmt 0 view .LVU39
 142 0046 3288     		ldrh	r2, [r6]
 143              		.loc 1 98 21 view .LVU40
 144 0048 D21A     		subs	r2, r2, r3
 145              		.loc 1 99 33 view .LVU41
 146 004a 03EBE203 		add	r3, r3, r2, asr #3
 147              	.LVL10:
 148              		.loc 1 99 33 view .LVU42
 149 004e 9BB2     		uxth	r3, r3
 150              		.loc 1 99 31 view .LVU43
 151 0050 0B80     		strh	r3, [r1]	@ movhi
 152              	.LVL11:
 153              		.loc 1 100 13 is_stmt 1 view .LVU44
 154              		.loc 1 100 31 is_stmt 0 view .LVU45
 155 0052 3B80     		strh	r3, [r7]	@ movhi
 156              	.LVL12:
 157              		.loc 1 100 31 view .LVU46
 158              	.LBE27:
 159              		.loc 1 86 31 is_stmt 1 view .LVU47
 160              	.L4:
 161              		.loc 1 86 31 is_stmt 0 view .LVU48
 162              	.LBE14:
 163              		.loc 1 103 9 is_stmt 1 view .LVU49
 164              		.loc 1 105 9 is_stmt 0 view .LVU50
 165 0054 1023     		movs	r3, #16
 166              		.loc 1 103 9 view .LVU51
 167 0056 0421     		movs	r1, #4
 168              		.loc 1 104 9 view .LVU52
 169 0058 0822     		movs	r2, #8
 170              		.loc 1 107 9 view .LVU53
 171 005a 3220     		movs	r0, #50
ARM GAS  C:\Users\DEVELO~1\AppData\Local\Temp\cc8dM8yg.s 			page 4


 172              		.loc 1 103 9 view .LVU54
 173 005c 6183     		strh	r1, [r4, #26]	@ movhi
 174              		.loc 1 104 9 is_stmt 1 view .LVU55
 175 005e 6283     		strh	r2, [r4, #26]	@ movhi
 176              		.loc 1 105 9 view .LVU56
 177 0060 6383     		strh	r3, [r4, #26]	@ movhi
 178              		.loc 1 107 9 view .LVU57
 179 0062 FFF7FEFF 		bl	chThdSleep
 180              	.LVL13:
 181              		.loc 1 84 12 view .LVU58
 182 0066 98F80030 		ldrb	r3, [r8]	@ zero_extendqisi2
 183 006a 002B     		cmp	r3, #0
 184 006c D7D0     		beq	.L3
 185              	.LVL14:
 186              	.L2:
 187              		.loc 1 110 5 view .LVU59
 188 006e 0C4B     		ldr	r3, .L13+8
 189 0070 0420     		movs	r0, #4
 190              		.loc 1 111 5 is_stmt 0 view .LVU60
 191 0072 0821     		movs	r1, #8
 192              		.loc 1 112 5 view .LVU61
 193 0074 1022     		movs	r2, #16
 194              		.loc 1 110 5 view .LVU62
 195 0076 5883     		strh	r0, [r3, #26]	@ movhi
 196              		.loc 1 111 5 is_stmt 1 view .LVU63
 197 0078 5983     		strh	r1, [r3, #26]	@ movhi
 198              		.loc 1 112 5 view .LVU64
 199              		.loc 1 114 5 is_stmt 0 view .LVU65
 200 007a 0748     		ldr	r0, .L13
 201              		.loc 1 112 5 view .LVU66
 202 007c 5A83     		strh	r2, [r3, #26]	@ movhi
 203              		.loc 1 114 5 is_stmt 1 view .LVU67
 204              		.loc 1 115 1 is_stmt 0 view .LVU68
 205 007e BDE8F041 		pop	{r4, r5, r6, r7, r8, lr}
 206              		.cfi_remember_state
 207              		.cfi_restore 14
 208              		.cfi_restore 8
 209              		.cfi_restore 7
 210              		.cfi_restore 6
 211              		.cfi_restore 5
 212              		.cfi_restore 4
 213              		.cfi_def_cfa_offset 0
 214              		.loc 1 114 5 view .LVU69
 215 0082 FFF7FEBF 		b	adcStop
 216              	.LVL15:
 217              	.L12:
 218              		.cfi_restore_state
 219              	.LBB29:
 220              	.LBB28:
 221              		.loc 1 93 17 is_stmt 1 discriminator 1 view .LVU70
 222              		.loc 1 93 32 is_stmt 0 discriminator 1 view .LVU71
 223 0086 0A4A     		ldr	r2, .L13+24
 224              		.loc 1 94 28 discriminator 1 view .LVU72
 225 0088 0220     		movs	r0, #2
 226              	.LVL16:
 227              		.loc 1 94 28 discriminator 1 view .LVU73
 228 008a 0A49     		ldr	r1, .L13+28
ARM GAS  C:\Users\DEVELO~1\AppData\Local\Temp\cc8dM8yg.s 			page 5


 229              		.loc 1 93 32 discriminator 1 view .LVU74
 230 008c 1368     		ldr	r3, [r2]
 231              		.loc 1 94 28 discriminator 1 view .LVU75
 232 008e 0870     		strb	r0, [r1]
 233              		.loc 1 93 32 discriminator 1 view .LVU76
 234 0090 0133     		adds	r3, r3, #1
 235 0092 1360     		str	r3, [r2]
 236              		.loc 1 94 17 is_stmt 1 discriminator 1 view .LVU77
 237              		.loc 1 95 17 discriminator 1 view .LVU78
 238              	.LVL17:
 239              		.loc 1 95 17 is_stmt 0 discriminator 1 view .LVU79
 240              	.LBE28:
 241              		.loc 1 86 31 is_stmt 1 discriminator 1 view .LVU80
 242 0094 DEE7     		b	.L4
 243              	.L14:
 244 0096 00BF     		.align	2
 245              	.L13:
 246 0098 00000000 		.word	ADCD1
 247 009c 00000000 		.word	.LANCHOR4
 248 00a0 001C0258 		.word	1476533248
 249 00a4 00000000 		.word	.LANCHOR6
 250 00a8 00000000 		.word	.LANCHOR5
 251 00ac 00000000 		.word	.LANCHOR3
 252 00b0 00000000 		.word	.LANCHOR1
 253 00b4 00000000 		.word	.LANCHOR2
 254 00b8 00000000 		.word	.LANCHOR0
 255              	.LBE29:
 256              		.cfi_endproc
 257              	.LFE449:
 258              		.size	potReaderThread, .-potReaderThread
 259              		.section	.text.drv_pots_init,"ax",%progbits
 260              		.align	1
 261              		.p2align 2,,3
 262              		.global	drv_pots_init
 263              		.syntax unified
 264              		.thumb
 265              		.thumb_func
 266              		.type	drv_pots_init, %function
 267              	drv_pots_init:
 268              	.LFB450:
 269              		.loc 1 121 26 view -0
 270              		.cfi_startproc
 271              		@ args = 0, pretend = 0, frame = 0
 272              		@ frame_needed = 0, uses_anonymous_args = 0
 273              		.loc 1 124 5 view .LVU82
 274              		.loc 1 121 26 is_stmt 0 view .LVU83
 275 0000 10B5     		push	{r4, lr}
 276              		.cfi_def_cfa_offset 8
 277              		.cfi_offset 4, -8
 278              		.cfi_offset 14, -4
 279              		.loc 1 124 5 view .LVU84
 280 0002 0E4C     		ldr	r4, .L17
 281 0004 0322     		movs	r2, #3
 282 0006 2021     		movs	r1, #32
 283 0008 2046     		mov	r0, r4
 284 000a FFF7FEFF 		bl	_pal_lld_setgroupmode
 285              	.LVL18:
ARM GAS  C:\Users\DEVELO~1\AppData\Local\Temp\cc8dM8yg.s 			page 6


 286              		.loc 1 127 5 is_stmt 1 view .LVU85
 287 000e 0122     		movs	r2, #1
 288 0010 0421     		movs	r1, #4
 289 0012 2046     		mov	r0, r4
 290 0014 FFF7FEFF 		bl	_pal_lld_setgroupmode
 291              	.LVL19:
 292              		.loc 1 128 5 view .LVU86
 293 0018 0122     		movs	r2, #1
 294 001a 0821     		movs	r1, #8
 295 001c 2046     		mov	r0, r4
 296 001e FFF7FEFF 		bl	_pal_lld_setgroupmode
 297              	.LVL20:
 298              		.loc 1 129 5 view .LVU87
 299 0022 0122     		movs	r2, #1
 300 0024 1021     		movs	r1, #16
 301 0026 2046     		mov	r0, r4
 302 0028 FFF7FEFF 		bl	_pal_lld_setgroupmode
 303              	.LVL21:
 304              		.loc 1 131 5 view .LVU88
 305 002c 0421     		movs	r1, #4
 306              		.loc 1 132 5 is_stmt 0 view .LVU89
 307 002e 0822     		movs	r2, #8
 308              		.loc 1 133 5 view .LVU90
 309 0030 1023     		movs	r3, #16
 310              		.loc 1 131 5 view .LVU91
 311 0032 6183     		strh	r1, [r4, #26]	@ movhi
 312              		.loc 1 132 5 is_stmt 1 view .LVU92
 313 0034 6283     		strh	r2, [r4, #26]	@ movhi
 314              		.loc 1 133 5 view .LVU93
 315 0036 6383     		strh	r3, [r4, #26]	@ movhi
 316              		.loc 1 134 1 is_stmt 0 view .LVU94
 317 0038 10BD     		pop	{r4, pc}
 318              	.L18:
 319 003a 00BF     		.align	2
 320              	.L17:
 321 003c 001C0258 		.word	1476533248
 322              		.cfi_endproc
 323              	.LFE450:
 324              		.size	drv_pots_init, .-drv_pots_init
 325              		.section	.text.drv_pots_start,"ax",%progbits
 326              		.align	1
 327              		.p2align 2,,3
 328              		.global	drv_pots_start
 329              		.syntax unified
 330              		.thumb
 331              		.thumb_func
 332              		.type	drv_pots_start, %function
 333              	drv_pots_start:
 334              	.LFB451:
 335              		.loc 1 136 27 is_stmt 1 view -0
 336              		.cfi_startproc
 337              		@ args = 0, pretend = 0, frame = 0
 338              		@ frame_needed = 0, uses_anonymous_args = 0
 339              		.loc 1 137 5 view .LVU96
 340              		.loc 1 136 27 is_stmt 0 view .LVU97
 341 0000 70B5     		push	{r4, r5, r6, lr}
 342              		.cfi_def_cfa_offset 16
ARM GAS  C:\Users\DEVELO~1\AppData\Local\Temp\cc8dM8yg.s 			page 7


 343              		.cfi_offset 4, -16
 344              		.cfi_offset 5, -12
 345              		.cfi_offset 6, -8
 346              		.cfi_offset 14, -4
 347              		.loc 1 137 20 view .LVU98
 348 0002 0F4C     		ldr	r4, .L31
 349              		.loc 1 136 27 view .LVU99
 350 0004 82B0     		sub	sp, sp, #8
 351              		.cfi_def_cfa_offset 24
 352              		.loc 1 137 20 view .LVU100
 353 0006 2378     		ldrb	r3, [r4]	@ zero_extendqisi2
 354              		.loc 1 137 8 view .LVU101
 355 0008 012B     		cmp	r3, #1
 356 000a 16D0     		beq	.L19
 357              		.loc 1 138 22 discriminator 1 view .LVU102
 358 000c 0D4D     		ldr	r5, .L31+4
 359 000e 2B68     		ldr	r3, [r5]
 360              		.loc 1 137 36 discriminator 1 view .LVU103
 361 0010 13B1     		cbz	r3, .L22
 362              	.LVL22:
 363              	.LBB30:
 364              	.LBI30:
 365              		.file 2 "./docs/ChibiOS/os/rt/include/chthreads.h"
 366              		.loc 2 584 20 is_stmt 1 view .LVU104
 367              	.LBB31:
 368              		.loc 2 586 3 view .LVU105
 369              		.loc 2 586 3 is_stmt 0 view .LVU106
 370              	.LBE31:
 371              	.LBE30:
 372              		.loc 1 138 30 view .LVU107
 373 0012 1B7F     		ldrb	r3, [r3, #28]	@ zero_extendqisi2
 374 0014 0F2B     		cmp	r3, #15
 375 0016 10D1     		bne	.L19
 376              	.L22:
 377              		.loc 1 142 5 is_stmt 1 view .LVU108
 378              		.loc 1 142 20 is_stmt 0 view .LVU109
 379 0018 0B4B     		ldr	r3, .L31+8
 380 001a 0026     		movs	r6, #0
 381 001c 1E70     		strb	r6, [r3]
 382              		.loc 1 143 5 is_stmt 1 view .LVU110
 383 001e FFF7FEFF 		bl	drv_pots_init
 384              	.LVL23:
 385              		.loc 1 145 5 view .LVU111
 386              		.loc 1 145 19 is_stmt 0 view .LVU112
 387 0022 0A4B     		ldr	r3, .L31+12
 388 0024 8022     		movs	r2, #128
 389 0026 4FF47871 		mov	r1, #992
 390 002a 0948     		ldr	r0, .L31+16
 391 002c 0096     		str	r6, [sp]
 392 002e FFF7FEFF 		bl	chThdCreateStatic
 393              	.LVL24:
 394              		.loc 1 145 17 view .LVU113
 395 0032 2860     		str	r0, [r5]
 396              		.loc 1 147 5 is_stmt 1 view .LVU114
 397              		.loc 1 147 8 is_stmt 0 view .LVU115
 398 0034 08B1     		cbz	r0, .L19
 399              		.loc 1 148 9 is_stmt 1 view .LVU116
ARM GAS  C:\Users\DEVELO~1\AppData\Local\Temp\cc8dM8yg.s 			page 8


 400              		.loc 1 148 20 is_stmt 0 view .LVU117
 401 0036 0123     		movs	r3, #1
 402 0038 2370     		strb	r3, [r4]
 403              	.L19:
 404              		.loc 1 150 1 view .LVU118
 405 003a 02B0     		add	sp, sp, #8
 406              		.cfi_def_cfa_offset 16
 407              		@ sp needed
 408 003c 70BD     		pop	{r4, r5, r6, pc}
 409              	.L32:
 410 003e 00BF     		.align	2
 411              	.L31:
 412 0040 00000000 		.word	.LANCHOR2
 413 0044 00000000 		.word	.LANCHOR7
 414 0048 00000000 		.word	.LANCHOR0
 415 004c 00000000 		.word	potReaderThread
 416 0050 00000000 		.word	.LANCHOR8
 417              		.cfi_endproc
 418              	.LFE451:
 419              		.size	drv_pots_start, .-drv_pots_start
 420              		.section	.text.drv_pots_stop,"ax",%progbits
 421              		.align	1
 422              		.p2align 2,,3
 423              		.global	drv_pots_stop
 424              		.syntax unified
 425              		.thumb
 426              		.thumb_func
 427              		.type	drv_pots_stop, %function
 428              	drv_pots_stop:
 429              	.LFB452:
 430              		.loc 1 152 26 is_stmt 1 view -0
 431              		.cfi_startproc
 432              		@ args = 0, pretend = 0, frame = 0
 433              		@ frame_needed = 0, uses_anonymous_args = 0
 434              		.loc 1 153 5 view .LVU120
 435              		.loc 1 152 26 is_stmt 0 view .LVU121
 436 0000 10B5     		push	{r4, lr}
 437              		.cfi_def_cfa_offset 8
 438              		.cfi_offset 4, -8
 439              		.cfi_offset 14, -4
 440              		.loc 1 153 21 view .LVU122
 441 0002 084C     		ldr	r4, .L38
 442 0004 2068     		ldr	r0, [r4]
 443              		.loc 1 153 8 view .LVU123
 444 0006 48B1     		cbz	r0, .L37
 445              		.loc 1 158 5 is_stmt 1 view .LVU124
 446              		.loc 1 158 20 is_stmt 0 view .LVU125
 447 0008 074B     		ldr	r3, .L38+4
 448 000a 0122     		movs	r2, #1
 449 000c 1A70     		strb	r2, [r3]
 450              		.loc 1 159 5 is_stmt 1 view .LVU126
 451 000e FFF7FEFF 		bl	chThdWait
 452              	.LVL25:
 453              		.loc 1 160 5 view .LVU127
 454              		.loc 1 160 19 is_stmt 0 view .LVU128
 455 0012 0023     		movs	r3, #0
 456              		.loc 1 161 19 view .LVU129
ARM GAS  C:\Users\DEVELO~1\AppData\Local\Temp\cc8dM8yg.s 			page 9


 457 0014 054A     		ldr	r2, .L38+8
 458              		.loc 1 160 19 view .LVU130
 459 0016 2360     		str	r3, [r4]
 460              		.loc 1 161 5 is_stmt 1 view .LVU131
 461              		.loc 1 161 19 is_stmt 0 view .LVU132
 462 0018 1370     		strb	r3, [r2]
 463              		.loc 1 162 1 view .LVU133
 464 001a 10BD     		pop	{r4, pc}
 465              	.L37:
 466              		.loc 1 154 9 is_stmt 1 view .LVU134
 467              		.loc 1 154 20 is_stmt 0 view .LVU135
 468 001c 034B     		ldr	r3, .L38+8
 469 001e 1870     		strb	r0, [r3]
 470              		.loc 1 155 9 is_stmt 1 view .LVU136
 471              		.loc 1 162 1 is_stmt 0 view .LVU137
 472 0020 10BD     		pop	{r4, pc}
 473              	.L39:
 474 0022 00BF     		.align	2
 475              	.L38:
 476 0024 00000000 		.word	.LANCHOR7
 477 0028 00000000 		.word	.LANCHOR0
 478 002c 00000000 		.word	.LANCHOR2
 479              		.cfi_endproc
 480              	.LFE452:
 481              		.size	drv_pots_stop, .-drv_pots_stop
 482              		.section	.text.drv_pots_get_raw,"ax",%progbits
 483              		.align	1
 484              		.p2align 2,,3
 485              		.global	drv_pots_get_raw
 486              		.syntax unified
 487              		.thumb
 488              		.thumb_func
 489              		.type	drv_pots_get_raw, %function
 490              	drv_pots_get_raw:
 491              	.LVL26:
 492              	.LFB453:
 493              		.loc 1 168 42 is_stmt 1 view -0
 494              		.cfi_startproc
 495              		@ args = 0, pretend = 0, frame = 0
 496              		@ frame_needed = 0, uses_anonymous_args = 0
 497              		@ link register save eliminated.
 498              		.loc 1 169 5 view .LVU139
 499              		.loc 1 169 8 is_stmt 0 view .LVU140
 500 0000 18B9     		cbnz	r0, .L42
 501              		.loc 1 172 5 is_stmt 1 view .LVU141
 502              		.loc 1 172 20 is_stmt 0 view .LVU142
 503 0002 034B     		ldr	r3, .L43
 504 0004 1888     		ldrh	r0, [r3]
 505              	.LVL27:
 506              		.loc 1 172 20 view .LVU143
 507 0006 80B2     		uxth	r0, r0
 508 0008 7047     		bx	lr
 509              	.LVL28:
 510              	.L42:
 511              		.loc 1 170 16 view .LVU144
 512 000a 0020     		movs	r0, #0
 513              	.LVL29:
ARM GAS  C:\Users\DEVELO~1\AppData\Local\Temp\cc8dM8yg.s 			page 10


 514              		.loc 1 173 1 view .LVU145
 515 000c 7047     		bx	lr
 516              	.L44:
 517 000e 00BF     		.align	2
 518              	.L43:
 519 0010 00000000 		.word	.LANCHOR5
 520              		.cfi_endproc
 521              	.LFE453:
 522              		.size	drv_pots_get_raw, .-drv_pots_get_raw
 523              		.section	.text.drv_pots_get_error_count,"ax",%progbits
 524              		.align	1
 525              		.p2align 2,,3
 526              		.global	drv_pots_get_error_count
 527              		.syntax unified
 528              		.thumb
 529              		.thumb_func
 530              		.type	drv_pots_get_error_count, %function
 531              	drv_pots_get_error_count:
 532              	.LFB454:
 533              		.loc 1 175 41 is_stmt 1 view -0
 534              		.cfi_startproc
 535              		@ args = 0, pretend = 0, frame = 0
 536              		@ frame_needed = 0, uses_anonymous_args = 0
 537              		@ link register save eliminated.
 538              		.loc 1 176 5 view .LVU147
 539              		.loc 1 176 12 is_stmt 0 view .LVU148
 540 0000 014B     		ldr	r3, .L46
 541              		.loc 1 177 1 view .LVU149
 542 0002 1868     		ldr	r0, [r3]
 543 0004 7047     		bx	lr
 544              	.L47:
 545 0006 00BF     		.align	2
 546              	.L46:
 547 0008 00000000 		.word	.LANCHOR1
 548              		.cfi_endproc
 549              	.LFE454:
 550              		.size	drv_pots_get_error_count, .-drv_pots_get_error_count
 551              		.section	.bss.adc_error_count,"aw",%nobits
 552              		.align	2
 553              		.set	.LANCHOR1,. + 0
 554              		.type	adc_error_count, %object
 555              		.size	adc_error_count, 4
 556              	adc_error_count:
 557 0000 00000000 		.space	4
 558              		.section	.bss.adc_sample,"aw",%nobits
 559              		.align	1
 560              		.set	.LANCHOR4,. + 0
 561              		.type	adc_sample, %object
 562              		.size	adc_sample, 2
 563              	adc_sample:
 564 0000 0000     		.space	2
 565              		.section	.bss.pots_filt,"aw",%nobits
 566              		.align	2
 567              		.set	.LANCHOR3,. + 0
 568              		.type	pots_filt, %object
 569              		.size	pots_filt, 2
 570              	pots_filt:
ARM GAS  C:\Users\DEVELO~1\AppData\Local\Temp\cc8dM8yg.s 			page 11


 571 0000 0000     		.space	2
 572              		.section	.bss.pots_raw,"aw",%nobits
 573              		.align	2
 574              		.set	.LANCHOR5,. + 0
 575              		.type	pots_raw, %object
 576              		.size	pots_raw, 2
 577              	pots_raw:
 578 0000 0000     		.space	2
 579              		.section	.bss.pots_state,"aw",%nobits
 580              		.set	.LANCHOR2,. + 0
 581              		.type	pots_state, %object
 582              		.size	pots_state, 1
 583              	pots_state:
 584 0000 00       		.space	1
 585              		.section	.bss.pots_thread,"aw",%nobits
 586              		.align	2
 587              		.set	.LANCHOR7,. + 0
 588              		.type	pots_thread, %object
 589              		.size	pots_thread, 4
 590              	pots_thread:
 591 0000 00000000 		.space	4
 592              		.section	.bss.stop_requested,"aw",%nobits
 593              		.set	.LANCHOR0,. + 0
 594              		.type	stop_requested, %object
 595              		.size	stop_requested, 1
 596              	stop_requested:
 597 0000 00       		.space	1
 598              		.section	.bss.waPotReader,"aw",%nobits
 599              		.align	5
 600              		.set	.LANCHOR8,. + 0
 601              		.type	waPotReader, %object
 602              		.size	waPotReader, 992
 603              	waPotReader:
 604 0000 00000000 		.space	992
 604      00000000 
 604      00000000 
 604      00000000 
 604      00000000 
 605              		.section	.rodata.adcgrpcfg,"a"
 606              		.align	2
 607              		.set	.LANCHOR6,. + 0
 608              		.type	adcgrpcfg, %object
 609              		.size	adcgrpcfg, 88
 610              	adcgrpcfg:
 611 0000 00       		.byte	0
 612 0001 000000   		.space	3
 613 0004 01000000 		.word	1
 614 0008 00000000 		.word	0
 615 000c 00000000 		.word	0
 616 0010 00000000 		.word	0
 617 0014 00000000 		.word	0
 618 0018 00000000 		.space	40
 618      00000000 
 618      00000000 
 618      00000000 
 618      00000000 
 619 0040 00000000 		.word	0
ARM GAS  C:\Users\DEVELO~1\AppData\Local\Temp\cc8dM8yg.s 			page 12


 620 0044 00800200 		.word	163840
 621 0048 C0030000 		.word	960
 622 004c 00000000 		.word	0
 623 0050 00000000 		.word	0
 624 0054 00000000 		.word	0
 625              		.text
 626              	.Letext0:
 627              		.file 3 "c:\\chibistudio\\tools\\gnu tools arm embedded\\11.3 2022.08\\arm-none-eabi\\include\\mac
 628              		.file 4 "c:\\chibistudio\\tools\\gnu tools arm embedded\\11.3 2022.08\\arm-none-eabi\\include\\sys
 629              		.file 5 "c:\\chibistudio\\tools\\gnu tools arm embedded\\11.3 2022.08\\lib\\gcc\\arm-none-eabi\\11
 630              		.file 6 "./docs/ChibiOS/os/common/ports/ARM-common/include/chtypes.h"
 631              		.file 7 "./docs/ChibiOS/os/rt/include/chearly.h"
 632              		.file 8 "./docs/ChibiOS/os/rt/include/chobjects.h"
 633              		.file 9 "./docs/ChibiOS/os/rt/include/chrfcu.h"
 634              		.file 10 "./docs/ChibiOS/os/rt/include/chdebug.h"
 635              		.file 11 "./docs/ChibiOS/os/rt/include/chtime.h"
 636              		.file 12 "./docs/ChibiOS/os/rt/include/chtrace.h"
 637              		.file 13 "./docs/ChibiOS/os/common/ext/ST/STM32H7xx/stm32h743xx.h"
 638              		.file 14 "./docs/ChibiOS/os/common/ports/ARMv7-M/chcore.h"
 639              		.file 15 "./docs/ChibiOS/os/rt/include/chlists.h"
 640              		.file 16 "./docs/ChibiOS/os/rt/include/chsem.h"
 641              		.file 17 "./docs/ChibiOS/os/rt/include/chmtx.h"
 642              		.file 18 "./docs/ChibiOS/os/hal/ports/STM32/LLD/DMAv2/stm32_dma.h"
 643              		.file 19 "./docs/ChibiOS/os/hal/ports/STM32/LLD/GPIOv2/stm32_gpio.h"
 644              		.file 20 "./docs/ChibiOS/os/hal/ports/STM32/LLD/GPIOv2/hal_pal_lld.h"
 645              		.file 21 "./docs/ChibiOS/os/hal/include/hal_adc.h"
 646              		.file 22 "./docs/ChibiOS/os/hal/ports/STM32/LLD/ADCv4/hal_adc_lld.h"