ARM GAS  C:\Users\DEVELO~1\AppData\Local\Temp\ccUlh0tc.s 			page 1


   1              		.cpu cortex-m7
   2              		.arch armv7e-m
   3              		.fpu fpv5-d16
   4              		.eabi_attribute 28, 1
   5              		.eabi_attribute 20, 1
   6              		.eabi_attribute 21, 1
   7              		.eabi_attribute 23, 3
   8              		.eabi_attribute 24, 1
   9              		.eabi_attribute 25, 1
  10              		.eabi_attribute 26, 1
  11              		.eabi_attribute 30, 2
  12              		.eabi_attribute 34, 1
  13              		.eabi_attribute 18, 4
  14              		.file	"drv_sd.c"
  15              		.text
  16              	.Ltext0:
  17              		.cfi_sections	.debug_frame
  18              		.section	.text.sd_submit_request,"ax",%progbits
  19              		.align	1
  20              		.p2align 2,,3
  21              		.syntax unified
  22              		.thumb
  23              		.thumb_func
  24              		.type	sd_submit_request, %function
  25              	sd_submit_request:
  26              	.LVL0:
  27              	.LFB452:
  28              		.file 1 "drivers/sd/drv_sd.c"
  29              		.loc 1 70 56 view -0
  30              		.cfi_startproc
  31              		@ args = 0, pretend = 0, frame = 0
  32              		@ frame_needed = 0, uses_anonymous_args = 0
  33              		.loc 1 71 5 view .LVU1
  34              		.loc 1 70 56 is_stmt 0 view .LVU2
  35 0000 38B5     		push	{r3, r4, r5, lr}
  36              		.cfi_def_cfa_offset 16
  37              		.cfi_offset 3, -16
  38              		.cfi_offset 4, -12
  39              		.cfi_offset 5, -8
  40              		.cfi_offset 14, -4
  41              		.loc 1 71 8 view .LVU3
  42 0002 A0B1     		cbz	r0, .L8
  43              		.loc 1 75 5 is_stmt 1 view .LVU4
  44 0004 0446     		mov	r4, r0
  45              		.loc 1 75 10 is_stmt 0 view .LVU5
  46 0006 FFF7FEFF 		bl	drv_sd_thread_post
  47              	.LVL1:
  48              		.loc 1 75 8 view .LVU6
  49 000a 68B1     		cbz	r0, .L10
  50              	.LVL2:
  51              	.LBB112:
  52              	.LBI112:
  53              		.loc 1 70 19 is_stmt 1 view .LVU7
  54              	.LBB113:
  55              		.loc 1 80 5 view .LVU8
  56              	.LBB114:
  57              	.LBI114:
ARM GAS  C:\Users\DEVELO~1\AppData\Local\Temp\ccUlh0tc.s 			page 2


  58              		.file 2 "./docs/ChibiOS/os/oslib/include/chbsem.h"
  59              		.loc 2 208 21 view .LVU9
  60              	.LBB115:
  61              		.loc 2 211 3 view .LVU10
  62              		.loc 2 211 10 is_stmt 0 view .LVU11
  63 000c 251D     		adds	r5, r4, #4
  64 000e 44F62061 		movw	r1, #20000
  65 0012 2846     		mov	r0, r5
  66 0014 FFF7FEFF 		bl	chSemWaitTimeout
  67              	.LVL3:
  68              		.loc 2 211 10 view .LVU12
  69              	.LBE115:
  70              	.LBE114:
  71              		.loc 1 81 5 is_stmt 1 view .LVU13
  72              		.loc 1 81 8 is_stmt 0 view .LVU14
  73 0018 431C     		adds	r3, r0, #1
  74 001a 17D0     		beq	.L11
  75              		.loc 1 91 5 is_stmt 1 view .LVU15
  76              		.loc 1 92 5 is_stmt 0 view .LVU16
  77 001c 2046     		mov	r0, r4
  78              	.LVL4:
  79              		.loc 1 91 16 view .LVU17
  80 001e 6478     		ldrb	r4, [r4, #1]	@ zero_extendqisi2
  81              	.LVL5:
  82              		.loc 1 92 5 is_stmt 1 view .LVU18
  83 0020 FFF7FEFF 		bl	drv_sd_thread_release
  84              	.LVL6:
  85              		.loc 1 93 5 view .LVU19
  86              	.L3:
  87              		.loc 1 93 5 is_stmt 0 view .LVU20
  88              	.LBE113:
  89              	.LBE112:
  90              		.loc 1 94 1 view .LVU21
  91 0024 2046     		mov	r0, r4
  92 0026 38BD     		pop	{r3, r4, r5, pc}
  93              	.LVL7:
  94              	.L10:
  95              		.loc 1 76 9 is_stmt 1 view .LVU22
  96 0028 2046     		mov	r0, r4
  97 002a FFF7FEFF 		bl	drv_sd_thread_release
  98              	.LVL8:
  99              	.L8:
 100              		.loc 1 77 9 view .LVU23
 101              	.LBB125:
 102              	.LBI125:
 103              		.loc 1 59 13 view .LVU24
 104              	.LBB126:
 105              		.loc 1 60 5 view .LVU25
 106              		.loc 1 61 25 is_stmt 0 view .LVU26
 107 002e 114B     		ldr	r3, .L12
 108              		.loc 1 60 21 view .LVU27
 109 0030 0324     		movs	r4, #3
 110 0032 1148     		ldr	r0, .L12+4
 111              		.loc 1 61 25 view .LVU28
 112 0034 1968     		ldr	r1, [r3]
 113              		.loc 1 62 25 view .LVU29
 114 0036 9A68     		ldr	r2, [r3, #8]
ARM GAS  C:\Users\DEVELO~1\AppData\Local\Temp\ccUlh0tc.s 			page 3


 115              		.loc 1 60 21 view .LVU30
 116 0038 0470     		strb	r4, [r0]
 117              		.loc 1 61 5 is_stmt 1 view .LVU31
 118              		.loc 1 61 25 is_stmt 0 view .LVU32
 119 003a 481C     		adds	r0, r1, #1
 120              		.loc 1 62 25 view .LVU33
 121 003c 511C     		adds	r1, r2, #1
 122              	.LBB127:
 123              	.LBB128:
 124              		.loc 1 65 42 view .LVU34
 125 003e 1A6B     		ldr	r2, [r3, #48]
 126              	.LBE128:
 127              	.LBE127:
 128              		.loc 1 61 25 view .LVU35
 129 0040 1860     		str	r0, [r3]
 130              		.loc 1 62 5 is_stmt 1 view .LVU36
 131              	.LBE126:
 132              	.LBE125:
 133              		.loc 1 94 1 is_stmt 0 view .LVU37
 134 0042 2046     		mov	r0, r4
 135              	.LBB134:
 136              	.LBB133:
 137              	.LBB131:
 138              	.LBB129:
 139              		.loc 1 65 42 view .LVU38
 140 0044 0132     		adds	r2, r2, #1
 141              	.LBE129:
 142              	.LBE131:
 143              		.loc 1 62 25 view .LVU39
 144 0046 9960     		str	r1, [r3, #8]
 145              		.loc 1 63 5 is_stmt 1 view .LVU40
 146              	.LBB132:
 147              	.LBI127:
 148              		.loc 1 59 13 view .LVU41
 149              	.LVL9:
 150              	.LBB130:
 151              		.loc 1 65 23 view .LVU42
 152              		.loc 1 65 42 is_stmt 0 view .LVU43
 153 0048 1A63     		str	r2, [r3, #48]
 154              		.loc 1 65 46 is_stmt 1 view .LVU44
 155              	.LVL10:
 156              		.loc 1 65 46 is_stmt 0 view .LVU45
 157              	.LBE130:
 158              	.LBE132:
 159              	.LBE133:
 160              	.LBE134:
 161              		.loc 1 94 1 view .LVU46
 162 004a 38BD     		pop	{r3, r4, r5, pc}
 163              	.LVL11:
 164              	.L11:
 165              	.LBB135:
 166              	.LBB124:
 167              		.loc 1 82 9 is_stmt 1 view .LVU47
 168              		.loc 1 83 9 view .LVU48
 169              		.loc 1 84 21 is_stmt 0 view .LVU49
 170 004c 0B22     		movs	r2, #11
 171              		.loc 1 83 27 view .LVU50
ARM GAS  C:\Users\DEVELO~1\AppData\Local\Temp\ccUlh0tc.s 			page 4


 172 004e 40F20113 		movw	r3, #257
 173              		.loc 1 85 25 view .LVU51
 174 0052 0949     		ldr	r1, .L12+4
 175              		.loc 1 83 27 view .LVU52
 176 0054 2382     		strh	r3, [r4, #16]	@ movhi
 177              		.loc 1 84 9 is_stmt 1 view .LVU53
 178              		.loc 1 85 25 is_stmt 0 view .LVU54
 179 0056 0A70     		strb	r2, [r1]
 180              	.LBB116:
 181              	.LBB117:
 182              		.loc 1 47 5 view .LVU55
 183 0058 2378     		ldrb	r3, [r4]	@ zero_extendqisi2
 184              	.LBE117:
 185              	.LBE116:
 186              		.loc 1 84 21 view .LVU56
 187 005a 6270     		strb	r2, [r4, #1]
 188              		.loc 1 85 9 is_stmt 1 view .LVU57
 189              		.loc 1 86 9 view .LVU58
 190              	.LVL12:
 191              	.LBB119:
 192              	.LBI116:
 193              		.loc 1 43 13 view .LVU59
 194              	.LBB118:
 195              		.loc 1 44 5 view .LVU60
 196              		.loc 1 47 5 view .LVU61
 197 005c 033B     		subs	r3, r3, #3
 198 005e 042B     		cmp	r3, #4
 199 0060 05D8     		bhi	.L6
 200              	.LVL13:
 201              		.loc 1 47 5 is_stmt 0 view .LVU62
 202              	.LBE118:
 203              	.LBE119:
 204              		.loc 1 87 13 is_stmt 1 view .LVU63
 205              	.LBB120:
 206              	.LBI120:
 207              		.loc 2 208 21 view .LVU64
 208              	.LBB121:
 209              		.loc 2 211 3 view .LVU65
 210              		.loc 2 211 10 is_stmt 0 view .LVU66
 211 0062 0146     		mov	r1, r0
 212 0064 2846     		mov	r0, r5
 213              	.LVL14:
 214              		.loc 2 211 10 view .LVU67
 215              	.LBE121:
 216              	.LBE120:
 217              		.loc 1 89 16 view .LVU68
 218 0066 1446     		mov	r4, r2
 219              	.LVL15:
 220              	.LBB123:
 221              	.LBB122:
 222              		.loc 2 211 10 view .LVU69
 223 0068 FFF7FEFF 		bl	chSemWaitTimeout
 224              	.LVL16:
 225              		.loc 2 211 10 view .LVU70
 226 006c DAE7     		b	.L3
 227              	.LVL17:
 228              	.L6:
ARM GAS  C:\Users\DEVELO~1\AppData\Local\Temp\ccUlh0tc.s 			page 5


 229              		.loc 2 211 10 view .LVU71
 230              	.LBE122:
 231              	.LBE123:
 232              		.loc 1 89 16 view .LVU72
 233 006e 1446     		mov	r4, r2
 234              	.LVL18:
 235              		.loc 1 89 16 view .LVU73
 236 0070 D8E7     		b	.L3
 237              	.L13:
 238 0072 00BF     		.align	2
 239              	.L12:
 240 0074 00000000 		.word	.LANCHOR1
 241 0078 00000000 		.word	.LANCHOR0
 242              	.LBE124:
 243              	.LBE135:
 244              		.cfi_endproc
 245              	.LFE452:
 246              		.size	sd_submit_request, .-sd_submit_request
 247              		.section	.rodata.drv_sd_init.str1.4,"aMS",%progbits,1
 248              		.align	2
 249              	.LC0:
 250 0000 61756469 		.ascii	"audioProcess\000"
 250      6F50726F 
 250      63657373 
 250      00
 251              		.section	.text.drv_sd_init,"ax",%progbits
 252              		.align	1
 253              		.p2align 2,,3
 254              		.global	drv_sd_init
 255              		.syntax unified
 256              		.thumb
 257              		.thumb_func
 258              		.type	drv_sd_init, %function
 259              	drv_sd_init:
 260              	.LFB453:
 261              		.loc 1 96 30 is_stmt 1 view -0
 262              		.cfi_startproc
 263              		@ args = 0, pretend = 0, frame = 0
 264              		@ frame_needed = 0, uses_anonymous_args = 0
 265              		.loc 1 97 5 view .LVU75
 266              	.LBB158:
 267              	.LBI158:
 268              		.loc 1 29 13 view .LVU76
 269              	.LBB159:
 270              		.loc 1 30 5 view .LVU77
 271              	.LBB160:
 272              	.LBI160:
 273              		.file 3 "./docs/ChibiOS/os/common/ext/ARM/CMSIS/Core/Include/cmsis_gcc.h"
 274              		.loc 3 205 31 view .LVU78
 275              	.LBB161:
 276              		.loc 3 207 3 view .LVU79
 277              		.loc 3 209 3 view .LVU80
 278              	.LBE161:
 279              	.LBE160:
 280              	.LBE159:
 281              	.LBE158:
 282              		.loc 1 96 30 is_stmt 0 view .LVU81
ARM GAS  C:\Users\DEVELO~1\AppData\Local\Temp\ccUlh0tc.s 			page 6


 283 0000 10B5     		push	{r4, lr}
 284              		.cfi_def_cfa_offset 8
 285              		.cfi_offset 4, -8
 286              		.cfi_offset 14, -4
 287              	.LBB175:
 288              	.LBB174:
 289              	.LBB163:
 290              	.LBB162:
 291              		.loc 3 209 3 view .LVU82
 292              		.syntax unified
 293              	@ 209 "./docs/ChibiOS/os/common/ext/ARM/CMSIS/Core/Include/cmsis_gcc.h" 1
 294 0002 EFF30583 		MRS r3, ipsr
 295              	@ 0 "" 2
 296              	.LVL19:
 297              		.loc 3 210 3 is_stmt 1 view .LVU83
 298              		.loc 3 210 3 is_stmt 0 view .LVU84
 299              		.thumb
 300              		.syntax unified
 301              	.LBE162:
 302              	.LBE163:
 303              		.loc 1 30 8 view .LVU85
 304 0006 ABB9     		cbnz	r3, .L15
 305              	.LBB164:
 306              	.LBI164:
 307              		.loc 1 29 13 is_stmt 1 view .LVU86
 308              	.LBB165:
 309              		.loc 1 33 5 view .LVU87
 310              	.LBB166:
 311              	.LBI166:
 312              		.file 4 "./docs/ChibiOS/os/rt/include/chthreads.h"
 313              		.loc 4 527 25 view .LVU88
 314              	.LBB167:
 315              		.loc 4 529 3 view .LVU89
 316              	.LVL20:
 317              		.loc 4 529 3 is_stmt 0 view .LVU90
 318              	.LBE167:
 319              	.LBE166:
 320              	.LBB169:
 321              	.LBI169:
 322              		.file 5 "./docs/ChibiOS/os/rt/include/chregistry.h"
 323              		.loc 5 186 27 is_stmt 1 view .LVU91
 324              	.LBB170:
 325              		.loc 5 189 3 view .LVU92
 326              	.LBE170:
 327              	.LBE169:
 328              	.LBB172:
 329              	.LBB168:
 330              		.loc 4 529 10 is_stmt 0 view .LVU93
 331 0008 164B     		ldr	r3, .L30
 332              	.LBE168:
 333              	.LBE172:
 334              	.LBB173:
 335              	.LBB171:
 336              		.loc 5 189 12 view .LVU94
 337 000a DB68     		ldr	r3, [r3, #12]
 338 000c 186A     		ldr	r0, [r3, #32]
 339              	.LVL21:
ARM GAS  C:\Users\DEVELO~1\AppData\Local\Temp\ccUlh0tc.s 			page 7


 340              		.loc 5 189 12 view .LVU95
 341              	.LBE171:
 342              	.LBE173:
 343              		.loc 1 34 5 is_stmt 1 view .LVU96
 344              		.loc 1 34 8 is_stmt 0 view .LVU97
 345 000e 18B1     		cbz	r0, .L16
 346              		.loc 1 34 25 view .LVU98
 347 0010 1549     		ldr	r1, .L30+4
 348 0012 FFF7FEFF 		bl	strcmp
 349              	.LVL22:
 350              		.loc 1 34 22 view .LVU99
 351 0016 68B1     		cbz	r0, .L15
 352              	.L16:
 353              		.loc 1 37 5 is_stmt 1 view .LVU100
 354              		.loc 1 37 5 is_stmt 0 view .LVU101
 355              	.LBE165:
 356              	.LBE164:
 357              	.LBE174:
 358              	.LBE175:
 359              		.loc 1 101 5 is_stmt 1 view .LVU102
 360              	.LBB176:
 361              	.LBB177:
 362              		.loc 1 22 9 is_stmt 0 view .LVU103
 363 0018 144C     		ldr	r4, .L30+8
 364              	.LBE177:
 365              	.LBE176:
 366              		.loc 1 101 11 view .LVU104
 367 001a FFF7FEFF 		bl	mpu_config_init_once
 368              	.LVL23:
 369              		.loc 1 102 5 is_stmt 1 view .LVU105
 370              	.LBB182:
 371              	.LBI176:
 372              		.loc 1 21 13 view .LVU106
 373              	.LBB180:
 374              		.loc 1 22 5 view .LVU107
 375              		.loc 1 22 8 is_stmt 0 view .LVU108
 376 001e 2378     		ldrb	r3, [r4]	@ zero_extendqisi2
 377 0020 B3B1     		cbz	r3, .L29
 378              	.L17:
 379              	.LBE180:
 380              	.LBE182:
 381              		.loc 1 103 5 is_stmt 1 view .LVU109
 382              		.loc 1 103 25 is_stmt 0 view .LVU110
 383 0022 FFF7FEFF 		bl	drv_sd_thread_alloc
 384              	.LVL24:
 385              		.loc 1 104 5 is_stmt 1 view .LVU111
 386              		.loc 1 104 8 is_stmt 0 view .LVU112
 387 0026 D0B1     		cbz	r0, .L20
 388              		.loc 1 107 5 is_stmt 1 view .LVU113
 389              		.loc 1 107 15 is_stmt 0 view .LVU114
 390 0028 0022     		movs	r2, #0
 391 002a 0270     		strb	r2, [r0]
 392              		.loc 1 108 5 is_stmt 1 view .LVU115
 393              		.loc 1 109 1 is_stmt 0 view .LVU116
 394 002c BDE81040 		pop	{r4, lr}
 395              		.cfi_remember_state
 396              		.cfi_restore 14
ARM GAS  C:\Users\DEVELO~1\AppData\Local\Temp\ccUlh0tc.s 			page 8


 397              		.cfi_restore 4
 398              		.cfi_def_cfa_offset 0
 399              		.loc 1 108 12 view .LVU117
 400 0030 FFF7FEBF 		b	sd_submit_request
 401              	.LVL25:
 402              	.L15:
 403              		.cfi_restore_state
 404              		.loc 1 98 9 is_stmt 1 view .LVU118
 405              	.LBB183:
 406              	.LBI183:
 407              		.loc 1 59 13 view .LVU119
 408              	.LBB184:
 409              		.loc 1 60 5 view .LVU120
 410              		.loc 1 61 25 is_stmt 0 view .LVU121
 411 0034 0E4B     		ldr	r3, .L30+12
 412              		.loc 1 60 21 view .LVU122
 413 0036 0C20     		movs	r0, #12
 414 0038 0E4C     		ldr	r4, .L30+16
 415              		.loc 1 61 25 view .LVU123
 416 003a 1968     		ldr	r1, [r3]
 417              		.loc 1 62 25 view .LVU124
 418 003c 9A68     		ldr	r2, [r3, #8]
 419              		.loc 1 60 21 view .LVU125
 420 003e 2070     		strb	r0, [r4]
 421              		.loc 1 61 5 is_stmt 1 view .LVU126
 422              		.loc 1 61 25 is_stmt 0 view .LVU127
 423 0040 4C1C     		adds	r4, r1, #1
 424              		.loc 1 62 25 view .LVU128
 425 0042 511C     		adds	r1, r2, #1
 426              		.loc 1 64 48 view .LVU129
 427 0044 5A6B     		ldr	r2, [r3, #52]
 428              		.loc 1 61 25 view .LVU130
 429 0046 1C60     		str	r4, [r3]
 430              		.loc 1 62 5 is_stmt 1 view .LVU131
 431              		.loc 1 64 48 is_stmt 0 view .LVU132
 432 0048 0132     		adds	r2, r2, #1
 433              		.loc 1 62 25 view .LVU133
 434 004a 9960     		str	r1, [r3, #8]
 435              		.loc 1 63 5 is_stmt 1 view .LVU134
 436              		.loc 1 64 26 view .LVU135
 437              		.loc 1 64 48 is_stmt 0 view .LVU136
 438 004c 5A63     		str	r2, [r3, #52]
 439              		.loc 1 64 52 is_stmt 1 view .LVU137
 440              	.LVL26:
 441              		.loc 1 64 52 is_stmt 0 view .LVU138
 442              	.LBE184:
 443              	.LBE183:
 444              		.loc 1 109 1 view .LVU139
 445 004e 10BD     		pop	{r4, pc}
 446              	.L29:
 447              	.LBB185:
 448              	.LBB181:
 449              	.LBB178:
 450              	.LBI178:
 451              		.loc 1 21 13 is_stmt 1 view .LVU140
 452              	.LBB179:
 453              		.loc 1 23 9 view .LVU141
ARM GAS  C:\Users\DEVELO~1\AppData\Local\Temp\ccUlh0tc.s 			page 9


 454 0050 FFF7FEFF 		bl	drv_sd_thread_start
 455              	.LVL27:
 456              		.loc 1 24 9 view .LVU142
 457              		.loc 1 24 24 is_stmt 0 view .LVU143
 458 0054 0123     		movs	r3, #1
 459              		.loc 1 25 20 view .LVU144
 460 0056 084A     		ldr	r2, .L30+20
 461              		.loc 1 24 24 view .LVU145
 462 0058 2370     		strb	r3, [r4]
 463              		.loc 1 25 9 is_stmt 1 view .LVU146
 464              		.loc 1 25 20 is_stmt 0 view .LVU147
 465 005a 1370     		strb	r3, [r2]
 466              		.loc 1 27 1 view .LVU148
 467 005c E1E7     		b	.L17
 468              	.LVL28:
 469              	.L20:
 470              		.loc 1 27 1 view .LVU149
 471              	.LBE179:
 472              	.LBE178:
 473              	.LBE181:
 474              	.LBE185:
 475              		.loc 1 105 16 view .LVU150
 476 005e 0320     		movs	r0, #3
 477              	.LVL29:
 478              		.loc 1 109 1 view .LVU151
 479 0060 10BD     		pop	{r4, pc}
 480              	.L31:
 481 0062 00BF     		.align	2
 482              	.L30:
 483 0064 00000000 		.word	ch0
 484 0068 00000000 		.word	.LC0
 485 006c 00000000 		.word	.LANCHOR2
 486 0070 00000000 		.word	.LANCHOR1
 487 0074 00000000 		.word	.LANCHOR0
 488 0078 00000000 		.word	.LANCHOR3
 489              		.cfi_endproc
 490              	.LFE453:
 491              		.size	drv_sd_init, .-drv_sd_init
 492              		.section	.text.drv_sd_mount,"ax",%progbits
 493              		.align	1
 494              		.p2align 2,,3
 495              		.global	drv_sd_mount
 496              		.syntax unified
 497              		.thumb
 498              		.thumb_func
 499              		.type	drv_sd_mount, %function
 500              	drv_sd_mount:
 501              	.LVL30:
 502              	.LFB454:
 503              		.loc 1 111 41 is_stmt 1 view -0
 504              		.cfi_startproc
 505              		@ args = 0, pretend = 0, frame = 0
 506              		@ frame_needed = 0, uses_anonymous_args = 0
 507              		.loc 1 112 5 view .LVU153
 508              	.LBB208:
 509              	.LBI208:
 510              		.loc 1 29 13 view .LVU154
ARM GAS  C:\Users\DEVELO~1\AppData\Local\Temp\ccUlh0tc.s 			page 10


 511              	.LBB209:
 512              		.loc 1 30 5 view .LVU155
 513              	.LBB210:
 514              	.LBI210:
 515              		.loc 3 205 31 view .LVU156
 516              	.LBB211:
 517              		.loc 3 207 3 view .LVU157
 518              		.loc 3 209 3 view .LVU158
 519              	.LBE211:
 520              	.LBE210:
 521              	.LBE209:
 522              	.LBE208:
 523              		.loc 1 111 41 is_stmt 0 view .LVU159
 524 0000 38B5     		push	{r3, r4, r5, lr}
 525              		.cfi_def_cfa_offset 16
 526              		.cfi_offset 3, -16
 527              		.cfi_offset 4, -12
 528              		.cfi_offset 5, -8
 529              		.cfi_offset 14, -4
 530              	.LBB225:
 531              	.LBB224:
 532              	.LBB213:
 533              	.LBB212:
 534              		.loc 3 209 3 view .LVU160
 535              		.syntax unified
 536              	@ 209 "./docs/ChibiOS/os/common/ext/ARM/CMSIS/Core/Include/cmsis_gcc.h" 1
 537 0002 EFF30583 		MRS r3, ipsr
 538              	@ 0 "" 2
 539              	.LVL31:
 540              		.loc 3 210 3 is_stmt 1 view .LVU161
 541              		.loc 3 210 3 is_stmt 0 view .LVU162
 542              		.thumb
 543              		.syntax unified
 544              	.LBE212:
 545              	.LBE213:
 546              		.loc 1 30 8 view .LVU163
 547 0006 ABB9     		cbnz	r3, .L33
 548              	.LBB214:
 549              	.LBI214:
 550              		.loc 1 29 13 is_stmt 1 view .LVU164
 551              	.LBB215:
 552              		.loc 1 33 5 view .LVU165
 553              	.LBB216:
 554              	.LBI216:
 555              		.loc 4 527 25 view .LVU166
 556              	.LBB217:
 557              		.loc 4 529 3 view .LVU167
 558              	.LVL32:
 559              		.loc 4 529 3 is_stmt 0 view .LVU168
 560              	.LBE217:
 561              	.LBE216:
 562              	.LBB219:
 563              	.LBI219:
 564              		.loc 5 186 27 is_stmt 1 view .LVU169
 565              	.LBB220:
 566              		.loc 5 189 3 view .LVU170
 567              	.LBE220:
ARM GAS  C:\Users\DEVELO~1\AppData\Local\Temp\ccUlh0tc.s 			page 11


 568              	.LBE219:
 569              	.LBB222:
 570              	.LBB218:
 571              		.loc 4 529 10 is_stmt 0 view .LVU171
 572 0008 174B     		ldr	r3, .L49
 573 000a 0446     		mov	r4, r0
 574              	.LBE218:
 575              	.LBE222:
 576              	.LBB223:
 577              	.LBB221:
 578              		.loc 5 189 12 view .LVU172
 579 000c DB68     		ldr	r3, [r3, #12]
 580 000e 186A     		ldr	r0, [r3, #32]
 581              	.LVL33:
 582              		.loc 5 189 12 view .LVU173
 583              	.LBE221:
 584              	.LBE223:
 585              		.loc 1 34 5 is_stmt 1 view .LVU174
 586              		.loc 1 34 8 is_stmt 0 view .LVU175
 587 0010 18B1     		cbz	r0, .L34
 588              		.loc 1 34 25 view .LVU176
 589 0012 1649     		ldr	r1, .L49+4
 590 0014 FFF7FEFF 		bl	strcmp
 591              	.LVL34:
 592              		.loc 1 34 22 view .LVU177
 593 0018 60B1     		cbz	r0, .L33
 594              	.L34:
 595              		.loc 1 37 5 is_stmt 1 view .LVU178
 596              		.loc 1 37 5 is_stmt 0 view .LVU179
 597              	.LBE215:
 598              	.LBE214:
 599              	.LBE224:
 600              	.LBE225:
 601              		.loc 1 116 5 is_stmt 1 view .LVU180
 602              	.LBB226:
 603              	.LBI226:
 604              		.loc 1 21 13 view .LVU181
 605              	.LBB227:
 606              		.loc 1 22 5 view .LVU182
 607              		.loc 1 22 9 is_stmt 0 view .LVU183
 608 001a 154D     		ldr	r5, .L49+8
 609              		.loc 1 22 8 view .LVU184
 610 001c 2B78     		ldrb	r3, [r5]	@ zero_extendqisi2
 611 001e BBB1     		cbz	r3, .L47
 612              	.LBE227:
 613              	.LBE226:
 614              		.loc 1 117 5 is_stmt 1 view .LVU185
 615              		.loc 1 117 25 is_stmt 0 view .LVU186
 616 0020 FFF7FEFF 		bl	drv_sd_thread_alloc
 617              	.LVL35:
 618              		.loc 1 118 5 is_stmt 1 view .LVU187
 619              		.loc 1 118 8 is_stmt 0 view .LVU188
 620 0024 F0B1     		cbz	r0, .L38
 621              	.L48:
 622              		.loc 1 121 5 is_stmt 1 view .LVU189
 623              		.loc 1 121 15 is_stmt 0 view .LVU190
 624 0026 0122     		movs	r2, #1
ARM GAS  C:\Users\DEVELO~1\AppData\Local\Temp\ccUlh0tc.s 			page 12


 625              		.loc 1 122 26 view .LVU191
 626 0028 0475     		strb	r4, [r0, #20]
 627              		.loc 1 121 15 view .LVU192
 628 002a 0270     		strb	r2, [r0]
 629              		.loc 1 122 5 is_stmt 1 view .LVU193
 630              		.loc 1 123 5 view .LVU194
 631              		.loc 1 124 1 is_stmt 0 view .LVU195
 632 002c BDE83840 		pop	{r3, r4, r5, lr}
 633              		.cfi_remember_state
 634              		.cfi_restore 14
 635              		.cfi_restore 5
 636              		.cfi_restore 4
 637              		.cfi_restore 3
 638              		.cfi_def_cfa_offset 0
 639              		.loc 1 123 12 view .LVU196
 640 0030 FFF7FEBF 		b	sd_submit_request
 641              	.LVL36:
 642              	.L33:
 643              		.cfi_restore_state
 644              		.loc 1 113 9 is_stmt 1 view .LVU197
 645              	.LBB231:
 646              	.LBI231:
 647              		.loc 1 59 13 view .LVU198
 648              	.LBB232:
 649              		.loc 1 60 5 view .LVU199
 650              		.loc 1 61 25 is_stmt 0 view .LVU200
 651 0034 0F4B     		ldr	r3, .L49+12
 652              		.loc 1 60 21 view .LVU201
 653 0036 0C20     		movs	r0, #12
 654 0038 0F4C     		ldr	r4, .L49+16
 655              		.loc 1 61 25 view .LVU202
 656 003a 1968     		ldr	r1, [r3]
 657              		.loc 1 62 25 view .LVU203
 658 003c 9A68     		ldr	r2, [r3, #8]
 659              		.loc 1 60 21 view .LVU204
 660 003e 2070     		strb	r0, [r4]
 661              		.loc 1 61 5 is_stmt 1 view .LVU205
 662              		.loc 1 61 25 is_stmt 0 view .LVU206
 663 0040 4C1C     		adds	r4, r1, #1
 664              		.loc 1 62 25 view .LVU207
 665 0042 511C     		adds	r1, r2, #1
 666              		.loc 1 64 48 view .LVU208
 667 0044 5A6B     		ldr	r2, [r3, #52]
 668              		.loc 1 61 25 view .LVU209
 669 0046 1C60     		str	r4, [r3]
 670              		.loc 1 62 5 is_stmt 1 view .LVU210
 671              		.loc 1 64 48 is_stmt 0 view .LVU211
 672 0048 0132     		adds	r2, r2, #1
 673              		.loc 1 62 25 view .LVU212
 674 004a 9960     		str	r1, [r3, #8]
 675              		.loc 1 63 5 is_stmt 1 view .LVU213
 676              		.loc 1 64 26 view .LVU214
 677              		.loc 1 64 48 is_stmt 0 view .LVU215
 678 004c 5A63     		str	r2, [r3, #52]
 679              		.loc 1 64 52 is_stmt 1 view .LVU216
 680              	.LVL37:
 681              		.loc 1 64 52 is_stmt 0 view .LVU217
ARM GAS  C:\Users\DEVELO~1\AppData\Local\Temp\ccUlh0tc.s 			page 13


 682              	.LBE232:
 683              	.LBE231:
 684              		.loc 1 124 1 view .LVU218
 685 004e 38BD     		pop	{r3, r4, r5, pc}
 686              	.L47:
 687              	.LBB233:
 688              	.LBB230:
 689              	.LBB228:
 690              	.LBI228:
 691              		.loc 1 21 13 is_stmt 1 view .LVU219
 692              	.LBB229:
 693              		.loc 1 23 9 view .LVU220
 694 0050 FFF7FEFF 		bl	drv_sd_thread_start
 695              	.LVL38:
 696              		.loc 1 24 9 view .LVU221
 697              		.loc 1 24 24 is_stmt 0 view .LVU222
 698 0054 0123     		movs	r3, #1
 699              		.loc 1 25 20 view .LVU223
 700 0056 094A     		ldr	r2, .L49+20
 701              		.loc 1 24 24 view .LVU224
 702 0058 2B70     		strb	r3, [r5]
 703              		.loc 1 25 9 is_stmt 1 view .LVU225
 704              		.loc 1 25 20 is_stmt 0 view .LVU226
 705 005a 1370     		strb	r3, [r2]
 706              	.LBE229:
 707              	.LBE228:
 708              	.LBE230:
 709              	.LBE233:
 710              		.loc 1 117 5 is_stmt 1 view .LVU227
 711              		.loc 1 117 25 is_stmt 0 view .LVU228
 712 005c FFF7FEFF 		bl	drv_sd_thread_alloc
 713              	.LVL39:
 714              		.loc 1 118 5 is_stmt 1 view .LVU229
 715              		.loc 1 118 8 is_stmt 0 view .LVU230
 716 0060 0028     		cmp	r0, #0
 717 0062 E0D1     		bne	.L48
 718              	.L38:
 719              		.loc 1 119 16 view .LVU231
 720 0064 0320     		movs	r0, #3
 721              	.LVL40:
 722              		.loc 1 124 1 view .LVU232
 723 0066 38BD     		pop	{r3, r4, r5, pc}
 724              	.L50:
 725              		.align	2
 726              	.L49:
 727 0068 00000000 		.word	ch0
 728 006c 00000000 		.word	.LC0
 729 0070 00000000 		.word	.LANCHOR2
 730 0074 00000000 		.word	.LANCHOR1
 731 0078 00000000 		.word	.LANCHOR0
 732 007c 00000000 		.word	.LANCHOR3
 733              		.cfi_endproc
 734              	.LFE454:
 735              		.size	drv_sd_mount, .-drv_sd_mount
 736              		.section	.text.drv_sd_unmount,"ax",%progbits
 737              		.align	1
 738              		.p2align 2,,3
ARM GAS  C:\Users\DEVELO~1\AppData\Local\Temp\ccUlh0tc.s 			page 14


 739              		.global	drv_sd_unmount
 740              		.syntax unified
 741              		.thumb
 742              		.thumb_func
 743              		.type	drv_sd_unmount, %function
 744              	drv_sd_unmount:
 745              	.LFB455:
 746              		.loc 1 126 33 is_stmt 1 view -0
 747              		.cfi_startproc
 748              		@ args = 0, pretend = 0, frame = 0
 749              		@ frame_needed = 0, uses_anonymous_args = 0
 750              		.loc 1 127 5 view .LVU234
 751              	.LBB256:
 752              	.LBI256:
 753              		.loc 1 29 13 view .LVU235
 754              	.LBB257:
 755              		.loc 1 30 5 view .LVU236
 756              	.LBB258:
 757              	.LBI258:
 758              		.loc 3 205 31 view .LVU237
 759              	.LBB259:
 760              		.loc 3 207 3 view .LVU238
 761              		.loc 3 209 3 view .LVU239
 762              	.LBE259:
 763              	.LBE258:
 764              	.LBE257:
 765              	.LBE256:
 766              		.loc 1 126 33 is_stmt 0 view .LVU240
 767 0000 10B5     		push	{r4, lr}
 768              		.cfi_def_cfa_offset 8
 769              		.cfi_offset 4, -8
 770              		.cfi_offset 14, -4
 771              	.LBB273:
 772              	.LBB272:
 773              	.LBB261:
 774              	.LBB260:
 775              		.loc 3 209 3 view .LVU241
 776              		.syntax unified
 777              	@ 209 "./docs/ChibiOS/os/common/ext/ARM/CMSIS/Core/Include/cmsis_gcc.h" 1
 778 0002 EFF30583 		MRS r3, ipsr
 779              	@ 0 "" 2
 780              	.LVL41:
 781              		.loc 3 210 3 is_stmt 1 view .LVU242
 782              		.loc 3 210 3 is_stmt 0 view .LVU243
 783              		.thumb
 784              		.syntax unified
 785              	.LBE260:
 786              	.LBE261:
 787              		.loc 1 30 8 view .LVU244
 788 0006 9BB9     		cbnz	r3, .L52
 789              	.LBB262:
 790              	.LBI262:
 791              		.loc 1 29 13 is_stmt 1 view .LVU245
 792              	.LBB263:
 793              		.loc 1 33 5 view .LVU246
 794              	.LBB264:
 795              	.LBI264:
ARM GAS  C:\Users\DEVELO~1\AppData\Local\Temp\ccUlh0tc.s 			page 15


 796              		.loc 4 527 25 view .LVU247
 797              	.LBB265:
 798              		.loc 4 529 3 view .LVU248
 799              	.LVL42:
 800              		.loc 4 529 3 is_stmt 0 view .LVU249
 801              	.LBE265:
 802              	.LBE264:
 803              	.LBB267:
 804              	.LBI267:
 805              		.loc 5 186 27 is_stmt 1 view .LVU250
 806              	.LBB268:
 807              		.loc 5 189 3 view .LVU251
 808              	.LBE268:
 809              	.LBE267:
 810              	.LBB270:
 811              	.LBB266:
 812              		.loc 4 529 10 is_stmt 0 view .LVU252
 813 0008 164B     		ldr	r3, .L68
 814              	.LBE266:
 815              	.LBE270:
 816              	.LBB271:
 817              	.LBB269:
 818              		.loc 5 189 12 view .LVU253
 819 000a DB68     		ldr	r3, [r3, #12]
 820 000c 186A     		ldr	r0, [r3, #32]
 821              	.LVL43:
 822              		.loc 5 189 12 view .LVU254
 823              	.LBE269:
 824              	.LBE271:
 825              		.loc 1 34 5 is_stmt 1 view .LVU255
 826              		.loc 1 34 8 is_stmt 0 view .LVU256
 827 000e 18B1     		cbz	r0, .L53
 828              		.loc 1 34 25 view .LVU257
 829 0010 1549     		ldr	r1, .L68+4
 830 0012 FFF7FEFF 		bl	strcmp
 831              	.LVL44:
 832              		.loc 1 34 22 view .LVU258
 833 0016 58B1     		cbz	r0, .L52
 834              	.L53:
 835              		.loc 1 37 5 is_stmt 1 view .LVU259
 836              		.loc 1 37 5 is_stmt 0 view .LVU260
 837              	.LBE263:
 838              	.LBE262:
 839              	.LBE272:
 840              	.LBE273:
 841              		.loc 1 131 5 is_stmt 1 view .LVU261
 842              	.LBB274:
 843              	.LBI274:
 844              		.loc 1 21 13 view .LVU262
 845              	.LBB275:
 846              		.loc 1 22 5 view .LVU263
 847              		.loc 1 22 9 is_stmt 0 view .LVU264
 848 0018 144C     		ldr	r4, .L68+8
 849              		.loc 1 22 8 view .LVU265
 850 001a 2378     		ldrb	r3, [r4]	@ zero_extendqisi2
 851 001c B3B1     		cbz	r3, .L66
 852              	.LBE275:
ARM GAS  C:\Users\DEVELO~1\AppData\Local\Temp\ccUlh0tc.s 			page 16


 853              	.LBE274:
 854              		.loc 1 132 5 is_stmt 1 view .LVU266
 855              		.loc 1 132 25 is_stmt 0 view .LVU267
 856 001e FFF7FEFF 		bl	drv_sd_thread_alloc
 857              	.LVL45:
 858              		.loc 1 133 5 is_stmt 1 view .LVU268
 859              		.loc 1 133 8 is_stmt 0 view .LVU269
 860 0022 E8B1     		cbz	r0, .L57
 861              	.L67:
 862              		.loc 1 136 5 is_stmt 1 view .LVU270
 863              		.loc 1 136 15 is_stmt 0 view .LVU271
 864 0024 0222     		movs	r2, #2
 865 0026 0270     		strb	r2, [r0]
 866              		.loc 1 137 5 is_stmt 1 view .LVU272
 867              		.loc 1 138 1 is_stmt 0 view .LVU273
 868 0028 BDE81040 		pop	{r4, lr}
 869              		.cfi_remember_state
 870              		.cfi_restore 14
 871              		.cfi_restore 4
 872              		.cfi_def_cfa_offset 0
 873              		.loc 1 137 12 view .LVU274
 874 002c FFF7FEBF 		b	sd_submit_request
 875              	.LVL46:
 876              	.L52:
 877              		.cfi_restore_state
 878              		.loc 1 128 9 is_stmt 1 view .LVU275
 879              	.LBB279:
 880              	.LBI279:
 881              		.loc 1 59 13 view .LVU276
 882              	.LBB280:
 883              		.loc 1 60 5 view .LVU277
 884              		.loc 1 61 25 is_stmt 0 view .LVU278
 885 0030 0F4B     		ldr	r3, .L68+12
 886              		.loc 1 60 21 view .LVU279
 887 0032 0C20     		movs	r0, #12
 888 0034 0F4C     		ldr	r4, .L68+16
 889              		.loc 1 61 25 view .LVU280
 890 0036 1968     		ldr	r1, [r3]
 891              		.loc 1 62 25 view .LVU281
 892 0038 9A68     		ldr	r2, [r3, #8]
 893              		.loc 1 60 21 view .LVU282
 894 003a 2070     		strb	r0, [r4]
 895              		.loc 1 61 5 is_stmt 1 view .LVU283
 896              		.loc 1 61 25 is_stmt 0 view .LVU284
 897 003c 4C1C     		adds	r4, r1, #1
 898              		.loc 1 62 25 view .LVU285
 899 003e 511C     		adds	r1, r2, #1
 900              		.loc 1 64 48 view .LVU286
 901 0040 5A6B     		ldr	r2, [r3, #52]
 902              		.loc 1 61 25 view .LVU287
 903 0042 1C60     		str	r4, [r3]
 904              		.loc 1 62 5 is_stmt 1 view .LVU288
 905              		.loc 1 64 48 is_stmt 0 view .LVU289
 906 0044 0132     		adds	r2, r2, #1
 907              		.loc 1 62 25 view .LVU290
 908 0046 9960     		str	r1, [r3, #8]
 909              		.loc 1 63 5 is_stmt 1 view .LVU291
ARM GAS  C:\Users\DEVELO~1\AppData\Local\Temp\ccUlh0tc.s 			page 17


 910              		.loc 1 64 26 view .LVU292
 911              		.loc 1 64 48 is_stmt 0 view .LVU293
 912 0048 5A63     		str	r2, [r3, #52]
 913              		.loc 1 64 52 is_stmt 1 view .LVU294
 914              	.LVL47:
 915              		.loc 1 64 52 is_stmt 0 view .LVU295
 916              	.LBE280:
 917              	.LBE279:
 918              		.loc 1 138 1 view .LVU296
 919 004a 10BD     		pop	{r4, pc}
 920              	.L66:
 921              	.LBB281:
 922              	.LBB278:
 923              	.LBB276:
 924              	.LBI276:
 925              		.loc 1 21 13 is_stmt 1 view .LVU297
 926              	.LBB277:
 927              		.loc 1 23 9 view .LVU298
 928 004c FFF7FEFF 		bl	drv_sd_thread_start
 929              	.LVL48:
 930              		.loc 1 24 9 view .LVU299
 931              		.loc 1 24 24 is_stmt 0 view .LVU300
 932 0050 0123     		movs	r3, #1
 933              		.loc 1 25 20 view .LVU301
 934 0052 094A     		ldr	r2, .L68+20
 935              		.loc 1 24 24 view .LVU302
 936 0054 2370     		strb	r3, [r4]
 937              		.loc 1 25 9 is_stmt 1 view .LVU303
 938              		.loc 1 25 20 is_stmt 0 view .LVU304
 939 0056 1370     		strb	r3, [r2]
 940              	.LBE277:
 941              	.LBE276:
 942              	.LBE278:
 943              	.LBE281:
 944              		.loc 1 132 5 is_stmt 1 view .LVU305
 945              		.loc 1 132 25 is_stmt 0 view .LVU306
 946 0058 FFF7FEFF 		bl	drv_sd_thread_alloc
 947              	.LVL49:
 948              		.loc 1 133 5 is_stmt 1 view .LVU307
 949              		.loc 1 133 8 is_stmt 0 view .LVU308
 950 005c 0028     		cmp	r0, #0
 951 005e E1D1     		bne	.L67
 952              	.L57:
 953              		.loc 1 134 16 view .LVU309
 954 0060 0320     		movs	r0, #3
 955              	.LVL50:
 956              		.loc 1 138 1 view .LVU310
 957 0062 10BD     		pop	{r4, pc}
 958              	.L69:
 959              		.align	2
 960              	.L68:
 961 0064 00000000 		.word	ch0
 962 0068 00000000 		.word	.LC0
 963 006c 00000000 		.word	.LANCHOR2
 964 0070 00000000 		.word	.LANCHOR1
 965 0074 00000000 		.word	.LANCHOR0
 966 0078 00000000 		.word	.LANCHOR3
ARM GAS  C:\Users\DEVELO~1\AppData\Local\Temp\ccUlh0tc.s 			page 18


 967              		.cfi_endproc
 968              	.LFE455:
 969              		.size	drv_sd_unmount, .-drv_sd_unmount
 970              		.section	.text.drv_sd_is_present,"ax",%progbits
 971              		.align	1
 972              		.p2align 2,,3
 973              		.global	drv_sd_is_present
 974              		.syntax unified
 975              		.thumb
 976              		.thumb_func
 977              		.type	drv_sd_is_present, %function
 978              	drv_sd_is_present:
 979              	.LFB456:
 980              		.loc 1 140 30 is_stmt 1 view -0
 981              		.cfi_startproc
 982              		@ args = 0, pretend = 0, frame = 0
 983              		@ frame_needed = 0, uses_anonymous_args = 0
 984              		@ link register save eliminated.
 985              		.loc 1 141 5 view .LVU312
 986              		.loc 1 141 12 is_stmt 0 view .LVU313
 987 0000 FFF7FEBF 		b	drv_sd_hal_is_card_present
 988              	.LVL51:
 989              		.cfi_endproc
 990              	.LFE456:
 991              		.size	drv_sd_is_present, .-drv_sd_is_present
 992              		.section	.text.drv_sd_get_state,"ax",%progbits
 993              		.align	1
 994              		.p2align 2,,3
 995              		.global	drv_sd_get_state
 996              		.syntax unified
 997              		.thumb
 998              		.thumb_func
 999              		.type	drv_sd_get_state, %function
 1000              	drv_sd_get_state:
 1001              	.LFB457:
 1002              		.loc 1 144 35 is_stmt 1 view -0
 1003              		.cfi_startproc
 1004              		@ args = 0, pretend = 0, frame = 0
 1005              		@ frame_needed = 0, uses_anonymous_args = 0
 1006              		@ link register save eliminated.
 1007              		.loc 1 145 5 view .LVU315
 1008              		.loc 1 145 12 is_stmt 0 view .LVU316
 1009 0000 014B     		ldr	r3, .L72
 1010              		.loc 1 146 1 view .LVU317
 1011 0002 1878     		ldrb	r0, [r3]	@ zero_extendqisi2
 1012 0004 7047     		bx	lr
 1013              	.L73:
 1014 0006 00BF     		.align	2
 1015              	.L72:
 1016 0008 00000000 		.word	.LANCHOR3
 1017              		.cfi_endproc
 1018              	.LFE457:
 1019              		.size	drv_sd_get_state, .-drv_sd_get_state
 1020              		.section	.text.drv_sd_get_last_error,"ax",%progbits
 1021              		.align	1
 1022              		.p2align 2,,3
 1023              		.global	drv_sd_get_last_error
ARM GAS  C:\Users\DEVELO~1\AppData\Local\Temp\ccUlh0tc.s 			page 19


 1024              		.syntax unified
 1025              		.thumb
 1026              		.thumb_func
 1027              		.type	drv_sd_get_last_error, %function
 1028              	drv_sd_get_last_error:
 1029              	.LFB458:
 1030              		.loc 1 148 40 is_stmt 1 view -0
 1031              		.cfi_startproc
 1032              		@ args = 0, pretend = 0, frame = 0
 1033              		@ frame_needed = 0, uses_anonymous_args = 0
 1034              		@ link register save eliminated.
 1035              		.loc 1 149 5 view .LVU319
 1036              		.loc 1 149 12 is_stmt 0 view .LVU320
 1037 0000 014B     		ldr	r3, .L75
 1038              		.loc 1 150 1 view .LVU321
 1039 0002 1878     		ldrb	r0, [r3]	@ zero_extendqisi2
 1040 0004 7047     		bx	lr
 1041              	.L76:
 1042 0006 00BF     		.align	2
 1043              	.L75:
 1044 0008 00000000 		.word	.LANCHOR0
 1045              		.cfi_endproc
 1046              	.LFE458:
 1047              		.size	drv_sd_get_last_error, .-drv_sd_get_last_error
 1048              		.section	.text.drv_sd_load_pattern,"ax",%progbits
 1049              		.align	1
 1050              		.p2align 2,,3
 1051              		.global	drv_sd_load_pattern
 1052              		.syntax unified
 1053              		.thumb
 1054              		.thumb_func
 1055              		.type	drv_sd_load_pattern, %function
 1056              	drv_sd_load_pattern:
 1057              	.LVL52:
 1058              	.LFB460:
 1059              		.loc 1 164 56 is_stmt 1 view -0
 1060              		.cfi_startproc
 1061              		@ args = 8, pretend = 0, frame = 0
 1062              		@ frame_needed = 0, uses_anonymous_args = 0
 1063              		.loc 1 165 5 view .LVU323
 1064              	.LBB312:
 1065              	.LBI312:
 1066              		.loc 1 29 13 view .LVU324
 1067              	.LBB313:
 1068              		.loc 1 30 5 view .LVU325
 1069              	.LBB314:
 1070              	.LBI314:
 1071              		.loc 3 205 31 view .LVU326
 1072              	.LBB315:
 1073              		.loc 3 207 3 view .LVU327
 1074              		.loc 3 209 3 view .LVU328
 1075              	.LBE315:
 1076              	.LBE314:
 1077              	.LBE313:
 1078              	.LBE312:
 1079              		.loc 1 164 56 is_stmt 0 view .LVU329
 1080 0000 2DE9F047 		push	{r4, r5, r6, r7, r8, r9, r10, lr}
ARM GAS  C:\Users\DEVELO~1\AppData\Local\Temp\ccUlh0tc.s 			page 20


 1081              		.cfi_def_cfa_offset 32
 1082              		.cfi_offset 4, -32
 1083              		.cfi_offset 5, -28
 1084              		.cfi_offset 6, -24
 1085              		.cfi_offset 7, -20
 1086              		.cfi_offset 8, -16
 1087              		.cfi_offset 9, -12
 1088              		.cfi_offset 10, -8
 1089              		.cfi_offset 14, -4
 1090              		.loc 1 164 56 view .LVU330
 1091 0004 0446     		mov	r4, r0
 1092 0006 DDE90898 		ldrd	r9, r8, [sp, #32]
 1093              	.LBB329:
 1094              	.LBB328:
 1095              	.LBB317:
 1096              	.LBB316:
 1097              		.loc 3 209 3 view .LVU331
 1098              		.syntax unified
 1099              	@ 209 "./docs/ChibiOS/os/common/ext/ARM/CMSIS/Core/Include/cmsis_gcc.h" 1
 1100 000a EFF30580 		MRS r0, ipsr
 1101              	@ 0 "" 2
 1102              	.LVL53:
 1103              		.loc 3 210 3 is_stmt 1 view .LVU332
 1104              		.loc 3 210 3 is_stmt 0 view .LVU333
 1105              		.thumb
 1106              		.syntax unified
 1107              	.LBE316:
 1108              	.LBE317:
 1109              		.loc 1 30 8 view .LVU334
 1110 000e 68BB     		cbnz	r0, .L78
 1111              	.LBB318:
 1112              	.LBI318:
 1113              		.loc 1 29 13 is_stmt 1 view .LVU335
 1114              	.LBB319:
 1115              		.loc 1 33 5 view .LVU336
 1116              	.LBB320:
 1117              	.LBI320:
 1118              		.loc 4 527 25 view .LVU337
 1119              	.LBB321:
 1120              		.loc 4 529 3 view .LVU338
 1121              	.LVL54:
 1122              		.loc 4 529 3 is_stmt 0 view .LVU339
 1123              	.LBE321:
 1124              	.LBE320:
 1125              	.LBB323:
 1126              	.LBI323:
 1127              		.loc 5 186 27 is_stmt 1 view .LVU340
 1128              	.LBB324:
 1129              		.loc 5 189 3 view .LVU341
 1130 0010 1D46     		mov	r5, r3
 1131              	.LBE324:
 1132              	.LBE323:
 1133              	.LBB326:
 1134              	.LBB322:
 1135              		.loc 4 529 10 is_stmt 0 view .LVU342
 1136 0012 2A4B     		ldr	r3, .L100
 1137              	.LVL55:
ARM GAS  C:\Users\DEVELO~1\AppData\Local\Temp\ccUlh0tc.s 			page 21


 1138              		.loc 4 529 10 view .LVU343
 1139 0014 0F46     		mov	r7, r1
 1140 0016 1646     		mov	r6, r2
 1141              	.LBE322:
 1142              	.LBE326:
 1143              	.LBB327:
 1144              	.LBB325:
 1145              		.loc 5 189 12 view .LVU344
 1146 0018 DB68     		ldr	r3, [r3, #12]
 1147 001a 186A     		ldr	r0, [r3, #32]
 1148              	.LVL56:
 1149              		.loc 5 189 12 view .LVU345
 1150              	.LBE325:
 1151              	.LBE327:
 1152              		.loc 1 34 5 is_stmt 1 view .LVU346
 1153              		.loc 1 34 8 is_stmt 0 view .LVU347
 1154 001c 18B1     		cbz	r0, .L79
 1155              		.loc 1 34 25 view .LVU348
 1156 001e 2849     		ldr	r1, .L100+4
 1157              	.LVL57:
 1158              		.loc 1 34 25 view .LVU349
 1159 0020 FFF7FEFF 		bl	strcmp
 1160              	.LVL58:
 1161              		.loc 1 34 22 view .LVU350
 1162 0024 10B3     		cbz	r0, .L78
 1163              	.L79:
 1164              		.loc 1 37 5 is_stmt 1 view .LVU351
 1165              		.loc 1 37 5 is_stmt 0 view .LVU352
 1166              	.LBE319:
 1167              	.LBE318:
 1168              	.LBE328:
 1169              	.LBE329:
 1170              		.loc 1 169 5 is_stmt 1 view .LVU353
 1171              	.LBB330:
 1172              	.LBI330:
 1173              		.loc 1 21 13 view .LVU354
 1174              	.LBB331:
 1175              		.loc 1 22 5 view .LVU355
 1176              		.loc 1 22 9 is_stmt 0 view .LVU356
 1177 0026 DFF8A8A0 		ldr	r10, .L100+20
 1178              		.loc 1 22 8 view .LVU357
 1179 002a 9AF80030 		ldrb	r3, [r10]	@ zero_extendqisi2
 1180 002e 002B     		cmp	r3, #0
 1181 0030 37D0     		beq	.L98
 1182              	.LBE331:
 1183              	.LBE330:
 1184              		.loc 1 170 5 is_stmt 1 view .LVU358
 1185              	.LVL59:
 1186              	.LBB335:
 1187              	.LBI335:
 1188              		.loc 1 152 13 view .LVU359
 1189              	.LBB336:
 1190              		.loc 1 153 5 view .LVU360
 1191              		.loc 1 153 8 is_stmt 0 view .LVU361
 1192 0032 54B3     		cbz	r4, .L83
 1193              	.L99:
 1194              		.loc 1 156 5 is_stmt 1 view .LVU362
ARM GAS  C:\Users\DEVELO~1\AppData\Local\Temp\ccUlh0tc.s 			page 22


 1195              		.loc 1 156 12 is_stmt 0 view .LVU363
 1196 0034 2046     		mov	r0, r4
 1197 0036 FFF7FEFF 		bl	strlen
 1198              	.LVL60:
 1199              		.loc 1 156 12 view .LVU364
 1200              	.LBE336:
 1201              	.LBE335:
 1202              	.LBB338:
 1203              	.LBI338:
 1204              		.loc 1 152 13 is_stmt 1 view .LVU365
 1205              	.LBB339:
 1206              		.loc 1 153 5 view .LVU366
 1207              		.loc 1 153 8 is_stmt 0 view .LVU367
 1208 003a 3F28     		cmp	r0, #63
 1209 003c 25D8     		bhi	.L83
 1210 003e 27B3     		cbz	r7, .L83
 1211              		.loc 1 156 5 is_stmt 1 view .LVU368
 1212              		.loc 1 156 12 is_stmt 0 view .LVU369
 1213 0040 3846     		mov	r0, r7
 1214 0042 FFF7FEFF 		bl	strlen
 1215              	.LVL61:
 1216              		.loc 1 156 12 view .LVU370
 1217              	.LBE339:
 1218              	.LBE338:
 1219              		.loc 1 170 76 view .LVU371
 1220 0046 06B3     		cbz	r6, .L83
 1221 0048 3F28     		cmp	r0, #63
 1222 004a 1ED8     		bhi	.L83
 1223              		.loc 1 174 5 is_stmt 1 view .LVU372
 1224              		.loc 1 174 25 is_stmt 0 view .LVU373
 1225 004c FFF7FEFF 		bl	drv_sd_thread_alloc
 1226              	.LVL62:
 1227              		.loc 1 175 5 is_stmt 1 view .LVU374
 1228              		.loc 1 175 8 is_stmt 0 view .LVU375
 1229 0050 0028     		cmp	r0, #0
 1230 0052 30D0     		beq	.L86
 1231              		.loc 1 178 5 is_stmt 1 view .LVU376
 1232              		.loc 1 178 15 is_stmt 0 view .LVU377
 1233 0054 0322     		movs	r2, #3
 1234              		.loc 1 180 38 view .LVU378
 1235 0056 C0E90547 		strd	r4, r7, [r0, #20]
 1236              		.loc 1 182 37 view .LVU379
 1237 005a C0E90765 		strd	r6, r5, [r0, #28]
 1238              		.loc 1 184 36 view .LVU380
 1239 005e C0E90998 		strd	r9, r8, [r0, #36]
 1240              		.loc 1 178 15 view .LVU381
 1241 0062 0270     		strb	r2, [r0]
 1242              		.loc 1 179 5 is_stmt 1 view .LVU382
 1243              		.loc 1 180 5 view .LVU383
 1244              		.loc 1 181 5 view .LVU384
 1245              		.loc 1 182 5 view .LVU385
 1246              		.loc 1 183 5 view .LVU386
 1247              		.loc 1 184 5 view .LVU387
 1248              		.loc 1 185 5 view .LVU388
 1249              		.loc 1 186 1 is_stmt 0 view .LVU389
 1250 0064 BDE8F047 		pop	{r4, r5, r6, r7, r8, r9, r10, lr}
 1251              		.cfi_remember_state
ARM GAS  C:\Users\DEVELO~1\AppData\Local\Temp\ccUlh0tc.s 			page 23


 1252              		.cfi_restore 14
 1253              		.cfi_restore 10
 1254              		.cfi_restore 9
 1255              		.cfi_restore 8
 1256              		.cfi_restore 7
 1257              		.cfi_restore 6
 1258              		.cfi_restore 5
 1259              		.cfi_restore 4
 1260              		.cfi_def_cfa_offset 0
 1261              	.LVL63:
 1262              		.loc 1 185 12 view .LVU390
 1263 0068 FFF7FEBF 		b	sd_submit_request
 1264              	.LVL64:
 1265              	.L78:
 1266              		.cfi_restore_state
 1267              		.loc 1 166 9 is_stmt 1 view .LVU391
 1268              	.LBB340:
 1269              	.LBI340:
 1270              		.loc 1 59 13 view .LVU392
 1271              	.LBB341:
 1272              		.loc 1 60 5 view .LVU393
 1273              		.loc 1 61 25 is_stmt 0 view .LVU394
 1274 006c 154B     		ldr	r3, .L100+8
 1275              		.loc 1 60 21 view .LVU395
 1276 006e 0C20     		movs	r0, #12
 1277 0070 154C     		ldr	r4, .L100+12
 1278              	.LVL65:
 1279              		.loc 1 61 25 view .LVU396
 1280 0072 1968     		ldr	r1, [r3]
 1281              		.loc 1 62 25 view .LVU397
 1282 0074 9A68     		ldr	r2, [r3, #8]
 1283              		.loc 1 60 21 view .LVU398
 1284 0076 2070     		strb	r0, [r4]
 1285              		.loc 1 61 5 is_stmt 1 view .LVU399
 1286              		.loc 1 61 25 is_stmt 0 view .LVU400
 1287 0078 4C1C     		adds	r4, r1, #1
 1288              		.loc 1 62 25 view .LVU401
 1289 007a 511C     		adds	r1, r2, #1
 1290              		.loc 1 64 48 view .LVU402
 1291 007c 5A6B     		ldr	r2, [r3, #52]
 1292              		.loc 1 61 25 view .LVU403
 1293 007e 1C60     		str	r4, [r3]
 1294              		.loc 1 62 5 is_stmt 1 view .LVU404
 1295              		.loc 1 64 48 is_stmt 0 view .LVU405
 1296 0080 0132     		adds	r2, r2, #1
 1297              		.loc 1 62 25 view .LVU406
 1298 0082 9960     		str	r1, [r3, #8]
 1299              		.loc 1 63 5 is_stmt 1 view .LVU407
 1300              		.loc 1 64 26 view .LVU408
 1301              		.loc 1 64 48 is_stmt 0 view .LVU409
 1302 0084 5A63     		str	r2, [r3, #52]
 1303              		.loc 1 64 52 is_stmt 1 view .LVU410
 1304              	.LVL66:
 1305              	.L82:
 1306              		.loc 1 64 52 is_stmt 0 view .LVU411
 1307              	.LBE341:
 1308              	.LBE340:
ARM GAS  C:\Users\DEVELO~1\AppData\Local\Temp\ccUlh0tc.s 			page 24


 1309              		.loc 1 186 1 view .LVU412
 1310 0086 BDE8F087 		pop	{r4, r5, r6, r7, r8, r9, r10, pc}
 1311              	.LVL67:
 1312              	.L83:
 1313              		.loc 1 171 9 is_stmt 1 view .LVU413
 1314              	.LBB342:
 1315              	.LBI342:
 1316              		.loc 1 59 13 view .LVU414
 1317              	.LBB343:
 1318              		.loc 1 60 5 view .LVU415
 1319              		.loc 1 61 25 is_stmt 0 view .LVU416
 1320 008a 0E4B     		ldr	r3, .L100+8
 1321              		.loc 1 60 21 view .LVU417
 1322 008c 0720     		movs	r0, #7
 1323 008e 0E4C     		ldr	r4, .L100+12
 1324              	.LVL68:
 1325              		.loc 1 61 25 view .LVU418
 1326 0090 1968     		ldr	r1, [r3]
 1327              		.loc 1 62 25 view .LVU419
 1328 0092 9A68     		ldr	r2, [r3, #8]
 1329              		.loc 1 61 25 view .LVU420
 1330 0094 0131     		adds	r1, r1, #1
 1331              		.loc 1 60 21 view .LVU421
 1332 0096 2070     		strb	r0, [r4]
 1333              		.loc 1 61 5 is_stmt 1 view .LVU422
 1334              		.loc 1 62 25 is_stmt 0 view .LVU423
 1335 0098 0132     		adds	r2, r2, #1
 1336              		.loc 1 61 25 view .LVU424
 1337 009a 1960     		str	r1, [r3]
 1338              		.loc 1 62 5 is_stmt 1 view .LVU425
 1339              		.loc 1 62 25 is_stmt 0 view .LVU426
 1340 009c 9A60     		str	r2, [r3, #8]
 1341              		.loc 1 63 5 is_stmt 1 view .LVU427
 1342              	.LVL69:
 1343              		.loc 1 63 5 is_stmt 0 view .LVU428
 1344              	.LBE343:
 1345              	.LBE342:
 1346              		.loc 1 186 1 view .LVU429
 1347 009e BDE8F087 		pop	{r4, r5, r6, r7, r8, r9, r10, pc}
 1348              	.LVL70:
 1349              	.L98:
 1350              	.LBB344:
 1351              	.LBB334:
 1352              	.LBB332:
 1353              	.LBI332:
 1354              		.loc 1 21 13 is_stmt 1 view .LVU430
 1355              	.LBB333:
 1356              		.loc 1 23 9 view .LVU431
 1357 00a2 FFF7FEFF 		bl	drv_sd_thread_start
 1358              	.LVL71:
 1359              		.loc 1 24 9 view .LVU432
 1360              		.loc 1 24 24 is_stmt 0 view .LVU433
 1361 00a6 0123     		movs	r3, #1
 1362              		.loc 1 25 20 view .LVU434
 1363 00a8 084A     		ldr	r2, .L100+16
 1364              		.loc 1 24 24 view .LVU435
 1365 00aa 8AF80030 		strb	r3, [r10]
ARM GAS  C:\Users\DEVELO~1\AppData\Local\Temp\ccUlh0tc.s 			page 25


 1366              		.loc 1 25 9 is_stmt 1 view .LVU436
 1367              		.loc 1 25 20 is_stmt 0 view .LVU437
 1368 00ae 1370     		strb	r3, [r2]
 1369              	.LBE333:
 1370              	.LBE332:
 1371              	.LBE334:
 1372              	.LBE344:
 1373              		.loc 1 170 5 is_stmt 1 view .LVU438
 1374              	.LVL72:
 1375              	.LBB345:
 1376              		.loc 1 152 13 view .LVU439
 1377              	.LBB337:
 1378              		.loc 1 153 5 view .LVU440
 1379              		.loc 1 153 8 is_stmt 0 view .LVU441
 1380 00b0 002C     		cmp	r4, #0
 1381 00b2 BFD1     		bne	.L99
 1382 00b4 E9E7     		b	.L83
 1383              	.LVL73:
 1384              	.L86:
 1385              		.loc 1 153 8 view .LVU442
 1386              	.LBE337:
 1387              	.LBE345:
 1388              		.loc 1 176 16 view .LVU443
 1389 00b6 0320     		movs	r0, #3
 1390              	.LVL74:
 1391              		.loc 1 176 16 view .LVU444
 1392 00b8 E5E7     		b	.L82
 1393              	.L101:
 1394 00ba 00BF     		.align	2
 1395              	.L100:
 1396 00bc 00000000 		.word	ch0
 1397 00c0 00000000 		.word	.LC0
 1398 00c4 00000000 		.word	.LANCHOR1
 1399 00c8 00000000 		.word	.LANCHOR0
 1400 00cc 00000000 		.word	.LANCHOR3
 1401 00d0 00000000 		.word	.LANCHOR2
 1402              		.cfi_endproc
 1403              	.LFE460:
 1404              		.size	drv_sd_load_pattern, .-drv_sd_load_pattern
 1405              		.section	.text.drv_sd_save_pattern,"ax",%progbits
 1406              		.align	1
 1407              		.p2align 2,,3
 1408              		.global	drv_sd_save_pattern
 1409              		.syntax unified
 1410              		.thumb
 1411              		.thumb_func
 1412              		.type	drv_sd_save_pattern, %function
 1413              	drv_sd_save_pattern:
 1414              	.LVL75:
 1415              	.LFB461:
 1416              		.loc 1 192 53 is_stmt 1 view -0
 1417              		.cfi_startproc
 1418              		@ args = 4, pretend = 0, frame = 0
 1419              		@ frame_needed = 0, uses_anonymous_args = 0
 1420              		.loc 1 193 5 view .LVU446
 1421              	.LBB376:
 1422              	.LBI376:
ARM GAS  C:\Users\DEVELO~1\AppData\Local\Temp\ccUlh0tc.s 			page 26


 1423              		.loc 1 29 13 view .LVU447
 1424              	.LBB377:
 1425              		.loc 1 30 5 view .LVU448
 1426              	.LBB378:
 1427              	.LBI378:
 1428              		.loc 3 205 31 view .LVU449
 1429              	.LBB379:
 1430              		.loc 3 207 3 view .LVU450
 1431              		.loc 3 209 3 view .LVU451
 1432              	.LBE379:
 1433              	.LBE378:
 1434              	.LBE377:
 1435              	.LBE376:
 1436              		.loc 1 192 53 is_stmt 0 view .LVU452
 1437 0000 2DE9F843 		push	{r3, r4, r5, r6, r7, r8, r9, lr}
 1438              		.cfi_def_cfa_offset 32
 1439              		.cfi_offset 3, -32
 1440              		.cfi_offset 4, -28
 1441              		.cfi_offset 5, -24
 1442              		.cfi_offset 6, -20
 1443              		.cfi_offset 7, -16
 1444              		.cfi_offset 8, -12
 1445              		.cfi_offset 9, -8
 1446              		.cfi_offset 14, -4
 1447              		.loc 1 192 53 view .LVU453
 1448 0004 DDF82080 		ldr	r8, [sp, #32]
 1449 0008 0446     		mov	r4, r0
 1450              	.LBB393:
 1451              	.LBB392:
 1452              	.LBB381:
 1453              	.LBB380:
 1454              		.loc 3 209 3 view .LVU454
 1455              		.syntax unified
 1456              	@ 209 "./docs/ChibiOS/os/common/ext/ARM/CMSIS/Core/Include/cmsis_gcc.h" 1
 1457 000a EFF30580 		MRS r0, ipsr
 1458              	@ 0 "" 2
 1459              	.LVL76:
 1460              		.loc 3 210 3 is_stmt 1 view .LVU455
 1461              		.loc 3 210 3 is_stmt 0 view .LVU456
 1462              		.thumb
 1463              		.syntax unified
 1464              	.LBE380:
 1465              	.LBE381:
 1466              		.loc 1 30 8 view .LVU457
 1467 000e A0BB     		cbnz	r0, .L103
 1468              	.LBB382:
 1469              	.LBI382:
 1470              		.loc 1 29 13 is_stmt 1 view .LVU458
 1471              	.LBB383:
 1472              		.loc 1 33 5 view .LVU459
 1473              	.LBB384:
 1474              	.LBI384:
 1475              		.loc 4 527 25 view .LVU460
 1476              	.LBB385:
 1477              		.loc 4 529 3 view .LVU461
 1478              	.LVL77:
 1479              		.loc 4 529 3 is_stmt 0 view .LVU462
ARM GAS  C:\Users\DEVELO~1\AppData\Local\Temp\ccUlh0tc.s 			page 27


 1480              	.LBE385:
 1481              	.LBE384:
 1482              	.LBB387:
 1483              	.LBI387:
 1484              		.loc 5 186 27 is_stmt 1 view .LVU463
 1485              	.LBB388:
 1486              		.loc 5 189 3 view .LVU464
 1487 0010 1D46     		mov	r5, r3
 1488              	.LBE388:
 1489              	.LBE387:
 1490              	.LBB390:
 1491              	.LBB386:
 1492              		.loc 4 529 10 is_stmt 0 view .LVU465
 1493 0012 2D4B     		ldr	r3, .L125
 1494              	.LVL78:
 1495              		.loc 4 529 10 view .LVU466
 1496 0014 0F46     		mov	r7, r1
 1497 0016 1646     		mov	r6, r2
 1498              	.LBE386:
 1499              	.LBE390:
 1500              	.LBB391:
 1501              	.LBB389:
 1502              		.loc 5 189 12 view .LVU467
 1503 0018 DB68     		ldr	r3, [r3, #12]
 1504 001a 186A     		ldr	r0, [r3, #32]
 1505              	.LVL79:
 1506              		.loc 5 189 12 view .LVU468
 1507              	.LBE389:
 1508              	.LBE391:
 1509              		.loc 1 34 5 is_stmt 1 view .LVU469
 1510              		.loc 1 34 8 is_stmt 0 view .LVU470
 1511 001c 18B1     		cbz	r0, .L104
 1512              		.loc 1 34 25 view .LVU471
 1513 001e 2B49     		ldr	r1, .L125+4
 1514              	.LVL80:
 1515              		.loc 1 34 25 view .LVU472
 1516 0020 FFF7FEFF 		bl	strcmp
 1517              	.LVL81:
 1518              		.loc 1 34 22 view .LVU473
 1519 0024 48B3     		cbz	r0, .L103
 1520              	.L104:
 1521              		.loc 1 37 5 is_stmt 1 view .LVU474
 1522              		.loc 1 37 5 is_stmt 0 view .LVU475
 1523              	.LBE383:
 1524              	.LBE382:
 1525              	.LBE392:
 1526              	.LBE393:
 1527              		.loc 1 197 5 is_stmt 1 view .LVU476
 1528              	.LBB394:
 1529              	.LBI394:
 1530              		.loc 1 21 13 view .LVU477
 1531              	.LBB395:
 1532              		.loc 1 22 5 view .LVU478
 1533              		.loc 1 22 9 is_stmt 0 view .LVU479
 1534 0026 DFF8B490 		ldr	r9, .L125+20
 1535              		.loc 1 22 8 view .LVU480
 1536 002a 99F80030 		ldrb	r3, [r9]	@ zero_extendqisi2
ARM GAS  C:\Users\DEVELO~1\AppData\Local\Temp\ccUlh0tc.s 			page 28


 1537 002e 002B     		cmp	r3, #0
 1538 0030 3ED0     		beq	.L123
 1539              	.LBE395:
 1540              	.LBE394:
 1541              		.loc 1 198 5 is_stmt 1 view .LVU481
 1542              	.LVL82:
 1543              	.LBB399:
 1544              	.LBI399:
 1545              		.loc 1 152 13 view .LVU482
 1546              	.LBB400:
 1547              		.loc 1 153 5 view .LVU483
 1548              		.loc 1 153 8 is_stmt 0 view .LVU484
 1549 0032 8CB3     		cbz	r4, .L108
 1550              	.L124:
 1551              		.loc 1 156 5 is_stmt 1 view .LVU485
 1552              		.loc 1 156 12 is_stmt 0 view .LVU486
 1553 0034 2046     		mov	r0, r4
 1554 0036 FFF7FEFF 		bl	strlen
 1555              	.LVL83:
 1556              		.loc 1 156 12 view .LVU487
 1557              	.LBE400:
 1558              	.LBE399:
 1559              	.LBB402:
 1560              	.LBI402:
 1561              		.loc 1 152 13 is_stmt 1 view .LVU488
 1562              	.LBB403:
 1563              		.loc 1 153 5 view .LVU489
 1564              		.loc 1 153 8 is_stmt 0 view .LVU490
 1565 003a 6FB3     		cbz	r7, .L108
 1566 003c 3F28     		cmp	r0, #63
 1567 003e 2BD8     		bhi	.L108
 1568              		.loc 1 156 5 is_stmt 1 view .LVU491
 1569              		.loc 1 156 12 is_stmt 0 view .LVU492
 1570 0040 3846     		mov	r0, r7
 1571 0042 FFF7FEFF 		bl	strlen
 1572              	.LVL84:
 1573              		.loc 1 156 12 view .LVU493
 1574              	.LBE403:
 1575              	.LBE402:
 1576              		.loc 1 198 41 view .LVU494
 1577 0046 3F28     		cmp	r0, #63
 1578 0048 26D8     		bhi	.L108
 1579              		.loc 1 198 105 discriminator 2 view .LVU495
 1580 004a 6B1E     		subs	r3, r5, #1
 1581              		.loc 1 198 111 discriminator 2 view .LVU496
 1582 004c B3F5005F 		cmp	r3, #8192
 1583 0050 22D2     		bcs	.L108
 1584 0052 0EB3     		cbz	r6, .L108
 1585              		.loc 1 202 5 is_stmt 1 view .LVU497
 1586              		.loc 1 202 25 is_stmt 0 view .LVU498
 1587 0054 FFF7FEFF 		bl	drv_sd_thread_alloc
 1588              	.LVL85:
 1589              		.loc 1 203 5 is_stmt 1 view .LVU499
 1590              		.loc 1 203 8 is_stmt 0 view .LVU500
 1591 0058 0028     		cmp	r0, #0
 1592 005a 33D0     		beq	.L111
 1593              		.loc 1 206 5 is_stmt 1 view .LVU501
ARM GAS  C:\Users\DEVELO~1\AppData\Local\Temp\ccUlh0tc.s 			page 29


 1594              		.loc 1 211 40 is_stmt 0 view .LVU502
 1595 005c 0122     		movs	r2, #1
 1596              		.loc 1 209 36 view .LVU503
 1597 005e C662     		str	r6, [r0, #44]
 1598              		.loc 1 210 36 view .LVU504
 1599 0060 0563     		str	r5, [r0, #48]
 1600              		.loc 1 211 40 view .LVU505
 1601 0062 80F83420 		strb	r2, [r0, #52]
 1602              		.loc 1 206 15 view .LVU506
 1603 0066 0422     		movs	r2, #4
 1604              		.loc 1 212 42 view .LVU507
 1605 0068 C0F83880 		str	r8, [r0, #56]
 1606              		.loc 1 206 15 view .LVU508
 1607 006c 0270     		strb	r2, [r0]
 1608              		.loc 1 207 5 is_stmt 1 view .LVU509
 1609              		.loc 1 208 5 view .LVU510
 1610              		.loc 1 209 5 view .LVU511
 1611              		.loc 1 210 5 view .LVU512
 1612              		.loc 1 211 5 view .LVU513
 1613              		.loc 1 212 5 view .LVU514
 1614              		.loc 1 213 5 view .LVU515
 1615              		.loc 1 208 38 is_stmt 0 view .LVU516
 1616 006e C0E90547 		strd	r4, r7, [r0, #20]
 1617              		.loc 1 214 1 view .LVU517
 1618 0072 BDE8F843 		pop	{r3, r4, r5, r6, r7, r8, r9, lr}
 1619              		.cfi_remember_state
 1620              		.cfi_restore 14
 1621              		.cfi_restore 9
 1622              		.cfi_restore 8
 1623              		.cfi_restore 7
 1624              		.cfi_restore 6
 1625              		.cfi_restore 5
 1626              		.cfi_restore 4
 1627              		.cfi_restore 3
 1628              		.cfi_def_cfa_offset 0
 1629              	.LVL86:
 1630              		.loc 1 213 12 view .LVU518
 1631 0076 FFF7FEBF 		b	sd_submit_request
 1632              	.LVL87:
 1633              	.L103:
 1634              		.cfi_restore_state
 1635              		.loc 1 194 9 is_stmt 1 view .LVU519
 1636              	.LBB404:
 1637              	.LBI404:
 1638              		.loc 1 59 13 view .LVU520
 1639              	.LBB405:
 1640              		.loc 1 60 5 view .LVU521
 1641              		.loc 1 61 25 is_stmt 0 view .LVU522
 1642 007a 154B     		ldr	r3, .L125+8
 1643              		.loc 1 60 21 view .LVU523
 1644 007c 0C20     		movs	r0, #12
 1645 007e 154C     		ldr	r4, .L125+12
 1646              	.LVL88:
 1647              		.loc 1 61 25 view .LVU524
 1648 0080 1968     		ldr	r1, [r3]
 1649              		.loc 1 62 25 view .LVU525
 1650 0082 9A68     		ldr	r2, [r3, #8]
ARM GAS  C:\Users\DEVELO~1\AppData\Local\Temp\ccUlh0tc.s 			page 30


 1651              		.loc 1 60 21 view .LVU526
 1652 0084 2070     		strb	r0, [r4]
 1653              		.loc 1 61 5 is_stmt 1 view .LVU527
 1654              		.loc 1 61 25 is_stmt 0 view .LVU528
 1655 0086 4C1C     		adds	r4, r1, #1
 1656              		.loc 1 62 25 view .LVU529
 1657 0088 511C     		adds	r1, r2, #1
 1658              		.loc 1 64 48 view .LVU530
 1659 008a 5A6B     		ldr	r2, [r3, #52]
 1660              		.loc 1 61 25 view .LVU531
 1661 008c 1C60     		str	r4, [r3]
 1662              		.loc 1 62 5 is_stmt 1 view .LVU532
 1663              		.loc 1 64 48 is_stmt 0 view .LVU533
 1664 008e 0132     		adds	r2, r2, #1
 1665              		.loc 1 62 25 view .LVU534
 1666 0090 9960     		str	r1, [r3, #8]
 1667              		.loc 1 63 5 is_stmt 1 view .LVU535
 1668              		.loc 1 64 26 view .LVU536
 1669              		.loc 1 64 48 is_stmt 0 view .LVU537
 1670 0092 5A63     		str	r2, [r3, #52]
 1671              		.loc 1 64 52 is_stmt 1 view .LVU538
 1672              	.LVL89:
 1673              	.L107:
 1674              		.loc 1 64 52 is_stmt 0 view .LVU539
 1675              	.LBE405:
 1676              	.LBE404:
 1677              		.loc 1 214 1 view .LVU540
 1678 0094 BDE8F883 		pop	{r3, r4, r5, r6, r7, r8, r9, pc}
 1679              	.LVL90:
 1680              	.L108:
 1681              		.loc 1 199 9 is_stmt 1 view .LVU541
 1682              	.LBB406:
 1683              	.LBI406:
 1684              		.loc 1 59 13 view .LVU542
 1685              	.LBB407:
 1686              		.loc 1 60 5 view .LVU543
 1687              		.loc 1 61 25 is_stmt 0 view .LVU544
 1688 0098 0D4B     		ldr	r3, .L125+8
 1689              		.loc 1 60 21 view .LVU545
 1690 009a 0720     		movs	r0, #7
 1691 009c 0D4C     		ldr	r4, .L125+12
 1692              	.LVL91:
 1693              		.loc 1 61 25 view .LVU546
 1694 009e 1968     		ldr	r1, [r3]
 1695              		.loc 1 62 25 view .LVU547
 1696 00a0 9A68     		ldr	r2, [r3, #8]
 1697              		.loc 1 61 25 view .LVU548
 1698 00a2 0131     		adds	r1, r1, #1
 1699              		.loc 1 60 21 view .LVU549
 1700 00a4 2070     		strb	r0, [r4]
 1701              		.loc 1 61 5 is_stmt 1 view .LVU550
 1702              		.loc 1 62 25 is_stmt 0 view .LVU551
 1703 00a6 0132     		adds	r2, r2, #1
 1704              		.loc 1 61 25 view .LVU552
 1705 00a8 1960     		str	r1, [r3]
 1706              		.loc 1 62 5 is_stmt 1 view .LVU553
 1707              		.loc 1 62 25 is_stmt 0 view .LVU554
ARM GAS  C:\Users\DEVELO~1\AppData\Local\Temp\ccUlh0tc.s 			page 31


 1708 00aa 9A60     		str	r2, [r3, #8]
 1709              		.loc 1 63 5 is_stmt 1 view .LVU555
 1710              	.LVL92:
 1711              		.loc 1 63 5 is_stmt 0 view .LVU556
 1712              	.LBE407:
 1713              	.LBE406:
 1714              		.loc 1 214 1 view .LVU557
 1715 00ac BDE8F883 		pop	{r3, r4, r5, r6, r7, r8, r9, pc}
 1716              	.LVL93:
 1717              	.L123:
 1718              	.LBB408:
 1719              	.LBB398:
 1720              	.LBB396:
 1721              	.LBI396:
 1722              		.loc 1 21 13 is_stmt 1 view .LVU558
 1723              	.LBB397:
 1724              		.loc 1 23 9 view .LVU559
 1725 00b0 FFF7FEFF 		bl	drv_sd_thread_start
 1726              	.LVL94:
 1727              		.loc 1 24 9 view .LVU560
 1728              		.loc 1 24 24 is_stmt 0 view .LVU561
 1729 00b4 0123     		movs	r3, #1
 1730              		.loc 1 25 20 view .LVU562
 1731 00b6 084A     		ldr	r2, .L125+16
 1732              		.loc 1 24 24 view .LVU563
 1733 00b8 89F80030 		strb	r3, [r9]
 1734              		.loc 1 25 9 is_stmt 1 view .LVU564
 1735              		.loc 1 25 20 is_stmt 0 view .LVU565
 1736 00bc 1370     		strb	r3, [r2]
 1737              	.LBE397:
 1738              	.LBE396:
 1739              	.LBE398:
 1740              	.LBE408:
 1741              		.loc 1 198 5 is_stmt 1 view .LVU566
 1742              	.LVL95:
 1743              	.LBB409:
 1744              		.loc 1 152 13 view .LVU567
 1745              	.LBB401:
 1746              		.loc 1 153 5 view .LVU568
 1747              		.loc 1 153 8 is_stmt 0 view .LVU569
 1748 00be 002C     		cmp	r4, #0
 1749 00c0 B8D1     		bne	.L124
 1750 00c2 E9E7     		b	.L108
 1751              	.LVL96:
 1752              	.L111:
 1753              		.loc 1 153 8 view .LVU570
 1754              	.LBE401:
 1755              	.LBE409:
 1756              		.loc 1 204 16 view .LVU571
 1757 00c4 0320     		movs	r0, #3
 1758              	.LVL97:
 1759              		.loc 1 204 16 view .LVU572
 1760 00c6 E5E7     		b	.L107
 1761              	.L126:
 1762              		.align	2
 1763              	.L125:
 1764 00c8 00000000 		.word	ch0
ARM GAS  C:\Users\DEVELO~1\AppData\Local\Temp\ccUlh0tc.s 			page 32


 1765 00cc 00000000 		.word	.LC0
 1766 00d0 00000000 		.word	.LANCHOR1
 1767 00d4 00000000 		.word	.LANCHOR0
 1768 00d8 00000000 		.word	.LANCHOR3
 1769 00dc 00000000 		.word	.LANCHOR2
 1770              		.cfi_endproc
 1771              	.LFE461:
 1772              		.size	drv_sd_save_pattern, .-drv_sd_save_pattern
 1773              		.section	.text.drv_sd_load_sample,"ax",%progbits
 1774              		.align	1
 1775              		.p2align 2,,3
 1776              		.global	drv_sd_load_sample
 1777              		.syntax unified
 1778              		.thumb
 1779              		.thumb_func
 1780              		.type	drv_sd_load_sample, %function
 1781              	drv_sd_load_sample:
 1782              	.LVL98:
 1783              	.LFB462:
 1784              		.loc 1 219 56 is_stmt 1 view -0
 1785              		.cfi_startproc
 1786              		@ args = 0, pretend = 0, frame = 0
 1787              		@ frame_needed = 0, uses_anonymous_args = 0
 1788              		.loc 1 220 5 view .LVU574
 1789              	.LBB438:
 1790              	.LBI438:
 1791              		.loc 1 29 13 view .LVU575
 1792              	.LBB439:
 1793              		.loc 1 30 5 view .LVU576
 1794              	.LBB440:
 1795              	.LBI440:
 1796              		.loc 3 205 31 view .LVU577
 1797              	.LBB441:
 1798              		.loc 3 207 3 view .LVU578
 1799              		.loc 3 209 3 view .LVU579
 1800              	.LBE441:
 1801              	.LBE440:
 1802              	.LBE439:
 1803              	.LBE438:
 1804              		.loc 1 219 56 is_stmt 0 view .LVU580
 1805 0000 2DE9F041 		push	{r4, r5, r6, r7, r8, lr}
 1806              		.cfi_def_cfa_offset 24
 1807              		.cfi_offset 4, -24
 1808              		.cfi_offset 5, -20
 1809              		.cfi_offset 6, -16
 1810              		.cfi_offset 7, -12
 1811              		.cfi_offset 8, -8
 1812              		.cfi_offset 14, -4
 1813              		.loc 1 219 56 view .LVU581
 1814 0004 0446     		mov	r4, r0
 1815              	.LBB455:
 1816              	.LBB454:
 1817              	.LBB443:
 1818              	.LBB442:
 1819              		.loc 3 209 3 view .LVU582
 1820              		.syntax unified
 1821              	@ 209 "./docs/ChibiOS/os/common/ext/ARM/CMSIS/Core/Include/cmsis_gcc.h" 1
ARM GAS  C:\Users\DEVELO~1\AppData\Local\Temp\ccUlh0tc.s 			page 33


 1822 0006 EFF30580 		MRS r0, ipsr
 1823              	@ 0 "" 2
 1824              	.LVL99:
 1825              		.loc 3 210 3 is_stmt 1 view .LVU583
 1826              		.loc 3 210 3 is_stmt 0 view .LVU584
 1827              		.thumb
 1828              		.syntax unified
 1829              	.LBE442:
 1830              	.LBE443:
 1831              		.loc 1 30 8 view .LVU585
 1832 000a 20BB     		cbnz	r0, .L128
 1833              	.LBB444:
 1834              	.LBI444:
 1835              		.loc 1 29 13 is_stmt 1 view .LVU586
 1836              	.LBB445:
 1837              		.loc 1 33 5 view .LVU587
 1838              	.LBB446:
 1839              	.LBI446:
 1840              		.loc 4 527 25 view .LVU588
 1841              	.LBB447:
 1842              		.loc 4 529 3 view .LVU589
 1843              	.LVL100:
 1844              		.loc 4 529 3 is_stmt 0 view .LVU590
 1845              	.LBE447:
 1846              	.LBE446:
 1847              	.LBB449:
 1848              	.LBI449:
 1849              		.loc 5 186 27 is_stmt 1 view .LVU591
 1850              	.LBB450:
 1851              		.loc 5 189 3 view .LVU592
 1852 000c 1D46     		mov	r5, r3
 1853              	.LBE450:
 1854              	.LBE449:
 1855              	.LBB452:
 1856              	.LBB448:
 1857              		.loc 4 529 10 is_stmt 0 view .LVU593
 1858 000e 254B     		ldr	r3, .L150
 1859              	.LVL101:
 1860              		.loc 4 529 10 view .LVU594
 1861 0010 0F46     		mov	r7, r1
 1862 0012 1646     		mov	r6, r2
 1863              	.LBE448:
 1864              	.LBE452:
 1865              	.LBB453:
 1866              	.LBB451:
 1867              		.loc 5 189 12 view .LVU595
 1868 0014 DB68     		ldr	r3, [r3, #12]
 1869 0016 186A     		ldr	r0, [r3, #32]
 1870              	.LVL102:
 1871              		.loc 5 189 12 view .LVU596
 1872              	.LBE451:
 1873              	.LBE453:
 1874              		.loc 1 34 5 is_stmt 1 view .LVU597
 1875              		.loc 1 34 8 is_stmt 0 view .LVU598
 1876 0018 18B1     		cbz	r0, .L129
 1877              		.loc 1 34 25 view .LVU599
 1878 001a 2349     		ldr	r1, .L150+4
ARM GAS  C:\Users\DEVELO~1\AppData\Local\Temp\ccUlh0tc.s 			page 34


 1879              	.LVL103:
 1880              		.loc 1 34 25 view .LVU600
 1881 001c FFF7FEFF 		bl	strcmp
 1882              	.LVL104:
 1883              		.loc 1 34 22 view .LVU601
 1884 0020 C8B1     		cbz	r0, .L128
 1885              	.L129:
 1886              		.loc 1 37 5 is_stmt 1 view .LVU602
 1887              		.loc 1 37 5 is_stmt 0 view .LVU603
 1888              	.LBE445:
 1889              	.LBE444:
 1890              	.LBE454:
 1891              	.LBE455:
 1892              		.loc 1 224 5 is_stmt 1 view .LVU604
 1893              	.LBB456:
 1894              	.LBI456:
 1895              		.loc 1 21 13 view .LVU605
 1896              	.LBB457:
 1897              		.loc 1 22 5 view .LVU606
 1898              		.loc 1 22 9 is_stmt 0 view .LVU607
 1899 0022 DFF89480 		ldr	r8, .L150+20
 1900              		.loc 1 22 8 view .LVU608
 1901 0026 98F80030 		ldrb	r3, [r8]	@ zero_extendqisi2
 1902 002a 7BB3     		cbz	r3, .L148
 1903              	.LBE457:
 1904              	.LBE456:
 1905              		.loc 1 225 5 is_stmt 1 view .LVU609
 1906              	.LVL105:
 1907              	.LBB461:
 1908              	.LBI461:
 1909              		.loc 1 152 13 view .LVU610
 1910              	.LBB462:
 1911              		.loc 1 153 5 view .LVU611
 1912              		.loc 1 153 8 is_stmt 0 view .LVU612
 1913 002c 14B3     		cbz	r4, .L133
 1914              	.L149:
 1915              		.loc 1 156 5 is_stmt 1 view .LVU613
 1916              		.loc 1 156 12 is_stmt 0 view .LVU614
 1917 002e 2046     		mov	r0, r4
 1918 0030 FFF7FEFF 		bl	strlen
 1919              	.LVL106:
 1920              		.loc 1 156 12 view .LVU615
 1921              	.LBE462:
 1922              	.LBE461:
 1923              		.loc 1 225 8 view .LVU616
 1924 0034 3F28     		cmp	r0, #63
 1925 0036 1DD8     		bhi	.L133
 1926              		.loc 1 225 58 discriminator 1 view .LVU617
 1927 0038 E7B1     		cbz	r7, .L133
 1928 003a DEB1     		cbz	r6, .L133
 1929              		.loc 1 229 5 is_stmt 1 view .LVU618
 1930              		.loc 1 229 25 is_stmt 0 view .LVU619
 1931 003c FFF7FEFF 		bl	drv_sd_thread_alloc
 1932              	.LVL107:
 1933              		.loc 1 230 5 is_stmt 1 view .LVU620
 1934              		.loc 1 230 8 is_stmt 0 view .LVU621
 1935 0040 70B3     		cbz	r0, .L136
ARM GAS  C:\Users\DEVELO~1\AppData\Local\Temp\ccUlh0tc.s 			page 35


 1936              		.loc 1 233 5 is_stmt 1 view .LVU622
 1937              		.loc 1 233 15 is_stmt 0 view .LVU623
 1938 0042 0522     		movs	r2, #5
 1939              		.loc 1 235 31 view .LVU624
 1940 0044 C0E90547 		strd	r4, r7, [r0, #20]
 1941              		.loc 1 237 36 view .LVU625
 1942 0048 C0E90765 		strd	r6, r5, [r0, #28]
 1943              		.loc 1 233 15 view .LVU626
 1944 004c 0270     		strb	r2, [r0]
 1945              		.loc 1 234 5 is_stmt 1 view .LVU627
 1946              		.loc 1 235 5 view .LVU628
 1947              		.loc 1 236 5 view .LVU629
 1948              		.loc 1 237 5 view .LVU630
 1949              		.loc 1 238 5 view .LVU631
 1950              		.loc 1 239 1 is_stmt 0 view .LVU632
 1951 004e BDE8F041 		pop	{r4, r5, r6, r7, r8, lr}
 1952              		.cfi_remember_state
 1953              		.cfi_restore 14
 1954              		.cfi_restore 8
 1955              		.cfi_restore 7
 1956              		.cfi_restore 6
 1957              		.cfi_restore 5
 1958              		.cfi_restore 4
 1959              		.cfi_def_cfa_offset 0
 1960              	.LVL108:
 1961              		.loc 1 238 12 view .LVU633
 1962 0052 FFF7FEBF 		b	sd_submit_request
 1963              	.LVL109:
 1964              	.L128:
 1965              		.cfi_restore_state
 1966              		.loc 1 221 9 is_stmt 1 view .LVU634
 1967              	.LBB464:
 1968              	.LBI464:
 1969              		.loc 1 59 13 view .LVU635
 1970              	.LBB465:
 1971              		.loc 1 60 5 view .LVU636
 1972              		.loc 1 61 25 is_stmt 0 view .LVU637
 1973 0056 154B     		ldr	r3, .L150+8
 1974              		.loc 1 60 21 view .LVU638
 1975 0058 0C20     		movs	r0, #12
 1976 005a 154C     		ldr	r4, .L150+12
 1977              	.LVL110:
 1978              		.loc 1 61 25 view .LVU639
 1979 005c 1968     		ldr	r1, [r3]
 1980              		.loc 1 62 25 view .LVU640
 1981 005e 9A68     		ldr	r2, [r3, #8]
 1982              		.loc 1 60 21 view .LVU641
 1983 0060 2070     		strb	r0, [r4]
 1984              		.loc 1 61 5 is_stmt 1 view .LVU642
 1985              		.loc 1 61 25 is_stmt 0 view .LVU643
 1986 0062 4C1C     		adds	r4, r1, #1
 1987              		.loc 1 62 25 view .LVU644
 1988 0064 511C     		adds	r1, r2, #1
 1989              		.loc 1 64 48 view .LVU645
 1990 0066 5A6B     		ldr	r2, [r3, #52]
 1991              		.loc 1 61 25 view .LVU646
 1992 0068 1C60     		str	r4, [r3]
ARM GAS  C:\Users\DEVELO~1\AppData\Local\Temp\ccUlh0tc.s 			page 36


 1993              		.loc 1 62 5 is_stmt 1 view .LVU647
 1994              		.loc 1 64 48 is_stmt 0 view .LVU648
 1995 006a 0132     		adds	r2, r2, #1
 1996              		.loc 1 62 25 view .LVU649
 1997 006c 9960     		str	r1, [r3, #8]
 1998              		.loc 1 63 5 is_stmt 1 view .LVU650
 1999              		.loc 1 64 26 view .LVU651
 2000              		.loc 1 64 48 is_stmt 0 view .LVU652
 2001 006e 5A63     		str	r2, [r3, #52]
 2002              		.loc 1 64 52 is_stmt 1 view .LVU653
 2003              	.LVL111:
 2004              	.L132:
 2005              		.loc 1 64 52 is_stmt 0 view .LVU654
 2006              	.LBE465:
 2007              	.LBE464:
 2008              		.loc 1 239 1 view .LVU655
 2009 0070 BDE8F081 		pop	{r4, r5, r6, r7, r8, pc}
 2010              	.LVL112:
 2011              	.L133:
 2012              		.loc 1 226 9 is_stmt 1 view .LVU656
 2013              	.LBB466:
 2014              	.LBI466:
 2015              		.loc 1 59 13 view .LVU657
 2016              	.LBB467:
 2017              		.loc 1 60 5 view .LVU658
 2018              		.loc 1 61 25 is_stmt 0 view .LVU659
 2019 0074 0D4B     		ldr	r3, .L150+8
 2020              		.loc 1 60 21 view .LVU660
 2021 0076 0720     		movs	r0, #7
 2022 0078 0D4C     		ldr	r4, .L150+12
 2023              	.LVL113:
 2024              		.loc 1 61 25 view .LVU661
 2025 007a 1968     		ldr	r1, [r3]
 2026              		.loc 1 62 25 view .LVU662
 2027 007c 9A68     		ldr	r2, [r3, #8]
 2028              		.loc 1 61 25 view .LVU663
 2029 007e 0131     		adds	r1, r1, #1
 2030              		.loc 1 60 21 view .LVU664
 2031 0080 2070     		strb	r0, [r4]
 2032              		.loc 1 61 5 is_stmt 1 view .LVU665
 2033              		.loc 1 62 25 is_stmt 0 view .LVU666
 2034 0082 0132     		adds	r2, r2, #1
 2035              		.loc 1 61 25 view .LVU667
 2036 0084 1960     		str	r1, [r3]
 2037              		.loc 1 62 5 is_stmt 1 view .LVU668
 2038              		.loc 1 62 25 is_stmt 0 view .LVU669
 2039 0086 9A60     		str	r2, [r3, #8]
 2040              		.loc 1 63 5 is_stmt 1 view .LVU670
 2041              	.LVL114:
 2042              		.loc 1 63 5 is_stmt 0 view .LVU671
 2043              	.LBE467:
 2044              	.LBE466:
 2045              		.loc 1 239 1 view .LVU672
 2046 0088 BDE8F081 		pop	{r4, r5, r6, r7, r8, pc}
 2047              	.LVL115:
 2048              	.L148:
 2049              	.LBB468:
ARM GAS  C:\Users\DEVELO~1\AppData\Local\Temp\ccUlh0tc.s 			page 37


 2050              	.LBB460:
 2051              	.LBB458:
 2052              	.LBI458:
 2053              		.loc 1 21 13 is_stmt 1 view .LVU673
 2054              	.LBB459:
 2055              		.loc 1 23 9 view .LVU674
 2056 008c FFF7FEFF 		bl	drv_sd_thread_start
 2057              	.LVL116:
 2058              		.loc 1 24 9 view .LVU675
 2059              		.loc 1 24 24 is_stmt 0 view .LVU676
 2060 0090 0123     		movs	r3, #1
 2061              		.loc 1 25 20 view .LVU677
 2062 0092 084A     		ldr	r2, .L150+16
 2063              		.loc 1 24 24 view .LVU678
 2064 0094 88F80030 		strb	r3, [r8]
 2065              		.loc 1 25 9 is_stmt 1 view .LVU679
 2066              		.loc 1 25 20 is_stmt 0 view .LVU680
 2067 0098 1370     		strb	r3, [r2]
 2068              	.LBE459:
 2069              	.LBE458:
 2070              	.LBE460:
 2071              	.LBE468:
 2072              		.loc 1 225 5 is_stmt 1 view .LVU681
 2073              	.LVL117:
 2074              	.LBB469:
 2075              		.loc 1 152 13 view .LVU682
 2076              	.LBB463:
 2077              		.loc 1 153 5 view .LVU683
 2078              		.loc 1 153 8 is_stmt 0 view .LVU684
 2079 009a 002C     		cmp	r4, #0
 2080 009c C7D1     		bne	.L149
 2081 009e E9E7     		b	.L133
 2082              	.LVL118:
 2083              	.L136:
 2084              		.loc 1 153 8 view .LVU685
 2085              	.LBE463:
 2086              	.LBE469:
 2087              		.loc 1 231 16 view .LVU686
 2088 00a0 0320     		movs	r0, #3
 2089              	.LVL119:
 2090              		.loc 1 231 16 view .LVU687
 2091 00a2 E5E7     		b	.L132
 2092              	.L151:
 2093              		.align	2
 2094              	.L150:
 2095 00a4 00000000 		.word	ch0
 2096 00a8 00000000 		.word	.LC0
 2097 00ac 00000000 		.word	.LANCHOR1
 2098 00b0 00000000 		.word	.LANCHOR0
 2099 00b4 00000000 		.word	.LANCHOR3
 2100 00b8 00000000 		.word	.LANCHOR2
 2101              		.cfi_endproc
 2102              	.LFE462:
 2103              		.size	drv_sd_load_sample, .-drv_sd_load_sample
 2104              		.section	.text.drv_sd_list_projects,"ax",%progbits
 2105              		.align	1
 2106              		.p2align 2,,3
ARM GAS  C:\Users\DEVELO~1\AppData\Local\Temp\ccUlh0tc.s 			page 38


 2107              		.global	drv_sd_list_projects
 2108              		.syntax unified
 2109              		.thumb
 2110              		.thumb_func
 2111              		.type	drv_sd_list_projects, %function
 2112              	drv_sd_list_projects:
 2113              	.LVL120:
 2114              	.LFB463:
 2115              		.loc 1 243 49 is_stmt 1 view -0
 2116              		.cfi_startproc
 2117              		@ args = 0, pretend = 0, frame = 0
 2118              		@ frame_needed = 0, uses_anonymous_args = 0
 2119              		.loc 1 244 5 view .LVU689
 2120              	.LBB496:
 2121              	.LBI496:
 2122              		.loc 1 29 13 view .LVU690
 2123              	.LBB497:
 2124              		.loc 1 30 5 view .LVU691
 2125              	.LBB498:
 2126              	.LBI498:
 2127              		.loc 3 205 31 view .LVU692
 2128              	.LBB499:
 2129              		.loc 3 207 3 view .LVU693
 2130              		.loc 3 209 3 view .LVU694
 2131              	.LBE499:
 2132              	.LBE498:
 2133              	.LBE497:
 2134              	.LBE496:
 2135              		.loc 1 243 49 is_stmt 0 view .LVU695
 2136 0000 F8B5     		push	{r3, r4, r5, r6, r7, lr}
 2137              		.cfi_def_cfa_offset 24
 2138              		.cfi_offset 3, -24
 2139              		.cfi_offset 4, -20
 2140              		.cfi_offset 5, -16
 2141              		.cfi_offset 6, -12
 2142              		.cfi_offset 7, -8
 2143              		.cfi_offset 14, -4
 2144              	.LBB513:
 2145              	.LBB512:
 2146              	.LBB501:
 2147              	.LBB500:
 2148              		.loc 3 209 3 view .LVU696
 2149              		.syntax unified
 2150              	@ 209 "./docs/ChibiOS/os/common/ext/ARM/CMSIS/Core/Include/cmsis_gcc.h" 1
 2151 0002 EFF30583 		MRS r3, ipsr
 2152              	@ 0 "" 2
 2153              	.LVL121:
 2154              		.loc 3 210 3 is_stmt 1 view .LVU697
 2155              		.loc 3 210 3 is_stmt 0 view .LVU698
 2156              		.thumb
 2157              		.syntax unified
 2158              	.LBE500:
 2159              	.LBE501:
 2160              		.loc 1 30 8 view .LVU699
 2161 0006 F3B9     		cbnz	r3, .L153
 2162              	.LBB502:
 2163              	.LBI502:
ARM GAS  C:\Users\DEVELO~1\AppData\Local\Temp\ccUlh0tc.s 			page 39


 2164              		.loc 1 29 13 is_stmt 1 view .LVU700
 2165              	.LBB503:
 2166              		.loc 1 33 5 view .LVU701
 2167              	.LBB504:
 2168              	.LBI504:
 2169              		.loc 4 527 25 view .LVU702
 2170              	.LBB505:
 2171              		.loc 4 529 3 view .LVU703
 2172              	.LVL122:
 2173              		.loc 4 529 3 is_stmt 0 view .LVU704
 2174              	.LBE505:
 2175              	.LBE504:
 2176              	.LBB507:
 2177              	.LBI507:
 2178              		.loc 5 186 27 is_stmt 1 view .LVU705
 2179              	.LBB508:
 2180              		.loc 5 189 3 view .LVU706
 2181              	.LBE508:
 2182              	.LBE507:
 2183              	.LBB510:
 2184              	.LBB506:
 2185              		.loc 4 529 10 is_stmt 0 view .LVU707
 2186 0008 224B     		ldr	r3, .L172
 2187 000a 0646     		mov	r6, r0
 2188 000c 0D46     		mov	r5, r1
 2189 000e 1446     		mov	r4, r2
 2190              	.LBE506:
 2191              	.LBE510:
 2192              	.LBB511:
 2193              	.LBB509:
 2194              		.loc 5 189 12 view .LVU708
 2195 0010 DB68     		ldr	r3, [r3, #12]
 2196 0012 186A     		ldr	r0, [r3, #32]
 2197              	.LVL123:
 2198              		.loc 5 189 12 view .LVU709
 2199              	.LBE509:
 2200              	.LBE511:
 2201              		.loc 1 34 5 is_stmt 1 view .LVU710
 2202              		.loc 1 34 8 is_stmt 0 view .LVU711
 2203 0014 18B1     		cbz	r0, .L154
 2204              		.loc 1 34 25 view .LVU712
 2205 0016 2049     		ldr	r1, .L172+4
 2206              	.LVL124:
 2207              		.loc 1 34 25 view .LVU713
 2208 0018 FFF7FEFF 		bl	strcmp
 2209              	.LVL125:
 2210              		.loc 1 34 22 view .LVU714
 2211 001c 98B1     		cbz	r0, .L153
 2212              	.L154:
 2213              		.loc 1 37 5 is_stmt 1 view .LVU715
 2214              		.loc 1 37 5 is_stmt 0 view .LVU716
 2215              	.LBE503:
 2216              	.LBE502:
 2217              	.LBE512:
 2218              	.LBE513:
 2219              		.loc 1 248 5 is_stmt 1 view .LVU717
 2220              	.LBB514:
ARM GAS  C:\Users\DEVELO~1\AppData\Local\Temp\ccUlh0tc.s 			page 40


 2221              	.LBI514:
 2222              		.loc 1 21 13 view .LVU718
 2223              	.LBB515:
 2224              		.loc 1 22 5 view .LVU719
 2225              		.loc 1 22 9 is_stmt 0 view .LVU720
 2226 001e 1F4F     		ldr	r7, .L172+8
 2227              		.loc 1 22 8 view .LVU721
 2228 0020 3B78     		ldrb	r3, [r7]	@ zero_extendqisi2
 2229 0022 4BB3     		cbz	r3, .L170
 2230              	.LBE515:
 2231              	.LBE514:
 2232              		.loc 1 249 5 is_stmt 1 view .LVU722
 2233              		.loc 1 249 44 is_stmt 0 view .LVU723
 2234 0024 002D     		cmp	r5, #0
 2235 0026 18BF     		it	ne
 2236 0028 002C     		cmpne	r4, #0
 2237 002a 1AD0     		beq	.L161
 2238              	.L171:
 2239              		.loc 1 249 44 view .LVU724
 2240 002c CEB1     		cbz	r6, .L161
 2241              		.loc 1 253 5 is_stmt 1 view .LVU725
 2242              		.loc 1 253 25 is_stmt 0 view .LVU726
 2243 002e FFF7FEFF 		bl	drv_sd_thread_alloc
 2244              	.LVL126:
 2245              		.loc 1 254 5 is_stmt 1 view .LVU727
 2246              		.loc 1 254 8 is_stmt 0 view .LVU728
 2247 0032 60B3     		cbz	r0, .L160
 2248              		.loc 1 257 5 is_stmt 1 view .LVU729
 2249              		.loc 1 257 15 is_stmt 0 view .LVU730
 2250 0034 0622     		movs	r2, #6
 2251              		.loc 1 260 29 view .LVU731
 2252 0036 C461     		str	r4, [r0, #28]
 2253              		.loc 1 259 35 view .LVU732
 2254 0038 C0E90565 		strd	r6, r5, [r0, #20]
 2255              		.loc 1 257 15 view .LVU733
 2256 003c 0270     		strb	r2, [r0]
 2257              		.loc 1 258 5 is_stmt 1 view .LVU734
 2258              		.loc 1 259 5 view .LVU735
 2259              		.loc 1 260 5 view .LVU736
 2260              		.loc 1 261 5 view .LVU737
 2261              		.loc 1 262 1 is_stmt 0 view .LVU738
 2262 003e BDE8F840 		pop	{r3, r4, r5, r6, r7, lr}
 2263              		.cfi_remember_state
 2264              		.cfi_restore 14
 2265              		.cfi_restore 7
 2266              		.cfi_restore 6
 2267              		.cfi_restore 5
 2268              		.cfi_restore 4
 2269              		.cfi_restore 3
 2270              		.cfi_def_cfa_offset 0
 2271              	.LVL127:
 2272              		.loc 1 261 12 view .LVU739
 2273 0042 FFF7FEBF 		b	sd_submit_request
 2274              	.LVL128:
 2275              	.L153:
 2276              		.cfi_restore_state
 2277              		.loc 1 245 9 is_stmt 1 view .LVU740
ARM GAS  C:\Users\DEVELO~1\AppData\Local\Temp\ccUlh0tc.s 			page 41


 2278              	.LBB522:
 2279              	.LBI522:
 2280              		.loc 1 59 13 view .LVU741
 2281              	.LBB523:
 2282              		.loc 1 60 5 view .LVU742
 2283              		.loc 1 61 25 is_stmt 0 view .LVU743
 2284 0046 164B     		ldr	r3, .L172+12
 2285              		.loc 1 60 21 view .LVU744
 2286 0048 0C20     		movs	r0, #12
 2287 004a 164C     		ldr	r4, .L172+16
 2288              		.loc 1 61 25 view .LVU745
 2289 004c 1968     		ldr	r1, [r3]
 2290              		.loc 1 62 25 view .LVU746
 2291 004e 9A68     		ldr	r2, [r3, #8]
 2292              		.loc 1 60 21 view .LVU747
 2293 0050 2070     		strb	r0, [r4]
 2294              		.loc 1 61 5 is_stmt 1 view .LVU748
 2295              		.loc 1 61 25 is_stmt 0 view .LVU749
 2296 0052 4C1C     		adds	r4, r1, #1
 2297              		.loc 1 62 25 view .LVU750
 2298 0054 511C     		adds	r1, r2, #1
 2299              		.loc 1 64 48 view .LVU751
 2300 0056 5A6B     		ldr	r2, [r3, #52]
 2301              		.loc 1 61 25 view .LVU752
 2302 0058 1C60     		str	r4, [r3]
 2303              		.loc 1 62 5 is_stmt 1 view .LVU753
 2304              		.loc 1 64 48 is_stmt 0 view .LVU754
 2305 005a 0132     		adds	r2, r2, #1
 2306              		.loc 1 62 25 view .LVU755
 2307 005c 9960     		str	r1, [r3, #8]
 2308              		.loc 1 63 5 is_stmt 1 view .LVU756
 2309              		.loc 1 64 26 view .LVU757
 2310              		.loc 1 64 48 is_stmt 0 view .LVU758
 2311 005e 5A63     		str	r2, [r3, #52]
 2312              		.loc 1 64 52 is_stmt 1 view .LVU759
 2313              	.LVL129:
 2314              		.loc 1 64 52 is_stmt 0 view .LVU760
 2315              	.LBE523:
 2316              	.LBE522:
 2317              		.loc 1 262 1 view .LVU761
 2318 0060 F8BD     		pop	{r3, r4, r5, r6, r7, pc}
 2319              	.LVL130:
 2320              	.L161:
 2321              		.loc 1 250 9 is_stmt 1 view .LVU762
 2322              	.LBB524:
 2323              	.LBI524:
 2324              		.loc 1 59 13 view .LVU763
 2325              	.LBB525:
 2326              		.loc 1 60 5 view .LVU764
 2327              		.loc 1 61 25 is_stmt 0 view .LVU765
 2328 0062 0F4B     		ldr	r3, .L172+12
 2329              		.loc 1 60 21 view .LVU766
 2330 0064 0720     		movs	r0, #7
 2331 0066 0F4C     		ldr	r4, .L172+16
 2332              	.LVL131:
 2333              		.loc 1 61 25 view .LVU767
 2334 0068 1968     		ldr	r1, [r3]
ARM GAS  C:\Users\DEVELO~1\AppData\Local\Temp\ccUlh0tc.s 			page 42


 2335              		.loc 1 62 25 view .LVU768
 2336 006a 9A68     		ldr	r2, [r3, #8]
 2337              		.loc 1 61 25 view .LVU769
 2338 006c 0131     		adds	r1, r1, #1
 2339              		.loc 1 60 21 view .LVU770
 2340 006e 2070     		strb	r0, [r4]
 2341              		.loc 1 61 5 is_stmt 1 view .LVU771
 2342              		.loc 1 62 25 is_stmt 0 view .LVU772
 2343 0070 0132     		adds	r2, r2, #1
 2344              		.loc 1 61 25 view .LVU773
 2345 0072 1960     		str	r1, [r3]
 2346              		.loc 1 62 5 is_stmt 1 view .LVU774
 2347              		.loc 1 62 25 is_stmt 0 view .LVU775
 2348 0074 9A60     		str	r2, [r3, #8]
 2349              		.loc 1 63 5 is_stmt 1 view .LVU776
 2350              	.LVL132:
 2351              		.loc 1 63 5 is_stmt 0 view .LVU777
 2352              	.LBE525:
 2353              	.LBE524:
 2354              		.loc 1 262 1 view .LVU778
 2355 0076 F8BD     		pop	{r3, r4, r5, r6, r7, pc}
 2356              	.LVL133:
 2357              	.L170:
 2358              	.LBB526:
 2359              	.LBB520:
 2360              	.LBB516:
 2361              	.LBI516:
 2362              		.loc 1 21 13 is_stmt 1 view .LVU779
 2363              	.LBB517:
 2364              		.loc 1 23 9 view .LVU780
 2365 0078 FFF7FEFF 		bl	drv_sd_thread_start
 2366              	.LVL134:
 2367              		.loc 1 24 9 view .LVU781
 2368              		.loc 1 24 24 is_stmt 0 view .LVU782
 2369 007c 0123     		movs	r3, #1
 2370              		.loc 1 25 20 view .LVU783
 2371 007e 0A4A     		ldr	r2, .L172+20
 2372              	.LBE517:
 2373              	.LBE516:
 2374              	.LBE520:
 2375              	.LBE526:
 2376              		.loc 1 249 44 view .LVU784
 2377 0080 002D     		cmp	r5, #0
 2378 0082 18BF     		it	ne
 2379 0084 002C     		cmpne	r4, #0
 2380              	.LBB527:
 2381              	.LBB521:
 2382              	.LBB519:
 2383              	.LBB518:
 2384              		.loc 1 24 24 view .LVU785
 2385 0086 3B70     		strb	r3, [r7]
 2386              		.loc 1 25 9 is_stmt 1 view .LVU786
 2387              		.loc 1 25 20 is_stmt 0 view .LVU787
 2388 0088 1370     		strb	r3, [r2]
 2389              	.LBE518:
 2390              	.LBE519:
 2391              	.LBE521:
ARM GAS  C:\Users\DEVELO~1\AppData\Local\Temp\ccUlh0tc.s 			page 43


 2392              	.LBE527:
 2393              		.loc 1 249 5 is_stmt 1 view .LVU788
 2394              		.loc 1 249 44 is_stmt 0 view .LVU789
 2395 008a CFD1     		bne	.L171
 2396 008c E9E7     		b	.L161
 2397              	.LVL135:
 2398              	.L160:
 2399              		.loc 1 255 16 view .LVU790
 2400 008e 0320     		movs	r0, #3
 2401              	.LVL136:
 2402              		.loc 1 262 1 view .LVU791
 2403 0090 F8BD     		pop	{r3, r4, r5, r6, r7, pc}
 2404              	.LVL137:
 2405              	.L173:
 2406              		.loc 1 262 1 view .LVU792
 2407 0092 00BF     		.align	2
 2408              	.L172:
 2409 0094 00000000 		.word	ch0
 2410 0098 00000000 		.word	.LC0
 2411 009c 00000000 		.word	.LANCHOR2
 2412 00a0 00000000 		.word	.LANCHOR1
 2413 00a4 00000000 		.word	.LANCHOR0
 2414 00a8 00000000 		.word	.LANCHOR3
 2415              		.cfi_endproc
 2416              	.LFE463:
 2417              		.size	drv_sd_list_projects, .-drv_sd_list_projects
 2418              		.section	.text.drv_sd_get_stats,"ax",%progbits
 2419              		.align	1
 2420              		.p2align 2,,3
 2421              		.global	drv_sd_get_stats
 2422              		.syntax unified
 2423              		.thumb
 2424              		.thumb_func
 2425              		.type	drv_sd_get_stats, %function
 2426              	drv_sd_get_stats:
 2427              	.LVL138:
 2428              	.LFB464:
 2429              		.loc 1 264 52 is_stmt 1 view -0
 2430              		.cfi_startproc
 2431              		@ args = 0, pretend = 0, frame = 0
 2432              		@ frame_needed = 0, uses_anonymous_args = 0
 2433              		.loc 1 265 5 view .LVU794
 2434              	.LBB554:
 2435              	.LBI554:
 2436              		.loc 1 29 13 view .LVU795
 2437              	.LBB555:
 2438              		.loc 1 30 5 view .LVU796
 2439              	.LBB556:
 2440              	.LBI556:
 2441              		.loc 3 205 31 view .LVU797
 2442              	.LBB557:
 2443              		.loc 3 207 3 view .LVU798
 2444              		.loc 3 209 3 view .LVU799
 2445              	.LBE557:
 2446              	.LBE556:
 2447              	.LBE555:
 2448              	.LBE554:
ARM GAS  C:\Users\DEVELO~1\AppData\Local\Temp\ccUlh0tc.s 			page 44


 2449              		.loc 1 264 52 is_stmt 0 view .LVU800
 2450 0000 38B5     		push	{r3, r4, r5, lr}
 2451              		.cfi_def_cfa_offset 16
 2452              		.cfi_offset 3, -16
 2453              		.cfi_offset 4, -12
 2454              		.cfi_offset 5, -8
 2455              		.cfi_offset 14, -4
 2456              	.LBB571:
 2457              	.LBB570:
 2458              	.LBB559:
 2459              	.LBB558:
 2460              		.loc 3 209 3 view .LVU801
 2461              		.syntax unified
 2462              	@ 209 "./docs/ChibiOS/os/common/ext/ARM/CMSIS/Core/Include/cmsis_gcc.h" 1
 2463 0002 EFF30583 		MRS r3, ipsr
 2464              	@ 0 "" 2
 2465              	.LVL139:
 2466              		.loc 3 210 3 is_stmt 1 view .LVU802
 2467              		.loc 3 210 3 is_stmt 0 view .LVU803
 2468              		.thumb
 2469              		.syntax unified
 2470              	.LBE558:
 2471              	.LBE559:
 2472              		.loc 1 30 8 view .LVU804
 2473 0006 B3B9     		cbnz	r3, .L175
 2474              	.LBB560:
 2475              	.LBI560:
 2476              		.loc 1 29 13 is_stmt 1 view .LVU805
 2477              	.LBB561:
 2478              		.loc 1 33 5 view .LVU806
 2479              	.LBB562:
 2480              	.LBI562:
 2481              		.loc 4 527 25 view .LVU807
 2482              	.LBB563:
 2483              		.loc 4 529 3 view .LVU808
 2484              	.LVL140:
 2485              		.loc 4 529 3 is_stmt 0 view .LVU809
 2486              	.LBE563:
 2487              	.LBE562:
 2488              	.LBB565:
 2489              	.LBI565:
 2490              		.loc 5 186 27 is_stmt 1 view .LVU810
 2491              	.LBB566:
 2492              		.loc 5 189 3 view .LVU811
 2493              	.LBE566:
 2494              	.LBE565:
 2495              	.LBB568:
 2496              	.LBB564:
 2497              		.loc 4 529 10 is_stmt 0 view .LVU812
 2498 0008 1C4B     		ldr	r3, .L192
 2499 000a 0446     		mov	r4, r0
 2500              	.LBE564:
 2501              	.LBE568:
 2502              	.LBB569:
 2503              	.LBB567:
 2504              		.loc 5 189 12 view .LVU813
 2505 000c DB68     		ldr	r3, [r3, #12]
ARM GAS  C:\Users\DEVELO~1\AppData\Local\Temp\ccUlh0tc.s 			page 45


 2506 000e 186A     		ldr	r0, [r3, #32]
 2507              	.LVL141:
 2508              		.loc 5 189 12 view .LVU814
 2509              	.LBE567:
 2510              	.LBE569:
 2511              		.loc 1 34 5 is_stmt 1 view .LVU815
 2512              		.loc 1 34 8 is_stmt 0 view .LVU816
 2513 0010 18B1     		cbz	r0, .L176
 2514              		.loc 1 34 25 view .LVU817
 2515 0012 1B49     		ldr	r1, .L192+4
 2516 0014 FFF7FEFF 		bl	strcmp
 2517              	.LVL142:
 2518              		.loc 1 34 22 view .LVU818
 2519 0018 68B1     		cbz	r0, .L175
 2520              	.L176:
 2521              		.loc 1 37 5 is_stmt 1 view .LVU819
 2522              		.loc 1 37 5 is_stmt 0 view .LVU820
 2523              	.LBE561:
 2524              	.LBE560:
 2525              	.LBE570:
 2526              	.LBE571:
 2527              		.loc 1 269 5 is_stmt 1 view .LVU821
 2528              	.LBB572:
 2529              	.LBI572:
 2530              		.loc 1 21 13 view .LVU822
 2531              	.LBB573:
 2532              		.loc 1 22 5 view .LVU823
 2533              		.loc 1 22 9 is_stmt 0 view .LVU824
 2534 001a 1A4D     		ldr	r5, .L192+8
 2535              		.loc 1 22 8 view .LVU825
 2536 001c 2B78     		ldrb	r3, [r5]	@ zero_extendqisi2
 2537 001e C3B1     		cbz	r3, .L190
 2538              	.LBE573:
 2539              	.LBE572:
 2540              		.loc 1 270 5 is_stmt 1 view .LVU826
 2541              		.loc 1 270 8 is_stmt 0 view .LVU827
 2542 0020 FCB1     		cbz	r4, .L191
 2543              	.L180:
 2544              		.loc 1 274 5 is_stmt 1 view .LVU828
 2545              		.loc 1 274 25 is_stmt 0 view .LVU829
 2546 0022 FFF7FEFF 		bl	drv_sd_thread_alloc
 2547              	.LVL143:
 2548              		.loc 1 275 5 is_stmt 1 view .LVU830
 2549              		.loc 1 275 8 is_stmt 0 view .LVU831
 2550 0026 38B3     		cbz	r0, .L181
 2551              		.loc 1 278 5 is_stmt 1 view .LVU832
 2552              		.loc 1 278 15 is_stmt 0 view .LVU833
 2553 0028 0722     		movs	r2, #7
 2554              		.loc 1 279 29 view .LVU834
 2555 002a 4461     		str	r4, [r0, #20]
 2556              		.loc 1 278 15 view .LVU835
 2557 002c 0270     		strb	r2, [r0]
 2558              		.loc 1 279 5 is_stmt 1 view .LVU836
 2559              		.loc 1 280 5 view .LVU837
 2560              		.loc 1 281 1 is_stmt 0 view .LVU838
 2561 002e BDE83840 		pop	{r3, r4, r5, lr}
 2562              		.cfi_remember_state
ARM GAS  C:\Users\DEVELO~1\AppData\Local\Temp\ccUlh0tc.s 			page 46


 2563              		.cfi_restore 14
 2564              		.cfi_restore 5
 2565              		.cfi_restore 4
 2566              		.cfi_restore 3
 2567              		.cfi_def_cfa_offset 0
 2568              	.LVL144:
 2569              		.loc 1 280 12 view .LVU839
 2570 0032 FFF7FEBF 		b	sd_submit_request
 2571              	.LVL145:
 2572              	.L175:
 2573              		.cfi_restore_state
 2574              		.loc 1 266 9 is_stmt 1 view .LVU840
 2575              	.LBB577:
 2576              	.LBI577:
 2577              		.loc 1 59 13 view .LVU841
 2578              	.LBB578:
 2579              		.loc 1 60 5 view .LVU842
 2580              		.loc 1 61 25 is_stmt 0 view .LVU843
 2581 0036 144B     		ldr	r3, .L192+12
 2582              		.loc 1 60 21 view .LVU844
 2583 0038 0C20     		movs	r0, #12
 2584 003a 144C     		ldr	r4, .L192+16
 2585              		.loc 1 61 25 view .LVU845
 2586 003c 1968     		ldr	r1, [r3]
 2587              		.loc 1 62 25 view .LVU846
 2588 003e 9A68     		ldr	r2, [r3, #8]
 2589              		.loc 1 60 21 view .LVU847
 2590 0040 2070     		strb	r0, [r4]
 2591              		.loc 1 61 5 is_stmt 1 view .LVU848
 2592              		.loc 1 61 25 is_stmt 0 view .LVU849
 2593 0042 4C1C     		adds	r4, r1, #1
 2594              		.loc 1 62 25 view .LVU850
 2595 0044 511C     		adds	r1, r2, #1
 2596              		.loc 1 64 48 view .LVU851
 2597 0046 5A6B     		ldr	r2, [r3, #52]
 2598              		.loc 1 61 25 view .LVU852
 2599 0048 1C60     		str	r4, [r3]
 2600              		.loc 1 62 5 is_stmt 1 view .LVU853
 2601              		.loc 1 64 48 is_stmt 0 view .LVU854
 2602 004a 0132     		adds	r2, r2, #1
 2603              		.loc 1 62 25 view .LVU855
 2604 004c 9960     		str	r1, [r3, #8]
 2605              		.loc 1 63 5 is_stmt 1 view .LVU856
 2606              		.loc 1 64 26 view .LVU857
 2607              		.loc 1 64 48 is_stmt 0 view .LVU858
 2608 004e 5A63     		str	r2, [r3, #52]
 2609              		.loc 1 64 52 is_stmt 1 view .LVU859
 2610              	.LVL146:
 2611              		.loc 1 64 52 is_stmt 0 view .LVU860
 2612              	.LBE578:
 2613              	.LBE577:
 2614              		.loc 1 281 1 view .LVU861
 2615 0050 38BD     		pop	{r3, r4, r5, pc}
 2616              	.LVL147:
 2617              	.L190:
 2618              	.LBB579:
 2619              	.LBB576:
ARM GAS  C:\Users\DEVELO~1\AppData\Local\Temp\ccUlh0tc.s 			page 47


 2620              	.LBB574:
 2621              	.LBI574:
 2622              		.loc 1 21 13 is_stmt 1 view .LVU862
 2623              	.LBB575:
 2624              		.loc 1 23 9 view .LVU863
 2625 0052 FFF7FEFF 		bl	drv_sd_thread_start
 2626              	.LVL148:
 2627              		.loc 1 24 9 view .LVU864
 2628              		.loc 1 24 24 is_stmt 0 view .LVU865
 2629 0056 0123     		movs	r3, #1
 2630              		.loc 1 25 20 view .LVU866
 2631 0058 0D4A     		ldr	r2, .L192+20
 2632              		.loc 1 24 24 view .LVU867
 2633 005a 2B70     		strb	r3, [r5]
 2634              		.loc 1 25 9 is_stmt 1 view .LVU868
 2635              		.loc 1 25 20 is_stmt 0 view .LVU869
 2636 005c 1370     		strb	r3, [r2]
 2637              	.LBE575:
 2638              	.LBE574:
 2639              	.LBE576:
 2640              	.LBE579:
 2641              		.loc 1 270 5 is_stmt 1 view .LVU870
 2642              		.loc 1 270 8 is_stmt 0 view .LVU871
 2643 005e 002C     		cmp	r4, #0
 2644 0060 DFD1     		bne	.L180
 2645              	.L191:
 2646              		.loc 1 271 9 is_stmt 1 view .LVU872
 2647              	.LVL149:
 2648              	.LBB580:
 2649              	.LBI580:
 2650              		.loc 1 59 13 view .LVU873
 2651              	.LBB581:
 2652              		.loc 1 60 5 view .LVU874
 2653              		.loc 1 61 25 is_stmt 0 view .LVU875
 2654 0062 094B     		ldr	r3, .L192+12
 2655              		.loc 1 60 21 view .LVU876
 2656 0064 0720     		movs	r0, #7
 2657 0066 094C     		ldr	r4, .L192+16
 2658              	.LVL150:
 2659              		.loc 1 61 25 view .LVU877
 2660 0068 1968     		ldr	r1, [r3]
 2661              		.loc 1 62 25 view .LVU878
 2662 006a 9A68     		ldr	r2, [r3, #8]
 2663              		.loc 1 61 25 view .LVU879
 2664 006c 0131     		adds	r1, r1, #1
 2665              		.loc 1 60 21 view .LVU880
 2666 006e 2070     		strb	r0, [r4]
 2667              		.loc 1 61 5 is_stmt 1 view .LVU881
 2668              		.loc 1 62 25 is_stmt 0 view .LVU882
 2669 0070 0132     		adds	r2, r2, #1
 2670              		.loc 1 61 25 view .LVU883
 2671 0072 1960     		str	r1, [r3]
 2672              		.loc 1 62 5 is_stmt 1 view .LVU884
 2673              		.loc 1 62 25 is_stmt 0 view .LVU885
 2674 0074 9A60     		str	r2, [r3, #8]
 2675              		.loc 1 63 5 is_stmt 1 view .LVU886
 2676              	.LVL151:
ARM GAS  C:\Users\DEVELO~1\AppData\Local\Temp\ccUlh0tc.s 			page 48


 2677              		.loc 1 63 5 is_stmt 0 view .LVU887
 2678              	.LBE581:
 2679              	.LBE580:
 2680              		.loc 1 281 1 view .LVU888
 2681 0076 38BD     		pop	{r3, r4, r5, pc}
 2682              	.LVL152:
 2683              	.L181:
 2684              		.loc 1 276 16 view .LVU889
 2685 0078 0320     		movs	r0, #3
 2686              	.LVL153:
 2687              		.loc 1 281 1 view .LVU890
 2688 007a 38BD     		pop	{r3, r4, r5, pc}
 2689              	.LVL154:
 2690              	.L193:
 2691              		.loc 1 281 1 view .LVU891
 2692              		.align	2
 2693              	.L192:
 2694 007c 00000000 		.word	ch0
 2695 0080 00000000 		.word	.LC0
 2696 0084 00000000 		.word	.LANCHOR2
 2697 0088 00000000 		.word	.LANCHOR1
 2698 008c 00000000 		.word	.LANCHOR0
 2699 0090 00000000 		.word	.LANCHOR3
 2700              		.cfi_endproc
 2701              	.LFE464:
 2702              		.size	drv_sd_get_stats, .-drv_sd_get_stats
 2703              		.section	.text.drv_sd_clear_stats,"ax",%progbits
 2704              		.align	1
 2705              		.p2align 2,,3
 2706              		.global	drv_sd_clear_stats
 2707              		.syntax unified
 2708              		.thumb
 2709              		.thumb_func
 2710              		.type	drv_sd_clear_stats, %function
 2711              	drv_sd_clear_stats:
 2712              	.LFB465:
 2713              		.loc 1 283 31 is_stmt 1 view -0
 2714              		.cfi_startproc
 2715              		@ args = 0, pretend = 0, frame = 0
 2716              		@ frame_needed = 0, uses_anonymous_args = 0
 2717              		.loc 1 284 5 view .LVU893
 2718              	.LBB608:
 2719              	.LBI608:
 2720              		.loc 1 29 13 view .LVU894
 2721              	.LBB609:
 2722              		.loc 1 30 5 view .LVU895
 2723              	.LBB610:
 2724              	.LBI610:
 2725              		.loc 3 205 31 view .LVU896
 2726              	.LBB611:
 2727              		.loc 3 207 3 view .LVU897
 2728              		.loc 3 209 3 view .LVU898
 2729              	.LBE611:
 2730              	.LBE610:
 2731              	.LBE609:
 2732              	.LBE608:
 2733              		.loc 1 283 31 is_stmt 0 view .LVU899
ARM GAS  C:\Users\DEVELO~1\AppData\Local\Temp\ccUlh0tc.s 			page 49


 2734 0000 10B5     		push	{r4, lr}
 2735              		.cfi_def_cfa_offset 8
 2736              		.cfi_offset 4, -8
 2737              		.cfi_offset 14, -4
 2738              	.LBB625:
 2739              	.LBB624:
 2740              	.LBB613:
 2741              	.LBB612:
 2742              		.loc 3 209 3 view .LVU900
 2743              		.syntax unified
 2744              	@ 209 "./docs/ChibiOS/os/common/ext/ARM/CMSIS/Core/Include/cmsis_gcc.h" 1
 2745 0002 EFF30583 		MRS r3, ipsr
 2746              	@ 0 "" 2
 2747              	.LVL155:
 2748              		.loc 3 210 3 is_stmt 1 view .LVU901
 2749              		.loc 3 210 3 is_stmt 0 view .LVU902
 2750              		.thumb
 2751              		.syntax unified
 2752              	.LBE612:
 2753              	.LBE613:
 2754              		.loc 1 30 8 view .LVU903
 2755 0006 9BB9     		cbnz	r3, .L195
 2756              	.LBB614:
 2757              	.LBI614:
 2758              		.loc 1 29 13 is_stmt 1 view .LVU904
 2759              	.LBB615:
 2760              		.loc 1 33 5 view .LVU905
 2761              	.LBB616:
 2762              	.LBI616:
 2763              		.loc 4 527 25 view .LVU906
 2764              	.LBB617:
 2765              		.loc 4 529 3 view .LVU907
 2766              	.LVL156:
 2767              		.loc 4 529 3 is_stmt 0 view .LVU908
 2768              	.LBE617:
 2769              	.LBE616:
 2770              	.LBB619:
 2771              	.LBI619:
 2772              		.loc 5 186 27 is_stmt 1 view .LVU909
 2773              	.LBB620:
 2774              		.loc 5 189 3 view .LVU910
 2775              	.LBE620:
 2776              	.LBE619:
 2777              	.LBB622:
 2778              	.LBB618:
 2779              		.loc 4 529 10 is_stmt 0 view .LVU911
 2780 0008 1B4B     		ldr	r3, .L211
 2781              	.LBE618:
 2782              	.LBE622:
 2783              	.LBB623:
 2784              	.LBB621:
 2785              		.loc 5 189 12 view .LVU912
 2786 000a DB68     		ldr	r3, [r3, #12]
 2787 000c 186A     		ldr	r0, [r3, #32]
 2788              	.LVL157:
 2789              		.loc 5 189 12 view .LVU913
 2790              	.LBE621:
ARM GAS  C:\Users\DEVELO~1\AppData\Local\Temp\ccUlh0tc.s 			page 50


 2791              	.LBE623:
 2792              		.loc 1 34 5 is_stmt 1 view .LVU914
 2793              		.loc 1 34 8 is_stmt 0 view .LVU915
 2794 000e 18B1     		cbz	r0, .L196
 2795              		.loc 1 34 25 view .LVU916
 2796 0010 1A49     		ldr	r1, .L211+4
 2797 0012 FFF7FEFF 		bl	strcmp
 2798              	.LVL158:
 2799              		.loc 1 34 22 view .LVU917
 2800 0016 58B1     		cbz	r0, .L195
 2801              	.L196:
 2802              		.loc 1 37 5 is_stmt 1 view .LVU918
 2803              		.loc 1 37 5 is_stmt 0 view .LVU919
 2804              	.LBE615:
 2805              	.LBE614:
 2806              	.LBE624:
 2807              	.LBE625:
 2808              		.loc 1 288 5 is_stmt 1 view .LVU920
 2809              	.LBB626:
 2810              	.LBI626:
 2811              		.loc 1 21 13 view .LVU921
 2812              	.LBB627:
 2813              		.loc 1 22 5 view .LVU922
 2814              		.loc 1 22 9 is_stmt 0 view .LVU923
 2815 0018 194C     		ldr	r4, .L211+8
 2816              		.loc 1 22 8 view .LVU924
 2817 001a 2378     		ldrb	r3, [r4]	@ zero_extendqisi2
 2818 001c B3B1     		cbz	r3, .L209
 2819              	.L197:
 2820              	.LBE627:
 2821              	.LBE626:
 2822              		.loc 1 289 5 is_stmt 1 view .LVU925
 2823              		.loc 1 289 25 is_stmt 0 view .LVU926
 2824 001e FFF7FEFF 		bl	drv_sd_thread_alloc
 2825              	.LVL159:
 2826              		.loc 1 290 5 is_stmt 1 view .LVU927
 2827              		.loc 1 290 8 is_stmt 0 view .LVU928
 2828 0022 D0B1     		cbz	r0, .L210
 2829              		.loc 1 294 5 is_stmt 1 view .LVU929
 2830              		.loc 1 294 15 is_stmt 0 view .LVU930
 2831 0024 0822     		movs	r2, #8
 2832 0026 0270     		strb	r2, [r0]
 2833              		.loc 1 295 5 is_stmt 1 view .LVU931
 2834              		.loc 1 296 1 is_stmt 0 view .LVU932
 2835 0028 BDE81040 		pop	{r4, lr}
 2836              		.cfi_remember_state
 2837              		.cfi_restore 14
 2838              		.cfi_restore 4
 2839              		.cfi_def_cfa_offset 0
 2840              		.loc 1 295 11 view .LVU933
 2841 002c FFF7FEBF 		b	sd_submit_request
 2842              	.LVL160:
 2843              	.L195:
 2844              		.cfi_restore_state
 2845              		.loc 1 285 9 is_stmt 1 view .LVU934
 2846              	.LBB631:
 2847              	.LBI631:
ARM GAS  C:\Users\DEVELO~1\AppData\Local\Temp\ccUlh0tc.s 			page 51


 2848              		.loc 1 59 13 view .LVU935
 2849              	.LBB632:
 2850              		.loc 1 60 5 view .LVU936
 2851              		.loc 1 61 25 is_stmt 0 view .LVU937
 2852 0030 144B     		ldr	r3, .L211+12
 2853              		.loc 1 60 21 view .LVU938
 2854 0032 0C24     		movs	r4, #12
 2855 0034 1448     		ldr	r0, .L211+16
 2856              		.loc 1 61 25 view .LVU939
 2857 0036 1968     		ldr	r1, [r3]
 2858              		.loc 1 62 25 view .LVU940
 2859 0038 9A68     		ldr	r2, [r3, #8]
 2860              		.loc 1 60 21 view .LVU941
 2861 003a 0470     		strb	r4, [r0]
 2862              		.loc 1 61 5 is_stmt 1 view .LVU942
 2863              		.loc 1 61 25 is_stmt 0 view .LVU943
 2864 003c 481C     		adds	r0, r1, #1
 2865              		.loc 1 62 25 view .LVU944
 2866 003e 511C     		adds	r1, r2, #1
 2867              		.loc 1 64 48 view .LVU945
 2868 0040 5A6B     		ldr	r2, [r3, #52]
 2869              		.loc 1 61 25 view .LVU946
 2870 0042 1860     		str	r0, [r3]
 2871              		.loc 1 62 5 is_stmt 1 view .LVU947
 2872              		.loc 1 64 48 is_stmt 0 view .LVU948
 2873 0044 0132     		adds	r2, r2, #1
 2874              		.loc 1 62 25 view .LVU949
 2875 0046 9960     		str	r1, [r3, #8]
 2876              		.loc 1 63 5 is_stmt 1 view .LVU950
 2877              		.loc 1 64 26 view .LVU951
 2878              		.loc 1 64 48 is_stmt 0 view .LVU952
 2879 0048 5A63     		str	r2, [r3, #52]
 2880              		.loc 1 64 52 is_stmt 1 view .LVU953
 2881              	.LBE632:
 2882              	.LBE631:
 2883              		.loc 1 296 1 is_stmt 0 view .LVU954
 2884 004a 10BD     		pop	{r4, pc}
 2885              	.LVL161:
 2886              	.L209:
 2887              	.LBB633:
 2888              	.LBB630:
 2889              	.LBB628:
 2890              	.LBI628:
 2891              		.loc 1 21 13 is_stmt 1 view .LVU955
 2892              	.LBB629:
 2893              		.loc 1 23 9 view .LVU956
 2894 004c FFF7FEFF 		bl	drv_sd_thread_start
 2895              	.LVL162:
 2896              		.loc 1 24 9 view .LVU957
 2897              		.loc 1 24 24 is_stmt 0 view .LVU958
 2898 0050 0123     		movs	r3, #1
 2899              		.loc 1 25 20 view .LVU959
 2900 0052 0E4A     		ldr	r2, .L211+20
 2901              		.loc 1 24 24 view .LVU960
 2902 0054 2370     		strb	r3, [r4]
 2903              		.loc 1 25 9 is_stmt 1 view .LVU961
 2904              		.loc 1 25 20 is_stmt 0 view .LVU962
ARM GAS  C:\Users\DEVELO~1\AppData\Local\Temp\ccUlh0tc.s 			page 52


 2905 0056 1370     		strb	r3, [r2]
 2906              		.loc 1 27 1 view .LVU963
 2907 0058 E1E7     		b	.L197
 2908              	.LVL163:
 2909              	.L210:
 2910              		.loc 1 27 1 view .LVU964
 2911              	.LBE629:
 2912              	.LBE628:
 2913              	.LBE630:
 2914              	.LBE633:
 2915              		.loc 1 291 9 is_stmt 1 view .LVU965
 2916              	.LBB634:
 2917              	.LBI634:
 2918              		.loc 1 59 13 view .LVU966
 2919              	.LBB635:
 2920              		.loc 1 60 5 view .LVU967
 2921              		.loc 1 61 25 is_stmt 0 view .LVU968
 2922 005a 0A4B     		ldr	r3, .L211+12
 2923              		.loc 1 60 21 view .LVU969
 2924 005c 0324     		movs	r4, #3
 2925 005e 0A48     		ldr	r0, .L211+16
 2926              	.LVL164:
 2927              		.loc 1 61 25 view .LVU970
 2928 0060 1968     		ldr	r1, [r3]
 2929              		.loc 1 62 25 view .LVU971
 2930 0062 9A68     		ldr	r2, [r3, #8]
 2931              		.loc 1 60 21 view .LVU972
 2932 0064 0470     		strb	r4, [r0]
 2933              		.loc 1 61 5 is_stmt 1 view .LVU973
 2934              		.loc 1 61 25 is_stmt 0 view .LVU974
 2935 0066 481C     		adds	r0, r1, #1
 2936              		.loc 1 62 25 view .LVU975
 2937 0068 511C     		adds	r1, r2, #1
 2938              	.LBB636:
 2939              	.LBB637:
 2940              		.loc 1 65 42 view .LVU976
 2941 006a 1A6B     		ldr	r2, [r3, #48]
 2942              	.LBE637:
 2943              	.LBE636:
 2944              		.loc 1 61 25 view .LVU977
 2945 006c 1860     		str	r0, [r3]
 2946              		.loc 1 62 5 is_stmt 1 view .LVU978
 2947              	.LBB640:
 2948              	.LBB638:
 2949              		.loc 1 65 42 is_stmt 0 view .LVU979
 2950 006e 0132     		adds	r2, r2, #1
 2951              	.LBE638:
 2952              	.LBE640:
 2953              		.loc 1 62 25 view .LVU980
 2954 0070 9960     		str	r1, [r3, #8]
 2955              		.loc 1 63 5 is_stmt 1 view .LVU981
 2956              	.LBB641:
 2957              	.LBI636:
 2958              		.loc 1 59 13 view .LVU982
 2959              	.LVL165:
 2960              	.LBB639:
 2961              		.loc 1 65 23 view .LVU983
ARM GAS  C:\Users\DEVELO~1\AppData\Local\Temp\ccUlh0tc.s 			page 53


 2962              		.loc 1 65 42 is_stmt 0 view .LVU984
 2963 0072 1A63     		str	r2, [r3, #48]
 2964              		.loc 1 65 46 is_stmt 1 view .LVU985
 2965              	.LBE639:
 2966              	.LBE641:
 2967              	.LBE635:
 2968              	.LBE634:
 2969              		.loc 1 296 1 is_stmt 0 view .LVU986
 2970 0074 10BD     		pop	{r4, pc}
 2971              	.L212:
 2972 0076 00BF     		.align	2
 2973              	.L211:
 2974 0078 00000000 		.word	ch0
 2975 007c 00000000 		.word	.LC0
 2976 0080 00000000 		.word	.LANCHOR2
 2977 0084 00000000 		.word	.LANCHOR1
 2978 0088 00000000 		.word	.LANCHOR0
 2979 008c 00000000 		.word	.LANCHOR3
 2980              		.cfi_endproc
 2981              	.LFE465:
 2982              		.size	drv_sd_clear_stats, .-drv_sd_clear_stats
 2983              		.global	g_sd_stats
 2984              		.global	g_sd_last_error
 2985              		.global	g_sd_state
 2986              		.section	.bss.g_sd_last_error,"aw",%nobits
 2987              		.set	.LANCHOR0,. + 0
 2988              		.type	g_sd_last_error, %object
 2989              		.size	g_sd_last_error, 1
 2990              	g_sd_last_error:
 2991 0000 00       		.space	1
 2992              		.section	.bss.g_sd_state,"aw",%nobits
 2993              		.set	.LANCHOR3,. + 0
 2994              		.type	g_sd_state, %object
 2995              		.size	g_sd_state, 1
 2996              	g_sd_state:
 2997 0000 00       		.space	1
 2998              		.section	.bss.g_sd_stats,"aw",%nobits
 2999              		.align	2
 3000              		.set	.LANCHOR1,. + 0
 3001              		.type	g_sd_stats, %object
 3002              		.size	g_sd_stats, 72
 3003              	g_sd_stats:
 3004 0000 00000000 		.space	72
 3004      00000000 
 3004      00000000 
 3004      00000000 
 3004      00000000 
 3005              		.section	.bss.sd_initialized,"aw",%nobits
 3006              		.set	.LANCHOR2,. + 0
 3007              		.type	sd_initialized, %object
 3008              		.size	sd_initialized, 1
 3009              	sd_initialized:
 3010 0000 00       		.space	1
 3011              		.text
 3012              	.Letext0:
 3013              		.file 6 "c:\\chibistudio\\tools\\gnu tools arm embedded\\11.3 2022.08\\lib\\gcc\\arm-none-eabi\\11
 3014              		.file 7 "c:\\chibistudio\\tools\\gnu tools arm embedded\\11.3 2022.08\\arm-none-eabi\\include\\mac
ARM GAS  C:\Users\DEVELO~1\AppData\Local\Temp\ccUlh0tc.s 			page 54


 3015              		.file 8 "c:\\chibistudio\\tools\\gnu tools arm embedded\\11.3 2022.08\\arm-none-eabi\\include\\sys
 3016              		.file 9 "./docs/ChibiOS/os/common/ports/ARM-common/include/chtypes.h"
 3017              		.file 10 "./docs/ChibiOS/os/rt/include/chearly.h"
 3018              		.file 11 "./docs/ChibiOS/os/rt/include/chobjects.h"
 3019              		.file 12 "./docs/ChibiOS/os/rt/include/chrfcu.h"
 3020              		.file 13 "./docs/ChibiOS/os/rt/include/chdebug.h"
 3021              		.file 14 "./docs/ChibiOS/os/rt/include/chtime.h"
 3022              		.file 15 "./docs/ChibiOS/os/rt/include/chtrace.h"
 3023              		.file 16 "./docs/ChibiOS/os/common/ports/ARMv7-M/chcore.h"
 3024              		.file 17 "./docs/ChibiOS/os/rt/include/chlists.h"
 3025              		.file 18 "./docs/ChibiOS/os/rt/include/chsem.h"
 3026              		.file 19 "./docs/ChibiOS/os/rt/include/chmtx.h"
 3027              		.file 20 "drivers/sd/drv_sd.h"
 3028              		.file 21 "drivers/sd/drv_sd_thread.h"
 3029              		.file 22 "c:\\chibistudio\\tools\\gnu tools arm embedded\\11.3 2022.08\\arm-none-eabi\\include\\st
 3030              		.file 23 "drivers/sd/drv_sd_hal.h"
 3031              		.file 24 "drivers/mpu_config.h"
 3032              		.file 25 "./docs/ChibiOS/os/rt/include/chsys.h"