ARM GAS  C:\Users\DEVELO~1\AppData\Local\Temp\ccyYyX0m.s 			page 1


   1              		.cpu cortex-m7
   2              		.arch armv7e-m
   3              		.fpu fpv5-d16
   4              		.eabi_attribute 28, 1
   5              		.eabi_attribute 20, 1
   6              		.eabi_attribute 21, 1
   7              		.eabi_attribute 23, 3
   8              		.eabi_attribute 24, 1
   9              		.eabi_attribute 25, 1
  10              		.eabi_attribute 26, 1
  11              		.eabi_attribute 30, 2
  12              		.eabi_attribute 34, 1
  13              		.eabi_attribute 18, 4
  14              		.file	"drv_sd_thread.c"
  15              		.text
  16              	.Ltext0:
  17              		.cfi_sections	.debug_frame
  18              		.global	__aeabi_uldivmod
  19              		.section	.text.sd_stats_record,"ax",%progbits
  20              		.align	1
  21              		.p2align 2,,3
  22              		.syntax unified
  23              		.thumb
  24              		.thumb_func
  25              		.type	sd_stats_record, %function
  26              	sd_stats_record:
  27              	.LVL0:
  28              	.LFB450:
  29              		.file 1 "drivers/sd/drv_sd_thread.c"
  30              		.loc 1 55 66 view -0
  31              		.cfi_startproc
  32              		@ args = 0, pretend = 0, frame = 0
  33              		@ frame_needed = 0, uses_anonymous_args = 0
  34              		.loc 1 56 5 view .LVU1
  35              		.loc 1 55 66 is_stmt 0 view .LVU2
  36 0000 38B5     		push	{r3, r4, r5, lr}
  37              		.cfi_def_cfa_offset 16
  38              		.cfi_offset 3, -16
  39              		.cfi_offset 4, -12
  40              		.cfi_offset 5, -8
  41              		.cfi_offset 14, -4
  42              		.loc 1 56 15 view .LVU3
  43 0002 354C     		ldr	r4, .L30
  44 0004 2568     		ldr	r5, [r4]
  45              		.loc 1 56 25 view .LVU4
  46 0006 6A1C     		adds	r2, r5, #1
  47 0008 2260     		str	r2, [r4]
  48              		.loc 1 57 5 is_stmt 1 view .LVU5
  49              		.loc 1 57 8 is_stmt 0 view .LVU6
  50 000a B8B9     		cbnz	r0, .L2
  51              		.loc 1 58 9 is_stmt 1 view .LVU7
  52              		.loc 1 58 31 is_stmt 0 view .LVU8
  53 000c 6368     		ldr	r3, [r4, #4]
  54 000e 0133     		adds	r3, r3, #1
  55 0010 6360     		str	r3, [r4, #4]
  56              		.loc 1 62 5 is_stmt 1 view .LVU9
  57              	.LVL1:
ARM GAS  C:\Users\DEVELO~1\AppData\Local\Temp\ccyYyX0m.s 			page 2


  58              	.L3:
  59              		.loc 1 76 5 view .LVU10
  60              		.loc 1 76 32 is_stmt 0 view .LVU11
  61 0012 E36B     		ldr	r3, [r4, #60]
  62              		.loc 1 76 48 view .LVU12
  63 0014 0BB1     		cbz	r3, .L20
  64 0016 8B42     		cmp	r3, r1
  65 0018 00D9     		bls	.L16
  66              	.L20:
  67              		.loc 1 77 9 is_stmt 1 view .LVU13
  68              		.loc 1 77 35 is_stmt 0 view .LVU14
  69 001a E163     		str	r1, [r4, #60]
  70              	.L16:
  71              		.loc 1 79 5 is_stmt 1 view .LVU15
  72              		.loc 1 79 8 is_stmt 0 view .LVU16
  73 001c 236C     		ldr	r3, [r4, #64]
  74 001e 8B42     		cmp	r3, r1
  75              		.loc 1 80 9 is_stmt 1 view .LVU17
  76              		.loc 1 82 5 view .LVU18
  77              		.loc 1 80 35 is_stmt 0 view .LVU19
  78 0020 38BF     		it	cc
  79 0022 2164     		strcc	r1, [r4, #64]
  80              		.loc 1 82 8 view .LVU20
  81 0024 4AB1     		cbz	r2, .L1
  82              		.loc 1 83 9 is_stmt 1 view .LVU21
  83              		.loc 1 83 115 is_stmt 0 view .LVU22
  84 0026 0023     		movs	r3, #0
  85 0028 606C     		ldr	r0, [r4, #68]
  86              		.loc 1 83 129 view .LVU23
  87 002a 8C46     		mov	ip, r1
  88 002c 1946     		mov	r1, r3
  89              	.LVL2:
  90              		.loc 1 83 129 view .LVU24
  91 002e E0FB05C1 		umlal	ip, r1, r0, r5
  92              	.LVL3:
  93              		.loc 1 83 129 view .LVU25
  94 0032 6046     		mov	r0, ip
  95 0034 FFF7FEFF 		bl	__aeabi_uldivmod
  96              	.LVL4:
  97              		.loc 1 83 37 view .LVU26
  98 0038 6064     		str	r0, [r4, #68]
  99              	.L1:
 100              		.loc 1 85 1 view .LVU27
 101 003a 38BD     		pop	{r3, r4, r5, pc}
 102              	.LVL5:
 103              	.L2:
 104              		.loc 1 60 9 is_stmt 1 view .LVU28
 105              		.loc 1 62 5 is_stmt 0 view .LVU29
 106 003c 431E     		subs	r3, r0, #1
 107              		.loc 1 60 29 view .LVU30
 108 003e A068     		ldr	r0, [r4, #8]
 109              	.LVL6:
 110              		.loc 1 60 29 view .LVU31
 111 0040 0130     		adds	r0, r0, #1
 112 0042 A060     		str	r0, [r4, #8]
 113              		.loc 1 62 5 is_stmt 1 view .LVU32
 114 0044 0B2B     		cmp	r3, #11
ARM GAS  C:\Users\DEVELO~1\AppData\Local\Temp\ccyYyX0m.s 			page 3


 115 0046 E4D8     		bhi	.L3
 116 0048 01A0     		adr	r0, .L5
 117 004a 50F823F0 		ldr	pc, [r0, r3, lsl #2]
 118 004e 00BF     		.p2align 2
 119              	.L5:
 120 0050 89000000 		.word	.L15+1
 121 0054 13000000 		.word	.L3+1
 122 0058 91000000 		.word	.L14+1
 123 005c 99000000 		.word	.L13+1
 124 0060 A1000000 		.word	.L12+1
 125 0064 A9000000 		.word	.L11+1
 126 0068 B1000000 		.word	.L10+1
 127 006c B9000000 		.word	.L9+1
 128 0070 C1000000 		.word	.L8+1
 129 0074 C9000000 		.word	.L7+1
 130 0078 D1000000 		.word	.L6+1
 131 007c 81000000 		.word	.L4+1
 132              		.p2align 1
 133              	.L4:
 134              		.loc 1 73 26 view .LVU33
 135              		.loc 1 73 48 is_stmt 0 view .LVU34
 136 0080 636B     		ldr	r3, [r4, #52]
 137 0082 0133     		adds	r3, r3, #1
 138 0084 6363     		str	r3, [r4, #52]
 139              		.loc 1 73 52 is_stmt 1 view .LVU35
 140 0086 C4E7     		b	.L3
 141              	.L15:
 142              		.loc 1 63 26 view .LVU36
 143              		.loc 1 63 48 is_stmt 0 view .LVU37
 144 0088 E368     		ldr	r3, [r4, #12]
 145 008a 0133     		adds	r3, r3, #1
 146 008c E360     		str	r3, [r4, #12]
 147              		.loc 1 63 52 is_stmt 1 view .LVU38
 148 008e C0E7     		b	.L3
 149              	.L14:
 150              		.loc 1 72 23 view .LVU39
 151              		.loc 1 72 42 is_stmt 0 view .LVU40
 152 0090 236B     		ldr	r3, [r4, #48]
 153 0092 0133     		adds	r3, r3, #1
 154 0094 2363     		str	r3, [r4, #48]
 155              		.loc 1 72 46 is_stmt 1 view .LVU41
 156 0096 BCE7     		b	.L3
 157              	.L13:
 158              		.loc 1 64 21 view .LVU42
 159              		.loc 1 64 38 is_stmt 0 view .LVU43
 160 0098 2369     		ldr	r3, [r4, #16]
 161 009a 0133     		adds	r3, r3, #1
 162 009c 2361     		str	r3, [r4, #16]
 163              		.loc 1 64 42 is_stmt 1 view .LVU44
 164 009e B8E7     		b	.L3
 165              	.L12:
 166              		.loc 1 65 22 view .LVU45
 167              		.loc 1 65 40 is_stmt 0 view .LVU46
 168 00a0 6369     		ldr	r3, [r4, #20]
 169 00a2 0133     		adds	r3, r3, #1
 170 00a4 6361     		str	r3, [r4, #20]
 171              		.loc 1 65 44 is_stmt 1 view .LVU47
ARM GAS  C:\Users\DEVELO~1\AppData\Local\Temp\ccyYyX0m.s 			page 4


 172 00a6 B4E7     		b	.L3
 173              	.L11:
 174              		.loc 1 66 21 view .LVU48
 175              		.loc 1 66 38 is_stmt 0 view .LVU49
 176 00a8 A369     		ldr	r3, [r4, #24]
 177 00aa 0133     		adds	r3, r3, #1
 178 00ac A361     		str	r3, [r4, #24]
 179              		.loc 1 66 42 is_stmt 1 view .LVU50
 180 00ae B0E7     		b	.L3
 181              	.L10:
 182              		.loc 1 67 24 view .LVU51
 183              		.loc 1 67 44 is_stmt 0 view .LVU52
 184 00b0 E369     		ldr	r3, [r4, #28]
 185 00b2 0133     		adds	r3, r3, #1
 186 00b4 E361     		str	r3, [r4, #28]
 187              		.loc 1 67 48 is_stmt 1 view .LVU53
 188 00b6 ACE7     		b	.L3
 189              	.L9:
 190              		.loc 1 68 23 view .LVU54
 191              		.loc 1 68 42 is_stmt 0 view .LVU55
 192 00b8 236A     		ldr	r3, [r4, #32]
 193 00ba 0133     		adds	r3, r3, #1
 194 00bc 2362     		str	r3, [r4, #32]
 195              		.loc 1 68 46 is_stmt 1 view .LVU56
 196 00be A8E7     		b	.L3
 197              	.L8:
 198              		.loc 1 69 28 view .LVU57
 199              		.loc 1 69 52 is_stmt 0 view .LVU58
 200 00c0 636A     		ldr	r3, [r4, #36]
 201 00c2 0133     		adds	r3, r3, #1
 202 00c4 6362     		str	r3, [r4, #36]
 203              		.loc 1 69 56 is_stmt 1 view .LVU59
 204 00c6 A4E7     		b	.L3
 205              	.L7:
 206              		.loc 1 70 24 view .LVU60
 207              		.loc 1 70 44 is_stmt 0 view .LVU61
 208 00c8 A36A     		ldr	r3, [r4, #40]
 209 00ca 0133     		adds	r3, r3, #1
 210 00cc A362     		str	r3, [r4, #40]
 211              		.loc 1 70 48 is_stmt 1 view .LVU62
 212 00ce A0E7     		b	.L3
 213              	.L6:
 214              		.loc 1 71 26 view .LVU63
 215              		.loc 1 71 48 is_stmt 0 view .LVU64
 216 00d0 E36A     		ldr	r3, [r4, #44]
 217 00d2 0133     		adds	r3, r3, #1
 218 00d4 E362     		str	r3, [r4, #44]
 219              		.loc 1 71 52 is_stmt 1 view .LVU65
 220 00d6 9CE7     		b	.L3
 221              	.L31:
 222              		.align	2
 223              	.L30:
 224 00d8 00000000 		.word	g_sd_stats
 225              		.cfi_endproc
 226              	.LFE450:
 227              		.size	sd_stats_record, .-sd_stats_record
 228              		.section	.rodata.sdThread.str1.4,"aMS",%progbits,1
ARM GAS  C:\Users\DEVELO~1\AppData\Local\Temp\ccyYyX0m.s 			page 5


 229              		.align	2
 230              	.LC0:
 231 0000 73645468 		.ascii	"sdThread\000"
 231      72656164 
 231      00
 232              		.global	__aeabi_ldivmod
 233              		.section	.text.sdThread,"ax",%progbits
 234              		.align	1
 235              		.p2align 2,,3
 236              		.syntax unified
 237              		.thumb
 238              		.thumb_func
 239              		.type	sdThread, %function
 240              	sdThread:
 241              	.LVL7:
 242              	.LFB463:
 243              		.loc 1 206 36 view -0
 244              		.cfi_startproc
 245              		@ args = 0, pretend = 0, frame = 48
 246              		@ frame_needed = 0, uses_anonymous_args = 0
 247              		.loc 1 207 5 view .LVU67
 248              		.loc 1 208 5 view .LVU68
 249              	.LBB253:
 250              	.LBI253:
 251              		.file 2 "./docs/ChibiOS/os/rt/include/chregistry.h"
 252              		.loc 2 166 20 view .LVU69
 253              	.LBB254:
 254              		.loc 2 169 3 view .LVU70
 255 0000 A84B     		ldr	r3, .L121
 256              		.loc 2 169 32 is_stmt 0 view .LVU71
 257 0002 A94A     		ldr	r2, .L121+4
 258 0004 DB68     		ldr	r3, [r3, #12]
 259              	.LBE254:
 260              	.LBE253:
 261              		.loc 1 206 36 view .LVU72
 262 0006 2DE9F04F 		push	{r4, r5, r6, r7, r8, r9, r10, fp, lr}
 263              		.cfi_def_cfa_offset 36
 264              		.cfi_offset 4, -36
 265              		.cfi_offset 5, -32
 266              		.cfi_offset 6, -28
 267              		.cfi_offset 7, -24
 268              		.cfi_offset 8, -20
 269              		.cfi_offset 9, -16
 270              		.cfi_offset 10, -12
 271              		.cfi_offset 11, -8
 272              		.cfi_offset 14, -4
 273 000a DFF8B4A2 		ldr	r10, .L121+28
 274 000e 8FB0     		sub	sp, sp, #60
 275              		.cfi_def_cfa_offset 96
 276              	.LBB256:
 277              		.loc 1 211 13 view .LVU73
 278 0010 A64E     		ldr	r6, .L121+8
 279              	.LBB257:
 280              	.LBB258:
 281              	.LBB259:
 282              	.LBB260:
 283              		.loc 1 314 5 view .LVU74
ARM GAS  C:\Users\DEVELO~1\AppData\Local\Temp\ccyYyX0m.s 			page 6


 284 0012 DFF8B0B2 		ldr	fp, .L121+32
 285              	.LBE260:
 286              	.LBE259:
 287              	.LBE258:
 288              	.LBE257:
 289              	.LBE256:
 290              	.LBB525:
 291              	.LBB255:
 292              		.loc 2 169 32 view .LVU75
 293 0016 1A62     		str	r2, [r3, #32]
 294              	.LVL8:
 295              	.L84:
 296              		.loc 2 169 32 view .LVU76
 297              	.LBE255:
 298              	.LBE525:
 299              		.loc 1 209 5 is_stmt 1 view .LVU77
 300              	.LBB526:
 301              		.loc 1 210 9 view .LVU78
 302              		.loc 1 211 9 view .LVU79
 303              		.loc 1 211 13 is_stmt 0 view .LVU80
 304 0018 4FF0FF32 		mov	r2, #-1
 305 001c 04A9     		add	r1, sp, #16
 306 001e 3046     		mov	r0, r6
 307 0020 FFF7FEFF 		bl	chMBFetchTimeout
 308              	.LVL9:
 309              		.loc 1 211 12 view .LVU81
 310 0024 0446     		mov	r4, r0
 311 0026 0028     		cmp	r0, #0
 312 0028 F6D1     		bne	.L84
 313              		.loc 1 214 9 is_stmt 1 view .LVU82
 314              		.loc 1 214 29 is_stmt 0 view .LVU83
 315 002a 049D     		ldr	r5, [sp, #16]
 316              	.LVL10:
 317              		.loc 1 215 9 is_stmt 1 view .LVU84
 318              	.LBB273:
 319              	.LBI273:
 320              		.file 3 "./docs/ChibiOS/os/rt/include/chvt.h"
 321              		.loc 3 135 25 view .LVU85
 322              		.loc 3 140 3 view .LVU86
 323              	.LBB274:
 324              	.LBI274:
 325              		.file 4 "./docs/ChibiOS/os/hal/osal/rt-nil/chcore_timer.h"
 326              		.loc 4 111 25 view .LVU87
 327              	.LBB275:
 328              		.loc 4 113 3 view .LVU88
 329              		.loc 4 113 10 is_stmt 0 view .LVU89
 330 002c FFF7FEFF 		bl	stGetCounter
 331              	.LVL11:
 332 0030 0390     		str	r0, [sp, #12]
 333              	.LVL12:
 334              		.loc 4 113 10 view .LVU90
 335              	.LBE275:
 336              	.LBE274:
 337              	.LBE273:
 338              		.loc 1 216 9 is_stmt 1 view .LVU91
 339              		.loc 1 216 12 is_stmt 0 view .LVU92
 340 0032 6B7C     		ldrb	r3, [r5, #17]	@ zero_extendqisi2
ARM GAS  C:\Users\DEVELO~1\AppData\Local\Temp\ccyYyX0m.s 			page 7


 341 0034 002B     		cmp	r3, #0
 342 0036 40F04781 		bne	.L111
 343              		.loc 1 228 9 is_stmt 1 view .LVU93
 344              		.loc 1 229 31 is_stmt 0 view .LVU94
 345 003a 2C78     		ldrb	r4, [r5]	@ zero_extendqisi2
 346              		.loc 1 228 20 view .LVU95
 347 003c 9AF80070 		ldrb	r7, [r10]	@ zero_extendqisi2
 348              	.LVL13:
 349              		.loc 1 229 9 is_stmt 1 view .LVU96
 350              		.loc 1 229 53 is_stmt 0 view .LVU97
 351 0040 E31F     		subs	r3, r4, #7
 352              		.loc 1 229 86 view .LVU98
 353 0042 012B     		cmp	r3, #1
 354 0044 04D9     		bls	.L85
 355 0046 1CB1     		cbz	r4, .L85
 356              	.LVL14:
 357              		.loc 1 230 9 is_stmt 1 view .LVU99
 358              		.loc 1 231 13 view .LVU100
 359              	.LBB276:
 360              	.LBI276:
 361              		.loc 1 87 13 view .LVU101
 362              	.LBB277:
 363              		.loc 1 88 5 view .LVU102
 364              		.loc 1 88 16 is_stmt 0 view .LVU103
 365 0048 0623     		movs	r3, #6
 366 004a 8AF80030 		strb	r3, [r10]
 367              	.LBE277:
 368              	.LBE276:
 369              		.loc 1 234 20 view .LVU104
 370 004e 2C78     		ldrb	r4, [r5]	@ zero_extendqisi2
 371              	.LVL15:
 372              	.L85:
 373              		.loc 1 233 9 is_stmt 1 view .LVU105
 374              		.loc 1 234 9 view .LVU106
 375 0050 082C     		cmp	r4, #8
 376 0052 00F2D481 		bhi	.L43
 377 0056 DFE814F0 		tbh	[pc, r4, lsl #1]
 378              	.L45:
 379 005a 1501     		.2byte	(.L53-.L45)/2
 380 005c 0701     		.2byte	(.L52-.L45)/2
 381 005e FD00     		.2byte	(.L51-.L45)/2
 382 0060 EC00     		.2byte	(.L50-.L45)/2
 383 0062 D500     		.2byte	(.L49-.L45)/2
 384 0064 C800     		.2byte	(.L48-.L45)/2
 385 0066 5A00     		.2byte	(.L47-.L45)/2
 386 0068 5100     		.2byte	(.L46-.L45)/2
 387 006a 0900     		.2byte	(.L44-.L45)/2
 388              		.p2align 1
 389              	.L44:
 390              		.loc 1 266 13 view .LVU107
 391              	.LBB278:
 392              	.LBI278:
 393              		.loc 1 178 19 view .LVU108
 394              	.LBB279:
 395              		.loc 1 179 5 view .LVU109
 396 006c 4822     		movs	r2, #72
 397 006e 0021     		movs	r1, #0
ARM GAS  C:\Users\DEVELO~1\AppData\Local\Temp\ccyYyX0m.s 			page 8


 398 0070 8F48     		ldr	r0, .L121+12
 399              	.LVL16:
 400              		.loc 1 179 5 is_stmt 0 view .LVU110
 401 0072 FFF7FEFF 		bl	memset
 402              	.LVL17:
 403              	.L108:
 404              		.loc 1 180 5 is_stmt 1 view .LVU111
 405              		.loc 1 180 5 is_stmt 0 view .LVU112
 406              	.LBE279:
 407              	.LBE278:
 408              		.loc 1 267 13 is_stmt 1 view .LVU113
 409              	.LBB280:
 410              	.LBI280:
 411              		.loc 1 87 13 view .LVU114
 412              	.LBB281:
 413              		.loc 1 88 5 view .LVU115
 414              	.LBE281:
 415              	.LBE280:
 416              		.loc 1 274 21 is_stmt 0 view .LVU116
 417 0076 0024     		movs	r4, #0
 418              		.loc 1 275 25 view .LVU117
 419 0078 8E4B     		ldr	r3, .L121+16
 420              	.LBB283:
 421              	.LBB282:
 422              		.loc 1 88 16 view .LVU118
 423 007a 8AF80070 		strb	r7, [r10]
 424              	.LVL18:
 425              		.loc 1 88 16 view .LVU119
 426              	.LBE282:
 427              	.LBE283:
 428              		.loc 1 274 9 is_stmt 1 view .LVU120
 429              		.loc 1 274 21 is_stmt 0 view .LVU121
 430 007e 6C70     		strb	r4, [r5, #1]
 431              		.loc 1 275 9 is_stmt 1 view .LVU122
 432              		.loc 1 275 25 is_stmt 0 view .LVU123
 433 0080 1C70     		strb	r4, [r3]
 434              		.loc 1 276 9 is_stmt 1 view .LVU124
 435              	.LVL19:
 436              	.LBB284:
 437              	.LBI284:
 438              		.loc 1 183 13 view .LVU125
 439              	.LBB285:
 440              		.loc 1 184 5 view .LVU126
 441              	.L54:
 442              		.loc 1 184 5 is_stmt 0 view .LVU127
 443              	.LBE285:
 444              	.LBE284:
 445              		.loc 1 277 9 is_stmt 1 view .LVU128
 446              	.LBB301:
 447              	.LBI301:
 448              		.loc 1 91 13 view .LVU129
 449              	.LBB302:
 450              		.loc 1 92 5 view .LVU130
 451              		.loc 1 92 9 is_stmt 0 view .LVU131
 452 0082 FFF7FEFF 		bl	drv_sd_fs_consume_write_protect_event
 453              	.LVL20:
 454              		.loc 1 92 8 view .LVU132
ARM GAS  C:\Users\DEVELO~1\AppData\Local\Temp\ccyYyX0m.s 			page 9


 455 0086 0028     		cmp	r0, #0
 456 0088 7DD1     		bne	.L112
 457              	.L69:
 458              	.LBE302:
 459              	.LBE301:
 460              		.loc 1 278 9 is_stmt 1 view .LVU133
 461              	.LVL21:
 462              	.LBB356:
 463              	.LBI356:
 464              		.loc 3 172 29 view .LVU134
 465              		.loc 3 174 3 view .LVU135
 466              	.LBB357:
 467              	.LBI357:
 468              		.loc 3 135 25 view .LVU136
 469              		.loc 3 140 3 view .LVU137
 470              	.LBB358:
 471              	.LBI358:
 472              		.loc 4 111 25 view .LVU138
 473              	.LBB359:
 474              		.loc 4 113 3 view .LVU139
 475              		.loc 4 113 10 is_stmt 0 view .LVU140
 476 008a FFF7FEFF 		bl	stGetCounter
 477              	.LVL22:
 478              		.loc 4 113 10 view .LVU141
 479              	.LBE359:
 480              	.LBE358:
 481              	.LBE357:
 482              	.LBB360:
 483              	.LBI360:
 484              		.file 5 "./docs/ChibiOS/os/rt/include/chtime.h"
 485              		.loc 5 461 29 is_stmt 1 view .LVU142
 486              	.LBB361:
 487              		.loc 5 465 3 view .LVU143
 488              		.loc 5 465 3 is_stmt 0 view .LVU144
 489              	.LBE361:
 490              	.LBE360:
 491              	.LBE356:
 492              		.loc 1 279 9 is_stmt 1 view .LVU145
 493              	.LBB366:
 494              	.LBB364:
 495              	.LBB362:
 496              		.loc 5 465 10 is_stmt 0 view .LVU146
 497 008e 039B     		ldr	r3, [sp, #12]
 498              	.LBE362:
 499              	.LBE364:
 500              	.LBE366:
 501              		.loc 1 278 41 view .LVU147
 502 0090 894F     		ldr	r7, .L121+20
 503 0092 42F20F72 		movw	r2, #9999
 504              	.LBB367:
 505              	.LBB365:
 506              	.LBB363:
 507              		.loc 5 465 10 view .LVU148
 508 0096 C31A     		subs	r3, r0, r3
 509              	.LBE363:
 510              	.LBE365:
 511              	.LBE367:
ARM GAS  C:\Users\DEVELO~1\AppData\Local\Temp\ccyYyX0m.s 			page 10


 512              		.loc 1 278 41 view .LVU149
 513 0098 0021     		movs	r1, #0
 514 009a E3FB0721 		umlal	r2, r1, r3, r7
 515 009e 0023     		movs	r3, #0
 516 00a0 1046     		mov	r0, r2
 517              	.LVL23:
 518              		.loc 1 278 41 view .LVU150
 519 00a2 42F21072 		movw	r2, #10000
 520 00a6 FFF7FEFF 		bl	__aeabi_uldivmod
 521              	.LVL24:
 522 00aa 0146     		mov	r1, r0
 523              		.loc 1 279 9 view .LVU151
 524 00ac 2046     		mov	r0, r4
 525 00ae FFF7FEFF 		bl	sd_stats_record
 526              	.LVL25:
 527              		.loc 1 280 9 is_stmt 1 view .LVU152
 528              	.LBB368:
 529              	.LBI368:
 530              		.file 6 "./docs/ChibiOS/os/oslib/include/chbsem.h"
 531              		.loc 6 277 20 view .LVU153
 532              	.LBB369:
 533              		.loc 6 279 3 view .LVU154
 534              	.LBB370:
 535              	.LBI370:
 536              		.file 7 "./docs/ChibiOS/os/rt/include/chsys.h"
 537              		.loc 7 372 20 view .LVU155
 538              		.loc 7 374 3 view .LVU156
 539              	.LBB371:
 540              	.LBI371:
 541              		.file 8 "./docs/ChibiOS/os/common/ports/ARMv7-M/chcore.h"
 542              		.loc 8 840 27 view .LVU157
 543              		.loc 8 848 3 view .LVU158
 544              	.LBB372:
 545              	.LBI372:
 546              		.file 9 "./docs/ChibiOS/os/common/ext/ARM/CMSIS/Core/Include/cmsis_gcc.h"
 547              		.loc 9 491 27 view .LVU159
 548              	.LBB373:
 549              		.loc 9 493 3 view .LVU160
 550 00b2 3023     		movs	r3, #48
 551              		.syntax unified
 552              	@ 493 "./docs/ChibiOS/os/common/ext/ARM/CMSIS/Core/Include/cmsis_gcc.h" 1
 553 00b4 83F31188 		MSR basepri, r3
 554              	@ 0 "" 2
 555              	.LVL26:
 556              		.loc 9 493 3 is_stmt 0 view .LVU161
 557              		.thumb
 558              		.syntax unified
 559              	.LBE373:
 560              	.LBE372:
 561              	.LBE371:
 562              		.loc 7 375 35 is_stmt 1 view .LVU162
 563              		.loc 7 376 21 view .LVU163
 564              	.LBE370:
 565              		.loc 6 280 3 view .LVU164
 566              	.LBB374:
 567              	.LBI374:
 568              		.loc 6 261 20 view .LVU165
ARM GAS  C:\Users\DEVELO~1\AppData\Local\Temp\ccyYyX0m.s 			page 11


 569              	.LBB375:
 570              		.loc 6 263 21 view .LVU166
 571              		.loc 6 265 3 view .LVU167
 572              		.loc 6 265 6 is_stmt 0 view .LVU168
 573 00b8 EB68     		ldr	r3, [r5, #12]
 574 00ba 002B     		cmp	r3, #0
 575 00bc 40F36981 		ble	.L113
 576              	.L81:
 577              	.LVL27:
 578              		.loc 6 265 6 view .LVU169
 579              	.LBE375:
 580              	.LBE374:
 581              		.loc 6 281 3 is_stmt 1 view .LVU170
 582 00c0 FFF7FEFF 		bl	chSchRescheduleS
 583              	.LVL28:
 584              		.loc 6 282 3 view .LVU171
 585              	.LBB377:
 586              	.LBI377:
 587              		.loc 7 386 20 view .LVU172
 588              	.LBB378:
 589              		.loc 7 388 23 view .LVU173
 590              		.loc 7 389 34 view .LVU174
 591              		.loc 7 395 3 view .LVU175
 592              		.loc 7 395 3 view .LVU176
 593              		.loc 7 395 3 view .LVU177
 594              		.loc 7 399 3 view .LVU178
 595              	.LBB379:
 596              	.LBI379:
 597              		.loc 8 864 27 view .LVU179
 598              		.loc 8 867 3 view .LVU180
 599              	.LBB380:
 600              	.LBI380:
 601              		.loc 9 491 27 view .LVU181
 602              	.LBB381:
 603              		.loc 9 493 3 view .LVU182
 604 00c4 0023     		movs	r3, #0
 605              		.syntax unified
 606              	@ 493 "./docs/ChibiOS/os/common/ext/ARM/CMSIS/Core/Include/cmsis_gcc.h" 1
 607 00c6 83F31188 		MSR basepri, r3
 608              	@ 0 "" 2
 609              	.LVL29:
 610              		.loc 9 493 3 is_stmt 0 view .LVU183
 611              		.thumb
 612              		.syntax unified
 613              	.LBE381:
 614              	.LBE380:
 615              	.LBE379:
 616              	.LBE378:
 617              	.LBE377:
 618              	.LBE369:
 619              	.LBE368:
 620              		.loc 1 281 9 is_stmt 1 view .LVU184
 621              		.loc 1 282 13 view .LVU185
 622              	.LBB384:
 623              	.LBI257:
 624              		.loc 1 310 6 view .LVU186
 625              	.LBB270:
ARM GAS  C:\Users\DEVELO~1\AppData\Local\Temp\ccyYyX0m.s 			page 12


 626              		.loc 1 311 5 view .LVU187
 627              		.loc 1 311 8 is_stmt 0 view .LVU188
 628 00ca 2B7C     		ldrb	r3, [r5, #16]	@ zero_extendqisi2
 629 00cc 012B     		cmp	r3, #1
 630 00ce A3D1     		bne	.L84
 631 00d0 B5FA85F4 		clz	r4, r5
 632 00d4 6409     		lsrs	r4, r4, #5
 633 00d6 002D     		cmp	r5, #0
 634 00d8 9ED0     		beq	.L84
 635              	.LVL30:
 636              	.LBB267:
 637              	.LBI259:
 638              		.loc 1 310 6 is_stmt 1 view .LVU189
 639              	.LBB264:
 640              		.loc 1 314 5 view .LVU190
 641 00da 5846     		mov	r0, fp
 642 00dc FFF7FEFF 		bl	chMtxLock
 643              	.LVL31:
 644              		.loc 1 315 5 view .LVU191
 645              	.LBB261:
 646              		.loc 1 315 10 view .LVU192
 647              		.loc 1 315 26 view .LVU193
 648 00e0 764A     		ldr	r2, .L121+24
 649              		.loc 1 315 17 is_stmt 0 view .LVU194
 650 00e2 2346     		mov	r3, r4
 651              	.LVL32:
 652              	.L83:
 653              		.loc 1 316 9 is_stmt 1 view .LVU195
 654              		.loc 1 315 43 view .LVU196
 655              		.loc 1 316 12 is_stmt 0 view .LVU197
 656 00e4 9542     		cmp	r5, r2
 657              		.loc 1 315 26 view .LVU198
 658 00e6 02F13C02 		add	r2, r2, #60
 659              		.loc 1 316 12 view .LVU199
 660 00ea 00F02D81 		beq	.L106
 661              		.loc 1 315 43 view .LVU200
 662 00ee 0133     		adds	r3, r3, #1
 663              	.LVL33:
 664              		.loc 1 315 26 is_stmt 1 view .LVU201
 665 00f0 082B     		cmp	r3, #8
 666 00f2 F7D1     		bne	.L83
 667              	.LVL34:
 668              	.L38:
 669              		.loc 1 315 26 is_stmt 0 view .LVU202
 670              	.LBE261:
 671              	.LBE264:
 672              	.LBE267:
 673              	.LBE270:
 674              	.LBE384:
 675              	.LBB385:
 676              	.LBB386:
 677              	.LBB387:
 678              	.LBB388:
 679              	.LBB389:
 680              		.loc 1 321 5 is_stmt 1 view .LVU203
 681 00f4 5846     		mov	r0, fp
 682 00f6 FFF7FEFF 		bl	chMtxUnlock
ARM GAS  C:\Users\DEVELO~1\AppData\Local\Temp\ccyYyX0m.s 			page 13


 683              	.LVL35:
 684 00fa 8DE7     		b	.L84
 685              	.LVL36:
 686              	.L46:
 687              		.loc 1 321 5 is_stmt 0 view .LVU204
 688              	.LBE389:
 689              	.LBE388:
 690              	.LBE387:
 691              	.LBE386:
 692              	.LBE385:
 693              		.loc 1 262 13 is_stmt 1 view .LVU205
 694 00fc 6869     		ldr	r0, [r5, #20]
 695              	.LVL37:
 696              	.LBB432:
 697              	.LBI432:
 698              		.loc 1 170 19 view .LVU206
 699              	.LBB433:
 700              		.loc 1 171 5 view .LVU207
 701              		.loc 1 171 8 is_stmt 0 view .LVU208
 702 00fe 0028     		cmp	r0, #0
 703 0100 00F06981 		beq	.L65
 704              		.loc 1 174 5 is_stmt 1 view .LVU209
 705 0104 4822     		movs	r2, #72
 706 0106 6A49     		ldr	r1, .L121+12
 707 0108 FFF7FEFF 		bl	memcpy
 708              	.LVL38:
 709              		.loc 1 175 5 view .LVU210
 710              		.loc 1 175 5 is_stmt 0 view .LVU211
 711              	.LBE433:
 712              	.LBE432:
 713              		.loc 1 263 13 is_stmt 1 view .LVU212
 714              	.LBB434:
 715              	.LBI434:
 716              		.loc 1 87 13 view .LVU213
 717              	.LBB435:
 718              		.loc 1 88 5 view .LVU214
 719 010c B3E7     		b	.L108
 720              	.LVL39:
 721              	.L47:
 722              		.loc 1 88 5 is_stmt 0 view .LVU215
 723              	.LBE435:
 724              	.LBE434:
 725              		.loc 1 258 13 is_stmt 1 view .LVU216
 726              	.LBB438:
 727              	.LBI438:
 728              		.loc 1 161 19 view .LVU217
 729              	.LBB439:
 730              		.loc 1 162 5 view .LVU218
 731              		.loc 1 162 10 is_stmt 0 view .LVU219
 732 010e FFF7FEFF 		bl	drv_sd_fs_is_mounted
 733              	.LVL40:
 734              		.loc 1 162 8 view .LVU220
 735 0112 0028     		cmp	r0, #0
 736 0114 00F05081 		beq	.L109
 737              		.loc 1 165 5 is_stmt 1 view .LVU221
 738              		.loc 1 165 12 is_stmt 0 view .LVU222
 739 0118 6869     		ldr	r0, [r5, #20]
ARM GAS  C:\Users\DEVELO~1\AppData\Local\Temp\ccyYyX0m.s 			page 14


 740 011a D5E90612 		ldrd	r1, r2, [r5, #24]
 741 011e FFF7FEFF 		bl	drv_sd_project_list_projects
 742              	.LVL41:
 743 0122 0446     		mov	r4, r0
 744              	.LVL42:
 745              		.loc 1 165 12 view .LVU223
 746              	.LBE439:
 747              	.LBE438:
 748              		.loc 1 259 13 is_stmt 1 view .LVU224
 749              	.LBB440:
 750              	.LBI440:
 751              		.loc 1 87 13 view .LVU225
 752              	.LBB441:
 753              		.loc 1 88 5 view .LVU226
 754              	.L57:
 755              		.loc 1 88 5 is_stmt 0 view .LVU227
 756              	.LBE441:
 757              	.LBE440:
 758              		.loc 1 275 25 view .LVU228
 759 0124 634A     		ldr	r2, .L121+16
 760 0126 631E     		subs	r3, r4, #1
 761              	.LBB444:
 762              	.LBB445:
 763              	.LBB446:
 764              	.LBB447:
 765              		.loc 1 88 16 view .LVU229
 766 0128 8AF80070 		strb	r7, [r10]
 767              	.LVL43:
 768              		.loc 1 88 16 view .LVU230
 769              	.LBE447:
 770              	.LBE446:
 771              	.LBE445:
 772              	.LBE444:
 773              		.loc 1 274 9 is_stmt 1 view .LVU231
 774              		.loc 1 274 21 is_stmt 0 view .LVU232
 775 012c 6C70     		strb	r4, [r5, #1]
 776              		.loc 1 275 9 is_stmt 1 view .LVU233
 777              		.loc 1 275 25 is_stmt 0 view .LVU234
 778 012e 1470     		strb	r4, [r2]
 779              		.loc 1 276 9 is_stmt 1 view .LVU235
 780              	.LVL44:
 781              	.LBB462:
 782              		.loc 1 183 13 view .LVU236
 783              	.LBB292:
 784              		.loc 1 184 5 view .LVU237
 785 0130 092B     		cmp	r3, #9
 786 0132 A6D8     		bhi	.L54
 787 0134 01A2     		adr	r2, .L67
 788 0136 52F823F0 		ldr	pc, [r2, r3, lsl #2]
 789 013a 00BF     		.p2align 2
 790              	.L67:
 791 013c 7D020000 		.word	.L56+1
 792 0140 83000000 		.word	.L54+1
 793 0144 83000000 		.word	.L54+1
 794 0148 71010000 		.word	.L60+1
 795 014c 79010000 		.word	.L107+1
 796 0150 71010000 		.word	.L60+1
ARM GAS  C:\Users\DEVELO~1\AppData\Local\Temp\ccyYyX0m.s 			page 15


 797 0154 83000000 		.word	.L54+1
 798 0158 71010000 		.word	.L60+1
 799 015c 83000000 		.word	.L54+1
 800 0160 9D020000 		.word	.L66+1
 801              	.LVL45:
 802              		.p2align 1
 803              	.L116:
 804              		.loc 1 184 5 is_stmt 0 view .LVU238
 805              	.LBE292:
 806              	.LBE462:
 807              		.loc 1 251 13 is_stmt 1 view .LVU239
 808              	.LBB463:
 809              	.LBI463:
 810              		.loc 1 87 13 view .LVU240
 811              	.LBB464:
 812              		.loc 1 88 5 view .LVU241
 813              	.LBE464:
 814              	.LBE463:
 815              		.loc 1 274 21 is_stmt 0 view .LVU242
 816 0164 0624     		movs	r4, #6
 817              		.loc 1 275 25 view .LVU243
 818 0166 534B     		ldr	r3, .L121+16
 819              	.LBB467:
 820              	.LBB465:
 821              		.loc 1 88 16 view .LVU244
 822 0168 8AF80070 		strb	r7, [r10]
 823              	.LVL46:
 824              		.loc 1 88 16 view .LVU245
 825              	.LBE465:
 826              	.LBE467:
 827              		.loc 1 274 9 is_stmt 1 view .LVU246
 828              		.loc 1 274 21 is_stmt 0 view .LVU247
 829 016c 6C70     		strb	r4, [r5, #1]
 830              		.loc 1 275 9 is_stmt 1 view .LVU248
 831              		.loc 1 275 25 is_stmt 0 view .LVU249
 832 016e 1C70     		strb	r4, [r3]
 833              		.loc 1 276 9 is_stmt 1 view .LVU250
 834              	.LVL47:
 835              	.LBB468:
 836              		.loc 1 183 13 view .LVU251
 837              	.LBB293:
 838              		.loc 1 184 5 view .LVU252
 839              	.L60:
 840              		.loc 1 192 9 view .LVU253
 841              		.loc 1 192 12 is_stmt 0 view .LVU254
 842 0170 9AF80030 		ldrb	r3, [r10]	@ zero_extendqisi2
 843 0174 022B     		cmp	r3, #2
 844 0176 84D1     		bne	.L54
 845              	.L107:
 846              		.loc 1 193 13 is_stmt 1 view .LVU255
 847              	.LVL48:
 848              	.LBB286:
 849              	.LBI286:
 850              		.loc 1 87 13 view .LVU256
 851              	.LBB287:
 852              		.loc 1 88 5 view .LVU257
 853              		.loc 1 88 16 is_stmt 0 view .LVU258
ARM GAS  C:\Users\DEVELO~1\AppData\Local\Temp\ccyYyX0m.s 			page 16


 854 0178 0423     		movs	r3, #4
 855 017a 8AF80030 		strb	r3, [r10]
 856              	.LVL49:
 857              		.loc 1 88 16 view .LVU259
 858              	.LBE287:
 859              	.LBE286:
 860              	.LBE293:
 861              	.LBE468:
 862              		.loc 1 277 9 is_stmt 1 view .LVU260
 863              	.LBB469:
 864              		.loc 1 91 13 view .LVU261
 865              	.LBB353:
 866              		.loc 1 92 5 view .LVU262
 867              		.loc 1 92 9 is_stmt 0 view .LVU263
 868 017e FFF7FEFF 		bl	drv_sd_fs_consume_write_protect_event
 869              	.LVL50:
 870              		.loc 1 92 8 view .LVU264
 871 0182 0028     		cmp	r0, #0
 872 0184 81D0     		beq	.L69
 873              	.L112:
 874              		.loc 1 93 9 is_stmt 1 view .LVU265
 875              	.LVL51:
 876              	.LBB303:
 877              	.LBI303:
 878              		.loc 1 87 13 view .LVU266
 879              	.LBB304:
 880              		.loc 1 88 5 view .LVU267
 881              	.LBE304:
 882              	.LBE303:
 883              	.LBB307:
 884              	.LBB308:
 885              		.loc 1 37 12 is_stmt 0 view .LVU268
 886 0186 0027     		movs	r7, #0
 887              	.LBE308:
 888              	.LBE307:
 889              	.LBB347:
 890              	.LBB305:
 891              		.loc 1 88 16 view .LVU269
 892 0188 0323     		movs	r3, #3
 893 018a A046     		mov	r8, r4
 894              	.LBE305:
 895              	.LBE347:
 896              	.LBB348:
 897              	.LBB343:
 898              		.loc 1 39 12 view .LVU270
 899 018c B946     		mov	r9, r7
 900              	.LBE343:
 901              	.LBE348:
 902              	.LBB349:
 903              	.LBB306:
 904              		.loc 1 88 16 view .LVU271
 905 018e 8AF80030 		strb	r3, [r10]
 906              	.LVL52:
 907              		.loc 1 88 16 view .LVU272
 908              	.LBE306:
 909              	.LBE349:
 910              		.loc 1 94 9 is_stmt 1 view .LVU273
ARM GAS  C:\Users\DEVELO~1\AppData\Local\Temp\ccyYyX0m.s 			page 17


 911              	.LBB350:
 912              	.LBI307:
 913              		.loc 1 35 13 view .LVU274
 914              	.LBB344:
 915              		.loc 1 36 5 view .LVU275
 916              		.loc 1 37 5 view .LVU276
 917              		.loc 1 38 5 view .LVU277
 918              		.loc 1 39 5 view .LVU278
 919              	.L70:
 920              		.loc 1 39 59 view .LVU279
 921              		.loc 1 39 12 is_stmt 0 view .LVU280
 922 0192 0022     		movs	r2, #0
 923 0194 05A9     		add	r1, sp, #20
 924 0196 3046     		mov	r0, r6
 925 0198 FFF7FEFF 		bl	chMBFetchTimeout
 926              	.LVL53:
 927              		.loc 1 39 59 view .LVU281
 928 019c 90B9     		cbnz	r0, .L114
 929              	.L77:
 930              	.LBB309:
 931              		.loc 1 40 9 is_stmt 1 view .LVU282
 932              		.loc 1 40 29 is_stmt 0 view .LVU283
 933 019e 059C     		ldr	r4, [sp, #20]
 934              	.LVL54:
 935              		.loc 1 41 9 is_stmt 1 view .LVU284
 936              	.LBB310:
 937              	.LBI310:
 938              		.loc 1 28 13 view .LVU285
 939              	.LBB311:
 940              		.loc 1 29 5 view .LVU286
 941              		.loc 1 29 8 is_stmt 0 view .LVU287
 942 01a0 1CB1     		cbz	r4, .L71
 943              		.loc 1 32 5 is_stmt 1 view .LVU288
 944              	.LVL55:
 945              		.loc 1 32 5 is_stmt 0 view .LVU289
 946              	.LBE311:
 947              	.LBE310:
 948              		.loc 1 41 12 view .LVU290
 949 01a2 2378     		ldrb	r3, [r4]	@ zero_extendqisi2
 950 01a4 042B     		cmp	r3, #4
 951 01a6 00F0D680 		beq	.L115
 952              	.L71:
 953              		.loc 1 47 13 is_stmt 1 view .LVU291
 954              	.LVL56:
 955              		.loc 1 47 38 is_stmt 0 view .LVU292
 956 01aa 0EAB     		add	r3, sp, #56
 957              	.LBE309:
 958              		.loc 1 39 12 view .LVU293
 959 01ac 0022     		movs	r2, #0
 960 01ae 05A9     		add	r1, sp, #20
 961 01b0 3046     		mov	r0, r6
 962              	.LBB338:
 963              		.loc 1 47 38 view .LVU294
 964 01b2 03EB8703 		add	r3, r3, r7, lsl #2
 965              		.loc 1 47 34 view .LVU295
 966 01b6 0137     		adds	r7, r7, #1
 967              	.LVL57:
ARM GAS  C:\Users\DEVELO~1\AppData\Local\Temp\ccyYyX0m.s 			page 18


 968              		.loc 1 47 34 view .LVU296
 969              	.LBE338:
 970              		.loc 1 39 59 is_stmt 1 view .LVU297
 971              	.LBB339:
 972              		.loc 1 47 38 is_stmt 0 view .LVU298
 973 01b8 43F8204C 		str	r4, [r3, #-32]
 974              	.LBE339:
 975              		.loc 1 39 12 view .LVU299
 976 01bc FFF7FEFF 		bl	chMBFetchTimeout
 977              	.LVL58:
 978              		.loc 1 39 59 view .LVU300
 979 01c0 0028     		cmp	r0, #0
 980 01c2 ECD0     		beq	.L77
 981              	.LVL59:
 982              	.L114:
 983              	.LBB340:
 984              		.loc 1 50 26 is_stmt 1 view .LVU301
 985 01c4 4446     		mov	r4, r8
 986 01c6 002F     		cmp	r7, #0
 987 01c8 3FF45FAF 		beq	.L69
 988 01cc 0DF11408 		add	r8, sp, #20
 989              		.loc 1 50 17 is_stmt 0 view .LVU302
 990 01d0 4FF00009 		mov	r9, #0
 991              	.LVL60:
 992              	.L79:
 993              		.loc 1 51 9 is_stmt 1 view .LVU303
 994              		.loc 1 50 43 is_stmt 0 view .LVU304
 995 01d4 09F10109 		add	r9, r9, #1
 996              	.LVL61:
 997              		.loc 1 51 15 view .LVU305
 998 01d8 0022     		movs	r2, #0
 999 01da 58F8041F 		ldr	r1, [r8, #4]!
 1000 01de 3046     		mov	r0, r6
 1001 01e0 FFF7FEFF 		bl	chMBPostTimeout
 1002              	.LVL62:
 1003              		.loc 1 50 43 is_stmt 1 view .LVU306
 1004              		.loc 1 50 26 view .LVU307
 1005 01e4 4F45     		cmp	r7, r9
 1006 01e6 F5D1     		bne	.L79
 1007              		.loc 1 50 26 is_stmt 0 view .LVU308
 1008 01e8 4FE7     		b	.L69
 1009              	.LVL63:
 1010              	.L48:
 1011              		.loc 1 50 26 view .LVU309
 1012              	.LBE340:
 1013              	.LBE344:
 1014              	.LBE350:
 1015              	.LBE353:
 1016              	.LBE469:
 1017              		.loc 1 254 13 is_stmt 1 view .LVU310
 1018              	.LBB470:
 1019              	.LBI470:
 1020              		.loc 1 151 19 view .LVU311
 1021              	.LBB471:
 1022              		.loc 1 152 5 view .LVU312
 1023              		.loc 1 152 10 is_stmt 0 view .LVU313
 1024 01ea FFF7FEFF 		bl	drv_sd_fs_is_mounted
ARM GAS  C:\Users\DEVELO~1\AppData\Local\Temp\ccyYyX0m.s 			page 19


 1025              	.LVL64:
 1026              		.loc 1 152 8 view .LVU314
 1027 01ee 0028     		cmp	r0, #0
 1028 01f0 00F0E280 		beq	.L109
 1029              		.loc 1 155 5 is_stmt 1 view .LVU315
 1030              		.loc 1 155 12 is_stmt 0 view .LVU316
 1031 01f4 D5E90723 		ldrd	r2, r3, [r5, #28]
 1032 01f8 D5E90501 		ldrd	r0, r1, [r5, #20]
 1033 01fc FFF7FEFF 		bl	drv_sd_project_load_sample
 1034              	.LVL65:
 1035 0200 0446     		mov	r4, r0
 1036              	.LVL66:
 1037              		.loc 1 155 12 view .LVU317
 1038              	.LBE471:
 1039              	.LBE470:
 1040              		.loc 1 255 13 is_stmt 1 view .LVU318
 1041              	.LBB472:
 1042              	.LBI472:
 1043              		.loc 1 87 13 view .LVU319
 1044              	.LBB473:
 1045              		.loc 1 88 5 view .LVU320
 1046              		.loc 1 89 1 is_stmt 0 view .LVU321
 1047 0202 8FE7     		b	.L57
 1048              	.LVL67:
 1049              	.L49:
 1050              		.loc 1 89 1 view .LVU322
 1051              	.LBE473:
 1052              	.LBE472:
 1053              		.loc 1 250 13 is_stmt 1 view .LVU323
 1054              	.LBB474:
 1055              	.LBI474:
 1056              		.loc 1 137 19 view .LVU324
 1057              	.LBB475:
 1058              		.loc 1 138 5 view .LVU325
 1059              		.loc 1 138 43 is_stmt 0 view .LVU326
 1060 0204 9AF80030 		ldrb	r3, [r10]	@ zero_extendqisi2
 1061              		.loc 1 138 8 view .LVU327
 1062 0208 033B     		subs	r3, r3, #3
 1063 020a 012B     		cmp	r3, #1
 1064 020c AAD9     		bls	.L116
 1065              		.loc 1 141 5 is_stmt 1 view .LVU328
 1066              		.loc 1 141 10 is_stmt 0 view .LVU329
 1067 020e FFF7FEFF 		bl	drv_sd_fs_is_mounted
 1068              	.LVL68:
 1069              		.loc 1 141 8 view .LVU330
 1070 0212 0028     		cmp	r0, #0
 1071 0214 00F0D080 		beq	.L109
 1072              		.loc 1 144 5 is_stmt 1 view .LVU331
 1073              		.loc 1 144 12 is_stmt 0 view .LVU332
 1074 0218 95F83440 		ldrb	r4, [r5, #52]	@ zero_extendqisi2
 1075 021c D5E90501 		ldrd	r0, r1, [r5, #20]
 1076 0220 D5E90B23 		ldrd	r2, r3, [r5, #44]
 1077 0224 04B1     		cbz	r4, .L62
 1078 0226 AC6B     		ldr	r4, [r5, #56]
 1079              	.L62:
 1080              		.loc 1 144 12 view .LVU333
 1081 0228 0094     		str	r4, [sp]
ARM GAS  C:\Users\DEVELO~1\AppData\Local\Temp\ccyYyX0m.s 			page 20


 1082 022a FFF7FEFF 		bl	drv_sd_project_save_pattern
 1083              	.LVL69:
 1084 022e 0446     		mov	r4, r0
 1085              	.LVL70:
 1086              		.loc 1 144 12 view .LVU334
 1087              	.LBE475:
 1088              	.LBE474:
 1089              		.loc 1 251 13 is_stmt 1 view .LVU335
 1090              	.LBB476:
 1091              		.loc 1 87 13 view .LVU336
 1092              	.LBB466:
 1093              		.loc 1 88 5 view .LVU337
 1094              		.loc 1 89 1 is_stmt 0 view .LVU338
 1095 0230 78E7     		b	.L57
 1096              	.LVL71:
 1097              	.L50:
 1098              		.loc 1 89 1 view .LVU339
 1099              	.LBE466:
 1100              	.LBE476:
 1101              		.loc 1 246 13 is_stmt 1 view .LVU340
 1102              	.LBB477:
 1103              	.LBI477:
 1104              		.loc 1 125 19 view .LVU341
 1105              	.LBB478:
 1106              		.loc 1 126 5 view .LVU342
 1107              		.loc 1 126 10 is_stmt 0 view .LVU343
 1108 0232 FFF7FEFF 		bl	drv_sd_fs_is_mounted
 1109              	.LVL72:
 1110              		.loc 1 126 8 view .LVU344
 1111 0236 0028     		cmp	r0, #0
 1112 0238 00F0BE80 		beq	.L109
 1113              		.loc 1 129 5 is_stmt 1 view .LVU345
 1114              		.loc 1 129 12 is_stmt 0 view .LVU346
 1115 023c AC6A     		ldr	r4, [r5, #40]
 1116 023e D5E90723 		ldrd	r2, r3, [r5, #28]
 1117 0242 D5E90501 		ldrd	r0, r1, [r5, #20]
 1118 0246 0194     		str	r4, [sp, #4]
 1119 0248 6C6A     		ldr	r4, [r5, #36]
 1120 024a 0094     		str	r4, [sp]
 1121 024c FFF7FEFF 		bl	drv_sd_project_load_pattern
 1122              	.LVL73:
 1123 0250 0446     		mov	r4, r0
 1124              	.LVL74:
 1125              		.loc 1 129 12 view .LVU347
 1126              	.LBE478:
 1127              	.LBE477:
 1128              		.loc 1 247 13 is_stmt 1 view .LVU348
 1129              	.LBB479:
 1130              	.LBI479:
 1131              		.loc 1 87 13 view .LVU349
 1132              	.LBB480:
 1133              		.loc 1 88 5 view .LVU350
 1134              		.loc 1 89 1 is_stmt 0 view .LVU351
 1135 0252 67E7     		b	.L57
 1136              	.LVL75:
 1137              	.L51:
 1138              		.loc 1 89 1 view .LVU352
ARM GAS  C:\Users\DEVELO~1\AppData\Local\Temp\ccyYyX0m.s 			page 21


 1139              	.LBE480:
 1140              	.LBE479:
 1141              		.loc 1 243 13 is_stmt 1 view .LVU353
 1142              	.LBB481:
 1143              	.LBI481:
 1144              		.loc 1 119 19 view .LVU354
 1145              	.LBB482:
 1146              		.loc 1 120 5 view .LVU355
 1147 0254 FFF7FEFF 		bl	drv_sd_fs_unmount
 1148              	.LVL76:
 1149              		.loc 1 121 5 view .LVU356
 1150              	.LBB483:
 1151              	.LBI483:
 1152              		.loc 1 87 13 view .LVU357
 1153              	.LBB484:
 1154              		.loc 1 88 5 view .LVU358
 1155              	.LBE484:
 1156              	.LBE483:
 1157              	.LBE482:
 1158              	.LBE481:
 1159              		.loc 1 274 21 is_stmt 0 view .LVU359
 1160 0258 0024     		movs	r4, #0
 1161              		.loc 1 275 25 view .LVU360
 1162 025a 164B     		ldr	r3, .L121+16
 1163              		.loc 1 274 21 view .LVU361
 1164 025c 6C70     		strb	r4, [r5, #1]
 1165              		.loc 1 275 25 view .LVU362
 1166 025e 1C70     		strb	r4, [r3]
 1167              	.LBB488:
 1168              	.LBB487:
 1169              	.LBB486:
 1170              	.LBB485:
 1171              		.loc 1 88 16 view .LVU363
 1172 0260 0123     		movs	r3, #1
 1173 0262 8AF80030 		strb	r3, [r10]
 1174              	.LVL77:
 1175              		.loc 1 88 16 view .LVU364
 1176              	.LBE485:
 1177              	.LBE486:
 1178              		.loc 1 122 5 is_stmt 1 view .LVU365
 1179              		.loc 1 122 5 is_stmt 0 view .LVU366
 1180              	.LBE487:
 1181              	.LBE488:
 1182              		.loc 1 244 13 is_stmt 1 view .LVU367
 1183              		.loc 1 274 9 view .LVU368
 1184              		.loc 1 275 9 view .LVU369
 1185              		.loc 1 276 9 view .LVU370
 1186              	.LBB489:
 1187              		.loc 1 183 13 view .LVU371
 1188              	.LBB294:
 1189              		.loc 1 184 5 view .LVU372
 1190 0266 0CE7     		b	.L54
 1191              	.LVL78:
 1192              	.L52:
 1193              		.loc 1 184 5 is_stmt 0 view .LVU373
 1194              	.LBE294:
 1195              	.LBE489:
ARM GAS  C:\Users\DEVELO~1\AppData\Local\Temp\ccyYyX0m.s 			page 22


 1196              		.loc 1 240 13 is_stmt 1 view .LVU374
 1197              		.loc 1 240 19 is_stmt 0 view .LVU375
 1198 0268 2F7D     		ldrb	r7, [r5, #20]	@ zero_extendqisi2
 1199              	.LVL79:
 1200              	.LBB490:
 1201              	.LBI444:
 1202              		.loc 1 104 19 is_stmt 1 view .LVU376
 1203              	.LBB456:
 1204              		.loc 1 105 5 view .LVU377
 1205              		.loc 1 105 10 is_stmt 0 view .LVU378
 1206 026a FFF7FEFF 		bl	drv_sd_hal_is_card_present
 1207              	.LVL80:
 1208              		.loc 1 105 8 view .LVU379
 1209 026e 0028     		cmp	r0, #0
 1210 0270 40F0A980 		bne	.L55
 1211              		.loc 1 106 9 is_stmt 1 view .LVU380
 1212              		.loc 1 107 9 view .LVU381
 1213              	.LVL81:
 1214              		.loc 1 107 9 is_stmt 0 view .LVU382
 1215              	.LBE456:
 1216              	.LBE490:
 1217              		.loc 1 274 9 is_stmt 1 view .LVU383
 1218              		.loc 1 274 21 is_stmt 0 view .LVU384
 1219 0274 0123     		movs	r3, #1
 1220              		.loc 1 275 25 view .LVU385
 1221 0276 0F4A     		ldr	r2, .L121+16
 1222              		.loc 1 274 21 view .LVU386
 1223 0278 6B70     		strb	r3, [r5, #1]
 1224              		.loc 1 275 9 is_stmt 1 view .LVU387
 1225              		.loc 1 275 25 is_stmt 0 view .LVU388
 1226 027a 1370     		strb	r3, [r2]
 1227              		.loc 1 276 9 is_stmt 1 view .LVU389
 1228              	.LVL82:
 1229              	.LBB491:
 1230              		.loc 1 183 13 view .LVU390
 1231              	.LBB295:
 1232              		.loc 1 184 5 view .LVU391
 1233              	.L56:
 1234              		.loc 1 198 9 view .LVU392
 1235              	.LBB288:
 1236              	.LBI288:
 1237              		.loc 1 87 13 view .LVU393
 1238              	.LBB289:
 1239              		.loc 1 88 5 view .LVU394
 1240              		.loc 1 88 16 is_stmt 0 view .LVU395
 1241 027c 0124     		movs	r4, #1
 1242 027e 8AF80040 		strb	r4, [r10]
 1243              	.LVL83:
 1244              		.loc 1 88 16 view .LVU396
 1245              	.LBE289:
 1246              	.LBE288:
 1247              		.loc 1 199 9 is_stmt 1 view .LVU397
 1248 0282 FEE6     		b	.L54
 1249              	.LVL84:
 1250              	.L53:
 1251              		.loc 1 199 9 is_stmt 0 view .LVU398
 1252              	.LBE295:
ARM GAS  C:\Users\DEVELO~1\AppData\Local\Temp\ccyYyX0m.s 			page 23


 1253              	.LBE491:
 1254              		.loc 1 236 13 is_stmt 1 view .LVU399
 1255              	.LBB492:
 1256              	.LBI492:
 1257              		.loc 1 98 19 view .LVU400
 1258              	.LBB493:
 1259              		.loc 1 99 5 view .LVU401
 1260 0284 FFF7FEFF 		bl	drv_sd_hal_init
 1261              	.LVL85:
 1262              		.loc 1 100 5 view .LVU402
 1263 0288 FFF7FEFF 		bl	drv_sd_fs_unmount
 1264              	.LVL86:
 1265              		.loc 1 101 5 view .LVU403
 1266              		.loc 1 101 5 is_stmt 0 view .LVU404
 1267              	.LBE493:
 1268              	.LBE492:
 1269              		.loc 1 237 13 is_stmt 1 view .LVU405
 1270              	.LBB494:
 1271              	.LBI494:
 1272              		.loc 1 87 13 view .LVU406
 1273              	.LBB495:
 1274              		.loc 1 88 5 view .LVU407
 1275              	.LBE495:
 1276              	.LBE494:
 1277              		.loc 1 274 21 is_stmt 0 view .LVU408
 1278 028c 0023     		movs	r3, #0
 1279              		.loc 1 275 25 view .LVU409
 1280 028e 094A     		ldr	r2, .L121+16
 1281              		.loc 1 274 21 view .LVU410
 1282 0290 6B70     		strb	r3, [r5, #1]
 1283              		.loc 1 275 25 view .LVU411
 1284 0292 1370     		strb	r3, [r2]
 1285              	.LBB497:
 1286              	.LBB496:
 1287              		.loc 1 88 16 view .LVU412
 1288 0294 0123     		movs	r3, #1
 1289 0296 8AF80030 		strb	r3, [r10]
 1290              	.LVL87:
 1291              		.loc 1 88 16 view .LVU413
 1292              	.LBE496:
 1293              	.LBE497:
 1294              		.loc 1 274 9 is_stmt 1 view .LVU414
 1295              		.loc 1 275 9 view .LVU415
 1296              		.loc 1 276 9 view .LVU416
 1297              	.LBB498:
 1298              		.loc 1 183 13 view .LVU417
 1299              	.LBB296:
 1300              		.loc 1 184 5 view .LVU418
 1301 029a F2E6     		b	.L54
 1302              	.LVL88:
 1303              	.L66:
 1304              		.loc 1 202 9 view .LVU419
 1305              	.LBB290:
 1306              	.LBI290:
 1307              		.loc 1 87 13 view .LVU420
 1308              	.LBB291:
 1309              		.loc 1 88 5 view .LVU421
ARM GAS  C:\Users\DEVELO~1\AppData\Local\Temp\ccyYyX0m.s 			page 24


 1310              		.loc 1 88 16 is_stmt 0 view .LVU422
 1311 029c 0523     		movs	r3, #5
 1312 029e 8AF80030 		strb	r3, [r10]
 1313              		.loc 1 89 1 view .LVU423
 1314 02a2 EEE6     		b	.L54
 1315              	.L122:
 1316              		.align	2
 1317              	.L121:
 1318 02a4 00000000 		.word	ch0
 1319 02a8 00000000 		.word	.LC0
 1320 02ac 00000000 		.word	.LANCHOR0
 1321 02b0 00000000 		.word	g_sd_stats
 1322 02b4 00000000 		.word	g_sd_last_error
 1323 02b8 40420F00 		.word	1000000
 1324 02bc 00000000 		.word	.LANCHOR2
 1325 02c0 00000000 		.word	g_sd_state
 1326 02c4 00000000 		.word	.LANCHOR1
 1327              	.LVL89:
 1328              	.L111:
 1329              		.loc 1 89 1 view .LVU424
 1330              	.LBE291:
 1331              	.LBE290:
 1332              	.LBE296:
 1333              	.LBE498:
 1334              	.LBB499:
 1335              		.loc 1 217 13 is_stmt 1 view .LVU425
 1336              		.loc 1 217 41 is_stmt 0 view .LVU426
 1337 02c8 6F78     		ldrb	r7, [r5, #1]	@ zero_extendqisi2
 1338              		.loc 1 219 29 view .LVU427
 1339 02ca 504B     		ldr	r3, .L123
 1340              		.loc 1 217 74 view .LVU428
 1341 02cc 002F     		cmp	r7, #0
 1342 02ce 08BF     		it	eq
 1343 02d0 0B27     		moveq	r7, #11
 1344              	.LVL90:
 1345              		.loc 1 218 13 is_stmt 1 view .LVU429
 1346              		.loc 1 218 25 is_stmt 0 view .LVU430
 1347 02d2 6F70     		strb	r7, [r5, #1]
 1348              		.loc 1 219 13 is_stmt 1 view .LVU431
 1349              		.loc 1 219 29 is_stmt 0 view .LVU432
 1350 02d4 1F70     		strb	r7, [r3]
 1351              		.loc 1 220 13 is_stmt 1 view .LVU433
 1352              	.LVL91:
 1353              	.LBB400:
 1354              	.LBI400:
 1355              		.loc 3 172 29 view .LVU434
 1356              		.loc 3 174 3 view .LVU435
 1357              	.LBB401:
 1358              	.LBI401:
 1359              		.loc 3 135 25 view .LVU436
 1360              		.loc 3 140 3 view .LVU437
 1361              	.LBB402:
 1362              	.LBI402:
 1363              		.loc 4 111 25 view .LVU438
 1364              	.LBB403:
 1365              		.loc 4 113 3 view .LVU439
 1366              		.loc 4 113 10 is_stmt 0 view .LVU440
ARM GAS  C:\Users\DEVELO~1\AppData\Local\Temp\ccyYyX0m.s 			page 25


 1367 02d6 FFF7FEFF 		bl	stGetCounter
 1368              	.LVL92:
 1369              		.loc 4 113 10 view .LVU441
 1370              	.LBE403:
 1371              	.LBE402:
 1372              	.LBE401:
 1373              	.LBB404:
 1374              	.LBI404:
 1375              		.loc 5 461 29 is_stmt 1 view .LVU442
 1376              	.LBB405:
 1377              		.loc 5 465 3 view .LVU443
 1378              		.loc 5 465 3 is_stmt 0 view .LVU444
 1379              	.LBE405:
 1380              	.LBE404:
 1381              	.LBE400:
 1382              		.loc 1 221 13 is_stmt 1 view .LVU445
 1383              	.LBB410:
 1384              	.LBB408:
 1385              	.LBB406:
 1386              		.loc 5 465 10 is_stmt 0 view .LVU446
 1387 02da 039B     		ldr	r3, [sp, #12]
 1388              	.LBE406:
 1389              	.LBE408:
 1390              	.LBE410:
 1391              		.loc 1 220 45 view .LVU447
 1392 02dc 2146     		mov	r1, r4
 1393 02de 4C4A     		ldr	r2, .L123+4
 1394              	.LBB411:
 1395              	.LBB409:
 1396              	.LBB407:
 1397              		.loc 5 465 10 view .LVU448
 1398 02e0 C31A     		subs	r3, r0, r3
 1399              	.LBE407:
 1400              	.LBE409:
 1401              	.LBE411:
 1402              		.loc 1 220 45 view .LVU449
 1403 02e2 42F20F70 		movw	r0, #9999
 1404              	.LVL93:
 1405              		.loc 1 220 45 view .LVU450
 1406 02e6 E3FB0201 		umlal	r0, r1, r3, r2
 1407 02ea 42F21072 		movw	r2, #10000
 1408 02ee 0023     		movs	r3, #0
 1409 02f0 FFF7FEFF 		bl	__aeabi_uldivmod
 1410              	.LVL94:
 1411 02f4 0146     		mov	r1, r0
 1412              		.loc 1 221 13 view .LVU451
 1413 02f6 3846     		mov	r0, r7
 1414 02f8 FFF7FEFF 		bl	sd_stats_record
 1415              	.LVL95:
 1416              		.loc 1 222 13 is_stmt 1 view .LVU452
 1417              	.LBB412:
 1418              	.LBI412:
 1419              		.loc 6 277 20 view .LVU453
 1420              	.LBB413:
 1421              		.loc 6 279 3 view .LVU454
 1422              	.LBB414:
 1423              	.LBI414:
ARM GAS  C:\Users\DEVELO~1\AppData\Local\Temp\ccyYyX0m.s 			page 26


 1424              		.loc 7 372 20 view .LVU455
 1425              		.loc 7 374 3 view .LVU456
 1426              	.LBB415:
 1427              	.LBI415:
 1428              		.loc 8 840 27 view .LVU457
 1429              		.loc 8 848 3 view .LVU458
 1430              	.LBB416:
 1431              	.LBI416:
 1432              		.loc 9 491 27 view .LVU459
 1433              	.LBB417:
 1434              		.loc 9 493 3 view .LVU460
 1435 02fc 3023     		movs	r3, #48
 1436              		.syntax unified
 1437              	@ 493 "./docs/ChibiOS/os/common/ext/ARM/CMSIS/Core/Include/cmsis_gcc.h" 1
 1438 02fe 83F31188 		MSR basepri, r3
 1439              	@ 0 "" 2
 1440              	.LVL96:
 1441              		.loc 9 493 3 is_stmt 0 view .LVU461
 1442              		.thumb
 1443              		.syntax unified
 1444              	.LBE417:
 1445              	.LBE416:
 1446              	.LBE415:
 1447              		.loc 7 375 35 is_stmt 1 view .LVU462
 1448              		.loc 7 376 21 view .LVU463
 1449              	.LBE414:
 1450              		.loc 6 280 3 view .LVU464
 1451              	.LBB418:
 1452              	.LBI418:
 1453              		.loc 6 261 20 view .LVU465
 1454              	.LBB419:
 1455              		.loc 6 263 21 view .LVU466
 1456              		.loc 6 265 3 view .LVU467
 1457              		.loc 6 265 6 is_stmt 0 view .LVU468
 1458 0302 EB68     		ldr	r3, [r5, #12]
 1459 0304 002B     		cmp	r3, #0
 1460 0306 53DD     		ble	.L117
 1461              	.L36:
 1462              	.LVL97:
 1463              		.loc 6 265 6 view .LVU469
 1464              	.LBE419:
 1465              	.LBE418:
 1466              		.loc 6 281 3 is_stmt 1 view .LVU470
 1467 0308 FFF7FEFF 		bl	chSchRescheduleS
 1468              	.LVL98:
 1469              		.loc 6 282 3 view .LVU471
 1470              	.LBB421:
 1471              	.LBI421:
 1472              		.loc 7 386 20 view .LVU472
 1473              	.LBB422:
 1474              		.loc 7 388 23 view .LVU473
 1475              		.loc 7 389 34 view .LVU474
 1476              		.loc 7 395 3 view .LVU475
 1477              		.loc 7 395 3 view .LVU476
 1478              		.loc 7 395 3 view .LVU477
 1479              		.loc 7 399 3 view .LVU478
 1480              	.LBB423:
ARM GAS  C:\Users\DEVELO~1\AppData\Local\Temp\ccyYyX0m.s 			page 27


 1481              	.LBI423:
 1482              		.loc 8 864 27 view .LVU479
 1483              		.loc 8 867 3 view .LVU480
 1484              	.LBB424:
 1485              	.LBI424:
 1486              		.loc 9 491 27 view .LVU481
 1487              	.LBB425:
 1488              		.loc 9 493 3 view .LVU482
 1489 030c 0023     		movs	r3, #0
 1490              		.syntax unified
 1491              	@ 493 "./docs/ChibiOS/os/common/ext/ARM/CMSIS/Core/Include/cmsis_gcc.h" 1
 1492 030e 83F31188 		MSR basepri, r3
 1493              	@ 0 "" 2
 1494              	.LVL99:
 1495              		.loc 9 493 3 is_stmt 0 view .LVU483
 1496              		.thumb
 1497              		.syntax unified
 1498              	.LBE425:
 1499              	.LBE424:
 1500              	.LBE423:
 1501              	.LBE422:
 1502              	.LBE421:
 1503              	.LBE413:
 1504              	.LBE412:
 1505              		.loc 1 223 13 is_stmt 1 view .LVU484
 1506              		.loc 1 224 17 view .LVU485
 1507              	.LBB428:
 1508              	.LBI386:
 1509              		.loc 1 310 6 view .LVU486
 1510              	.LBB397:
 1511              		.loc 1 311 5 view .LVU487
 1512              		.loc 1 311 8 is_stmt 0 view .LVU488
 1513 0312 2B7C     		ldrb	r3, [r5, #16]	@ zero_extendqisi2
 1514 0314 012B     		cmp	r3, #1
 1515 0316 7FF47FAE 		bne	.L84
 1516 031a B5FA85F4 		clz	r4, r5
 1517 031e 6409     		lsrs	r4, r4, #5
 1518 0320 002D     		cmp	r5, #0
 1519 0322 3FF479AE 		beq	.L84
 1520              	.LVL100:
 1521              	.LBB394:
 1522              	.LBI388:
 1523              		.loc 1 310 6 is_stmt 1 view .LVU489
 1524              	.LBB391:
 1525              		.loc 1 314 5 view .LVU490
 1526 0326 5846     		mov	r0, fp
 1527 0328 FFF7FEFF 		bl	chMtxLock
 1528              	.LVL101:
 1529              		.loc 1 315 5 view .LVU491
 1530              	.LBB390:
 1531              		.loc 1 315 10 view .LVU492
 1532              		.loc 1 315 26 view .LVU493
 1533 032c 394A     		ldr	r2, .L123+8
 1534              		.loc 1 315 17 is_stmt 0 view .LVU494
 1535 032e 2346     		mov	r3, r4
 1536              	.LVL102:
 1537              		.loc 1 316 9 is_stmt 1 view .LVU495
ARM GAS  C:\Users\DEVELO~1\AppData\Local\Temp\ccyYyX0m.s 			page 28


 1538              		.loc 1 315 43 view .LVU496
 1539              		.loc 1 316 12 is_stmt 0 view .LVU497
 1540 0330 9542     		cmp	r5, r2
 1541              		.loc 1 315 26 view .LVU498
 1542 0332 02F13C02 		add	r2, r2, #60
 1543              		.loc 1 316 12 view .LVU499
 1544 0336 07D0     		beq	.L106
 1545              	.L37:
 1546              		.loc 1 315 43 view .LVU500
 1547 0338 0133     		adds	r3, r3, #1
 1548              	.LVL103:
 1549              		.loc 1 315 26 is_stmt 1 view .LVU501
 1550 033a 082B     		cmp	r3, #8
 1551 033c 3FF4DAAE 		beq	.L38
 1552              		.loc 1 316 9 view .LVU502
 1553              		.loc 1 315 43 view .LVU503
 1554              		.loc 1 316 12 is_stmt 0 view .LVU504
 1555 0340 9542     		cmp	r5, r2
 1556              		.loc 1 315 26 view .LVU505
 1557 0342 02F13C02 		add	r2, r2, #60
 1558              		.loc 1 316 12 view .LVU506
 1559 0346 F7D1     		bne	.L37
 1560              	.LVL104:
 1561              	.L106:
 1562              		.loc 1 316 12 view .LVU507
 1563              	.LBE390:
 1564              	.LBE391:
 1565              	.LBE394:
 1566              	.LBE397:
 1567              	.LBE428:
 1568              	.LBE499:
 1569              	.LBB500:
 1570              	.LBB271:
 1571              	.LBB268:
 1572              	.LBB265:
 1573              	.LBB262:
 1574              		.loc 1 317 13 is_stmt 1 view .LVU508
 1575              		.loc 1 317 34 is_stmt 0 view .LVU509
 1576 0348 0022     		movs	r2, #0
 1577 034a 3349     		ldr	r1, .L123+12
 1578              	.LBE262:
 1579              	.LBE265:
 1580              	.LBE268:
 1581              	.LBE271:
 1582              	.LBE500:
 1583              	.LBB501:
 1584              	.LBB429:
 1585              	.LBB398:
 1586              	.LBB395:
 1587              	.LBB392:
 1588              		.loc 1 321 5 view .LVU510
 1589 034c 5846     		mov	r0, fp
 1590              	.LBE392:
 1591              	.LBE395:
 1592              	.LBE398:
 1593              	.LBE429:
 1594              	.LBE501:
ARM GAS  C:\Users\DEVELO~1\AppData\Local\Temp\ccyYyX0m.s 			page 29


 1595              	.LBB502:
 1596              	.LBB272:
 1597              	.LBB269:
 1598              	.LBB266:
 1599              	.LBB263:
 1600              		.loc 1 317 34 view .LVU511
 1601 034e CA54     		strb	r2, [r1, r3]
 1602              		.loc 1 318 13 is_stmt 1 view .LVU512
 1603              	.LBE263:
 1604              	.LBE266:
 1605              	.LBE269:
 1606              	.LBE272:
 1607              	.LBE502:
 1608              	.LBB503:
 1609              	.LBB430:
 1610              	.LBB399:
 1611              	.LBB396:
 1612              	.LBB393:
 1613              		.loc 1 321 5 view .LVU513
 1614 0350 FFF7FEFF 		bl	chMtxUnlock
 1615              	.LVL105:
 1616 0354 60E6     		b	.L84
 1617              	.LVL106:
 1618              	.L115:
 1619              		.loc 1 321 5 is_stmt 0 view .LVU514
 1620              	.LBE393:
 1621              	.LBE396:
 1622              	.LBE399:
 1623              	.LBE430:
 1624              	.LBE503:
 1625              	.LBB504:
 1626              	.LBB354:
 1627              	.LBB351:
 1628              	.LBB345:
 1629              	.LBB341:
 1630              		.loc 1 42 13 is_stmt 1 view .LVU515
 1631              		.loc 1 42 25 is_stmt 0 view .LVU516
 1632 0356 0623     		movs	r3, #6
 1633              		.loc 1 43 29 view .LVU517
 1634 0358 2C4A     		ldr	r2, .L123
 1635              		.loc 1 42 25 view .LVU518
 1636 035a 6370     		strb	r3, [r4, #1]
 1637              		.loc 1 43 13 is_stmt 1 view .LVU519
 1638              		.loc 1 43 29 is_stmt 0 view .LVU520
 1639 035c 1370     		strb	r3, [r2]
 1640              		.loc 1 44 13 is_stmt 1 view .LVU521
 1641              	.LVL107:
 1642              	.LBB312:
 1643              	.LBI312:
 1644              		.loc 6 277 20 view .LVU522
 1645              	.LBB313:
 1646              		.loc 6 279 3 view .LVU523
 1647              	.LBB314:
 1648              	.LBI314:
 1649              		.loc 7 372 20 view .LVU524
 1650              		.loc 7 374 3 view .LVU525
 1651              	.LBB315:
ARM GAS  C:\Users\DEVELO~1\AppData\Local\Temp\ccyYyX0m.s 			page 30


 1652              	.LBI315:
 1653              		.loc 8 840 27 view .LVU526
 1654              		.loc 8 848 3 view .LVU527
 1655              	.LBB316:
 1656              	.LBI316:
 1657              		.loc 9 491 27 view .LVU528
 1658              	.LBB317:
 1659              		.loc 9 493 3 view .LVU529
 1660 035e 3023     		movs	r3, #48
 1661              		.syntax unified
 1662              	@ 493 "./docs/ChibiOS/os/common/ext/ARM/CMSIS/Core/Include/cmsis_gcc.h" 1
 1663 0360 83F31188 		MSR basepri, r3
 1664              	@ 0 "" 2
 1665              	.LVL108:
 1666              		.loc 9 493 3 is_stmt 0 view .LVU530
 1667              		.thumb
 1668              		.syntax unified
 1669              	.LBE317:
 1670              	.LBE316:
 1671              	.LBE315:
 1672              		.loc 7 375 35 is_stmt 1 view .LVU531
 1673              		.loc 7 376 21 view .LVU532
 1674              	.LBE314:
 1675              		.loc 6 280 3 view .LVU533
 1676              	.LBB318:
 1677              	.LBI318:
 1678              		.loc 6 261 20 view .LVU534
 1679              	.LBB319:
 1680              		.loc 6 263 21 view .LVU535
 1681              		.loc 6 265 3 view .LVU536
 1682              		.loc 6 265 6 is_stmt 0 view .LVU537
 1683 0364 E368     		ldr	r3, [r4, #12]
 1684 0366 002B     		cmp	r3, #0
 1685 0368 1EDD     		ble	.L118
 1686              	.L72:
 1687              	.LVL109:
 1688              		.loc 6 265 6 view .LVU538
 1689              	.LBE319:
 1690              	.LBE318:
 1691              		.loc 6 281 3 is_stmt 1 view .LVU539
 1692 036a FFF7FEFF 		bl	chSchRescheduleS
 1693              	.LVL110:
 1694              		.loc 6 282 3 view .LVU540
 1695              	.LBB321:
 1696              	.LBI321:
 1697              		.loc 7 386 20 view .LVU541
 1698              	.LBB322:
 1699              		.loc 7 388 23 view .LVU542
 1700              		.loc 7 389 34 view .LVU543
 1701              		.loc 7 395 3 view .LVU544
 1702              		.loc 7 395 3 view .LVU545
 1703              		.loc 7 395 3 view .LVU546
 1704              		.loc 7 399 3 view .LVU547
 1705              	.LBB323:
 1706              	.LBI323:
 1707              		.loc 8 864 27 view .LVU548
 1708              		.loc 8 867 3 view .LVU549
ARM GAS  C:\Users\DEVELO~1\AppData\Local\Temp\ccyYyX0m.s 			page 31


 1709              	.LBB324:
 1710              	.LBI324:
 1711              		.loc 9 491 27 view .LVU550
 1712              	.LBB325:
 1713              		.loc 9 493 3 view .LVU551
 1714              		.syntax unified
 1715              	@ 493 "./docs/ChibiOS/os/common/ext/ARM/CMSIS/Core/Include/cmsis_gcc.h" 1
 1716 036e 89F31188 		MSR basepri, r9
 1717              	@ 0 "" 2
 1718              	.LVL111:
 1719              		.loc 9 493 3 is_stmt 0 view .LVU552
 1720              		.thumb
 1721              		.syntax unified
 1722              	.LBE325:
 1723              	.LBE324:
 1724              	.LBE323:
 1725              	.LBE322:
 1726              	.LBE321:
 1727              	.LBE313:
 1728              	.LBE312:
 1729              		.loc 1 45 13 is_stmt 1 view .LVU553
 1730              	.LBB328:
 1731              	.LBI328:
 1732              		.loc 1 310 6 view .LVU554
 1733              		.loc 1 311 5 view .LVU555
 1734              	.LBB329:
 1735              	.LBI329:
 1736              		.loc 1 310 6 view .LVU556
 1737              	.LBB330:
 1738              		.loc 1 314 5 view .LVU557
 1739 0372 5846     		mov	r0, fp
 1740 0374 FFF7FEFF 		bl	chMtxLock
 1741              	.LVL112:
 1742              		.loc 1 315 5 view .LVU558
 1743              	.LBB331:
 1744              		.loc 1 315 10 view .LVU559
 1745              		.loc 1 315 26 view .LVU560
 1746 0378 264B     		ldr	r3, .L123+8
 1747              		.loc 1 315 17 is_stmt 0 view .LVU561
 1748 037a 0022     		movs	r2, #0
 1749              	.LVL113:
 1750              	.L75:
 1751              		.loc 1 316 9 is_stmt 1 view .LVU562
 1752              		.loc 1 315 43 view .LVU563
 1753              		.loc 1 316 12 is_stmt 0 view .LVU564
 1754 037c 9C42     		cmp	r4, r3
 1755              		.loc 1 315 26 view .LVU565
 1756 037e 03F13C03 		add	r3, r3, #60
 1757              		.loc 1 316 12 view .LVU566
 1758 0382 0AD0     		beq	.L119
 1759              		.loc 1 315 43 view .LVU567
 1760 0384 0132     		adds	r2, r2, #1
 1761              	.LVL114:
 1762              		.loc 1 315 26 is_stmt 1 view .LVU568
 1763 0386 082A     		cmp	r2, #8
 1764 0388 F8D1     		bne	.L75
 1765              	.LBE331:
ARM GAS  C:\Users\DEVELO~1\AppData\Local\Temp\ccyYyX0m.s 			page 32


 1766              		.loc 1 321 5 view .LVU569
 1767 038a 5846     		mov	r0, fp
 1768 038c FFF7FEFF 		bl	chMtxUnlock
 1769              	.LVL115:
 1770              		.loc 1 321 5 is_stmt 0 view .LVU570
 1771 0390 FFE6     		b	.L70
 1772              	.LVL116:
 1773              	.L113:
 1774              		.loc 1 321 5 view .LVU571
 1775              	.LBE330:
 1776              	.LBE329:
 1777              	.LBE328:
 1778              	.LBE341:
 1779              	.LBE345:
 1780              	.LBE351:
 1781              	.LBE354:
 1782              	.LBE504:
 1783              	.LBB505:
 1784              	.LBB383:
 1785              	.LBB382:
 1786              	.LBB376:
 1787              		.loc 6 266 5 is_stmt 1 view .LVU572
 1788 0392 281D     		adds	r0, r5, #4
 1789 0394 FFF7FEFF 		bl	chSemSignalI
 1790              	.LVL117:
 1791 0398 92E6     		b	.L81
 1792              	.LVL118:
 1793              	.L119:
 1794              		.loc 6 266 5 is_stmt 0 view .LVU573
 1795              	.LBE376:
 1796              	.LBE382:
 1797              	.LBE383:
 1798              	.LBE505:
 1799              	.LBB506:
 1800              	.LBB355:
 1801              	.LBB352:
 1802              	.LBB346:
 1803              	.LBB342:
 1804              	.LBB336:
 1805              	.LBB335:
 1806              	.LBB334:
 1807              	.LBB332:
 1808              		.loc 1 317 13 is_stmt 1 view .LVU574
 1809              		.loc 1 317 34 is_stmt 0 view .LVU575
 1810 039a 1F4B     		ldr	r3, .L123+12
 1811              	.LBE332:
 1812              		.loc 1 321 5 view .LVU576
 1813 039c 5846     		mov	r0, fp
 1814              	.LBB333:
 1815              		.loc 1 317 34 view .LVU577
 1816 039e 03F80290 		strb	r9, [r3, r2]
 1817              		.loc 1 318 13 is_stmt 1 view .LVU578
 1818              	.LBE333:
 1819              		.loc 1 321 5 view .LVU579
 1820 03a2 FFF7FEFF 		bl	chMtxUnlock
 1821              	.LVL119:
 1822              		.loc 1 321 5 is_stmt 0 view .LVU580
ARM GAS  C:\Users\DEVELO~1\AppData\Local\Temp\ccyYyX0m.s 			page 33


 1823 03a6 F4E6     		b	.L70
 1824              	.LVL120:
 1825              	.L118:
 1826              		.loc 1 321 5 view .LVU581
 1827              	.LBE334:
 1828              	.LBE335:
 1829              	.LBE336:
 1830              	.LBB337:
 1831              	.LBB327:
 1832              	.LBB326:
 1833              	.LBB320:
 1834              		.loc 6 266 5 is_stmt 1 view .LVU582
 1835 03a8 201D     		adds	r0, r4, #4
 1836 03aa FFF7FEFF 		bl	chSemSignalI
 1837              	.LVL121:
 1838 03ae DCE7     		b	.L72
 1839              	.LVL122:
 1840              	.L117:
 1841              		.loc 6 266 5 is_stmt 0 view .LVU583
 1842              	.LBE320:
 1843              	.LBE326:
 1844              	.LBE327:
 1845              	.LBE337:
 1846              	.LBE342:
 1847              	.LBE346:
 1848              	.LBE352:
 1849              	.LBE355:
 1850              	.LBE506:
 1851              	.LBB507:
 1852              	.LBB431:
 1853              	.LBB427:
 1854              	.LBB426:
 1855              	.LBB420:
 1856              		.loc 6 266 5 is_stmt 1 view .LVU584
 1857 03b0 281D     		adds	r0, r5, #4
 1858 03b2 FFF7FEFF 		bl	chSemSignalI
 1859              	.LVL123:
 1860 03b6 A7E7     		b	.L36
 1861              	.LVL124:
 1862              	.L109:
 1863              		.loc 6 266 5 is_stmt 0 view .LVU585
 1864              	.LBE420:
 1865              	.LBE426:
 1866              	.LBE427:
 1867              	.LBE431:
 1868              	.LBE507:
 1869              		.loc 1 259 13 is_stmt 1 view .LVU586
 1870              	.LBB508:
 1871              		.loc 1 87 13 view .LVU587
 1872              	.LBB442:
 1873              		.loc 1 88 5 view .LVU588
 1874              	.LBE442:
 1875              	.LBE508:
 1876              		.loc 1 274 21 is_stmt 0 view .LVU589
 1877 03b8 0224     		movs	r4, #2
 1878              		.loc 1 275 25 view .LVU590
 1879 03ba 144B     		ldr	r3, .L123
ARM GAS  C:\Users\DEVELO~1\AppData\Local\Temp\ccyYyX0m.s 			page 34


 1880              	.LBB509:
 1881              	.LBB443:
 1882              		.loc 1 88 16 view .LVU591
 1883 03bc 8AF80070 		strb	r7, [r10]
 1884              	.LVL125:
 1885              		.loc 1 88 16 view .LVU592
 1886              	.LBE443:
 1887              	.LBE509:
 1888              		.loc 1 274 9 is_stmt 1 view .LVU593
 1889              		.loc 1 274 21 is_stmt 0 view .LVU594
 1890 03c0 6C70     		strb	r4, [r5, #1]
 1891              		.loc 1 275 9 is_stmt 1 view .LVU595
 1892              		.loc 1 275 25 is_stmt 0 view .LVU596
 1893 03c2 1C70     		strb	r4, [r3]
 1894              		.loc 1 276 9 is_stmt 1 view .LVU597
 1895              	.LVL126:
 1896              	.LBB510:
 1897              		.loc 1 183 13 view .LVU598
 1898              	.LBB297:
 1899              		.loc 1 184 5 view .LVU599
 1900 03c4 5DE6     		b	.L54
 1901              	.LVL127:
 1902              	.L55:
 1903              		.loc 1 184 5 is_stmt 0 view .LVU600
 1904              	.LBE297:
 1905              	.LBE510:
 1906              	.LBB511:
 1907              	.LBB457:
 1908              		.loc 1 109 5 is_stmt 1 view .LVU601
 1909              		.loc 1 109 22 is_stmt 0 view .LVU602
 1910 03c6 3846     		mov	r0, r7
 1911 03c8 FFF7FEFF 		bl	drv_sd_fs_mount
 1912              	.LVL128:
 1913              		.loc 1 110 5 is_stmt 1 view .LVU603
 1914              		.loc 1 110 8 is_stmt 0 view .LVU604
 1915 03cc 8146     		mov	r9, r0
 1916 03ce 48B1     		cbz	r0, .L120
 1917 03d0 2746     		mov	r7, r4
 1918              	.LVL129:
 1919              		.loc 1 110 8 view .LVU605
 1920 03d2 0446     		mov	r4, r0
 1921 03d4 A6E6     		b	.L57
 1922              	.LVL130:
 1923              	.L65:
 1924              		.loc 1 110 8 view .LVU606
 1925              	.LBE457:
 1926              	.LBE511:
 1927              		.loc 1 263 13 is_stmt 1 view .LVU607
 1928              	.LBB512:
 1929              		.loc 1 87 13 view .LVU608
 1930              	.LBB436:
 1931              		.loc 1 88 5 view .LVU609
 1932              	.LBE436:
 1933              	.LBE512:
 1934              		.loc 1 274 21 is_stmt 0 view .LVU610
 1935 03d6 0723     		movs	r3, #7
 1936              		.loc 1 275 25 view .LVU611
ARM GAS  C:\Users\DEVELO~1\AppData\Local\Temp\ccyYyX0m.s 			page 35


 1937 03d8 0C4A     		ldr	r2, .L123
 1938              	.LBB513:
 1939              	.LBB437:
 1940              		.loc 1 88 16 view .LVU612
 1941 03da 8AF80070 		strb	r7, [r10]
 1942              	.LVL131:
 1943              		.loc 1 88 16 view .LVU613
 1944              	.LBE437:
 1945              	.LBE513:
 1946              		.loc 1 274 9 is_stmt 1 view .LVU614
 1947              		.loc 1 274 21 is_stmt 0 view .LVU615
 1948 03de 6B70     		strb	r3, [r5, #1]
 1949              		.loc 1 275 9 is_stmt 1 view .LVU616
 1950              		.loc 1 275 25 is_stmt 0 view .LVU617
 1951 03e0 1370     		strb	r3, [r2]
 1952              		.loc 1 276 9 is_stmt 1 view .LVU618
 1953              	.LVL132:
 1954              	.LBB514:
 1955              		.loc 1 183 13 view .LVU619
 1956              	.LBB298:
 1957              		.loc 1 184 5 view .LVU620
 1958 03e2 4EE6     		b	.L54
 1959              	.LVL133:
 1960              	.L120:
 1961              		.loc 1 184 5 is_stmt 0 view .LVU621
 1962              	.LBE298:
 1963              	.LBE514:
 1964              	.LBB515:
 1965              	.LBB458:
 1966              	.LBB448:
 1967              		.loc 1 111 9 is_stmt 1 view .LVU622
 1968              		.loc 1 111 22 is_stmt 0 view .LVU623
 1969 03e4 FFF7FEFF 		bl	drv_sd_fs_is_read_only
 1970              	.LVL134:
 1971              		.loc 1 112 9 is_stmt 1 view .LVU624
 1972              	.LBB449:
 1973              	.LBI449:
 1974              		.loc 1 87 13 view .LVU625
 1975              	.LBB450:
 1976              		.loc 1 88 5 view .LVU626
 1977              	.LBE450:
 1978              	.LBE449:
 1979              	.LBE448:
 1980              	.LBE458:
 1981              	.LBE515:
 1982              		.loc 1 275 25 is_stmt 0 view .LVU627
 1983 03e8 084B     		ldr	r3, .L123
 1984              	.LBB516:
 1985              	.LBB459:
 1986              	.LBB453:
 1987              		.loc 1 112 33 view .LVU628
 1988 03ea 3843     		orrs	r0, r0, r7
 1989              	.LVL135:
 1990              		.loc 1 112 33 view .LVU629
 1991              	.LBE453:
 1992              	.LBE459:
 1993              	.LBE516:
ARM GAS  C:\Users\DEVELO~1\AppData\Local\Temp\ccyYyX0m.s 			page 36


 1994              		.loc 1 275 25 view .LVU630
 1995 03ec 4C46     		mov	r4, r9
 1996 03ee 83F80090 		strb	r9, [r3]
 1997              	.LBB517:
 1998              	.LBB460:
 1999              	.LBB454:
 2000              		.loc 1 112 9 view .LVU631
 2001 03f2 831C     		adds	r3, r0, #2
 2002              	.LBE454:
 2003              	.LBE460:
 2004              	.LBE517:
 2005              		.loc 1 274 21 view .LVU632
 2006 03f4 85F80190 		strb	r9, [r5, #1]
 2007              	.LBB518:
 2008              	.LBB461:
 2009              	.LBB455:
 2010              	.LBB452:
 2011              	.LBB451:
 2012              		.loc 1 88 16 view .LVU633
 2013 03f8 8AF80030 		strb	r3, [r10]
 2014              	.LVL136:
 2015              		.loc 1 88 16 view .LVU634
 2016              	.LBE451:
 2017              	.LBE452:
 2018              	.LBE455:
 2019              	.LBE461:
 2020              	.LBE518:
 2021              		.loc 1 274 9 is_stmt 1 view .LVU635
 2022              		.loc 1 275 9 view .LVU636
 2023              		.loc 1 276 9 view .LVU637
 2024              	.LBB519:
 2025              		.loc 1 183 13 view .LVU638
 2026              	.LBB299:
 2027              		.loc 1 184 5 view .LVU639
 2028 03fc 41E6     		b	.L54
 2029              	.LVL137:
 2030              	.L43:
 2031              		.loc 1 184 5 is_stmt 0 view .LVU640
 2032              	.LBE299:
 2033              	.LBE519:
 2034              		.loc 1 270 13 is_stmt 1 view .LVU641
 2035              		.loc 1 271 13 view .LVU642
 2036              	.LBB520:
 2037              	.LBI520:
 2038              		.loc 1 87 13 view .LVU643
 2039              	.LBB521:
 2040              		.loc 1 88 5 view .LVU644
 2041              	.LBE521:
 2042              	.LBE520:
 2043              		.loc 1 274 21 is_stmt 0 view .LVU645
 2044 03fe 0724     		movs	r4, #7
 2045              		.loc 1 275 25 view .LVU646
 2046 0400 024B     		ldr	r3, .L123
 2047              	.LBB523:
 2048              	.LBB522:
 2049              		.loc 1 88 16 view .LVU647
 2050 0402 8AF80070 		strb	r7, [r10]
ARM GAS  C:\Users\DEVELO~1\AppData\Local\Temp\ccyYyX0m.s 			page 37


 2051              	.LVL138:
 2052              		.loc 1 88 16 view .LVU648
 2053              	.LBE522:
 2054              	.LBE523:
 2055              		.loc 1 274 9 is_stmt 1 view .LVU649
 2056              		.loc 1 274 21 is_stmt 0 view .LVU650
 2057 0406 6C70     		strb	r4, [r5, #1]
 2058              		.loc 1 275 9 is_stmt 1 view .LVU651
 2059              		.loc 1 275 25 is_stmt 0 view .LVU652
 2060 0408 1C70     		strb	r4, [r3]
 2061              		.loc 1 276 9 is_stmt 1 view .LVU653
 2062              	.LVL139:
 2063              	.LBB524:
 2064              		.loc 1 183 13 view .LVU654
 2065              	.LBB300:
 2066              		.loc 1 184 5 view .LVU655
 2067 040a 3AE6     		b	.L54
 2068              	.L124:
 2069              		.align	2
 2070              	.L123:
 2071 040c 00000000 		.word	g_sd_last_error
 2072 0410 40420F00 		.word	1000000
 2073 0414 00000000 		.word	.LANCHOR2
 2074 0418 00000000 		.word	.LANCHOR3
 2075              	.LBE300:
 2076              	.LBE524:
 2077              	.LBE526:
 2078              		.cfi_endproc
 2079              	.LFE463:
 2080              		.size	sdThread, .-sdThread
 2081              		.section	.text.drv_sd_thread_start,"ax",%progbits
 2082              		.align	1
 2083              		.p2align 2,,3
 2084              		.global	drv_sd_thread_start
 2085              		.syntax unified
 2086              		.thumb
 2087              		.thumb_func
 2088              		.type	drv_sd_thread_start, %function
 2089              	drv_sd_thread_start:
 2090              	.LFB464:
 2091              		.loc 1 287 32 view -0
 2092              		.cfi_startproc
 2093              		@ args = 0, pretend = 0, frame = 0
 2094              		@ frame_needed = 0, uses_anonymous_args = 0
 2095              		.loc 1 288 5 view .LVU657
 2096              		.loc 1 287 32 is_stmt 0 view .LVU658
 2097 0000 10B5     		push	{r4, lr}
 2098              		.cfi_def_cfa_offset 8
 2099              		.cfi_offset 4, -8
 2100              		.cfi_offset 14, -4
 2101              		.loc 1 288 5 view .LVU659
 2102 0002 0822     		movs	r2, #8
 2103              		.loc 1 287 32 view .LVU660
 2104 0004 82B0     		sub	sp, sp, #8
 2105              		.cfi_def_cfa_offset 16
 2106              		.loc 1 288 5 view .LVU661
 2107 0006 0A49     		ldr	r1, .L127
ARM GAS  C:\Users\DEVELO~1\AppData\Local\Temp\ccyYyX0m.s 			page 38


 2108 0008 0A48     		ldr	r0, .L127+4
 2109 000a FFF7FEFF 		bl	chMBObjectInit
 2110              	.LVL140:
 2111              		.loc 1 289 5 is_stmt 1 view .LVU662
 2112 000e 0A48     		ldr	r0, .L127+8
 2113 0010 FFF7FEFF 		bl	chMtxObjectInit
 2114              	.LVL141:
 2115              		.loc 1 290 5 view .LVU663
 2116 0014 094C     		ldr	r4, .L127+12
 2117 0016 0020     		movs	r0, #0
 2118              		.loc 1 291 5 is_stmt 0 view .LVU664
 2119 0018 094B     		ldr	r3, .L127+16
 2120 001a 7E22     		movs	r2, #126
 2121 001c 4FF41E61 		mov	r1, #2528
 2122 0020 0090     		str	r0, [sp]
 2123              		.loc 1 290 5 view .LVU665
 2124 0022 C4E90000 		strd	r0, r0, [r4]
 2125              		.loc 1 291 5 is_stmt 1 view .LVU666
 2126 0026 0748     		ldr	r0, .L127+20
 2127 0028 FFF7FEFF 		bl	chThdCreateStatic
 2128              	.LVL142:
 2129              		.loc 1 292 1 is_stmt 0 view .LVU667
 2130 002c 02B0     		add	sp, sp, #8
 2131              		.cfi_def_cfa_offset 8
 2132              		@ sp needed
 2133 002e 10BD     		pop	{r4, pc}
 2134              	.L128:
 2135              		.align	2
 2136              	.L127:
 2137 0030 00000000 		.word	.LANCHOR4
 2138 0034 00000000 		.word	.LANCHOR0
 2139 0038 00000000 		.word	.LANCHOR1
 2140 003c 00000000 		.word	.LANCHOR3
 2141 0040 00000000 		.word	sdThread
 2142 0044 00000000 		.word	.LANCHOR5
 2143              		.cfi_endproc
 2144              	.LFE464:
 2145              		.size	drv_sd_thread_start, .-drv_sd_thread_start
 2146              		.section	.text.drv_sd_thread_alloc,"ax",%progbits
 2147              		.align	1
 2148              		.p2align 2,,3
 2149              		.global	drv_sd_thread_alloc
 2150              		.syntax unified
 2151              		.thumb
 2152              		.thumb_func
 2153              		.type	drv_sd_thread_alloc, %function
 2154              	drv_sd_thread_alloc:
 2155              	.LFB465:
 2156              		.loc 1 294 41 is_stmt 1 view -0
 2157              		.cfi_startproc
 2158              		@ args = 0, pretend = 0, frame = 0
 2159              		@ frame_needed = 0, uses_anonymous_args = 0
 2160              		.loc 1 295 5 view .LVU669
 2161              	.LVL143:
 2162              		.loc 1 296 5 view .LVU670
 2163              		.loc 1 294 41 is_stmt 0 view .LVU671
 2164 0000 F8B5     		push	{r3, r4, r5, r6, r7, lr}
ARM GAS  C:\Users\DEVELO~1\AppData\Local\Temp\ccyYyX0m.s 			page 39


 2165              		.cfi_def_cfa_offset 24
 2166              		.cfi_offset 3, -24
 2167              		.cfi_offset 4, -20
 2168              		.cfi_offset 5, -16
 2169              		.cfi_offset 6, -12
 2170              		.cfi_offset 7, -8
 2171              		.cfi_offset 14, -4
 2172              		.loc 1 296 5 view .LVU672
 2173 0002 1448     		ldr	r0, .L136
 2174 0004 FFF7FEFF 		bl	chMtxLock
 2175              	.LVL144:
 2176              		.loc 1 297 5 is_stmt 1 view .LVU673
 2177              	.LBB527:
 2178              		.loc 1 297 10 view .LVU674
 2179              		.loc 1 297 26 view .LVU675
 2180 0008 134A     		ldr	r2, .L136+4
 2181              		.loc 1 297 17 is_stmt 0 view .LVU676
 2182 000a 0023     		movs	r3, #0
 2183              	.LVL145:
 2184              	.L132:
 2185              		.loc 1 298 9 is_stmt 1 view .LVU677
 2186              		.loc 1 297 43 view .LVU678
 2187              		.loc 1 298 12 is_stmt 0 view .LVU679
 2188 000c 12F8011F 		ldrb	r1, [r2, #1]!	@ zero_extendqisi2
 2189 0010 41B1     		cbz	r1, .L135
 2190              		.loc 1 297 43 discriminator 2 view .LVU680
 2191 0012 0133     		adds	r3, r3, #1
 2192              	.LVL146:
 2193              		.loc 1 297 26 is_stmt 1 discriminator 2 view .LVU681
 2194 0014 082B     		cmp	r3, #8
 2195 0016 F9D1     		bne	.L132
 2196              	.LBE527:
 2197              		.loc 1 295 19 is_stmt 0 view .LVU682
 2198 0018 0024     		movs	r4, #0
 2199              	.LVL147:
 2200              		.loc 1 306 5 is_stmt 1 view .LVU683
 2201 001a 0E48     		ldr	r0, .L136
 2202 001c FFF7FEFF 		bl	chMtxUnlock
 2203              	.LVL148:
 2204              		.loc 1 307 5 view .LVU684
 2205              		.loc 1 308 1 is_stmt 0 view .LVU685
 2206 0020 2046     		mov	r0, r4
 2207 0022 F8BD     		pop	{r3, r4, r5, r6, r7, pc}
 2208              	.LVL149:
 2209              	.L135:
 2210              	.LBB530:
 2211              		.loc 1 299 13 is_stmt 1 view .LVU686
 2212 0024 C3EB0314 		rsb	r4, r3, r3, lsl #4
 2213              		.loc 1 300 17 is_stmt 0 view .LVU687
 2214 0028 0C4E     		ldr	r6, .L136+8
 2215              		.loc 1 299 34 view .LVU688
 2216 002a 0127     		movs	r7, #1
 2217 002c 0C4A     		ldr	r2, .L136+12
 2218 002e A500     		lsls	r5, r4, #2
 2219              		.loc 1 300 17 view .LVU689
 2220 0030 06EB8404 		add	r4, r6, r4, lsl #2
 2221              		.loc 1 299 34 view .LVU690
ARM GAS  C:\Users\DEVELO~1\AppData\Local\Temp\ccyYyX0m.s 			page 40


 2222 0034 D754     		strb	r7, [r2, r3]
 2223              		.loc 1 300 13 is_stmt 1 view .LVU691
 2224              	.LVL150:
 2225              		.loc 1 301 13 view .LVU692
 2226 0036 3C22     		movs	r2, #60
 2227 0038 2046     		mov	r0, r4
 2228 003a FFF7FEFF 		bl	memset
 2229              	.LVL151:
 2230              		.loc 1 302 13 view .LVU693
 2231              	.LBB528:
 2232              	.LBI528:
 2233              		.loc 6 123 20 view .LVU694
 2234              	.LBB529:
 2235              		.loc 6 125 3 view .LVU695
 2236 003e 281D     		adds	r0, r5, #4
 2237 0040 3946     		mov	r1, r7
 2238 0042 3044     		add	r0, r0, r6
 2239 0044 FFF7FEFF 		bl	chSemObjectInit
 2240              	.LVL152:
 2241              		.loc 6 125 3 is_stmt 0 view .LVU696
 2242              	.LBE529:
 2243              	.LBE528:
 2244              	.LBE530:
 2245              		.loc 1 306 5 is_stmt 1 view .LVU697
 2246 0048 0248     		ldr	r0, .L136
 2247 004a FFF7FEFF 		bl	chMtxUnlock
 2248              	.LVL153:
 2249              		.loc 1 307 5 view .LVU698
 2250              		.loc 1 308 1 is_stmt 0 view .LVU699
 2251 004e 2046     		mov	r0, r4
 2252 0050 F8BD     		pop	{r3, r4, r5, r6, r7, pc}
 2253              	.LVL154:
 2254              	.L137:
 2255              		.loc 1 308 1 view .LVU700
 2256 0052 00BF     		.align	2
 2257              	.L136:
 2258 0054 00000000 		.word	.LANCHOR1
 2259 0058 FFFFFFFF 		.word	.LANCHOR3-1
 2260 005c 00000000 		.word	.LANCHOR2
 2261 0060 00000000 		.word	.LANCHOR3
 2262              		.cfi_endproc
 2263              	.LFE465:
 2264              		.size	drv_sd_thread_alloc, .-drv_sd_thread_alloc
 2265              		.section	.text.drv_sd_thread_release,"ax",%progbits
 2266              		.align	1
 2267              		.p2align 2,,3
 2268              		.global	drv_sd_thread_release
 2269              		.syntax unified
 2270              		.thumb
 2271              		.thumb_func
 2272              		.type	drv_sd_thread_release, %function
 2273              	drv_sd_thread_release:
 2274              	.LVL155:
 2275              	.LFB466:
 2276              		.loc 1 310 47 is_stmt 1 view -0
 2277              		.cfi_startproc
 2278              		@ args = 0, pretend = 0, frame = 0
ARM GAS  C:\Users\DEVELO~1\AppData\Local\Temp\ccyYyX0m.s 			page 41


 2279              		@ frame_needed = 0, uses_anonymous_args = 0
 2280              		.loc 1 311 5 view .LVU702
 2281              		.loc 1 311 8 is_stmt 0 view .LVU703
 2282 0000 90B1     		cbz	r0, .L138
 2283              		.loc 1 310 47 view .LVU704
 2284 0002 10B5     		push	{r4, lr}
 2285              		.cfi_def_cfa_offset 8
 2286              		.cfi_offset 4, -8
 2287              		.cfi_offset 14, -4
 2288 0004 0446     		mov	r4, r0
 2289              	.LVL156:
 2290              	.LBB534:
 2291              	.LBI534:
 2292              		.loc 1 310 6 is_stmt 1 view .LVU705
 2293              	.LBB535:
 2294              		.loc 1 314 5 view .LVU706
 2295 0006 0D48     		ldr	r0, .L148
 2296              	.LVL157:
 2297              		.loc 1 314 5 is_stmt 0 view .LVU707
 2298 0008 FFF7FEFF 		bl	chMtxLock
 2299              	.LVL158:
 2300              		.loc 1 315 5 is_stmt 1 view .LVU708
 2301              	.LBB536:
 2302              		.loc 1 315 10 view .LVU709
 2303              		.loc 1 315 26 view .LVU710
 2304 000c 0C4B     		ldr	r3, .L148+4
 2305              		.loc 1 315 17 is_stmt 0 view .LVU711
 2306 000e 0022     		movs	r2, #0
 2307              	.LVL159:
 2308              	.L142:
 2309              		.loc 1 316 9 is_stmt 1 view .LVU712
 2310              		.loc 1 315 43 view .LVU713
 2311              		.loc 1 316 12 is_stmt 0 view .LVU714
 2312 0010 9C42     		cmp	r4, r3
 2313              		.loc 1 315 26 view .LVU715
 2314 0012 03F13C03 		add	r3, r3, #60
 2315              		.loc 1 316 12 view .LVU716
 2316 0016 08D0     		beq	.L147
 2317              		.loc 1 315 43 view .LVU717
 2318 0018 0132     		adds	r2, r2, #1
 2319              	.LVL160:
 2320              		.loc 1 315 26 is_stmt 1 view .LVU718
 2321 001a 082A     		cmp	r2, #8
 2322 001c F8D1     		bne	.L142
 2323              	.LBE536:
 2324              		.loc 1 321 5 view .LVU719
 2325 001e 0748     		ldr	r0, .L148
 2326              	.LBE535:
 2327              	.LBE534:
 2328              		.loc 1 322 1 is_stmt 0 view .LVU720
 2329 0020 BDE81040 		pop	{r4, lr}
 2330              		.cfi_restore 14
 2331              		.cfi_restore 4
 2332              		.cfi_def_cfa_offset 0
 2333              	.LVL161:
 2334              	.LBB541:
 2335              	.LBB539:
ARM GAS  C:\Users\DEVELO~1\AppData\Local\Temp\ccyYyX0m.s 			page 42


 2336              		.loc 1 321 5 view .LVU721
 2337 0024 FFF7FEBF 		b	chMtxUnlock
 2338              	.LVL162:
 2339              	.L138:
 2340              		.loc 1 321 5 view .LVU722
 2341 0028 7047     		bx	lr
 2342              	.LVL163:
 2343              	.L147:
 2344              		.cfi_def_cfa_offset 8
 2345              		.cfi_offset 4, -8
 2346              		.cfi_offset 14, -4
 2347              	.LBB537:
 2348              		.loc 1 317 13 is_stmt 1 view .LVU723
 2349              		.loc 1 317 34 is_stmt 0 view .LVU724
 2350 002a 064B     		ldr	r3, .L148+8
 2351 002c 0021     		movs	r1, #0
 2352              	.LBE537:
 2353              		.loc 1 321 5 view .LVU725
 2354 002e 0348     		ldr	r0, .L148
 2355              	.LBB538:
 2356              		.loc 1 317 34 view .LVU726
 2357 0030 9954     		strb	r1, [r3, r2]
 2358              		.loc 1 318 13 is_stmt 1 view .LVU727
 2359              	.LBE538:
 2360              		.loc 1 321 5 view .LVU728
 2361              	.LBE539:
 2362              	.LBE541:
 2363              		.loc 1 322 1 is_stmt 0 view .LVU729
 2364 0032 BDE81040 		pop	{r4, lr}
 2365              		.cfi_restore 14
 2366              		.cfi_restore 4
 2367              		.cfi_def_cfa_offset 0
 2368              	.LVL164:
 2369              	.LBB542:
 2370              	.LBB540:
 2371              		.loc 1 321 5 view .LVU730
 2372 0036 FFF7FEBF 		b	chMtxUnlock
 2373              	.LVL165:
 2374              	.L149:
 2375              		.loc 1 321 5 view .LVU731
 2376 003a 00BF     		.align	2
 2377              	.L148:
 2378 003c 00000000 		.word	.LANCHOR1
 2379 0040 00000000 		.word	.LANCHOR2
 2380 0044 00000000 		.word	.LANCHOR3
 2381              	.LBE540:
 2382              	.LBE542:
 2383              		.cfi_endproc
 2384              	.LFE466:
 2385              		.size	drv_sd_thread_release, .-drv_sd_thread_release
 2386              		.section	.text.drv_sd_thread_post,"ax",%progbits
 2387              		.align	1
 2388              		.p2align 2,,3
 2389              		.global	drv_sd_thread_post
 2390              		.syntax unified
 2391              		.thumb
 2392              		.thumb_func
ARM GAS  C:\Users\DEVELO~1\AppData\Local\Temp\ccyYyX0m.s 			page 43


 2393              		.type	drv_sd_thread_post, %function
 2394              	drv_sd_thread_post:
 2395              	.LVL166:
 2396              	.LFB467:
 2397              		.loc 1 324 44 is_stmt 1 view -0
 2398              		.cfi_startproc
 2399              		@ args = 0, pretend = 0, frame = 0
 2400              		@ frame_needed = 0, uses_anonymous_args = 0
 2401              		.loc 1 325 5 view .LVU733
 2402              		.loc 1 325 8 is_stmt 0 view .LVU734
 2403 0000 0146     		mov	r1, r0
 2404 0002 68B1     		cbz	r0, .L152
 2405              		.loc 1 328 5 is_stmt 1 view .LVU735
 2406              	.LVL167:
 2407              		.loc 1 329 5 view .LVU736
 2408              		.loc 1 329 20 is_stmt 0 view .LVU737
 2409 0004 0022     		movs	r2, #0
 2410 0006 0748     		ldr	r0, .L159
 2411              	.LVL168:
 2412              		.loc 1 324 44 view .LVU738
 2413 0008 08B5     		push	{r3, lr}
 2414              		.cfi_def_cfa_offset 8
 2415              		.cfi_offset 3, -8
 2416              		.cfi_offset 14, -4
 2417              		.loc 1 329 20 view .LVU739
 2418 000a FFF7FEFF 		bl	chMBPostTimeout
 2419              	.LVL169:
 2420              		.loc 1 330 5 is_stmt 1 view .LVU740
 2421              		.loc 1 330 8 is_stmt 0 view .LVU741
 2422 000e 08B9     		cbnz	r0, .L158
 2423              		.loc 1 334 12 view .LVU742
 2424 0010 0120     		movs	r0, #1
 2425              	.LVL170:
 2426              		.loc 1 335 1 view .LVU743
 2427 0012 08BD     		pop	{r3, pc}
 2428              	.LVL171:
 2429              	.L158:
 2430              		.loc 1 331 9 is_stmt 1 view .LVU744
 2431              		.loc 1 331 35 is_stmt 0 view .LVU745
 2432 0014 044A     		ldr	r2, .L159+4
 2433              		.loc 1 332 16 view .LVU746
 2434 0016 0020     		movs	r0, #0
 2435              	.LVL172:
 2436              		.loc 1 331 35 view .LVU747
 2437 0018 936B     		ldr	r3, [r2, #56]
 2438 001a 0133     		adds	r3, r3, #1
 2439 001c 9363     		str	r3, [r2, #56]
 2440              		.loc 1 332 9 is_stmt 1 view .LVU748
 2441              		.loc 1 335 1 is_stmt 0 view .LVU749
 2442 001e 08BD     		pop	{r3, pc}
 2443              	.LVL173:
 2444              	.L152:
 2445              		.cfi_def_cfa_offset 0
 2446              		.cfi_restore 3
 2447              		.cfi_restore 14
 2448              		.loc 1 335 1 view .LVU750
 2449 0020 7047     		bx	lr
ARM GAS  C:\Users\DEVELO~1\AppData\Local\Temp\ccyYyX0m.s 			page 44


 2450              	.L160:
 2451 0022 00BF     		.align	2
 2452              	.L159:
 2453 0024 00000000 		.word	.LANCHOR0
 2454 0028 00000000 		.word	g_sd_stats
 2455              		.cfi_endproc
 2456              	.LFE467:
 2457              		.size	drv_sd_thread_post, .-drv_sd_thread_post
 2458              		.section	.bss.sdThreadWA,"aw",%nobits
 2459              		.align	5
 2460              		.set	.LANCHOR5,. + 0
 2461              		.type	sdThreadWA, %object
 2462              		.size	sdThreadWA, 2528
 2463              	sdThreadWA:
 2464 0000 00000000 		.space	2528
 2464      00000000 
 2464      00000000 
 2464      00000000 
 2464      00000000 
 2465              		.section	.bss.sd_alloc_mutex,"aw",%nobits
 2466              		.align	2
 2467              		.set	.LANCHOR1,. + 0
 2468              		.type	sd_alloc_mutex, %object
 2469              		.size	sd_alloc_mutex, 16
 2470              	sd_alloc_mutex:
 2471 0000 00000000 		.space	16
 2471      00000000 
 2471      00000000 
 2471      00000000 
 2472              		.section	.bss.sd_mailbox_buffer,"aw",%nobits
 2473              		.align	2
 2474              		.set	.LANCHOR4,. + 0
 2475              		.type	sd_mailbox_buffer, %object
 2476              		.size	sd_mailbox_buffer, 32
 2477              	sd_mailbox_buffer:
 2478 0000 00000000 		.space	32
 2478      00000000 
 2478      00000000 
 2478      00000000 
 2478      00000000 
 2479              		.section	.bss.sd_mb,"aw",%nobits
 2480              		.align	2
 2481              		.set	.LANCHOR0,. + 0
 2482              		.type	sd_mb, %object
 2483              		.size	sd_mb, 40
 2484              	sd_mb:
 2485 0000 00000000 		.space	40
 2485      00000000 
 2485      00000000 
 2485      00000000 
 2485      00000000 
 2486              		.section	.bss.sd_request_in_use,"aw",%nobits
 2487              		.align	2
 2488              		.set	.LANCHOR3,. + 0
 2489              		.type	sd_request_in_use, %object
 2490              		.size	sd_request_in_use, 8
 2491              	sd_request_in_use:
ARM GAS  C:\Users\DEVELO~1\AppData\Local\Temp\ccyYyX0m.s 			page 45


 2492 0000 00000000 		.space	8
 2492      00000000 
 2493              		.section	.bss.sd_requests,"aw",%nobits
 2494              		.align	2
 2495              		.set	.LANCHOR2,. + 0
 2496              		.type	sd_requests, %object
 2497              		.size	sd_requests, 480
 2498              	sd_requests:
 2499 0000 00000000 		.space	480
 2499      00000000 
 2499      00000000 
 2499      00000000 
 2499      00000000 
 2500              		.text
 2501              	.Letext0:
 2502              		.file 10 "c:\\chibistudio\\tools\\gnu tools arm embedded\\11.3 2022.08\\lib\\gcc\\arm-none-eabi\\1
 2503              		.file 11 "c:\\chibistudio\\tools\\gnu tools arm embedded\\11.3 2022.08\\arm-none-eabi\\include\\ma
 2504              		.file 12 "c:\\chibistudio\\tools\\gnu tools arm embedded\\11.3 2022.08\\arm-none-eabi\\include\\sy
 2505              		.file 13 "./docs/ChibiOS/os/common/ports/ARM-common/include/chtypes.h"
 2506              		.file 14 "./docs/ChibiOS/os/rt/include/chearly.h"
 2507              		.file 15 "./docs/ChibiOS/os/rt/include/chobjects.h"
 2508              		.file 16 "./docs/ChibiOS/os/rt/include/chrfcu.h"
 2509              		.file 17 "./docs/ChibiOS/os/rt/include/chdebug.h"
 2510              		.file 18 "./docs/ChibiOS/os/rt/include/chtrace.h"
 2511              		.file 19 "./docs/ChibiOS/os/rt/include/chlists.h"
 2512              		.file 20 "./docs/ChibiOS/os/rt/include/chsem.h"
 2513              		.file 21 "./docs/ChibiOS/os/rt/include/chmtx.h"
 2514              		.file 22 "./docs/ChibiOS/os/rt/include/chthreads.h"
 2515              		.file 23 "./docs/ChibiOS/os/oslib/include/chmboxes.h"
 2516              		.file 24 "drivers/sd/drv_sd.h"
 2517              		.file 25 "drivers/sd/drv_sd_thread.h"
 2518              		.file 26 "drivers/sd/drv_sd_fs.h"
 2519              		.file 27 "c:\\chibistudio\\tools\\gnu tools arm embedded\\11.3 2022.08\\arm-none-eabi\\include\\st
 2520              		.file 28 "drivers/sd/drv_sd_project.h"
 2521              		.file 29 "drivers/sd/drv_sd_hal.h"
 2522              		.file 30 "./docs/ChibiOS/os/rt/include/chschd.h"
 2523              		.file 31 "./docs/ChibiOS/os/hal/include/hal_st.h"
 2524              		.file 32 "<built-in>"