ARM GAS  C:\Users\DEVELO~1\AppData\Local\Temp\ccGprDY0.s 			page 1


   1              		.cpu cortex-m7
   2              		.arch armv7e-m
   3              		.fpu fpv5-d16
   4              		.eabi_attribute 28, 1
   5              		.eabi_attribute 20, 1
   6              		.eabi_attribute 21, 1
   7              		.eabi_attribute 23, 3
   8              		.eabi_attribute 24, 1
   9              		.eabi_attribute 25, 1
  10              		.eabi_attribute 26, 1
  11              		.eabi_attribute 30, 2
  12              		.eabi_attribute 34, 1
  13              		.eabi_attribute 18, 4
  14              		.file	"drv_encoders.c"
  15              		.text
  16              	.Ltext0:
  17              		.cfi_sections	.debug_frame
  18              		.section	.text.drv_encoders_start,"ax",%progbits
  19              		.align	1
  20              		.p2align 2,,3
  21              		.global	drv_encoders_start
  22              		.syntax unified
  23              		.thumb
  24              		.thumb_func
  25              		.type	drv_encoders_start, %function
  26              	drv_encoders_start:
  27              	.LFB450:
  28              		.file 1 "drivers/drv_encoders.c"
  29              		.loc 1 61 31 view -0
  30              		.cfi_startproc
  31              		@ args = 0, pretend = 0, frame = 0
  32              		@ frame_needed = 0, uses_anonymous_args = 0
  33              		@ link register save eliminated.
  34              		.loc 1 63 5 view .LVU1
  35              	.LBB40:
  36              	.LBI40:
  37              		.loc 1 20 13 view .LVU2
  38              		.loc 1 21 5 view .LVU3
  39              	.LVL0:
  40              	.LBB41:
  41              	.LBI41:
  42              		.file 2 "../../../os/hal/ports/STM32/STM32H7xx/stm32_rcc.h"
  43              		.loc 2 141 22 view .LVU4
  44              	.LBB42:
  45              		.loc 2 145 3 view .LVU5
  46              		.loc 2 145 20 is_stmt 0 view .LVU6
  47 0000 414A     		ldr	r2, .L4
  48              	.LBE42:
  49              	.LBE41:
  50              	.LBE40:
  51              	.LBB59:
  52              	.LBB60:
  53              		.loc 1 34 14 view .LVU7
  54 0002 0023     		movs	r3, #0
  55 0004 4149     		ldr	r1, .L4+4
  56              	.LBE60:
  57              	.LBE59:
ARM GAS  C:\Users\DEVELO~1\AppData\Local\Temp\ccGprDY0.s 			page 2


  58              	.LBB65:
  59              	.LBB47:
  60              	.LBB43:
  61              		.loc 2 145 20 view .LVU8
  62 0006 D2F8E800 		ldr	r0, [r2, #232]
  63 000a 40F00100 		orr	r0, r0, #1
  64              	.LBE43:
  65              	.LBE47:
  66              	.LBE65:
  67              		.loc 1 61 31 view .LVU9
  68 000e 30B4     		push	{r4, r5}
  69              		.cfi_def_cfa_offset 8
  70              		.cfi_offset 4, -8
  71              		.cfi_offset 5, -4
  72              	.LBB66:
  73              	.LBB48:
  74              	.LBB44:
  75              		.loc 2 145 20 view .LVU10
  76 0010 C2F8E800 		str	r0, [r2, #232]
  77              		.loc 2 146 3 is_stmt 1 view .LVU11
  78              		.loc 2 147 5 view .LVU12
  79              	.LBE44:
  80              	.LBE48:
  81              	.LBE66:
  82              	.LBB67:
  83              	.LBB61:
  84              		.loc 1 37 14 is_stmt 0 view .LVU13
  85 0014 4FF6FF75 		movw	r5, #65535
  86              	.LBE61:
  87              	.LBE67:
  88              	.LBB68:
  89              	.LBB49:
  90              	.LBB45:
  91              		.loc 2 147 24 view .LVU14
  92 0018 D2F81001 		ldr	r0, [r2, #272]
  93              	.LBE45:
  94              	.LBE49:
  95              	.LBE68:
  96              	.LBB69:
  97              	.LBB62:
  98              		.loc 1 40 16 view .LVU15
  99 001c 40F20114 		movw	r4, #257
 100              	.LBE62:
 101              	.LBE69:
 102              	.LBB70:
 103              	.LBB50:
 104              	.LBB46:
 105              		.loc 2 147 24 view .LVU16
 106 0020 40F00100 		orr	r0, r0, #1
 107 0024 C2F81001 		str	r0, [r2, #272]
 108              		.loc 2 152 3 is_stmt 1 view .LVU17
 109 0028 D2F81001 		ldr	r0, [r2, #272]
 110              	.LVL1:
 111              		.loc 2 152 3 is_stmt 0 view .LVU18
 112              	.LBE46:
 113              	.LBE50:
 114              		.loc 1 22 5 is_stmt 1 view .LVU19
ARM GAS  C:\Users\DEVELO~1\AppData\Local\Temp\ccGprDY0.s 			page 3


 115              	.LBB51:
 116              	.LBI51:
 117              		.loc 2 141 22 view .LVU20
 118              	.LBB52:
 119              		.loc 2 145 3 view .LVU21
 120              		.loc 2 145 20 is_stmt 0 view .LVU22
 121 002c D2F8E800 		ldr	r0, [r2, #232]
 122 0030 40F00200 		orr	r0, r0, #2
 123 0034 C2F8E800 		str	r0, [r2, #232]
 124              		.loc 2 146 3 is_stmt 1 view .LVU23
 125              		.loc 2 147 5 view .LVU24
 126              		.loc 2 147 24 is_stmt 0 view .LVU25
 127 0038 D2F81001 		ldr	r0, [r2, #272]
 128 003c 40F00200 		orr	r0, r0, #2
 129 0040 C2F81001 		str	r0, [r2, #272]
 130              		.loc 2 152 3 is_stmt 1 view .LVU26
 131 0044 D2F81001 		ldr	r0, [r2, #272]
 132              	.LVL2:
 133              		.loc 2 152 3 is_stmt 0 view .LVU27
 134              	.LBE52:
 135              	.LBE51:
 136              		.loc 1 23 5 is_stmt 1 view .LVU28
 137              	.LBB53:
 138              	.LBI53:
 139              		.loc 2 141 22 view .LVU29
 140              	.LBB54:
 141              		.loc 2 145 3 view .LVU30
 142              		.loc 2 145 20 is_stmt 0 view .LVU31
 143 0048 D2F8E800 		ldr	r0, [r2, #232]
 144 004c 40F00400 		orr	r0, r0, #4
 145 0050 C2F8E800 		str	r0, [r2, #232]
 146              		.loc 2 146 3 is_stmt 1 view .LVU32
 147              		.loc 2 147 5 view .LVU33
 148              		.loc 2 147 24 is_stmt 0 view .LVU34
 149 0054 D2F81001 		ldr	r0, [r2, #272]
 150 0058 40F00400 		orr	r0, r0, #4
 151 005c C2F81001 		str	r0, [r2, #272]
 152              		.loc 2 152 3 is_stmt 1 view .LVU35
 153 0060 D2F81001 		ldr	r0, [r2, #272]
 154              	.LVL3:
 155              		.loc 2 152 3 is_stmt 0 view .LVU36
 156              	.LBE54:
 157              	.LBE53:
 158              		.loc 1 24 5 is_stmt 1 view .LVU37
 159              	.LBB55:
 160              	.LBI55:
 161              		.loc 2 141 22 view .LVU38
 162              	.LBB56:
 163              		.loc 2 145 3 view .LVU39
 164              		.loc 2 145 20 is_stmt 0 view .LVU40
 165 0064 D2F8E800 		ldr	r0, [r2, #232]
 166 0068 40F00800 		orr	r0, r0, #8
 167 006c C2F8E800 		str	r0, [r2, #232]
 168              		.loc 2 146 3 is_stmt 1 view .LVU41
 169              		.loc 2 147 5 view .LVU42
 170              		.loc 2 147 24 is_stmt 0 view .LVU43
 171 0070 D2F81001 		ldr	r0, [r2, #272]
ARM GAS  C:\Users\DEVELO~1\AppData\Local\Temp\ccGprDY0.s 			page 4


 172 0074 40F00800 		orr	r0, r0, #8
 173 0078 C2F81001 		str	r0, [r2, #272]
 174              		.loc 2 152 3 is_stmt 1 view .LVU44
 175              	.LBE56:
 176              	.LBE55:
 177              	.LBE70:
 178              	.LBB71:
 179              	.LBB63:
 180              		.loc 1 48 15 is_stmt 0 view .LVU45
 181 007c 0320     		movs	r0, #3
 182              	.LBE63:
 183              	.LBE71:
 184              	.LBB72:
 185              	.LBB58:
 186              	.LBB57:
 187              		.loc 2 152 3 view .LVU46
 188 007e D2F81021 		ldr	r2, [r2, #272]
 189              	.LVL4:
 190              		.loc 2 152 3 view .LVU47
 191              	.LBE57:
 192              	.LBE58:
 193              	.LBE72:
 194              		.loc 1 65 5 is_stmt 1 view .LVU48
 195              	.LBB73:
 196              	.LBI59:
 197              		.loc 1 31 13 view .LVU49
 198              	.LBB64:
 199              		.loc 1 34 5 view .LVU50
 200              		.loc 1 34 14 is_stmt 0 view .LVU51
 201 0082 0B60     		str	r3, [r1]
 202              		.loc 1 35 5 is_stmt 1 view .LVU52
 203              		.loc 1 35 14 is_stmt 0 view .LVU53
 204 0084 4B62     		str	r3, [r1, #36]
 205              		.loc 1 36 5 is_stmt 1 view .LVU54
 206              		.loc 1 36 14 is_stmt 0 view .LVU55
 207 0086 8B62     		str	r3, [r1, #40]
 208              		.loc 1 37 5 is_stmt 1 view .LVU56
 209              		.loc 1 37 14 is_stmt 0 view .LVU57
 210 0088 CD62     		str	r5, [r1, #44]
 211              		.loc 1 40 5 is_stmt 1 view .LVU58
 212              		.loc 1 40 16 is_stmt 0 view .LVU59
 213 008a 8C61     		str	r4, [r1, #24]
 214              		.loc 1 45 5 is_stmt 1 view .LVU60
 215              		.loc 1 45 15 is_stmt 0 view .LVU61
 216 008c 0B62     		str	r3, [r1, #32]
 217              		.loc 1 48 5 is_stmt 1 view .LVU62
 218              		.loc 1 48 15 is_stmt 0 view .LVU63
 219 008e 8860     		str	r0, [r1, #8]
 220              		.loc 1 51 5 is_stmt 1 view .LVU64
 221              		.loc 1 51 13 is_stmt 0 view .LVU65
 222 0090 0B61     		str	r3, [r1, #16]
 223              		.loc 1 54 5 is_stmt 1 view .LVU66
 224              		.loc 1 54 14 is_stmt 0 view .LVU67
 225 0092 0A68     		ldr	r2, [r1]
 226 0094 42F00102 		orr	r2, r2, #1
 227 0098 0A60     		str	r2, [r1]
 228              	.LVL5:
ARM GAS  C:\Users\DEVELO~1\AppData\Local\Temp\ccGprDY0.s 			page 5


 229              		.loc 1 54 14 view .LVU68
 230              	.LBE64:
 231              	.LBE73:
 232              		.loc 1 66 5 is_stmt 1 view .LVU69
 233              	.LBB74:
 234              	.LBI74:
 235              		.loc 1 31 13 view .LVU70
 236              	.LBB75:
 237              		.loc 1 34 5 view .LVU71
 238              		.loc 1 34 14 is_stmt 0 view .LVU72
 239 009a 4FF08042 		mov	r2, #1073741824
 240 009e 1360     		str	r3, [r2]
 241              		.loc 1 35 5 is_stmt 1 view .LVU73
 242              		.loc 1 35 14 is_stmt 0 view .LVU74
 243 00a0 5362     		str	r3, [r2, #36]
 244              		.loc 1 36 5 is_stmt 1 view .LVU75
 245              		.loc 1 36 14 is_stmt 0 view .LVU76
 246 00a2 9362     		str	r3, [r2, #40]
 247              		.loc 1 37 5 is_stmt 1 view .LVU77
 248              		.loc 1 37 14 is_stmt 0 view .LVU78
 249 00a4 D562     		str	r5, [r2, #44]
 250              		.loc 1 40 5 is_stmt 1 view .LVU79
 251              		.loc 1 40 16 is_stmt 0 view .LVU80
 252 00a6 9461     		str	r4, [r2, #24]
 253              		.loc 1 45 5 is_stmt 1 view .LVU81
 254              		.loc 1 45 15 is_stmt 0 view .LVU82
 255 00a8 1362     		str	r3, [r2, #32]
 256              		.loc 1 48 5 is_stmt 1 view .LVU83
 257              		.loc 1 48 15 is_stmt 0 view .LVU84
 258 00aa 9060     		str	r0, [r2, #8]
 259              		.loc 1 51 5 is_stmt 1 view .LVU85
 260              		.loc 1 51 13 is_stmt 0 view .LVU86
 261 00ac 1361     		str	r3, [r2, #16]
 262              		.loc 1 54 5 is_stmt 1 view .LVU87
 263              		.loc 1 54 14 is_stmt 0 view .LVU88
 264 00ae 1168     		ldr	r1, [r2]
 265 00b0 41F00101 		orr	r1, r1, #1
 266 00b4 1160     		str	r1, [r2]
 267              	.LVL6:
 268              		.loc 1 54 14 view .LVU89
 269              	.LBE75:
 270              	.LBE74:
 271              		.loc 1 67 5 is_stmt 1 view .LVU90
 272              	.LBB76:
 273              	.LBI76:
 274              		.loc 1 31 13 view .LVU91
 275              	.LBB77:
 276              		.loc 1 34 5 view .LVU92
 277              	.LBE77:
 278              	.LBE76:
 279              	.LBB79:
 280              	.LBB80:
 281              		.loc 1 34 14 is_stmt 0 view .LVU93
 282 00b6 02F50062 		add	r2, r2, #2048
 283              	.LBE80:
 284              	.LBE79:
 285              	.LBB84:
ARM GAS  C:\Users\DEVELO~1\AppData\Local\Temp\ccGprDY0.s 			page 6


 286              	.LBB78:
 287 00ba C2F80034 		str	r3, [r2, #1024]
 288              		.loc 1 35 5 is_stmt 1 view .LVU94
 289              		.loc 1 35 14 is_stmt 0 view .LVU95
 290 00be C2F82434 		str	r3, [r2, #1060]
 291              		.loc 1 36 5 is_stmt 1 view .LVU96
 292              		.loc 1 36 14 is_stmt 0 view .LVU97
 293 00c2 C2F82834 		str	r3, [r2, #1064]
 294              		.loc 1 37 5 is_stmt 1 view .LVU98
 295              		.loc 1 37 14 is_stmt 0 view .LVU99
 296 00c6 C2F82C54 		str	r5, [r2, #1068]
 297              		.loc 1 40 5 is_stmt 1 view .LVU100
 298              		.loc 1 40 16 is_stmt 0 view .LVU101
 299 00ca C2F81844 		str	r4, [r2, #1048]
 300              		.loc 1 45 5 is_stmt 1 view .LVU102
 301              		.loc 1 45 15 is_stmt 0 view .LVU103
 302 00ce C2F82034 		str	r3, [r2, #1056]
 303              		.loc 1 48 5 is_stmt 1 view .LVU104
 304              		.loc 1 48 15 is_stmt 0 view .LVU105
 305 00d2 C2F80804 		str	r0, [r2, #1032]
 306              		.loc 1 51 5 is_stmt 1 view .LVU106
 307              		.loc 1 51 13 is_stmt 0 view .LVU107
 308 00d6 C2F81034 		str	r3, [r2, #1040]
 309              		.loc 1 54 5 is_stmt 1 view .LVU108
 310              		.loc 1 54 14 is_stmt 0 view .LVU109
 311 00da D2F80014 		ldr	r1, [r2, #1024]
 312 00de 41F00101 		orr	r1, r1, #1
 313 00e2 C2F80014 		str	r1, [r2, #1024]
 314              	.LVL7:
 315              		.loc 1 54 14 view .LVU110
 316              	.LBE78:
 317              	.LBE84:
 318              		.loc 1 68 5 is_stmt 1 view .LVU111
 319              	.LBB85:
 320              	.LBI79:
 321              		.loc 1 31 13 view .LVU112
 322              	.LBB81:
 323              		.loc 1 34 5 view .LVU113
 324              		.loc 1 34 14 is_stmt 0 view .LVU114
 325 00e6 1360     		str	r3, [r2]
 326              		.loc 1 35 5 is_stmt 1 view .LVU115
 327              		.loc 1 35 14 is_stmt 0 view .LVU116
 328 00e8 5362     		str	r3, [r2, #36]
 329              		.loc 1 36 5 is_stmt 1 view .LVU117
 330              		.loc 1 36 14 is_stmt 0 view .LVU118
 331 00ea 9362     		str	r3, [r2, #40]
 332              		.loc 1 37 5 is_stmt 1 view .LVU119
 333              		.loc 1 37 14 is_stmt 0 view .LVU120
 334 00ec D562     		str	r5, [r2, #44]
 335              		.loc 1 40 5 is_stmt 1 view .LVU121
 336              		.loc 1 40 16 is_stmt 0 view .LVU122
 337 00ee 9461     		str	r4, [r2, #24]
 338              		.loc 1 45 5 is_stmt 1 view .LVU123
 339              		.loc 1 45 15 is_stmt 0 view .LVU124
 340 00f0 1362     		str	r3, [r2, #32]
 341              		.loc 1 48 5 is_stmt 1 view .LVU125
 342              		.loc 1 48 15 is_stmt 0 view .LVU126
ARM GAS  C:\Users\DEVELO~1\AppData\Local\Temp\ccGprDY0.s 			page 7


 343 00f2 9060     		str	r0, [r2, #8]
 344              		.loc 1 51 5 is_stmt 1 view .LVU127
 345              		.loc 1 51 13 is_stmt 0 view .LVU128
 346 00f4 1361     		str	r3, [r2, #16]
 347              		.loc 1 54 5 is_stmt 1 view .LVU129
 348              		.loc 1 54 14 is_stmt 0 view .LVU130
 349 00f6 1168     		ldr	r1, [r2]
 350              	.LBE81:
 351              	.LBE85:
 352              	.LBB86:
 353              		.loc 1 71 21 view .LVU131
 354 00f8 0548     		ldr	r0, .L4+8
 355              	.LBE86:
 356              	.LBB87:
 357              	.LBB82:
 358              		.loc 1 54 14 view .LVU132
 359 00fa 41F00101 		orr	r1, r1, #1
 360              	.LBE82:
 361              	.LBE87:
 362              	.LBB88:
 363              		.loc 1 71 21 view .LVU133
 364 00fe 4360     		str	r3, [r0, #4]
 365              	.LBE88:
 366              	.LBB89:
 367              	.LBB83:
 368              		.loc 1 54 14 view .LVU134
 369 0100 1160     		str	r1, [r2]
 370              	.LVL8:
 371              		.loc 1 54 14 view .LVU135
 372              	.LBE83:
 373              	.LBE89:
 374              		.loc 1 70 5 is_stmt 1 view .LVU136
 375              	.LBB90:
 376              		.loc 1 70 10 view .LVU137
 377              		.loc 1 70 23 view .LVU138
 378              		.loc 1 71 9 view .LVU139
 379              		.loc 1 70 29 view .LVU140
 380              		.loc 1 70 23 view .LVU141
 381              		.loc 1 71 9 view .LVU142
 382              		.loc 1 70 29 view .LVU143
 383              		.loc 1 70 23 view .LVU144
 384              		.loc 1 71 9 view .LVU145
 385              		.loc 1 70 29 view .LVU146
 386              		.loc 1 70 23 view .LVU147
 387              		.loc 1 71 9 view .LVU148
 388              		.loc 1 70 29 view .LVU149
 389              		.loc 1 70 23 view .LVU150
 390              		.loc 1 71 21 is_stmt 0 view .LVU151
 391 0102 0360     		str	r3, [r0]
 392              	.LBE90:
 393              		.loc 1 72 1 view .LVU152
 394 0104 30BC     		pop	{r4, r5}
 395              		.cfi_restore 5
 396              		.cfi_restore 4
 397              		.cfi_def_cfa_offset 0
 398 0106 7047     		bx	lr
 399              	.L5:
ARM GAS  C:\Users\DEVELO~1\AppData\Local\Temp\ccGprDY0.s 			page 8


 400              		.align	2
 401              	.L4:
 402 0108 00440258 		.word	1476543488
 403 010c 00040040 		.word	1073742848
 404 0110 00000000 		.word	.LANCHOR0
 405              		.cfi_endproc
 406              	.LFE450:
 407              		.size	drv_encoders_start, .-drv_encoders_start
 408              		.section	.text.drv_encoder_get,"ax",%progbits
 409              		.align	1
 410              		.p2align 2,,3
 411              		.global	drv_encoder_get
 412              		.syntax unified
 413              		.thumb
 414              		.thumb_func
 415              		.type	drv_encoder_get, %function
 416              	drv_encoder_get:
 417              	.LVL9:
 418              	.LFB451:
 419              		.loc 1 74 42 is_stmt 1 view -0
 420              		.cfi_startproc
 421              		@ args = 0, pretend = 0, frame = 0
 422              		@ frame_needed = 0, uses_anonymous_args = 0
 423              		@ link register save eliminated.
 424              		.loc 1 75 5 view .LVU154
 425              		.loc 1 75 27 is_stmt 0 view .LVU155
 426 0000 024B     		ldr	r3, .L7
 427 0002 53F82030 		ldr	r3, [r3, r0, lsl #2]
 428              		.loc 1 75 31 view .LVU156
 429 0006 586A     		ldr	r0, [r3, #36]
 430              	.LVL10:
 431              		.loc 1 76 1 view .LVU157
 432 0008 00B2     		sxth	r0, r0
 433 000a 7047     		bx	lr
 434              	.L8:
 435              		.align	2
 436              	.L7:
 437 000c 00000000 		.word	.LANCHOR1
 438              		.cfi_endproc
 439              	.LFE451:
 440              		.size	drv_encoder_get, .-drv_encoder_get
 441              		.section	.text.drv_encoder_reset,"ax",%progbits
 442              		.align	1
 443              		.p2align 2,,3
 444              		.global	drv_encoder_reset
 445              		.syntax unified
 446              		.thumb
 447              		.thumb_func
 448              		.type	drv_encoder_reset, %function
 449              	drv_encoder_reset:
 450              	.LVL11:
 451              	.LFB452:
 452              		.loc 1 78 41 is_stmt 1 view -0
 453              		.cfi_startproc
 454              		@ args = 0, pretend = 0, frame = 0
 455              		@ frame_needed = 0, uses_anonymous_args = 0
 456              		@ link register save eliminated.
ARM GAS  C:\Users\DEVELO~1\AppData\Local\Temp\ccGprDY0.s 			page 9


 457              		.loc 1 79 5 view .LVU159
 458              		.loc 1 79 11 is_stmt 0 view .LVU160
 459 0000 044A     		ldr	r2, .L10
 460              		.loc 1 79 21 view .LVU161
 461 0002 0023     		movs	r3, #0
 462              		.loc 1 80 18 view .LVU162
 463 0004 0449     		ldr	r1, .L10+4
 464              		.loc 1 79 11 view .LVU163
 465 0006 52F82020 		ldr	r2, [r2, r0, lsl #2]
 466              		.loc 1 80 18 view .LVU164
 467 000a 21F81030 		strh	r3, [r1, r0, lsl #1]	@ movhi
 468              		.loc 1 79 21 view .LVU165
 469 000e 5362     		str	r3, [r2, #36]
 470              		.loc 1 80 5 is_stmt 1 view .LVU166
 471              		.loc 1 81 1 is_stmt 0 view .LVU167
 472 0010 7047     		bx	lr
 473              	.L11:
 474 0012 00BF     		.align	2
 475              	.L10:
 476 0014 00000000 		.word	.LANCHOR1
 477 0018 00000000 		.word	.LANCHOR0
 478              		.cfi_endproc
 479              	.LFE452:
 480              		.size	drv_encoder_reset, .-drv_encoder_reset
 481              		.section	.text.drv_encoder_get_delta,"ax",%progbits
 482              		.align	1
 483              		.p2align 2,,3
 484              		.global	drv_encoder_get_delta
 485              		.syntax unified
 486              		.thumb
 487              		.thumb_func
 488              		.type	drv_encoder_get_delta, %function
 489              	drv_encoder_get_delta:
 490              	.LVL12:
 491              	.LFB453:
 492              		.loc 1 83 48 is_stmt 1 view -0
 493              		.cfi_startproc
 494              		@ args = 0, pretend = 0, frame = 0
 495              		@ frame_needed = 0, uses_anonymous_args = 0
 496              		@ link register save eliminated.
 497              		.loc 1 84 5 view .LVU169
 498              		.loc 1 84 36 is_stmt 0 view .LVU170
 499 0000 054B     		ldr	r3, .L13
 500              		.loc 1 85 35 view .LVU171
 501 0002 064A     		ldr	r2, .L13+4
 502              		.loc 1 84 36 view .LVU172
 503 0004 53F82010 		ldr	r1, [r3, r0, lsl #2]
 504              		.loc 1 85 25 view .LVU173
 505 0008 32F81030 		ldrh	r3, [r2, r0, lsl #1]
 506              		.loc 1 84 40 view .LVU174
 507 000c 496A     		ldr	r1, [r1, #36]
 508              	.LVL13:
 509              		.loc 1 85 5 is_stmt 1 view .LVU175
 510              		.loc 1 85 25 is_stmt 0 view .LVU176
 511 000e CB1A     		subs	r3, r1, r3
 512              	.LVL14:
 513              		.loc 1 86 5 is_stmt 1 view .LVU177
ARM GAS  C:\Users\DEVELO~1\AppData\Local\Temp\ccGprDY0.s 			page 10


 514              		.loc 1 84 13 is_stmt 0 view .LVU178
 515 0010 22F81010 		strh	r1, [r2, r0, lsl #1]	@ movhi
 516              		.loc 1 87 5 is_stmt 1 view .LVU179
 517              		.loc 1 88 1 is_stmt 0 view .LVU180
 518 0014 18B2     		sxth	r0, r3
 519              	.LVL15:
 520              		.loc 1 88 1 view .LVU181
 521 0016 7047     		bx	lr
 522              	.L14:
 523              		.align	2
 524              	.L13:
 525 0018 00000000 		.word	.LANCHOR1
 526 001c 00000000 		.word	.LANCHOR0
 527              		.cfi_endproc
 528              	.LFE453:
 529              		.size	drv_encoder_get_delta, .-drv_encoder_get_delta
 530              		.section	.text.drv_encoder_get_delta_accel,"ax",%progbits
 531              		.align	1
 532              		.p2align 2,,3
 533              		.global	drv_encoder_get_delta_accel
 534              		.syntax unified
 535              		.thumb
 536              		.thumb_func
 537              		.type	drv_encoder_get_delta_accel, %function
 538              	drv_encoder_get_delta_accel:
 539              	.LVL16:
 540              	.LFB454:
 541              		.loc 1 91 54 is_stmt 1 view -0
 542              		.cfi_startproc
 543              		@ args = 0, pretend = 0, frame = 0
 544              		@ frame_needed = 0, uses_anonymous_args = 0
 545              		@ link register save eliminated.
 546              		.loc 1 92 5 view .LVU183
 547              	.LBB91:
 548              	.LBB92:
 549              		.loc 1 84 36 is_stmt 0 view .LVU184
 550 0000 0C4B     		ldr	r3, .L22
 551              		.loc 1 85 35 view .LVU185
 552 0002 0D4A     		ldr	r2, .L22+4
 553              	.LVL17:
 554              		.loc 1 85 35 view .LVU186
 555              	.LBE92:
 556              	.LBI91:
 557              		.loc 1 83 9 is_stmt 1 view .LVU187
 558              	.LBB93:
 559              		.loc 1 84 5 view .LVU188
 560              		.loc 1 84 36 is_stmt 0 view .LVU189
 561 0004 53F82030 		ldr	r3, [r3, r0, lsl #2]
 562              		.loc 1 85 25 view .LVU190
 563 0008 32F81010 		ldrh	r1, [r2, r0, lsl #1]
 564              		.loc 1 84 40 view .LVU191
 565 000c 5B6A     		ldr	r3, [r3, #36]
 566              	.LVL18:
 567              		.loc 1 85 5 is_stmt 1 view .LVU192
 568              		.loc 1 84 13 is_stmt 0 view .LVU193
 569 000e 22F81030 		strh	r3, [r2, r0, lsl #1]	@ movhi
 570              		.loc 1 85 25 view .LVU194
ARM GAS  C:\Users\DEVELO~1\AppData\Local\Temp\ccGprDY0.s 			page 11


 571 0012 5B1A     		subs	r3, r3, r1
 572              	.LVL19:
 573              		.loc 1 85 13 view .LVU195
 574 0014 18B2     		sxth	r0, r3
 575              	.LVL20:
 576              		.loc 1 86 5 is_stmt 1 view .LVU196
 577              		.loc 1 87 5 view .LVU197
 578              		.loc 1 87 5 is_stmt 0 view .LVU198
 579              	.LBE93:
 580              	.LBE91:
 581              		.loc 1 94 5 is_stmt 1 view .LVU199
 582              	.LBB95:
 583              	.LBB94:
 584              		.loc 1 85 25 is_stmt 0 view .LVU200
 585 0016 9BB2     		uxth	r3, r3
 586              	.LBE94:
 587              	.LBE95:
 588              		.loc 1 94 8 view .LVU201
 589 0018 0528     		cmp	r0, #5
 590 001a 08DC     		bgt	.L20
 591              		.loc 1 95 10 is_stmt 1 view .LVU202
 592              		.loc 1 95 13 is_stmt 0 view .LVU203
 593 001c 0228     		cmp	r0, #2
 594 001e 03DC     		bgt	.L21
 595              		.loc 1 96 10 is_stmt 1 view .LVU204
 596              		.loc 1 96 13 is_stmt 0 view .LVU205
 597 0020 411D     		adds	r1, r0, #5
 598 0022 04DB     		blt	.L20
 599              		.loc 1 97 10 is_stmt 1 view .LVU206
 600              		.loc 1 97 13 is_stmt 0 view .LVU207
 601 0024 821C     		adds	r2, r0, #2
 602 0026 01DA     		bge	.L17
 603              	.L21:
 604              		.loc 1 97 22 is_stmt 1 discriminator 1 view .LVU208
 605              		.loc 1 97 31 is_stmt 0 discriminator 1 view .LVU209
 606 0028 5B00     		lsls	r3, r3, #1
 607 002a 18B2     		sxth	r0, r3
 608              	.LVL21:
 609              	.L17:
 610              		.loc 1 99 1 view .LVU210
 611 002c 7047     		bx	lr
 612              	.LVL22:
 613              	.L20:
 614              		.loc 1 96 22 is_stmt 1 discriminator 1 view .LVU211
 615              		.loc 1 96 31 is_stmt 0 discriminator 1 view .LVU212
 616 002e 9B00     		lsls	r3, r3, #2
 617 0030 18B2     		sxth	r0, r3
 618              	.LVL23:
 619              		.loc 1 96 31 discriminator 1 view .LVU213
 620 0032 7047     		bx	lr
 621              	.L23:
 622              		.align	2
 623              	.L22:
 624 0034 00000000 		.word	.LANCHOR1
 625 0038 00000000 		.word	.LANCHOR0
 626              		.cfi_endproc
 627              	.LFE454:
ARM GAS  C:\Users\DEVELO~1\AppData\Local\Temp\ccGprDY0.s 			page 12


 628              		.size	drv_encoder_get_delta_accel, .-drv_encoder_get_delta_accel
 629              		.section	.bss.last_val,"aw",%nobits
 630              		.align	2
 631              		.set	.LANCHOR0,. + 0
 632              		.type	last_val, %object
 633              		.size	last_val, 8
 634              	last_val:
 635 0000 00000000 		.space	8
 635      00000000 
 636              		.section	.rodata.timers,"a"
 637              		.align	2
 638              		.set	.LANCHOR1,. + 0
 639              		.type	timers, %object
 640              		.size	timers, 16
 641              	timers:
 642 0000 00040040 		.word	1073742848
 643 0004 00000040 		.word	1073741824
 644 0008 000C0040 		.word	1073744896
 645 000c 00080040 		.word	1073743872
 646              		.text
 647              	.Letext0:
 648              		.file 3 "c:\\chibistudio\\tools\\gnu tools arm embedded\\11.3 2022.08\\arm-none-eabi\\include\\mac
 649              		.file 4 "c:\\chibistudio\\tools\\gnu tools arm embedded\\11.3 2022.08\\arm-none-eabi\\include\\sys
 650              		.file 5 "drivers/drv_encoders.h"
 651              		.file 6 "../../../os/common/ext/ST/STM32H7xx/stm32h743xx.h"