ARM GAS  C:\Users\DEVELO~1\AppData\Local\Temp\ccz4xMdi.s 			page 1


   1              		.cpu cortex-m7
   2              		.arch armv7e-m
   3              		.fpu fpv5-d16
   4              		.eabi_attribute 28, 1
   5              		.eabi_attribute 20, 1
   6              		.eabi_attribute 21, 1
   7              		.eabi_attribute 23, 3
   8              		.eabi_attribute 24, 1
   9              		.eabi_attribute 25, 1
  10              		.eabi_attribute 26, 1
  11              		.eabi_attribute 30, 2
  12              		.eabi_attribute 34, 1
  13              		.eabi_attribute 18, 4
  14              		.file	"drv_hall.c"
  15              		.text
  16              	.Ltext0:
  17              		.cfi_sections	.debug_frame
  18              		.global	__aeabi_uldivmod
  19              		.global	__aeabi_ldivmod
  20              		.section	.text.update_state,"ax",%progbits
  21              		.align	1
  22              		.p2align 2,,3
  23              		.syntax unified
  24              		.thumb
  25              		.thumb_func
  26              		.type	update_state, %function
  27              	update_state:
  28              	.LVL0:
  29              	.LFB454:
  30              		.file 1 "drivers/HallEffect/drv_hall.c"
  31              		.loc 1 194 88 view -0
  32              		.cfi_startproc
  33              		@ args = 0, pretend = 0, frame = 32
  34              		@ frame_needed = 0, uses_anonymous_args = 0
  35              		.loc 1 195 5 view .LVU1
  36              		.loc 1 199 5 view .LVU2
  37              		.loc 1 200 5 view .LVU3
  38              		.loc 1 194 88 is_stmt 0 view .LVU4
  39 0000 2DE9F04F 		push	{r4, r5, r6, r7, r8, r9, r10, fp, lr}
  40              		.cfi_def_cfa_offset 36
  41              		.cfi_offset 4, -36
  42              		.cfi_offset 5, -32
  43              		.cfi_offset 6, -28
  44              		.cfi_offset 7, -24
  45              		.cfi_offset 8, -20
  46              		.cfi_offset 9, -16
  47              		.cfi_offset 10, -12
  48              		.cfi_offset 11, -8
  49              		.cfi_offset 14, -4
  50              		.loc 1 200 14 view .LVU5
  51 0004 0023     		movs	r3, #0
  52              		.loc 1 194 88 view .LVU6
  53 0006 89B0     		sub	sp, sp, #36
  54              		.cfi_def_cfa_offset 72
  55              		.loc 1 202 9 view .LVU7
  56 0008 A04D     		ldr	r5, .L53
  57              		.loc 1 194 88 view .LVU8
ARM GAS  C:\Users\DEVELO~1\AppData\Local\Temp\ccz4xMdi.s 			page 2


  58 000a 0446     		mov	r4, r0
  59 000c 8846     		mov	r8, r1
  60              		.loc 1 200 14 view .LVU9
  61 000e ADF81E30 		strh	r3, [sp, #30]	@ movhi
  62              		.loc 1 202 5 is_stmt 1 view .LVU10
  63              		.loc 1 202 9 is_stmt 0 view .LVU11
  64 0012 0146     		mov	r1, r0
  65              	.LVL1:
  66              		.loc 1 202 9 view .LVU12
  67 0014 0DF11E03 		add	r3, sp, #30
  68 0018 2846     		mov	r0, r5
  69              	.LVL2:
  70              		.loc 1 202 9 view .LVU13
  71 001a FFF7FEFF 		bl	brick_cal_pot_next
  72              	.LVL3:
  73              		.loc 1 202 8 view .LVU14
  74 001e 0028     		cmp	r0, #0
  75 0020 40F0C580 		bne	.L1
  76              		.loc 1 206 5 is_stmt 1 view .LVU15
  77              	.LVL4:
  78              		.loc 1 207 5 view .LVU16
  79              		.loc 1 209 5 view .LVU17
  80              		.loc 1 206 14 is_stmt 0 view .LVU18
  81 0024 DFF880A2 		ldr	r10, .L53+28
  82 0028 04EB4403 		add	r3, r4, r4, lsl #1
  83              		.loc 1 209 22 view .LVU19
  84 002c 05EB4402 		add	r2, r5, r4, lsl #1
  85              		.loc 1 224 79 view .LVU20
  86 0030 974E     		ldr	r6, .L53+4
  87              		.loc 1 206 14 view .LVU21
  88 0032 0AEBC303 		add	r3, r10, r3, lsl #3
  89 0036 B2F80490 		ldrh	r9, [r2, #4]
  90              		.loc 1 209 22 view .LVU22
  91 003a 6500     		lsls	r5, r4, #1
  92 003c 978C     		ldrh	r7, [r2, #36]
  93 003e 9A88     		ldrh	r2, [r3, #4]
  94 0040 DB88     		ldrh	r3, [r3, #6]
  95 0042 9145     		cmp	r9, r2
  96 0044 28BF     		it	cs
  97 0046 9146     		movcs	r9, r2
  98              	.LVL5:
  99              		.loc 1 212 5 is_stmt 1 view .LVU23
 100              		.loc 1 215 5 view .LVU24
 101 0048 9F42     		cmp	r7, r3
 102 004a 38BF     		it	cc
 103 004c 1F46     		movcc	r7, r3
 104 004e 4F45     		cmp	r7, r9
 105 0050 38BF     		it	cc
 106 0052 4F46     		movcc	r7, r9
 107              	.LVL6:
 108              		.loc 1 219 5 view .LVU25
 109              		.loc 1 219 14 is_stmt 0 view .LVU26
 110 0054 A7EB0901 		sub	r1, r7, r9
 111 0058 88B2     		uxth	r0, r1
 112              	.LVL7:
 113              		.loc 1 220 5 is_stmt 1 view .LVU27
 114 005a 0128     		cmp	r0, #1
ARM GAS  C:\Users\DEVELO~1\AppData\Local\Temp\ccz4xMdi.s 			page 3


 115 005c 0346     		mov	r3, r0
 116 005e 38BF     		it	cc
 117 0060 0123     		movcc	r3, #1
 118              	.LVL8:
 119              		.loc 1 224 5 view .LVU28
 120              		.loc 1 225 64 is_stmt 0 view .LVU29
 121 0062 03EB4302 		add	r2, r3, r3, lsl #1
 122 0066 5200     		lsls	r2, r2, #1
 123              		.loc 1 225 83 view .LVU30
 124 0068 A6FB02C2 		umull	ip, r2, r6, r2
 125              		.loc 1 224 62 view .LVU31
 126 006c 4FEA830C 		lsl	ip, r3, #2
 127              		.loc 1 224 79 view .LVU32
 128 0070 A6FB0CC6 		umull	ip, r6, r6, ip
 129              		.loc 1 225 14 view .LVU33
 130 0074 09EBD202 		add	r2, r9, r2, lsr #3
 131              		.loc 1 224 14 view .LVU34
 132 0078 09EBD606 		add	r6, r9, r6, lsr #3
 133              		.loc 1 225 14 view .LVU35
 134 007c 92B2     		uxth	r2, r2
 135              		.loc 1 224 14 view .LVU36
 136 007e B6B2     		uxth	r6, r6
 137              	.LVL9:
 138              		.loc 1 225 5 is_stmt 1 view .LVU37
 139              		.loc 1 226 5 view .LVU38
 140              		.loc 1 226 8 is_stmt 0 view .LVU39
 141 0080 9642     		cmp	r6, r2
 142 0082 01D3     		bcc	.L3
 143              		.loc 1 227 9 is_stmt 1 view .LVU40
 144              		.loc 1 227 20 is_stmt 0 view .LVU41
 145 0084 721C     		adds	r2, r6, #1
 146              	.LVL10:
 147              		.loc 1 227 20 view .LVU42
 148 0086 92B2     		uxth	r2, r2
 149              	.LVL11:
 150              	.L3:
 151              		.loc 1 229 5 is_stmt 1 view .LVU43
 152              		.loc 1 232 5 view .LVU44
 153 0088 BA42     		cmp	r2, r7
 154 008a 28BF     		it	cs
 155 008c 3A46     		movcs	r2, r7
 156              	.LVL12:
 157              		.loc 1 232 5 is_stmt 0 view .LVU45
 158 008e B242     		cmp	r2, r6
 159 0090 38BF     		it	cc
 160 0092 3246     		movcc	r2, r6
 161              	.LBB56:
 162              	.LBB57:
 163              		.loc 1 153 8 view .LVU46
 164 0094 1328     		cmp	r0, #19
 165 0096 0192     		str	r2, [sp, #4]
 166              	.LVL13:
 167              		.loc 1 153 8 view .LVU47
 168              	.LBE57:
 169              	.LBE56:
 170              		.loc 1 236 5 is_stmt 1 view .LVU48
 171              	.LBB61:
ARM GAS  C:\Users\DEVELO~1\AppData\Local\Temp\ccz4xMdi.s 			page 4


 172              	.LBI56:
 173              		.loc 1 151 17 view .LVU49
 174              	.LBB58:
 175              		.loc 1 152 5 view .LVU50
 176              		.loc 1 153 5 view .LVU51
 177              		.loc 1 153 8 is_stmt 0 view .LVU52
 178 0098 40F28C80 		bls	.L21
 179              	.LVL14:
 180              		.loc 1 156 5 is_stmt 1 view .LVU53
 181              		.loc 1 156 5 is_stmt 0 view .LVU54
 182              	.LBE58:
 183              	.LBE61:
 184              		.loc 1 237 5 is_stmt 1 view .LVU55
 185              	.LBB62:
 186              	.LBB59:
 187              		.loc 1 152 14 is_stmt 0 view .LVU56
 188 009c 7C48     		ldr	r0, .L53+4
 189 009e A0FB0320 		umull	r2, r0, r0, r3
 190              	.LBE59:
 191              	.LBE62:
 192              		.loc 1 237 14 view .LVU57
 193 00a2 09EB5303 		add	r3, r9, r3, lsr #1
 194              	.LVL15:
 195              		.loc 1 238 35 view .LVU58
 196 00a6 4009     		lsrs	r0, r0, #5
 197              		.loc 1 237 14 view .LVU59
 198 00a8 9BB2     		uxth	r3, r3
 199              	.LVL16:
 200              		.loc 1 238 5 is_stmt 1 view .LVU60
 201              		.loc 1 238 14 is_stmt 0 view .LVU61
 202 00aa 8342     		cmp	r3, r0
 203 00ac 40F28980 		bls	.L22
 204              	.L52:
 205              		.loc 1 238 14 discriminator 1 view .LVU62
 206 00b0 1A1A     		subs	r2, r3, r0
 207 00b2 92B2     		uxth	r2, r2
 208 00b4 4A45     		cmp	r2, r9
 209 00b6 38BF     		it	cc
 210 00b8 4A46     		movcc	r2, r9
 211              	.L5:
 212              		.loc 1 239 5 is_stmt 1 discriminator 4 view .LVU63
 213              	.LVL17:
 214              		.loc 1 240 5 discriminator 4 view .LVU64
 215              		.loc 1 244 5 discriminator 4 view .LVU65
 216              		.loc 1 239 14 is_stmt 0 discriminator 4 view .LVU66
 217 00ba 0344     		add	r3, r3, r0
 218              	.LVL18:
 219              		.loc 1 239 14 discriminator 4 view .LVU67
 220 00bc 0129     		cmp	r1, #1
 221              		.loc 1 244 25 discriminator 4 view .LVU68
 222 00be BDF81EE0 		ldrh	lr, [sp, #30]
 223              	.LVL19:
 224              	.LBB63:
 225              	.LBI63:
 226              		.loc 1 119 16 is_stmt 1 discriminator 4 view .LVU69
 227              	.LBB64:
 228              		.loc 1 120 5 discriminator 4 view .LVU70
ARM GAS  C:\Users\DEVELO~1\AppData\Local\Temp\ccz4xMdi.s 			page 5


 229              		.loc 1 123 5 discriminator 4 view .LVU71
 230 00c2 9BB2     		uxth	r3, r3
 231 00c4 B8BF     		it	lt
 232 00c6 0121     		movlt	r1, #1
 233              	.LVL20:
 234              		.loc 1 135 34 is_stmt 0 discriminator 4 view .LVU72
 235 00c8 A7EB0E00 		sub	r0, r7, lr
 236 00cc BB42     		cmp	r3, r7
 237              		.loc 1 135 52 discriminator 4 view .LVU73
 238 00ce C0EBC010 		rsb	r0, r0, r0, lsl #7
 239 00d2 28BF     		it	cs
 240 00d4 3B46     		movcs	r3, r7
 241              	.LVL21:
 242              		.loc 1 126 5 is_stmt 1 discriminator 4 view .LVU74
 243 00d6 9342     		cmp	r3, r2
 244              		.loc 1 135 13 is_stmt 0 discriminator 4 view .LVU75
 245 00d8 90FBF1FC 		sdiv	ip, r0, r1
 246 00dc 1846     		mov	r0, r3
 247 00de 28BF     		it	cs
 248 00e0 1046     		movcs	r0, r2
 249              	.LVL22:
 250              		.loc 1 130 5 is_stmt 1 discriminator 4 view .LVU76
 251              		.loc 1 131 5 discriminator 4 view .LVU77
 252              		.loc 1 135 5 discriminator 4 view .LVU78
 253              		.loc 1 136 5 discriminator 4 view .LVU79
 254              		.loc 1 136 8 is_stmt 0 discriminator 4 view .LVU80
 255 00e2 8645     		cmp	lr, r0
 256 00e4 6FD9     		bls	.L30
 257 00e6 9342     		cmp	r3, r2
 258 00e8 8CBF     		ite	hi
 259 00ea 0022     		movhi	r2, #0
 260 00ec 0122     		movls	r2, #1
 261 00ee 002A     		cmp	r2, #0
 262 00f0 69D1     		bne	.L30
 263              		.loc 1 139 5 is_stmt 1 view .LVU81
 264              		.loc 1 139 8 is_stmt 0 view .LVU82
 265 00f2 9E45     		cmp	lr, r3
 266 00f4 73D2     		bcs	.L48
 267              		.loc 1 143 5 is_stmt 1 view .LVU83
 268              		.loc 1 144 36 is_stmt 0 view .LVU84
 269 00f6 FA1A     		subs	r2, r7, r3
 270              		.loc 1 143 35 view .LVU85
 271 00f8 A7EB000C 		sub	ip, r7, r0
 272              	.LVL23:
 273              		.loc 1 146 13 view .LVU86
 274 00fc AEEB000E 		sub	lr, lr, r0
 275              	.LVL24:
 276              		.loc 1 147 75 view .LVU87
 277 0100 1B1A     		subs	r3, r3, r0
 278              	.LVL25:
 279              		.loc 1 143 58 view .LVU88
 280 0102 CCEBCC1C 		rsb	ip, ip, ip, lsl #7
 281              		.loc 1 144 60 view .LVU89
 282 0106 C2EBC212 		rsb	r2, r2, r2, lsl #7
 283              		.loc 1 143 13 view .LVU90
 284 010a 9CFBF1FC 		sdiv	ip, ip, r1
 285              	.LVL26:
ARM GAS  C:\Users\DEVELO~1\AppData\Local\Temp\ccz4xMdi.s 			page 6


 286              		.loc 1 144 5 is_stmt 1 view .LVU91
 287              		.loc 1 145 5 view .LVU92
 288              		.loc 1 146 5 view .LVU93
 289              		.loc 1 147 5 view .LVU94
 290              		.loc 1 144 13 is_stmt 0 view .LVU95
 291 010e 92FBF1F2 		sdiv	r2, r2, r1
 292              		.loc 1 147 38 view .LVU96
 293 0112 A2EB0C02 		sub	r2, r2, ip
 294              		.loc 1 147 47 view .LVU97
 295 0116 0EFB02F2 		mul	r2, lr, r2
 296              		.loc 1 147 58 view .LVU98
 297 011a 18BF     		it	ne
 298 011c 92FBF3F2 		sdivne	r2, r2, r3
 299              	.LVL27:
 300              		.loc 1 148 5 is_stmt 1 view .LVU99
 301              	.LBB65:
 302              	.LBI65:
 303              		.loc 1 90 23 view .LVU100
 304              	.LBB66:
 305              		.loc 1 91 5 view .LVU101
 306              		.loc 1 91 8 is_stmt 0 view .LVU102
 307 0120 1CEB020C 		adds	ip, ip, r2
 308              	.LVL28:
 309              		.loc 1 91 8 view .LVU103
 310 0124 52D4     		bmi	.L27
 311              	.LVL29:
 312              	.L45:
 313              		.loc 1 94 5 is_stmt 1 view .LVU104
 314              		.loc 1 94 8 is_stmt 0 view .LVU105
 315 0126 BCF17F0F 		cmp	ip, #127
 316 012a 79DC     		bgt	.L28
 317              		.loc 1 97 5 is_stmt 1 view .LVU106
 318              		.loc 1 97 12 is_stmt 0 view .LVU107
 319 012c 5FFA8CF3 		uxtb	r3, ip
 320 0130 0393     		str	r3, [sp, #12]
 321              	.L8:
 322              	.LVL30:
 323              		.loc 1 97 12 view .LVU108
 324              	.LBE66:
 325              	.LBE65:
 326              	.LBE64:
 327              	.LBE63:
 328              		.loc 1 246 5 is_stmt 1 view .LVU109
 329              	.LBB78:
 330              	.LBI78:
 331              		.file 2 "./docs/ChibiOS/os/rt/include/chvt.h"
 332              		.loc 2 135 25 view .LVU110
 333              		.loc 2 140 3 view .LVU111
 334              	.LBB79:
 335              	.LBI79:
 336              		.file 3 "./docs/ChibiOS/os/hal/osal/rt-nil/chcore_timer.h"
 337              		.loc 3 111 25 view .LVU112
 338              	.LBB80:
 339              		.loc 3 113 3 view .LVU113
 340              		.loc 3 113 10 is_stmt 0 view .LVU114
 341 0132 FFF7FEFF 		bl	stGetCounter
 342              	.LVL31:
ARM GAS  C:\Users\DEVELO~1\AppData\Local\Temp\ccz4xMdi.s 			page 7


 343              	.LBE80:
 344              	.LBE79:
 345              	.LBE78:
 346              	.LBB83:
 347              	.LBB84:
 348              		.loc 1 164 8 view .LVU115
 349 0136 574B     		ldr	r3, .L53+8
 350              	.LBE84:
 351              	.LBE83:
 352              		.loc 1 247 28 view .LVU116
 353 0138 BDF81EB0 		ldrh	fp, [sp, #30]
 354              	.LBB106:
 355              	.LBB100:
 356              		.loc 1 164 8 view .LVU117
 357 013c 1A5D     		ldrb	r2, [r3, r4]	@ zero_extendqisi2
 358              	.LBE100:
 359              	.LBE106:
 360              	.LBB107:
 361              	.LBB82:
 362              	.LBB81:
 363              		.loc 3 113 10 view .LVU118
 364 013e 0490     		str	r0, [sp, #16]
 365              	.LVL32:
 366              		.loc 3 113 10 view .LVU119
 367              	.LBE81:
 368              	.LBE82:
 369              	.LBE107:
 370              		.loc 1 247 5 is_stmt 1 view .LVU120
 371              	.LBB108:
 372              	.LBI83:
 373              		.loc 1 159 16 view .LVU121
 374              	.LBB101:
 375              		.loc 1 160 5 view .LVU122
 376              		.loc 1 164 5 view .LVU123
 377              		.loc 1 164 8 is_stmt 0 view .LVU124
 378 0140 002A     		cmp	r2, #0
 379 0142 51D0     		beq	.L49
 380              		.loc 1 172 5 is_stmt 1 view .LVU125
 381              		.loc 1 172 8 is_stmt 0 view .LVU126
 382 0144 019A     		ldr	r2, [sp, #4]
 383 0146 5A45     		cmp	r2, fp
 384 0148 6DD3     		bcc	.L50
 385              		.loc 1 177 5 is_stmt 1 view .LVU127
 386              		.loc 1 177 8 is_stmt 0 view .LVU128
 387 014a B345     		cmp	fp, r6
 388 014c 73D9     		bls	.L51
 389              		.loc 1 191 5 is_stmt 1 view .LVU129
 390              		.loc 1 191 29 is_stmt 0 view .LVU130
 391 014e 2B19     		adds	r3, r5, r4
 392 0150 0AEBC303 		add	r3, r10, r3, lsl #3
 393 0154 DA7C     		ldrb	r2, [r3, #19]	@ zero_extendqisi2
 394              	.LBE101:
 395              	.LBE108:
 396              		.loc 1 249 10 view .LVU131
 397 0156 1B7D     		ldrb	r3, [r3, #20]	@ zero_extendqisi2
 398              	.LBB109:
 399              	.LBB102:
ARM GAS  C:\Users\DEVELO~1\AppData\Local\Temp\ccz4xMdi.s 			page 8


 400              		.loc 1 191 29 view .LVU132
 401 0158 0592     		str	r2, [sp, #20]
 402              	.LVL33:
 403              		.loc 1 191 29 view .LVU133
 404              	.LBE102:
 405              	.LBE109:
 406              		.loc 1 249 5 is_stmt 1 view .LVU134
 407              		.loc 1 250 5 view .LVU135
 408              		.loc 1 251 5 view .LVU136
 409              	.L16:
 410              		.loc 1 253 12 view .LVU137
 411              		.loc 1 253 15 is_stmt 0 view .LVU138
 412 015a 019A     		ldr	r2, [sp, #4]
 413 015c 5A45     		cmp	r2, fp
 414 015e 38D8     		bhi	.L18
 415              		.loc 1 254 21 view .LVU139
 416 0160 0022     		movs	r2, #0
 417 0162 0292     		str	r2, [sp, #8]
 418              	.L17:
 419              	.LVL34:
 420              		.loc 1 257 5 is_stmt 1 view .LVU140
 421              		.loc 1 258 5 view .LVU141
 422              		.loc 1 258 8 is_stmt 0 view .LVU142
 423 0164 029A     		ldr	r2, [sp, #8]
 424 0166 9A42     		cmp	r2, r3
 425 0168 34D0     		beq	.L43
 426              		.loc 1 259 9 is_stmt 1 view .LVU143
 427              		.loc 1 259 25 is_stmt 0 view .LVU144
 428 016a 4B4B     		ldr	r3, .L53+12
 429              	.LVL35:
 430              		.loc 1 259 25 view .LVU145
 431 016c 42F20F70 		movw	r0, #9999
 432 0170 049A     		ldr	r2, [sp, #16]
 433 0172 0021     		movs	r1, #0
 434 0174 E2FB0301 		umlal	r0, r1, r2, r3
 435 0178 42F21072 		movw	r2, #10000
 436 017c 0023     		movs	r3, #0
 437 017e FFF7FEFF 		bl	__aeabi_uldivmod
 438              	.LVL36:
 439              	.L20:
 440              		.loc 1 262 5 is_stmt 1 view .LVU146
 441              		.loc 1 262 13 is_stmt 0 view .LVU147
 442 0182 2544     		add	r5, r5, r4
 443              		.loc 1 267 20 view .LVU148
 444 0184 019B     		ldr	r3, [sp, #4]
 445              		.loc 1 262 13 view .LVU149
 446 0186 2AF83580 		strh	r8, [r10, r5, lsl #3]	@ movhi
 447              		.loc 1 263 5 is_stmt 1 view .LVU150
 448              		.loc 1 262 13 is_stmt 0 view .LVU151
 449 018a 0AEBC505 		add	r5, r10, r5, lsl #3
 450              		.loc 1 267 20 view .LVU152
 451 018e 6B81     		strh	r3, [r5, #10]	@ movhi
 452              		.loc 1 268 15 view .LVU153
 453 0190 039B     		ldr	r3, [sp, #12]
 454              		.loc 1 264 13 view .LVU154
 455 0192 A5F80490 		strh	r9, [r5, #4]	@ movhi
 456              		.loc 1 268 15 view .LVU155
ARM GAS  C:\Users\DEVELO~1\AppData\Local\Temp\ccz4xMdi.s 			page 9


 457 0196 AB74     		strb	r3, [r5, #18]
 458              		.loc 1 269 18 view .LVU156
 459 0198 059B     		ldr	r3, [sp, #20]
 460              		.loc 1 265 13 view .LVU157
 461 019a EF80     		strh	r7, [r5, #6]	@ movhi
 462              		.loc 1 269 18 view .LVU158
 463 019c EB74     		strb	r3, [r5, #19]
 464              		.loc 1 270 17 view .LVU159
 465 019e 029B     		ldr	r3, [sp, #8]
 466              		.loc 1 266 19 view .LVU160
 467 01a0 2E81     		strh	r6, [r5, #8]	@ movhi
 468              		.loc 1 263 18 view .LVU161
 469 01a2 A5F802B0 		strh	fp, [r5, #2]	@ movhi
 470              		.loc 1 264 5 is_stmt 1 view .LVU162
 471              		.loc 1 265 5 view .LVU163
 472              		.loc 1 266 5 view .LVU164
 473              		.loc 1 267 5 view .LVU165
 474              		.loc 1 268 5 view .LVU166
 475              		.loc 1 269 5 view .LVU167
 476              		.loc 1 270 5 view .LVU168
 477              		.loc 1 270 17 is_stmt 0 view .LVU169
 478 01a6 2B75     		strb	r3, [r5, #20]
 479              		.loc 1 271 5 is_stmt 1 view .LVU170
 480              		.loc 1 271 19 is_stmt 0 view .LVU171
 481 01a8 E860     		str	r0, [r5, #12]
 482              		.loc 1 272 5 is_stmt 1 view .LVU172
 483              		.loc 1 272 18 is_stmt 0 view .LVU173
 484 01aa A5F810B0 		strh	fp, [r5, #16]	@ movhi
 485              	.LVL37:
 486              	.L1:
 487              		.loc 1 273 1 view .LVU174
 488 01ae 09B0     		add	sp, sp, #36
 489              		.cfi_remember_state
 490              		.cfi_def_cfa_offset 36
 491              		@ sp needed
 492 01b0 BDE8F08F 		pop	{r4, r5, r6, r7, r8, r9, r10, fp, pc}
 493              	.LVL38:
 494              	.L21:
 495              		.cfi_restore_state
 496              		.loc 1 237 14 view .LVU175
 497 01b4 09EB5303 		add	r3, r9, r3, lsr #1
 498              	.LVL39:
 499              	.LBB110:
 500              	.LBB60:
 501              		.loc 1 237 14 view .LVU176
 502 01b8 0020     		movs	r0, #0
 503              	.LVL40:
 504              		.loc 1 156 5 is_stmt 1 view .LVU177
 505              		.loc 1 156 5 is_stmt 0 view .LVU178
 506              	.LBE60:
 507              	.LBE110:
 508              		.loc 1 237 5 is_stmt 1 view .LVU179
 509              		.loc 1 237 14 is_stmt 0 view .LVU180
 510 01ba 9BB2     		uxth	r3, r3
 511              	.LVL41:
 512              		.loc 1 238 5 is_stmt 1 view .LVU181
 513              		.loc 1 238 14 is_stmt 0 view .LVU182
ARM GAS  C:\Users\DEVELO~1\AppData\Local\Temp\ccz4xMdi.s 			page 10


 514 01bc 8342     		cmp	r3, r0
 515 01be 3FF677AF 		bhi	.L52
 516              	.L22:
 517              		.loc 1 238 14 view .LVU183
 518 01c2 4A46     		mov	r2, r9
 519 01c4 79E7     		b	.L5
 520              	.LVL42:
 521              	.L30:
 522              	.LBB111:
 523              	.LBB75:
 524              		.loc 1 137 9 is_stmt 1 view .LVU184
 525              	.LBB67:
 526              	.LBI67:
 527              		.loc 1 90 23 view .LVU185
 528              	.LBB68:
 529              		.loc 1 91 5 view .LVU186
 530              		.loc 1 91 8 is_stmt 0 view .LVU187
 531 01c6 BCF1000F 		cmp	ip, #0
 532 01ca ACDA     		bge	.L45
 533              	.LVL43:
 534              	.L27:
 535              		.loc 1 92 16 view .LVU188
 536 01cc 0023     		movs	r3, #0
 537 01ce 0393     		str	r3, [sp, #12]
 538 01d0 AFE7     		b	.L8
 539              	.LVL44:
 540              	.L18:
 541              		.loc 1 92 16 view .LVU189
 542              	.LBE68:
 543              	.LBE67:
 544              	.LBE75:
 545              	.LBE111:
 546              		.loc 1 257 5 is_stmt 1 view .LVU190
 547              		.loc 1 257 14 is_stmt 0 view .LVU191
 548 01d2 0293     		str	r3, [sp, #8]
 549              	.LVL45:
 550              	.L43:
 551              		.loc 1 257 14 view .LVU192
 552 01d4 2B19     		adds	r3, r5, r4
 553              	.LVL46:
 554              		.loc 1 257 14 view .LVU193
 555 01d6 0AEBC303 		add	r3, r10, r3, lsl #3
 556 01da D868     		ldr	r0, [r3, #12]
 557              	.LVL47:
 558              		.loc 1 258 5 is_stmt 1 view .LVU194
 559 01dc D1E7     		b	.L20
 560              	.LVL48:
 561              	.L48:
 562              	.LBB112:
 563              	.LBB76:
 564              		.loc 1 140 9 view .LVU195
 565              	.LBB71:
 566              	.LBI71:
 567              		.loc 1 90 23 view .LVU196
 568              	.LBB72:
 569              		.loc 1 91 5 view .LVU197
 570              		.loc 1 91 8 is_stmt 0 view .LVU198
ARM GAS  C:\Users\DEVELO~1\AppData\Local\Temp\ccz4xMdi.s 			page 11


 571 01de BCF1000F 		cmp	ip, #0
 572 01e2 A0DA     		bge	.L45
 573              	.LBE72:
 574              	.LBE71:
 575              	.LBB73:
 576              	.LBB69:
 577              		.loc 1 92 16 view .LVU199
 578 01e4 0392     		str	r2, [sp, #12]
 579 01e6 A4E7     		b	.L8
 580              	.LVL49:
 581              	.L49:
 582              		.loc 1 92 16 view .LVU200
 583              	.LBE69:
 584              	.LBE73:
 585              	.LBE76:
 586              	.LBE112:
 587              	.LBB113:
 588              	.LBB103:
 589              		.loc 1 165 9 is_stmt 1 view .LVU201
 590              		.loc 1 165 30 is_stmt 0 view .LVU202
 591 01e8 2A19     		adds	r2, r5, r4
 592              		.loc 1 165 51 view .LVU203
 593 01ea 0199     		ldr	r1, [sp, #4]
 594              		.loc 1 165 30 view .LVU204
 595 01ec 0AEBC202 		add	r2, r10, r2, lsl #3
 596              		.loc 1 165 12 view .LVU205
 597 01f0 128A     		ldrh	r2, [r2, #16]
 598              		.loc 1 165 51 view .LVU206
 599 01f2 8A42     		cmp	r2, r1
 600 01f4 06D9     		bls	.L12
 601 01f6 5945     		cmp	r1, fp
 602 01f8 04D3     		bcc	.L12
 603              		.loc 1 166 13 is_stmt 1 view .LVU207
 604              		.loc 1 166 40 is_stmt 0 view .LVU208
 605 01fa 284A     		ldr	r2, .L53+16
 606 01fc 42F82400 		str	r0, [r2, r4, lsl #2]
 607              		.loc 1 167 13 is_stmt 1 view .LVU209
 608              		.loc 1 167 35 is_stmt 0 view .LVU210
 609 0200 0122     		movs	r2, #1
 610 0202 1A55     		strb	r2, [r3, r4]
 611              	.L12:
 612              		.loc 1 169 9 is_stmt 1 view .LVU211
 613              		.loc 1 169 33 is_stmt 0 view .LVU212
 614 0204 2B19     		adds	r3, r5, r4
 615 0206 0AEBC303 		add	r3, r10, r3, lsl #3
 616 020a DB7C     		ldrb	r3, [r3, #19]	@ zero_extendqisi2
 617 020c 0593     		str	r3, [sp, #20]
 618              	.LVL50:
 619              	.L13:
 620              		.loc 1 169 33 view .LVU213
 621              	.LBE103:
 622              	.LBE113:
 623              		.loc 1 249 5 is_stmt 1 view .LVU214
 624              		.loc 1 249 10 is_stmt 0 view .LVU215
 625 020e 2B19     		adds	r3, r5, r4
 626              		.loc 1 251 8 view .LVU216
 627 0210 5E45     		cmp	r6, fp
ARM GAS  C:\Users\DEVELO~1\AppData\Local\Temp\ccz4xMdi.s 			page 12


 628              		.loc 1 249 10 view .LVU217
 629 0212 0AEBC303 		add	r3, r10, r3, lsl #3
 630 0216 1B7D     		ldrb	r3, [r3, #20]	@ zero_extendqisi2
 631              	.LVL51:
 632              		.loc 1 250 5 is_stmt 1 view .LVU218
 633              		.loc 1 251 5 view .LVU219
 634              		.loc 1 251 8 is_stmt 0 view .LVU220
 635 0218 9FD3     		bcc	.L16
 636              		.loc 1 252 21 view .LVU221
 637 021a 0122     		movs	r2, #1
 638 021c 0292     		str	r2, [sp, #8]
 639 021e A1E7     		b	.L17
 640              	.LVL52:
 641              	.L28:
 642              	.LBB114:
 643              	.LBB77:
 644              	.LBB74:
 645              	.LBB70:
 646              		.loc 1 95 16 view .LVU222
 647 0220 7F23     		movs	r3, #127
 648 0222 0393     		str	r3, [sp, #12]
 649 0224 85E7     		b	.L8
 650              	.LVL53:
 651              	.L50:
 652              		.loc 1 95 16 view .LVU223
 653              	.LBE70:
 654              	.LBE74:
 655              	.LBE77:
 656              	.LBE114:
 657              	.LBB115:
 658              	.LBB104:
 659              		.loc 1 173 9 is_stmt 1 view .LVU224
 660              		.loc 1 174 33 is_stmt 0 view .LVU225
 661 0226 2A19     		adds	r2, r5, r4
 662 0228 0AEBC202 		add	r2, r10, r2, lsl #3
 663 022c D27C     		ldrb	r2, [r2, #19]	@ zero_extendqisi2
 664 022e 0592     		str	r2, [sp, #20]
 665              		.loc 1 173 31 view .LVU226
 666 0230 0022     		movs	r2, #0
 667 0232 1A55     		strb	r2, [r3, r4]
 668              		.loc 1 174 9 is_stmt 1 view .LVU227
 669              		.loc 1 174 33 is_stmt 0 view .LVU228
 670 0234 EBE7     		b	.L13
 671              	.L51:
 672              	.LBB85:
 673              		.loc 1 178 9 is_stmt 1 view .LVU229
 674              		.loc 1 178 26 is_stmt 0 view .LVU230
 675 0236 194A     		ldr	r2, .L53+16
 676 0238 52F824B0 		ldr	fp, [r2, r4, lsl #2]
 677              	.LVL54:
 678              	.LBB86:
 679              	.LBI86:
 680              		.loc 2 172 29 is_stmt 1 view .LVU231
 681              		.loc 2 174 3 view .LVU232
 682              	.LBB87:
 683              	.LBI87:
 684              		.loc 2 135 25 view .LVU233
ARM GAS  C:\Users\DEVELO~1\AppData\Local\Temp\ccz4xMdi.s 			page 13


 685              		.loc 2 140 3 view .LVU234
 686              	.LBB88:
 687              	.LBI88:
 688              		.loc 3 111 25 view .LVU235
 689              	.LBB89:
 690              		.loc 3 113 3 view .LVU236
 691              		.loc 3 113 10 is_stmt 0 view .LVU237
 692 023c FFF7FEFF 		bl	stGetCounter
 693              	.LVL55:
 694              		.loc 3 113 10 view .LVU238
 695              	.LBE89:
 696              	.LBE88:
 697              	.LBE87:
 698              	.LBB90:
 699              	.LBI90:
 700              		.file 4 "./docs/ChibiOS/os/rt/include/chtime.h"
 701              		.loc 4 461 29 is_stmt 1 view .LVU239
 702              	.LBB91:
 703              		.loc 4 465 3 view .LVU240
 704              		.loc 4 465 3 is_stmt 0 view .LVU241
 705              	.LBE91:
 706              	.LBE90:
 707              	.LBE86:
 708              		.loc 1 179 9 is_stmt 1 view .LVU242
 709              		.loc 1 185 9 view .LVU243
 710              		.loc 1 186 9 view .LVU244
 711              		.loc 1 187 9 view .LVU245
 712              		.loc 1 187 31 is_stmt 0 view .LVU246
 713 0240 0021     		movs	r1, #0
 714 0242 144B     		ldr	r3, .L53+8
 715              	.LBB94:
 716              	.LBB93:
 717              	.LBB92:
 718              		.loc 4 465 10 view .LVU247
 719 0244 A0EB0B02 		sub	r2, r0, fp
 720              	.LBE92:
 721              	.LBE93:
 722              	.LBE94:
 723              		.loc 1 178 26 view .LVU248
 724 0248 42F20F70 		movw	r0, #9999
 725              	.LVL56:
 726              		.loc 1 187 31 view .LVU249
 727 024c 1955     		strb	r1, [r3, r4]
 728              		.loc 1 188 9 is_stmt 1 view .LVU250
 729              	.LVL57:
 730              	.LBB95:
 731              	.LBI95:
 732              		.loc 1 90 23 view .LVU251
 733              	.LBB96:
 734              		.loc 1 91 5 view .LVU252
 735              		.loc 1 94 5 view .LVU253
 736              		.loc 1 97 5 view .LVU254
 737              	.LBE96:
 738              	.LBE95:
 739              		.loc 1 178 26 is_stmt 0 view .LVU255
 740 024e 124B     		ldr	r3, .L53+12
 741 0250 E2FB0301 		umlal	r0, r1, r2, r3
ARM GAS  C:\Users\DEVELO~1\AppData\Local\Temp\ccz4xMdi.s 			page 14


 742 0254 42F21072 		movw	r2, #10000
 743 0258 0023     		movs	r3, #0
 744 025a FFF7FEFF 		bl	__aeabi_uldivmod
 745              	.LVL58:
 746              		.loc 1 186 58 view .LVU256
 747 025e 47F23053 		movw	r3, #30000
 748              		.loc 1 186 18 view .LVU257
 749 0262 0F4A     		ldr	r2, .L53+20
 750              		.loc 1 186 58 view .LVU258
 751 0264 9842     		cmp	r0, r3
 752              	.LBE85:
 753              	.LBE104:
 754              	.LBE115:
 755              		.loc 1 251 20 view .LVU259
 756 0266 BDF81EB0 		ldrh	fp, [sp, #30]
 757              	.LBB116:
 758              	.LBB105:
 759              	.LBB99:
 760              		.loc 1 186 58 view .LVU260
 761 026a 28BF     		it	cs
 762 026c 1846     		movcs	r0, r3
 763 026e 0D4B     		ldr	r3, .L53+24
 764 0270 B0F5FA7F 		cmp	r0, #500
 765 0274 38BF     		it	cc
 766 0276 4FF4FA70 		movcc	r0, #500
 767 027a A0EBC010 		sub	r0, r0, r0, lsl #7
 768 027e 0344     		add	r3, r3, r0
 769              		.loc 1 186 18 view .LVU261
 770 0280 A2FB0323 		umull	r2, r3, r2, r3
 771              	.LBB98:
 772              	.LBB97:
 773              		.loc 1 97 12 view .LVU262
 774 0284 C3F38733 		ubfx	r3, r3, #14, #8
 775 0288 0593     		str	r3, [sp, #20]
 776              		.loc 1 97 12 view .LVU263
 777              	.LBE97:
 778              	.LBE98:
 779              		.loc 1 188 16 view .LVU264
 780 028a C0E7     		b	.L13
 781              	.L54:
 782              		.align	2
 783              	.L53:
 784 028c 00000000 		.word	.LANCHOR0
 785 0290 CDCCCCCC 		.word	-858993459
 786 0294 00000000 		.word	.LANCHOR2
 787 0298 40420F00 		.word	1000000
 788 029c 00000000 		.word	.LANCHOR3
 789 02a0 27072E8E 		.word	-1909586137
 790 02a4 D0223A00 		.word	3810000
 791 02a8 00000000 		.word	.LANCHOR1
 792              	.LBE99:
 793              	.LBE105:
 794              	.LBE116:
 795              		.cfi_endproc
 796              	.LFE454:
 797              		.size	update_state, .-update_state
 798              		.section	.text.drv_hall_init,"ax",%progbits
ARM GAS  C:\Users\DEVELO~1\AppData\Local\Temp\ccz4xMdi.s 			page 15


 799              		.align	1
 800              		.p2align 2,,3
 801              		.global	drv_hall_init
 802              		.syntax unified
 803              		.thumb
 804              		.thumb_func
 805              		.type	drv_hall_init, %function
 806              	drv_hall_init:
 807              	.LFB455:
 808              		.loc 1 275 26 is_stmt 1 view -0
 809              		.cfi_startproc
 810              		@ args = 0, pretend = 0, frame = 0
 811              		@ frame_needed = 0, uses_anonymous_args = 0
 812              		.loc 1 276 5 view .LVU266
 813              		.loc 1 275 26 is_stmt 0 view .LVU267
 814 0000 30B5     		push	{r4, r5, lr}
 815              		.cfi_def_cfa_offset 12
 816              		.cfi_offset 4, -12
 817              		.cfi_offset 5, -8
 818              		.cfi_offset 14, -4
 819              		.loc 1 277 5 view .LVU268
 820 0002 334C     		ldr	r4, .L59
 821              		.loc 1 275 26 view .LVU269
 822 0004 83B0     		sub	sp, sp, #12
 823              		.cfi_def_cfa_offset 24
 824              		.loc 1 276 5 view .LVU270
 825 0006 0322     		movs	r2, #3
 826 0008 1021     		movs	r1, #16
 827 000a 3248     		ldr	r0, .L59+4
 828              		.loc 1 285 5 view .LVU271
 829 000c 4025     		movs	r5, #64
 830              		.loc 1 276 5 view .LVU272
 831 000e FFF7FEFF 		bl	_pal_lld_setgroupmode
 832              	.LVL59:
 833              		.loc 1 277 5 is_stmt 1 view .LVU273
 834 0012 2046     		mov	r0, r4
 835 0014 0322     		movs	r2, #3
 836 0016 8021     		movs	r1, #128
 837 0018 FFF7FEFF 		bl	_pal_lld_setgroupmode
 838              	.LVL60:
 839              		.loc 1 279 5 view .LVU274
 840 001c 2046     		mov	r0, r4
 841 001e 0122     		movs	r2, #1
 842 0020 2021     		movs	r1, #32
 843 0022 FFF7FEFF 		bl	_pal_lld_setgroupmode
 844              	.LVL61:
 845              		.loc 1 280 5 view .LVU275
 846 0026 2046     		mov	r0, r4
 847 0028 0122     		movs	r2, #1
 848 002a 1021     		movs	r1, #16
 849 002c FFF7FEFF 		bl	_pal_lld_setgroupmode
 850              	.LVL62:
 851              		.loc 1 281 5 view .LVU276
 852 0030 2046     		mov	r0, r4
 853 0032 0122     		movs	r2, #1
 854 0034 4021     		movs	r1, #64
 855 0036 FFF7FEFF 		bl	_pal_lld_setgroupmode
ARM GAS  C:\Users\DEVELO~1\AppData\Local\Temp\ccz4xMdi.s 			page 16


 856              	.LVL63:
 857              		.loc 1 283 5 view .LVU277
 858              		.loc 1 284 5 is_stmt 0 view .LVU278
 859 003a 1023     		movs	r3, #16
 860              		.loc 1 283 5 view .LVU279
 861 003c 2022     		movs	r2, #32
 862              		.loc 1 287 5 view .LVU280
 863 003e 0021     		movs	r1, #0
 864 0040 2548     		ldr	r0, .L59+8
 865              		.loc 1 283 5 view .LVU281
 866 0042 6283     		strh	r2, [r4, #26]	@ movhi
 867              		.loc 1 284 5 is_stmt 1 view .LVU282
 868 0044 6383     		strh	r3, [r4, #26]	@ movhi
 869              		.loc 1 285 5 view .LVU283
 870 0046 6583     		strh	r5, [r4, #26]	@ movhi
 871              		.loc 1 287 5 view .LVU284
 872 0048 FFF7FEFF 		bl	adcStart
 873              	.LVL64:
 874              		.loc 1 288 5 view .LVU285
 875 004c 0021     		movs	r1, #0
 876 004e 2348     		ldr	r0, .L59+12
 877 0050 FFF7FEFF 		bl	adcStart
 878              	.LVL65:
 879              		.loc 1 290 5 view .LVU286
 880              	.LBB120:
 881              	.LBI120:
 882              		.loc 1 100 13 view .LVU287
 883              	.LBB121:
 884              		.loc 1 101 5 view .LVU288
 885 0054 4FF4C072 		mov	r2, #384
 886 0058 0021     		movs	r1, #0
 887 005a 2148     		ldr	r0, .L59+16
 888 005c FFF7FEFF 		bl	memset
 889              	.LVL66:
 890              		.loc 1 102 5 view .LVU289
 891 0060 0021     		movs	r1, #0
 892 0062 4FF42072 		mov	r2, #640
 893 0066 1F48     		ldr	r0, .L59+20
 894 0068 FFF7FEFF 		bl	memset
 895              	.LVL67:
 896              		.loc 1 103 5 view .LVU290
 897 006c 2A46     		mov	r2, r5
 898 006e 0021     		movs	r1, #0
 899 0070 1D48     		ldr	r0, .L59+24
 900 0072 FFF7FEFF 		bl	memset
 901              	.LVL68:
 902              		.loc 1 104 5 view .LVU291
 903 0076 1A4B     		ldr	r3, .L59+16
 904 0078 1C4C     		ldr	r4, .L59+28
 905 007a 0022     		movs	r2, #0
 906 007c 03F5C070 		add	r0, r3, #384
 907              	.LBB122:
 908              		.loc 1 107 27 is_stmt 0 view .LVU292
 909 0080 4FF6FF71 		movw	r1, #65535
 910              	.LBE122:
 911              		.loc 1 104 5 view .LVU293
 912 0084 C4E90022 		strd	r2, r2, [r4]
ARM GAS  C:\Users\DEVELO~1\AppData\Local\Temp\ccz4xMdi.s 			page 17


 913 0088 C4E90222 		strd	r2, r2, [r4, #8]
 914              		.loc 1 106 5 is_stmt 1 view .LVU294
 915              	.LBB123:
 916              		.loc 1 106 10 view .LVU295
 917              	.LVL69:
 918              		.loc 1 106 27 view .LVU296
 919              	.L56:
 920              		.loc 1 107 9 view .LVU297
 921              		.loc 1 107 27 is_stmt 0 view .LVU298
 922 008c 9980     		strh	r1, [r3, #4]	@ movhi
 923              		.loc 1 108 9 is_stmt 1 view .LVU299
 924              		.loc 1 106 27 is_stmt 0 view .LVU300
 925 008e 1833     		adds	r3, r3, #24
 926              	.LVL70:
 927              		.loc 1 108 27 view .LVU301
 928 0090 23F8122C 		strh	r2, [r3, #-18]	@ movhi
 929              		.loc 1 109 9 is_stmt 1 view .LVU302
 930              		.loc 1 109 33 is_stmt 0 view .LVU303
 931 0094 23F8102C 		strh	r2, [r3, #-16]	@ movhi
 932              		.loc 1 110 9 is_stmt 1 view .LVU304
 933              		.loc 1 110 34 is_stmt 0 view .LVU305
 934 0098 23F80E2C 		strh	r2, [r3, #-14]	@ movhi
 935              		.loc 1 111 9 is_stmt 1 view .LVU306
 936              		.loc 1 111 32 is_stmt 0 view .LVU307
 937 009c 23F8081C 		strh	r1, [r3, #-8]	@ movhi
 938              		.loc 1 106 53 is_stmt 1 view .LVU308
 939              	.LVL71:
 940              		.loc 1 106 27 view .LVU309
 941 00a0 8342     		cmp	r3, r0
 942 00a2 F3D1     		bne	.L56
 943              	.LBE123:
 944              		.loc 1 114 5 view .LVU310
 945 00a4 1023     		movs	r3, #16
 946 00a6 0824     		movs	r4, #8
 947 00a8 0022     		movs	r2, #0
 948 00aa 0E48     		ldr	r0, .L59+20
 949 00ac 1946     		mov	r1, r3
 950 00ae 0094     		str	r4, [sp]
 951 00b0 FFF7FEFF 		bl	brick_asc_array_set_factors
 952              	.LVL72:
 953              		.loc 1 115 5 view .LVU311
 954 00b4 1022     		movs	r2, #16
 955 00b6 0C21     		movs	r1, #12
 956 00b8 0D48     		ldr	r0, .L59+32
 957 00ba FFF7FEFF 		bl	brick_cal_pot_init
 958              	.LVL73:
 959              		.loc 1 116 5 view .LVU312
 960 00be 1022     		movs	r2, #16
 961 00c0 0021     		movs	r1, #0
 962 00c2 0B48     		ldr	r0, .L59+32
 963              	.LBE121:
 964              	.LBE120:
 965              		.loc 1 291 1 is_stmt 0 view .LVU313
 966 00c4 03B0     		add	sp, sp, #12
 967              		.cfi_def_cfa_offset 12
 968              		@ sp needed
 969 00c6 BDE83040 		pop	{r4, r5, lr}
ARM GAS  C:\Users\DEVELO~1\AppData\Local\Temp\ccz4xMdi.s 			page 18


 970              		.cfi_restore 14
 971              		.cfi_restore 5
 972              		.cfi_restore 4
 973              		.cfi_def_cfa_offset 0
 974              	.LBB125:
 975              	.LBB124:
 976              		.loc 1 116 5 view .LVU314
 977 00ca FFF7FEBF 		b	brick_cal_pot_enable_range
 978              	.LVL74:
 979              	.L60:
 980 00ce 00BF     		.align	2
 981              	.L59:
 982 00d0 00000258 		.word	1476526080
 983 00d4 00080258 		.word	1476528128
 984 00d8 00000000 		.word	ADCD1
 985 00dc 00000000 		.word	ADCD3
 986 00e0 00000000 		.word	.LANCHOR1
 987 00e4 00000000 		.word	.LANCHOR4
 988 00e8 00000000 		.word	.LANCHOR3
 989 00ec 00000000 		.word	.LANCHOR2
 990 00f0 00000000 		.word	.LANCHOR0
 991              	.LBE124:
 992              	.LBE125:
 993              		.cfi_endproc
 994              	.LFE455:
 995              		.size	drv_hall_init, .-drv_hall_init
 996              		.section	.text.drv_hall_task,"ax",%progbits
 997              		.align	1
 998              		.p2align 2,,3
 999              		.global	drv_hall_task
 1000              		.syntax unified
 1001              		.thumb
 1002              		.thumb_func
 1003              		.type	drv_hall_task, %function
 1004              	drv_hall_task:
 1005              	.LFB456:
 1006              		.loc 1 293 26 is_stmt 1 view -0
 1007              		.cfi_startproc
 1008              		@ args = 0, pretend = 0, frame = 8
 1009              		@ frame_needed = 0, uses_anonymous_args = 0
 1010              		.loc 1 294 5 view .LVU316
 1011              	.LBB133:
 1012              		.loc 1 294 10 view .LVU317
 1013              	.LVL75:
 1014              		.loc 1 294 31 view .LVU318
 1015              	.LBE133:
 1016              		.loc 1 293 26 is_stmt 0 view .LVU319
 1017 0000 2DE9F043 		push	{r4, r5, r6, r7, r8, r9, lr}
 1018              		.cfi_def_cfa_offset 28
 1019              		.cfi_offset 4, -28
 1020              		.cfi_offset 5, -24
 1021              		.cfi_offset 6, -20
 1022              		.cfi_offset 7, -16
 1023              		.cfi_offset 8, -12
 1024              		.cfi_offset 9, -8
 1025              		.cfi_offset 14, -4
 1026 0004 2D4E     		ldr	r6, .L65
ARM GAS  C:\Users\DEVELO~1\AppData\Local\Temp\ccz4xMdi.s 			page 19


 1027 0006 83B0     		sub	sp, sp, #12
 1028              		.cfi_def_cfa_offset 40
 1029              		.loc 1 293 26 view .LVU320
 1030 0008 0025     		movs	r5, #0
 1031 000a DFF8CC80 		ldr	r8, .L65+28
 1032 000e DFF8BC90 		ldr	r9, .L65+16
 1033              	.LBB156:
 1034              	.LBB134:
 1035              	.LBB135:
 1036              	.LBB136:
 1037              		.loc 1 85 5 view .LVU321
 1038 0012 2B4F     		ldr	r7, .L65+4
 1039              	.LVL76:
 1040              	.L62:
 1041              		.loc 1 85 5 view .LVU322
 1042 0014 ECB2     		uxtb	r4, r5
 1043              	.LVL77:
 1044              		.loc 1 85 5 view .LVU323
 1045              	.LBE136:
 1046              	.LBE135:
 1047              		.loc 1 295 9 is_stmt 1 view .LVU324
 1048              	.LBB151:
 1049              	.LBI135:
 1050              		.loc 1 84 20 view .LVU325
 1051              	.LBB137:
 1052              		.loc 1 85 5 view .LVU326
 1053              	.LBE137:
 1054              	.LBE151:
 1055              		.loc 1 296 9 is_stmt 0 view .LVU327
 1056 0016 0120     		movs	r0, #1
 1057              	.LBB152:
 1058              	.LBB138:
 1059              		.loc 1 85 5 view .LVU328
 1060 0018 6A01     		lsls	r2, r5, #5
 1061 001a 6FEA040C 		mvn	ip, r4
 1062              	.LBE138:
 1063              	.LBB139:
 1064              		.loc 1 87 5 view .LVU329
 1065 001e A308     		lsrs	r3, r4, #2
 1066              	.LBE139:
 1067              	.LBB140:
 1068              		.loc 1 85 5 view .LVU330
 1069 0020 02F02002 		and	r2, r2, #32
 1070              	.LBE140:
 1071              	.LBB141:
 1072              		.loc 1 86 5 view .LVU331
 1073 0024 6FEA5401 		mvn	r1, r4, lsr #1
 1074              	.LBE141:
 1075              	.LBB142:
 1076              		.loc 1 85 5 view .LVU332
 1077 0028 0CEA000C 		and	ip, ip, r0
 1078              	.LBE142:
 1079              	.LBE152:
 1080              	.LBE134:
 1081              		.loc 1 294 31 view .LVU333
 1082 002c 0544     		add	r5, r5, r0
 1083              	.LBB154:
ARM GAS  C:\Users\DEVELO~1\AppData\Local\Temp\ccz4xMdi.s 			page 20


 1084              	.LBB153:
 1085              	.LBB143:
 1086              		.loc 1 86 5 view .LVU334
 1087 002e 0140     		ands	r1, r1, r0
 1088              	.LBE143:
 1089              	.LBB144:
 1090              		.loc 1 85 5 view .LVU335
 1091 0030 42EA4C52 		orr	r2, r2, ip, lsl #21
 1092              	.LVL78:
 1093              		.loc 1 85 5 is_stmt 1 view .LVU336
 1094              	.LBE144:
 1095              	.LBB145:
 1096              		.loc 1 87 5 is_stmt 0 view .LVU337
 1097 0034 83EA000C 		eor	ip, r3, r0
 1098 0038 9B01     		lsls	r3, r3, #6
 1099              	.LBE145:
 1100              	.LBB146:
 1101              		.loc 1 85 5 view .LVU338
 1102 003a BA61     		str	r2, [r7, #24]
 1103              	.LBE146:
 1104              		.loc 1 85 54 is_stmt 1 view .LVU339
 1105              	.LBB147:
 1106              		.loc 1 86 5 view .LVU340
 1107 003c E200     		lsls	r2, r4, #3
 1108              	.LVL79:
 1109              		.loc 1 86 5 is_stmt 0 view .LVU341
 1110              	.LBE147:
 1111              	.LBB148:
 1112              		.loc 1 87 5 view .LVU342
 1113 003e 43EA8C53 		orr	r3, r3, ip, lsl #22
 1114              	.LBE148:
 1115              	.LBB149:
 1116              		.loc 1 86 5 view .LVU343
 1117 0042 02F01002 		and	r2, r2, #16
 1118 0046 42EA0152 		orr	r2, r2, r1, lsl #20
 1119              	.LVL80:
 1120              		.loc 1 86 5 is_stmt 1 view .LVU344
 1121 004a BA61     		str	r2, [r7, #24]
 1122              	.LVL81:
 1123              		.loc 1 86 5 is_stmt 0 view .LVU345
 1124              	.LBE149:
 1125              		.loc 1 86 54 is_stmt 1 view .LVU346
 1126              	.LBB150:
 1127              		.loc 1 87 5 view .LVU347
 1128              		.loc 1 87 5 view .LVU348
 1129 004c BB61     		str	r3, [r7, #24]
 1130              	.LBE150:
 1131              		.loc 1 87 54 view .LVU349
 1132              	.LVL82:
 1133              		.loc 1 87 54 is_stmt 0 view .LVU350
 1134              	.LBE153:
 1135              		.loc 1 296 9 is_stmt 1 view .LVU351
 1136 004e FFF7FEFF 		bl	chThdSleep
 1137              	.LVL83:
 1138              		.loc 1 298 9 view .LVU352
 1139 0052 0123     		movs	r3, #1
 1140 0054 4246     		mov	r2, r8
ARM GAS  C:\Users\DEVELO~1\AppData\Local\Temp\ccz4xMdi.s 			page 21


 1141 0056 1B49     		ldr	r1, .L65+8
 1142 0058 1B48     		ldr	r0, .L65+12
 1143 005a FFF7FEFF 		bl	adcConvert
 1144              	.LVL84:
 1145              		.loc 1 299 9 view .LVU353
 1146 005e 0123     		movs	r3, #1
 1147 0060 1A4A     		ldr	r2, .L65+16
 1148 0062 1B49     		ldr	r1, .L65+20
 1149 0064 1B48     		ldr	r0, .L65+24
 1150 0066 FFF7FEFF 		bl	adcConvert
 1151              	.LVL85:
 1152              		.loc 1 301 9 view .LVU354
 1153              		.loc 1 301 18 is_stmt 0 view .LVU355
 1154 006a 0023     		movs	r3, #0
 1155              		.loc 1 304 15 view .LVU356
 1156 006c 01AA     		add	r2, sp, #4
 1157 006e B8F80010 		ldrh	r1, [r8]
 1158 0072 3046     		mov	r0, r6
 1159              		.loc 1 301 18 view .LVU357
 1160 0074 ADF80430 		strh	r3, [sp, #4]	@ movhi
 1161              		.loc 1 302 9 is_stmt 1 view .LVU358
 1162              		.loc 1 302 18 is_stmt 0 view .LVU359
 1163 0078 ADF80630 		strh	r3, [sp, #6]	@ movhi
 1164              		.loc 1 304 9 is_stmt 1 view .LVU360
 1165              		.loc 1 304 15 is_stmt 0 view .LVU361
 1166 007c FFF7FEFF 		bl	brick_asc_process
 1167              	.LVL86:
 1168              		.loc 1 305 9 is_stmt 1 view .LVU362
 1169 0080 B8F80010 		ldrh	r1, [r8]
 1170 0084 2046     		mov	r0, r4
 1171 0086 BDF80420 		ldrh	r2, [sp, #4]
 1172 008a FFF7FEFF 		bl	update_state
 1173              	.LVL87:
 1174              		.loc 1 307 9 view .LVU363
 1175              		.loc 1 307 15 is_stmt 0 view .LVU364
 1176 008e 0DF10602 		add	r2, sp, #6
 1177 0092 B9F80010 		ldrh	r1, [r9]
 1178 0096 06F5A070 		add	r0, r6, #320
 1179 009a FFF7FEFF 		bl	brick_asc_process
 1180              	.LVL88:
 1181              		.loc 1 308 9 is_stmt 1 view .LVU365
 1182 009e 04F10800 		add	r0, r4, #8
 1183 00a2 BDF80620 		ldrh	r2, [sp, #6]
 1184              	.LBE154:
 1185              		.loc 1 294 31 is_stmt 0 view .LVU366
 1186 00a6 2836     		adds	r6, r6, #40
 1187              	.LBB155:
 1188              		.loc 1 308 9 view .LVU367
 1189 00a8 B9F80010 		ldrh	r1, [r9]
 1190 00ac C0B2     		uxtb	r0, r0
 1191 00ae FFF7FEFF 		bl	update_state
 1192              	.LVL89:
 1193              	.LBE155:
 1194              		.loc 1 294 58 is_stmt 1 view .LVU368
 1195              		.loc 1 294 31 view .LVU369
 1196 00b2 082D     		cmp	r5, #8
 1197 00b4 AED1     		bne	.L62
ARM GAS  C:\Users\DEVELO~1\AppData\Local\Temp\ccz4xMdi.s 			page 22


 1198              	.LBE156:
 1199              		.loc 1 310 1 is_stmt 0 view .LVU370
 1200 00b6 03B0     		add	sp, sp, #12
 1201              		.cfi_def_cfa_offset 28
 1202              		@ sp needed
 1203 00b8 BDE8F083 		pop	{r4, r5, r6, r7, r8, r9, pc}
 1204              	.L66:
 1205              		.align	2
 1206              	.L65:
 1207 00bc 00000000 		.word	.LANCHOR4
 1208 00c0 00000258 		.word	1476526080
 1209 00c4 00000000 		.word	.LANCHOR6
 1210 00c8 00000000 		.word	ADCD1
 1211 00cc 00000000 		.word	.LANCHOR7
 1212 00d0 00000000 		.word	.LANCHOR8
 1213 00d4 00000000 		.word	ADCD3
 1214 00d8 00000000 		.word	.LANCHOR5
 1215              		.cfi_endproc
 1216              	.LFE456:
 1217              		.size	drv_hall_task, .-drv_hall_task
 1218              		.section	.text.drv_hall_get_raw,"ax",%progbits
 1219              		.align	1
 1220              		.p2align 2,,3
 1221              		.global	drv_hall_get_raw
 1222              		.syntax unified
 1223              		.thumb
 1224              		.thumb_func
 1225              		.type	drv_hall_get_raw, %function
 1226              	drv_hall_get_raw:
 1227              	.LVL90:
 1228              	.LFB457:
 1229              		.loc 1 312 38 is_stmt 1 view -0
 1230              		.cfi_startproc
 1231              		@ args = 0, pretend = 0, frame = 0
 1232              		@ frame_needed = 0, uses_anonymous_args = 0
 1233              		@ link register save eliminated.
 1234              		.loc 1 313 5 view .LVU372
 1235              		.loc 1 313 8 is_stmt 0 view .LVU373
 1236 0000 0F28     		cmp	r0, #15
 1237 0002 05D8     		bhi	.L69
 1238              		.loc 1 316 5 is_stmt 1 view .LVU374
 1239              		.loc 1 316 25 is_stmt 0 view .LVU375
 1240 0004 034B     		ldr	r3, .L70
 1241 0006 00EB4000 		add	r0, r0, r0, lsl #1
 1242              	.LVL91:
 1243              		.loc 1 316 25 view .LVU376
 1244 000a 33F83000 		ldrh	r0, [r3, r0, lsl #3]
 1245 000e 7047     		bx	lr
 1246              	.LVL92:
 1247              	.L69:
 1248              		.loc 1 314 16 view .LVU377
 1249 0010 0020     		movs	r0, #0
 1250              	.LVL93:
 1251              		.loc 1 317 1 view .LVU378
 1252 0012 7047     		bx	lr
 1253              	.L71:
 1254              		.align	2
ARM GAS  C:\Users\DEVELO~1\AppData\Local\Temp\ccz4xMdi.s 			page 23


 1255              	.L70:
 1256 0014 00000000 		.word	.LANCHOR1
 1257              		.cfi_endproc
 1258              	.LFE457:
 1259              		.size	drv_hall_get_raw, .-drv_hall_get_raw
 1260              		.section	.text.drv_hall_get_value,"ax",%progbits
 1261              		.align	1
 1262              		.p2align 2,,3
 1263              		.global	drv_hall_get_value
 1264              		.syntax unified
 1265              		.thumb
 1266              		.thumb_func
 1267              		.type	drv_hall_get_value, %function
 1268              	drv_hall_get_value:
 1269              	.LVL94:
 1270              	.LFB458:
 1271              		.loc 1 319 39 is_stmt 1 view -0
 1272              		.cfi_startproc
 1273              		@ args = 0, pretend = 0, frame = 0
 1274              		@ frame_needed = 0, uses_anonymous_args = 0
 1275              		@ link register save eliminated.
 1276              		.loc 1 320 5 view .LVU380
 1277              		.loc 1 320 8 is_stmt 0 view .LVU381
 1278 0000 0F28     		cmp	r0, #15
 1279 0002 06D8     		bhi	.L74
 1280              		.loc 1 323 5 is_stmt 1 view .LVU382
 1281              		.loc 1 323 25 is_stmt 0 view .LVU383
 1282 0004 00EB4000 		add	r0, r0, r0, lsl #1
 1283              	.LVL95:
 1284              		.loc 1 323 25 view .LVU384
 1285 0008 034B     		ldr	r3, .L75
 1286 000a 03EBC003 		add	r3, r3, r0, lsl #3
 1287 000e 987C     		ldrb	r0, [r3, #18]	@ zero_extendqisi2
 1288 0010 7047     		bx	lr
 1289              	.LVL96:
 1290              	.L74:
 1291              		.loc 1 321 16 view .LVU385
 1292 0012 0020     		movs	r0, #0
 1293              	.LVL97:
 1294              		.loc 1 324 1 view .LVU386
 1295 0014 7047     		bx	lr
 1296              	.L76:
 1297 0016 00BF     		.align	2
 1298              	.L75:
 1299 0018 00000000 		.word	.LANCHOR1
 1300              		.cfi_endproc
 1301              	.LFE458:
 1302              		.size	drv_hall_get_value, .-drv_hall_get_value
 1303              		.section	.text.drv_hall_get_velocity,"ax",%progbits
 1304              		.align	1
 1305              		.p2align 2,,3
 1306              		.global	drv_hall_get_velocity
 1307              		.syntax unified
 1308              		.thumb
 1309              		.thumb_func
 1310              		.type	drv_hall_get_velocity, %function
 1311              	drv_hall_get_velocity:
ARM GAS  C:\Users\DEVELO~1\AppData\Local\Temp\ccz4xMdi.s 			page 24


 1312              	.LVL98:
 1313              	.LFB459:
 1314              		.loc 1 326 42 is_stmt 1 view -0
 1315              		.cfi_startproc
 1316              		@ args = 0, pretend = 0, frame = 0
 1317              		@ frame_needed = 0, uses_anonymous_args = 0
 1318              		@ link register save eliminated.
 1319              		.loc 1 327 5 view .LVU388
 1320              		.loc 1 327 8 is_stmt 0 view .LVU389
 1321 0000 0F28     		cmp	r0, #15
 1322 0002 06D8     		bhi	.L79
 1323              		.loc 1 330 5 is_stmt 1 view .LVU390
 1324              		.loc 1 330 25 is_stmt 0 view .LVU391
 1325 0004 00EB4000 		add	r0, r0, r0, lsl #1
 1326              	.LVL99:
 1327              		.loc 1 330 25 view .LVU392
 1328 0008 034B     		ldr	r3, .L80
 1329 000a 03EBC003 		add	r3, r3, r0, lsl #3
 1330 000e D87C     		ldrb	r0, [r3, #19]	@ zero_extendqisi2
 1331 0010 7047     		bx	lr
 1332              	.LVL100:
 1333              	.L79:
 1334              		.loc 1 328 16 view .LVU393
 1335 0012 0020     		movs	r0, #0
 1336              	.LVL101:
 1337              		.loc 1 331 1 view .LVU394
 1338 0014 7047     		bx	lr
 1339              	.L81:
 1340 0016 00BF     		.align	2
 1341              	.L80:
 1342 0018 00000000 		.word	.LANCHOR1
 1343              		.cfi_endproc
 1344              	.LFE459:
 1345              		.size	drv_hall_get_velocity, .-drv_hall_get_velocity
 1346              		.section	.text.drv_hall_is_pressed,"ax",%progbits
 1347              		.align	1
 1348              		.p2align 2,,3
 1349              		.global	drv_hall_is_pressed
 1350              		.syntax unified
 1351              		.thumb
 1352              		.thumb_func
 1353              		.type	drv_hall_is_pressed, %function
 1354              	drv_hall_is_pressed:
 1355              	.LVL102:
 1356              	.LFB460:
 1357              		.loc 1 333 37 is_stmt 1 view -0
 1358              		.cfi_startproc
 1359              		@ args = 0, pretend = 0, frame = 0
 1360              		@ frame_needed = 0, uses_anonymous_args = 0
 1361              		@ link register save eliminated.
 1362              		.loc 1 334 5 view .LVU396
 1363              		.loc 1 334 8 is_stmt 0 view .LVU397
 1364 0000 0F28     		cmp	r0, #15
 1365 0002 06D8     		bhi	.L84
 1366              		.loc 1 337 5 is_stmt 1 view .LVU398
 1367              		.loc 1 337 25 is_stmt 0 view .LVU399
 1368 0004 00EB4000 		add	r0, r0, r0, lsl #1
ARM GAS  C:\Users\DEVELO~1\AppData\Local\Temp\ccz4xMdi.s 			page 25


 1369              	.LVL103:
 1370              		.loc 1 337 25 view .LVU400
 1371 0008 034B     		ldr	r3, .L85
 1372 000a 03EBC003 		add	r3, r3, r0, lsl #3
 1373 000e 187D     		ldrb	r0, [r3, #20]	@ zero_extendqisi2
 1374 0010 7047     		bx	lr
 1375              	.LVL104:
 1376              	.L84:
 1377              		.loc 1 335 16 view .LVU401
 1378 0012 0020     		movs	r0, #0
 1379              	.LVL105:
 1380              		.loc 1 338 1 view .LVU402
 1381 0014 7047     		bx	lr
 1382              	.L86:
 1383 0016 00BF     		.align	2
 1384              	.L85:
 1385 0018 00000000 		.word	.LANCHOR1
 1386              		.cfi_endproc
 1387              	.LFE460:
 1388              		.size	drv_hall_is_pressed, .-drv_hall_is_pressed
 1389              		.section	.bss.adc_sample1,"aw",%nobits
 1390              		.align	1
 1391              		.set	.LANCHOR5,. + 0
 1392              		.type	adc_sample1, %object
 1393              		.size	adc_sample1, 2
 1394              	adc_sample1:
 1395 0000 0000     		.space	2
 1396              		.section	.bss.adc_sample2,"aw",%nobits
 1397              		.align	1
 1398              		.set	.LANCHOR7,. + 0
 1399              		.type	adc_sample2, %object
 1400              		.size	adc_sample2, 2
 1401              	adc_sample2:
 1402 0000 0000     		.space	2
 1403              		.section	.bss.asc_state,"aw",%nobits
 1404              		.align	2
 1405              		.set	.LANCHOR4,. + 0
 1406              		.type	asc_state, %object
 1407              		.size	asc_state, 640
 1408              	asc_state:
 1409 0000 00000000 		.space	640
 1409      00000000 
 1409      00000000 
 1409      00000000 
 1409      00000000 
 1410              		.section	.bss.cal_state,"aw",%nobits
 1411              		.align	2
 1412              		.set	.LANCHOR0,. + 0
 1413              		.type	cal_state, %object
 1414              		.size	cal_state, 148
 1415              	cal_state:
 1416 0000 00000000 		.space	148
 1416      00000000 
 1416      00000000 
 1416      00000000 
 1416      00000000 
 1417              		.section	.bss.hall_state,"aw",%nobits
ARM GAS  C:\Users\DEVELO~1\AppData\Local\Temp\ccz4xMdi.s 			page 26


 1418              		.align	2
 1419              		.set	.LANCHOR1,. + 0
 1420              		.type	hall_state, %object
 1421              		.size	hall_state, 384
 1422              	hall_state:
 1423 0000 00000000 		.space	384
 1423      00000000 
 1423      00000000 
 1423      00000000 
 1423      00000000 
 1424              		.section	.bss.velocity_armed,"aw",%nobits
 1425              		.align	2
 1426              		.set	.LANCHOR2,. + 0
 1427              		.type	velocity_armed, %object
 1428              		.size	velocity_armed, 16
 1429              	velocity_armed:
 1430 0000 00000000 		.space	16
 1430      00000000 
 1430      00000000 
 1430      00000000 
 1431              		.section	.bss.velocity_start_time,"aw",%nobits
 1432              		.align	2
 1433              		.set	.LANCHOR3,. + 0
 1434              		.type	velocity_start_time, %object
 1435              		.size	velocity_start_time, 64
 1436              	velocity_start_time:
 1437 0000 00000000 		.space	64
 1437      00000000 
 1437      00000000 
 1437      00000000 
 1437      00000000 
 1438              		.section	.rodata.adcgrpcfg1,"a"
 1439              		.align	2
 1440              		.set	.LANCHOR6,. + 0
 1441              		.type	adcgrpcfg1, %object
 1442              		.size	adcgrpcfg1, 88
 1443              	adcgrpcfg1:
 1444 0000 00       		.byte	0
 1445 0001 000000   		.space	3
 1446 0004 01000000 		.word	1
 1447 0008 00000000 		.word	0
 1448 000c 00000000 		.word	0
 1449 0010 00000000 		.word	0
 1450 0014 00000000 		.word	0
 1451 0018 00000000 		.space	40
 1451      00000000 
 1451      00000000 
 1451      00000000 
 1451      00000000 
 1452 0040 00500000 		.word	20480
 1453 0044 00000000 		.word	0
 1454 0048 00010000 		.word	256
 1455 004c 00000000 		.word	0
 1456 0050 00000000 		.word	0
 1457 0054 00000000 		.word	0
 1458              		.section	.rodata.adcgrpcfg2,"a"
 1459              		.align	2
ARM GAS  C:\Users\DEVELO~1\AppData\Local\Temp\ccz4xMdi.s 			page 27


 1460              		.set	.LANCHOR8,. + 0
 1461              		.type	adcgrpcfg2, %object
 1462              		.size	adcgrpcfg2, 88
 1463              	adcgrpcfg2:
 1464 0000 00       		.byte	0
 1465 0001 000000   		.space	3
 1466 0004 01000000 		.word	1
 1467 0008 00000000 		.word	0
 1468 000c 00000000 		.word	0
 1469 0010 00000000 		.word	0
 1470 0014 00000000 		.word	0
 1471 0018 00000000 		.space	40
 1471      00000000 
 1471      00000000 
 1471      00000000 
 1471      00000000 
 1472 0040 0000A000 		.word	10485760
 1473 0044 00000000 		.word	0
 1474 0048 C0010000 		.word	448
 1475 004c 00000000 		.word	0
 1476 0050 00000000 		.word	0
 1477 0054 00000000 		.word	0
 1478              		.text
 1479              	.Letext0:
 1480              		.file 5 "c:\\chibistudio\\tools\\gnu tools arm embedded\\11.3 2022.08\\arm-none-eabi\\include\\mac
 1481              		.file 6 "c:\\chibistudio\\tools\\gnu tools arm embedded\\11.3 2022.08\\arm-none-eabi\\include\\sys
 1482              		.file 7 "drivers/HallEffect/drv_hall.h"
 1483              		.file 8 "c:\\chibistudio\\tools\\gnu tools arm embedded\\11.3 2022.08\\lib\\gcc\\arm-none-eabi\\11
 1484              		.file 9 "drivers/HallEffect/brick_asc.h"
 1485              		.file 10 "drivers/HallEffect/brick_cal.h"
 1486              		.file 11 "./docs/ChibiOS/os/common/ports/ARM-common/include/chtypes.h"
 1487              		.file 12 "./docs/ChibiOS/os/rt/include/chearly.h"
 1488              		.file 13 "./docs/ChibiOS/os/rt/include/chobjects.h"
 1489              		.file 14 "./docs/ChibiOS/os/rt/include/chrfcu.h"
 1490              		.file 15 "./docs/ChibiOS/os/rt/include/chdebug.h"
 1491              		.file 16 "./docs/ChibiOS/os/rt/include/chtrace.h"
 1492              		.file 17 "./docs/ChibiOS/os/common/ext/ST/STM32H7xx/stm32h743xx.h"
 1493              		.file 18 "./docs/ChibiOS/os/common/ports/ARMv7-M/chcore.h"
 1494              		.file 19 "./docs/ChibiOS/os/rt/include/chlists.h"
 1495              		.file 20 "./docs/ChibiOS/os/rt/include/chsem.h"
 1496              		.file 21 "./docs/ChibiOS/os/rt/include/chmtx.h"
 1497              		.file 22 "./docs/ChibiOS/os/hal/ports/STM32/LLD/DMAv2/stm32_dma.h"
 1498              		.file 23 "./docs/ChibiOS/os/hal/ports/STM32/LLD/GPIOv2/stm32_gpio.h"
 1499              		.file 24 "./docs/ChibiOS/os/hal/ports/STM32/LLD/GPIOv2/hal_pal_lld.h"
 1500              		.file 25 "./docs/ChibiOS/os/hal/include/hal_adc.h"
 1501              		.file 26 "./docs/ChibiOS/os/hal/ports/STM32/LLD/ADCv4/hal_adc_lld.h"
 1502              		.file 27 "./docs/ChibiOS/os/rt/include/chthreads.h"
 1503              		.file 28 "c:\\chibistudio\\tools\\gnu tools arm embedded\\11.3 2022.08\\arm-none-eabi\\include\\st
 1504              		.file 29 "./docs/ChibiOS/os/hal/include/hal_st.h"
 1505              		.file 30 "<built-in>"