ARM GAS  C:\Users\DEVELO~1\AppData\Local\Temp\ccbvHO3g.s 			page 1


   1              		.cpu cortex-m7
   2              		.arch armv7e-m
   3              		.fpu fpv5-d16
   4              		.eabi_attribute 28, 1
   5              		.eabi_attribute 20, 1
   6              		.eabi_attribute 21, 1
   7              		.eabi_attribute 23, 3
   8              		.eabi_attribute 24, 1
   9              		.eabi_attribute 25, 1
  10              		.eabi_attribute 26, 1
  11              		.eabi_attribute 30, 2
  12              		.eabi_attribute 34, 1
  13              		.eabi_attribute 18, 4
  14              		.file	"drv_display.c"
  15              		.text
  16              	.Ltext0:
  17              		.cfi_sections	.debug_frame
  18              		.section	.text.drv_display_get_buffer,"ax",%progbits
  19              		.align	1
  20              		.p2align 2,,3
  21              		.global	drv_display_get_buffer
  22              		.syntax unified
  23              		.thumb
  24              		.thumb_func
  25              		.type	drv_display_get_buffer, %function
  26              	drv_display_get_buffer:
  27              	.LFB455:
  28              		.file 1 "drivers/drv_display.c"
  29              		.loc 1 64 39 view -0
  30              		.cfi_startproc
  31              		@ args = 0, pretend = 0, frame = 0
  32              		@ frame_needed = 0, uses_anonymous_args = 0
  33              		@ link register save eliminated.
  34              		.loc 1 65 5 view .LVU1
  35              		.loc 1 66 1 is_stmt 0 view .LVU2
  36 0000 0048     		ldr	r0, .L3
  37 0002 7047     		bx	lr
  38              	.L4:
  39              		.align	2
  40              	.L3:
  41 0004 00000000 		.word	.LANCHOR0
  42              		.cfi_endproc
  43              	.LFE455:
  44              		.size	drv_display_get_buffer, .-drv_display_get_buffer
  45              		.section	.text.drv_display_init,"ax",%progbits
  46              		.align	1
  47              		.p2align 2,,3
  48              		.global	drv_display_init
  49              		.syntax unified
  50              		.thumb
  51              		.thumb_func
  52              		.type	drv_display_init, %function
  53              	drv_display_init:
  54              	.LFB457:
  55              		.loc 1 86 29 is_stmt 1 view -0
  56              		.cfi_startproc
  57              		@ args = 0, pretend = 0, frame = 8
ARM GAS  C:\Users\DEVELO~1\AppData\Local\Temp\ccbvHO3g.s 			page 2


  58              		@ frame_needed = 0, uses_anonymous_args = 0
  59              		.loc 1 89 5 view .LVU4
  60              		.loc 1 86 29 is_stmt 0 view .LVU5
  61 0000 2DE9F043 		push	{r4, r5, r6, r7, r8, r9, lr}
  62              		.cfi_def_cfa_offset 28
  63              		.cfi_offset 4, -28
  64              		.cfi_offset 5, -24
  65              		.cfi_offset 6, -20
  66              		.cfi_offset 7, -16
  67              		.cfi_offset 8, -12
  68              		.cfi_offset 9, -8
  69              		.cfi_offset 14, -4
  70              		.loc 1 89 5 view .LVU6
  71 0004 B54C     		ldr	r4, .L7
  72 0006 1025     		movs	r5, #16
  73              		.loc 1 86 29 view .LVU7
  74 0008 83B0     		sub	sp, sp, #12
  75              		.cfi_def_cfa_offset 40
  76              		.loc 1 95 5 view .LVU8
  77 000a B54F     		ldr	r7, .L7+4
  78              		.loc 1 89 5 view .LVU9
  79 000c 6583     		strh	r5, [r4, #26]	@ movhi
  80              		.loc 1 90 5 is_stmt 1 view .LVU10
  81 000e 6420     		movs	r0, #100
  82 0010 FFF7FEFF 		bl	chThdSleep
  83              	.LVL0:
  84              		.loc 1 91 5 view .LVU11
  85 0014 2583     		strh	r5, [r4, #24]	@ movhi
  86              		.loc 1 92 5 view .LVU12
  87 0016 6420     		movs	r0, #100
  88              	.LBB126:
  89              	.LBB127:
  90              		.loc 1 48 5 is_stmt 0 view .LVU13
  91 0018 4025     		movs	r5, #64
  92              	.LBE127:
  93              	.LBE126:
  94              		.loc 1 92 5 view .LVU14
  95 001a FFF7FEFF 		bl	chThdSleep
  96              	.LVL1:
  97              		.loc 1 95 5 is_stmt 1 view .LVU15
  98 001e B149     		ldr	r1, .L7+8
  99 0020 3846     		mov	r0, r7
 100              	.LBB137:
 101              	.LBB134:
 102              	.LBB128:
 103              	.LBB129:
 104              		.loc 1 39 36 is_stmt 0 view .LVU16
 105 0022 2026     		movs	r6, #32
 106              	.LBE129:
 107              	.LBE128:
 108              	.LBE134:
 109              	.LBE137:
 110              		.loc 1 95 5 view .LVU17
 111 0024 FFF7FEFF 		bl	spiStart
 112              	.LVL2:
 113              		.loc 1 98 5 is_stmt 1 view .LVU18
 114 0028 AE23     		movs	r3, #174
ARM GAS  C:\Users\DEVELO~1\AppData\Local\Temp\ccbvHO3g.s 			page 3


 115              	.LBB138:
 116              	.LBB135:
 117              		.loc 1 49 5 is_stmt 0 view .LVU19
 118 002a 0DF10702 		add	r2, sp, #7
 119 002e 0121     		movs	r1, #1
 120 0030 8DF80730 		strb	r3, [sp, #7]
 121              	.LVL3:
 122              		.loc 1 49 5 view .LVU20
 123              	.LBE135:
 124              	.LBI126:
 125              		.loc 1 46 13 is_stmt 1 view .LVU21
 126              	.LBB136:
 127              		.loc 1 47 5 view .LVU22
 128              	.LBB132:
 129              	.LBI128:
 130              		.loc 1 39 20 view .LVU23
 131              	.LBB130:
 132              		.loc 1 39 36 view .LVU24
 133              	.LBE130:
 134              	.LBE132:
 135              		.loc 1 49 5 is_stmt 0 view .LVU25
 136 0034 3846     		mov	r0, r7
 137              	.LBB133:
 138              	.LBB131:
 139              		.loc 1 39 36 view .LVU26
 140 0036 6683     		strh	r6, [r4, #26]	@ movhi
 141              	.LBE131:
 142              	.LBE133:
 143              		.loc 1 48 5 is_stmt 1 view .LVU27
 144 0038 4FF00008 		mov	r8, #0
 145 003c 6583     		strh	r5, [r4, #26]	@ movhi
 146              		.loc 1 49 5 view .LVU28
 147 003e 4FF07F09 		mov	r9, #127
 148 0042 FFF7FEFF 		bl	spiSend
 149              	.LVL4:
 150              		.loc 1 50 5 view .LVU29
 151 0046 D523     		movs	r3, #213
 152 0048 2583     		strh	r5, [r4, #24]	@ movhi
 153              	.LVL5:
 154              		.loc 1 50 5 is_stmt 0 view .LVU30
 155              	.LBE136:
 156              	.LBE138:
 157              		.loc 1 99 5 is_stmt 1 view .LVU31
 158              	.LBB139:
 159              	.LBB140:
 160              		.loc 1 49 5 is_stmt 0 view .LVU32
 161 004a 0DF10702 		add	r2, sp, #7
 162 004e 8DF80730 		strb	r3, [sp, #7]
 163              	.LVL6:
 164              		.loc 1 49 5 view .LVU33
 165              	.LBE140:
 166              	.LBI139:
 167              		.loc 1 46 13 is_stmt 1 view .LVU34
 168              	.LBB145:
 169              		.loc 1 47 5 view .LVU35
 170              	.LBB141:
 171              	.LBI141:
ARM GAS  C:\Users\DEVELO~1\AppData\Local\Temp\ccbvHO3g.s 			page 4


 172              		.loc 1 39 20 view .LVU36
 173              	.LBB142:
 174              		.loc 1 39 36 view .LVU37
 175              	.LBE142:
 176              	.LBE141:
 177              		.loc 1 49 5 is_stmt 0 view .LVU38
 178 0052 0121     		movs	r1, #1
 179              	.LBB144:
 180              	.LBB143:
 181              		.loc 1 39 36 view .LVU39
 182 0054 6683     		strh	r6, [r4, #26]	@ movhi
 183              	.LBE143:
 184              	.LBE144:
 185              		.loc 1 48 5 is_stmt 1 view .LVU40
 186              		.loc 1 49 5 is_stmt 0 view .LVU41
 187 0056 3846     		mov	r0, r7
 188              		.loc 1 48 5 view .LVU42
 189 0058 6583     		strh	r5, [r4, #26]	@ movhi
 190              		.loc 1 49 5 is_stmt 1 view .LVU43
 191 005a FFF7FEFF 		bl	spiSend
 192              	.LVL7:
 193              		.loc 1 50 5 view .LVU44
 194 005e 8023     		movs	r3, #128
 195 0060 2583     		strh	r5, [r4, #24]	@ movhi
 196              	.LVL8:
 197              		.loc 1 50 5 is_stmt 0 view .LVU45
 198              	.LBE145:
 199              	.LBE139:
 200              		.loc 1 99 21 is_stmt 1 view .LVU46
 201              	.LBB146:
 202              	.LBB147:
 203              		.loc 1 49 5 is_stmt 0 view .LVU47
 204 0062 0DF10702 		add	r2, sp, #7
 205 0066 8DF80730 		strb	r3, [sp, #7]
 206              	.LVL9:
 207              		.loc 1 49 5 view .LVU48
 208              	.LBE147:
 209              	.LBI146:
 210              		.loc 1 46 13 is_stmt 1 view .LVU49
 211              	.LBB152:
 212              		.loc 1 47 5 view .LVU50
 213              	.LBB148:
 214              	.LBI148:
 215              		.loc 1 39 20 view .LVU51
 216              	.LBB149:
 217              		.loc 1 39 36 view .LVU52
 218              	.LBE149:
 219              	.LBE148:
 220              		.loc 1 49 5 is_stmt 0 view .LVU53
 221 006a 0121     		movs	r1, #1
 222              	.LBB151:
 223              	.LBB150:
 224              		.loc 1 39 36 view .LVU54
 225 006c 6683     		strh	r6, [r4, #26]	@ movhi
 226              	.LBE150:
 227              	.LBE151:
 228              		.loc 1 48 5 is_stmt 1 view .LVU55
ARM GAS  C:\Users\DEVELO~1\AppData\Local\Temp\ccbvHO3g.s 			page 5


 229              		.loc 1 49 5 is_stmt 0 view .LVU56
 230 006e 3846     		mov	r0, r7
 231              		.loc 1 48 5 view .LVU57
 232 0070 6583     		strh	r5, [r4, #26]	@ movhi
 233              		.loc 1 49 5 is_stmt 1 view .LVU58
 234 0072 FFF7FEFF 		bl	spiSend
 235              	.LVL10:
 236              		.loc 1 50 5 view .LVU59
 237 0076 A823     		movs	r3, #168
 238 0078 2583     		strh	r5, [r4, #24]	@ movhi
 239              	.LVL11:
 240              		.loc 1 50 5 is_stmt 0 view .LVU60
 241              	.LBE152:
 242              	.LBE146:
 243              		.loc 1 100 5 is_stmt 1 view .LVU61
 244              	.LBB153:
 245              	.LBB154:
 246              		.loc 1 49 5 is_stmt 0 view .LVU62
 247 007a 0DF10702 		add	r2, sp, #7
 248 007e 8DF80730 		strb	r3, [sp, #7]
 249              	.LVL12:
 250              		.loc 1 49 5 view .LVU63
 251              	.LBE154:
 252              	.LBI153:
 253              		.loc 1 46 13 is_stmt 1 view .LVU64
 254              	.LBB159:
 255              		.loc 1 47 5 view .LVU65
 256              	.LBB155:
 257              	.LBI155:
 258              		.loc 1 39 20 view .LVU66
 259              	.LBB156:
 260              		.loc 1 39 36 view .LVU67
 261              	.LBE156:
 262              	.LBE155:
 263              		.loc 1 49 5 is_stmt 0 view .LVU68
 264 0082 0121     		movs	r1, #1
 265              	.LBB158:
 266              	.LBB157:
 267              		.loc 1 39 36 view .LVU69
 268 0084 6683     		strh	r6, [r4, #26]	@ movhi
 269              	.LBE157:
 270              	.LBE158:
 271              		.loc 1 48 5 is_stmt 1 view .LVU70
 272              		.loc 1 49 5 is_stmt 0 view .LVU71
 273 0086 3846     		mov	r0, r7
 274              		.loc 1 48 5 view .LVU72
 275 0088 6583     		strh	r5, [r4, #26]	@ movhi
 276              		.loc 1 49 5 is_stmt 1 view .LVU73
 277 008a FFF7FEFF 		bl	spiSend
 278              	.LVL13:
 279              		.loc 1 50 5 view .LVU74
 280 008e 3F23     		movs	r3, #63
 281 0090 2583     		strh	r5, [r4, #24]	@ movhi
 282              	.LVL14:
 283              		.loc 1 50 5 is_stmt 0 view .LVU75
 284              	.LBE159:
 285              	.LBE153:
ARM GAS  C:\Users\DEVELO~1\AppData\Local\Temp\ccbvHO3g.s 			page 6


 286              		.loc 1 100 21 is_stmt 1 view .LVU76
 287              	.LBB160:
 288              	.LBB161:
 289              		.loc 1 49 5 is_stmt 0 view .LVU77
 290 0092 0DF10702 		add	r2, sp, #7
 291 0096 8DF80730 		strb	r3, [sp, #7]
 292              	.LVL15:
 293              		.loc 1 49 5 view .LVU78
 294              	.LBE161:
 295              	.LBI160:
 296              		.loc 1 46 13 is_stmt 1 view .LVU79
 297              	.LBB166:
 298              		.loc 1 47 5 view .LVU80
 299              	.LBB162:
 300              	.LBI162:
 301              		.loc 1 39 20 view .LVU81
 302              	.LBB163:
 303              		.loc 1 39 36 view .LVU82
 304              	.LBE163:
 305              	.LBE162:
 306              		.loc 1 49 5 is_stmt 0 view .LVU83
 307 009a 0121     		movs	r1, #1
 308              	.LBB165:
 309              	.LBB164:
 310              		.loc 1 39 36 view .LVU84
 311 009c 6683     		strh	r6, [r4, #26]	@ movhi
 312              	.LBE164:
 313              	.LBE165:
 314              		.loc 1 48 5 is_stmt 1 view .LVU85
 315              		.loc 1 49 5 is_stmt 0 view .LVU86
 316 009e 3846     		mov	r0, r7
 317              		.loc 1 48 5 view .LVU87
 318 00a0 6583     		strh	r5, [r4, #26]	@ movhi
 319              		.loc 1 49 5 is_stmt 1 view .LVU88
 320 00a2 FFF7FEFF 		bl	spiSend
 321              	.LVL16:
 322              		.loc 1 50 5 view .LVU89
 323 00a6 D323     		movs	r3, #211
 324 00a8 2583     		strh	r5, [r4, #24]	@ movhi
 325              	.LVL17:
 326              		.loc 1 50 5 is_stmt 0 view .LVU90
 327              	.LBE166:
 328              	.LBE160:
 329              		.loc 1 101 5 is_stmt 1 view .LVU91
 330              	.LBB167:
 331              	.LBB168:
 332              		.loc 1 49 5 is_stmt 0 view .LVU92
 333 00aa 0DF10702 		add	r2, sp, #7
 334 00ae 8DF80730 		strb	r3, [sp, #7]
 335              	.LVL18:
 336              		.loc 1 49 5 view .LVU93
 337              	.LBE168:
 338              	.LBI167:
 339              		.loc 1 46 13 is_stmt 1 view .LVU94
 340              	.LBB173:
 341              		.loc 1 47 5 view .LVU95
 342              	.LBB169:
ARM GAS  C:\Users\DEVELO~1\AppData\Local\Temp\ccbvHO3g.s 			page 7


 343              	.LBI169:
 344              		.loc 1 39 20 view .LVU96
 345              	.LBB170:
 346              		.loc 1 39 36 view .LVU97
 347              	.LBE170:
 348              	.LBE169:
 349              		.loc 1 49 5 is_stmt 0 view .LVU98
 350 00b2 0121     		movs	r1, #1
 351              	.LBB172:
 352              	.LBB171:
 353              		.loc 1 39 36 view .LVU99
 354 00b4 6683     		strh	r6, [r4, #26]	@ movhi
 355              	.LBE171:
 356              	.LBE172:
 357              		.loc 1 48 5 is_stmt 1 view .LVU100
 358              		.loc 1 49 5 is_stmt 0 view .LVU101
 359 00b6 3846     		mov	r0, r7
 360              		.loc 1 48 5 view .LVU102
 361 00b8 6583     		strh	r5, [r4, #26]	@ movhi
 362              		.loc 1 49 5 is_stmt 1 view .LVU103
 363 00ba FFF7FEFF 		bl	spiSend
 364              	.LVL19:
 365              		.loc 1 50 5 view .LVU104
 366 00be 2583     		strh	r5, [r4, #24]	@ movhi
 367              	.LVL20:
 368              		.loc 1 50 5 is_stmt 0 view .LVU105
 369              	.LBE173:
 370              	.LBE167:
 371              		.loc 1 101 21 is_stmt 1 view .LVU106
 372              	.LBB174:
 373              	.LBB175:
 374              		.loc 1 49 5 is_stmt 0 view .LVU107
 375 00c0 0DF10702 		add	r2, sp, #7
 376 00c4 8DF80780 		strb	r8, [sp, #7]
 377              	.LVL21:
 378              		.loc 1 49 5 view .LVU108
 379              	.LBE175:
 380              	.LBI174:
 381              		.loc 1 46 13 is_stmt 1 view .LVU109
 382              	.LBB180:
 383              		.loc 1 47 5 view .LVU110
 384              	.LBB176:
 385              	.LBI176:
 386              		.loc 1 39 20 view .LVU111
 387              	.LBB177:
 388              		.loc 1 39 36 view .LVU112
 389              	.LBE177:
 390              	.LBE176:
 391              		.loc 1 49 5 is_stmt 0 view .LVU113
 392 00c8 0121     		movs	r1, #1
 393              	.LBB179:
 394              	.LBB178:
 395              		.loc 1 39 36 view .LVU114
 396 00ca 6683     		strh	r6, [r4, #26]	@ movhi
 397              	.LBE178:
 398              	.LBE179:
 399              		.loc 1 48 5 is_stmt 1 view .LVU115
ARM GAS  C:\Users\DEVELO~1\AppData\Local\Temp\ccbvHO3g.s 			page 8


 400              		.loc 1 49 5 is_stmt 0 view .LVU116
 401 00cc 3846     		mov	r0, r7
 402              		.loc 1 48 5 view .LVU117
 403 00ce 6583     		strh	r5, [r4, #26]	@ movhi
 404              		.loc 1 49 5 is_stmt 1 view .LVU118
 405 00d0 FFF7FEFF 		bl	spiSend
 406              	.LVL22:
 407              		.loc 1 50 5 view .LVU119
 408 00d4 2583     		strh	r5, [r4, #24]	@ movhi
 409              	.LVL23:
 410              		.loc 1 50 5 is_stmt 0 view .LVU120
 411              	.LBE180:
 412              	.LBE174:
 413              		.loc 1 102 5 is_stmt 1 view .LVU121
 414              	.LBB181:
 415              	.LBB182:
 416              		.loc 1 49 5 is_stmt 0 view .LVU122
 417 00d6 0DF10702 		add	r2, sp, #7
 418 00da 8DF80750 		strb	r5, [sp, #7]
 419              	.LVL24:
 420              		.loc 1 49 5 view .LVU123
 421              	.LBE182:
 422              	.LBI181:
 423              		.loc 1 46 13 is_stmt 1 view .LVU124
 424              	.LBB187:
 425              		.loc 1 47 5 view .LVU125
 426              	.LBB183:
 427              	.LBI183:
 428              		.loc 1 39 20 view .LVU126
 429              	.LBB184:
 430              		.loc 1 39 36 view .LVU127
 431              	.LBE184:
 432              	.LBE183:
 433              		.loc 1 49 5 is_stmt 0 view .LVU128
 434 00de 0121     		movs	r1, #1
 435              	.LBB186:
 436              	.LBB185:
 437              		.loc 1 39 36 view .LVU129
 438 00e0 6683     		strh	r6, [r4, #26]	@ movhi
 439              	.LBE185:
 440              	.LBE186:
 441              		.loc 1 48 5 is_stmt 1 view .LVU130
 442              		.loc 1 49 5 is_stmt 0 view .LVU131
 443 00e2 3846     		mov	r0, r7
 444              		.loc 1 48 5 view .LVU132
 445 00e4 6583     		strh	r5, [r4, #26]	@ movhi
 446              		.loc 1 49 5 is_stmt 1 view .LVU133
 447 00e6 FFF7FEFF 		bl	spiSend
 448              	.LVL25:
 449              		.loc 1 50 5 view .LVU134
 450 00ea 8D23     		movs	r3, #141
 451 00ec 2583     		strh	r5, [r4, #24]	@ movhi
 452              	.LVL26:
 453              		.loc 1 50 5 is_stmt 0 view .LVU135
 454              	.LBE187:
 455              	.LBE181:
 456              		.loc 1 103 5 is_stmt 1 view .LVU136
ARM GAS  C:\Users\DEVELO~1\AppData\Local\Temp\ccbvHO3g.s 			page 9


 457              	.LBB188:
 458              	.LBB189:
 459              		.loc 1 49 5 is_stmt 0 view .LVU137
 460 00ee 0DF10702 		add	r2, sp, #7
 461 00f2 8DF80730 		strb	r3, [sp, #7]
 462              	.LVL27:
 463              		.loc 1 49 5 view .LVU138
 464              	.LBE189:
 465              	.LBI188:
 466              		.loc 1 46 13 is_stmt 1 view .LVU139
 467              	.LBB194:
 468              		.loc 1 47 5 view .LVU140
 469              	.LBB190:
 470              	.LBI190:
 471              		.loc 1 39 20 view .LVU141
 472              	.LBB191:
 473              		.loc 1 39 36 view .LVU142
 474              	.LBE191:
 475              	.LBE190:
 476              		.loc 1 49 5 is_stmt 0 view .LVU143
 477 00f6 0121     		movs	r1, #1
 478              	.LBB193:
 479              	.LBB192:
 480              		.loc 1 39 36 view .LVU144
 481 00f8 6683     		strh	r6, [r4, #26]	@ movhi
 482              	.LBE192:
 483              	.LBE193:
 484              		.loc 1 48 5 is_stmt 1 view .LVU145
 485              		.loc 1 49 5 is_stmt 0 view .LVU146
 486 00fa 3846     		mov	r0, r7
 487              		.loc 1 48 5 view .LVU147
 488 00fc 6583     		strh	r5, [r4, #26]	@ movhi
 489              		.loc 1 49 5 is_stmt 1 view .LVU148
 490 00fe FFF7FEFF 		bl	spiSend
 491              	.LVL28:
 492              		.loc 1 50 5 view .LVU149
 493 0102 1423     		movs	r3, #20
 494 0104 2583     		strh	r5, [r4, #24]	@ movhi
 495              	.LVL29:
 496              		.loc 1 50 5 is_stmt 0 view .LVU150
 497              	.LBE194:
 498              	.LBE188:
 499              		.loc 1 103 21 is_stmt 1 view .LVU151
 500              	.LBB195:
 501              	.LBB196:
 502              		.loc 1 49 5 is_stmt 0 view .LVU152
 503 0106 0DF10702 		add	r2, sp, #7
 504 010a 8DF80730 		strb	r3, [sp, #7]
 505              	.LVL30:
 506              		.loc 1 49 5 view .LVU153
 507              	.LBE196:
 508              	.LBI195:
 509              		.loc 1 46 13 is_stmt 1 view .LVU154
 510              	.LBB201:
 511              		.loc 1 47 5 view .LVU155
 512              	.LBB197:
 513              	.LBI197:
ARM GAS  C:\Users\DEVELO~1\AppData\Local\Temp\ccbvHO3g.s 			page 10


 514              		.loc 1 39 20 view .LVU156
 515              	.LBB198:
 516              		.loc 1 39 36 view .LVU157
 517              	.LBE198:
 518              	.LBE197:
 519              		.loc 1 49 5 is_stmt 0 view .LVU158
 520 010e 0121     		movs	r1, #1
 521              	.LBB200:
 522              	.LBB199:
 523              		.loc 1 39 36 view .LVU159
 524 0110 6683     		strh	r6, [r4, #26]	@ movhi
 525              	.LBE199:
 526              	.LBE200:
 527              		.loc 1 48 5 is_stmt 1 view .LVU160
 528              		.loc 1 49 5 is_stmt 0 view .LVU161
 529 0112 3846     		mov	r0, r7
 530              		.loc 1 48 5 view .LVU162
 531 0114 6583     		strh	r5, [r4, #26]	@ movhi
 532              		.loc 1 49 5 is_stmt 1 view .LVU163
 533 0116 FFF7FEFF 		bl	spiSend
 534              	.LVL31:
 535              		.loc 1 50 5 view .LVU164
 536 011a 2583     		strh	r5, [r4, #24]	@ movhi
 537              	.LVL32:
 538              		.loc 1 50 5 is_stmt 0 view .LVU165
 539              	.LBE201:
 540              	.LBE195:
 541              		.loc 1 104 5 is_stmt 1 view .LVU166
 542              	.LBB202:
 543              	.LBB203:
 544              		.loc 1 49 5 is_stmt 0 view .LVU167
 545 011c 0DF10702 		add	r2, sp, #7
 546 0120 8DF80760 		strb	r6, [sp, #7]
 547              	.LVL33:
 548              		.loc 1 49 5 view .LVU168
 549              	.LBE203:
 550              	.LBI202:
 551              		.loc 1 46 13 is_stmt 1 view .LVU169
 552              	.LBB208:
 553              		.loc 1 47 5 view .LVU170
 554              	.LBB204:
 555              	.LBI204:
 556              		.loc 1 39 20 view .LVU171
 557              	.LBB205:
 558              		.loc 1 39 36 view .LVU172
 559              	.LBE205:
 560              	.LBE204:
 561              		.loc 1 49 5 is_stmt 0 view .LVU173
 562 0124 0121     		movs	r1, #1
 563              	.LBB207:
 564              	.LBB206:
 565              		.loc 1 39 36 view .LVU174
 566 0126 6683     		strh	r6, [r4, #26]	@ movhi
 567              	.LBE206:
 568              	.LBE207:
 569              		.loc 1 48 5 is_stmt 1 view .LVU175
 570              		.loc 1 49 5 is_stmt 0 view .LVU176
ARM GAS  C:\Users\DEVELO~1\AppData\Local\Temp\ccbvHO3g.s 			page 11


 571 0128 3846     		mov	r0, r7
 572              		.loc 1 48 5 view .LVU177
 573 012a 6583     		strh	r5, [r4, #26]	@ movhi
 574              		.loc 1 49 5 is_stmt 1 view .LVU178
 575 012c FFF7FEFF 		bl	spiSend
 576              	.LVL34:
 577              		.loc 1 50 5 view .LVU179
 578 0130 0223     		movs	r3, #2
 579 0132 2583     		strh	r5, [r4, #24]	@ movhi
 580              	.LVL35:
 581              		.loc 1 50 5 is_stmt 0 view .LVU180
 582              	.LBE208:
 583              	.LBE202:
 584              		.loc 1 104 21 is_stmt 1 view .LVU181
 585              	.LBB209:
 586              	.LBB210:
 587              		.loc 1 49 5 is_stmt 0 view .LVU182
 588 0134 0DF10702 		add	r2, sp, #7
 589 0138 8DF80730 		strb	r3, [sp, #7]
 590              	.LVL36:
 591              		.loc 1 49 5 view .LVU183
 592              	.LBE210:
 593              	.LBI209:
 594              		.loc 1 46 13 is_stmt 1 view .LVU184
 595              	.LBB215:
 596              		.loc 1 47 5 view .LVU185
 597              	.LBB211:
 598              	.LBI211:
 599              		.loc 1 39 20 view .LVU186
 600              	.LBB212:
 601              		.loc 1 39 36 view .LVU187
 602              	.LBE212:
 603              	.LBE211:
 604              		.loc 1 49 5 is_stmt 0 view .LVU188
 605 013c 0121     		movs	r1, #1
 606              	.LBB214:
 607              	.LBB213:
 608              		.loc 1 39 36 view .LVU189
 609 013e 6683     		strh	r6, [r4, #26]	@ movhi
 610              	.LBE213:
 611              	.LBE214:
 612              		.loc 1 48 5 is_stmt 1 view .LVU190
 613              		.loc 1 49 5 is_stmt 0 view .LVU191
 614 0140 3846     		mov	r0, r7
 615              		.loc 1 48 5 view .LVU192
 616 0142 6583     		strh	r5, [r4, #26]	@ movhi
 617              		.loc 1 49 5 is_stmt 1 view .LVU193
 618 0144 FFF7FEFF 		bl	spiSend
 619              	.LVL37:
 620              		.loc 1 50 5 view .LVU194
 621 0148 A123     		movs	r3, #161
 622 014a 2583     		strh	r5, [r4, #24]	@ movhi
 623              	.LVL38:
 624              		.loc 1 50 5 is_stmt 0 view .LVU195
 625              	.LBE215:
 626              	.LBE209:
 627              		.loc 1 105 5 is_stmt 1 view .LVU196
ARM GAS  C:\Users\DEVELO~1\AppData\Local\Temp\ccbvHO3g.s 			page 12


 628              	.LBB216:
 629              	.LBB217:
 630              		.loc 1 49 5 is_stmt 0 view .LVU197
 631 014c 0DF10702 		add	r2, sp, #7
 632 0150 8DF80730 		strb	r3, [sp, #7]
 633              	.LVL39:
 634              		.loc 1 49 5 view .LVU198
 635              	.LBE217:
 636              	.LBI216:
 637              		.loc 1 46 13 is_stmt 1 view .LVU199
 638              	.LBB222:
 639              		.loc 1 47 5 view .LVU200
 640              	.LBB218:
 641              	.LBI218:
 642              		.loc 1 39 20 view .LVU201
 643              	.LBB219:
 644              		.loc 1 39 36 view .LVU202
 645              	.LBE219:
 646              	.LBE218:
 647              		.loc 1 49 5 is_stmt 0 view .LVU203
 648 0154 0121     		movs	r1, #1
 649              	.LBB221:
 650              	.LBB220:
 651              		.loc 1 39 36 view .LVU204
 652 0156 6683     		strh	r6, [r4, #26]	@ movhi
 653              	.LBE220:
 654              	.LBE221:
 655              		.loc 1 48 5 is_stmt 1 view .LVU205
 656              		.loc 1 49 5 is_stmt 0 view .LVU206
 657 0158 3846     		mov	r0, r7
 658              		.loc 1 48 5 view .LVU207
 659 015a 6583     		strh	r5, [r4, #26]	@ movhi
 660              		.loc 1 49 5 is_stmt 1 view .LVU208
 661 015c FFF7FEFF 		bl	spiSend
 662              	.LVL40:
 663              		.loc 1 50 5 view .LVU209
 664 0160 C823     		movs	r3, #200
 665 0162 2583     		strh	r5, [r4, #24]	@ movhi
 666              	.LVL41:
 667              		.loc 1 50 5 is_stmt 0 view .LVU210
 668              	.LBE222:
 669              	.LBE216:
 670              		.loc 1 106 5 is_stmt 1 view .LVU211
 671              	.LBB223:
 672              	.LBB224:
 673              		.loc 1 49 5 is_stmt 0 view .LVU212
 674 0164 0DF10702 		add	r2, sp, #7
 675 0168 8DF80730 		strb	r3, [sp, #7]
 676              	.LVL42:
 677              		.loc 1 49 5 view .LVU213
 678              	.LBE224:
 679              	.LBI223:
 680              		.loc 1 46 13 is_stmt 1 view .LVU214
 681              	.LBB229:
 682              		.loc 1 47 5 view .LVU215
 683              	.LBB225:
 684              	.LBI225:
ARM GAS  C:\Users\DEVELO~1\AppData\Local\Temp\ccbvHO3g.s 			page 13


 685              		.loc 1 39 20 view .LVU216
 686              	.LBB226:
 687              		.loc 1 39 36 view .LVU217
 688              	.LBE226:
 689              	.LBE225:
 690              		.loc 1 49 5 is_stmt 0 view .LVU218
 691 016c 0121     		movs	r1, #1
 692              	.LBB228:
 693              	.LBB227:
 694              		.loc 1 39 36 view .LVU219
 695 016e 6683     		strh	r6, [r4, #26]	@ movhi
 696              	.LBE227:
 697              	.LBE228:
 698              		.loc 1 48 5 is_stmt 1 view .LVU220
 699              		.loc 1 49 5 is_stmt 0 view .LVU221
 700 0170 3846     		mov	r0, r7
 701              		.loc 1 48 5 view .LVU222
 702 0172 6583     		strh	r5, [r4, #26]	@ movhi
 703              		.loc 1 49 5 is_stmt 1 view .LVU223
 704 0174 FFF7FEFF 		bl	spiSend
 705              	.LVL43:
 706              		.loc 1 50 5 view .LVU224
 707 0178 DA23     		movs	r3, #218
 708 017a 2583     		strh	r5, [r4, #24]	@ movhi
 709              	.LVL44:
 710              		.loc 1 50 5 is_stmt 0 view .LVU225
 711              	.LBE229:
 712              	.LBE223:
 713              		.loc 1 107 5 is_stmt 1 view .LVU226
 714              	.LBB230:
 715              	.LBB231:
 716              		.loc 1 49 5 is_stmt 0 view .LVU227
 717 017c 0DF10702 		add	r2, sp, #7
 718 0180 8DF80730 		strb	r3, [sp, #7]
 719              	.LVL45:
 720              		.loc 1 49 5 view .LVU228
 721              	.LBE231:
 722              	.LBI230:
 723              		.loc 1 46 13 is_stmt 1 view .LVU229
 724              	.LBB236:
 725              		.loc 1 47 5 view .LVU230
 726              	.LBB232:
 727              	.LBI232:
 728              		.loc 1 39 20 view .LVU231
 729              	.LBB233:
 730              		.loc 1 39 36 view .LVU232
 731              	.LBE233:
 732              	.LBE232:
 733              		.loc 1 49 5 is_stmt 0 view .LVU233
 734 0184 0121     		movs	r1, #1
 735              	.LBB235:
 736              	.LBB234:
 737              		.loc 1 39 36 view .LVU234
 738 0186 6683     		strh	r6, [r4, #26]	@ movhi
 739              	.LBE234:
 740              	.LBE235:
 741              		.loc 1 48 5 is_stmt 1 view .LVU235
ARM GAS  C:\Users\DEVELO~1\AppData\Local\Temp\ccbvHO3g.s 			page 14


 742              		.loc 1 49 5 is_stmt 0 view .LVU236
 743 0188 3846     		mov	r0, r7
 744              		.loc 1 48 5 view .LVU237
 745 018a 6583     		strh	r5, [r4, #26]	@ movhi
 746              		.loc 1 49 5 is_stmt 1 view .LVU238
 747 018c FFF7FEFF 		bl	spiSend
 748              	.LVL46:
 749              		.loc 1 50 5 view .LVU239
 750 0190 1223     		movs	r3, #18
 751 0192 2583     		strh	r5, [r4, #24]	@ movhi
 752              	.LVL47:
 753              		.loc 1 50 5 is_stmt 0 view .LVU240
 754              	.LBE236:
 755              	.LBE230:
 756              		.loc 1 107 21 is_stmt 1 view .LVU241
 757              	.LBB237:
 758              	.LBB238:
 759              		.loc 1 49 5 is_stmt 0 view .LVU242
 760 0194 0DF10702 		add	r2, sp, #7
 761 0198 8DF80730 		strb	r3, [sp, #7]
 762              	.LVL48:
 763              		.loc 1 49 5 view .LVU243
 764              	.LBE238:
 765              	.LBI237:
 766              		.loc 1 46 13 is_stmt 1 view .LVU244
 767              	.LBB243:
 768              		.loc 1 47 5 view .LVU245
 769              	.LBB239:
 770              	.LBI239:
 771              		.loc 1 39 20 view .LVU246
 772              	.LBB240:
 773              		.loc 1 39 36 view .LVU247
 774              	.LBE240:
 775              	.LBE239:
 776              		.loc 1 49 5 is_stmt 0 view .LVU248
 777 019c 0121     		movs	r1, #1
 778              	.LBB242:
 779              	.LBB241:
 780              		.loc 1 39 36 view .LVU249
 781 019e 6683     		strh	r6, [r4, #26]	@ movhi
 782              	.LBE241:
 783              	.LBE242:
 784              		.loc 1 48 5 is_stmt 1 view .LVU250
 785              		.loc 1 49 5 is_stmt 0 view .LVU251
 786 01a0 3846     		mov	r0, r7
 787              		.loc 1 48 5 view .LVU252
 788 01a2 6583     		strh	r5, [r4, #26]	@ movhi
 789              		.loc 1 49 5 is_stmt 1 view .LVU253
 790 01a4 FFF7FEFF 		bl	spiSend
 791              	.LVL49:
 792              		.loc 1 50 5 view .LVU254
 793 01a8 8123     		movs	r3, #129
 794 01aa 2583     		strh	r5, [r4, #24]	@ movhi
 795              	.LVL50:
 796              		.loc 1 50 5 is_stmt 0 view .LVU255
 797              	.LBE243:
 798              	.LBE237:
ARM GAS  C:\Users\DEVELO~1\AppData\Local\Temp\ccbvHO3g.s 			page 15


 799              		.loc 1 108 5 is_stmt 1 view .LVU256
 800              	.LBB244:
 801              	.LBB245:
 802              		.loc 1 49 5 is_stmt 0 view .LVU257
 803 01ac 0DF10702 		add	r2, sp, #7
 804 01b0 8DF80730 		strb	r3, [sp, #7]
 805              	.LVL51:
 806              		.loc 1 49 5 view .LVU258
 807              	.LBE245:
 808              	.LBI244:
 809              		.loc 1 46 13 is_stmt 1 view .LVU259
 810              	.LBB250:
 811              		.loc 1 47 5 view .LVU260
 812              	.LBB246:
 813              	.LBI246:
 814              		.loc 1 39 20 view .LVU261
 815              	.LBB247:
 816              		.loc 1 39 36 view .LVU262
 817              	.LBE247:
 818              	.LBE246:
 819              		.loc 1 49 5 is_stmt 0 view .LVU263
 820 01b4 0121     		movs	r1, #1
 821              	.LBB249:
 822              	.LBB248:
 823              		.loc 1 39 36 view .LVU264
 824 01b6 6683     		strh	r6, [r4, #26]	@ movhi
 825              	.LBE248:
 826              	.LBE249:
 827              		.loc 1 48 5 is_stmt 1 view .LVU265
 828              		.loc 1 49 5 is_stmt 0 view .LVU266
 829 01b8 3846     		mov	r0, r7
 830              		.loc 1 48 5 view .LVU267
 831 01ba 6583     		strh	r5, [r4, #26]	@ movhi
 832              		.loc 1 49 5 is_stmt 1 view .LVU268
 833 01bc FFF7FEFF 		bl	spiSend
 834              	.LVL52:
 835              		.loc 1 50 5 view .LVU269
 836 01c0 2583     		strh	r5, [r4, #24]	@ movhi
 837              	.LVL53:
 838              		.loc 1 50 5 is_stmt 0 view .LVU270
 839              	.LBE250:
 840              	.LBE244:
 841              		.loc 1 108 21 is_stmt 1 view .LVU271
 842              	.LBB251:
 843              	.LBB252:
 844              		.loc 1 49 5 is_stmt 0 view .LVU272
 845 01c2 0DF10702 		add	r2, sp, #7
 846 01c6 8DF80790 		strb	r9, [sp, #7]
 847              	.LVL54:
 848              		.loc 1 49 5 view .LVU273
 849              	.LBE252:
 850              	.LBI251:
 851              		.loc 1 46 13 is_stmt 1 view .LVU274
 852              	.LBB257:
 853              		.loc 1 47 5 view .LVU275
 854              	.LBB253:
 855              	.LBI253:
ARM GAS  C:\Users\DEVELO~1\AppData\Local\Temp\ccbvHO3g.s 			page 16


 856              		.loc 1 39 20 view .LVU276
 857              	.LBB254:
 858              		.loc 1 39 36 view .LVU277
 859              	.LBE254:
 860              	.LBE253:
 861              		.loc 1 49 5 is_stmt 0 view .LVU278
 862 01ca 0121     		movs	r1, #1
 863              	.LBB256:
 864              	.LBB255:
 865              		.loc 1 39 36 view .LVU279
 866 01cc 6683     		strh	r6, [r4, #26]	@ movhi
 867              	.LBE255:
 868              	.LBE256:
 869              		.loc 1 48 5 is_stmt 1 view .LVU280
 870              		.loc 1 49 5 is_stmt 0 view .LVU281
 871 01ce 3846     		mov	r0, r7
 872              		.loc 1 48 5 view .LVU282
 873 01d0 6583     		strh	r5, [r4, #26]	@ movhi
 874              		.loc 1 49 5 is_stmt 1 view .LVU283
 875 01d2 FFF7FEFF 		bl	spiSend
 876              	.LVL55:
 877              		.loc 1 50 5 view .LVU284
 878 01d6 D923     		movs	r3, #217
 879 01d8 2583     		strh	r5, [r4, #24]	@ movhi
 880              	.LVL56:
 881              		.loc 1 50 5 is_stmt 0 view .LVU285
 882              	.LBE257:
 883              	.LBE251:
 884              		.loc 1 109 5 is_stmt 1 view .LVU286
 885              	.LBB258:
 886              	.LBB259:
 887              		.loc 1 49 5 is_stmt 0 view .LVU287
 888 01da 0DF10702 		add	r2, sp, #7
 889 01de 8DF80730 		strb	r3, [sp, #7]
 890              	.LVL57:
 891              		.loc 1 49 5 view .LVU288
 892              	.LBE259:
 893              	.LBI258:
 894              		.loc 1 46 13 is_stmt 1 view .LVU289
 895              	.LBB264:
 896              		.loc 1 47 5 view .LVU290
 897              	.LBB260:
 898              	.LBI260:
 899              		.loc 1 39 20 view .LVU291
 900              	.LBB261:
 901              		.loc 1 39 36 view .LVU292
 902              	.LBE261:
 903              	.LBE260:
 904              		.loc 1 49 5 is_stmt 0 view .LVU293
 905 01e2 0121     		movs	r1, #1
 906              	.LBB263:
 907              	.LBB262:
 908              		.loc 1 39 36 view .LVU294
 909 01e4 6683     		strh	r6, [r4, #26]	@ movhi
 910              	.LBE262:
 911              	.LBE263:
 912              		.loc 1 48 5 is_stmt 1 view .LVU295
ARM GAS  C:\Users\DEVELO~1\AppData\Local\Temp\ccbvHO3g.s 			page 17


 913              		.loc 1 49 5 is_stmt 0 view .LVU296
 914 01e6 3846     		mov	r0, r7
 915              		.loc 1 48 5 view .LVU297
 916 01e8 6583     		strh	r5, [r4, #26]	@ movhi
 917              		.loc 1 49 5 is_stmt 1 view .LVU298
 918 01ea FFF7FEFF 		bl	spiSend
 919              	.LVL58:
 920              		.loc 1 50 5 view .LVU299
 921 01ee F123     		movs	r3, #241
 922 01f0 2583     		strh	r5, [r4, #24]	@ movhi
 923              	.LVL59:
 924              		.loc 1 50 5 is_stmt 0 view .LVU300
 925              	.LBE264:
 926              	.LBE258:
 927              		.loc 1 109 21 is_stmt 1 view .LVU301
 928              	.LBB265:
 929              	.LBB266:
 930              		.loc 1 49 5 is_stmt 0 view .LVU302
 931 01f2 0DF10702 		add	r2, sp, #7
 932 01f6 8DF80730 		strb	r3, [sp, #7]
 933              	.LVL60:
 934              		.loc 1 49 5 view .LVU303
 935              	.LBE266:
 936              	.LBI265:
 937              		.loc 1 46 13 is_stmt 1 view .LVU304
 938              	.LBB271:
 939              		.loc 1 47 5 view .LVU305
 940              	.LBB267:
 941              	.LBI267:
 942              		.loc 1 39 20 view .LVU306
 943              	.LBB268:
 944              		.loc 1 39 36 view .LVU307
 945              	.LBE268:
 946              	.LBE267:
 947              		.loc 1 49 5 is_stmt 0 view .LVU308
 948 01fa 0121     		movs	r1, #1
 949              	.LBB270:
 950              	.LBB269:
 951              		.loc 1 39 36 view .LVU309
 952 01fc 6683     		strh	r6, [r4, #26]	@ movhi
 953              	.LBE269:
 954              	.LBE270:
 955              		.loc 1 48 5 is_stmt 1 view .LVU310
 956              		.loc 1 49 5 is_stmt 0 view .LVU311
 957 01fe 3846     		mov	r0, r7
 958              		.loc 1 48 5 view .LVU312
 959 0200 6583     		strh	r5, [r4, #26]	@ movhi
 960              		.loc 1 49 5 is_stmt 1 view .LVU313
 961 0202 FFF7FEFF 		bl	spiSend
 962              	.LVL61:
 963              		.loc 1 50 5 view .LVU314
 964 0206 DB23     		movs	r3, #219
 965 0208 2583     		strh	r5, [r4, #24]	@ movhi
 966              	.LVL62:
 967              		.loc 1 50 5 is_stmt 0 view .LVU315
 968              	.LBE271:
 969              	.LBE265:
ARM GAS  C:\Users\DEVELO~1\AppData\Local\Temp\ccbvHO3g.s 			page 18


 970              		.loc 1 110 5 is_stmt 1 view .LVU316
 971              	.LBB272:
 972              	.LBB273:
 973              		.loc 1 49 5 is_stmt 0 view .LVU317
 974 020a 0DF10702 		add	r2, sp, #7
 975 020e 8DF80730 		strb	r3, [sp, #7]
 976              	.LVL63:
 977              		.loc 1 49 5 view .LVU318
 978              	.LBE273:
 979              	.LBI272:
 980              		.loc 1 46 13 is_stmt 1 view .LVU319
 981              	.LBB278:
 982              		.loc 1 47 5 view .LVU320
 983              	.LBB274:
 984              	.LBI274:
 985              		.loc 1 39 20 view .LVU321
 986              	.LBB275:
 987              		.loc 1 39 36 view .LVU322
 988              	.LBE275:
 989              	.LBE274:
 990              		.loc 1 49 5 is_stmt 0 view .LVU323
 991 0212 0121     		movs	r1, #1
 992              	.LBB277:
 993              	.LBB276:
 994              		.loc 1 39 36 view .LVU324
 995 0214 6683     		strh	r6, [r4, #26]	@ movhi
 996              	.LBE276:
 997              	.LBE277:
 998              		.loc 1 48 5 is_stmt 1 view .LVU325
 999              		.loc 1 49 5 is_stmt 0 view .LVU326
 1000 0216 3846     		mov	r0, r7
 1001              		.loc 1 48 5 view .LVU327
 1002 0218 6583     		strh	r5, [r4, #26]	@ movhi
 1003              		.loc 1 49 5 is_stmt 1 view .LVU328
 1004 021a FFF7FEFF 		bl	spiSend
 1005              	.LVL64:
 1006              		.loc 1 50 5 view .LVU329
 1007 021e 2583     		strh	r5, [r4, #24]	@ movhi
 1008              	.LVL65:
 1009              		.loc 1 50 5 is_stmt 0 view .LVU330
 1010              	.LBE278:
 1011              	.LBE272:
 1012              		.loc 1 110 21 is_stmt 1 view .LVU331
 1013              	.LBB279:
 1014              	.LBB280:
 1015              		.loc 1 49 5 is_stmt 0 view .LVU332
 1016 0220 0DF10702 		add	r2, sp, #7
 1017 0224 8DF80750 		strb	r5, [sp, #7]
 1018              	.LVL66:
 1019              		.loc 1 49 5 view .LVU333
 1020              	.LBE280:
 1021              	.LBI279:
 1022              		.loc 1 46 13 is_stmt 1 view .LVU334
 1023              	.LBB285:
 1024              		.loc 1 47 5 view .LVU335
 1025              	.LBB281:
 1026              	.LBI281:
ARM GAS  C:\Users\DEVELO~1\AppData\Local\Temp\ccbvHO3g.s 			page 19


 1027              		.loc 1 39 20 view .LVU336
 1028              	.LBB282:
 1029              		.loc 1 39 36 view .LVU337
 1030              	.LBE282:
 1031              	.LBE281:
 1032              		.loc 1 49 5 is_stmt 0 view .LVU338
 1033 0228 0121     		movs	r1, #1
 1034              	.LBB284:
 1035              	.LBB283:
 1036              		.loc 1 39 36 view .LVU339
 1037 022a 6683     		strh	r6, [r4, #26]	@ movhi
 1038              	.LBE283:
 1039              	.LBE284:
 1040              		.loc 1 48 5 is_stmt 1 view .LVU340
 1041              		.loc 1 49 5 is_stmt 0 view .LVU341
 1042 022c 3846     		mov	r0, r7
 1043              		.loc 1 48 5 view .LVU342
 1044 022e 6583     		strh	r5, [r4, #26]	@ movhi
 1045              		.loc 1 49 5 is_stmt 1 view .LVU343
 1046 0230 FFF7FEFF 		bl	spiSend
 1047              	.LVL67:
 1048              		.loc 1 50 5 view .LVU344
 1049 0234 A423     		movs	r3, #164
 1050 0236 2583     		strh	r5, [r4, #24]	@ movhi
 1051              	.LVL68:
 1052              		.loc 1 50 5 is_stmt 0 view .LVU345
 1053              	.LBE285:
 1054              	.LBE279:
 1055              		.loc 1 111 5 is_stmt 1 view .LVU346
 1056              	.LBB286:
 1057              	.LBB287:
 1058              		.loc 1 49 5 is_stmt 0 view .LVU347
 1059 0238 0DF10702 		add	r2, sp, #7
 1060 023c 8DF80730 		strb	r3, [sp, #7]
 1061              	.LVL69:
 1062              		.loc 1 49 5 view .LVU348
 1063              	.LBE287:
 1064              	.LBI286:
 1065              		.loc 1 46 13 is_stmt 1 view .LVU349
 1066              	.LBB292:
 1067              		.loc 1 47 5 view .LVU350
 1068              	.LBB288:
 1069              	.LBI288:
 1070              		.loc 1 39 20 view .LVU351
 1071              	.LBB289:
 1072              		.loc 1 39 36 view .LVU352
 1073              	.LBE289:
 1074              	.LBE288:
 1075              		.loc 1 49 5 is_stmt 0 view .LVU353
 1076 0240 0121     		movs	r1, #1
 1077              	.LBB291:
 1078              	.LBB290:
 1079              		.loc 1 39 36 view .LVU354
 1080 0242 6683     		strh	r6, [r4, #26]	@ movhi
 1081              	.LBE290:
 1082              	.LBE291:
 1083              		.loc 1 48 5 is_stmt 1 view .LVU355
ARM GAS  C:\Users\DEVELO~1\AppData\Local\Temp\ccbvHO3g.s 			page 20


 1084              		.loc 1 49 5 is_stmt 0 view .LVU356
 1085 0244 3846     		mov	r0, r7
 1086              		.loc 1 48 5 view .LVU357
 1087 0246 6583     		strh	r5, [r4, #26]	@ movhi
 1088              		.loc 1 49 5 is_stmt 1 view .LVU358
 1089 0248 FFF7FEFF 		bl	spiSend
 1090              	.LVL70:
 1091              		.loc 1 50 5 view .LVU359
 1092 024c A623     		movs	r3, #166
 1093 024e 2583     		strh	r5, [r4, #24]	@ movhi
 1094              	.LVL71:
 1095              		.loc 1 50 5 is_stmt 0 view .LVU360
 1096              	.LBE292:
 1097              	.LBE286:
 1098              		.loc 1 112 5 is_stmt 1 view .LVU361
 1099              	.LBB293:
 1100              	.LBB294:
 1101              		.loc 1 49 5 is_stmt 0 view .LVU362
 1102 0250 0DF10702 		add	r2, sp, #7
 1103 0254 8DF80730 		strb	r3, [sp, #7]
 1104              	.LVL72:
 1105              		.loc 1 49 5 view .LVU363
 1106              	.LBE294:
 1107              	.LBI293:
 1108              		.loc 1 46 13 is_stmt 1 view .LVU364
 1109              	.LBB299:
 1110              		.loc 1 47 5 view .LVU365
 1111              	.LBB295:
 1112              	.LBI295:
 1113              		.loc 1 39 20 view .LVU366
 1114              	.LBB296:
 1115              		.loc 1 39 36 view .LVU367
 1116              	.LBE296:
 1117              	.LBE295:
 1118              		.loc 1 49 5 is_stmt 0 view .LVU368
 1119 0258 0121     		movs	r1, #1
 1120              	.LBB298:
 1121              	.LBB297:
 1122              		.loc 1 39 36 view .LVU369
 1123 025a 6683     		strh	r6, [r4, #26]	@ movhi
 1124              	.LBE297:
 1125              	.LBE298:
 1126              		.loc 1 48 5 is_stmt 1 view .LVU370
 1127              		.loc 1 49 5 is_stmt 0 view .LVU371
 1128 025c 3846     		mov	r0, r7
 1129              		.loc 1 48 5 view .LVU372
 1130 025e 6583     		strh	r5, [r4, #26]	@ movhi
 1131              		.loc 1 49 5 is_stmt 1 view .LVU373
 1132 0260 FFF7FEFF 		bl	spiSend
 1133              	.LVL73:
 1134              		.loc 1 50 5 view .LVU374
 1135 0264 2123     		movs	r3, #33
 1136 0266 2583     		strh	r5, [r4, #24]	@ movhi
 1137              	.LVL74:
 1138              		.loc 1 50 5 is_stmt 0 view .LVU375
 1139              	.LBE299:
 1140              	.LBE293:
ARM GAS  C:\Users\DEVELO~1\AppData\Local\Temp\ccbvHO3g.s 			page 21


 1141              		.loc 1 113 5 is_stmt 1 view .LVU376
 1142              	.LBB300:
 1143              	.LBB301:
 1144              		.loc 1 49 5 is_stmt 0 view .LVU377
 1145 0268 0DF10702 		add	r2, sp, #7
 1146 026c 8DF80730 		strb	r3, [sp, #7]
 1147              	.LVL75:
 1148              		.loc 1 49 5 view .LVU378
 1149              	.LBE301:
 1150              	.LBI300:
 1151              		.loc 1 46 13 is_stmt 1 view .LVU379
 1152              	.LBB306:
 1153              		.loc 1 47 5 view .LVU380
 1154              	.LBB302:
 1155              	.LBI302:
 1156              		.loc 1 39 20 view .LVU381
 1157              	.LBB303:
 1158              		.loc 1 39 36 view .LVU382
 1159              	.LBE303:
 1160              	.LBE302:
 1161              		.loc 1 49 5 is_stmt 0 view .LVU383
 1162 0270 0121     		movs	r1, #1
 1163              	.LBB305:
 1164              	.LBB304:
 1165              		.loc 1 39 36 view .LVU384
 1166 0272 6683     		strh	r6, [r4, #26]	@ movhi
 1167              	.LBE304:
 1168              	.LBE305:
 1169              		.loc 1 48 5 is_stmt 1 view .LVU385
 1170              		.loc 1 49 5 is_stmt 0 view .LVU386
 1171 0274 3846     		mov	r0, r7
 1172              		.loc 1 48 5 view .LVU387
 1173 0276 6583     		strh	r5, [r4, #26]	@ movhi
 1174              		.loc 1 49 5 is_stmt 1 view .LVU388
 1175 0278 FFF7FEFF 		bl	spiSend
 1176              	.LVL76:
 1177              		.loc 1 50 5 view .LVU389
 1178 027c 2583     		strh	r5, [r4, #24]	@ movhi
 1179              	.LVL77:
 1180              		.loc 1 50 5 is_stmt 0 view .LVU390
 1181              	.LBE306:
 1182              	.LBE300:
 1183              		.loc 1 113 21 is_stmt 1 view .LVU391
 1184              	.LBB307:
 1185              	.LBB308:
 1186              		.loc 1 49 5 is_stmt 0 view .LVU392
 1187 027e 0DF10702 		add	r2, sp, #7
 1188 0282 8DF80780 		strb	r8, [sp, #7]
 1189              	.LVL78:
 1190              		.loc 1 49 5 view .LVU393
 1191              	.LBE308:
 1192              	.LBI307:
 1193              		.loc 1 46 13 is_stmt 1 view .LVU394
 1194              	.LBB313:
 1195              		.loc 1 47 5 view .LVU395
 1196              	.LBB309:
 1197              	.LBI309:
ARM GAS  C:\Users\DEVELO~1\AppData\Local\Temp\ccbvHO3g.s 			page 22


 1198              		.loc 1 39 20 view .LVU396
 1199              	.LBB310:
 1200              		.loc 1 39 36 view .LVU397
 1201              	.LBE310:
 1202              	.LBE309:
 1203              		.loc 1 49 5 is_stmt 0 view .LVU398
 1204 0286 0121     		movs	r1, #1
 1205              	.LBB312:
 1206              	.LBB311:
 1207              		.loc 1 39 36 view .LVU399
 1208 0288 6683     		strh	r6, [r4, #26]	@ movhi
 1209              	.LBE311:
 1210              	.LBE312:
 1211              		.loc 1 48 5 is_stmt 1 view .LVU400
 1212              		.loc 1 49 5 is_stmt 0 view .LVU401
 1213 028a 3846     		mov	r0, r7
 1214              		.loc 1 48 5 view .LVU402
 1215 028c 6583     		strh	r5, [r4, #26]	@ movhi
 1216              		.loc 1 49 5 is_stmt 1 view .LVU403
 1217 028e FFF7FEFF 		bl	spiSend
 1218              	.LVL79:
 1219              		.loc 1 50 5 view .LVU404
 1220 0292 2583     		strh	r5, [r4, #24]	@ movhi
 1221              	.LVL80:
 1222              		.loc 1 50 5 is_stmt 0 view .LVU405
 1223              	.LBE313:
 1224              	.LBE307:
 1225              		.loc 1 113 37 is_stmt 1 view .LVU406
 1226              	.LBB314:
 1227              	.LBB315:
 1228              		.loc 1 49 5 is_stmt 0 view .LVU407
 1229 0294 0DF10702 		add	r2, sp, #7
 1230 0298 8DF80790 		strb	r9, [sp, #7]
 1231              	.LVL81:
 1232              		.loc 1 49 5 view .LVU408
 1233              	.LBE315:
 1234              	.LBI314:
 1235              		.loc 1 46 13 is_stmt 1 view .LVU409
 1236              	.LBB320:
 1237              		.loc 1 47 5 view .LVU410
 1238              	.LBB316:
 1239              	.LBI316:
 1240              		.loc 1 39 20 view .LVU411
 1241              	.LBB317:
 1242              		.loc 1 39 36 view .LVU412
 1243              	.LBE317:
 1244              	.LBE316:
 1245              		.loc 1 49 5 is_stmt 0 view .LVU413
 1246 029c 0121     		movs	r1, #1
 1247              	.LBB319:
 1248              	.LBB318:
 1249              		.loc 1 39 36 view .LVU414
 1250 029e 6683     		strh	r6, [r4, #26]	@ movhi
 1251              	.LBE318:
 1252              	.LBE319:
 1253              		.loc 1 48 5 is_stmt 1 view .LVU415
 1254              		.loc 1 49 5 is_stmt 0 view .LVU416
ARM GAS  C:\Users\DEVELO~1\AppData\Local\Temp\ccbvHO3g.s 			page 23


 1255 02a0 3846     		mov	r0, r7
 1256              		.loc 1 48 5 view .LVU417
 1257 02a2 6583     		strh	r5, [r4, #26]	@ movhi
 1258              		.loc 1 49 5 is_stmt 1 view .LVU418
 1259 02a4 FFF7FEFF 		bl	spiSend
 1260              	.LVL82:
 1261              		.loc 1 50 5 view .LVU419
 1262 02a8 AF23     		movs	r3, #175
 1263 02aa 2583     		strh	r5, [r4, #24]	@ movhi
 1264              	.LVL83:
 1265              		.loc 1 50 5 is_stmt 0 view .LVU420
 1266              	.LBE320:
 1267              	.LBE314:
 1268              		.loc 1 114 5 is_stmt 1 view .LVU421
 1269              	.LBB321:
 1270              	.LBB322:
 1271              		.loc 1 49 5 is_stmt 0 view .LVU422
 1272 02ac 0DF10702 		add	r2, sp, #7
 1273 02b0 8DF80730 		strb	r3, [sp, #7]
 1274              	.LVL84:
 1275              		.loc 1 49 5 view .LVU423
 1276              	.LBE322:
 1277              	.LBI321:
 1278              		.loc 1 46 13 is_stmt 1 view .LVU424
 1279              	.LBB327:
 1280              		.loc 1 47 5 view .LVU425
 1281              	.LBB323:
 1282              	.LBI323:
 1283              		.loc 1 39 20 view .LVU426
 1284              	.LBB324:
 1285              		.loc 1 39 36 view .LVU427
 1286              	.LBE324:
 1287              	.LBE323:
 1288              		.loc 1 49 5 is_stmt 0 view .LVU428
 1289 02b4 3846     		mov	r0, r7
 1290              	.LBB326:
 1291              	.LBB325:
 1292              		.loc 1 39 36 view .LVU429
 1293 02b6 6683     		strh	r6, [r4, #26]	@ movhi
 1294              	.LBE325:
 1295              	.LBE326:
 1296              		.loc 1 48 5 is_stmt 1 view .LVU430
 1297              		.loc 1 49 5 is_stmt 0 view .LVU431
 1298 02b8 0121     		movs	r1, #1
 1299              		.loc 1 48 5 view .LVU432
 1300 02ba 6583     		strh	r5, [r4, #26]	@ movhi
 1301              		.loc 1 49 5 is_stmt 1 view .LVU433
 1302 02bc FFF7FEFF 		bl	spiSend
 1303              	.LVL85:
 1304              		.loc 1 50 5 view .LVU434
 1305              	.LBE327:
 1306              	.LBE321:
 1307              	.LBB329:
 1308              	.LBB330:
 1309              		.loc 1 127 5 is_stmt 0 view .LVU435
 1310 02c0 4FF48062 		mov	r2, #1024
 1311 02c4 4146     		mov	r1, r8
ARM GAS  C:\Users\DEVELO~1\AppData\Local\Temp\ccbvHO3g.s 			page 24


 1312              	.LBE330:
 1313              	.LBE329:
 1314              	.LBB332:
 1315              	.LBB328:
 1316              		.loc 1 50 5 view .LVU436
 1317 02c6 2583     		strh	r5, [r4, #24]	@ movhi
 1318              	.LVL86:
 1319              		.loc 1 50 5 view .LVU437
 1320              	.LBE328:
 1321              	.LBE332:
 1322              		.loc 1 116 5 is_stmt 1 view .LVU438
 1323              	.LBB333:
 1324              	.LBI329:
 1325              		.loc 1 126 6 view .LVU439
 1326              	.LBB331:
 1327              		.loc 1 127 5 view .LVU440
 1328 02c8 0748     		ldr	r0, .L7+12
 1329 02ca FFF7FEFF 		bl	memset
 1330              	.LVL87:
 1331              	.LBE331:
 1332              	.LBE333:
 1333              		.loc 1 118 5 view .LVU441
 1334              		.loc 1 119 5 view .LVU442
 1335              		.loc 1 119 18 is_stmt 0 view .LVU443
 1336 02ce 074B     		ldr	r3, .L7+16
 1337 02d0 074A     		ldr	r2, .L7+20
 1338 02d2 1A60     		str	r2, [r3]
 1339              		.loc 1 120 1 view .LVU444
 1340 02d4 03B0     		add	sp, sp, #12
 1341              		.cfi_def_cfa_offset 28
 1342              		@ sp needed
 1343 02d6 BDE8F083 		pop	{r4, r5, r6, r7, r8, r9, pc}
 1344              	.L8:
 1345 02da 00BF     		.align	2
 1346              	.L7:
 1347 02dc 00200258 		.word	1476534272
 1348 02e0 00000000 		.word	SPID5
 1349 02e4 00000000 		.word	.LANCHOR1
 1350 02e8 00000000 		.word	.LANCHOR0
 1351 02ec 00000000 		.word	.LANCHOR2
 1352 02f0 00000000 		.word	FONT_5X7
 1353              		.cfi_endproc
 1354              	.LFE457:
 1355              		.size	drv_display_init, .-drv_display_init
 1356              		.section	.text.drv_display_clear,"ax",%progbits
 1357              		.align	1
 1358              		.p2align 2,,3
 1359              		.global	drv_display_clear
 1360              		.syntax unified
 1361              		.thumb
 1362              		.thumb_func
 1363              		.type	drv_display_clear, %function
 1364              	drv_display_clear:
 1365              	.LFB458:
 1366              		.loc 1 126 30 is_stmt 1 view -0
 1367              		.cfi_startproc
 1368              		@ args = 0, pretend = 0, frame = 0
ARM GAS  C:\Users\DEVELO~1\AppData\Local\Temp\ccbvHO3g.s 			page 25


 1369              		@ frame_needed = 0, uses_anonymous_args = 0
 1370              		@ link register save eliminated.
 1371              		.loc 1 127 5 view .LVU446
 1372 0000 4FF48062 		mov	r2, #1024
 1373 0004 0021     		movs	r1, #0
 1374 0006 0148     		ldr	r0, .L10
 1375 0008 FFF7FEBF 		b	memset
 1376              	.LVL88:
 1377              	.L11:
 1378              		.align	2
 1379              	.L10:
 1380 000c 00000000 		.word	.LANCHOR0
 1381              		.cfi_endproc
 1382              	.LFE458:
 1383              		.size	drv_display_clear, .-drv_display_clear
 1384              		.section	.text.drv_display_update,"ax",%progbits
 1385              		.align	1
 1386              		.p2align 2,,3
 1387              		.global	drv_display_update
 1388              		.syntax unified
 1389              		.thumb
 1390              		.thumb_func
 1391              		.type	drv_display_update, %function
 1392              	drv_display_update:
 1393              	.LFB459:
 1394              		.loc 1 134 31 view -0
 1395              		.cfi_startproc
 1396              		@ args = 0, pretend = 0, frame = 8
 1397              		@ frame_needed = 0, uses_anonymous_args = 0
 1398              		.loc 1 136 5 view .LVU448
 1399              	.LBB365:
 1400              		.loc 1 136 10 view .LVU449
 1401              	.LVL89:
 1402              		.loc 1 136 33 view .LVU450
 1403              	.LBE365:
 1404              		.loc 1 134 31 is_stmt 0 view .LVU451
 1405 0000 2DE9F047 		push	{r4, r5, r6, r7, r8, r9, r10, lr}
 1406              		.cfi_def_cfa_offset 32
 1407              		.cfi_offset 4, -32
 1408              		.cfi_offset 5, -28
 1409              		.cfi_offset 6, -24
 1410              		.cfi_offset 7, -20
 1411              		.cfi_offset 8, -16
 1412              		.cfi_offset 9, -12
 1413              		.cfi_offset 10, -8
 1414              		.cfi_offset 14, -4
 1415 0004 DFF8CC90 		ldr	r9, .L16+8
 1416 0008 82B0     		sub	sp, sp, #8
 1417              		.cfi_def_cfa_offset 40
 1418              		.loc 1 134 31 view .LVU452
 1419 000a 4FF0B008 		mov	r8, #176
 1420              	.LBB432:
 1421              	.LBB366:
 1422              	.LBB367:
 1423              	.LBB368:
 1424              	.LBB369:
 1425              		.loc 1 39 36 view .LVU453
ARM GAS  C:\Users\DEVELO~1\AppData\Local\Temp\ccbvHO3g.s 			page 26


 1426 000e 2F4C     		ldr	r4, .L16
 1427              	.LBE369:
 1428              	.LBE368:
 1429              		.loc 1 49 5 view .LVU454
 1430 0010 2F4F     		ldr	r7, .L16+4
 1431              	.LVL90:
 1432              	.L13:
 1433              		.loc 1 49 5 view .LVU455
 1434              	.LBE367:
 1435              	.LBE366:
 1436              		.loc 1 137 9 is_stmt 1 discriminator 3 view .LVU456
 1437              	.LBB379:
 1438              	.LBB376:
 1439              		.loc 1 48 5 is_stmt 0 discriminator 3 view .LVU457
 1440 0012 4025     		movs	r5, #64
 1441              	.LBB373:
 1442              	.LBB370:
 1443              		.loc 1 39 36 discriminator 3 view .LVU458
 1444 0014 2026     		movs	r6, #32
 1445 0016 4FF0000A 		mov	r10, #0
 1446 001a 8DF80780 		strb	r8, [sp, #7]
 1447              	.LVL91:
 1448              		.loc 1 39 36 discriminator 3 view .LVU459
 1449              	.LBE370:
 1450              	.LBE373:
 1451              	.LBE376:
 1452              	.LBI366:
 1453              		.loc 1 46 13 is_stmt 1 discriminator 3 view .LVU460
 1454              	.LBB377:
 1455              		.loc 1 47 5 discriminator 3 view .LVU461
 1456              	.LBB374:
 1457              	.LBI368:
 1458              		.loc 1 39 20 discriminator 3 view .LVU462
 1459              	.LBB371:
 1460              		.loc 1 39 36 discriminator 3 view .LVU463
 1461              	.LBE371:
 1462              	.LBE374:
 1463              		.loc 1 49 5 is_stmt 0 discriminator 3 view .LVU464
 1464 001e 0DF10702 		add	r2, sp, #7
 1465 0022 0121     		movs	r1, #1
 1466              	.LBB375:
 1467              	.LBB372:
 1468              		.loc 1 39 36 discriminator 3 view .LVU465
 1469 0024 6683     		strh	r6, [r4, #26]	@ movhi
 1470              	.LBE372:
 1471              	.LBE375:
 1472              		.loc 1 48 5 is_stmt 1 discriminator 3 view .LVU466
 1473              		.loc 1 49 5 is_stmt 0 discriminator 3 view .LVU467
 1474 0026 3846     		mov	r0, r7
 1475              		.loc 1 48 5 discriminator 3 view .LVU468
 1476 0028 6583     		strh	r5, [r4, #26]	@ movhi
 1477              		.loc 1 49 5 is_stmt 1 discriminator 3 view .LVU469
 1478              	.LBE377:
 1479              	.LBE379:
 1480              		.loc 1 136 33 is_stmt 0 discriminator 3 view .LVU470
 1481 002a 08F10108 		add	r8, r8, #1
 1482              	.LVL92:
ARM GAS  C:\Users\DEVELO~1\AppData\Local\Temp\ccbvHO3g.s 			page 27


 1483              	.LBB380:
 1484              	.LBB378:
 1485              		.loc 1 49 5 discriminator 3 view .LVU471
 1486 002e FFF7FEFF 		bl	spiSend
 1487              	.LVL93:
 1488              		.loc 1 50 5 is_stmt 1 discriminator 3 view .LVU472
 1489 0032 2583     		strh	r5, [r4, #24]	@ movhi
 1490              		.loc 1 50 5 is_stmt 0 discriminator 3 view .LVU473
 1491              	.LBE378:
 1492              	.LBE380:
 1493              		.loc 1 138 9 is_stmt 1 discriminator 3 view .LVU474
 1494              	.LBB381:
 1495              	.LBB382:
 1496              		.loc 1 49 5 is_stmt 0 discriminator 3 view .LVU475
 1497 0034 0DF10702 		add	r2, sp, #7
 1498 0038 8DF807A0 		strb	r10, [sp, #7]
 1499              	.LVL94:
 1500              		.loc 1 49 5 discriminator 3 view .LVU476
 1501              	.LBE382:
 1502              	.LBI381:
 1503              		.loc 1 46 13 is_stmt 1 discriminator 3 view .LVU477
 1504              	.LBB387:
 1505              		.loc 1 47 5 discriminator 3 view .LVU478
 1506              	.LBB383:
 1507              	.LBI383:
 1508              		.loc 1 39 20 discriminator 3 view .LVU479
 1509              	.LBB384:
 1510              		.loc 1 39 36 discriminator 3 view .LVU480
 1511              	.LBE384:
 1512              	.LBE383:
 1513              		.loc 1 49 5 is_stmt 0 discriminator 3 view .LVU481
 1514 003c 0121     		movs	r1, #1
 1515              	.LBB386:
 1516              	.LBB385:
 1517              		.loc 1 39 36 discriminator 3 view .LVU482
 1518 003e 6683     		strh	r6, [r4, #26]	@ movhi
 1519              	.LBE385:
 1520              	.LBE386:
 1521              		.loc 1 48 5 is_stmt 1 discriminator 3 view .LVU483
 1522              		.loc 1 49 5 is_stmt 0 discriminator 3 view .LVU484
 1523 0040 3846     		mov	r0, r7
 1524              		.loc 1 48 5 discriminator 3 view .LVU485
 1525 0042 6583     		strh	r5, [r4, #26]	@ movhi
 1526              		.loc 1 49 5 is_stmt 1 discriminator 3 view .LVU486
 1527 0044 FFF7FEFF 		bl	spiSend
 1528              	.LVL95:
 1529              		.loc 1 50 5 discriminator 3 view .LVU487
 1530 0048 1023     		movs	r3, #16
 1531 004a 2583     		strh	r5, [r4, #24]	@ movhi
 1532              	.LVL96:
 1533              		.loc 1 50 5 is_stmt 0 discriminator 3 view .LVU488
 1534              	.LBE387:
 1535              	.LBE381:
 1536              		.loc 1 139 9 is_stmt 1 discriminator 3 view .LVU489
 1537              	.LBB388:
 1538              	.LBB389:
 1539              		.loc 1 49 5 is_stmt 0 discriminator 3 view .LVU490
ARM GAS  C:\Users\DEVELO~1\AppData\Local\Temp\ccbvHO3g.s 			page 28


 1540 004c 0DF10702 		add	r2, sp, #7
 1541 0050 8DF80730 		strb	r3, [sp, #7]
 1542              	.LVL97:
 1543              		.loc 1 49 5 discriminator 3 view .LVU491
 1544              	.LBE389:
 1545              	.LBI388:
 1546              		.loc 1 46 13 is_stmt 1 discriminator 3 view .LVU492
 1547              	.LBB394:
 1548              		.loc 1 47 5 discriminator 3 view .LVU493
 1549              	.LBB390:
 1550              	.LBI390:
 1551              		.loc 1 39 20 discriminator 3 view .LVU494
 1552              	.LBB391:
 1553              		.loc 1 39 36 discriminator 3 view .LVU495
 1554              	.LBE391:
 1555              	.LBE390:
 1556              		.loc 1 49 5 is_stmt 0 discriminator 3 view .LVU496
 1557 0054 0121     		movs	r1, #1
 1558              	.LBB393:
 1559              	.LBB392:
 1560              		.loc 1 39 36 discriminator 3 view .LVU497
 1561 0056 6683     		strh	r6, [r4, #26]	@ movhi
 1562              	.LBE392:
 1563              	.LBE393:
 1564              		.loc 1 48 5 is_stmt 1 discriminator 3 view .LVU498
 1565              		.loc 1 49 5 is_stmt 0 discriminator 3 view .LVU499
 1566 0058 3846     		mov	r0, r7
 1567              		.loc 1 48 5 discriminator 3 view .LVU500
 1568 005a 6583     		strh	r5, [r4, #26]	@ movhi
 1569              		.loc 1 49 5 is_stmt 1 discriminator 3 view .LVU501
 1570              	.LBE394:
 1571              	.LBE388:
 1572              		.loc 1 136 33 is_stmt 0 discriminator 3 view .LVU502
 1573 005c 5FFA88F8 		uxtb	r8, r8
 1574              	.LBB396:
 1575              	.LBB395:
 1576              		.loc 1 49 5 discriminator 3 view .LVU503
 1577 0060 FFF7FEFF 		bl	spiSend
 1578              	.LVL98:
 1579              		.loc 1 50 5 is_stmt 1 discriminator 3 view .LVU504
 1580 0064 2123     		movs	r3, #33
 1581 0066 2583     		strh	r5, [r4, #24]	@ movhi
 1582              	.LVL99:
 1583              		.loc 1 50 5 is_stmt 0 discriminator 3 view .LVU505
 1584              	.LBE395:
 1585              	.LBE396:
 1586              		.loc 1 140 9 is_stmt 1 discriminator 3 view .LVU506
 1587              	.LBB397:
 1588              	.LBB398:
 1589              		.loc 1 49 5 is_stmt 0 discriminator 3 view .LVU507
 1590 0068 0DF10702 		add	r2, sp, #7
 1591 006c 8DF80730 		strb	r3, [sp, #7]
 1592              	.LVL100:
 1593              		.loc 1 49 5 discriminator 3 view .LVU508
 1594              	.LBE398:
 1595              	.LBI397:
 1596              		.loc 1 46 13 is_stmt 1 discriminator 3 view .LVU509
ARM GAS  C:\Users\DEVELO~1\AppData\Local\Temp\ccbvHO3g.s 			page 29


 1597              	.LBB403:
 1598              		.loc 1 47 5 discriminator 3 view .LVU510
 1599              	.LBB399:
 1600              	.LBI399:
 1601              		.loc 1 39 20 discriminator 3 view .LVU511
 1602              	.LBB400:
 1603              		.loc 1 39 36 discriminator 3 view .LVU512
 1604              	.LBE400:
 1605              	.LBE399:
 1606              		.loc 1 49 5 is_stmt 0 discriminator 3 view .LVU513
 1607 0070 0121     		movs	r1, #1
 1608              	.LBB402:
 1609              	.LBB401:
 1610              		.loc 1 39 36 discriminator 3 view .LVU514
 1611 0072 6683     		strh	r6, [r4, #26]	@ movhi
 1612              	.LBE401:
 1613              	.LBE402:
 1614              		.loc 1 48 5 is_stmt 1 discriminator 3 view .LVU515
 1615              		.loc 1 49 5 is_stmt 0 discriminator 3 view .LVU516
 1616 0074 3846     		mov	r0, r7
 1617              		.loc 1 48 5 discriminator 3 view .LVU517
 1618 0076 6583     		strh	r5, [r4, #26]	@ movhi
 1619              		.loc 1 49 5 is_stmt 1 discriminator 3 view .LVU518
 1620 0078 FFF7FEFF 		bl	spiSend
 1621              	.LVL101:
 1622              		.loc 1 50 5 discriminator 3 view .LVU519
 1623 007c 2583     		strh	r5, [r4, #24]	@ movhi
 1624              	.LVL102:
 1625              		.loc 1 50 5 is_stmt 0 discriminator 3 view .LVU520
 1626              	.LBE403:
 1627              	.LBE397:
 1628              		.loc 1 140 25 is_stmt 1 discriminator 3 view .LVU521
 1629              	.LBB404:
 1630              	.LBB405:
 1631              		.loc 1 49 5 is_stmt 0 discriminator 3 view .LVU522
 1632 007e 0DF10702 		add	r2, sp, #7
 1633 0082 8DF807A0 		strb	r10, [sp, #7]
 1634              	.LVL103:
 1635              		.loc 1 49 5 discriminator 3 view .LVU523
 1636              	.LBE405:
 1637              	.LBI404:
 1638              		.loc 1 46 13 is_stmt 1 discriminator 3 view .LVU524
 1639              	.LBB410:
 1640              		.loc 1 47 5 discriminator 3 view .LVU525
 1641              	.LBB406:
 1642              	.LBI406:
 1643              		.loc 1 39 20 discriminator 3 view .LVU526
 1644              	.LBB407:
 1645              		.loc 1 39 36 discriminator 3 view .LVU527
 1646              	.LBE407:
 1647              	.LBE406:
 1648              		.loc 1 49 5 is_stmt 0 discriminator 3 view .LVU528
 1649 0086 0121     		movs	r1, #1
 1650              	.LBB409:
 1651              	.LBB408:
 1652              		.loc 1 39 36 discriminator 3 view .LVU529
 1653 0088 6683     		strh	r6, [r4, #26]	@ movhi
ARM GAS  C:\Users\DEVELO~1\AppData\Local\Temp\ccbvHO3g.s 			page 30


 1654              	.LBE408:
 1655              	.LBE409:
 1656              		.loc 1 48 5 is_stmt 1 discriminator 3 view .LVU530
 1657              		.loc 1 49 5 is_stmt 0 discriminator 3 view .LVU531
 1658 008a 3846     		mov	r0, r7
 1659              		.loc 1 48 5 discriminator 3 view .LVU532
 1660 008c 6583     		strh	r5, [r4, #26]	@ movhi
 1661              		.loc 1 49 5 is_stmt 1 discriminator 3 view .LVU533
 1662 008e FFF7FEFF 		bl	spiSend
 1663              	.LVL104:
 1664              		.loc 1 50 5 discriminator 3 view .LVU534
 1665 0092 7F23     		movs	r3, #127
 1666 0094 2583     		strh	r5, [r4, #24]	@ movhi
 1667              	.LVL105:
 1668              		.loc 1 50 5 is_stmt 0 discriminator 3 view .LVU535
 1669              	.LBE410:
 1670              	.LBE404:
 1671              		.loc 1 140 41 is_stmt 1 discriminator 3 view .LVU536
 1672              	.LBB411:
 1673              	.LBB412:
 1674              		.loc 1 49 5 is_stmt 0 discriminator 3 view .LVU537
 1675 0096 0DF10702 		add	r2, sp, #7
 1676 009a 8DF80730 		strb	r3, [sp, #7]
 1677              	.LVL106:
 1678              		.loc 1 49 5 discriminator 3 view .LVU538
 1679              	.LBE412:
 1680              	.LBI411:
 1681              		.loc 1 46 13 is_stmt 1 discriminator 3 view .LVU539
 1682              	.LBB417:
 1683              		.loc 1 47 5 discriminator 3 view .LVU540
 1684              	.LBB413:
 1685              	.LBI413:
 1686              		.loc 1 39 20 discriminator 3 view .LVU541
 1687              	.LBB414:
 1688              		.loc 1 39 36 discriminator 3 view .LVU542
 1689              	.LBE414:
 1690              	.LBE413:
 1691              		.loc 1 49 5 is_stmt 0 discriminator 3 view .LVU543
 1692 009e 0121     		movs	r1, #1
 1693              	.LBB416:
 1694              	.LBB415:
 1695              		.loc 1 39 36 discriminator 3 view .LVU544
 1696 00a0 6683     		strh	r6, [r4, #26]	@ movhi
 1697              	.LBE415:
 1698              	.LBE416:
 1699              		.loc 1 48 5 is_stmt 1 discriminator 3 view .LVU545
 1700              		.loc 1 49 5 is_stmt 0 discriminator 3 view .LVU546
 1701 00a2 3846     		mov	r0, r7
 1702              		.loc 1 48 5 discriminator 3 view .LVU547
 1703 00a4 6583     		strh	r5, [r4, #26]	@ movhi
 1704              		.loc 1 49 5 is_stmt 1 discriminator 3 view .LVU548
 1705 00a6 FFF7FEFF 		bl	spiSend
 1706              	.LVL107:
 1707              		.loc 1 50 5 discriminator 3 view .LVU549
 1708              	.LBE417:
 1709              	.LBE411:
 1710              	.LBB419:
ARM GAS  C:\Users\DEVELO~1\AppData\Local\Temp\ccbvHO3g.s 			page 31


 1711              	.LBB420:
 1712              		.loc 1 56 5 is_stmt 0 discriminator 3 view .LVU550
 1713 00aa 8021     		movs	r1, #128
 1714              	.LBE420:
 1715              	.LBE419:
 1716              	.LBB428:
 1717              	.LBB418:
 1718              		.loc 1 50 5 discriminator 3 view .LVU551
 1719 00ac 2583     		strh	r5, [r4, #24]	@ movhi
 1720              	.LVL108:
 1721              		.loc 1 50 5 discriminator 3 view .LVU552
 1722              	.LBE418:
 1723              	.LBE428:
 1724              		.loc 1 141 9 is_stmt 1 discriminator 3 view .LVU553
 1725              	.LBB429:
 1726              	.LBI419:
 1727              		.loc 1 53 13 discriminator 3 view .LVU554
 1728              	.LBB425:
 1729              		.loc 1 54 5 discriminator 3 view .LVU555
 1730              	.LBB421:
 1731              	.LBI421:
 1732              		.loc 1 40 20 discriminator 3 view .LVU556
 1733              	.LBB422:
 1734              		.loc 1 40 36 discriminator 3 view .LVU557
 1735              	.LBE422:
 1736              	.LBE421:
 1737              		.loc 1 56 5 is_stmt 0 discriminator 3 view .LVU558
 1738 00ae 4A46     		mov	r2, r9
 1739              	.LBB424:
 1740              	.LBB423:
 1741              		.loc 1 40 36 discriminator 3 view .LVU559
 1742 00b0 2683     		strh	r6, [r4, #24]	@ movhi
 1743              	.LBE423:
 1744              	.LBE424:
 1745              		.loc 1 55 5 is_stmt 1 discriminator 3 view .LVU560
 1746              		.loc 1 56 5 is_stmt 0 discriminator 3 view .LVU561
 1747 00b2 3846     		mov	r0, r7
 1748              		.loc 1 55 5 discriminator 3 view .LVU562
 1749 00b4 6583     		strh	r5, [r4, #26]	@ movhi
 1750              		.loc 1 56 5 is_stmt 1 discriminator 3 view .LVU563
 1751              	.LBE425:
 1752              	.LBE429:
 1753              		.loc 1 136 33 is_stmt 0 discriminator 3 view .LVU564
 1754 00b6 8944     		add	r9, r9, r1
 1755              	.LVL109:
 1756              	.LBB430:
 1757              	.LBB426:
 1758              		.loc 1 56 5 discriminator 3 view .LVU565
 1759 00b8 FFF7FEFF 		bl	spiSend
 1760              	.LVL110:
 1761              		.loc 1 57 5 is_stmt 1 discriminator 3 view .LVU566
 1762              	.LBE426:
 1763              	.LBE430:
 1764              		.loc 1 136 33 is_stmt 0 discriminator 3 view .LVU567
 1765 00bc B8F1B80F 		cmp	r8, #184
 1766              	.LBB431:
 1767              	.LBB427:
ARM GAS  C:\Users\DEVELO~1\AppData\Local\Temp\ccbvHO3g.s 			page 32


 1768              		.loc 1 57 5 discriminator 3 view .LVU568
 1769 00c0 2583     		strh	r5, [r4, #24]	@ movhi
 1770              	.LVL111:
 1771              		.loc 1 57 5 discriminator 3 view .LVU569
 1772              	.LBE427:
 1773              	.LBE431:
 1774              		.loc 1 136 42 is_stmt 1 discriminator 3 view .LVU570
 1775              		.loc 1 136 33 discriminator 3 view .LVU571
 1776 00c2 A6D1     		bne	.L13
 1777              	.LBE432:
 1778              		.loc 1 143 1 is_stmt 0 view .LVU572
 1779 00c4 02B0     		add	sp, sp, #8
 1780              		.cfi_def_cfa_offset 32
 1781              		@ sp needed
 1782 00c6 BDE8F087 		pop	{r4, r5, r6, r7, r8, r9, r10, pc}
 1783              	.L17:
 1784 00ca 00BF     		.align	2
 1785              	.L16:
 1786 00cc 00200258 		.word	1476534272
 1787 00d0 00000000 		.word	SPID5
 1788 00d4 00000000 		.word	.LANCHOR0
 1789              		.cfi_endproc
 1790              	.LFE459:
 1791              		.size	drv_display_update, .-drv_display_update
 1792              		.section	.rodata.displayThread.str1.4,"aMS",%progbits,1
 1793              		.align	2
 1794              	.LC0:
 1795 0000 44697370 		.ascii	"Display\000"
 1795      6C617900 
 1796              		.section	.text.displayThread,"ax",%progbits
 1797              		.align	1
 1798              		.p2align 2,,3
 1799              		.syntax unified
 1800              		.thumb
 1801              		.thumb_func
 1802              		.type	displayThread, %function
 1803              	displayThread:
 1804              	.LVL112:
 1805              	.LFB467:
 1806              		.loc 1 226 41 is_stmt 1 view -0
 1807              		.cfi_startproc
 1808              		@ Volatile: function does not return.
 1809              		@ args = 0, pretend = 0, frame = 0
 1810              		@ frame_needed = 0, uses_anonymous_args = 0
 1811              		.loc 1 227 5 view .LVU574
 1812              		.loc 1 228 5 view .LVU575
 1813              	.LBB433:
 1814              	.LBI433:
 1815              		.file 2 "../../../os/rt/include/chregistry.h"
 1816              		.loc 2 166 20 view .LVU576
 1817              	.LBB434:
 1818              		.loc 2 169 3 view .LVU577
 1819              	.LBE434:
 1820              	.LBE433:
 1821              		.loc 1 226 41 is_stmt 0 view .LVU578
 1822 0000 08B5     		push	{r3, lr}
 1823              		.cfi_def_cfa_offset 8
ARM GAS  C:\Users\DEVELO~1\AppData\Local\Temp\ccbvHO3g.s 			page 33


 1824              		.cfi_offset 3, -8
 1825              		.cfi_offset 14, -4
 1826              	.LBB436:
 1827              	.LBB435:
 1828              		.loc 2 169 3 view .LVU579
 1829 0002 054B     		ldr	r3, .L21
 1830              		.loc 2 169 32 view .LVU580
 1831 0004 054A     		ldr	r2, .L21+4
 1832 0006 DB68     		ldr	r3, [r3, #12]
 1833 0008 1A62     		str	r2, [r3, #32]
 1834              	.LVL113:
 1835              	.L19:
 1836              		.loc 2 169 32 view .LVU581
 1837              	.LBE435:
 1838              	.LBE436:
 1839              		.loc 1 230 5 is_stmt 1 discriminator 1 view .LVU582
 1840              		.loc 1 231 9 discriminator 1 view .LVU583
 1841 000a FFF7FEFF 		bl	drv_display_update
 1842              	.LVL114:
 1843              		.loc 1 232 9 discriminator 1 view .LVU584
 1844 000e 4FF4A570 		mov	r0, #330
 1845 0012 FFF7FEFF 		bl	chThdSleep
 1846              	.LVL115:
 1847              		.loc 1 230 11 discriminator 1 view .LVU585
 1848 0016 F8E7     		b	.L19
 1849              	.L22:
 1850              		.align	2
 1851              	.L21:
 1852 0018 00000000 		.word	ch0
 1853 001c 00000000 		.word	.LC0
 1854              		.cfi_endproc
 1855              	.LFE467:
 1856              		.size	displayThread, .-displayThread
 1857              		.section	.text.drv_display_set_font,"ax",%progbits
 1858              		.align	1
 1859              		.p2align 2,,3
 1860              		.global	drv_display_set_font
 1861              		.syntax unified
 1862              		.thumb
 1863              		.thumb_func
 1864              		.type	drv_display_set_font, %function
 1865              	drv_display_set_font:
 1866              	.LVL116:
 1867              	.LFB460:
 1868              		.loc 1 149 47 view -0
 1869              		.cfi_startproc
 1870              		@ args = 0, pretend = 0, frame = 0
 1871              		@ frame_needed = 0, uses_anonymous_args = 0
 1872              		@ link register save eliminated.
 1873              		.loc 1 150 5 view .LVU587
 1874              		.loc 1 150 18 is_stmt 0 view .LVU588
 1875 0000 014B     		ldr	r3, .L24
 1876 0002 1860     		str	r0, [r3]
 1877              		.loc 1 151 1 view .LVU589
 1878 0004 7047     		bx	lr
 1879              	.L25:
 1880 0006 00BF     		.align	2
ARM GAS  C:\Users\DEVELO~1\AppData\Local\Temp\ccbvHO3g.s 			page 34


 1881              	.L24:
 1882 0008 00000000 		.word	.LANCHOR2
 1883              		.cfi_endproc
 1884              	.LFE460:
 1885              		.size	drv_display_set_font, .-drv_display_set_font
 1886              		.section	.text.drv_display_draw_char,"ax",%progbits
 1887              		.align	1
 1888              		.p2align 2,,3
 1889              		.global	drv_display_draw_char
 1890              		.syntax unified
 1891              		.thumb
 1892              		.thumb_func
 1893              		.type	drv_display_draw_char, %function
 1894              	drv_display_draw_char:
 1895              	.LVL117:
 1896              	.LFB462:
 1897              		.loc 1 157 58 is_stmt 1 view -0
 1898              		.cfi_startproc
 1899              		@ args = 0, pretend = 0, frame = 0
 1900              		@ frame_needed = 0, uses_anonymous_args = 0
 1901              		.loc 1 159 5 view .LVU591
 1902              		.loc 1 157 58 is_stmt 0 view .LVU592
 1903 0000 2DE9F84F 		push	{r3, r4, r5, r6, r7, r8, r9, r10, fp, lr}
 1904              		.cfi_def_cfa_offset 40
 1905              		.cfi_offset 3, -40
 1906              		.cfi_offset 4, -36
 1907              		.cfi_offset 5, -32
 1908              		.cfi_offset 6, -28
 1909              		.cfi_offset 7, -24
 1910              		.cfi_offset 8, -20
 1911              		.cfi_offset 9, -16
 1912              		.cfi_offset 10, -12
 1913              		.cfi_offset 11, -8
 1914              		.cfi_offset 14, -4
 1915              		.loc 1 159 9 view .LVU593
 1916 0004 2C4B     		ldr	r3, .L45
 1917 0006 D3F800B0 		ldr	fp, [r3]
 1918              		.loc 1 159 8 view .LVU594
 1919 000a BBF1000F 		cmp	fp, #0
 1920 000e 4DD0     		beq	.L26
 1921              		.loc 1 161 8 view .LVU595
 1922 0010 9BF80630 		ldrb	r3, [fp, #6]	@ zero_extendqisi2
 1923 0014 0E46     		mov	r6, r1
 1924 0016 9246     		mov	r10, r2
 1925              		.loc 1 161 5 is_stmt 1 view .LVU596
 1926              		.loc 1 161 8 is_stmt 0 view .LVU597
 1927 0018 9342     		cmp	r3, r2
 1928 001a 49D8     		bhi	.L35
 1929              		.loc 1 161 42 discriminator 1 view .LVU598
 1930 001c 9BF80730 		ldrb	r3, [fp, #7]	@ zero_extendqisi2
 1931              		.loc 1 162 11 discriminator 1 view .LVU599
 1932 0020 9342     		cmp	r3, r2
 1933 0022 38BF     		it	cc
 1934 0024 4FF03F0A 		movcc	r10, #63
 1935              	.L28:
 1936              	.LVL118:
 1937              		.loc 1 164 5 is_stmt 1 view .LVU600
ARM GAS  C:\Users\DEVELO~1\AppData\Local\Temp\ccbvHO3g.s 			page 35


 1938              	.LBB442:
 1939              		.loc 1 164 10 view .LVU601
 1940              		.loc 1 164 31 view .LVU602
 1941 0028 9BF80430 		ldrb	r3, [fp, #4]	@ zero_extendqisi2
 1942 002c 002B     		cmp	r3, #0
 1943 002e 3DD0     		beq	.L26
 1944 0030 0025     		movs	r5, #0
 1945 0032 B046     		mov	r8, r6
 1946              	.LBB443:
 1947              	.LBB444:
 1948              	.LBB445:
 1949              	.LBB446:
 1950              		.loc 1 78 27 is_stmt 0 view .LVU603
 1951 0034 214F     		ldr	r7, .L45+4
 1952              		.loc 1 76 39 view .LVU604
 1953 0036 4FF00109 		mov	r9, #1
 1954 003a 2C46     		mov	r4, r5
 1955 003c 2E46     		mov	r6, r5
 1956 003e 0546     		mov	r5, r0
 1957              	.LVL119:
 1958              	.L31:
 1959              		.loc 1 76 39 view .LVU605
 1960              	.LBE446:
 1961              	.LBE445:
 1962              	.LBE444:
 1963              		.loc 1 165 9 is_stmt 1 view .LVU606
 1964              		.loc 1 165 24 is_stmt 0 view .LVU607
 1965 0040 DBF80C30 		ldr	r3, [fp, #12]
 1966 0044 2146     		mov	r1, r4
 1967 0046 5046     		mov	r0, r10
 1968 0048 9847     		blx	r3
 1969              	.LVL120:
 1970              	.LBB453:
 1971              		.loc 1 166 49 view .LVU608
 1972 004a 1B4B     		ldr	r3, .L45
 1973 004c D3F800B0 		ldr	fp, [r3]
 1974              	.LVL121:
 1975              		.loc 1 166 49 view .LVU609
 1976              	.LBE453:
 1977              		.loc 1 166 9 is_stmt 1 view .LVU610
 1978              	.LBB454:
 1979              		.loc 1 166 14 view .LVU611
 1980              		.loc 1 166 35 view .LVU612
 1981 0050 9BF805C0 		ldrb	ip, [fp, #5]	@ zero_extendqisi2
 1982 0054 BCF1000F 		cmp	ip, #0
 1983 0058 22D0     		beq	.L34
 1984              		.loc 1 167 17 is_stmt 0 view .LVU613
 1985 005a 0022     		movs	r2, #0
 1986              		.loc 1 168 17 view .LVU614
 1987 005c 6119     		adds	r1, r4, r5
 1988 005e 1346     		mov	r3, r2
 1989 0060 02E0     		b	.L33
 1990              	.LVL122:
 1991              	.L32:
 1992              		.loc 1 166 35 discriminator 2 view .LVU615
 1993 0062 D3B2     		uxtb	r3, r2
 1994 0064 9C45     		cmp	ip, r3
ARM GAS  C:\Users\DEVELO~1\AppData\Local\Temp\ccbvHO3g.s 			page 36


 1995 0066 1BD9     		bls	.L34
 1996              	.L33:
 1997              	.LVL123:
 1998              		.loc 1 167 13 is_stmt 1 view .LVU616
 1999              		.loc 1 166 62 view .LVU617
 2000              		.loc 1 166 35 view .LVU618
 2001              		.loc 1 167 17 is_stmt 0 view .LVU619
 2002 0068 20FA03F4 		lsr	r4, r0, r3
 2003              		.loc 1 166 35 view .LVU620
 2004 006c 0132     		adds	r2, r2, #1
 2005              	.LVL124:
 2006              		.loc 1 167 16 view .LVU621
 2007 006e E407     		lsls	r4, r4, #31
 2008 0070 F7D5     		bpl	.L32
 2009              		.loc 1 168 17 is_stmt 1 view .LVU622
 2010              	.LBB450:
 2011              	.LBB447:
 2012              		.loc 1 75 5 view .LVU623
 2013              	.LBE447:
 2014              	.LBE450:
 2015              		.loc 1 168 17 is_stmt 0 view .LVU624
 2016 0072 4344     		add	r3, r3, r8
 2017              	.LVL125:
 2018              	.LBB451:
 2019              	.LBI445:
 2020              		.loc 1 72 20 is_stmt 1 view .LVU625
 2021              	.LBB448:
 2022              		.loc 1 73 5 view .LVU626
 2023              		.loc 1 73 49 is_stmt 0 view .LVU627
 2024 0074 7F29     		cmp	r1, #127
 2025              		.loc 1 75 30 view .LVU628
 2026 0076 4FEAE30E 		asr	lr, r3, #3
 2027              		.loc 1 76 45 view .LVU629
 2028 007a 03F00704 		and	r4, r3, #7
 2029              		.loc 1 73 49 view .LVU630
 2030 007e F0D8     		bhi	.L32
 2031 0080 3F2B     		cmp	r3, #63
 2032              		.loc 1 75 15 view .LVU631
 2033 0082 01EBCE1E 		add	lr, r1, lr, lsl #7
 2034              	.LVL126:
 2035              		.loc 1 76 5 is_stmt 1 view .LVU632
 2036              		.loc 1 78 5 view .LVU633
 2037              		.loc 1 78 13 view .LVU634
 2038              		.loc 1 76 39 is_stmt 0 view .LVU635
 2039 0086 09FA04F4 		lsl	r4, r9, r4
 2040              		.loc 1 73 49 view .LVU636
 2041 008a EADC     		bgt	.L32
 2042              		.loc 1 78 27 view .LVU637
 2043 008c 17F80E30 		ldrb	r3, [r7, lr]	@ zero_extendqisi2
 2044              	.LVL127:
 2045              		.loc 1 78 27 view .LVU638
 2046 0090 1C43     		orrs	r4, r4, r3
 2047              	.LBE448:
 2048              	.LBE451:
 2049              		.loc 1 166 35 view .LVU639
 2050 0092 D3B2     		uxtb	r3, r2
 2051              	.LBB452:
ARM GAS  C:\Users\DEVELO~1\AppData\Local\Temp\ccbvHO3g.s 			page 37


 2052              	.LBB449:
 2053              		.loc 1 78 27 view .LVU640
 2054 0094 07F80E40 		strb	r4, [r7, lr]
 2055 0098 9BF805C0 		ldrb	ip, [fp, #5]	@ zero_extendqisi2
 2056              	.LBE449:
 2057              	.LBE452:
 2058              		.loc 1 166 35 view .LVU641
 2059 009c 9C45     		cmp	ip, r3
 2060 009e E3D8     		bhi	.L33
 2061              	.LVL128:
 2062              	.L34:
 2063              		.loc 1 166 35 view .LVU642
 2064              	.LBE454:
 2065              	.LBE443:
 2066              		.loc 1 164 57 is_stmt 1 view .LVU643
 2067              		.loc 1 164 31 view .LVU644
 2068 00a0 0136     		adds	r6, r6, #1
 2069              	.LVL129:
 2070              		.loc 1 164 31 is_stmt 0 view .LVU645
 2071 00a2 9BF80430 		ldrb	r3, [fp, #4]	@ zero_extendqisi2
 2072 00a6 F4B2     		uxtb	r4, r6
 2073 00a8 A342     		cmp	r3, r4
 2074 00aa C9D8     		bhi	.L31
 2075              	.LVL130:
 2076              	.L26:
 2077              		.loc 1 164 31 view .LVU646
 2078              	.LBE442:
 2079              		.loc 1 171 1 view .LVU647
 2080 00ac BDE8F88F 		pop	{r3, r4, r5, r6, r7, r8, r9, r10, fp, pc}
 2081              	.LVL131:
 2082              	.L35:
 2083              		.loc 1 162 11 view .LVU648
 2084 00b0 4FF03F0A 		mov	r10, #63
 2085 00b4 B8E7     		b	.L28
 2086              	.L46:
 2087 00b6 00BF     		.align	2
 2088              	.L45:
 2089 00b8 00000000 		.word	.LANCHOR2
 2090 00bc 00000000 		.word	.LANCHOR0
 2091              		.cfi_endproc
 2092              	.LFE462:
 2093              		.size	drv_display_draw_char, .-drv_display_draw_char
 2094              		.section	.text.drv_display_draw_text,"ax",%progbits
 2095              		.align	1
 2096              		.p2align 2,,3
 2097              		.global	drv_display_draw_text
 2098              		.syntax unified
 2099              		.thumb
 2100              		.thumb_func
 2101              		.type	drv_display_draw_text, %function
 2102              	drv_display_draw_text:
 2103              	.LVL132:
 2104              	.LFB463:
 2105              		.loc 1 173 67 is_stmt 1 view -0
 2106              		.cfi_startproc
 2107              		@ args = 0, pretend = 0, frame = 0
 2108              		@ frame_needed = 0, uses_anonymous_args = 0
ARM GAS  C:\Users\DEVELO~1\AppData\Local\Temp\ccbvHO3g.s 			page 38


 2109              		.loc 1 175 5 view .LVU650
 2110              		.loc 1 173 67 is_stmt 0 view .LVU651
 2111 0000 F8B5     		push	{r3, r4, r5, r6, r7, lr}
 2112              		.cfi_def_cfa_offset 24
 2113              		.cfi_offset 3, -24
 2114              		.cfi_offset 4, -20
 2115              		.cfi_offset 5, -16
 2116              		.cfi_offset 6, -12
 2117              		.cfi_offset 7, -8
 2118              		.cfi_offset 14, -4
 2119              		.loc 1 175 9 view .LVU652
 2120 0002 0D4B     		ldr	r3, .L60
 2121 0004 1B68     		ldr	r3, [r3]
 2122              		.loc 1 175 23 view .LVU653
 2123 0006 AAB1     		cbz	r2, .L47
 2124 0008 A3B1     		cbz	r3, .L47
 2125              		.loc 1 177 5 is_stmt 1 view .LVU654
 2126              	.LVL133:
 2127              	.LBB457:
 2128              	.LBI457:
 2129              		.loc 1 153 23 view .LVU655
 2130              	.LBB458:
 2131              		.loc 1 154 5 view .LVU656
 2132              		.loc 1 154 12 is_stmt 0 view .LVU657
 2133 000a 1E79     		ldrb	r6, [r3, #4]	@ zero_extendqisi2
 2134 000c 1546     		mov	r5, r2
 2135 000e 1B7A     		ldrb	r3, [r3, #8]	@ zero_extendqisi2
 2136              	.LVL134:
 2137              		.loc 1 154 12 view .LVU658
 2138              	.LBE458:
 2139              	.LBE457:
 2140              		.loc 1 179 12 view .LVU659
 2141 0010 1278     		ldrb	r2, [r2]	@ zero_extendqisi2
 2142              	.LVL135:
 2143              	.LBB460:
 2144              	.LBB459:
 2145              		.loc 1 154 12 view .LVU660
 2146 0012 1E44     		add	r6, r6, r3
 2147 0014 F6B2     		uxtb	r6, r6
 2148              	.LVL136:
 2149              		.loc 1 154 12 view .LVU661
 2150              	.LBE459:
 2151              	.LBE460:
 2152              		.loc 1 179 5 is_stmt 1 view .LVU662
 2153              		.loc 1 179 17 view .LVU663
 2154 0016 6AB1     		cbz	r2, .L47
 2155 0018 0446     		mov	r4, r0
 2156 001a 0F46     		mov	r7, r1
 2157 001c 08E0     		b	.L58
 2158              	.LVL137:
 2159              	.L59:
 2160              		.loc 1 180 9 view .LVU664
 2161              		.loc 1 180 9 is_stmt 0 view .LVU665
 2162 001e 2046     		mov	r0, r4
 2163 0020 3946     		mov	r1, r7
 2164              		.loc 1 181 11 view .LVU666
 2165 0022 3444     		add	r4, r4, r6
ARM GAS  C:\Users\DEVELO~1\AppData\Local\Temp\ccbvHO3g.s 			page 39


 2166              	.LVL138:
 2167              		.loc 1 180 9 view .LVU667
 2168 0024 FFF7FEFF 		bl	drv_display_draw_char
 2169              	.LVL139:
 2170              		.loc 1 181 9 is_stmt 1 view .LVU668
 2171              		.loc 1 179 12 is_stmt 0 view .LVU669
 2172 0028 15F8012F 		ldrb	r2, [r5, #1]!	@ zero_extendqisi2
 2173              	.LVL140:
 2174              		.loc 1 181 11 view .LVU670
 2175 002c E4B2     		uxtb	r4, r4
 2176              	.LVL141:
 2177              		.loc 1 179 17 is_stmt 1 view .LVU671
 2178 002e 0AB1     		cbz	r2, .L47
 2179              	.LVL142:
 2180              	.L58:
 2181              		.loc 1 179 17 is_stmt 0 view .LVU672
 2182 0030 2306     		lsls	r3, r4, #24
 2183 0032 F4D5     		bpl	.L59
 2184              	.LVL143:
 2185              	.L47:
 2186              		.loc 1 183 1 view .LVU673
 2187 0034 F8BD     		pop	{r3, r4, r5, r6, r7, pc}
 2188              	.L61:
 2189 0036 00BF     		.align	2
 2190              	.L60:
 2191 0038 00000000 		.word	.LANCHOR2
 2192              		.cfi_endproc
 2193              	.LFE463:
 2194              		.size	drv_display_draw_text, .-drv_display_draw_text
 2195              		.section	.text.drv_display_draw_text_with_font,"ax",%progbits
 2196              		.align	1
 2197              		.p2align 2,,3
 2198              		.global	drv_display_draw_text_with_font
 2199              		.syntax unified
 2200              		.thumb
 2201              		.thumb_func
 2202              		.type	drv_display_draw_text_with_font, %function
 2203              	drv_display_draw_text_with_font:
 2204              	.LVL144:
 2205              	.LFB464:
 2206              		.loc 1 187 55 is_stmt 1 view -0
 2207              		.cfi_startproc
 2208              		@ args = 0, pretend = 0, frame = 0
 2209              		@ frame_needed = 0, uses_anonymous_args = 0
 2210              		.loc 1 189 5 view .LVU675
 2211              		.loc 1 189 8 is_stmt 0 view .LVU676
 2212 0000 68B1     		cbz	r0, .L65
 2213 0002 63B1     		cbz	r3, .L65
 2214 0004 8C46     		mov	ip, r1
 2215 0006 1146     		mov	r1, r2
 2216              	.LVL145:
 2217              		.loc 1 191 5 is_stmt 1 view .LVU677
 2218              		.loc 1 193 5 is_stmt 0 view .LVU678
 2219 0008 1A46     		mov	r2, r3
 2220              	.LVL146:
 2221              		.loc 1 187 55 view .LVU679
 2222 000a 70B5     		push	{r4, r5, r6, lr}
ARM GAS  C:\Users\DEVELO~1\AppData\Local\Temp\ccbvHO3g.s 			page 40


 2223              		.cfi_def_cfa_offset 16
 2224              		.cfi_offset 4, -16
 2225              		.cfi_offset 5, -12
 2226              		.cfi_offset 6, -8
 2227              		.cfi_offset 14, -4
 2228              		.loc 1 191 19 view .LVU680
 2229 000c 044D     		ldr	r5, .L68
 2230 000e 0446     		mov	r4, r0
 2231              		.loc 1 193 5 view .LVU681
 2232 0010 6046     		mov	r0, ip
 2233              	.LVL147:
 2234              		.loc 1 191 19 view .LVU682
 2235 0012 2E68     		ldr	r6, [r5]
 2236              	.LVL148:
 2237              		.loc 1 192 5 is_stmt 1 view .LVU683
 2238              		.loc 1 192 18 is_stmt 0 view .LVU684
 2239 0014 2C60     		str	r4, [r5]
 2240              		.loc 1 193 5 is_stmt 1 view .LVU685
 2241 0016 FFF7FEFF 		bl	drv_display_draw_text
 2242              	.LVL149:
 2243              		.loc 1 194 5 view .LVU686
 2244              		.loc 1 194 18 is_stmt 0 view .LVU687
 2245 001a 2E60     		str	r6, [r5]
 2246              		.loc 1 195 1 view .LVU688
 2247 001c 70BD     		pop	{r4, r5, r6, pc}
 2248              	.LVL150:
 2249              	.L65:
 2250              		.cfi_def_cfa_offset 0
 2251              		.cfi_restore 4
 2252              		.cfi_restore 5
 2253              		.cfi_restore 6
 2254              		.cfi_restore 14
 2255              		.loc 1 195 1 view .LVU689
 2256 001e 7047     		bx	lr
 2257              	.L69:
 2258              		.align	2
 2259              	.L68:
 2260 0020 00000000 		.word	.LANCHOR2
 2261              		.cfi_endproc
 2262              	.LFE464:
 2263              		.size	drv_display_draw_text_with_font, .-drv_display_draw_text_with_font
 2264              		.section	.text.drv_display_draw_text_at_baseline,"ax",%progbits
 2265              		.align	1
 2266              		.p2align 2,,3
 2267              		.global	drv_display_draw_text_at_baseline
 2268              		.syntax unified
 2269              		.thumb
 2270              		.thumb_func
 2271              		.type	drv_display_draw_text_at_baseline, %function
 2272              	drv_display_draw_text_at_baseline:
 2273              	.LVL151:
 2274              	.LFB465:
 2275              		.loc 1 199 57 is_stmt 1 view -0
 2276              		.cfi_startproc
 2277              		@ args = 0, pretend = 0, frame = 0
 2278              		@ frame_needed = 0, uses_anonymous_args = 0
 2279              		.loc 1 201 5 view .LVU691
ARM GAS  C:\Users\DEVELO~1\AppData\Local\Temp\ccbvHO3g.s 			page 41


 2280              		.loc 1 201 8 is_stmt 0 view .LVU692
 2281 0000 D8B1     		cbz	r0, .L75
 2282 0002 B3FA83FC 		clz	ip, r3
 2283 0006 4FEA5C1C 		lsr	ip, ip, #5
 2284 000a B3B1     		cbz	r3, .L75
 2285              		.loc 1 199 57 view .LVU693
 2286 000c 38B5     		push	{r3, r4, r5, lr}
 2287              		.cfi_def_cfa_offset 16
 2288              		.cfi_offset 3, -16
 2289              		.cfi_offset 4, -12
 2290              		.cfi_offset 5, -8
 2291              		.cfi_offset 14, -4
 2292 000e 8E46     		mov	lr, r1
 2293              		.loc 1 203 5 is_stmt 1 view .LVU694
 2294              		.loc 1 206 36 is_stmt 0 view .LVU695
 2295 0010 4179     		ldrb	r1, [r0, #5]	@ zero_extendqisi2
 2296              	.LVL152:
 2297              		.loc 1 203 19 view .LVU696
 2298 0012 0A4C     		ldr	r4, .L79
 2299              		.loc 1 206 13 view .LVU697
 2300 0014 9142     		cmp	r1, r2
 2301              		.loc 1 203 19 view .LVU698
 2302 0016 2568     		ldr	r5, [r4]
 2303              	.LVL153:
 2304              		.loc 1 204 5 is_stmt 1 view .LVU699
 2305              		.loc 1 204 18 is_stmt 0 view .LVU700
 2306 0018 2060     		str	r0, [r4]
 2307              		.loc 1 206 5 is_stmt 1 view .LVU701
 2308              		.loc 1 206 13 is_stmt 0 view .LVU702
 2309 001a 06D9     		bls	.L78
 2310 001c 6146     		mov	r1, ip
 2311              	.LVL154:
 2312              		.loc 1 210 5 is_stmt 1 view .LVU703
 2313 001e 1A46     		mov	r2, r3
 2314              	.LVL155:
 2315              		.loc 1 210 5 is_stmt 0 view .LVU704
 2316 0020 7046     		mov	r0, lr
 2317              	.LVL156:
 2318              		.loc 1 210 5 view .LVU705
 2319 0022 FFF7FEFF 		bl	drv_display_draw_text
 2320              	.LVL157:
 2321              		.loc 1 211 5 is_stmt 1 view .LVU706
 2322              		.loc 1 211 18 is_stmt 0 view .LVU707
 2323 0026 2560     		str	r5, [r4]
 2324              		.loc 1 212 1 view .LVU708
 2325 0028 38BD     		pop	{r3, r4, r5, pc}
 2326              	.LVL158:
 2327              	.L78:
 2328              		.loc 1 206 13 discriminator 1 view .LVU709
 2329 002a 521A     		subs	r2, r2, r1
 2330              	.LVL159:
 2331              		.loc 1 210 5 discriminator 1 view .LVU710
 2332 002c 7046     		mov	r0, lr
 2333              	.LVL160:
 2334              		.loc 1 206 13 discriminator 1 view .LVU711
 2335 002e D1B2     		uxtb	r1, r2
 2336              	.LVL161:
ARM GAS  C:\Users\DEVELO~1\AppData\Local\Temp\ccbvHO3g.s 			page 42


 2337              		.loc 1 210 5 is_stmt 1 discriminator 1 view .LVU712
 2338 0030 1A46     		mov	r2, r3
 2339 0032 FFF7FEFF 		bl	drv_display_draw_text
 2340              	.LVL162:
 2341              		.loc 1 211 5 discriminator 1 view .LVU713
 2342              		.loc 1 211 18 is_stmt 0 discriminator 1 view .LVU714
 2343 0036 2560     		str	r5, [r4]
 2344              		.loc 1 212 1 discriminator 1 view .LVU715
 2345 0038 38BD     		pop	{r3, r4, r5, pc}
 2346              	.LVL163:
 2347              	.L75:
 2348              		.cfi_def_cfa_offset 0
 2349              		.cfi_restore 3
 2350              		.cfi_restore 4
 2351              		.cfi_restore 5
 2352              		.cfi_restore 14
 2353              		.loc 1 212 1 discriminator 1 view .LVU716
 2354 003a 7047     		bx	lr
 2355              	.L80:
 2356              		.align	2
 2357              	.L79:
 2358 003c 00000000 		.word	.LANCHOR2
 2359              		.cfi_endproc
 2360              	.LFE465:
 2361              		.size	drv_display_draw_text_at_baseline, .-drv_display_draw_text_at_baseline
 2362              		.section	.rodata.drv_display_draw_number.str1.4,"aMS",%progbits,1
 2363              		.align	2
 2364              	.LC1:
 2365 0000 25642020 		.ascii	"%d   \000"
 2365      2000
 2366              		.section	.text.drv_display_draw_number,"ax",%progbits
 2367              		.align	1
 2368              		.p2align 2,,3
 2369              		.global	drv_display_draw_number
 2370              		.syntax unified
 2371              		.thumb
 2372              		.thumb_func
 2373              		.type	drv_display_draw_number, %function
 2374              	drv_display_draw_number:
 2375              	.LVL164:
 2376              	.LFB466:
 2377              		.loc 1 214 61 is_stmt 1 view -0
 2378              		.cfi_startproc
 2379              		@ args = 0, pretend = 0, frame = 16
 2380              		@ frame_needed = 0, uses_anonymous_args = 0
 2381              		.loc 1 215 5 view .LVU718
 2382              		.loc 1 216 5 view .LVU719
 2383              		.loc 1 214 61 is_stmt 0 view .LVU720
 2384 0000 F0B5     		push	{r4, r5, r6, r7, lr}
 2385              		.cfi_def_cfa_offset 20
 2386              		.cfi_offset 4, -20
 2387              		.cfi_offset 5, -16
 2388              		.cfi_offset 6, -12
 2389              		.cfi_offset 7, -8
 2390              		.cfi_offset 14, -4
 2391 0002 85B0     		sub	sp, sp, #20
 2392              		.cfi_def_cfa_offset 40
ARM GAS  C:\Users\DEVELO~1\AppData\Local\Temp\ccbvHO3g.s 			page 43


 2393              		.loc 1 214 61 view .LVU721
 2394 0004 1346     		mov	r3, r2
 2395 0006 0446     		mov	r4, r0
 2396              		.loc 1 216 5 view .LVU722
 2397 0008 104A     		ldr	r2, .L96
 2398              	.LVL165:
 2399              		.loc 1 214 61 view .LVU723
 2400 000a 0F46     		mov	r7, r1
 2401              		.loc 1 216 5 view .LVU724
 2402 000c 6846     		mov	r0, sp
 2403              	.LVL166:
 2404              		.loc 1 216 5 view .LVU725
 2405 000e 1021     		movs	r1, #16
 2406              	.LVL167:
 2407              		.loc 1 216 5 view .LVU726
 2408 0010 FFF7FEFF 		bl	snprintf
 2409              	.LVL168:
 2410              		.loc 1 217 5 is_stmt 1 view .LVU727
 2411              	.LBB465:
 2412              	.LBI465:
 2413              		.loc 1 173 6 view .LVU728
 2414              	.LBB466:
 2415              		.loc 1 175 5 view .LVU729
 2416              		.loc 1 175 9 is_stmt 0 view .LVU730
 2417 0014 0E4B     		ldr	r3, .L96+4
 2418 0016 1B68     		ldr	r3, [r3]
 2419              		.loc 1 175 8 view .LVU731
 2420 0018 B3B1     		cbz	r3, .L81
 2421              		.loc 1 177 5 is_stmt 1 view .LVU732
 2422              	.LVL169:
 2423              	.LBB467:
 2424              	.LBI467:
 2425              		.loc 1 153 23 view .LVU733
 2426              	.LBB468:
 2427              		.loc 1 154 5 view .LVU734
 2428              		.loc 1 154 12 is_stmt 0 view .LVU735
 2429 001a 1E79     		ldrb	r6, [r3, #4]	@ zero_extendqisi2
 2430 001c 1B7A     		ldrb	r3, [r3, #8]	@ zero_extendqisi2
 2431              	.LVL170:
 2432              		.loc 1 154 12 view .LVU736
 2433              	.LBE468:
 2434              	.LBE467:
 2435              		.loc 1 179 12 view .LVU737
 2436 001e 9DF80020 		ldrb	r2, [sp]	@ zero_extendqisi2
 2437              	.LBB470:
 2438              	.LBB469:
 2439              		.loc 1 154 12 view .LVU738
 2440 0022 1E44     		add	r6, r6, r3
 2441 0024 F6B2     		uxtb	r6, r6
 2442              	.LVL171:
 2443              		.loc 1 154 12 view .LVU739
 2444              	.LBE469:
 2445              	.LBE470:
 2446              		.loc 1 179 5 is_stmt 1 view .LVU740
 2447              		.loc 1 179 17 view .LVU741
 2448 0026 7AB1     		cbz	r2, .L81
 2449 0028 2106     		lsls	r1, r4, #24
ARM GAS  C:\Users\DEVELO~1\AppData\Local\Temp\ccbvHO3g.s 			page 44


 2450 002a 0DD4     		bmi	.L81
 2451 002c 6D46     		mov	r5, sp
 2452 002e 01E0     		b	.L83
 2453              	.LVL172:
 2454              	.L95:
 2455              		.loc 1 179 17 is_stmt 0 view .LVU742
 2456 0030 2306     		lsls	r3, r4, #24
 2457 0032 09D4     		bmi	.L81
 2458              	.L83:
 2459              	.LVL173:
 2460              		.loc 1 180 9 is_stmt 1 view .LVU743
 2461              		.loc 1 180 9 is_stmt 0 view .LVU744
 2462 0034 2046     		mov	r0, r4
 2463 0036 3946     		mov	r1, r7
 2464              		.loc 1 181 11 view .LVU745
 2465 0038 3444     		add	r4, r4, r6
 2466              	.LVL174:
 2467              		.loc 1 180 9 view .LVU746
 2468 003a FFF7FEFF 		bl	drv_display_draw_char
 2469              	.LVL175:
 2470              		.loc 1 181 9 is_stmt 1 view .LVU747
 2471              		.loc 1 179 12 is_stmt 0 view .LVU748
 2472 003e 15F8012F 		ldrb	r2, [r5, #1]!	@ zero_extendqisi2
 2473              	.LVL176:
 2474              		.loc 1 181 11 view .LVU749
 2475 0042 E4B2     		uxtb	r4, r4
 2476              	.LVL177:
 2477              		.loc 1 179 17 is_stmt 1 view .LVU750
 2478 0044 002A     		cmp	r2, #0
 2479 0046 F3D1     		bne	.L95
 2480              	.LVL178:
 2481              	.L81:
 2482              		.loc 1 179 17 is_stmt 0 view .LVU751
 2483              	.LBE466:
 2484              	.LBE465:
 2485              		.loc 1 218 1 view .LVU752
 2486 0048 05B0     		add	sp, sp, #20
 2487              		.cfi_def_cfa_offset 20
 2488              		@ sp needed
 2489 004a F0BD     		pop	{r4, r5, r6, r7, pc}
 2490              	.LVL179:
 2491              	.L97:
 2492              		.loc 1 218 1 view .LVU753
 2493              		.align	2
 2494              	.L96:
 2495 004c 00000000 		.word	.LC1
 2496 0050 00000000 		.word	.LANCHOR2
 2497              		.cfi_endproc
 2498              	.LFE466:
 2499              		.size	drv_display_draw_number, .-drv_display_draw_number
 2500              		.section	.text.drv_display_start,"ax",%progbits
 2501              		.align	1
 2502              		.p2align 2,,3
 2503              		.global	drv_display_start
 2504              		.syntax unified
 2505              		.thumb
 2506              		.thumb_func
ARM GAS  C:\Users\DEVELO~1\AppData\Local\Temp\ccbvHO3g.s 			page 45


 2507              		.type	drv_display_start, %function
 2508              	drv_display_start:
 2509              	.LFB468:
 2510              		.loc 1 236 30 is_stmt 1 view -0
 2511              		.cfi_startproc
 2512              		@ args = 0, pretend = 0, frame = 0
 2513              		@ frame_needed = 0, uses_anonymous_args = 0
 2514              		.loc 1 237 5 view .LVU755
 2515              		.loc 1 236 30 is_stmt 0 view .LVU756
 2516 0000 10B5     		push	{r4, lr}
 2517              		.cfi_def_cfa_offset 8
 2518              		.cfi_offset 4, -8
 2519              		.cfi_offset 14, -4
 2520              		.loc 1 238 5 view .LVU757
 2521 0002 0024     		movs	r4, #0
 2522              		.loc 1 236 30 view .LVU758
 2523 0004 82B0     		sub	sp, sp, #8
 2524              		.cfi_def_cfa_offset 16
 2525              		.loc 1 237 5 view .LVU759
 2526 0006 FFF7FEFF 		bl	drv_display_init
 2527              	.LVL180:
 2528              		.loc 1 238 5 is_stmt 1 view .LVU760
 2529 000a 054B     		ldr	r3, .L100
 2530 000c 8022     		movs	r2, #128
 2531 000e 4FF47871 		mov	r1, #992
 2532 0012 0094     		str	r4, [sp]
 2533 0014 0348     		ldr	r0, .L100+4
 2534 0016 FFF7FEFF 		bl	chThdCreateStatic
 2535              	.LVL181:
 2536              		.loc 1 240 1 is_stmt 0 view .LVU761
 2537 001a 02B0     		add	sp, sp, #8
 2538              		.cfi_def_cfa_offset 8
 2539              		@ sp needed
 2540 001c 10BD     		pop	{r4, pc}
 2541              	.L101:
 2542 001e 00BF     		.align	2
 2543              	.L100:
 2544 0020 00000000 		.word	displayThread
 2545 0024 00000000 		.word	.LANCHOR3
 2546              		.cfi_endproc
 2547              	.LFE468:
 2548              		.size	drv_display_start, .-drv_display_start
 2549              		.section	.bss.buffer,"aw",%nobits
 2550              		.align	2
 2551              		.set	.LANCHOR0,. + 0
 2552              		.type	buffer, %object
 2553              		.size	buffer, 1024
 2554              	buffer:
 2555 0000 00000000 		.space	1024
 2555      00000000 
 2555      00000000 
 2555      00000000 
 2555      00000000 
 2556              		.section	.bss.current_font,"aw",%nobits
 2557              		.align	2
 2558              		.set	.LANCHOR2,. + 0
 2559              		.type	current_font, %object
ARM GAS  C:\Users\DEVELO~1\AppData\Local\Temp\ccbvHO3g.s 			page 46


 2560              		.size	current_font, 4
 2561              	current_font:
 2562 0000 00000000 		.space	4
 2563              		.section	.bss.waDisplay,"aw",%nobits
 2564              		.align	5
 2565              		.set	.LANCHOR3,. + 0
 2566              		.type	waDisplay, %object
 2567              		.size	waDisplay, 992
 2568              	waDisplay:
 2569 0000 00000000 		.space	992
 2569      00000000 
 2569      00000000 
 2569      00000000 
 2569      00000000 
 2570              		.section	.rodata.spicfg,"a"
 2571              		.align	2
 2572              		.set	.LANCHOR1,. + 0
 2573              		.type	spicfg, %object
 2574              		.size	spicfg, 28
 2575              	spicfg:
 2576 0000 00       		.byte	0
 2577 0001 00       		.byte	0
 2578 0002 0000     		.space	2
 2579 0004 00000000 		.word	0
 2580 0008 00000000 		.word	0
 2581 000c 00000000 		.space	8
 2581      00000000 
 2582 0014 07000040 		.word	1073741831
 2583 0018 00004024 		.word	608174080
 2584              		.text
 2585              	.Letext0:
 2586              		.file 3 "c:\\chibistudio\\tools\\gnu tools arm embedded\\11.3 2022.08\\lib\\gcc\\arm-none-eabi\\11
 2587              		.file 4 "c:\\chibistudio\\tools\\gnu tools arm embedded\\11.3 2022.08\\arm-none-eabi\\include\\mac
 2588              		.file 5 "c:\\chibistudio\\tools\\gnu tools arm embedded\\11.3 2022.08\\arm-none-eabi\\include\\sys
 2589              		.file 6 "c:\\chibistudio\\tools\\gnu tools arm embedded\\11.3 2022.08\\arm-none-eabi\\include\\std
 2590              		.file 7 "../../../os/common/ports/ARM-common/include/chtypes.h"
 2591              		.file 8 "../../../os/rt/include/chearly.h"
 2592              		.file 9 "../../../os/rt/include/chobjects.h"
 2593              		.file 10 "../../../os/rt/include/chrfcu.h"
 2594              		.file 11 "../../../os/rt/include/chdebug.h"
 2595              		.file 12 "../../../os/rt/include/chtime.h"
 2596              		.file 13 "../../../os/rt/include/chtrace.h"
 2597              		.file 14 "../../../os/common/ext/ST/STM32H7xx/stm32h743xx.h"
 2598              		.file 15 "../../../os/common/ports/ARMv7-M/chcore.h"
 2599              		.file 16 "../../../os/rt/include/chlists.h"
 2600              		.file 17 "../../../os/rt/include/chsem.h"
 2601              		.file 18 "../../../os/rt/include/chmtx.h"
 2602              		.file 19 "../../../os/rt/include/chthreads.h"
 2603              		.file 20 "../../../os/hal/ports/STM32/LLD/DMAv2/stm32_dma.h"
 2604              		.file 21 "../../../os/hal/ports/STM32/LLD/BDMAv1/stm32_bdma.h"
 2605              		.file 22 "../../../os/hal/ports/STM32/LLD/GPIOv2/stm32_gpio.h"
 2606              		.file 23 "../../../os/hal/ports/STM32/LLD/GPIOv2/hal_pal_lld.h"
 2607              		.file 24 "../../../os/hal/include/hal_spi_v2.h"
 2608              		.file 25 "ui/font.h"
 2609              		.file 26 "../../../os/hal/ports/STM32/LLD/SPIv3/hal_spi_v2_lld.h"
 2610              		.file 27 "c:\\chibistudio\\tools\\gnu tools arm embedded\\11.3 2022.08\\arm-none-eabi\\include\\st
 2611              		.file 28 "c:\\chibistudio\\tools\\gnu tools arm embedded\\11.3 2022.08\\arm-none-eabi\\include\\st
ARM GAS  C:\Users\DEVELO~1\AppData\Local\Temp\ccbvHO3g.s 			page 47


 2612              		.file 29 "../../../os/rt/include/chsys.h"
 2613              		.file 30 "<built-in>"