ARM GAS  C:\Users\DEVELO~1\AppData\Local\Temp\ccs4FWN3.s 			page 1


   1              		.cpu cortex-m7
   2              		.arch armv7e-m
   3              		.fpu fpv5-d16
   4              		.eabi_attribute 28, 1
   5              		.eabi_attribute 20, 1
   6              		.eabi_attribute 21, 1
   7              		.eabi_attribute 23, 3
   8              		.eabi_attribute 24, 1
   9              		.eabi_attribute 25, 1
  10              		.eabi_attribute 26, 1
  11              		.eabi_attribute 30, 2
  12              		.eabi_attribute 34, 1
  13              		.eabi_attribute 18, 4
  14              		.file	"drv_leds_addr.c"
  15              		.text
  16              	.Ltext0:
  17              		.cfi_sections	.debug_frame
  18              		.section	.text.drv_leds_addr_init,"ax",%progbits
  19              		.align	1
  20              		.p2align 2,,3
  21              		.global	drv_leds_addr_init
  22              		.syntax unified
  23              		.thumb
  24              		.thumb_func
  25              		.type	drv_leds_addr_init, %function
  26              	drv_leds_addr_init:
  27              	.LFB451:
  28              		.file 1 "drivers/drv_leds_addr.c"
  29              		.loc 1 91 31 view -0
  30              		.cfi_startproc
  31              		@ args = 0, pretend = 0, frame = 0
  32              		@ frame_needed = 0, uses_anonymous_args = 0
  33              		@ link register save eliminated.
  34              		.loc 1 92 5 view .LVU1
  35              	.LBB21:
  36              	.LBI21:
  37              		.loc 1 31 13 view .LVU2
  38              	.LBB22:
  39              		.loc 1 32 5 view .LVU3
  40              	.LVL0:
  41              	.LBB23:
  42              	.LBI23:
  43              		.file 2 "../../../os/hal/ports/STM32/STM32H7xx/stm32_rcc.h"
  44              		.loc 2 319 22 view .LVU4
  45              	.LBB24:
  46              		.loc 2 323 3 view .LVU5
  47              		.loc 2 323 19 is_stmt 0 view .LVU6
  48 0000 2749     		ldr	r1, .L6
  49              	.LBE24:
  50              	.LBE23:
  51              		.loc 1 34 17 view .LVU7
  52 0002 0022     		movs	r2, #0
  53 0004 274B     		ldr	r3, .L6+4
  54              	.LBB29:
  55              	.LBB25:
  56              		.loc 2 323 19 view .LVU8
  57 0006 D1F8F000 		ldr	r0, [r1, #240]
ARM GAS  C:\Users\DEVELO~1\AppData\Local\Temp\ccs4FWN3.s 			page 2


  58 000a 40F00200 		orr	r0, r0, #2
  59              	.LBE25:
  60              	.LBE29:
  61              	.LBE22:
  62              	.LBE21:
  63              		.loc 1 91 31 view .LVU9
  64 000e 30B4     		push	{r4, r5}
  65              		.cfi_def_cfa_offset 8
  66              		.cfi_offset 4, -8
  67              		.cfi_offset 5, -4
  68              	.LBB36:
  69              	.LBB33:
  70              	.LBB30:
  71              	.LBB26:
  72              		.loc 2 323 19 view .LVU10
  73 0010 C1F8F000 		str	r0, [r1, #240]
  74              		.loc 2 324 3 is_stmt 1 view .LVU11
  75              		.loc 2 325 5 view .LVU12
  76              	.LBE26:
  77              	.LBE30:
  78              		.loc 1 35 17 is_stmt 0 view .LVU13
  79 0014 F924     		movs	r4, #249
  80              	.LBB31:
  81              	.LBB27:
  82              		.loc 2 325 23 view .LVU14
  83 0016 D1F81801 		ldr	r0, [r1, #280]
  84              	.LBE27:
  85              	.LBE31:
  86              	.LBE33:
  87              	.LBE36:
  88              	.LBB37:
  89              	.LBB38:
  90              		.loc 1 53 20 view .LVU15
  91 001a 234D     		ldr	r5, .L6+8
  92              	.LBE38:
  93              	.LBE37:
  94              	.LBB45:
  95              	.LBB34:
  96              	.LBB32:
  97              	.LBB28:
  98              		.loc 2 325 23 view .LVU16
  99 001c 40F00200 		orr	r0, r0, #2
 100 0020 C1F81801 		str	r0, [r1, #280]
 101              		.loc 2 330 3 is_stmt 1 view .LVU17
 102 0024 D1F81801 		ldr	r0, [r1, #280]
 103              	.LVL1:
 104              		.loc 2 330 3 is_stmt 0 view .LVU18
 105              	.LBE28:
 106              	.LBE32:
 107              		.loc 1 34 5 is_stmt 1 view .LVU19
 108              		.loc 1 34 17 is_stmt 0 view .LVU20
 109 0028 9A62     		str	r2, [r3, #40]
 110              		.loc 1 35 5 is_stmt 1 view .LVU21
 111              		.loc 1 35 17 is_stmt 0 view .LVU22
 112 002a DC62     		str	r4, [r3, #44]
 113              		.loc 1 36 5 is_stmt 1 view .LVU23
 114              		.loc 1 36 18 is_stmt 0 view .LVU24
ARM GAS  C:\Users\DEVELO~1\AppData\Local\Temp\ccs4FWN3.s 			page 3


 115 002c 9A63     		str	r2, [r3, #56]
 116              		.loc 1 38 5 is_stmt 1 view .LVU25
 117              		.loc 1 38 19 is_stmt 0 view .LVU26
 118 002e 9C69     		ldr	r4, [r3, #24]
 119              	.LBE34:
 120              	.LBE45:
 121              	.LBB46:
 122              	.LBB43:
 123              		.loc 1 52 18 view .LVU27
 124 0030 1E48     		ldr	r0, .L6+12
 125              	.LBE43:
 126              	.LBE46:
 127              	.LBB47:
 128              	.LBB35:
 129              		.loc 1 38 19 view .LVU28
 130 0032 44F4C044 		orr	r4, r4, #24576
 131 0036 9C61     		str	r4, [r3, #24]
 132              		.loc 1 39 5 is_stmt 1 view .LVU29
 133              		.loc 1 39 19 is_stmt 0 view .LVU30
 134 0038 1C6A     		ldr	r4, [r3, #32]
 135 003a 44F01004 		orr	r4, r4, #16
 136 003e 1C62     		str	r4, [r3, #32]
 137              		.loc 1 40 5 is_stmt 1 view .LVU31
 138              		.loc 1 40 19 is_stmt 0 view .LVU32
 139 0040 5C6C     		ldr	r4, [r3, #68]
 140 0042 44F40044 		orr	r4, r4, #32768
 141 0046 5C64     		str	r4, [r3, #68]
 142              		.loc 1 42 5 is_stmt 1 view .LVU33
 143              		.loc 1 42 18 is_stmt 0 view .LVU34
 144 0048 DC68     		ldr	r4, [r3, #12]
 145 004a 44F48064 		orr	r4, r4, #1024
 146 004e DC60     		str	r4, [r3, #12]
 147              		.loc 1 44 5 is_stmt 1 view .LVU35
 148              		.loc 1 44 17 is_stmt 0 view .LVU36
 149 0050 1C68     		ldr	r4, [r3]
 150 0052 44F00104 		orr	r4, r4, #1
 151 0056 1C60     		str	r4, [r3]
 152              	.LBE35:
 153              	.LBE47:
 154              		.loc 1 93 5 is_stmt 1 view .LVU37
 155              	.LBB48:
 156              	.LBI37:
 157              		.loc 1 49 13 view .LVU38
 158              	.LBB44:
 159              		.loc 1 50 5 view .LVU39
 160              	.LVL2:
 161              	.LBB39:
 162              	.LBI39:
 163              		.loc 2 853 22 view .LVU40
 164              	.LBB40:
 165              		.loc 2 857 3 view .LVU41
 166              		.loc 2 857 19 is_stmt 0 view .LVU42
 167 0058 D1F8E040 		ldr	r4, [r1, #224]
 168 005c 144B     		ldr	r3, .L6+16
 169 005e 44F40014 		orr	r4, r4, #2097152
 170 0062 C1F8E040 		str	r4, [r1, #224]
 171              		.loc 2 858 3 is_stmt 1 view .LVU43
ARM GAS  C:\Users\DEVELO~1\AppData\Local\Temp\ccs4FWN3.s 			page 4


 172              		.loc 2 859 5 view .LVU44
 173              		.loc 2 859 23 is_stmt 0 view .LVU45
 174 0066 D1F80841 		ldr	r4, [r1, #264]
 175 006a 44F40014 		orr	r4, r4, #2097152
 176 006e C1F80841 		str	r4, [r1, #264]
 177              		.loc 2 864 3 is_stmt 1 view .LVU46
 178              	.LBE40:
 179              	.LBE39:
 180              		.loc 1 57 18 is_stmt 0 view .LVU47
 181 0072 40F29254 		movw	r4, #1426
 182              	.LBB42:
 183              	.LBB41:
 184              		.loc 2 864 3 view .LVU48
 185 0076 D1F80811 		ldr	r1, [r1, #264]
 186              	.LVL3:
 187              		.loc 2 864 3 view .LVU49
 188              	.LBE41:
 189              	.LBE42:
 190              		.loc 1 52 5 is_stmt 1 view .LVU50
 191              		.loc 1 54 22 is_stmt 0 view .LVU51
 192 007a 0E49     		ldr	r1, .L6+20
 193              		.loc 1 52 18 view .LVU52
 194 007c 8260     		str	r2, [r0, #8]
 195              		.loc 1 53 5 is_stmt 1 view .LVU53
 196              		.loc 1 53 20 is_stmt 0 view .LVU54
 197 007e 0561     		str	r5, [r0, #16]
 198              		.loc 1 54 5 is_stmt 1 view .LVU55
 199              		.loc 1 54 20 is_stmt 0 view .LVU56
 200 0080 4161     		str	r1, [r0, #20]
 201              		.loc 1 55 5 is_stmt 1 view .LVU57
 202 0082 03F14B01 		add	r1, r3, #75
 203              		.loc 1 55 20 is_stmt 0 view .LVU58
 204 0086 C260     		str	r2, [r0, #12]
 205              		.loc 1 57 5 is_stmt 1 view .LVU59
 206              		.loc 1 57 18 is_stmt 0 view .LVU60
 207 0088 8460     		str	r4, [r0, #8]
 208              	.LVL4:
 209              		.loc 1 57 18 view .LVU61
 210              	.LBE44:
 211              	.LBE48:
 212              	.LBB49:
 213              	.LBB50:
 214              		.loc 1 118 23 is_stmt 1 view .LVU62
 215              	.L2:
 216              	.LBB51:
 217              		.loc 1 119 9 view .LVU63
 218              		.loc 1 119 23 is_stmt 0 view .LVU64
 219 008a 1A70     		strb	r2, [r3]
 220              	.LBE51:
 221              		.loc 1 118 23 view .LVU65
 222 008c 0333     		adds	r3, r3, #3
 223              	.LBB52:
 224              		.loc 1 119 23 view .LVU66
 225 008e 03F8022C 		strb	r2, [r3, #-2]
 226 0092 03F8012C 		strb	r2, [r3, #-1]
 227              	.LBE52:
 228              		.loc 1 118 43 is_stmt 1 view .LVU67
ARM GAS  C:\Users\DEVELO~1\AppData\Local\Temp\ccs4FWN3.s 			page 5


 229              		.loc 1 118 23 view .LVU68
 230 0096 8B42     		cmp	r3, r1
 231 0098 F7D1     		bne	.L2
 232              	.LBE50:
 233              	.LBE49:
 234              		.loc 1 95 1 is_stmt 0 view .LVU69
 235 009a 30BC     		pop	{r4, r5}
 236              		.cfi_restore 5
 237              		.cfi_restore 4
 238              		.cfi_def_cfa_offset 0
 239 009c 7047     		bx	lr
 240              	.L7:
 241 009e 00BF     		.align	2
 242              	.L6:
 243 00a0 00440258 		.word	1476543488
 244 00a4 00040140 		.word	1073808384
 245 00a8 38040140 		.word	1073808440
 246 00ac 00540258 		.word	1476547584
 247 00b0 00000000 		.word	.LANCHOR1
 248 00b4 00000000 		.word	.LANCHOR0
 249              		.cfi_endproc
 250              	.LFE451:
 251              		.size	drv_leds_addr_init, .-drv_leds_addr_init
 252              		.section	.text.drv_leds_addr_update,"ax",%progbits
 253              		.align	1
 254              		.p2align 2,,3
 255              		.global	drv_leds_addr_update
 256              		.syntax unified
 257              		.thumb
 258              		.thumb_func
 259              		.type	drv_leds_addr_update, %function
 260              	drv_leds_addr_update:
 261              	.LFB452:
 262              		.loc 1 97 33 is_stmt 1 view -0
 263              		.cfi_startproc
 264              		@ args = 0, pretend = 0, frame = 0
 265              		@ frame_needed = 0, uses_anonymous_args = 0
 266              		.loc 1 98 5 view .LVU71
 267              	.LBB59:
 268              	.LBI59:
 269              		.loc 1 67 13 view .LVU72
 270              	.LBB60:
 271              		.loc 1 68 5 view .LVU73
 272              	.LVL5:
 273              		.loc 1 70 5 view .LVU74
 274              	.LBB61:
 275              		.loc 1 70 10 view .LVU75
 276              		.loc 1 70 28 view .LVU76
 277              	.LBE61:
 278              	.LBE60:
 279              	.LBE59:
 280              		.loc 1 97 33 is_stmt 0 view .LVU77
 281 0000 F8B5     		push	{r3, r4, r5, r6, r7, lr}
 282              		.cfi_def_cfa_offset 24
 283              		.cfi_offset 3, -24
 284              		.cfi_offset 4, -20
 285              		.cfi_offset 5, -16
ARM GAS  C:\Users\DEVELO~1\AppData\Local\Temp\ccs4FWN3.s 			page 6


 286              		.cfi_offset 6, -12
 287              		.cfi_offset 7, -8
 288              		.cfi_offset 14, -4
 289 0002 194F     		ldr	r7, .L16
 290              	.LBB69:
 291              	.LBB68:
 292              		.loc 1 68 14 view .LVU78
 293 0004 0024     		movs	r4, #0
 294 0006 194D     		ldr	r5, .L16+4
 295              	.LBB66:
 296              	.LBB62:
 297              	.LBB63:
 298              		.loc 1 78 28 view .LVU79
 299 0008 4FF0010E 		mov	lr, #1
 300              	.LVL6:
 301              	.L11:
 302              		.loc 1 78 28 view .LVU80
 303              	.LBE63:
 304              		.loc 1 71 9 is_stmt 1 view .LVU81
 305              		.loc 1 73 27 is_stmt 0 view .LVU82
 306 000c 7A78     		ldrb	r2, [r7, #1]	@ zero_extendqisi2
 307              		.loc 1 71 18 view .LVU83
 308 000e 2946     		mov	r1, r5
 309              		.loc 1 72 27 view .LVU84
 310 0010 3E78     		ldrb	r6, [r7]	@ zero_extendqisi2
 311              	.LBB64:
 312              		.loc 1 76 18 view .LVU85
 313 0012 1723     		movs	r3, #23
 314              	.LBE64:
 315              		.loc 1 73 30 view .LVU86
 316 0014 1202     		lsls	r2, r2, #8
 317              		.loc 1 74 27 view .LVU87
 318 0016 B878     		ldrb	r0, [r7, #2]	@ zero_extendqisi2
 319              		.loc 1 72 37 view .LVU88
 320 0018 42EA0642 		orr	r2, r2, r6, lsl #16
 321              		.loc 1 73 37 view .LVU89
 322 001c 0243     		orrs	r2, r2, r0
 323              	.LVL7:
 324              		.loc 1 76 9 is_stmt 1 view .LVU90
 325              	.LBB65:
 326              		.loc 1 76 14 view .LVU91
 327              		.loc 1 76 32 view .LVU92
 328              	.L10:
 329              		.loc 1 77 13 view .LVU93
 330              		.loc 1 78 28 is_stmt 0 view .LVU94
 331 001e 0EFA03F0 		lsl	r0, lr, r3
 332              		.loc 1 76 41 view .LVU95
 333 0022 013B     		subs	r3, r3, #1
 334              	.LVL8:
 335              		.loc 1 77 31 view .LVU96
 336 0024 1042     		tst	r0, r2
 337 0026 14BF     		ite	ne
 338 0028 AF20     		movne	r0, #175
 339 002a 4B20     		moveq	r0, #75
 340              		.loc 1 77 31 view .LVU97
 341 002c 21F8020F 		strh	r0, [r1, #2]!	@ movhi
 342              		.loc 1 76 41 is_stmt 1 view .LVU98
ARM GAS  C:\Users\DEVELO~1\AppData\Local\Temp\ccs4FWN3.s 			page 7


 343              	.LVL9:
 344              		.loc 1 76 32 view .LVU99
 345 0030 581C     		adds	r0, r3, #1
 346 0032 F4D1     		bne	.L10
 347              		.loc 1 77 27 is_stmt 0 view .LVU100
 348 0034 1834     		adds	r4, r4, #24
 349              	.LBE65:
 350              	.LBE62:
 351              		.loc 1 70 48 is_stmt 1 view .LVU101
 352              	.LVL10:
 353              		.loc 1 70 28 view .LVU102
 354 0036 0337     		adds	r7, r7, #3
 355 0038 3035     		adds	r5, r5, #48
 356 003a B4F5167F 		cmp	r4, #600
 357 003e E5D1     		bne	.L11
 358              	.LBE66:
 359              	.LBB67:
 360              		.loc 1 83 27 is_stmt 0 view .LVU103
 361 0040 A022     		movs	r2, #160
 362              	.LVL11:
 363              		.loc 1 83 27 view .LVU104
 364 0042 0021     		movs	r1, #0
 365 0044 0A48     		ldr	r0, .L16+8
 366 0046 FFF7FEFF 		bl	memset
 367              	.LVL12:
 368              		.loc 1 83 27 view .LVU105
 369              	.LBE67:
 370              		.loc 1 86 5 is_stmt 1 view .LVU106
 371              		.loc 1 86 20 is_stmt 0 view .LVU107
 372 004a 0A4B     		ldr	r3, .L16+12
 373 004c 4FF42A71 		mov	r1, #680
 374 0050 D960     		str	r1, [r3, #12]
 375              		.loc 1 86 20 view .LVU108
 376              	.LBE68:
 377              	.LBE69:
 378              		.loc 1 100 5 is_stmt 1 view .LVU109
 379              		.loc 1 100 18 is_stmt 0 view .LVU110
 380 0052 9A68     		ldr	r2, [r3, #8]
 381 0054 22F00102 		bic	r2, r2, #1
 382 0058 9A60     		str	r2, [r3, #8]
 383              		.loc 1 101 5 is_stmt 1 view .LVU111
 384              		.loc 1 101 20 is_stmt 0 view .LVU112
 385 005a D960     		str	r1, [r3, #12]
 386              		.loc 1 102 5 is_stmt 1 view .LVU113
 387              		.loc 1 102 18 is_stmt 0 view .LVU114
 388 005c 9A68     		ldr	r2, [r3, #8]
 389 005e 42F00102 		orr	r2, r2, #1
 390 0062 9A60     		str	r2, [r3, #8]
 391              		.loc 1 103 1 view .LVU115
 392 0064 F8BD     		pop	{r3, r4, r5, r6, r7, pc}
 393              	.L17:
 394 0066 00BF     		.align	2
 395              	.L16:
 396 0068 00000000 		.word	.LANCHOR1
 397 006c FEFFFFFF 		.word	.LANCHOR0-2
 398 0070 B0040000 		.word	.LANCHOR0+1200
 399 0074 00540258 		.word	1476547584
ARM GAS  C:\Users\DEVELO~1\AppData\Local\Temp\ccs4FWN3.s 			page 8


 400              		.cfi_endproc
 401              	.LFE452:
 402              		.size	drv_leds_addr_update, .-drv_leds_addr_update
 403              		.section	.text.drv_leds_addr_set_rgb,"ax",%progbits
 404              		.align	1
 405              		.p2align 2,,3
 406              		.global	drv_leds_addr_set_rgb
 407              		.syntax unified
 408              		.thumb
 409              		.thumb_func
 410              		.type	drv_leds_addr_set_rgb, %function
 411              	drv_leds_addr_set_rgb:
 412              	.LVL13:
 413              	.LFB453:
 414              		.loc 1 105 72 is_stmt 1 view -0
 415              		.cfi_startproc
 416              		@ args = 0, pretend = 0, frame = 0
 417              		@ frame_needed = 0, uses_anonymous_args = 0
 418              		@ link register save eliminated.
 419              		.loc 1 106 5 view .LVU117
 420              		.loc 1 106 8 is_stmt 0 view .LVU118
 421 0000 1828     		cmp	r0, #24
 422 0002 0AD8     		bhi	.L21
 423              		.loc 1 107 5 is_stmt 1 view .LVU119
 424              		.loc 1 107 25 is_stmt 0 view .LVU120
 425 0004 00EB4000 		add	r0, r0, r0, lsl #1
 426              	.LVL14:
 427              		.loc 1 105 72 view .LVU121
 428 0008 10B4     		push	{r4}
 429              		.cfi_def_cfa_offset 4
 430              		.cfi_offset 4, -4
 431              		.loc 1 107 25 view .LVU122
 432 000a 044C     		ldr	r4, .L24
 433              		.loc 1 108 25 view .LVU123
 434 000c 2254     		strb	r2, [r4, r0]
 435              		.loc 1 107 25 view .LVU124
 436 000e 2218     		adds	r2, r4, r0
 437              	.LVL15:
 438              		.loc 1 107 25 view .LVU125
 439 0010 5170     		strb	r1, [r2, #1]
 440              		.loc 1 108 5 is_stmt 1 view .LVU126
 441              		.loc 1 109 5 view .LVU127
 442              		.loc 1 109 25 is_stmt 0 view .LVU128
 443 0012 9370     		strb	r3, [r2, #2]
 444              		.loc 1 110 1 view .LVU129
 445 0014 5DF8044B 		ldr	r4, [sp], #4
 446              		.cfi_restore 4
 447              		.cfi_def_cfa_offset 0
 448 0018 7047     		bx	lr
 449              	.LVL16:
 450              	.L21:
 451              		.loc 1 110 1 view .LVU130
 452 001a 7047     		bx	lr
 453              	.L25:
 454              		.align	2
 455              	.L24:
 456 001c 00000000 		.word	.LANCHOR1
ARM GAS  C:\Users\DEVELO~1\AppData\Local\Temp\ccs4FWN3.s 			page 9


 457              		.cfi_endproc
 458              	.LFE453:
 459              		.size	drv_leds_addr_set_rgb, .-drv_leds_addr_set_rgb
 460              		.section	.text.drv_leds_addr_set_color,"ax",%progbits
 461              		.align	1
 462              		.p2align 2,,3
 463              		.global	drv_leds_addr_set_color
 464              		.syntax unified
 465              		.thumb
 466              		.thumb_func
 467              		.type	drv_leds_addr_set_color, %function
 468              	drv_leds_addr_set_color:
 469              	.LVL17:
 470              	.LFB454:
 471              		.loc 1 112 60 is_stmt 1 view -0
 472              		.cfi_startproc
 473              		@ args = 0, pretend = 0, frame = 8
 474              		@ frame_needed = 0, uses_anonymous_args = 0
 475              		@ link register save eliminated.
 476              		.loc 1 113 5 view .LVU132
 477              		.loc 1 112 60 is_stmt 0 view .LVU133
 478 0000 82B0     		sub	sp, sp, #8
 479              		.cfi_def_cfa_offset 8
 480              		.loc 1 113 8 view .LVU134
 481 0002 1828     		cmp	r0, #24
 482              		.loc 1 112 60 view .LVU135
 483 0004 0191     		str	r1, [sp, #4]
 484              		.loc 1 113 8 view .LVU136
 485 0006 0AD8     		bhi	.L26
 486              		.loc 1 114 5 is_stmt 1 view .LVU137
 487              		.loc 1 114 23 is_stmt 0 view .LVU138
 488 0008 064B     		ldr	r3, .L29
 489 000a 00EB4000 		add	r0, r0, r0, lsl #1
 490              	.LVL18:
 491              		.loc 1 114 23 view .LVU139
 492 000e BDF804C0 		ldrh	ip, [sp, #4]	@ unaligned
 493 0012 9DF80610 		ldrb	r1, [sp, #6]	@ zero_extendqisi2
 494 0016 1A18     		adds	r2, r3, r0
 495 0018 23F800C0 		strh	ip, [r3, r0]	@ unaligned
 496 001c 9170     		strb	r1, [r2, #2]
 497              	.L26:
 498              		.loc 1 115 1 view .LVU140
 499 001e 02B0     		add	sp, sp, #8
 500              		.cfi_def_cfa_offset 0
 501              		@ sp needed
 502 0020 7047     		bx	lr
 503              	.L30:
 504 0022 00BF     		.align	2
 505              	.L29:
 506 0024 00000000 		.word	.LANCHOR1
 507              		.cfi_endproc
 508              	.LFE454:
 509              		.size	drv_leds_addr_set_color, .-drv_leds_addr_set_color
 510              		.section	.text.drv_leds_addr_clear,"ax",%progbits
 511              		.align	1
 512              		.p2align 2,,3
 513              		.global	drv_leds_addr_clear
ARM GAS  C:\Users\DEVELO~1\AppData\Local\Temp\ccs4FWN3.s 			page 10


 514              		.syntax unified
 515              		.thumb
 516              		.thumb_func
 517              		.type	drv_leds_addr_clear, %function
 518              	drv_leds_addr_clear:
 519              	.LFB455:
 520              		.loc 1 117 32 is_stmt 1 view -0
 521              		.cfi_startproc
 522              		@ args = 0, pretend = 0, frame = 0
 523              		@ frame_needed = 0, uses_anonymous_args = 0
 524              		@ link register save eliminated.
 525              		.loc 1 118 5 view .LVU142
 526              	.LBB72:
 527              		.loc 1 118 10 view .LVU143
 528              	.LVL19:
 529              		.loc 1 118 23 view .LVU144
 530 0000 064B     		ldr	r3, .L34
 531              	.LBB73:
 532              		.loc 1 119 23 is_stmt 0 view .LVU145
 533 0002 0022     		movs	r2, #0
 534 0004 03F14B01 		add	r1, r3, #75
 535              	.LVL20:
 536              	.L32:
 537              		.loc 1 119 9 is_stmt 1 discriminator 3 view .LVU146
 538              		.loc 1 119 23 is_stmt 0 discriminator 3 view .LVU147
 539 0008 1A70     		strb	r2, [r3]
 540              	.LBE73:
 541              		.loc 1 118 23 discriminator 3 view .LVU148
 542 000a 0333     		adds	r3, r3, #3
 543              	.LBB74:
 544              		.loc 1 119 23 discriminator 3 view .LVU149
 545 000c 03F8022C 		strb	r2, [r3, #-2]
 546 0010 03F8012C 		strb	r2, [r3, #-1]
 547              	.LBE74:
 548              		.loc 1 118 43 is_stmt 1 discriminator 3 view .LVU150
 549              		.loc 1 118 23 discriminator 3 view .LVU151
 550 0014 8B42     		cmp	r3, r1
 551 0016 F7D1     		bne	.L32
 552              	.LBE72:
 553              		.loc 1 120 1 is_stmt 0 view .LVU152
 554 0018 7047     		bx	lr
 555              	.L35:
 556 001a 00BF     		.align	2
 557              	.L34:
 558 001c 00000000 		.word	.LANCHOR1
 559              		.cfi_endproc
 560              	.LFE455:
 561              		.size	drv_leds_addr_clear, .-drv_leds_addr_clear
 562              		.section	.text.drv_leds_addr_set,"ax",%progbits
 563              		.align	1
 564              		.p2align 2,,3
 565              		.global	drv_leds_addr_set
 566              		.syntax unified
 567              		.thumb
 568              		.thumb_func
 569              		.type	drv_leds_addr_set, %function
 570              	drv_leds_addr_set:
ARM GAS  C:\Users\DEVELO~1\AppData\Local\Temp\ccs4FWN3.s 			page 11


 571              	.LVL21:
 572              	.LFB456:
 573              		.loc 1 122 71 is_stmt 1 view -0
 574              		.cfi_startproc
 575              		@ args = 0, pretend = 0, frame = 8
 576              		@ frame_needed = 0, uses_anonymous_args = 0
 577              		@ link register save eliminated.
 578              		.loc 1 123 5 view .LVU154
 579              		.loc 1 123 8 is_stmt 0 view .LVU155
 580 0000 1828     		cmp	r0, #24
 581              		.loc 1 122 71 view .LVU156
 582 0002 82B0     		sub	sp, sp, #8
 583              		.cfi_def_cfa_offset 8
 584              		.loc 1 123 8 view .LVU157
 585 0004 09D8     		bhi	.L36
 586              		.loc 1 124 5 is_stmt 1 view .LVU158
 587              		.loc 1 124 38 is_stmt 0 view .LVU159
 588 0006 064B     		ldr	r3, .L39
 589 0008 03EB800C 		add	ip, r3, r0, lsl #2
 590 000c 23F82010 		strh	r1, [r3, r0, lsl #2]	@ movhi
 591 0010 090C     		lsrs	r1, r1, #16
 592              		.loc 1 125 38 view .LVU160
 593 0012 8CF80320 		strb	r2, [ip, #3]
 594              		.loc 1 124 38 view .LVU161
 595 0016 8CF80210 		strb	r1, [ip, #2]
 596              		.loc 1 125 5 is_stmt 1 view .LVU162
 597              	.L36:
 598              		.loc 1 126 1 is_stmt 0 view .LVU163
 599 001a 02B0     		add	sp, sp, #8
 600              		.cfi_def_cfa_offset 0
 601              		@ sp needed
 602 001c 7047     		bx	lr
 603              	.L40:
 604 001e 00BF     		.align	2
 605              	.L39:
 606 0020 00000000 		.word	.LANCHOR2
 607              		.cfi_endproc
 608              	.LFE456:
 609              		.size	drv_leds_addr_set, .-drv_leds_addr_set
 610              		.section	.text.drv_leds_addr_render,"ax",%progbits
 611              		.align	1
 612              		.p2align 2,,3
 613              		.global	drv_leds_addr_render
 614              		.syntax unified
 615              		.thumb
 616              		.thumb_func
 617              		.type	drv_leds_addr_render, %function
 618              	drv_leds_addr_render:
 619              	.LFB457:
 620              		.loc 1 128 33 is_stmt 1 view -0
 621              		.cfi_startproc
 622              		@ args = 0, pretend = 0, frame = 0
 623              		@ frame_needed = 0, uses_anonymous_args = 0
 624              		.loc 1 129 5 view .LVU165
 625              		.loc 1 130 5 view .LVU166
 626              		.loc 1 128 33 is_stmt 0 view .LVU167
 627 0000 10B5     		push	{r4, lr}
ARM GAS  C:\Users\DEVELO~1\AppData\Local\Temp\ccs4FWN3.s 			page 12


 628              		.cfi_def_cfa_offset 8
 629              		.cfi_offset 4, -8
 630              		.cfi_offset 14, -4
 631              		.loc 1 130 9 view .LVU168
 632 0002 134C     		ldr	r4, .L48
 633              	.LBB82:
 634              	.LBB83:
 635              	.LBB84:
 636              		.loc 1 119 23 view .LVU169
 637 0004 0021     		movs	r1, #0
 638 0006 134A     		ldr	r2, .L48+4
 639              	.LBE84:
 640              	.LBE83:
 641              	.LBE82:
 642              		.loc 1 130 9 view .LVU170
 643 0008 2368     		ldr	r3, [r4]
 644 000a 02F14B00 		add	r0, r2, #75
 645 000e 0133     		adds	r3, r3, #1
 646 0010 2360     		str	r3, [r4]
 647              		.loc 1 132 5 is_stmt 1 view .LVU171
 648              	.LBB89:
 649              	.LBI82:
 650              		.loc 1 117 6 view .LVU172
 651              	.LVL22:
 652              	.LBB87:
 653              		.loc 1 118 23 view .LVU173
 654              	.LBE87:
 655              	.LBE89:
 656              		.loc 1 130 9 is_stmt 0 view .LVU174
 657 0012 1346     		mov	r3, r2
 658              	.LVL23:
 659              	.L42:
 660              	.LBB90:
 661              	.LBB88:
 662              	.LBB85:
 663              		.loc 1 119 9 is_stmt 1 view .LVU175
 664              		.loc 1 119 23 is_stmt 0 view .LVU176
 665 0014 1970     		strb	r1, [r3]
 666              	.LBE85:
 667              		.loc 1 118 23 view .LVU177
 668 0016 0333     		adds	r3, r3, #3
 669              	.LBB86:
 670              		.loc 1 119 23 view .LVU178
 671 0018 03F8021C 		strb	r1, [r3, #-2]
 672 001c 03F8011C 		strb	r1, [r3, #-1]
 673              	.LBE86:
 674              		.loc 1 118 43 is_stmt 1 view .LVU179
 675              		.loc 1 118 23 view .LVU180
 676 0020 8342     		cmp	r3, r0
 677 0022 F7D1     		bne	.L42
 678 0024 0C4B     		ldr	r3, .L48+8
 679              	.L44:
 680              	.LBE88:
 681              	.LBE90:
 682              	.LBB91:
 683              		.loc 1 135 9 view .LVU181
 684              		.loc 1 134 43 view .LVU182
ARM GAS  C:\Users\DEVELO~1\AppData\Local\Temp\ccs4FWN3.s 			page 13


 685              		.loc 1 134 23 view .LVU183
 686              		.loc 1 135 12 is_stmt 0 view .LVU184
 687 0026 D978     		ldrb	r1, [r3, #3]	@ zero_extendqisi2
 688 0028 0129     		cmp	r1, #1
 689 002a 09D1     		bne	.L43
 690              		.loc 1 136 13 is_stmt 1 view .LVU185
 691              	.LVL24:
 692              		.loc 1 136 13 is_stmt 0 view .LVU186
 693 002c 93F801E0 		ldrb	lr, [r3, #1]	@ zero_extendqisi2
 694              	.LVL25:
 695              		.loc 1 136 13 view .LVU187
 696 0030 93F802C0 		ldrb	ip, [r3, #2]	@ zero_extendqisi2
 697              	.LVL26:
 698              	.LBB92:
 699              	.LBI92:
 700              		.loc 1 112 6 is_stmt 1 view .LVU188
 701              	.LBB93:
 702              		.loc 1 113 5 view .LVU189
 703              		.loc 1 114 5 view .LVU190
 704              		.loc 1 114 23 is_stmt 0 view .LVU191
 705 0034 1978     		ldrb	r1, [r3]	@ zero_extendqisi2
 706 0036 82F801E0 		strb	lr, [r2, #1]
 707 003a 82F802C0 		strb	ip, [r2, #2]
 708              	.LVL27:
 709              		.loc 1 114 23 view .LVU192
 710 003e 1170     		strb	r1, [r2]
 711              	.L43:
 712              	.LBE93:
 713              	.LBE92:
 714              		.loc 1 134 23 discriminator 2 view .LVU193
 715 0040 0332     		adds	r2, r2, #3
 716 0042 0433     		adds	r3, r3, #4
 717 0044 8242     		cmp	r2, r0
 718 0046 EED1     		bne	.L44
 719              	.LBE91:
 720              		.loc 1 139 5 is_stmt 1 view .LVU194
 721              		.loc 1 140 1 is_stmt 0 view .LVU195
 722 0048 BDE81040 		pop	{r4, lr}
 723              		.cfi_restore 14
 724              		.cfi_restore 4
 725              		.cfi_def_cfa_offset 0
 726              		.loc 1 139 5 view .LVU196
 727 004c FFF7FEBF 		b	drv_leds_addr_update
 728              	.LVL28:
 729              	.L49:
 730              		.align	2
 731              	.L48:
 732 0050 00000000 		.word	.LANCHOR3
 733 0054 00000000 		.word	.LANCHOR1
 734 0058 00000000 		.word	.LANCHOR2
 735              		.cfi_endproc
 736              	.LFE457:
 737              		.size	drv_leds_addr_render, .-drv_leds_addr_render
 738              		.global	drv_leds_addr_state
 739              		.section	.bss.drv_leds_addr_state,"aw",%nobits
 740              		.align	2
 741              		.set	.LANCHOR2,. + 0
ARM GAS  C:\Users\DEVELO~1\AppData\Local\Temp\ccs4FWN3.s 			page 14


 742              		.type	drv_leds_addr_state, %object
 743              		.size	drv_leds_addr_state, 100
 744              	drv_leds_addr_state:
 745 0000 00000000 		.space	100
 745      00000000 
 745      00000000 
 745      00000000 
 745      00000000 
 746              		.section	.bss.led_buffer,"aw",%nobits
 747              		.align	2
 748              		.set	.LANCHOR1,. + 0
 749              		.type	led_buffer, %object
 750              		.size	led_buffer, 75
 751              	led_buffer:
 752 0000 00000000 		.space	75
 752      00000000 
 752      00000000 
 752      00000000 
 752      00000000 
 753              		.section	.bss.pwm_buffer,"aw",%nobits
 754              		.align	2
 755              		.set	.LANCHOR0,. + 0
 756              		.type	pwm_buffer, %object
 757              		.size	pwm_buffer, 1360
 758              	pwm_buffer:
 759 0000 00000000 		.space	1360
 759      00000000 
 759      00000000 
 759      00000000 
 759      00000000 
 760              		.section	.bss.tick.0,"aw",%nobits
 761              		.align	2
 762              		.set	.LANCHOR3,. + 0
 763              		.type	tick.0, %object
 764              		.size	tick.0, 4
 765              	tick.0:
 766 0000 00000000 		.space	4
 767              		.text
 768              	.Letext0:
 769              		.file 3 "c:\\chibistudio\\tools\\gnu tools arm embedded\\11.3 2022.08\\arm-none-eabi\\include\\mac
 770              		.file 4 "c:\\chibistudio\\tools\\gnu tools arm embedded\\11.3 2022.08\\arm-none-eabi\\include\\sys
 771              		.file 5 "../../../os/common/ext/ST/STM32H7xx/stm32h743xx.h"
 772              		.file 6 "drivers/drv_leds_addr.h"
 773              		.file 7 "<built-in>"
 774              		.section	.debug_info,"",%progbits
 775              	.Ldebug_info0:
 776 0000 E30A0000 		.4byte	0xae3
 777 0004 0500     		.2byte	0x5
 778 0006 01       		.byte	0x1
 779 0007 04       		.byte	0x4
 780 0008 00000000 		.4byte	.Ldebug_abbrev0
 781 000c 22       		.uleb128 0x22
 782 000d C2020000 		.4byte	.LASF127
 783 0011 1D       		.byte	0x1d
 784 0012 34020000 		.4byte	.LASF128
 785 0016 09000000 		.4byte	.LASF129
 786 001a 84000000 		.4byte	.LLRL23
ARM GAS  C:\Users\DEVELO~1\AppData\Local\Temp\ccs4FWN3.s 			page 15


 787 001e 00000000 		.4byte	0
 788 0022 00000000 		.4byte	.Ldebug_line0
 789 0026 23       		.uleb128 0x23
 790 0027 04       		.byte	0x4
 791 0028 05       		.byte	0x5
 792 0029 696E7400 		.ascii	"int\000"
 793 002d 03       		.uleb128 0x3
 794 002e 04       		.byte	0x4
 795 002f 07       		.byte	0x7
 796 0030 4C020000 		.4byte	.LASF0
 797 0034 03       		.uleb128 0x3
 798 0035 08       		.byte	0x8
 799 0036 05       		.byte	0x5
 800 0037 2C010000 		.4byte	.LASF1
 801 003b 03       		.uleb128 0x3
 802 003c 08       		.byte	0x8
 803 003d 04       		.byte	0x4
 804 003e D1040000 		.4byte	.LASF2
 805 0042 03       		.uleb128 0x3
 806 0043 01       		.byte	0x1
 807 0044 06       		.byte	0x6
 808 0045 3A010000 		.4byte	.LASF3
 809 0049 04       		.uleb128 0x4
 810 004a 75000000 		.4byte	.LASF6
 811 004e 03       		.byte	0x3
 812 004f 2B       		.byte	0x2b
 813 0050 18       		.byte	0x18
 814 0051 55000000 		.4byte	0x55
 815 0055 03       		.uleb128 0x3
 816 0056 01       		.byte	0x1
 817 0057 08       		.byte	0x8
 818 0058 54040000 		.4byte	.LASF4
 819 005c 03       		.uleb128 0x3
 820 005d 02       		.byte	0x2
 821 005e 05       		.byte	0x5
 822 005f 62040000 		.4byte	.LASF5
 823 0063 04       		.uleb128 0x4
 824 0064 FE040000 		.4byte	.LASF7
 825 0068 03       		.byte	0x3
 826 0069 39       		.byte	0x39
 827 006a 19       		.byte	0x19
 828 006b 6F000000 		.4byte	0x6f
 829 006f 03       		.uleb128 0x3
 830 0070 02       		.byte	0x2
 831 0071 07       		.byte	0x7
 832 0072 7C020000 		.4byte	.LASF8
 833 0076 03       		.uleb128 0x3
 834 0077 04       		.byte	0x4
 835 0078 05       		.byte	0x5
 836 0079 A5000000 		.4byte	.LASF9
 837 007d 04       		.uleb128 0x4
 838 007e E4010000 		.4byte	.LASF10
 839 0082 03       		.byte	0x3
 840 0083 4F       		.byte	0x4f
 841 0084 19       		.byte	0x19
 842 0085 89000000 		.4byte	0x89
 843 0089 03       		.uleb128 0x3
ARM GAS  C:\Users\DEVELO~1\AppData\Local\Temp\ccs4FWN3.s 			page 16


 844 008a 04       		.byte	0x4
 845 008b 07       		.byte	0x7
 846 008c 5E020000 		.4byte	.LASF11
 847 0090 03       		.uleb128 0x3
 848 0091 08       		.byte	0x8
 849 0092 07       		.byte	0x7
 850 0093 CB000000 		.4byte	.LASF12
 851 0097 04       		.uleb128 0x4
 852 0098 98050000 		.4byte	.LASF13
 853 009c 04       		.byte	0x4
 854 009d 18       		.byte	0x18
 855 009e 13       		.byte	0x13
 856 009f 49000000 		.4byte	0x49
 857 00a3 04       		.uleb128 0x4
 858 00a4 9A010000 		.4byte	.LASF14
 859 00a8 04       		.byte	0x4
 860 00a9 24       		.byte	0x24
 861 00aa 14       		.byte	0x14
 862 00ab 63000000 		.4byte	0x63
 863 00af 04       		.uleb128 0x4
 864 00b0 AB040000 		.4byte	.LASF15
 865 00b4 04       		.byte	0x4
 866 00b5 30       		.byte	0x30
 867 00b6 14       		.byte	0x14
 868 00b7 7D000000 		.4byte	0x7d
 869 00bb 24       		.uleb128 0x24
 870 00bc AF000000 		.4byte	0xaf
 871 00c0 03       		.uleb128 0x3
 872 00c1 01       		.byte	0x1
 873 00c2 08       		.byte	0x8
 874 00c3 E3040000 		.4byte	.LASF16
 875 00c7 09       		.uleb128 0x9
 876 00c8 AF000000 		.4byte	0xaf
 877 00cc D7000000 		.4byte	0xd7
 878 00d0 0B       		.uleb128 0xb
 879 00d1 2D000000 		.4byte	0x2d
 880 00d5 03       		.byte	0x3
 881 00d6 00       		.byte	0
 882 00d7 16       		.uleb128 0x16
 883 00d8 14       		.byte	0x14
 884 00d9 4202     		.2byte	0x242
 885 00db 21010000 		.4byte	0x121
 886 00df 02       		.uleb128 0x2
 887 00e0 43435200 		.ascii	"CCR\000"
 888 00e4 4402     		.2byte	0x244
 889 00e6 11       		.byte	0x11
 890 00e7 BB000000 		.4byte	0xbb
 891 00eb 00       		.byte	0
 892 00ec 01       		.uleb128 0x1
 893 00ed 75050000 		.4byte	.LASF17
 894 00f1 4502     		.2byte	0x245
 895 00f3 11       		.byte	0x11
 896 00f4 BB000000 		.4byte	0xbb
 897 00f8 04       		.byte	0x4
 898 00f9 01       		.uleb128 0x1
 899 00fa 59020000 		.4byte	.LASF18
 900 00fe 4602     		.2byte	0x246
ARM GAS  C:\Users\DEVELO~1\AppData\Local\Temp\ccs4FWN3.s 			page 17


 901 0100 11       		.byte	0x11
 902 0101 BB000000 		.4byte	0xbb
 903 0105 08       		.byte	0x8
 904 0106 01       		.uleb128 0x1
 905 0107 E8000000 		.4byte	.LASF19
 906 010b 4702     		.2byte	0x247
 907 010d 11       		.byte	0x11
 908 010e BB000000 		.4byte	0xbb
 909 0112 0C       		.byte	0xc
 910 0113 01       		.uleb128 0x1
 911 0114 A0050000 		.4byte	.LASF20
 912 0118 4802     		.2byte	0x248
 913 011a 11       		.byte	0x11
 914 011b BB000000 		.4byte	0xbb
 915 011f 10       		.byte	0x10
 916 0120 00       		.byte	0
 917 0121 0F       		.uleb128 0xf
 918 0122 BC040000 		.4byte	.LASF21
 919 0126 4902     		.2byte	0x249
 920 0128 D7000000 		.4byte	0xd7
 921 012c 09       		.uleb128 0x9
 922 012d AF000000 		.4byte	0xaf
 923 0131 3C010000 		.4byte	0x13c
 924 0135 0B       		.uleb128 0xb
 925 0136 2D000000 		.4byte	0x2d
 926 013a 08       		.byte	0x8
 927 013b 00       		.byte	0
 928 013c 25       		.uleb128 0x25
 929 013d 3001     		.2byte	0x130
 930 013f 05       		.byte	0x5
 931 0140 CE04     		.2byte	0x4ce
 932 0142 09       		.byte	0x9
 933 0143 9D040000 		.4byte	0x49d
 934 0147 02       		.uleb128 0x2
 935 0148 435200   		.ascii	"CR\000"
 936 014b D004     		.2byte	0x4d0
 937 014d 10       		.byte	0x10
 938 014e BB000000 		.4byte	0xbb
 939 0152 00       		.byte	0
 940 0153 01       		.uleb128 0x1
 941 0154 99020000 		.4byte	.LASF22
 942 0158 D104     		.2byte	0x4d1
 943 015a 10       		.byte	0x10
 944 015b BB000000 		.4byte	0xbb
 945 015f 04       		.byte	0x4
 946 0160 01       		.uleb128 0x1
 947 0161 C3010000 		.4byte	.LASF23
 948 0165 D204     		.2byte	0x4d2
 949 0167 10       		.byte	0x10
 950 0168 BB000000 		.4byte	0xbb
 951 016c 08       		.byte	0x8
 952 016d 01       		.uleb128 0x1
 953 016e 44050000 		.4byte	.LASF24
 954 0172 D304     		.2byte	0x4d3
 955 0174 10       		.byte	0x10
 956 0175 BB000000 		.4byte	0xbb
 957 0179 0C       		.byte	0xc
ARM GAS  C:\Users\DEVELO~1\AppData\Local\Temp\ccs4FWN3.s 			page 18


 958 017a 01       		.uleb128 0x1
 959 017b C2050000 		.4byte	.LASF25
 960 017f D404     		.2byte	0x4d4
 961 0181 10       		.byte	0x10
 962 0182 BB000000 		.4byte	0xbb
 963 0186 10       		.byte	0x10
 964 0187 01       		.uleb128 0x1
 965 0188 02040000 		.4byte	.LASF26
 966 018c D504     		.2byte	0x4d5
 967 018e 0F       		.byte	0xf
 968 018f AF000000 		.4byte	0xaf
 969 0193 14       		.byte	0x14
 970 0194 01       		.uleb128 0x1
 971 0195 00060000 		.4byte	.LASF27
 972 0199 D604     		.2byte	0x4d6
 973 019b 10       		.byte	0x10
 974 019c BB000000 		.4byte	0xbb
 975 01a0 18       		.byte	0x18
 976 01a1 01       		.uleb128 0x1
 977 01a2 20040000 		.4byte	.LASF28
 978 01a6 D704     		.2byte	0x4d7
 979 01a8 10       		.byte	0x10
 980 01a9 BB000000 		.4byte	0xbb
 981 01ad 1C       		.byte	0x1c
 982 01ae 01       		.uleb128 0x1
 983 01af AF010000 		.4byte	.LASF29
 984 01b3 D804     		.2byte	0x4d8
 985 01b5 10       		.byte	0x10
 986 01b6 BB000000 		.4byte	0xbb
 987 01ba 20       		.byte	0x20
 988 01bb 01       		.uleb128 0x1
 989 01bc 0C040000 		.4byte	.LASF30
 990 01c0 D904     		.2byte	0x4d9
 991 01c2 0F       		.byte	0xf
 992 01c3 AF000000 		.4byte	0xaf
 993 01c7 24       		.byte	0x24
 994 01c8 01       		.uleb128 0x1
 995 01c9 8F020000 		.4byte	.LASF31
 996 01cd DA04     		.2byte	0x4da
 997 01cf 10       		.byte	0x10
 998 01d0 BB000000 		.4byte	0xbb
 999 01d4 28       		.byte	0x28
 1000 01d5 01       		.uleb128 0x1
 1001 01d6 B6010000 		.4byte	.LASF32
 1002 01da DB04     		.2byte	0x4db
 1003 01dc 10       		.byte	0x10
 1004 01dd BB000000 		.4byte	0xbb
 1005 01e1 2C       		.byte	0x2c
 1006 01e2 01       		.uleb128 0x1
 1007 01e3 00000000 		.4byte	.LASF33
 1008 01e7 DC04     		.2byte	0x4dc
 1009 01e9 10       		.byte	0x10
 1010 01ea BB000000 		.4byte	0xbb
 1011 01ee 30       		.byte	0x30
 1012 01ef 01       		.uleb128 0x1
 1013 01f0 70010000 		.4byte	.LASF34
 1014 01f4 DD04     		.2byte	0x4dd
ARM GAS  C:\Users\DEVELO~1\AppData\Local\Temp\ccs4FWN3.s 			page 19


 1015 01f6 10       		.byte	0x10
 1016 01f7 BB000000 		.4byte	0xbb
 1017 01fb 34       		.byte	0x34
 1018 01fc 01       		.uleb128 0x1
 1019 01fd 4B040000 		.4byte	.LASF35
 1020 0201 DE04     		.2byte	0x4de
 1021 0203 10       		.byte	0x10
 1022 0204 BB000000 		.4byte	0xbb
 1023 0208 38       		.byte	0x38
 1024 0209 01       		.uleb128 0x1
 1025 020a 2A020000 		.4byte	.LASF36
 1026 020e DF04     		.2byte	0x4df
 1027 0210 10       		.byte	0x10
 1028 0211 BB000000 		.4byte	0xbb
 1029 0215 3C       		.byte	0x3c
 1030 0216 01       		.uleb128 0x1
 1031 0217 CE010000 		.4byte	.LASF37
 1032 021b E004     		.2byte	0x4e0
 1033 021d 10       		.byte	0x10
 1034 021e BB000000 		.4byte	0xbb
 1035 0222 40       		.byte	0x40
 1036 0223 01       		.uleb128 0x1
 1037 0224 6C030000 		.4byte	.LASF38
 1038 0228 E104     		.2byte	0x4e1
 1039 022a 10       		.byte	0x10
 1040 022b BB000000 		.4byte	0xbb
 1041 022f 44       		.byte	0x44
 1042 0230 01       		.uleb128 0x1
 1043 0231 16040000 		.4byte	.LASF39
 1044 0235 E204     		.2byte	0x4e2
 1045 0237 10       		.byte	0x10
 1046 0238 AF000000 		.4byte	0xaf
 1047 023c 48       		.byte	0x48
 1048 023d 01       		.uleb128 0x1
 1049 023e B4040000 		.4byte	.LASF40
 1050 0242 E304     		.2byte	0x4e3
 1051 0244 11       		.byte	0x11
 1052 0245 BB000000 		.4byte	0xbb
 1053 0249 4C       		.byte	0x4c
 1054 024a 01       		.uleb128 0x1
 1055 024b 23010000 		.4byte	.LASF41
 1056 024f E404     		.2byte	0x4e4
 1057 0251 11       		.byte	0x11
 1058 0252 BB000000 		.4byte	0xbb
 1059 0256 50       		.byte	0x50
 1060 0257 01       		.uleb128 0x1
 1061 0258 B3020000 		.4byte	.LASF42
 1062 025c E504     		.2byte	0x4e5
 1063 025e 11       		.byte	0x11
 1064 025f BB000000 		.4byte	0xbb
 1065 0263 54       		.byte	0x54
 1066 0264 01       		.uleb128 0x1
 1067 0265 1D020000 		.4byte	.LASF43
 1068 0269 E604     		.2byte	0x4e6
 1069 026b 11       		.byte	0x11
 1070 026c BB000000 		.4byte	0xbb
 1071 0270 58       		.byte	0x58
ARM GAS  C:\Users\DEVELO~1\AppData\Local\Temp\ccs4FWN3.s 			page 20


 1072 0271 01       		.uleb128 0x1
 1073 0272 A1040000 		.4byte	.LASF44
 1074 0276 E704     		.2byte	0x4e7
 1075 0278 10       		.byte	0x10
 1076 0279 AF000000 		.4byte	0xaf
 1077 027d 5C       		.byte	0x5c
 1078 027e 01       		.uleb128 0x1
 1079 027f 36050000 		.4byte	.LASF45
 1080 0283 E804     		.2byte	0x4e8
 1081 0285 11       		.byte	0x11
 1082 0286 BB000000 		.4byte	0xbb
 1083 028a 60       		.byte	0x60
 1084 028b 01       		.uleb128 0x1
 1085 028c C9010000 		.4byte	.LASF46
 1086 0290 E904     		.2byte	0x4e9
 1087 0292 11       		.byte	0x11
 1088 0293 BB000000 		.4byte	0xbb
 1089 0297 64       		.byte	0x64
 1090 0298 01       		.uleb128 0x1
 1091 0299 25020000 		.4byte	.LASF47
 1092 029d EA04     		.2byte	0x4ea
 1093 029f 11       		.byte	0x11
 1094 02a0 BB000000 		.4byte	0xbb
 1095 02a4 68       		.byte	0x68
 1096 02a5 01       		.uleb128 0x1
 1097 02a6 27040000 		.4byte	.LASF48
 1098 02aa EB04     		.2byte	0x4eb
 1099 02ac 0F       		.byte	0xf
 1100 02ad AF000000 		.4byte	0xaf
 1101 02b1 6C       		.byte	0x6c
 1102 02b2 01       		.uleb128 0x1
 1103 02b3 7B050000 		.4byte	.LASF49
 1104 02b7 EC04     		.2byte	0x4ec
 1105 02b9 11       		.byte	0x11
 1106 02ba BB000000 		.4byte	0xbb
 1107 02be 70       		.byte	0x70
 1108 02bf 02       		.uleb128 0x2
 1109 02c0 43535200 		.ascii	"CSR\000"
 1110 02c4 ED04     		.2byte	0x4ed
 1111 02c6 11       		.byte	0x11
 1112 02c7 BB000000 		.4byte	0xbb
 1113 02cb 74       		.byte	0x74
 1114 02cc 01       		.uleb128 0x1
 1115 02cd 31040000 		.4byte	.LASF50
 1116 02d1 EE04     		.2byte	0x4ee
 1117 02d3 0F       		.byte	0xf
 1118 02d4 AF000000 		.4byte	0xaf
 1119 02d8 78       		.byte	0x78
 1120 02d9 01       		.uleb128 0x1
 1121 02da A1020000 		.4byte	.LASF51
 1122 02de EF04     		.2byte	0x4ef
 1123 02e0 10       		.byte	0x10
 1124 02e1 BB000000 		.4byte	0xbb
 1125 02e5 7C       		.byte	0x7c
 1126 02e6 01       		.uleb128 0x1
 1127 02e7 46010000 		.4byte	.LASF52
 1128 02eb F004     		.2byte	0x4f0
ARM GAS  C:\Users\DEVELO~1\AppData\Local\Temp\ccs4FWN3.s 			page 21


 1129 02ed 10       		.byte	0x10
 1130 02ee BB000000 		.4byte	0xbb
 1131 02f2 80       		.byte	0x80
 1132 02f3 01       		.uleb128 0x1
 1133 02f4 09050000 		.4byte	.LASF53
 1134 02f8 F104     		.2byte	0x4f1
 1135 02fa 10       		.byte	0x10
 1136 02fb BB000000 		.4byte	0xbb
 1137 02ff 84       		.byte	0x84
 1138 0300 01       		.uleb128 0x1
 1139 0301 57000000 		.4byte	.LASF54
 1140 0305 F204     		.2byte	0x4f2
 1141 0307 10       		.byte	0x10
 1142 0308 BB000000 		.4byte	0xbb
 1143 030c 88       		.byte	0x88
 1144 030d 01       		.uleb128 0x1
 1145 030e 3B050000 		.4byte	.LASF55
 1146 0312 F304     		.2byte	0x4f3
 1147 0314 10       		.byte	0x10
 1148 0315 BB000000 		.4byte	0xbb
 1149 0319 8C       		.byte	0x8c
 1150 031a 01       		.uleb128 0x1
 1151 031b 6B000000 		.4byte	.LASF56
 1152 031f F404     		.2byte	0x4f4
 1153 0321 10       		.byte	0x10
 1154 0322 BB000000 		.4byte	0xbb
 1155 0326 90       		.byte	0x90
 1156 0327 01       		.uleb128 0x1
 1157 0328 97040000 		.4byte	.LASF57
 1158 032c F504     		.2byte	0x4f5
 1159 032e 10       		.byte	0x10
 1160 032f BB000000 		.4byte	0xbb
 1161 0333 94       		.byte	0x94
 1162 0334 01       		.uleb128 0x1
 1163 0335 7A010000 		.4byte	.LASF58
 1164 0339 F604     		.2byte	0x4f6
 1165 033b 10       		.byte	0x10
 1166 033c BB000000 		.4byte	0xbb
 1167 0340 98       		.byte	0x98
 1168 0341 01       		.uleb128 0x1
 1169 0342 76030000 		.4byte	.LASF59
 1170 0346 F704     		.2byte	0x4f7
 1171 0348 10       		.byte	0x10
 1172 0349 BB000000 		.4byte	0xbb
 1173 034d 9C       		.byte	0x9c
 1174 034e 02       		.uleb128 0x2
 1175 034f 47435200 		.ascii	"GCR\000"
 1176 0353 F804     		.2byte	0x4f8
 1177 0355 10       		.byte	0x10
 1178 0356 BB000000 		.4byte	0xbb
 1179 035a A0       		.byte	0xa0
 1180 035b 01       		.uleb128 0x1
 1181 035c 3B040000 		.4byte	.LASF60
 1182 0360 F904     		.2byte	0x4f9
 1183 0362 0F       		.byte	0xf
 1184 0363 AF000000 		.4byte	0xaf
 1185 0367 A4       		.byte	0xa4
ARM GAS  C:\Users\DEVELO~1\AppData\Local\Temp\ccs4FWN3.s 			page 22


 1186 0368 01       		.uleb128 0x1
 1187 0369 E2000000 		.4byte	.LASF61
 1188 036d FA04     		.2byte	0x4fa
 1189 036f 10       		.byte	0x10
 1190 0370 BB000000 		.4byte	0xbb
 1191 0374 A8       		.byte	0xa8
 1192 0375 01       		.uleb128 0x1
 1193 0376 4F010000 		.4byte	.LASF62
 1194 037a FB04     		.2byte	0x4fb
 1195 037c 0F       		.byte	0xf
 1196 037d 2C010000 		.4byte	0x12c
 1197 0381 AC       		.byte	0xac
 1198 0382 02       		.uleb128 0x2
 1199 0383 52535200 		.ascii	"RSR\000"
 1200 0387 FC04     		.2byte	0x4fc
 1201 0389 10       		.byte	0x10
 1202 038a BB000000 		.4byte	0xbb
 1203 038e D0       		.byte	0xd0
 1204 038f 01       		.uleb128 0x1
 1205 0390 8F040000 		.4byte	.LASF63
 1206 0394 FD04     		.2byte	0x4fd
 1207 0396 10       		.byte	0x10
 1208 0397 BB000000 		.4byte	0xbb
 1209 039b D4       		.byte	0xd4
 1210 039c 01       		.uleb128 0x1
 1211 039d A6050000 		.4byte	.LASF64
 1212 03a1 FE04     		.2byte	0x4fe
 1213 03a3 10       		.byte	0x10
 1214 03a4 BB000000 		.4byte	0xbb
 1215 03a8 D8       		.byte	0xd8
 1216 03a9 01       		.uleb128 0x1
 1217 03aa 2E050000 		.4byte	.LASF65
 1218 03ae FF04     		.2byte	0x4ff
 1219 03b0 10       		.byte	0x10
 1220 03b1 BB000000 		.4byte	0xbb
 1221 03b5 DC       		.byte	0xdc
 1222 03b6 01       		.uleb128 0x1
 1223 03b7 EE030000 		.4byte	.LASF66
 1224 03bb 0005     		.2byte	0x500
 1225 03bd 10       		.byte	0x10
 1226 03be BB000000 		.4byte	0xbb
 1227 03c2 E0       		.byte	0xe0
 1228 03c3 01       		.uleb128 0x1
 1229 03c4 E6030000 		.4byte	.LASF67
 1230 03c8 0105     		.2byte	0x501
 1231 03ca 10       		.byte	0x10
 1232 03cb BB000000 		.4byte	0xbb
 1233 03cf E4       		.byte	0xe4
 1234 03d0 01       		.uleb128 0x1
 1235 03d1 E9050000 		.4byte	.LASF68
 1236 03d5 0205     		.2byte	0x502
 1237 03d7 10       		.byte	0x10
 1238 03d8 BB000000 		.4byte	0xbb
 1239 03dc E8       		.byte	0xe8
 1240 03dd 01       		.uleb128 0x1
 1241 03de AA020000 		.4byte	.LASF69
 1242 03e2 0305     		.2byte	0x503
ARM GAS  C:\Users\DEVELO~1\AppData\Local\Temp\ccs4FWN3.s 			page 23


 1243 03e4 10       		.byte	0x10
 1244 03e5 BB000000 		.4byte	0xbb
 1245 03e9 EC       		.byte	0xec
 1246 03ea 01       		.uleb128 0x1
 1247 03eb 87040000 		.4byte	.LASF70
 1248 03ef 0405     		.2byte	0x504
 1249 03f1 10       		.byte	0x10
 1250 03f2 BB000000 		.4byte	0xbb
 1251 03f6 F0       		.byte	0xf0
 1252 03f7 01       		.uleb128 0x1
 1253 03f8 7F030000 		.4byte	.LASF71
 1254 03fc 0505     		.2byte	0x505
 1255 03fe 10       		.byte	0x10
 1256 03ff BB000000 		.4byte	0xbb
 1257 0403 F4       		.byte	0xf4
 1258 0404 01       		.uleb128 0x1
 1259 0405 5A010000 		.4byte	.LASF72
 1260 0409 0605     		.2byte	0x506
 1261 040b 10       		.byte	0x10
 1262 040c AF000000 		.4byte	0xaf
 1263 0410 F8       		.byte	0xf8
 1264 0411 01       		.uleb128 0x1
 1265 0412 73040000 		.4byte	.LASF73
 1266 0416 0705     		.2byte	0x507
 1267 0418 10       		.byte	0x10
 1268 0419 BB000000 		.4byte	0xbb
 1269 041d FC       		.byte	0xfc
 1270 041e 05       		.uleb128 0x5
 1271 041f F3000000 		.4byte	.LASF74
 1272 0423 0805     		.2byte	0x508
 1273 0425 10       		.byte	0x10
 1274 0426 BB000000 		.4byte	0xbb
 1275 042a 0001     		.2byte	0x100
 1276 042c 05       		.uleb128 0x5
 1277 042d A7030000 		.4byte	.LASF75
 1278 0431 0905     		.2byte	0x509
 1279 0433 10       		.byte	0x10
 1280 0434 BB000000 		.4byte	0xbb
 1281 0438 0401     		.2byte	0x104
 1282 043a 05       		.uleb128 0x5
 1283 043b 24050000 		.4byte	.LASF76
 1284 043f 0A05     		.2byte	0x50a
 1285 0441 10       		.byte	0x10
 1286 0442 BB000000 		.4byte	0xbb
 1287 0446 0801     		.2byte	0x108
 1288 0448 05       		.uleb128 0x5
 1289 0449 B1030000 		.4byte	.LASF77
 1290 044d 0B05     		.2byte	0x50b
 1291 044f 10       		.byte	0x10
 1292 0450 BB000000 		.4byte	0xbb
 1293 0454 0C01     		.2byte	0x10c
 1294 0456 05       		.uleb128 0x5
 1295 0457 4C050000 		.4byte	.LASF78
 1296 045b 0C05     		.2byte	0x50c
 1297 045d 10       		.byte	0x10
 1298 045e BB000000 		.4byte	0xbb
 1299 0462 1001     		.2byte	0x110
ARM GAS  C:\Users\DEVELO~1\AppData\Local\Temp\ccs4FWN3.s 			page 24


 1300 0464 05       		.uleb128 0x5
 1301 0465 9A000000 		.4byte	.LASF79
 1302 0469 0D05     		.2byte	0x50d
 1303 046b 10       		.byte	0x10
 1304 046c BB000000 		.4byte	0xbb
 1305 0470 1401     		.2byte	0x114
 1306 0472 05       		.uleb128 0x5
 1307 0473 62030000 		.4byte	.LASF80
 1308 0477 0E05     		.2byte	0x50e
 1309 0479 10       		.byte	0x10
 1310 047a BB000000 		.4byte	0xbb
 1311 047e 1801     		.2byte	0x118
 1312 0480 05       		.uleb128 0x5
 1313 0481 7D040000 		.4byte	.LASF81
 1314 0485 0F05     		.2byte	0x50f
 1315 0487 10       		.byte	0x10
 1316 0488 BB000000 		.4byte	0xbb
 1317 048c 1C01     		.2byte	0x11c
 1318 048e 05       		.uleb128 0x5
 1319 048f 65010000 		.4byte	.LASF82
 1320 0493 1005     		.2byte	0x510
 1321 0495 0F       		.byte	0xf
 1322 0496 C7000000 		.4byte	0xc7
 1323 049a 2001     		.2byte	0x120
 1324 049c 00       		.byte	0
 1325 049d 0F       		.uleb128 0xf
 1326 049e 70020000 		.4byte	.LASF83
 1327 04a2 1205     		.2byte	0x512
 1328 04a4 3C010000 		.4byte	0x13c
 1329 04a8 16       		.uleb128 0x16
 1330 04a9 6C       		.byte	0x6c
 1331 04aa F205     		.2byte	0x5f2
 1332 04ac 0F060000 		.4byte	0x60f
 1333 04b0 02       		.uleb128 0x2
 1334 04b1 43523100 		.ascii	"CR1\000"
 1335 04b5 F405     		.2byte	0x5f4
 1336 04b7 11       		.byte	0x11
 1337 04b8 BB000000 		.4byte	0xbb
 1338 04bc 00       		.byte	0
 1339 04bd 02       		.uleb128 0x2
 1340 04be 43523200 		.ascii	"CR2\000"
 1341 04c2 F505     		.2byte	0x5f5
 1342 04c4 11       		.byte	0x11
 1343 04c5 BB000000 		.4byte	0xbb
 1344 04c9 04       		.byte	0x4
 1345 04ca 01       		.uleb128 0x1
 1346 04cb ED040000 		.4byte	.LASF84
 1347 04cf F605     		.2byte	0x5f6
 1348 04d1 11       		.byte	0x11
 1349 04d2 BB000000 		.4byte	0xbb
 1350 04d6 08       		.byte	0x8
 1351 04d7 01       		.uleb128 0x1
 1352 04d8 47000000 		.4byte	.LASF85
 1353 04dc F705     		.2byte	0x5f7
 1354 04de 11       		.byte	0x11
 1355 04df BB000000 		.4byte	0xbb
 1356 04e3 0C       		.byte	0xc
ARM GAS  C:\Users\DEVELO~1\AppData\Local\Temp\ccs4FWN3.s 			page 25


 1357 04e4 02       		.uleb128 0x2
 1358 04e5 535200   		.ascii	"SR\000"
 1359 04e8 F805     		.2byte	0x5f8
 1360 04ea 11       		.byte	0x11
 1361 04eb BB000000 		.4byte	0xbb
 1362 04ef 10       		.byte	0x10
 1363 04f0 02       		.uleb128 0x2
 1364 04f1 45475200 		.ascii	"EGR\000"
 1365 04f5 F905     		.2byte	0x5f9
 1366 04f7 11       		.byte	0x11
 1367 04f8 BB000000 		.4byte	0xbb
 1368 04fc 14       		.byte	0x14
 1369 04fd 01       		.uleb128 0x1
 1370 04fe 1D010000 		.4byte	.LASF86
 1371 0502 FA05     		.2byte	0x5fa
 1372 0504 11       		.byte	0x11
 1373 0505 BB000000 		.4byte	0xbb
 1374 0509 18       		.byte	0x18
 1375 050a 01       		.uleb128 0x1
 1376 050b 8E000000 		.4byte	.LASF87
 1377 050f FB05     		.2byte	0x5fb
 1378 0511 11       		.byte	0x11
 1379 0512 BB000000 		.4byte	0xbb
 1380 0516 1C       		.byte	0x1c
 1381 0517 01       		.uleb128 0x1
 1382 0518 95010000 		.4byte	.LASF88
 1383 051c FC05     		.2byte	0x5fc
 1384 051e 11       		.byte	0x11
 1385 051f BB000000 		.4byte	0xbb
 1386 0523 20       		.byte	0x20
 1387 0524 02       		.uleb128 0x2
 1388 0525 434E5400 		.ascii	"CNT\000"
 1389 0529 FD05     		.2byte	0x5fd
 1390 052b 11       		.byte	0x11
 1391 052c BB000000 		.4byte	0xbb
 1392 0530 24       		.byte	0x24
 1393 0531 02       		.uleb128 0x2
 1394 0532 50534300 		.ascii	"PSC\000"
 1395 0536 FE05     		.2byte	0x5fe
 1396 0538 11       		.byte	0x11
 1397 0539 BB000000 		.4byte	0xbb
 1398 053d 28       		.byte	0x28
 1399 053e 02       		.uleb128 0x2
 1400 053f 41525200 		.ascii	"ARR\000"
 1401 0543 FF05     		.2byte	0x5ff
 1402 0545 11       		.byte	0x11
 1403 0546 BB000000 		.4byte	0xbb
 1404 054a 2C       		.byte	0x2c
 1405 054b 02       		.uleb128 0x2
 1406 054c 52435200 		.ascii	"RCR\000"
 1407 0550 0006     		.2byte	0x600
 1408 0552 11       		.byte	0x11
 1409 0553 BB000000 		.4byte	0xbb
 1410 0557 30       		.byte	0x30
 1411 0558 01       		.uleb128 0x1
 1412 0559 57050000 		.4byte	.LASF89
 1413 055d 0106     		.2byte	0x601
ARM GAS  C:\Users\DEVELO~1\AppData\Local\Temp\ccs4FWN3.s 			page 26


 1414 055f 11       		.byte	0x11
 1415 0560 BB000000 		.4byte	0xbb
 1416 0564 34       		.byte	0x34
 1417 0565 01       		.uleb128 0x1
 1418 0566 5C050000 		.4byte	.LASF90
 1419 056a 0206     		.2byte	0x602
 1420 056c 11       		.byte	0x11
 1421 056d BB000000 		.4byte	0xbb
 1422 0571 38       		.byte	0x38
 1423 0572 01       		.uleb128 0x1
 1424 0573 61050000 		.4byte	.LASF91
 1425 0577 0306     		.2byte	0x603
 1426 0579 11       		.byte	0x11
 1427 057a BB000000 		.4byte	0xbb
 1428 057e 3C       		.byte	0x3c
 1429 057f 01       		.uleb128 0x1
 1430 0580 66050000 		.4byte	.LASF92
 1431 0584 0406     		.2byte	0x604
 1432 0586 11       		.byte	0x11
 1433 0587 BB000000 		.4byte	0xbb
 1434 058b 40       		.byte	0x40
 1435 058c 01       		.uleb128 0x1
 1436 058d EE000000 		.4byte	.LASF93
 1437 0591 0506     		.2byte	0x605
 1438 0593 11       		.byte	0x11
 1439 0594 BB000000 		.4byte	0xbb
 1440 0598 44       		.byte	0x44
 1441 0599 02       		.uleb128 0x2
 1442 059a 44435200 		.ascii	"DCR\000"
 1443 059e 0606     		.2byte	0x606
 1444 05a0 11       		.byte	0x11
 1445 05a1 BB000000 		.4byte	0xbb
 1446 05a5 48       		.byte	0x48
 1447 05a6 01       		.uleb128 0x1
 1448 05a7 CF030000 		.4byte	.LASF94
 1449 05ab 0706     		.2byte	0x607
 1450 05ad 11       		.byte	0x11
 1451 05ae BB000000 		.4byte	0xbb
 1452 05b2 4C       		.byte	0x4c
 1453 05b3 01       		.uleb128 0x1
 1454 05b4 02040000 		.4byte	.LASF26
 1455 05b8 0806     		.2byte	0x608
 1456 05ba 11       		.byte	0x11
 1457 05bb AF000000 		.4byte	0xaf
 1458 05bf 50       		.byte	0x50
 1459 05c0 01       		.uleb128 0x1
 1460 05c1 94000000 		.4byte	.LASF95
 1461 05c5 0906     		.2byte	0x609
 1462 05c7 11       		.byte	0x11
 1463 05c8 BB000000 		.4byte	0xbb
 1464 05cc 54       		.byte	0x54
 1465 05cd 01       		.uleb128 0x1
 1466 05ce 6B050000 		.4byte	.LASF96
 1467 05d2 0A06     		.2byte	0x60a
 1468 05d4 11       		.byte	0x11
 1469 05d5 BB000000 		.4byte	0xbb
 1470 05d9 58       		.byte	0x58
ARM GAS  C:\Users\DEVELO~1\AppData\Local\Temp\ccs4FWN3.s 			page 27


 1471 05da 01       		.uleb128 0x1
 1472 05db 70050000 		.4byte	.LASF97
 1473 05df 0B06     		.2byte	0x60b
 1474 05e1 11       		.byte	0x11
 1475 05e2 BB000000 		.4byte	0xbb
 1476 05e6 5C       		.byte	0x5c
 1477 05e7 02       		.uleb128 0x2
 1478 05e8 41463100 		.ascii	"AF1\000"
 1479 05ec 0C06     		.2byte	0x60c
 1480 05ee 11       		.byte	0x11
 1481 05ef BB000000 		.4byte	0xbb
 1482 05f3 60       		.byte	0x60
 1483 05f4 02       		.uleb128 0x2
 1484 05f5 41463200 		.ascii	"AF2\000"
 1485 05f9 0D06     		.2byte	0x60d
 1486 05fb 11       		.byte	0x11
 1487 05fc BB000000 		.4byte	0xbb
 1488 0600 64       		.byte	0x64
 1489 0601 01       		.uleb128 0x1
 1490 0602 BC020000 		.4byte	.LASF98
 1491 0606 0E06     		.2byte	0x60e
 1492 0608 11       		.byte	0x11
 1493 0609 BB000000 		.4byte	0xbb
 1494 060d 68       		.byte	0x68
 1495 060e 00       		.byte	0
 1496 060f 0F       		.uleb128 0xf
 1497 0610 AE000000 		.4byte	.LASF99
 1498 0614 0F06     		.2byte	0x60f
 1499 0616 A8040000 		.4byte	0x4a8
 1500 061a 03       		.uleb128 0x3
 1501 061b 01       		.byte	0x1
 1502 061c 02       		.byte	0x2
 1503 061d 45040000 		.4byte	.LASF100
 1504 0621 17       		.uleb128 0x17
 1505 0622 03       		.byte	0x3
 1506 0623 10       		.byte	0x10
 1507 0624 44060000 		.4byte	0x644
 1508 0628 10       		.uleb128 0x10
 1509 0629 6700     		.ascii	"g\000"
 1510 062b 11       		.byte	0x11
 1511 062c 97000000 		.4byte	0x97
 1512 0630 00       		.byte	0
 1513 0631 10       		.uleb128 0x10
 1514 0632 7200     		.ascii	"r\000"
 1515 0634 12       		.byte	0x12
 1516 0635 97000000 		.4byte	0x97
 1517 0639 01       		.byte	0x1
 1518 063a 10       		.uleb128 0x10
 1519 063b 6200     		.ascii	"b\000"
 1520 063d 13       		.byte	0x13
 1521 063e 97000000 		.4byte	0x97
 1522 0642 02       		.byte	0x2
 1523 0643 00       		.byte	0
 1524 0644 04       		.uleb128 0x4
 1525 0645 18050000 		.4byte	.LASF101
 1526 0649 06       		.byte	0x6
 1527 064a 14       		.byte	0x14
ARM GAS  C:\Users\DEVELO~1\AppData\Local\Temp\ccs4FWN3.s 			page 28


 1528 064b 03       		.byte	0x3
 1529 064c 21060000 		.4byte	0x621
 1530 0650 26       		.uleb128 0x26
 1531 0651 07       		.byte	0x7
 1532 0652 01       		.byte	0x1
 1533 0653 55000000 		.4byte	0x55
 1534 0657 06       		.byte	0x6
 1535 0658 4A       		.byte	0x4a
 1536 0659 0E       		.byte	0xe
 1537 065a 77060000 		.4byte	0x677
 1538 065e 0C       		.uleb128 0xc
 1539 065f D7010000 		.4byte	.LASF102
 1540 0663 00       		.byte	0
 1541 0664 0C       		.uleb128 0xc
 1542 0665 F6030000 		.4byte	.LASF103
 1543 0669 01       		.byte	0x1
 1544 066a 0C       		.uleb128 0xc
 1545 066b 7F000000 		.4byte	.LASF104
 1546 066f 02       		.byte	0x2
 1547 0670 0C       		.uleb128 0xc
 1548 0671 D4030000 		.4byte	.LASF105
 1549 0675 03       		.byte	0x3
 1550 0676 00       		.byte	0
 1551 0677 04       		.uleb128 0x4
 1552 0678 12010000 		.4byte	.LASF106
 1553 067c 06       		.byte	0x6
 1554 067d 4F       		.byte	0x4f
 1555 067e 03       		.byte	0x3
 1556 067f 50060000 		.4byte	0x650
 1557 0683 17       		.uleb128 0x17
 1558 0684 04       		.byte	0x4
 1559 0685 51       		.byte	0x51
 1560 0686 A1060000 		.4byte	0x6a1
 1561 068a 18       		.uleb128 0x18
 1562 068b DD040000 		.4byte	.LASF107
 1563 068f 52       		.byte	0x52
 1564 0690 44060000 		.4byte	0x644
 1565 0694 00       		.byte	0
 1566 0695 18       		.uleb128 0x18
 1567 0696 E8040000 		.4byte	.LASF108
 1568 069a 53       		.byte	0x53
 1569 069b 77060000 		.4byte	0x677
 1570 069f 03       		.byte	0x3
 1571 06a0 00       		.byte	0
 1572 06a1 04       		.uleb128 0x4
 1573 06a2 F2040000 		.4byte	.LASF109
 1574 06a6 06       		.byte	0x6
 1575 06a7 54       		.byte	0x54
 1576 06a8 03       		.byte	0x3
 1577 06a9 83060000 		.4byte	0x683
 1578 06ad 09       		.uleb128 0x9
 1579 06ae A1060000 		.4byte	0x6a1
 1580 06b2 BD060000 		.4byte	0x6bd
 1581 06b6 0B       		.uleb128 0xb
 1582 06b7 2D000000 		.4byte	0x2d
 1583 06bb 18       		.byte	0x18
 1584 06bc 00       		.byte	0
ARM GAS  C:\Users\DEVELO~1\AppData\Local\Temp\ccs4FWN3.s 			page 29


 1585 06bd 27       		.uleb128 0x27
 1586 06be AE050000 		.4byte	.LASF130
 1587 06c2 06       		.byte	0x6
 1588 06c3 57       		.byte	0x57
 1589 06c4 14       		.byte	0x14
 1590 06c5 AD060000 		.4byte	0x6ad
 1591 06c9 09       		.uleb128 0x9
 1592 06ca A3000000 		.4byte	0xa3
 1593 06ce DA060000 		.4byte	0x6da
 1594 06d2 28       		.uleb128 0x28
 1595 06d3 2D000000 		.4byte	0x2d
 1596 06d7 A702     		.2byte	0x2a7
 1597 06d9 00       		.byte	0
 1598 06da 11       		.uleb128 0x11
 1599 06db 4C000000 		.4byte	.LASF110
 1600 06df 19       		.byte	0x19
 1601 06e0 11       		.byte	0x11
 1602 06e1 C9060000 		.4byte	0x6c9
 1603 06e5 05       		.uleb128 0x5
 1604 06e6 03       		.byte	0x3
 1605 06e7 00000000 		.4byte	pwm_buffer
 1606 06eb 09       		.uleb128 0x9
 1607 06ec 44060000 		.4byte	0x644
 1608 06f0 FB060000 		.4byte	0x6fb
 1609 06f4 0B       		.uleb128 0xb
 1610 06f5 2D000000 		.4byte	0x2d
 1611 06f9 18       		.byte	0x18
 1612 06fa 00       		.byte	0
 1613 06fb 11       		.uleb128 0x11
 1614 06fc 60000000 		.4byte	.LASF111
 1615 0700 1A       		.byte	0x1a
 1616 0701 14       		.byte	0x14
 1617 0702 EB060000 		.4byte	0x6eb
 1618 0706 05       		.uleb128 0x5
 1619 0707 03       		.byte	0x3
 1620 0708 00000000 		.4byte	led_buffer
 1621 070c 29       		.uleb128 0x29
 1622 070d BD060000 		.4byte	0x6bd
 1623 0711 01       		.byte	0x1
 1624 0712 1B       		.byte	0x1b
 1625 0713 0D       		.byte	0xd
 1626 0714 05       		.uleb128 0x5
 1627 0715 03       		.byte	0x3
 1628 0716 00000000 		.4byte	drv_leds_addr_state
 1629 071a 0A       		.uleb128 0xa
 1630 071b D4050000 		.4byte	.LASF113
 1631 071f 80       		.byte	0x80
 1632 0720 00000000 		.4byte	.LFB457
 1633 0724 5C000000 		.4byte	.LFE457-.LFB457
 1634 0728 01       		.uleb128 0x1
 1635 0729 9C       		.byte	0x9c
 1636 072a B3070000 		.4byte	0x7b3
 1637 072e 11       		.uleb128 0x11
 1638 072f BE010000 		.4byte	.LASF112
 1639 0733 81       		.byte	0x81
 1640 0734 15       		.byte	0x15
 1641 0735 AF000000 		.4byte	0xaf
ARM GAS  C:\Users\DEVELO~1\AppData\Local\Temp\ccs4FWN3.s 			page 30


 1642 0739 05       		.uleb128 0x5
 1643 073a 03       		.byte	0x3
 1644 073b 00000000 		.4byte	tick.0
 1645 073f 2A       		.uleb128 0x2a
 1646 0740 26000000 		.4byte	.LBB91
 1647 0744 22000000 		.4byte	.LBE91-.LBB91
 1648 0748 7E070000 		.4byte	0x77e
 1649 074c 06       		.uleb128 0x6
 1650 074d 6900     		.ascii	"i\000"
 1651 074f 86       		.byte	0x86
 1652 0750 0E       		.byte	0xe
 1653 0751 26000000 		.4byte	0x26
 1654 0755 2B       		.uleb128 0x2b
 1655 0756 03080000 		.4byte	0x803
 1656 075a 34000000 		.4byte	.LBI92
 1657 075e 00       		.byte	.LVU188
 1658 075f 34000000 		.4byte	.LBB92
 1659 0763 0C000000 		.4byte	.LBE92-.LBB92
 1660 0767 01       		.byte	0x1
 1661 0768 88       		.byte	0x88
 1662 0769 0D       		.byte	0xd
 1663 076a 08       		.uleb128 0x8
 1664 076b 18080000 		.4byte	0x818
 1665 076f 12000000 		.4byte	.LLST22
 1666 0773 0C000000 		.4byte	.LVUS22
 1667 0777 2C       		.uleb128 0x2c
 1668 0778 0D080000 		.4byte	0x80d
 1669 077c 00       		.byte	0
 1670 077d 00       		.byte	0
 1671 077e 12       		.uleb128 0x12
 1672 077f ED070000 		.4byte	0x7ed
 1673 0783 12000000 		.4byte	.LBI82
 1674 0787 01       		.byte	.LVU172
 1675 0788 75000000 		.4byte	.LLRL20
 1676 078c 84       		.byte	0x84
 1677 078d A9070000 		.4byte	0x7a9
 1678 0791 19       		.uleb128 0x19
 1679 0792 F7070000 		.4byte	0x7f7
 1680 0796 75000000 		.4byte	.LLRL20
 1681 079a 07       		.uleb128 0x7
 1682 079b F8070000 		.4byte	0x7f8
 1683 079f 3F000000 		.4byte	.LLST21
 1684 07a3 3D000000 		.4byte	.LVUS21
 1685 07a7 00       		.byte	0
 1686 07a8 00       		.byte	0
 1687 07a9 2D       		.uleb128 0x2d
 1688 07aa 50000000 		.4byte	.LVL28
 1689 07ae 75080000 		.4byte	0x875
 1690 07b2 00       		.byte	0
 1691 07b3 0A       		.uleb128 0xa
 1692 07b4 83010000 		.4byte	.LASF114
 1693 07b8 7A       		.byte	0x7a
 1694 07b9 00000000 		.4byte	.LFB456
 1695 07bd 24000000 		.4byte	.LFE456-.LFB456
 1696 07c1 01       		.uleb128 0x1
 1697 07c2 9C       		.byte	0x9c
 1698 07c3 ED070000 		.4byte	0x7ed
ARM GAS  C:\Users\DEVELO~1\AppData\Local\Temp\ccs4FWN3.s 			page 31


 1699 07c7 13       		.uleb128 0x13
 1700 07c8 12050000 		.4byte	.LASF115
 1701 07cc 1C       		.byte	0x1c
 1702 07cd 26000000 		.4byte	0x26
 1703 07d1 01       		.uleb128 0x1
 1704 07d2 50       		.byte	0x50
 1705 07d3 13       		.uleb128 0x13
 1706 07d4 DD040000 		.4byte	.LASF107
 1707 07d8 2F       		.byte	0x2f
 1708 07d9 44060000 		.4byte	0x644
 1709 07dd 02       		.uleb128 0x2
 1710 07de 91       		.byte	0x91
 1711 07df 7C       		.sleb128 -4
 1712 07e0 13       		.uleb128 0x13
 1713 07e1 E8040000 		.4byte	.LASF108
 1714 07e5 41       		.byte	0x41
 1715 07e6 77060000 		.4byte	0x677
 1716 07ea 01       		.uleb128 0x1
 1717 07eb 52       		.byte	0x52
 1718 07ec 00       		.byte	0
 1719 07ed 1A       		.uleb128 0x1a
 1720 07ee BB030000 		.4byte	.LASF116
 1721 07f2 75       		.byte	0x75
 1722 07f3 03080000 		.4byte	0x803
 1723 07f7 0D       		.uleb128 0xd
 1724 07f8 06       		.uleb128 0x6
 1725 07f9 6900     		.ascii	"i\000"
 1726 07fb 76       		.byte	0x76
 1727 07fc 0E       		.byte	0xe
 1728 07fd 26000000 		.4byte	0x26
 1729 0801 00       		.byte	0
 1730 0802 00       		.byte	0
 1731 0803 1A       		.uleb128 0x1a
 1732 0804 80050000 		.4byte	.LASF117
 1733 0808 70       		.byte	0x70
 1734 0809 24080000 		.4byte	0x824
 1735 080d 1B       		.uleb128 0x1b
 1736 080e 12050000 		.4byte	.LASF115
 1737 0812 70       		.byte	0x70
 1738 0813 22       		.byte	0x22
 1739 0814 26000000 		.4byte	0x26
 1740 0818 1B       		.uleb128 0x1b
 1741 0819 DD040000 		.4byte	.LASF107
 1742 081d 70       		.byte	0x70
 1743 081e 35       		.byte	0x35
 1744 081f 44060000 		.4byte	0x644
 1745 0823 00       		.byte	0
 1746 0824 0A       		.uleb128 0xa
 1747 0825 07020000 		.4byte	.LASF118
 1748 0829 69       		.byte	0x69
 1749 082a 00000000 		.4byte	.LFB453
 1750 082e 20000000 		.4byte	.LFE453-.LFB453
 1751 0832 01       		.uleb128 0x1
 1752 0833 9C       		.byte	0x9c
 1753 0834 75080000 		.4byte	0x875
 1754 0838 2E       		.uleb128 0x2e
 1755 0839 12050000 		.4byte	.LASF115
ARM GAS  C:\Users\DEVELO~1\AppData\Local\Temp\ccs4FWN3.s 			page 32


 1756 083d 01       		.byte	0x1
 1757 083e 69       		.byte	0x69
 1758 083f 20       		.byte	0x20
 1759 0840 26000000 		.4byte	0x26
 1760 0844 4F000000 		.4byte	.LLST16
 1761 0848 49000000 		.4byte	.LVUS16
 1762 084c 1C       		.uleb128 0x1c
 1763 084d 7200     		.ascii	"r\000"
 1764 084f 69       		.byte	0x69
 1765 0850 2F       		.byte	0x2f
 1766 0851 97000000 		.4byte	0x97
 1767 0855 01       		.uleb128 0x1
 1768 0856 51       		.byte	0x51
 1769 0857 2F       		.uleb128 0x2f
 1770 0858 6700     		.ascii	"g\000"
 1771 085a 01       		.byte	0x1
 1772 085b 69       		.byte	0x69
 1773 085c 3A       		.byte	0x3a
 1774 085d 97000000 		.4byte	0x97
 1775 0861 6D000000 		.4byte	.LLST17
 1776 0865 67000000 		.4byte	.LVUS17
 1777 0869 1C       		.uleb128 0x1c
 1778 086a 6200     		.ascii	"b\000"
 1779 086c 69       		.byte	0x69
 1780 086d 45       		.byte	0x45
 1781 086e 97000000 		.4byte	0x97
 1782 0872 01       		.uleb128 0x1
 1783 0873 53       		.byte	0x53
 1784 0874 00       		.byte	0
 1785 0875 0A       		.uleb128 0xa
 1786 0876 FD000000 		.4byte	.LASF119
 1787 087a 61       		.byte	0x61
 1788 087b 00000000 		.4byte	.LFB452
 1789 087f 78000000 		.4byte	.LFE452-.LFB452
 1790 0883 01       		.uleb128 0x1
 1791 0884 9C       		.byte	0x9c
 1792 0885 2B090000 		.4byte	0x92b
 1793 0889 14       		.uleb128 0x14
 1794 088a E8090000 		.4byte	0x9e8
 1795 088e 00000000 		.4byte	.LBI59
 1796 0892 02       		.byte	.LVU72
 1797 0893 4E000000 		.4byte	.LLRL9
 1798 0897 62       		.byte	0x62
 1799 0898 30       		.uleb128 0x30
 1800 0899 4E000000 		.4byte	.LLRL9
 1801 089d 07       		.uleb128 0x7
 1802 089e F5090000 		.4byte	0x9f5
 1803 08a2 89000000 		.4byte	.LLST10
 1804 08a6 83000000 		.4byte	.LVUS10
 1805 08aa 31       		.uleb128 0x31
 1806 08ab 000A0000 		.4byte	0xa00
 1807 08af 5A000000 		.4byte	.LLRL11
 1808 08b3 F7080000 		.4byte	0x8f7
 1809 08b7 07       		.uleb128 0x7
 1810 08b8 050A0000 		.4byte	0xa05
 1811 08bc A1000000 		.4byte	.LLST12
 1812 08c0 9F000000 		.4byte	.LVUS12
ARM GAS  C:\Users\DEVELO~1\AppData\Local\Temp\ccs4FWN3.s 			page 33


 1813 08c4 0E       		.uleb128 0xe
 1814 08c5 0E0A0000 		.4byte	0xa0e
 1815 08c9 08000000 		.4byte	.LBB62
 1816 08cd 2E000000 		.4byte	.LBE62-.LBB62
 1817 08d1 07       		.uleb128 0x7
 1818 08d2 0F0A0000 		.4byte	0xa0f
 1819 08d6 AF000000 		.4byte	.LLST13
 1820 08da AB000000 		.4byte	.LVUS13
 1821 08de 19       		.uleb128 0x19
 1822 08df 1A0A0000 		.4byte	0xa1a
 1823 08e3 66000000 		.4byte	.LLRL14
 1824 08e7 07       		.uleb128 0x7
 1825 08e8 1B0A0000 		.4byte	0xa1b
 1826 08ec DD000000 		.4byte	.LLST15
 1827 08f0 D5000000 		.4byte	.LVUS15
 1828 08f4 00       		.byte	0
 1829 08f5 00       		.byte	0
 1830 08f6 00       		.byte	0
 1831 08f7 0E       		.uleb128 0xe
 1832 08f8 290A0000 		.4byte	0xa29
 1833 08fc 40000000 		.4byte	.LBB67
 1834 0900 0A000000 		.4byte	.LBE67-.LBB67
 1835 0904 32       		.uleb128 0x32
 1836 0905 2A0A0000 		.4byte	0xa2a
 1837 0909 33       		.uleb128 0x33
 1838 090a 4A000000 		.4byte	.LVL12
 1839 090e DB0A0000 		.4byte	0xadb
 1840 0912 15       		.uleb128 0x15
 1841 0913 01       		.uleb128 0x1
 1842 0914 50       		.byte	0x50
 1843 0915 05       		.uleb128 0x5
 1844 0916 03       		.byte	0x3
 1845 0917 B0040000 		.4byte	.LANCHOR0+1200
 1846 091b 15       		.uleb128 0x15
 1847 091c 01       		.uleb128 0x1
 1848 091d 51       		.byte	0x51
 1849 091e 01       		.uleb128 0x1
 1850 091f 30       		.byte	0x30
 1851 0920 15       		.uleb128 0x15
 1852 0921 01       		.uleb128 0x1
 1853 0922 52       		.byte	0x52
 1854 0923 02       		.uleb128 0x2
 1855 0924 08       		.byte	0x8
 1856 0925 A0       		.byte	0xa0
 1857 0926 00       		.byte	0
 1858 0927 00       		.byte	0
 1859 0928 00       		.byte	0
 1860 0929 00       		.byte	0
 1861 092a 00       		.byte	0
 1862 092b 0A       		.uleb128 0xa
 1863 092c F4010000 		.4byte	.LASF120
 1864 0930 5B       		.byte	0x5b
 1865 0931 00000000 		.4byte	.LFB451
 1866 0935 B8000000 		.4byte	.LFE451-.LFB451
 1867 0939 01       		.uleb128 0x1
 1868 093a 9C       		.byte	0x9c
 1869 093b E8090000 		.4byte	0x9e8
ARM GAS  C:\Users\DEVELO~1\AppData\Local\Temp\ccs4FWN3.s 			page 34


 1870 093f 12       		.uleb128 0x12
 1871 0940 3B0A0000 		.4byte	0xa3b
 1872 0944 00000000 		.4byte	.LBI21
 1873 0948 02       		.byte	.LVU2
 1874 0949 0C000000 		.4byte	.LLRL0
 1875 094d 5C       		.byte	0x5c
 1876 094e 7D090000 		.4byte	0x97d
 1877 0952 14       		.uleb128 0x14
 1878 0953 620A0000 		.4byte	0xa62
 1879 0957 00000000 		.4byte	.LBI23
 1880 095b 04       		.byte	.LVU4
 1881 095c 1E000000 		.4byte	.LLRL1
 1882 0960 20       		.byte	0x20
 1883 0961 08       		.uleb128 0x8
 1884 0962 780A0000 		.4byte	0xa78
 1885 0966 FC000000 		.4byte	.LLST2
 1886 096a FA000000 		.4byte	.LVUS2
 1887 096e 08       		.uleb128 0x8
 1888 096f 6D0A0000 		.4byte	0xa6d
 1889 0973 08010000 		.4byte	.LLST3
 1890 0977 06010000 		.4byte	.LVUS3
 1891 097b 00       		.byte	0
 1892 097c 00       		.byte	0
 1893 097d 12       		.uleb128 0x12
 1894 097e 350A0000 		.4byte	0xa35
 1895 0982 58000000 		.4byte	.LBI37
 1896 0986 01       		.byte	.LVU38
 1897 0987 33000000 		.4byte	.LLRL4
 1898 098b 5D       		.byte	0x5d
 1899 098c BB090000 		.4byte	0x9bb
 1900 0990 14       		.uleb128 0x14
 1901 0991 410A0000 		.4byte	0xa41
 1902 0995 58000000 		.4byte	.LBI39
 1903 0999 03       		.byte	.LVU40
 1904 099a 42000000 		.4byte	.LLRL5
 1905 099e 32       		.byte	0x32
 1906 099f 08       		.uleb128 0x8
 1907 09a0 570A0000 		.4byte	0xa57
 1908 09a4 14010000 		.4byte	.LLST6
 1909 09a8 12010000 		.4byte	.LVUS6
 1910 09ac 08       		.uleb128 0x8
 1911 09ad 4C0A0000 		.4byte	0xa4c
 1912 09b1 20010000 		.4byte	.LLST7
 1913 09b5 1E010000 		.4byte	.LVUS7
 1914 09b9 00       		.byte	0
 1915 09ba 00       		.byte	0
 1916 09bb 34       		.uleb128 0x34
 1917 09bc ED070000 		.4byte	0x7ed
 1918 09c0 8A000000 		.4byte	.LBB49
 1919 09c4 10000000 		.4byte	.LBE49-.LBB49
 1920 09c8 01       		.byte	0x1
 1921 09c9 5E       		.byte	0x5e
 1922 09ca 05       		.byte	0x5
 1923 09cb 0E       		.uleb128 0xe
 1924 09cc F7070000 		.4byte	0x7f7
 1925 09d0 8A000000 		.4byte	.LBB50
 1926 09d4 10000000 		.4byte	.LBE50-.LBB50
ARM GAS  C:\Users\DEVELO~1\AppData\Local\Temp\ccs4FWN3.s 			page 35


 1927 09d8 07       		.uleb128 0x7
 1928 09d9 F8070000 		.4byte	0x7f8
 1929 09dd 2E010000 		.4byte	.LLST8
 1930 09e1 2C010000 		.4byte	.LVUS8
 1931 09e5 00       		.byte	0
 1932 09e6 00       		.byte	0
 1933 09e7 00       		.byte	0
 1934 09e8 35       		.uleb128 0x35
 1935 09e9 87030000 		.4byte	.LASF123
 1936 09ed 01       		.byte	0x1
 1937 09ee 43       		.byte	0x43
 1938 09ef 0D       		.byte	0xd
 1939 09f0 01       		.byte	0x1
 1940 09f1 350A0000 		.4byte	0xa35
 1941 09f5 06       		.uleb128 0x6
 1942 09f6 69647800 		.ascii	"idx\000"
 1943 09fa 44       		.byte	0x44
 1944 09fb 0E       		.byte	0xe
 1945 09fc AF000000 		.4byte	0xaf
 1946 0a00 36       		.uleb128 0x36
 1947 0a01 290A0000 		.4byte	0xa29
 1948 0a05 06       		.uleb128 0x6
 1949 0a06 6900     		.ascii	"i\000"
 1950 0a08 46       		.byte	0x46
 1951 0a09 13       		.byte	0x13
 1952 0a0a AF000000 		.4byte	0xaf
 1953 0a0e 0D       		.uleb128 0xd
 1954 0a0f 06       		.uleb128 0x6
 1955 0a10 67726200 		.ascii	"grb\000"
 1956 0a14 47       		.byte	0x47
 1957 0a15 12       		.byte	0x12
 1958 0a16 AF000000 		.4byte	0xaf
 1959 0a1a 0D       		.uleb128 0xd
 1960 0a1b 06       		.uleb128 0x6
 1961 0a1c 62697400 		.ascii	"bit\000"
 1962 0a20 4C       		.byte	0x4c
 1963 0a21 12       		.byte	0x12
 1964 0a22 26000000 		.4byte	0x26
 1965 0a26 00       		.byte	0
 1966 0a27 00       		.byte	0
 1967 0a28 00       		.byte	0
 1968 0a29 0D       		.uleb128 0xd
 1969 0a2a 06       		.uleb128 0x6
 1970 0a2b 6900     		.ascii	"i\000"
 1971 0a2d 52       		.byte	0x52
 1972 0a2e 13       		.byte	0x13
 1973 0a2f AF000000 		.4byte	0xaf
 1974 0a33 00       		.byte	0
 1975 0a34 00       		.byte	0
 1976 0a35 1D       		.uleb128 0x1d
 1977 0a36 C7050000 		.4byte	.LASF121
 1978 0a3a 31       		.byte	0x31
 1979 0a3b 1D       		.uleb128 0x1d
 1980 0a3c A3010000 		.4byte	.LASF122
 1981 0a40 1F       		.byte	0x1f
 1982 0a41 1E       		.uleb128 0x1e
 1983 0a42 F2050000 		.4byte	.LASF124
ARM GAS  C:\Users\DEVELO~1\AppData\Local\Temp\ccs4FWN3.s 			page 36


 1984 0a46 5503     		.2byte	0x355
 1985 0a48 620A0000 		.4byte	0xa62
 1986 0a4c 1F       		.uleb128 0x1f
 1987 0a4d EF010000 		.4byte	.LASF125
 1988 0a51 5503     		.2byte	0x355
 1989 0a53 AF000000 		.4byte	0xaf
 1990 0a57 20       		.uleb128 0x20
 1991 0a58 6C7000   		.ascii	"lp\000"
 1992 0a5b 5503     		.2byte	0x355
 1993 0a5d 1A060000 		.4byte	0x61a
 1994 0a61 00       		.byte	0
 1995 0a62 1E       		.uleb128 0x1e
 1996 0a63 99030000 		.4byte	.LASF126
 1997 0a67 3F01     		.2byte	0x13f
 1998 0a69 830A0000 		.4byte	0xa83
 1999 0a6d 1F       		.uleb128 0x1f
 2000 0a6e EF010000 		.4byte	.LASF125
 2001 0a72 3F01     		.2byte	0x13f
 2002 0a74 AF000000 		.4byte	0xaf
 2003 0a78 20       		.uleb128 0x20
 2004 0a79 6C7000   		.ascii	"lp\000"
 2005 0a7c 3F01     		.2byte	0x13f
 2006 0a7e 1A060000 		.4byte	0x61a
 2007 0a82 00       		.byte	0
 2008 0a83 21       		.uleb128 0x21
 2009 0a84 03080000 		.4byte	0x803
 2010 0a88 00000000 		.4byte	.LFB454
 2011 0a8c 28000000 		.4byte	.LFE454-.LFB454
 2012 0a90 01       		.uleb128 0x1
 2013 0a91 9C       		.byte	0x9c
 2014 0a92 AC0A0000 		.4byte	0xaac
 2015 0a96 08       		.uleb128 0x8
 2016 0a97 0D080000 		.4byte	0x80d
 2017 0a9b 3C010000 		.4byte	.LLST18
 2018 0a9f 38010000 		.4byte	.LVUS18
 2019 0aa3 37       		.uleb128 0x37
 2020 0aa4 18080000 		.4byte	0x818
 2021 0aa8 02       		.uleb128 0x2
 2022 0aa9 91       		.byte	0x91
 2023 0aaa 7C       		.sleb128 -4
 2024 0aab 00       		.byte	0
 2025 0aac 21       		.uleb128 0x21
 2026 0aad ED070000 		.4byte	0x7ed
 2027 0ab1 00000000 		.4byte	.LFB455
 2028 0ab5 20000000 		.4byte	.LFE455-.LFB455
 2029 0ab9 01       		.uleb128 0x1
 2030 0aba 9C       		.byte	0x9c
 2031 0abb DB0A0000 		.4byte	0xadb
 2032 0abf 0E       		.uleb128 0xe
 2033 0ac0 F7070000 		.4byte	0x7f7
 2034 0ac4 00000000 		.4byte	.LBB72
 2035 0ac8 18000000 		.4byte	.LBE72-.LBB72
 2036 0acc 07       		.uleb128 0x7
 2037 0acd F8070000 		.4byte	0x7f8
 2038 0ad1 51010000 		.4byte	.LLST19
 2039 0ad5 4F010000 		.4byte	.LVUS19
 2040 0ad9 00       		.byte	0
ARM GAS  C:\Users\DEVELO~1\AppData\Local\Temp\ccs4FWN3.s 			page 37


 2041 0ada 00       		.byte	0
 2042 0adb 38       		.uleb128 0x38
 2043 0adc 6C040000 		.4byte	.LASF131
 2044 0ae0 BA000000 		.4byte	.LASF132
 2045 0ae4 07       		.byte	0x7
 2046 0ae5 00       		.byte	0
 2047 0ae6 00       		.byte	0
 2048              		.section	.debug_abbrev,"",%progbits
 2049              	.Ldebug_abbrev0:
 2050 0000 01       		.uleb128 0x1
 2051 0001 0D       		.uleb128 0xd
 2052 0002 00       		.byte	0
 2053 0003 03       		.uleb128 0x3
 2054 0004 0E       		.uleb128 0xe
 2055 0005 3A       		.uleb128 0x3a
 2056 0006 21       		.uleb128 0x21
 2057 0007 05       		.sleb128 5
 2058 0008 3B       		.uleb128 0x3b
 2059 0009 05       		.uleb128 0x5
 2060 000a 39       		.uleb128 0x39
 2061 000b 0B       		.uleb128 0xb
 2062 000c 49       		.uleb128 0x49
 2063 000d 13       		.uleb128 0x13
 2064 000e 38       		.uleb128 0x38
 2065 000f 0B       		.uleb128 0xb
 2066 0010 00       		.byte	0
 2067 0011 00       		.byte	0
 2068 0012 02       		.uleb128 0x2
 2069 0013 0D       		.uleb128 0xd
 2070 0014 00       		.byte	0
 2071 0015 03       		.uleb128 0x3
 2072 0016 08       		.uleb128 0x8
 2073 0017 3A       		.uleb128 0x3a
 2074 0018 21       		.uleb128 0x21
 2075 0019 05       		.sleb128 5
 2076 001a 3B       		.uleb128 0x3b
 2077 001b 05       		.uleb128 0x5
 2078 001c 39       		.uleb128 0x39
 2079 001d 0B       		.uleb128 0xb
 2080 001e 49       		.uleb128 0x49
 2081 001f 13       		.uleb128 0x13
 2082 0020 38       		.uleb128 0x38
 2083 0021 0B       		.uleb128 0xb
 2084 0022 00       		.byte	0
 2085 0023 00       		.byte	0
 2086 0024 03       		.uleb128 0x3
 2087 0025 24       		.uleb128 0x24
 2088 0026 00       		.byte	0
 2089 0027 0B       		.uleb128 0xb
 2090 0028 0B       		.uleb128 0xb
 2091 0029 3E       		.uleb128 0x3e
 2092 002a 0B       		.uleb128 0xb
 2093 002b 03       		.uleb128 0x3
 2094 002c 0E       		.uleb128 0xe
 2095 002d 00       		.byte	0
 2096 002e 00       		.byte	0
 2097 002f 04       		.uleb128 0x4
ARM GAS  C:\Users\DEVELO~1\AppData\Local\Temp\ccs4FWN3.s 			page 38


 2098 0030 16       		.uleb128 0x16
 2099 0031 00       		.byte	0
 2100 0032 03       		.uleb128 0x3
 2101 0033 0E       		.uleb128 0xe
 2102 0034 3A       		.uleb128 0x3a
 2103 0035 0B       		.uleb128 0xb
 2104 0036 3B       		.uleb128 0x3b
 2105 0037 0B       		.uleb128 0xb
 2106 0038 39       		.uleb128 0x39
 2107 0039 0B       		.uleb128 0xb
 2108 003a 49       		.uleb128 0x49
 2109 003b 13       		.uleb128 0x13
 2110 003c 00       		.byte	0
 2111 003d 00       		.byte	0
 2112 003e 05       		.uleb128 0x5
 2113 003f 0D       		.uleb128 0xd
 2114 0040 00       		.byte	0
 2115 0041 03       		.uleb128 0x3
 2116 0042 0E       		.uleb128 0xe
 2117 0043 3A       		.uleb128 0x3a
 2118 0044 21       		.uleb128 0x21
 2119 0045 05       		.sleb128 5
 2120 0046 3B       		.uleb128 0x3b
 2121 0047 05       		.uleb128 0x5
 2122 0048 39       		.uleb128 0x39
 2123 0049 0B       		.uleb128 0xb
 2124 004a 49       		.uleb128 0x49
 2125 004b 13       		.uleb128 0x13
 2126 004c 38       		.uleb128 0x38
 2127 004d 05       		.uleb128 0x5
 2128 004e 00       		.byte	0
 2129 004f 00       		.byte	0
 2130 0050 06       		.uleb128 0x6
 2131 0051 34       		.uleb128 0x34
 2132 0052 00       		.byte	0
 2133 0053 03       		.uleb128 0x3
 2134 0054 08       		.uleb128 0x8
 2135 0055 3A       		.uleb128 0x3a
 2136 0056 21       		.uleb128 0x21
 2137 0057 01       		.sleb128 1
 2138 0058 3B       		.uleb128 0x3b
 2139 0059 0B       		.uleb128 0xb
 2140 005a 39       		.uleb128 0x39
 2141 005b 0B       		.uleb128 0xb
 2142 005c 49       		.uleb128 0x49
 2143 005d 13       		.uleb128 0x13
 2144 005e 00       		.byte	0
 2145 005f 00       		.byte	0
 2146 0060 07       		.uleb128 0x7
 2147 0061 34       		.uleb128 0x34
 2148 0062 00       		.byte	0
 2149 0063 31       		.uleb128 0x31
 2150 0064 13       		.uleb128 0x13
 2151 0065 02       		.uleb128 0x2
 2152 0066 17       		.uleb128 0x17
 2153 0067 B742     		.uleb128 0x2137
 2154 0069 17       		.uleb128 0x17
ARM GAS  C:\Users\DEVELO~1\AppData\Local\Temp\ccs4FWN3.s 			page 39


 2155 006a 00       		.byte	0
 2156 006b 00       		.byte	0
 2157 006c 08       		.uleb128 0x8
 2158 006d 05       		.uleb128 0x5
 2159 006e 00       		.byte	0
 2160 006f 31       		.uleb128 0x31
 2161 0070 13       		.uleb128 0x13
 2162 0071 02       		.uleb128 0x2
 2163 0072 17       		.uleb128 0x17
 2164 0073 B742     		.uleb128 0x2137
 2165 0075 17       		.uleb128 0x17
 2166 0076 00       		.byte	0
 2167 0077 00       		.byte	0
 2168 0078 09       		.uleb128 0x9
 2169 0079 01       		.uleb128 0x1
 2170 007a 01       		.byte	0x1
 2171 007b 49       		.uleb128 0x49
 2172 007c 13       		.uleb128 0x13
 2173 007d 01       		.uleb128 0x1
 2174 007e 13       		.uleb128 0x13
 2175 007f 00       		.byte	0
 2176 0080 00       		.byte	0
 2177 0081 0A       		.uleb128 0xa
 2178 0082 2E       		.uleb128 0x2e
 2179 0083 01       		.byte	0x1
 2180 0084 3F       		.uleb128 0x3f
 2181 0085 19       		.uleb128 0x19
 2182 0086 03       		.uleb128 0x3
 2183 0087 0E       		.uleb128 0xe
 2184 0088 3A       		.uleb128 0x3a
 2185 0089 21       		.uleb128 0x21
 2186 008a 01       		.sleb128 1
 2187 008b 3B       		.uleb128 0x3b
 2188 008c 0B       		.uleb128 0xb
 2189 008d 39       		.uleb128 0x39
 2190 008e 21       		.uleb128 0x21
 2191 008f 06       		.sleb128 6
 2192 0090 27       		.uleb128 0x27
 2193 0091 19       		.uleb128 0x19
 2194 0092 11       		.uleb128 0x11
 2195 0093 01       		.uleb128 0x1
 2196 0094 12       		.uleb128 0x12
 2197 0095 06       		.uleb128 0x6
 2198 0096 40       		.uleb128 0x40
 2199 0097 18       		.uleb128 0x18
 2200 0098 7A       		.uleb128 0x7a
 2201 0099 19       		.uleb128 0x19
 2202 009a 01       		.uleb128 0x1
 2203 009b 13       		.uleb128 0x13
 2204 009c 00       		.byte	0
 2205 009d 00       		.byte	0
 2206 009e 0B       		.uleb128 0xb
 2207 009f 21       		.uleb128 0x21
 2208 00a0 00       		.byte	0
 2209 00a1 49       		.uleb128 0x49
 2210 00a2 13       		.uleb128 0x13
 2211 00a3 2F       		.uleb128 0x2f
ARM GAS  C:\Users\DEVELO~1\AppData\Local\Temp\ccs4FWN3.s 			page 40


 2212 00a4 0B       		.uleb128 0xb
 2213 00a5 00       		.byte	0
 2214 00a6 00       		.byte	0
 2215 00a7 0C       		.uleb128 0xc
 2216 00a8 28       		.uleb128 0x28
 2217 00a9 00       		.byte	0
 2218 00aa 03       		.uleb128 0x3
 2219 00ab 0E       		.uleb128 0xe
 2220 00ac 1C       		.uleb128 0x1c
 2221 00ad 0B       		.uleb128 0xb
 2222 00ae 00       		.byte	0
 2223 00af 00       		.byte	0
 2224 00b0 0D       		.uleb128 0xd
 2225 00b1 0B       		.uleb128 0xb
 2226 00b2 01       		.byte	0x1
 2227 00b3 00       		.byte	0
 2228 00b4 00       		.byte	0
 2229 00b5 0E       		.uleb128 0xe
 2230 00b6 0B       		.uleb128 0xb
 2231 00b7 01       		.byte	0x1
 2232 00b8 31       		.uleb128 0x31
 2233 00b9 13       		.uleb128 0x13
 2234 00ba 11       		.uleb128 0x11
 2235 00bb 01       		.uleb128 0x1
 2236 00bc 12       		.uleb128 0x12
 2237 00bd 06       		.uleb128 0x6
 2238 00be 00       		.byte	0
 2239 00bf 00       		.byte	0
 2240 00c0 0F       		.uleb128 0xf
 2241 00c1 16       		.uleb128 0x16
 2242 00c2 00       		.byte	0
 2243 00c3 03       		.uleb128 0x3
 2244 00c4 0E       		.uleb128 0xe
 2245 00c5 3A       		.uleb128 0x3a
 2246 00c6 21       		.uleb128 0x21
 2247 00c7 05       		.sleb128 5
 2248 00c8 3B       		.uleb128 0x3b
 2249 00c9 05       		.uleb128 0x5
 2250 00ca 39       		.uleb128 0x39
 2251 00cb 21       		.uleb128 0x21
 2252 00cc 03       		.sleb128 3
 2253 00cd 49       		.uleb128 0x49
 2254 00ce 13       		.uleb128 0x13
 2255 00cf 00       		.byte	0
 2256 00d0 00       		.byte	0
 2257 00d1 10       		.uleb128 0x10
 2258 00d2 0D       		.uleb128 0xd
 2259 00d3 00       		.byte	0
 2260 00d4 03       		.uleb128 0x3
 2261 00d5 08       		.uleb128 0x8
 2262 00d6 3A       		.uleb128 0x3a
 2263 00d7 21       		.uleb128 0x21
 2264 00d8 06       		.sleb128 6
 2265 00d9 3B       		.uleb128 0x3b
 2266 00da 0B       		.uleb128 0xb
 2267 00db 39       		.uleb128 0x39
 2268 00dc 21       		.uleb128 0x21
ARM GAS  C:\Users\DEVELO~1\AppData\Local\Temp\ccs4FWN3.s 			page 41


 2269 00dd 0D       		.sleb128 13
 2270 00de 49       		.uleb128 0x49
 2271 00df 13       		.uleb128 0x13
 2272 00e0 38       		.uleb128 0x38
 2273 00e1 0B       		.uleb128 0xb
 2274 00e2 00       		.byte	0
 2275 00e3 00       		.byte	0
 2276 00e4 11       		.uleb128 0x11
 2277 00e5 34       		.uleb128 0x34
 2278 00e6 00       		.byte	0
 2279 00e7 03       		.uleb128 0x3
 2280 00e8 0E       		.uleb128 0xe
 2281 00e9 3A       		.uleb128 0x3a
 2282 00ea 21       		.uleb128 0x21
 2283 00eb 01       		.sleb128 1
 2284 00ec 3B       		.uleb128 0x3b
 2285 00ed 0B       		.uleb128 0xb
 2286 00ee 39       		.uleb128 0x39
 2287 00ef 0B       		.uleb128 0xb
 2288 00f0 49       		.uleb128 0x49
 2289 00f1 13       		.uleb128 0x13
 2290 00f2 02       		.uleb128 0x2
 2291 00f3 18       		.uleb128 0x18
 2292 00f4 00       		.byte	0
 2293 00f5 00       		.byte	0
 2294 00f6 12       		.uleb128 0x12
 2295 00f7 1D       		.uleb128 0x1d
 2296 00f8 01       		.byte	0x1
 2297 00f9 31       		.uleb128 0x31
 2298 00fa 13       		.uleb128 0x13
 2299 00fb 52       		.uleb128 0x52
 2300 00fc 01       		.uleb128 0x1
 2301 00fd B842     		.uleb128 0x2138
 2302 00ff 0B       		.uleb128 0xb
 2303 0100 55       		.uleb128 0x55
 2304 0101 17       		.uleb128 0x17
 2305 0102 58       		.uleb128 0x58
 2306 0103 21       		.uleb128 0x21
 2307 0104 01       		.sleb128 1
 2308 0105 59       		.uleb128 0x59
 2309 0106 0B       		.uleb128 0xb
 2310 0107 57       		.uleb128 0x57
 2311 0108 21       		.uleb128 0x21
 2312 0109 05       		.sleb128 5
 2313 010a 01       		.uleb128 0x1
 2314 010b 13       		.uleb128 0x13
 2315 010c 00       		.byte	0
 2316 010d 00       		.byte	0
 2317 010e 13       		.uleb128 0x13
 2318 010f 05       		.uleb128 0x5
 2319 0110 00       		.byte	0
 2320 0111 03       		.uleb128 0x3
 2321 0112 0E       		.uleb128 0xe
 2322 0113 3A       		.uleb128 0x3a
 2323 0114 21       		.uleb128 0x21
 2324 0115 01       		.sleb128 1
 2325 0116 3B       		.uleb128 0x3b
ARM GAS  C:\Users\DEVELO~1\AppData\Local\Temp\ccs4FWN3.s 			page 42


 2326 0117 21       		.uleb128 0x21
 2327 0118 FA00     		.sleb128 122
 2328 011a 39       		.uleb128 0x39
 2329 011b 0B       		.uleb128 0xb
 2330 011c 49       		.uleb128 0x49
 2331 011d 13       		.uleb128 0x13
 2332 011e 02       		.uleb128 0x2
 2333 011f 18       		.uleb128 0x18
 2334 0120 00       		.byte	0
 2335 0121 00       		.byte	0
 2336 0122 14       		.uleb128 0x14
 2337 0123 1D       		.uleb128 0x1d
 2338 0124 01       		.byte	0x1
 2339 0125 31       		.uleb128 0x31
 2340 0126 13       		.uleb128 0x13
 2341 0127 52       		.uleb128 0x52
 2342 0128 01       		.uleb128 0x1
 2343 0129 B842     		.uleb128 0x2138
 2344 012b 0B       		.uleb128 0xb
 2345 012c 55       		.uleb128 0x55
 2346 012d 17       		.uleb128 0x17
 2347 012e 58       		.uleb128 0x58
 2348 012f 21       		.uleb128 0x21
 2349 0130 01       		.sleb128 1
 2350 0131 59       		.uleb128 0x59
 2351 0132 0B       		.uleb128 0xb
 2352 0133 57       		.uleb128 0x57
 2353 0134 21       		.uleb128 0x21
 2354 0135 05       		.sleb128 5
 2355 0136 00       		.byte	0
 2356 0137 00       		.byte	0
 2357 0138 15       		.uleb128 0x15
 2358 0139 49       		.uleb128 0x49
 2359 013a 00       		.byte	0
 2360 013b 02       		.uleb128 0x2
 2361 013c 18       		.uleb128 0x18
 2362 013d 7E       		.uleb128 0x7e
 2363 013e 18       		.uleb128 0x18
 2364 013f 00       		.byte	0
 2365 0140 00       		.byte	0
 2366 0141 16       		.uleb128 0x16
 2367 0142 13       		.uleb128 0x13
 2368 0143 01       		.byte	0x1
 2369 0144 0B       		.uleb128 0xb
 2370 0145 0B       		.uleb128 0xb
 2371 0146 3A       		.uleb128 0x3a
 2372 0147 21       		.uleb128 0x21
 2373 0148 05       		.sleb128 5
 2374 0149 3B       		.uleb128 0x3b
 2375 014a 05       		.uleb128 0x5
 2376 014b 39       		.uleb128 0x39
 2377 014c 21       		.uleb128 0x21
 2378 014d 09       		.sleb128 9
 2379 014e 01       		.uleb128 0x1
 2380 014f 13       		.uleb128 0x13
 2381 0150 00       		.byte	0
 2382 0151 00       		.byte	0
ARM GAS  C:\Users\DEVELO~1\AppData\Local\Temp\ccs4FWN3.s 			page 43


 2383 0152 17       		.uleb128 0x17
 2384 0153 13       		.uleb128 0x13
 2385 0154 01       		.byte	0x1
 2386 0155 0B       		.uleb128 0xb
 2387 0156 0B       		.uleb128 0xb
 2388 0157 3A       		.uleb128 0x3a
 2389 0158 21       		.uleb128 0x21
 2390 0159 06       		.sleb128 6
 2391 015a 3B       		.uleb128 0x3b
 2392 015b 0B       		.uleb128 0xb
 2393 015c 39       		.uleb128 0x39
 2394 015d 21       		.uleb128 0x21
 2395 015e 09       		.sleb128 9
 2396 015f 01       		.uleb128 0x1
 2397 0160 13       		.uleb128 0x13
 2398 0161 00       		.byte	0
 2399 0162 00       		.byte	0
 2400 0163 18       		.uleb128 0x18
 2401 0164 0D       		.uleb128 0xd
 2402 0165 00       		.byte	0
 2403 0166 03       		.uleb128 0x3
 2404 0167 0E       		.uleb128 0xe
 2405 0168 3A       		.uleb128 0x3a
 2406 0169 21       		.uleb128 0x21
 2407 016a 06       		.sleb128 6
 2408 016b 3B       		.uleb128 0x3b
 2409 016c 0B       		.uleb128 0xb
 2410 016d 39       		.uleb128 0x39
 2411 016e 21       		.uleb128 0x21
 2412 016f 11       		.sleb128 17
 2413 0170 49       		.uleb128 0x49
 2414 0171 13       		.uleb128 0x13
 2415 0172 38       		.uleb128 0x38
 2416 0173 0B       		.uleb128 0xb
 2417 0174 00       		.byte	0
 2418 0175 00       		.byte	0
 2419 0176 19       		.uleb128 0x19
 2420 0177 0B       		.uleb128 0xb
 2421 0178 01       		.byte	0x1
 2422 0179 31       		.uleb128 0x31
 2423 017a 13       		.uleb128 0x13
 2424 017b 55       		.uleb128 0x55
 2425 017c 17       		.uleb128 0x17
 2426 017d 00       		.byte	0
 2427 017e 00       		.byte	0
 2428 017f 1A       		.uleb128 0x1a
 2429 0180 2E       		.uleb128 0x2e
 2430 0181 01       		.byte	0x1
 2431 0182 3F       		.uleb128 0x3f
 2432 0183 19       		.uleb128 0x19
 2433 0184 03       		.uleb128 0x3
 2434 0185 0E       		.uleb128 0xe
 2435 0186 3A       		.uleb128 0x3a
 2436 0187 21       		.uleb128 0x21
 2437 0188 01       		.sleb128 1
 2438 0189 3B       		.uleb128 0x3b
 2439 018a 0B       		.uleb128 0xb
ARM GAS  C:\Users\DEVELO~1\AppData\Local\Temp\ccs4FWN3.s 			page 44


 2440 018b 39       		.uleb128 0x39
 2441 018c 21       		.uleb128 0x21
 2442 018d 06       		.sleb128 6
 2443 018e 27       		.uleb128 0x27
 2444 018f 19       		.uleb128 0x19
 2445 0190 20       		.uleb128 0x20
 2446 0191 21       		.uleb128 0x21
 2447 0192 01       		.sleb128 1
 2448 0193 01       		.uleb128 0x1
 2449 0194 13       		.uleb128 0x13
 2450 0195 00       		.byte	0
 2451 0196 00       		.byte	0
 2452 0197 1B       		.uleb128 0x1b
 2453 0198 05       		.uleb128 0x5
 2454 0199 00       		.byte	0
 2455 019a 03       		.uleb128 0x3
 2456 019b 0E       		.uleb128 0xe
 2457 019c 3A       		.uleb128 0x3a
 2458 019d 21       		.uleb128 0x21
 2459 019e 01       		.sleb128 1
 2460 019f 3B       		.uleb128 0x3b
 2461 01a0 0B       		.uleb128 0xb
 2462 01a1 39       		.uleb128 0x39
 2463 01a2 0B       		.uleb128 0xb
 2464 01a3 49       		.uleb128 0x49
 2465 01a4 13       		.uleb128 0x13
 2466 01a5 00       		.byte	0
 2467 01a6 00       		.byte	0
 2468 01a7 1C       		.uleb128 0x1c
 2469 01a8 05       		.uleb128 0x5
 2470 01a9 00       		.byte	0
 2471 01aa 03       		.uleb128 0x3
 2472 01ab 08       		.uleb128 0x8
 2473 01ac 3A       		.uleb128 0x3a
 2474 01ad 21       		.uleb128 0x21
 2475 01ae 01       		.sleb128 1
 2476 01af 3B       		.uleb128 0x3b
 2477 01b0 0B       		.uleb128 0xb
 2478 01b1 39       		.uleb128 0x39
 2479 01b2 0B       		.uleb128 0xb
 2480 01b3 49       		.uleb128 0x49
 2481 01b4 13       		.uleb128 0x13
 2482 01b5 02       		.uleb128 0x2
 2483 01b6 18       		.uleb128 0x18
 2484 01b7 00       		.byte	0
 2485 01b8 00       		.byte	0
 2486 01b9 1D       		.uleb128 0x1d
 2487 01ba 2E       		.uleb128 0x2e
 2488 01bb 00       		.byte	0
 2489 01bc 03       		.uleb128 0x3
 2490 01bd 0E       		.uleb128 0xe
 2491 01be 3A       		.uleb128 0x3a
 2492 01bf 21       		.uleb128 0x21
 2493 01c0 01       		.sleb128 1
 2494 01c1 3B       		.uleb128 0x3b
 2495 01c2 0B       		.uleb128 0xb
 2496 01c3 39       		.uleb128 0x39
ARM GAS  C:\Users\DEVELO~1\AppData\Local\Temp\ccs4FWN3.s 			page 45


 2497 01c4 21       		.uleb128 0x21
 2498 01c5 0D       		.sleb128 13
 2499 01c6 27       		.uleb128 0x27
 2500 01c7 19       		.uleb128 0x19
 2501 01c8 20       		.uleb128 0x20
 2502 01c9 21       		.uleb128 0x21
 2503 01ca 01       		.sleb128 1
 2504 01cb 00       		.byte	0
 2505 01cc 00       		.byte	0
 2506 01cd 1E       		.uleb128 0x1e
 2507 01ce 2E       		.uleb128 0x2e
 2508 01cf 01       		.byte	0x1
 2509 01d0 03       		.uleb128 0x3
 2510 01d1 0E       		.uleb128 0xe
 2511 01d2 3A       		.uleb128 0x3a
 2512 01d3 21       		.uleb128 0x21
 2513 01d4 02       		.sleb128 2
 2514 01d5 3B       		.uleb128 0x3b
 2515 01d6 05       		.uleb128 0x5
 2516 01d7 39       		.uleb128 0x39
 2517 01d8 21       		.uleb128 0x21
 2518 01d9 16       		.sleb128 22
 2519 01da 27       		.uleb128 0x27
 2520 01db 19       		.uleb128 0x19
 2521 01dc 20       		.uleb128 0x20
 2522 01dd 21       		.uleb128 0x21
 2523 01de 03       		.sleb128 3
 2524 01df 01       		.uleb128 0x1
 2525 01e0 13       		.uleb128 0x13
 2526 01e1 00       		.byte	0
 2527 01e2 00       		.byte	0
 2528 01e3 1F       		.uleb128 0x1f
 2529 01e4 05       		.uleb128 0x5
 2530 01e5 00       		.byte	0
 2531 01e6 03       		.uleb128 0x3
 2532 01e7 0E       		.uleb128 0xe
 2533 01e8 3A       		.uleb128 0x3a
 2534 01e9 21       		.uleb128 0x21
 2535 01ea 02       		.sleb128 2
 2536 01eb 3B       		.uleb128 0x3b
 2537 01ec 05       		.uleb128 0x5
 2538 01ed 39       		.uleb128 0x39
 2539 01ee 21       		.uleb128 0x21
 2540 01ef 2D       		.sleb128 45
 2541 01f0 49       		.uleb128 0x49
 2542 01f1 13       		.uleb128 0x13
 2543 01f2 00       		.byte	0
 2544 01f3 00       		.byte	0
 2545 01f4 20       		.uleb128 0x20
 2546 01f5 05       		.uleb128 0x5
 2547 01f6 00       		.byte	0
 2548 01f7 03       		.uleb128 0x3
 2549 01f8 08       		.uleb128 0x8
 2550 01f9 3A       		.uleb128 0x3a
 2551 01fa 21       		.uleb128 0x21
 2552 01fb 02       		.sleb128 2
 2553 01fc 3B       		.uleb128 0x3b
ARM GAS  C:\Users\DEVELO~1\AppData\Local\Temp\ccs4FWN3.s 			page 46


 2554 01fd 05       		.uleb128 0x5
 2555 01fe 39       		.uleb128 0x39
 2556 01ff 21       		.uleb128 0x21
 2557 0200 38       		.sleb128 56
 2558 0201 49       		.uleb128 0x49
 2559 0202 13       		.uleb128 0x13
 2560 0203 00       		.byte	0
 2561 0204 00       		.byte	0
 2562 0205 21       		.uleb128 0x21
 2563 0206 2E       		.uleb128 0x2e
 2564 0207 01       		.byte	0x1
 2565 0208 31       		.uleb128 0x31
 2566 0209 13       		.uleb128 0x13
 2567 020a 11       		.uleb128 0x11
 2568 020b 01       		.uleb128 0x1
 2569 020c 12       		.uleb128 0x12
 2570 020d 06       		.uleb128 0x6
 2571 020e 40       		.uleb128 0x40
 2572 020f 18       		.uleb128 0x18
 2573 0210 7A       		.uleb128 0x7a
 2574 0211 19       		.uleb128 0x19
 2575 0212 01       		.uleb128 0x1
 2576 0213 13       		.uleb128 0x13
 2577 0214 00       		.byte	0
 2578 0215 00       		.byte	0
 2579 0216 22       		.uleb128 0x22
 2580 0217 11       		.uleb128 0x11
 2581 0218 01       		.byte	0x1
 2582 0219 25       		.uleb128 0x25
 2583 021a 0E       		.uleb128 0xe
 2584 021b 13       		.uleb128 0x13
 2585 021c 0B       		.uleb128 0xb
 2586 021d 03       		.uleb128 0x3
 2587 021e 0E       		.uleb128 0xe
 2588 021f 1B       		.uleb128 0x1b
 2589 0220 0E       		.uleb128 0xe
 2590 0221 55       		.uleb128 0x55
 2591 0222 17       		.uleb128 0x17
 2592 0223 11       		.uleb128 0x11
 2593 0224 01       		.uleb128 0x1
 2594 0225 10       		.uleb128 0x10
 2595 0226 17       		.uleb128 0x17
 2596 0227 00       		.byte	0
 2597 0228 00       		.byte	0
 2598 0229 23       		.uleb128 0x23
 2599 022a 24       		.uleb128 0x24
 2600 022b 00       		.byte	0
 2601 022c 0B       		.uleb128 0xb
 2602 022d 0B       		.uleb128 0xb
 2603 022e 3E       		.uleb128 0x3e
 2604 022f 0B       		.uleb128 0xb
 2605 0230 03       		.uleb128 0x3
 2606 0231 08       		.uleb128 0x8
 2607 0232 00       		.byte	0
 2608 0233 00       		.byte	0
 2609 0234 24       		.uleb128 0x24
 2610 0235 35       		.uleb128 0x35
ARM GAS  C:\Users\DEVELO~1\AppData\Local\Temp\ccs4FWN3.s 			page 47


 2611 0236 00       		.byte	0
 2612 0237 49       		.uleb128 0x49
 2613 0238 13       		.uleb128 0x13
 2614 0239 00       		.byte	0
 2615 023a 00       		.byte	0
 2616 023b 25       		.uleb128 0x25
 2617 023c 13       		.uleb128 0x13
 2618 023d 01       		.byte	0x1
 2619 023e 0B       		.uleb128 0xb
 2620 023f 05       		.uleb128 0x5
 2621 0240 3A       		.uleb128 0x3a
 2622 0241 0B       		.uleb128 0xb
 2623 0242 3B       		.uleb128 0x3b
 2624 0243 05       		.uleb128 0x5
 2625 0244 39       		.uleb128 0x39
 2626 0245 0B       		.uleb128 0xb
 2627 0246 01       		.uleb128 0x1
 2628 0247 13       		.uleb128 0x13
 2629 0248 00       		.byte	0
 2630 0249 00       		.byte	0
 2631 024a 26       		.uleb128 0x26
 2632 024b 04       		.uleb128 0x4
 2633 024c 01       		.byte	0x1
 2634 024d 3E       		.uleb128 0x3e
 2635 024e 0B       		.uleb128 0xb
 2636 024f 0B       		.uleb128 0xb
 2637 0250 0B       		.uleb128 0xb
 2638 0251 49       		.uleb128 0x49
 2639 0252 13       		.uleb128 0x13
 2640 0253 3A       		.uleb128 0x3a
 2641 0254 0B       		.uleb128 0xb
 2642 0255 3B       		.uleb128 0x3b
 2643 0256 0B       		.uleb128 0xb
 2644 0257 39       		.uleb128 0x39
 2645 0258 0B       		.uleb128 0xb
 2646 0259 01       		.uleb128 0x1
 2647 025a 13       		.uleb128 0x13
 2648 025b 00       		.byte	0
 2649 025c 00       		.byte	0
 2650 025d 27       		.uleb128 0x27
 2651 025e 34       		.uleb128 0x34
 2652 025f 00       		.byte	0
 2653 0260 03       		.uleb128 0x3
 2654 0261 0E       		.uleb128 0xe
 2655 0262 3A       		.uleb128 0x3a
 2656 0263 0B       		.uleb128 0xb
 2657 0264 3B       		.uleb128 0x3b
 2658 0265 0B       		.uleb128 0xb
 2659 0266 39       		.uleb128 0x39
 2660 0267 0B       		.uleb128 0xb
 2661 0268 49       		.uleb128 0x49
 2662 0269 13       		.uleb128 0x13
 2663 026a 3F       		.uleb128 0x3f
 2664 026b 19       		.uleb128 0x19
 2665 026c 3C       		.uleb128 0x3c
 2666 026d 19       		.uleb128 0x19
 2667 026e 00       		.byte	0
ARM GAS  C:\Users\DEVELO~1\AppData\Local\Temp\ccs4FWN3.s 			page 48


 2668 026f 00       		.byte	0
 2669 0270 28       		.uleb128 0x28
 2670 0271 21       		.uleb128 0x21
 2671 0272 00       		.byte	0
 2672 0273 49       		.uleb128 0x49
 2673 0274 13       		.uleb128 0x13
 2674 0275 2F       		.uleb128 0x2f
 2675 0276 05       		.uleb128 0x5
 2676 0277 00       		.byte	0
 2677 0278 00       		.byte	0
 2678 0279 29       		.uleb128 0x29
 2679 027a 34       		.uleb128 0x34
 2680 027b 00       		.byte	0
 2681 027c 47       		.uleb128 0x47
 2682 027d 13       		.uleb128 0x13
 2683 027e 3A       		.uleb128 0x3a
 2684 027f 0B       		.uleb128 0xb
 2685 0280 3B       		.uleb128 0x3b
 2686 0281 0B       		.uleb128 0xb
 2687 0282 39       		.uleb128 0x39
 2688 0283 0B       		.uleb128 0xb
 2689 0284 02       		.uleb128 0x2
 2690 0285 18       		.uleb128 0x18
 2691 0286 00       		.byte	0
 2692 0287 00       		.byte	0
 2693 0288 2A       		.uleb128 0x2a
 2694 0289 0B       		.uleb128 0xb
 2695 028a 01       		.byte	0x1
 2696 028b 11       		.uleb128 0x11
 2697 028c 01       		.uleb128 0x1
 2698 028d 12       		.uleb128 0x12
 2699 028e 06       		.uleb128 0x6
 2700 028f 01       		.uleb128 0x1
 2701 0290 13       		.uleb128 0x13
 2702 0291 00       		.byte	0
 2703 0292 00       		.byte	0
 2704 0293 2B       		.uleb128 0x2b
 2705 0294 1D       		.uleb128 0x1d
 2706 0295 01       		.byte	0x1
 2707 0296 31       		.uleb128 0x31
 2708 0297 13       		.uleb128 0x13
 2709 0298 52       		.uleb128 0x52
 2710 0299 01       		.uleb128 0x1
 2711 029a B842     		.uleb128 0x2138
 2712 029c 0B       		.uleb128 0xb
 2713 029d 11       		.uleb128 0x11
 2714 029e 01       		.uleb128 0x1
 2715 029f 12       		.uleb128 0x12
 2716 02a0 06       		.uleb128 0x6
 2717 02a1 58       		.uleb128 0x58
 2718 02a2 0B       		.uleb128 0xb
 2719 02a3 59       		.uleb128 0x59
 2720 02a4 0B       		.uleb128 0xb
 2721 02a5 57       		.uleb128 0x57
 2722 02a6 0B       		.uleb128 0xb
 2723 02a7 00       		.byte	0
 2724 02a8 00       		.byte	0
ARM GAS  C:\Users\DEVELO~1\AppData\Local\Temp\ccs4FWN3.s 			page 49


 2725 02a9 2C       		.uleb128 0x2c
 2726 02aa 05       		.uleb128 0x5
 2727 02ab 00       		.byte	0
 2728 02ac 31       		.uleb128 0x31
 2729 02ad 13       		.uleb128 0x13
 2730 02ae 00       		.byte	0
 2731 02af 00       		.byte	0
 2732 02b0 2D       		.uleb128 0x2d
 2733 02b1 48       		.uleb128 0x48
 2734 02b2 00       		.byte	0
 2735 02b3 7D       		.uleb128 0x7d
 2736 02b4 01       		.uleb128 0x1
 2737 02b5 8201     		.uleb128 0x82
 2738 02b7 19       		.uleb128 0x19
 2739 02b8 7F       		.uleb128 0x7f
 2740 02b9 13       		.uleb128 0x13
 2741 02ba 00       		.byte	0
 2742 02bb 00       		.byte	0
 2743 02bc 2E       		.uleb128 0x2e
 2744 02bd 05       		.uleb128 0x5
 2745 02be 00       		.byte	0
 2746 02bf 03       		.uleb128 0x3
 2747 02c0 0E       		.uleb128 0xe
 2748 02c1 3A       		.uleb128 0x3a
 2749 02c2 0B       		.uleb128 0xb
 2750 02c3 3B       		.uleb128 0x3b
 2751 02c4 0B       		.uleb128 0xb
 2752 02c5 39       		.uleb128 0x39
 2753 02c6 0B       		.uleb128 0xb
 2754 02c7 49       		.uleb128 0x49
 2755 02c8 13       		.uleb128 0x13
 2756 02c9 02       		.uleb128 0x2
 2757 02ca 17       		.uleb128 0x17
 2758 02cb B742     		.uleb128 0x2137
 2759 02cd 17       		.uleb128 0x17
 2760 02ce 00       		.byte	0
 2761 02cf 00       		.byte	0
 2762 02d0 2F       		.uleb128 0x2f
 2763 02d1 05       		.uleb128 0x5
 2764 02d2 00       		.byte	0
 2765 02d3 03       		.uleb128 0x3
 2766 02d4 08       		.uleb128 0x8
 2767 02d5 3A       		.uleb128 0x3a
 2768 02d6 0B       		.uleb128 0xb
 2769 02d7 3B       		.uleb128 0x3b
 2770 02d8 0B       		.uleb128 0xb
 2771 02d9 39       		.uleb128 0x39
 2772 02da 0B       		.uleb128 0xb
 2773 02db 49       		.uleb128 0x49
 2774 02dc 13       		.uleb128 0x13
 2775 02dd 02       		.uleb128 0x2
 2776 02de 17       		.uleb128 0x17
 2777 02df B742     		.uleb128 0x2137
 2778 02e1 17       		.uleb128 0x17
 2779 02e2 00       		.byte	0
 2780 02e3 00       		.byte	0
 2781 02e4 30       		.uleb128 0x30
ARM GAS  C:\Users\DEVELO~1\AppData\Local\Temp\ccs4FWN3.s 			page 50


 2782 02e5 0B       		.uleb128 0xb
 2783 02e6 01       		.byte	0x1
 2784 02e7 55       		.uleb128 0x55
 2785 02e8 17       		.uleb128 0x17
 2786 02e9 00       		.byte	0
 2787 02ea 00       		.byte	0
 2788 02eb 31       		.uleb128 0x31
 2789 02ec 0B       		.uleb128 0xb
 2790 02ed 01       		.byte	0x1
 2791 02ee 31       		.uleb128 0x31
 2792 02ef 13       		.uleb128 0x13
 2793 02f0 55       		.uleb128 0x55
 2794 02f1 17       		.uleb128 0x17
 2795 02f2 01       		.uleb128 0x1
 2796 02f3 13       		.uleb128 0x13
 2797 02f4 00       		.byte	0
 2798 02f5 00       		.byte	0
 2799 02f6 32       		.uleb128 0x32
 2800 02f7 34       		.uleb128 0x34
 2801 02f8 00       		.byte	0
 2802 02f9 31       		.uleb128 0x31
 2803 02fa 13       		.uleb128 0x13
 2804 02fb 00       		.byte	0
 2805 02fc 00       		.byte	0
 2806 02fd 33       		.uleb128 0x33
 2807 02fe 48       		.uleb128 0x48
 2808 02ff 01       		.byte	0x1
 2809 0300 7D       		.uleb128 0x7d
 2810 0301 01       		.uleb128 0x1
 2811 0302 7F       		.uleb128 0x7f
 2812 0303 13       		.uleb128 0x13
 2813 0304 00       		.byte	0
 2814 0305 00       		.byte	0
 2815 0306 34       		.uleb128 0x34
 2816 0307 1D       		.uleb128 0x1d
 2817 0308 01       		.byte	0x1
 2818 0309 31       		.uleb128 0x31
 2819 030a 13       		.uleb128 0x13
 2820 030b 11       		.uleb128 0x11
 2821 030c 01       		.uleb128 0x1
 2822 030d 12       		.uleb128 0x12
 2823 030e 06       		.uleb128 0x6
 2824 030f 58       		.uleb128 0x58
 2825 0310 0B       		.uleb128 0xb
 2826 0311 59       		.uleb128 0x59
 2827 0312 0B       		.uleb128 0xb
 2828 0313 57       		.uleb128 0x57
 2829 0314 0B       		.uleb128 0xb
 2830 0315 00       		.byte	0
 2831 0316 00       		.byte	0
 2832 0317 35       		.uleb128 0x35
 2833 0318 2E       		.uleb128 0x2e
 2834 0319 01       		.byte	0x1
 2835 031a 03       		.uleb128 0x3
 2836 031b 0E       		.uleb128 0xe
 2837 031c 3A       		.uleb128 0x3a
 2838 031d 0B       		.uleb128 0xb
ARM GAS  C:\Users\DEVELO~1\AppData\Local\Temp\ccs4FWN3.s 			page 51


 2839 031e 3B       		.uleb128 0x3b
 2840 031f 0B       		.uleb128 0xb
 2841 0320 39       		.uleb128 0x39
 2842 0321 0B       		.uleb128 0xb
 2843 0322 27       		.uleb128 0x27
 2844 0323 19       		.uleb128 0x19
 2845 0324 20       		.uleb128 0x20
 2846 0325 0B       		.uleb128 0xb
 2847 0326 01       		.uleb128 0x1
 2848 0327 13       		.uleb128 0x13
 2849 0328 00       		.byte	0
 2850 0329 00       		.byte	0
 2851 032a 36       		.uleb128 0x36
 2852 032b 0B       		.uleb128 0xb
 2853 032c 01       		.byte	0x1
 2854 032d 01       		.uleb128 0x1
 2855 032e 13       		.uleb128 0x13
 2856 032f 00       		.byte	0
 2857 0330 00       		.byte	0
 2858 0331 37       		.uleb128 0x37
 2859 0332 05       		.uleb128 0x5
 2860 0333 00       		.byte	0
 2861 0334 31       		.uleb128 0x31
 2862 0335 13       		.uleb128 0x13
 2863 0336 02       		.uleb128 0x2
 2864 0337 18       		.uleb128 0x18
 2865 0338 00       		.byte	0
 2866 0339 00       		.byte	0
 2867 033a 38       		.uleb128 0x38
 2868 033b 2E       		.uleb128 0x2e
 2869 033c 00       		.byte	0
 2870 033d 3F       		.uleb128 0x3f
 2871 033e 19       		.uleb128 0x19
 2872 033f 3C       		.uleb128 0x3c
 2873 0340 19       		.uleb128 0x19
 2874 0341 6E       		.uleb128 0x6e
 2875 0342 0E       		.uleb128 0xe
 2876 0343 03       		.uleb128 0x3
 2877 0344 0E       		.uleb128 0xe
 2878 0345 3A       		.uleb128 0x3a
 2879 0346 0B       		.uleb128 0xb
 2880 0347 3B       		.uleb128 0x3b
 2881 0348 0B       		.uleb128 0xb
 2882 0349 00       		.byte	0
 2883 034a 00       		.byte	0
 2884 034b 00       		.byte	0
 2885              		.section	.debug_loclists,"",%progbits
 2886 0000 57010000 		.4byte	.Ldebug_loc3-.Ldebug_loc2
 2887              	.Ldebug_loc2:
 2888 0004 0500     		.2byte	0x5
 2889 0006 04       		.byte	0x4
 2890 0007 00       		.byte	0
 2891 0008 00000000 		.4byte	0
 2892              	.Ldebug_loc0:
 2893              	.LVUS22:
 2894 000c 01       		.uleb128 .LVU186
 2895 000d 00       		.uleb128 .LVU187
ARM GAS  C:\Users\DEVELO~1\AppData\Local\Temp\ccs4FWN3.s 			page 52


 2896 000e 00       		.uleb128 .LVU187
 2897 000f 00       		.uleb128 .LVU188
 2898 0010 00       		.uleb128 .LVU188
 2899 0011 00       		.uleb128 .LVU192
 2900              	.LLST22:
 2901 0012 06       		.byte	0x6
 2902 0013 2C000000 		.4byte	.LVL24
 2903 0017 04       		.byte	0x4
 2904 0018 00       		.uleb128 .LVL24-.LVL24
 2905 0019 04       		.uleb128 .LVL25-.LVL24
 2906 001a 06       		.uleb128 0x6
 2907 001b 73       		.byte	0x73
 2908 001c 00       		.sleb128 0
 2909 001d 93       		.byte	0x93
 2910 001e 01       		.uleb128 0x1
 2911 001f 93       		.byte	0x93
 2912 0020 02       		.uleb128 0x2
 2913 0021 04       		.byte	0x4
 2914 0022 04       		.uleb128 .LVL25-.LVL24
 2915 0023 08       		.uleb128 .LVL26-.LVL24
 2916 0024 09       		.uleb128 0x9
 2917 0025 73       		.byte	0x73
 2918 0026 00       		.sleb128 0
 2919 0027 93       		.byte	0x93
 2920 0028 01       		.uleb128 0x1
 2921 0029 5E       		.byte	0x5e
 2922 002a 93       		.byte	0x93
 2923 002b 01       		.uleb128 0x1
 2924 002c 93       		.byte	0x93
 2925 002d 01       		.uleb128 0x1
 2926 002e 04       		.byte	0x4
 2927 002f 08       		.uleb128 .LVL26-.LVL24
 2928 0030 12       		.uleb128 .LVL27-.LVL24
 2929 0031 0A       		.uleb128 0xa
 2930 0032 73       		.byte	0x73
 2931 0033 00       		.sleb128 0
 2932 0034 93       		.byte	0x93
 2933 0035 01       		.uleb128 0x1
 2934 0036 5E       		.byte	0x5e
 2935 0037 93       		.byte	0x93
 2936 0038 01       		.uleb128 0x1
 2937 0039 5C       		.byte	0x5c
 2938 003a 93       		.byte	0x93
 2939 003b 01       		.uleb128 0x1
 2940 003c 00       		.byte	0
 2941              	.LVUS21:
 2942 003d 02       		.uleb128 .LVU173
 2943 003e 00       		.uleb128 .LVU175
 2944              	.LLST21:
 2945 003f 08       		.byte	0x8
 2946 0040 12000000 		.4byte	.LVL22
 2947 0044 02       		.uleb128 .LVL23-.LVL22
 2948 0045 02       		.uleb128 0x2
 2949 0046 30       		.byte	0x30
 2950 0047 9F       		.byte	0x9f
 2951 0048 00       		.byte	0
 2952              	.LVUS16:
ARM GAS  C:\Users\DEVELO~1\AppData\Local\Temp\ccs4FWN3.s 			page 53


 2953 0049 00       		.uleb128 0
 2954 004a 00       		.uleb128 .LVU121
 2955 004b 00       		.uleb128 .LVU121
 2956 004c 00       		.uleb128 .LVU130
 2957 004d 00       		.uleb128 .LVU130
 2958 004e 00       		.uleb128 0
 2959              	.LLST16:
 2960 004f 06       		.byte	0x6
 2961 0050 00000000 		.4byte	.LVL13
 2962 0054 04       		.byte	0x4
 2963 0055 00       		.uleb128 .LVL13-.LVL13
 2964 0056 08       		.uleb128 .LVL14-.LVL13
 2965 0057 01       		.uleb128 0x1
 2966 0058 50       		.byte	0x50
 2967 0059 04       		.byte	0x4
 2968 005a 08       		.uleb128 .LVL14-.LVL13
 2969 005b 1A       		.uleb128 .LVL16-.LVL13
 2970 005c 04       		.uleb128 0x4
 2971 005d A3       		.byte	0xa3
 2972 005e 01       		.uleb128 0x1
 2973 005f 50       		.byte	0x50
 2974 0060 9F       		.byte	0x9f
 2975 0061 04       		.byte	0x4
 2976 0062 1A       		.uleb128 .LVL16-.LVL13
 2977 0063 20       		.uleb128 .LFE453-.LVL13
 2978 0064 01       		.uleb128 0x1
 2979 0065 50       		.byte	0x50
 2980 0066 00       		.byte	0
 2981              	.LVUS17:
 2982 0067 00       		.uleb128 0
 2983 0068 00       		.uleb128 .LVU125
 2984 0069 00       		.uleb128 .LVU125
 2985 006a 00       		.uleb128 .LVU130
 2986 006b 00       		.uleb128 .LVU130
 2987 006c 00       		.uleb128 0
 2988              	.LLST17:
 2989 006d 06       		.byte	0x6
 2990 006e 00000000 		.4byte	.LVL13
 2991 0072 04       		.byte	0x4
 2992 0073 00       		.uleb128 .LVL13-.LVL13
 2993 0074 10       		.uleb128 .LVL15-.LVL13
 2994 0075 01       		.uleb128 0x1
 2995 0076 52       		.byte	0x52
 2996 0077 04       		.byte	0x4
 2997 0078 10       		.uleb128 .LVL15-.LVL13
 2998 0079 1A       		.uleb128 .LVL16-.LVL13
 2999 007a 02       		.uleb128 0x2
 3000 007b 72       		.byte	0x72
 3001 007c 00       		.sleb128 0
 3002 007d 04       		.byte	0x4
 3003 007e 1A       		.uleb128 .LVL16-.LVL13
 3004 007f 20       		.uleb128 .LFE453-.LVL13
 3005 0080 01       		.uleb128 0x1
 3006 0081 52       		.byte	0x52
 3007 0082 00       		.byte	0
 3008              	.LVUS10:
 3009 0083 04       		.uleb128 .LVU74
ARM GAS  C:\Users\DEVELO~1\AppData\Local\Temp\ccs4FWN3.s 			page 54


 3010 0084 00       		.uleb128 .LVU80
 3011 0085 00       		.uleb128 .LVU80
 3012 0086 03       		.uleb128 .LVU93
 3013 0087 01       		.uleb128 .LVU102
 3014 0088 00       		.uleb128 .LVU105
 3015              	.LLST10:
 3016 0089 06       		.byte	0x6
 3017 008a 00000000 		.4byte	.LVL5
 3018 008e 04       		.byte	0x4
 3019 008f 00       		.uleb128 .LVL5-.LVL5
 3020 0090 0C       		.uleb128 .LVL6-.LVL5
 3021 0091 02       		.uleb128 0x2
 3022 0092 30       		.byte	0x30
 3023 0093 9F       		.byte	0x9f
 3024 0094 04       		.byte	0x4
 3025 0095 0C       		.uleb128 .LVL6-.LVL5
 3026 0096 1E       		.uleb128 .LVL7-.LVL5
 3027 0097 01       		.uleb128 0x1
 3028 0098 54       		.byte	0x54
 3029 0099 04       		.byte	0x4
 3030 009a 36       		.uleb128 .LVL10-.LVL5
 3031 009b 4A       		.uleb128 .LVL12-.LVL5
 3032 009c 01       		.uleb128 0x1
 3033 009d 54       		.byte	0x54
 3034 009e 00       		.byte	0
 3035              	.LVUS12:
 3036 009f 06       		.uleb128 .LVU76
 3037 00a0 00       		.uleb128 .LVU80
 3038              	.LLST12:
 3039 00a1 08       		.byte	0x8
 3040 00a2 00000000 		.4byte	.LVL5
 3041 00a6 0C       		.uleb128 .LVL6-.LVL5
 3042 00a7 02       		.uleb128 0x2
 3043 00a8 30       		.byte	0x30
 3044 00a9 9F       		.byte	0x9f
 3045 00aa 00       		.byte	0
 3046              	.LVUS13:
 3047 00ab 00       		.uleb128 .LVU90
 3048 00ac 00       		.uleb128 .LVU104
 3049 00ad 00       		.uleb128 .LVU104
 3050 00ae 00       		.uleb128 .LVU105
 3051              	.LLST13:
 3052 00af 06       		.byte	0x6
 3053 00b0 1E000000 		.4byte	.LVL7
 3054 00b4 04       		.byte	0x4
 3055 00b5 00       		.uleb128 .LVL7-.LVL7
 3056 00b6 24       		.uleb128 .LVL11-.LVL7
 3057 00b7 01       		.uleb128 0x1
 3058 00b8 52       		.byte	0x52
 3059 00b9 04       		.byte	0x4
 3060 00ba 24       		.uleb128 .LVL11-.LVL7
 3061 00bb 2B       		.uleb128 .LVL12-1-.LVL7
 3062 00bc 17       		.uleb128 0x17
 3063 00bd 76       		.byte	0x76
 3064 00be 00       		.sleb128 0
 3065 00bf 40       		.byte	0x40
 3066 00c0 24       		.byte	0x24
ARM GAS  C:\Users\DEVELO~1\AppData\Local\Temp\ccs4FWN3.s 			page 55


 3067 00c1 77       		.byte	0x77
 3068 00c2 7E       		.sleb128 -2
 3069 00c3 94       		.byte	0x94
 3070 00c4 01       		.byte	0x1
 3071 00c5 08       		.byte	0x8
 3072 00c6 FF       		.byte	0xff
 3073 00c7 1A       		.byte	0x1a
 3074 00c8 38       		.byte	0x38
 3075 00c9 24       		.byte	0x24
 3076 00ca 21       		.byte	0x21
 3077 00cb 77       		.byte	0x77
 3078 00cc 7F       		.sleb128 -1
 3079 00cd 94       		.byte	0x94
 3080 00ce 01       		.byte	0x1
 3081 00cf 08       		.byte	0x8
 3082 00d0 FF       		.byte	0xff
 3083 00d1 1A       		.byte	0x1a
 3084 00d2 21       		.byte	0x21
 3085 00d3 9F       		.byte	0x9f
 3086 00d4 00       		.byte	0
 3087              	.LVUS15:
 3088 00d5 02       		.uleb128 .LVU92
 3089 00d6 03       		.uleb128 .LVU93
 3090 00d7 03       		.uleb128 .LVU93
 3091 00d8 00       		.uleb128 .LVU96
 3092 00d9 00       		.uleb128 .LVU96
 3093 00da 01       		.uleb128 .LVU99
 3094 00db 01       		.uleb128 .LVU99
 3095 00dc 00       		.uleb128 .LVU105
 3096              	.LLST15:
 3097 00dd 06       		.byte	0x6
 3098 00de 1E000000 		.4byte	.LVL7
 3099 00e2 04       		.byte	0x4
 3100 00e3 00       		.uleb128 .LVL7-.LVL7
 3101 00e4 00       		.uleb128 .LVL7-.LVL7
 3102 00e5 02       		.uleb128 0x2
 3103 00e6 47       		.byte	0x47
 3104 00e7 9F       		.byte	0x9f
 3105 00e8 04       		.byte	0x4
 3106 00e9 00       		.uleb128 .LVL7-.LVL7
 3107 00ea 06       		.uleb128 .LVL8-.LVL7
 3108 00eb 01       		.uleb128 0x1
 3109 00ec 53       		.byte	0x53
 3110 00ed 04       		.byte	0x4
 3111 00ee 06       		.uleb128 .LVL8-.LVL7
 3112 00ef 12       		.uleb128 .LVL9-.LVL7
 3113 00f0 03       		.uleb128 0x3
 3114 00f1 73       		.byte	0x73
 3115 00f2 01       		.sleb128 1
 3116 00f3 9F       		.byte	0x9f
 3117 00f4 04       		.byte	0x4
 3118 00f5 12       		.uleb128 .LVL9-.LVL7
 3119 00f6 2B       		.uleb128 .LVL12-1-.LVL7
 3120 00f7 01       		.uleb128 0x1
 3121 00f8 53       		.byte	0x53
 3122 00f9 00       		.byte	0
 3123              	.LVUS2:
ARM GAS  C:\Users\DEVELO~1\AppData\Local\Temp\ccs4FWN3.s 			page 56


 3124 00fa 04       		.uleb128 .LVU4
 3125 00fb 00       		.uleb128 .LVU18
 3126              	.LLST2:
 3127 00fc 08       		.byte	0x8
 3128 00fd 00000000 		.4byte	.LVL0
 3129 0101 28       		.uleb128 .LVL1-.LVL0
 3130 0102 02       		.uleb128 0x2
 3131 0103 31       		.byte	0x31
 3132 0104 9F       		.byte	0x9f
 3133 0105 00       		.byte	0
 3134              	.LVUS3:
 3135 0106 04       		.uleb128 .LVU4
 3136 0107 00       		.uleb128 .LVU18
 3137              	.LLST3:
 3138 0108 08       		.byte	0x8
 3139 0109 00000000 		.4byte	.LVL0
 3140 010d 28       		.uleb128 .LVL1-.LVL0
 3141 010e 02       		.uleb128 0x2
 3142 010f 32       		.byte	0x32
 3143 0110 9F       		.byte	0x9f
 3144 0111 00       		.byte	0
 3145              	.LVUS6:
 3146 0112 03       		.uleb128 .LVU40
 3147 0113 00       		.uleb128 .LVU49
 3148              	.LLST6:
 3149 0114 08       		.byte	0x8
 3150 0115 58000000 		.4byte	.LVL2
 3151 0119 22       		.uleb128 .LVL3-.LVL2
 3152 011a 02       		.uleb128 0x2
 3153 011b 31       		.byte	0x31
 3154 011c 9F       		.byte	0x9f
 3155 011d 00       		.byte	0
 3156              	.LVUS7:
 3157 011e 03       		.uleb128 .LVU40
 3158 011f 00       		.uleb128 .LVU49
 3159              	.LLST7:
 3160 0120 08       		.byte	0x8
 3161 0121 58000000 		.4byte	.LVL2
 3162 0125 22       		.uleb128 .LVL3-.LVL2
 3163 0126 04       		.uleb128 0x4
 3164 0127 40       		.byte	0x40
 3165 0128 41       		.byte	0x41
 3166 0129 24       		.byte	0x24
 3167 012a 9F       		.byte	0x9f
 3168 012b 00       		.byte	0
 3169              	.LVUS8:
 3170 012c 00       		.uleb128 .LVU61
 3171 012d 02       		.uleb128 .LVU63
 3172              	.LLST8:
 3173 012e 08       		.byte	0x8
 3174 012f 8A000000 		.4byte	.LVL4
 3175 0133 00       		.uleb128 .LVL4-.LVL4
 3176 0134 02       		.uleb128 0x2
 3177 0135 30       		.byte	0x30
 3178 0136 9F       		.byte	0x9f
 3179 0137 00       		.byte	0
 3180              	.LVUS18:
ARM GAS  C:\Users\DEVELO~1\AppData\Local\Temp\ccs4FWN3.s 			page 57


 3181 0138 00       		.uleb128 0
 3182 0139 00       		.uleb128 .LVU139
 3183 013a 00       		.uleb128 .LVU139
 3184 013b 00       		.uleb128 0
 3185              	.LLST18:
 3186 013c 06       		.byte	0x6
 3187 013d 00000000 		.4byte	.LVL17
 3188 0141 04       		.byte	0x4
 3189 0142 00       		.uleb128 .LVL17-.LVL17
 3190 0143 0E       		.uleb128 .LVL18-.LVL17
 3191 0144 01       		.uleb128 0x1
 3192 0145 50       		.byte	0x50
 3193 0146 04       		.byte	0x4
 3194 0147 0E       		.uleb128 .LVL18-.LVL17
 3195 0148 28       		.uleb128 .LFE454-.LVL17
 3196 0149 04       		.uleb128 0x4
 3197 014a A3       		.byte	0xa3
 3198 014b 01       		.uleb128 0x1
 3199 014c 50       		.byte	0x50
 3200 014d 9F       		.byte	0x9f
 3201 014e 00       		.byte	0
 3202              	.LVUS19:
 3203 014f 03       		.uleb128 .LVU144
 3204 0150 00       		.uleb128 .LVU146
 3205              	.LLST19:
 3206 0151 08       		.byte	0x8
 3207 0152 00000000 		.4byte	.LVL19
 3208 0156 08       		.uleb128 .LVL20-.LVL19
 3209 0157 02       		.uleb128 0x2
 3210 0158 30       		.byte	0x30
 3211 0159 9F       		.byte	0x9f
 3212 015a 00       		.byte	0
 3213              	.Ldebug_loc3:
 3214              		.section	.debug_aranges,"",%progbits
 3215 0000 4C000000 		.4byte	0x4c
 3216 0004 0200     		.2byte	0x2
 3217 0006 00000000 		.4byte	.Ldebug_info0
 3218 000a 04       		.byte	0x4
 3219 000b 00       		.byte	0
 3220 000c 0000     		.2byte	0
 3221 000e 0000     		.2byte	0
 3222 0010 00000000 		.4byte	.LFB451
 3223 0014 B8000000 		.4byte	.LFE451-.LFB451
 3224 0018 00000000 		.4byte	.LFB452
 3225 001c 78000000 		.4byte	.LFE452-.LFB452
 3226 0020 00000000 		.4byte	.LFB453
 3227 0024 20000000 		.4byte	.LFE453-.LFB453
 3228 0028 00000000 		.4byte	.LFB454
 3229 002c 28000000 		.4byte	.LFE454-.LFB454
 3230 0030 00000000 		.4byte	.LFB455
 3231 0034 20000000 		.4byte	.LFE455-.LFB455
 3232 0038 00000000 		.4byte	.LFB456
 3233 003c 24000000 		.4byte	.LFE456-.LFB456
 3234 0040 00000000 		.4byte	.LFB457
 3235 0044 5C000000 		.4byte	.LFE457-.LFB457
 3236 0048 00000000 		.4byte	0
 3237 004c 00000000 		.4byte	0
ARM GAS  C:\Users\DEVELO~1\AppData\Local\Temp\ccs4FWN3.s 			page 58


 3238              		.section	.debug_rnglists,"",%progbits
 3239              	.Ldebug_ranges0:
 3240 0000 AC000000 		.4byte	.Ldebug_ranges3-.Ldebug_ranges2
 3241              	.Ldebug_ranges2:
 3242 0004 0500     		.2byte	0x5
 3243 0006 04       		.byte	0x4
 3244 0007 00       		.byte	0
 3245 0008 00000000 		.4byte	0
 3246              	.LLRL0:
 3247 000c 05       		.byte	0x5
 3248 000d 00000000 		.4byte	.LBB21
 3249 0011 04       		.byte	0x4
 3250 0012 00       		.uleb128 .LBB21-.LBB21
 3251 0013 0E       		.uleb128 .LBE21-.LBB21
 3252 0014 04       		.byte	0x4
 3253 0015 10       		.uleb128 .LBB36-.LBB21
 3254 0016 1A       		.uleb128 .LBE36-.LBB21
 3255 0017 04       		.byte	0x4
 3256 0018 1C       		.uleb128 .LBB45-.LBB21
 3257 0019 30       		.uleb128 .LBE45-.LBB21
 3258 001a 04       		.byte	0x4
 3259 001b 32       		.uleb128 .LBB47-.LBB21
 3260 001c 58       		.uleb128 .LBE47-.LBB21
 3261 001d 00       		.byte	0
 3262              	.LLRL1:
 3263 001e 05       		.byte	0x5
 3264 001f 00000000 		.4byte	.LBB23
 3265 0023 04       		.byte	0x4
 3266 0024 00       		.uleb128 .LBB23-.LBB23
 3267 0025 02       		.uleb128 .LBE23-.LBB23
 3268 0026 04       		.byte	0x4
 3269 0027 06       		.uleb128 .LBB29-.LBB23
 3270 0028 0E       		.uleb128 .LBE29-.LBB23
 3271 0029 04       		.byte	0x4
 3272 002a 10       		.uleb128 .LBB30-.LBB23
 3273 002b 14       		.uleb128 .LBE30-.LBB23
 3274 002c 04       		.byte	0x4
 3275 002d 16       		.uleb128 .LBB31-.LBB23
 3276 002e 1A       		.uleb128 .LBE31-.LBB23
 3277 002f 04       		.byte	0x4
 3278 0030 1C       		.uleb128 .LBB32-.LBB23
 3279 0031 28       		.uleb128 .LBE32-.LBB23
 3280 0032 00       		.byte	0
 3281              	.LLRL4:
 3282 0033 05       		.byte	0x5
 3283 0034 1A000000 		.4byte	.LBB37
 3284 0038 04       		.byte	0x4
 3285 0039 00       		.uleb128 .LBB37-.LBB37
 3286 003a 02       		.uleb128 .LBE37-.LBB37
 3287 003b 04       		.byte	0x4
 3288 003c 16       		.uleb128 .LBB46-.LBB37
 3289 003d 18       		.uleb128 .LBE46-.LBB37
 3290 003e 04       		.byte	0x4
 3291 003f 3E       		.uleb128 .LBB48-.LBB37
 3292 0040 70       		.uleb128 .LBE48-.LBB37
 3293 0041 00       		.byte	0
 3294              	.LLRL5:
ARM GAS  C:\Users\DEVELO~1\AppData\Local\Temp\ccs4FWN3.s 			page 59


 3295 0042 05       		.byte	0x5
 3296 0043 58000000 		.4byte	.LBB39
 3297 0047 04       		.byte	0x4
 3298 0048 00       		.uleb128 .LBB39-.LBB39
 3299 0049 1A       		.uleb128 .LBE39-.LBB39
 3300 004a 04       		.byte	0x4
 3301 004b 1E       		.uleb128 .LBB42-.LBB39
 3302 004c 22       		.uleb128 .LBE42-.LBB39
 3303 004d 00       		.byte	0
 3304              	.LLRL9:
 3305 004e 05       		.byte	0x5
 3306 004f 00000000 		.4byte	.LBB59
 3307 0053 04       		.byte	0x4
 3308 0054 00       		.uleb128 .LBB59-.LBB59
 3309 0055 00       		.uleb128 .LBE59-.LBB59
 3310 0056 04       		.byte	0x4
 3311 0057 04       		.uleb128 .LBB69-.LBB59
 3312 0058 52       		.uleb128 .LBE69-.LBB59
 3313 0059 00       		.byte	0
 3314              	.LLRL11:
 3315 005a 05       		.byte	0x5
 3316 005b 00000000 		.4byte	.LBB61
 3317 005f 04       		.byte	0x4
 3318 0060 00       		.uleb128 .LBB61-.LBB61
 3319 0061 00       		.uleb128 .LBE61-.LBB61
 3320 0062 04       		.byte	0x4
 3321 0063 08       		.uleb128 .LBB66-.LBB61
 3322 0064 40       		.uleb128 .LBE66-.LBB61
 3323 0065 00       		.byte	0
 3324              	.LLRL14:
 3325 0066 05       		.byte	0x5
 3326 0067 08000000 		.4byte	.LBB63
 3327 006b 04       		.byte	0x4
 3328 006c 00       		.uleb128 .LBB63-.LBB63
 3329 006d 04       		.uleb128 .LBE63-.LBB63
 3330 006e 04       		.byte	0x4
 3331 006f 0A       		.uleb128 .LBB64-.LBB63
 3332 0070 0C       		.uleb128 .LBE64-.LBB63
 3333 0071 04       		.byte	0x4
 3334 0072 16       		.uleb128 .LBB65-.LBB63
 3335 0073 2E       		.uleb128 .LBE65-.LBB63
 3336 0074 00       		.byte	0
 3337              	.LLRL20:
 3338 0075 05       		.byte	0x5
 3339 0076 04000000 		.4byte	.LBB82
 3340 007a 04       		.byte	0x4
 3341 007b 00       		.uleb128 .LBB82-.LBB82
 3342 007c 04       		.uleb128 .LBE82-.LBB82
 3343 007d 04       		.byte	0x4
 3344 007e 0E       		.uleb128 .LBB89-.LBB82
 3345 007f 0E       		.uleb128 .LBE89-.LBB82
 3346 0080 04       		.byte	0x4
 3347 0081 10       		.uleb128 .LBB90-.LBB82
 3348 0082 22       		.uleb128 .LBE90-.LBB82
 3349 0083 00       		.byte	0
 3350              	.LLRL23:
 3351 0084 07       		.byte	0x7
ARM GAS  C:\Users\DEVELO~1\AppData\Local\Temp\ccs4FWN3.s 			page 60


 3352 0085 00000000 		.4byte	.LFB451
 3353 0089 B801     		.uleb128 .LFE451-.LFB451
 3354 008b 07       		.byte	0x7
 3355 008c 00000000 		.4byte	.LFB452
 3356 0090 78       		.uleb128 .LFE452-.LFB452
 3357 0091 07       		.byte	0x7
 3358 0092 00000000 		.4byte	.LFB453
 3359 0096 20       		.uleb128 .LFE453-.LFB453
 3360 0097 07       		.byte	0x7
 3361 0098 00000000 		.4byte	.LFB454
 3362 009c 28       		.uleb128 .LFE454-.LFB454
 3363 009d 07       		.byte	0x7
 3364 009e 00000000 		.4byte	.LFB455
 3365 00a2 20       		.uleb128 .LFE455-.LFB455
 3366 00a3 07       		.byte	0x7
 3367 00a4 00000000 		.4byte	.LFB456
 3368 00a8 24       		.uleb128 .LFE456-.LFB456
 3369 00a9 07       		.byte	0x7
 3370 00aa 00000000 		.4byte	.LFB457
 3371 00ae 5C       		.uleb128 .LFE457-.LFB457
 3372 00af 00       		.byte	0
 3373              	.Ldebug_ranges3:
 3374              		.section	.debug_line,"",%progbits
 3375              	.Ldebug_line0:
 3376 0000 EB040000 		.section	.debug_str,"MS",%progbits,1
 3376      03008401 
 3376      00000201 
 3376      FB0E0D00 
 3376      01010101 
 3377              	.LASF33:
 3378 0000 504C4C31 		.ascii	"PLL1DIVR\000"
 3378      44495652 
 3378      00
 3379              	.LASF129:
 3380 0009 433A5C43 		.ascii	"C:\\ChibiStudio\\ChibiOS-master\\demos\\STM32\\CUST"
 3380      68696269 
 3380      53747564 
 3380      696F5C43 
 3380      68696269 
 3381 0037 4F4D5F48 		.ascii	"OM_H743IIT6_maj\000"
 3381      37343349 
 3381      4954365F 
 3381      6D616A00 
 3382              	.LASF85:
 3383 0047 44494552 		.ascii	"DIER\000"
 3383      00
 3384              	.LASF110:
 3385 004c 70776D5F 		.ascii	"pwm_buffer\000"
 3385      62756666 
 3385      657200
 3386              	.LASF54:
 3387 0057 41484234 		.ascii	"AHB4RSTR\000"
 3387      52535452 
 3387      00
 3388              	.LASF111:
 3389 0060 6C65645F 		.ascii	"led_buffer\000"
 3389      62756666 
ARM GAS  C:\Users\DEVELO~1\AppData\Local\Temp\ccs4FWN3.s 			page 61


 3389      657200
 3390              	.LASF56:
 3391 006b 41504231 		.ascii	"APB1LRSTR\000"
 3391      4C525354 
 3391      5200
 3392              	.LASF6:
 3393 0075 5F5F7569 		.ascii	"__uint8_t\000"
 3393      6E74385F 
 3393      7400
 3394              	.LASF104:
 3395 007f 4C45445F 		.ascii	"LED_MODE_BLINK\000"
 3395      4D4F4445 
 3395      5F424C49 
 3395      4E4B00
 3396              	.LASF87:
 3397 008e 43434D52 		.ascii	"CCMR2\000"
 3397      3200
 3398              	.LASF95:
 3399 0094 43434D52 		.ascii	"CCMR3\000"
 3399      3300
 3400              	.LASF79:
 3401 009a 41504231 		.ascii	"APB1HLPENR\000"
 3401      484C5045 
 3401      4E5200
 3402              	.LASF9:
 3403 00a5 6C6F6E67 		.ascii	"long int\000"
 3403      20696E74 
 3403      00
 3404              	.LASF99:
 3405 00ae 54494D5F 		.ascii	"TIM_TypeDef\000"
 3405      54797065 
 3405      44656600 
 3406              	.LASF132:
 3407 00ba 5F5F6275 		.ascii	"__builtin_memset\000"
 3407      696C7469 
 3407      6E5F6D65 
 3407      6D736574 
 3407      00
 3408              	.LASF12:
 3409 00cb 6C6F6E67 		.ascii	"long long unsigned int\000"
 3409      206C6F6E 
 3409      6720756E 
 3409      7369676E 
 3409      65642069 
 3410              	.LASF61:
 3411 00e2 4433414D 		.ascii	"D3AMR\000"
 3411      5200
 3412              	.LASF19:
 3413 00e8 434D3041 		.ascii	"CM0AR\000"
 3413      5200
 3414              	.LASF93:
 3415 00ee 42445452 		.ascii	"BDTR\000"
 3415      00
 3416              	.LASF74:
 3417 00f3 41484231 		.ascii	"AHB1LPENR\000"
 3417      4C50454E 
 3417      5200
ARM GAS  C:\Users\DEVELO~1\AppData\Local\Temp\ccs4FWN3.s 			page 62


 3418              	.LASF119:
 3419 00fd 6472765F 		.ascii	"drv_leds_addr_update\000"
 3419      6C656473 
 3419      5F616464 
 3419      725F7570 
 3419      64617465 
 3420              	.LASF106:
 3421 0112 6C65645F 		.ascii	"led_mode_t\000"
 3421      6D6F6465 
 3421      5F7400
 3422              	.LASF86:
 3423 011d 43434D52 		.ascii	"CCMR1\000"
 3423      3100
 3424              	.LASF41:
 3425 0123 44324343 		.ascii	"D2CCIP1R\000"
 3425      49503152 
 3425      00
 3426              	.LASF1:
 3427 012c 6C6F6E67 		.ascii	"long long int\000"
 3427      206C6F6E 
 3427      6720696E 
 3427      7400
 3428              	.LASF3:
 3429 013a 7369676E 		.ascii	"signed char\000"
 3429      65642063 
 3429      68617200 
 3430              	.LASF52:
 3431 0146 41484231 		.ascii	"AHB1RSTR\000"
 3431      52535452 
 3431      00
 3432              	.LASF62:
 3433 014f 52455345 		.ascii	"RESERVED11\000"
 3433      52564544 
 3433      313100
 3434              	.LASF72:
 3435 015a 52455345 		.ascii	"RESERVED12\000"
 3435      52564544 
 3435      313200
 3436              	.LASF82:
 3437 0165 52455345 		.ascii	"RESERVED13\000"
 3437      52564544 
 3437      313300
 3438              	.LASF34:
 3439 0170 504C4C31 		.ascii	"PLL1FRACR\000"
 3439      46524143 
 3439      5200
 3440              	.LASF58:
 3441 017a 41504232 		.ascii	"APB2RSTR\000"
 3441      52535452 
 3441      00
 3442              	.LASF114:
 3443 0183 6472765F 		.ascii	"drv_leds_addr_set\000"
 3443      6C656473 
 3443      5F616464 
 3443      725F7365 
 3443      7400
 3444              	.LASF88:
ARM GAS  C:\Users\DEVELO~1\AppData\Local\Temp\ccs4FWN3.s 			page 63


 3445 0195 43434552 		.ascii	"CCER\000"
 3445      00
 3446              	.LASF14:
 3447 019a 75696E74 		.ascii	"uint16_t\000"
 3447      31365F74 
 3447      00
 3448              	.LASF122:
 3449 01a3 77735F74 		.ascii	"ws_tim_init\000"
 3449      696D5F69 
 3449      6E697400 
 3450              	.LASF29:
 3451 01af 44334346 		.ascii	"D3CFGR\000"
 3451      475200
 3452              	.LASF32:
 3453 01b6 504C4C43 		.ascii	"PLLCFGR\000"
 3453      46475200 
 3454              	.LASF112:
 3455 01be 7469636B 		.ascii	"tick\000"
 3455      00
 3456              	.LASF23:
 3457 01c3 43525243 		.ascii	"CRRCR\000"
 3457      5200
 3458              	.LASF46:
 3459 01c9 43494652 		.ascii	"CIFR\000"
 3459      00
 3460              	.LASF37:
 3461 01ce 504C4C33 		.ascii	"PLL3DIVR\000"
 3461      44495652 
 3461      00
 3462              	.LASF102:
 3463 01d7 4C45445F 		.ascii	"LED_MODE_OFF\000"
 3463      4D4F4445 
 3463      5F4F4646 
 3463      00
 3464              	.LASF10:
 3465 01e4 5F5F7569 		.ascii	"__uint32_t\000"
 3465      6E743332 
 3465      5F7400
 3466              	.LASF125:
 3467 01ef 6D61736B 		.ascii	"mask\000"
 3467      00
 3468              	.LASF120:
 3469 01f4 6472765F 		.ascii	"drv_leds_addr_init\000"
 3469      6C656473 
 3469      5F616464 
 3469      725F696E 
 3469      697400
 3470              	.LASF118:
 3471 0207 6472765F 		.ascii	"drv_leds_addr_set_rgb\000"
 3471      6C656473 
 3471      5F616464 
 3471      725F7365 
 3471      745F7267 
 3472              	.LASF43:
 3473 021d 44334343 		.ascii	"D3CCIPR\000"
 3473      49505200 
 3474              	.LASF47:
ARM GAS  C:\Users\DEVELO~1\AppData\Local\Temp\ccs4FWN3.s 			page 64


 3475 0225 43494352 		.ascii	"CICR\000"
 3475      00
 3476              	.LASF36:
 3477 022a 504C4C32 		.ascii	"PLL2FRACR\000"
 3477      46524143 
 3477      5200
 3478              	.LASF128:
 3479 0234 64726976 		.ascii	"drivers/drv_leds_addr.c\000"
 3479      6572732F 
 3479      6472765F 
 3479      6C656473 
 3479      5F616464 
 3480              	.LASF0:
 3481 024c 756E7369 		.ascii	"unsigned int\000"
 3481      676E6564 
 3481      20696E74 
 3481      00
 3482              	.LASF18:
 3483 0259 43504152 		.ascii	"CPAR\000"
 3483      00
 3484              	.LASF11:
 3485 025e 6C6F6E67 		.ascii	"long unsigned int\000"
 3485      20756E73 
 3485      69676E65 
 3485      6420696E 
 3485      7400
 3486              	.LASF83:
 3487 0270 5243435F 		.ascii	"RCC_TypeDef\000"
 3487      54797065 
 3487      44656600 
 3488              	.LASF8:
 3489 027c 73686F72 		.ascii	"short unsigned int\000"
 3489      7420756E 
 3489      7369676E 
 3489      65642069 
 3489      6E7400
 3490              	.LASF31:
 3491 028f 504C4C43 		.ascii	"PLLCKSELR\000"
 3491      4B53454C 
 3491      5200
 3492              	.LASF22:
 3493 0299 48534943 		.ascii	"HSICFGR\000"
 3493      46475200 
 3494              	.LASF51:
 3495 02a1 41484233 		.ascii	"AHB3RSTR\000"
 3495      52535452 
 3495      00
 3496              	.LASF69:
 3497 02aa 41504231 		.ascii	"APB1HENR\000"
 3497      48454E52 
 3497      00
 3498              	.LASF42:
 3499 02b3 44324343 		.ascii	"D2CCIP2R\000"
 3499      49503252 
 3499      00
 3500              	.LASF98:
 3501 02bc 54495345 		.ascii	"TISEL\000"
ARM GAS  C:\Users\DEVELO~1\AppData\Local\Temp\ccs4FWN3.s 			page 65


 3501      4C00
 3502              	.LASF127:
 3503 02c2 474E5520 		.ascii	"GNU C17 11.3.1 20220712 -mcpu=cortex-m7 -mthumb -mf"
 3503      43313720 
 3503      31312E33 
 3503      2E312032 
 3503      30323230 
 3504 02f5 6C6F6174 		.ascii	"loat-abi=hard -mfpu=fpv5-d16 -march=armv7e-m+fp.dp "
 3504      2D616269 
 3504      3D686172 
 3504      64202D6D 
 3504      6670753D 
 3505 0328 2D676764 		.ascii	"-ggdb -O2 -ffunction-sections -fdata-sections -fno-"
 3505      62202D4F 
 3505      32202D66 
 3505      66756E63 
 3505      74696F6E 
 3506 035b 636F6D6D 		.ascii	"common\000"
 3506      6F6E00
 3507              	.LASF80:
 3508 0362 41504232 		.ascii	"APB2LPENR\000"
 3508      4C50454E 
 3508      5200
 3509              	.LASF38:
 3510 036c 504C4C33 		.ascii	"PLL3FRACR\000"
 3510      46524143 
 3510      5200
 3511              	.LASF59:
 3512 0376 41504234 		.ascii	"APB4RSTR\000"
 3512      52535452 
 3512      00
 3513              	.LASF71:
 3514 037f 41504234 		.ascii	"APB4ENR\000"
 3514      454E5200 
 3515              	.LASF123:
 3516 0387 77735F70 		.ascii	"ws_prepare_buffer\000"
 3516      72657061 
 3516      72655F62 
 3516      75666665 
 3516      7200
 3517              	.LASF126:
 3518 0399 72636345 		.ascii	"rccEnableAPB2\000"
 3518      6E61626C 
 3518      65415042 
 3518      3200
 3519              	.LASF75:
 3520 03a7 41484232 		.ascii	"AHB2LPENR\000"
 3520      4C50454E 
 3520      5200
 3521              	.LASF77:
 3522 03b1 41504233 		.ascii	"APB3LPENR\000"
 3522      4C50454E 
 3522      5200
 3523              	.LASF116:
 3524 03bb 6472765F 		.ascii	"drv_leds_addr_clear\000"
 3524      6C656473 
 3524      5F616464 
ARM GAS  C:\Users\DEVELO~1\AppData\Local\Temp\ccs4FWN3.s 			page 66


 3524      725F636C 
 3524      65617200 
 3525              	.LASF94:
 3526 03cf 444D4152 		.ascii	"DMAR\000"
 3526      00
 3527              	.LASF105:
 3528 03d4 4C45445F 		.ascii	"LED_MODE_PLAYHEAD\000"
 3528      4D4F4445 
 3528      5F504C41 
 3528      59484541 
 3528      4400
 3529              	.LASF67:
 3530 03e6 41504233 		.ascii	"APB3ENR\000"
 3530      454E5200 
 3531              	.LASF66:
 3532 03ee 41484234 		.ascii	"AHB4ENR\000"
 3532      454E5200 
 3533              	.LASF103:
 3534 03f6 4C45445F 		.ascii	"LED_MODE_ON\000"
 3534      4D4F4445 
 3534      5F4F4E00 
 3535              	.LASF26:
 3536 0402 52455345 		.ascii	"RESERVED1\000"
 3536      52564544 
 3536      3100
 3537              	.LASF30:
 3538 040c 52455345 		.ascii	"RESERVED2\000"
 3538      52564544 
 3538      3200
 3539              	.LASF39:
 3540 0416 52455345 		.ascii	"RESERVED3\000"
 3540      52564544 
 3540      3300
 3541              	.LASF28:
 3542 0420 44324346 		.ascii	"D2CFGR\000"
 3542      475200
 3543              	.LASF48:
 3544 0427 52455345 		.ascii	"RESERVED5\000"
 3544      52564544 
 3544      3500
 3545              	.LASF50:
 3546 0431 52455345 		.ascii	"RESERVED6\000"
 3546      52564544 
 3546      3600
 3547              	.LASF60:
 3548 043b 52455345 		.ascii	"RESERVED8\000"
 3548      52564544 
 3548      3800
 3549              	.LASF100:
 3550 0445 5F426F6F 		.ascii	"_Bool\000"
 3550      6C00
 3551              	.LASF35:
 3552 044b 504C4C32 		.ascii	"PLL2DIVR\000"
 3552      44495652 
 3552      00
 3553              	.LASF4:
 3554 0454 756E7369 		.ascii	"unsigned char\000"
ARM GAS  C:\Users\DEVELO~1\AppData\Local\Temp\ccs4FWN3.s 			page 67


 3554      676E6564 
 3554      20636861 
 3554      7200
 3555              	.LASF5:
 3556 0462 73686F72 		.ascii	"short int\000"
 3556      7420696E 
 3556      7400
 3557              	.LASF131:
 3558 046c 6D656D73 		.ascii	"memset\000"
 3558      657400
 3559              	.LASF73:
 3560 0473 41484233 		.ascii	"AHB3LPENR\000"
 3560      4C50454E 
 3560      5200
 3561              	.LASF81:
 3562 047d 41504234 		.ascii	"APB4LPENR\000"
 3562      4C50454E 
 3562      5200
 3563              	.LASF70:
 3564 0487 41504232 		.ascii	"APB2ENR\000"
 3564      454E5200 
 3565              	.LASF63:
 3566 048f 41484233 		.ascii	"AHB3ENR\000"
 3566      454E5200 
 3567              	.LASF57:
 3568 0497 41504231 		.ascii	"APB1HRSTR\000"
 3568      48525354 
 3568      5200
 3569              	.LASF44:
 3570 04a1 52455345 		.ascii	"RESERVED4\000"
 3570      52564544 
 3570      3400
 3571              	.LASF15:
 3572 04ab 75696E74 		.ascii	"uint32_t\000"
 3572      33325F74 
 3572      00
 3573              	.LASF40:
 3574 04b4 44314343 		.ascii	"D1CCIPR\000"
 3574      49505200 
 3575              	.LASF21:
 3576 04bc 42444D41 		.ascii	"BDMA_Channel_TypeDef\000"
 3576      5F436861 
 3576      6E6E656C 
 3576      5F547970 
 3576      65446566 
 3577              	.LASF2:
 3578 04d1 6C6F6E67 		.ascii	"long double\000"
 3578      20646F75 
 3578      626C6500 
 3579              	.LASF107:
 3580 04dd 636F6C6F 		.ascii	"color\000"
 3580      7200
 3581              	.LASF16:
 3582 04e3 63686172 		.ascii	"char\000"
 3582      00
 3583              	.LASF108:
 3584 04e8 6D6F6465 		.ascii	"mode\000"
ARM GAS  C:\Users\DEVELO~1\AppData\Local\Temp\ccs4FWN3.s 			page 68


 3584      00
 3585              	.LASF84:
 3586 04ed 534D4352 		.ascii	"SMCR\000"
 3586      00
 3587              	.LASF109:
 3588 04f2 6C65645F 		.ascii	"led_state_t\000"
 3588      73746174 
 3588      655F7400 
 3589              	.LASF7:
 3590 04fe 5F5F7569 		.ascii	"__uint16_t\000"
 3590      6E743136 
 3590      5F7400
 3591              	.LASF53:
 3592 0509 41484232 		.ascii	"AHB2RSTR\000"
 3592      52535452 
 3592      00
 3593              	.LASF115:
 3594 0512 696E6465 		.ascii	"index\000"
 3594      7800
 3595              	.LASF101:
 3596 0518 6C65645F 		.ascii	"led_color_t\000"
 3596      636F6C6F 
 3596      725F7400 
 3597              	.LASF76:
 3598 0524 41484234 		.ascii	"AHB4LPENR\000"
 3598      4C50454E 
 3598      5200
 3599              	.LASF65:
 3600 052e 41484232 		.ascii	"AHB2ENR\000"
 3600      454E5200 
 3601              	.LASF45:
 3602 0536 43494552 		.ascii	"CIER\000"
 3602      00
 3603              	.LASF55:
 3604 053b 41504233 		.ascii	"APB3RSTR\000"
 3604      52535452 
 3604      00
 3605              	.LASF24:
 3606 0544 43534943 		.ascii	"CSICFGR\000"
 3606      46475200 
 3607              	.LASF78:
 3608 054c 41504231 		.ascii	"APB1LLPENR\000"
 3608      4C4C5045 
 3608      4E5200
 3609              	.LASF89:
 3610 0557 43435231 		.ascii	"CCR1\000"
 3610      00
 3611              	.LASF90:
 3612 055c 43435232 		.ascii	"CCR2\000"
 3612      00
 3613              	.LASF91:
 3614 0561 43435233 		.ascii	"CCR3\000"
 3614      00
 3615              	.LASF92:
 3616 0566 43435234 		.ascii	"CCR4\000"
 3616      00
 3617              	.LASF96:
ARM GAS  C:\Users\DEVELO~1\AppData\Local\Temp\ccs4FWN3.s 			page 69


 3618 056b 43435235 		.ascii	"CCR5\000"
 3618      00
 3619              	.LASF97:
 3620 0570 43435236 		.ascii	"CCR6\000"
 3620      00
 3621              	.LASF17:
 3622 0575 434E4454 		.ascii	"CNDTR\000"
 3622      5200
 3623              	.LASF49:
 3624 057b 42444352 		.ascii	"BDCR\000"
 3624      00
 3625              	.LASF117:
 3626 0580 6472765F 		.ascii	"drv_leds_addr_set_color\000"
 3626      6C656473 
 3626      5F616464 
 3626      725F7365 
 3626      745F636F 
 3627              	.LASF13:
 3628 0598 75696E74 		.ascii	"uint8_t\000"
 3628      385F7400 
 3629              	.LASF20:
 3630 05a0 434D3141 		.ascii	"CM1AR\000"
 3630      5200
 3631              	.LASF64:
 3632 05a6 41484231 		.ascii	"AHB1ENR\000"
 3632      454E5200 
 3633              	.LASF130:
 3634 05ae 6472765F 		.ascii	"drv_leds_addr_state\000"
 3634      6C656473 
 3634      5F616464 
 3634      725F7374 
 3634      61746500 
 3635              	.LASF25:
 3636 05c2 43464752 		.ascii	"CFGR\000"
 3636      00
 3637              	.LASF121:
 3638 05c7 77735F62 		.ascii	"ws_bdma_init\000"
 3638      646D615F 
 3638      696E6974 
 3638      00
 3639              	.LASF113:
 3640 05d4 6472765F 		.ascii	"drv_leds_addr_render\000"
 3640      6C656473 
 3640      5F616464 
 3640      725F7265 
 3640      6E646572 
 3641              	.LASF68:
 3642 05e9 41504231 		.ascii	"APB1LENR\000"
 3642      4C454E52 
 3642      00
 3643              	.LASF124:
 3644 05f2 72636345 		.ascii	"rccEnableAHB4\000"
 3644      6E61626C 
 3644      65414842 
 3644      3400
 3645              	.LASF27:
 3646 0600 44314346 		.ascii	"D1CFGR\000"
ARM GAS  C:\Users\DEVELO~1\AppData\Local\Temp\ccs4FWN3.s 			page 70


 3646      475200
 3647              		.ident	"GCC: (Arm GNU Toolchain 11.3.Rel1) 11.3.1 20220712"
ARM GAS  C:\Users\DEVELO~1\AppData\Local\Temp\ccs4FWN3.s 			page 71


DEFINED SYMBOLS
                            *ABS*:00000000 drv_leds_addr.c
C:\Users\DEVELO~1\AppData\Local\Temp\ccs4FWN3.s:19     .text.drv_leds_addr_init:00000000 $t
C:\Users\DEVELO~1\AppData\Local\Temp\ccs4FWN3.s:26     .text.drv_leds_addr_init:00000000 drv_leds_addr_init
C:\Users\DEVELO~1\AppData\Local\Temp\ccs4FWN3.s:243    .text.drv_leds_addr_init:000000a0 $d
C:\Users\DEVELO~1\AppData\Local\Temp\ccs4FWN3.s:253    .text.drv_leds_addr_update:00000000 $t
C:\Users\DEVELO~1\AppData\Local\Temp\ccs4FWN3.s:260    .text.drv_leds_addr_update:00000000 drv_leds_addr_update
C:\Users\DEVELO~1\AppData\Local\Temp\ccs4FWN3.s:396    .text.drv_leds_addr_update:00000068 $d
C:\Users\DEVELO~1\AppData\Local\Temp\ccs4FWN3.s:404    .text.drv_leds_addr_set_rgb:00000000 $t
C:\Users\DEVELO~1\AppData\Local\Temp\ccs4FWN3.s:411    .text.drv_leds_addr_set_rgb:00000000 drv_leds_addr_set_rgb
C:\Users\DEVELO~1\AppData\Local\Temp\ccs4FWN3.s:456    .text.drv_leds_addr_set_rgb:0000001c $d
C:\Users\DEVELO~1\AppData\Local\Temp\ccs4FWN3.s:461    .text.drv_leds_addr_set_color:00000000 $t
C:\Users\DEVELO~1\AppData\Local\Temp\ccs4FWN3.s:468    .text.drv_leds_addr_set_color:00000000 drv_leds_addr_set_color
C:\Users\DEVELO~1\AppData\Local\Temp\ccs4FWN3.s:506    .text.drv_leds_addr_set_color:00000024 $d
C:\Users\DEVELO~1\AppData\Local\Temp\ccs4FWN3.s:511    .text.drv_leds_addr_clear:00000000 $t
C:\Users\DEVELO~1\AppData\Local\Temp\ccs4FWN3.s:518    .text.drv_leds_addr_clear:00000000 drv_leds_addr_clear
C:\Users\DEVELO~1\AppData\Local\Temp\ccs4FWN3.s:558    .text.drv_leds_addr_clear:0000001c $d
C:\Users\DEVELO~1\AppData\Local\Temp\ccs4FWN3.s:563    .text.drv_leds_addr_set:00000000 $t
C:\Users\DEVELO~1\AppData\Local\Temp\ccs4FWN3.s:570    .text.drv_leds_addr_set:00000000 drv_leds_addr_set
C:\Users\DEVELO~1\AppData\Local\Temp\ccs4FWN3.s:606    .text.drv_leds_addr_set:00000020 $d
C:\Users\DEVELO~1\AppData\Local\Temp\ccs4FWN3.s:611    .text.drv_leds_addr_render:00000000 $t
C:\Users\DEVELO~1\AppData\Local\Temp\ccs4FWN3.s:618    .text.drv_leds_addr_render:00000000 drv_leds_addr_render
C:\Users\DEVELO~1\AppData\Local\Temp\ccs4FWN3.s:732    .text.drv_leds_addr_render:00000050 $d
C:\Users\DEVELO~1\AppData\Local\Temp\ccs4FWN3.s:744    .bss.drv_leds_addr_state:00000000 drv_leds_addr_state
C:\Users\DEVELO~1\AppData\Local\Temp\ccs4FWN3.s:740    .bss.drv_leds_addr_state:00000000 $d
C:\Users\DEVELO~1\AppData\Local\Temp\ccs4FWN3.s:747    .bss.led_buffer:00000000 $d
C:\Users\DEVELO~1\AppData\Local\Temp\ccs4FWN3.s:751    .bss.led_buffer:00000000 led_buffer
C:\Users\DEVELO~1\AppData\Local\Temp\ccs4FWN3.s:754    .bss.pwm_buffer:00000000 $d
C:\Users\DEVELO~1\AppData\Local\Temp\ccs4FWN3.s:758    .bss.pwm_buffer:00000000 pwm_buffer
C:\Users\DEVELO~1\AppData\Local\Temp\ccs4FWN3.s:761    .bss.tick.0:00000000 $d
C:\Users\DEVELO~1\AppData\Local\Temp\ccs4FWN3.s:765    .bss.tick.0:00000000 tick.0

UNDEFINED SYMBOLS
memset
