ARM GAS  C:\Users\DEVELO~1\AppData\Local\Temp\cce83SFX.s 			page 1


   1              		.cpu cortex-m7
   2              		.arch armv7e-m
   3              		.fpu fpv5-d16
   4              		.eabi_attribute 28, 1
   5              		.eabi_attribute 20, 1
   6              		.eabi_attribute 21, 1
   7              		.eabi_attribute 23, 3
   8              		.eabi_attribute 24, 1
   9              		.eabi_attribute 25, 1
  10              		.eabi_attribute 26, 1
  11              		.eabi_attribute 30, 2
  12              		.eabi_attribute 34, 1
  13              		.eabi_attribute 18, 4
  14              		.file	"drv_audio.c"
  15              		.text
  16              	.Ltext0:
  17              		.cfi_sections	.debug_frame
  18              		.section	.text.audio_dma_tx_cb,"ax",%progbits
  19              		.align	1
  20              		.p2align 2,,3
  21              		.syntax unified
  22              		.thumb
  23              		.thumb_func
  24              		.type	audio_dma_tx_cb, %function
  25              	audio_dma_tx_cb:
  26              	.LVL0:
  27              	.LFB471:
  28              		.file 1 "drivers/audio/drv_audio.c"
  29              		.loc 1 489 54 view -0
  30              		.cfi_startproc
  31              		@ args = 0, pretend = 0, frame = 0
  32              		@ frame_needed = 0, uses_anonymous_args = 0
  33              		.loc 1 490 5 view .LVU1
  34              		.loc 1 491 5 view .LVU2
  35              		.loc 1 491 8 is_stmt 0 view .LVU3
  36 0000 11F00D0F 		tst	r1, #13
  37              		.loc 1 489 54 view .LVU4
  38 0004 10B5     		push	{r4, lr}
  39              		.cfi_def_cfa_offset 8
  40              		.cfi_offset 4, -8
  41              		.cfi_offset 14, -4
  42              		.loc 1 489 54 view .LVU5
  43 0006 0C46     		mov	r4, r1
  44              		.loc 1 491 8 view .LVU6
  45 0008 16D1     		bne	.L14
  46              	.LVL1:
  47              	.L2:
  48              		.loc 1 494 5 is_stmt 1 view .LVU7
  49              		.loc 1 494 8 is_stmt 0 view .LVU8
  50 000a E206     		lsls	r2, r4, #27
  51 000c 07D5     		bpl	.L3
  52              		.loc 1 495 9 is_stmt 1 view .LVU9
  53              		.loc 1 495 31 is_stmt 0 view .LVU10
  54 000e 0C4B     		ldr	r3, .L16
  55 0010 0022     		movs	r2, #0
  56 0012 1A70     		strb	r2, [r3]
  57              	.L4:
ARM GAS  C:\Users\DEVELO~1\AppData\Local\Temp\cce83SFX.s 			page 2


  58              		.loc 1 499 5 is_stmt 1 view .LVU11
  59              	.LVL2:
  60              	.LBB76:
  61              	.LBI76:
  62              		.file 2 "./docs/ChibiOS/os/oslib/include/chbsem.h"
  63              		.loc 2 261 20 view .LVU12
  64              	.LBB77:
  65              		.loc 2 263 21 view .LVU13
  66              		.loc 2 265 3 view .LVU14
  67              		.loc 2 265 15 is_stmt 0 view .LVU15
  68 0014 0B48     		ldr	r0, .L16+4
  69              		.loc 2 265 6 view .LVU16
  70 0016 8368     		ldr	r3, [r0, #8]
  71 0018 002B     		cmp	r3, #0
  72 001a 09DD     		ble	.L15
  73              	.L1:
  74              	.LBE77:
  75              	.LBE76:
  76              		.loc 1 500 1 view .LVU17
  77 001c 10BD     		pop	{r4, pc}
  78              	.LVL3:
  79              	.L3:
  80              		.loc 1 496 12 is_stmt 1 view .LVU18
  81              		.loc 1 496 15 is_stmt 0 view .LVU19
  82 001e A306     		lsls	r3, r4, #26
  83 0020 F8D5     		bpl	.L4
  84              		.loc 1 497 9 is_stmt 1 view .LVU20
  85              		.loc 1 497 31 is_stmt 0 view .LVU21
  86 0022 074B     		ldr	r3, .L16
  87 0024 0122     		movs	r2, #1
  88              	.LBB81:
  89              	.LBB78:
  90              		.loc 2 265 15 view .LVU22
  91 0026 0748     		ldr	r0, .L16+4
  92              	.LBE78:
  93              	.LBE81:
  94              		.loc 1 497 31 view .LVU23
  95 0028 1A70     		strb	r2, [r3]
  96              		.loc 1 499 5 is_stmt 1 view .LVU24
  97              	.LVL4:
  98              	.LBB82:
  99              		.loc 2 261 20 view .LVU25
 100              	.LBB79:
 101              		.loc 2 263 21 view .LVU26
 102              		.loc 2 265 3 view .LVU27
 103              		.loc 2 265 6 is_stmt 0 view .LVU28
 104 002a 8368     		ldr	r3, [r0, #8]
 105 002c 002B     		cmp	r3, #0
 106 002e F5DC     		bgt	.L1
 107              	.L15:
 108              		.loc 2 266 5 is_stmt 1 view .LVU29
 109              	.LBE79:
 110              	.LBE82:
 111              		.loc 1 500 1 is_stmt 0 view .LVU30
 112 0030 BDE81040 		pop	{r4, lr}
 113              		.cfi_remember_state
 114              		.cfi_restore 14
ARM GAS  C:\Users\DEVELO~1\AppData\Local\Temp\cce83SFX.s 			page 3


 115              		.cfi_restore 4
 116              		.cfi_def_cfa_offset 0
 117              	.LVL5:
 118              	.LBB83:
 119              	.LBB80:
 120              		.loc 2 266 5 view .LVU31
 121 0034 FFF7FEBF 		b	chSemSignalI
 122              	.LVL6:
 123              	.L14:
 124              		.cfi_restore_state
 125              		.loc 2 266 5 view .LVU32
 126              	.LBE80:
 127              	.LBE83:
 128              	.LBB84:
 129              		.loc 1 492 9 is_stmt 1 view .LVU33
 130 0038 FFF7FEFF 		bl	chSysHaltI
 131              	.LVL7:
 132              		.loc 1 492 9 is_stmt 0 view .LVU34
 133 003c E5E7     		b	.L2
 134              	.L17:
 135 003e 00BF     		.align	2
 136              	.L16:
 137 0040 00000000 		.word	.LANCHOR0
 138 0044 00000000 		.word	.LANCHOR1
 139              	.LBE84:
 140              		.cfi_endproc
 141              	.LFE471:
 142              		.size	audio_dma_tx_cb, .-audio_dma_tx_cb
 143              		.section	.text.audio_dma_rx_cb,"ax",%progbits
 144              		.align	1
 145              		.p2align 2,,3
 146              		.syntax unified
 147              		.thumb
 148              		.thumb_func
 149              		.type	audio_dma_rx_cb, %function
 150              	audio_dma_rx_cb:
 151              	.LVL8:
 152              	.LFB470:
 153              		.loc 1 476 54 is_stmt 1 view -0
 154              		.cfi_startproc
 155              		@ args = 0, pretend = 0, frame = 0
 156              		@ frame_needed = 0, uses_anonymous_args = 0
 157              		.loc 1 477 5 view .LVU36
 158              		.loc 1 478 5 view .LVU37
 159              		.loc 1 478 8 is_stmt 0 view .LVU38
 160 0000 11F00D0F 		tst	r1, #13
 161              		.loc 1 476 54 view .LVU39
 162 0004 10B5     		push	{r4, lr}
 163              		.cfi_def_cfa_offset 8
 164              		.cfi_offset 4, -8
 165              		.cfi_offset 14, -4
 166              		.loc 1 476 54 view .LVU40
 167 0006 0C46     		mov	r4, r1
 168              		.loc 1 478 8 view .LVU41
 169 0008 16D1     		bne	.L30
 170              	.LVL9:
 171              	.L19:
ARM GAS  C:\Users\DEVELO~1\AppData\Local\Temp\cce83SFX.s 			page 4


 172              		.loc 1 481 5 is_stmt 1 view .LVU42
 173              		.loc 1 481 8 is_stmt 0 view .LVU43
 174 000a E206     		lsls	r2, r4, #27
 175 000c 07D5     		bpl	.L20
 176              		.loc 1 482 9 is_stmt 1 view .LVU44
 177              		.loc 1 482 30 is_stmt 0 view .LVU45
 178 000e 0C4B     		ldr	r3, .L32
 179 0010 0022     		movs	r2, #0
 180 0012 1A70     		strb	r2, [r3]
 181              	.L21:
 182              		.loc 1 486 5 is_stmt 1 view .LVU46
 183              	.LVL10:
 184              	.LBB85:
 185              	.LBI85:
 186              		.loc 2 261 20 view .LVU47
 187              	.LBB86:
 188              		.loc 2 263 21 view .LVU48
 189              		.loc 2 265 3 view .LVU49
 190              		.loc 2 265 15 is_stmt 0 view .LVU50
 191 0014 0B48     		ldr	r0, .L32+4
 192              		.loc 2 265 6 view .LVU51
 193 0016 8368     		ldr	r3, [r0, #8]
 194 0018 002B     		cmp	r3, #0
 195 001a 09DD     		ble	.L31
 196              	.L18:
 197              	.LBE86:
 198              	.LBE85:
 199              		.loc 1 487 1 view .LVU52
 200 001c 10BD     		pop	{r4, pc}
 201              	.LVL11:
 202              	.L20:
 203              		.loc 1 483 12 is_stmt 1 view .LVU53
 204              		.loc 1 483 15 is_stmt 0 view .LVU54
 205 001e A306     		lsls	r3, r4, #26
 206 0020 F8D5     		bpl	.L21
 207              		.loc 1 484 9 is_stmt 1 view .LVU55
 208              		.loc 1 484 30 is_stmt 0 view .LVU56
 209 0022 074B     		ldr	r3, .L32
 210 0024 0122     		movs	r2, #1
 211              	.LBB90:
 212              	.LBB87:
 213              		.loc 2 265 15 view .LVU57
 214 0026 0748     		ldr	r0, .L32+4
 215              	.LBE87:
 216              	.LBE90:
 217              		.loc 1 484 30 view .LVU58
 218 0028 1A70     		strb	r2, [r3]
 219              		.loc 1 486 5 is_stmt 1 view .LVU59
 220              	.LVL12:
 221              	.LBB91:
 222              		.loc 2 261 20 view .LVU60
 223              	.LBB88:
 224              		.loc 2 263 21 view .LVU61
 225              		.loc 2 265 3 view .LVU62
 226              		.loc 2 265 6 is_stmt 0 view .LVU63
 227 002a 8368     		ldr	r3, [r0, #8]
 228 002c 002B     		cmp	r3, #0
ARM GAS  C:\Users\DEVELO~1\AppData\Local\Temp\cce83SFX.s 			page 5


 229 002e F5DC     		bgt	.L18
 230              	.L31:
 231              		.loc 2 266 5 is_stmt 1 view .LVU64
 232              	.LBE88:
 233              	.LBE91:
 234              		.loc 1 487 1 is_stmt 0 view .LVU65
 235 0030 BDE81040 		pop	{r4, lr}
 236              		.cfi_remember_state
 237              		.cfi_restore 14
 238              		.cfi_restore 4
 239              		.cfi_def_cfa_offset 0
 240              	.LVL13:
 241              	.LBB92:
 242              	.LBB89:
 243              		.loc 2 266 5 view .LVU66
 244 0034 FFF7FEBF 		b	chSemSignalI
 245              	.LVL14:
 246              	.L30:
 247              		.cfi_restore_state
 248              		.loc 2 266 5 view .LVU67
 249              	.LBE89:
 250              	.LBE92:
 251              	.LBB93:
 252              		.loc 1 479 9 is_stmt 1 view .LVU68
 253 0038 FFF7FEFF 		bl	chSysHaltI
 254              	.LVL15:
 255              		.loc 1 479 9 is_stmt 0 view .LVU69
 256 003c E5E7     		b	.L19
 257              	.L33:
 258 003e 00BF     		.align	2
 259              	.L32:
 260 0040 00000000 		.word	.LANCHOR2
 261 0044 00000000 		.word	.LANCHOR1
 262              	.LBE93:
 263              		.cfi_endproc
 264              	.LFE470:
 265              		.size	audio_dma_rx_cb, .-audio_dma_rx_cb
 266              		.section	.text.drv_audio_init,"ax",%progbits
 267              		.align	1
 268              		.p2align 2,,3
 269              		.global	drv_audio_init
 270              		.syntax unified
 271              		.thumb
 272              		.thumb_func
 273              		.type	drv_audio_init, %function
 274              	drv_audio_init:
 275              	.LFB448:
 276              		.loc 1 84 27 is_stmt 1 view -0
 277              		.cfi_startproc
 278              		@ args = 0, pretend = 0, frame = 0
 279              		@ frame_needed = 0, uses_anonymous_args = 0
 280              		.loc 1 85 5 view .LVU71
 281              	.LVL16:
 282              	.LBB99:
 283              	.LBI99:
 284              		.loc 2 123 20 view .LVU72
 285              	.LBB100:
ARM GAS  C:\Users\DEVELO~1\AppData\Local\Temp\cce83SFX.s 			page 6


 286              		.loc 2 125 3 view .LVU73
 287              	.LBE100:
 288              	.LBE99:
 289              		.loc 1 84 27 is_stmt 0 view .LVU74
 290 0000 08B5     		push	{r3, lr}
 291              		.cfi_def_cfa_offset 8
 292              		.cfi_offset 3, -8
 293              		.cfi_offset 14, -4
 294              	.LBB102:
 295              	.LBB101:
 296              		.loc 2 125 3 view .LVU75
 297 0002 0121     		movs	r1, #1
 298 0004 1848     		ldr	r0, .L38
 299 0006 FFF7FEFF 		bl	chSemObjectInit
 300              	.LVL17:
 301              		.loc 2 125 3 view .LVU76
 302              	.LBE101:
 303              	.LBE102:
 304              		.loc 1 88 5 is_stmt 1 view .LVU77
 305 000a FFF7FEFF 		bl	adau1979_init
 306              	.LVL18:
 307              		.loc 1 89 5 view .LVU78
 308 000e FFF7FEFF 		bl	audio_codec_pcm4104_init
 309              	.LVL19:
 310              		.loc 1 91 5 view .LVU79
 311 0012 4FF48062 		mov	r2, #1024
 312 0016 0021     		movs	r1, #0
 313 0018 1448     		ldr	r0, .L38+4
 314 001a FFF7FEFF 		bl	memset
 315              	.LVL20:
 316              		.loc 1 92 5 view .LVU80
 317 001e 4FF40072 		mov	r2, #512
 318 0022 0021     		movs	r1, #0
 319 0024 1248     		ldr	r0, .L38+8
 320 0026 FFF7FEFF 		bl	memset
 321              	.LVL21:
 322              		.loc 1 93 5 view .LVU81
 323 002a 4FF48062 		mov	r2, #1024
 324 002e 0021     		movs	r1, #0
 325 0030 1048     		ldr	r0, .L38+12
 326 0032 FFF7FEFF 		bl	memset
 327              	.LVL22:
 328              		.loc 1 94 5 view .LVU82
 329 0036 4FF48062 		mov	r2, #1024
 330 003a 0021     		movs	r1, #0
 331 003c 0E48     		ldr	r0, .L38+16
 332 003e FFF7FEFF 		bl	memset
 333              	.LVL23:
 334              		.loc 1 95 5 view .LVU83
 335              	.LBB103:
 336              	.LBI103:
 337              		.loc 1 212 13 view .LVU84
 338              		.loc 1 213 5 view .LVU85
 339              	.LBB104:
 340              		.loc 1 213 10 view .LVU86
 341              		.loc 1 213 28 view .LVU87
 342 0042 0E4B     		ldr	r3, .L38+20
ARM GAS  C:\Users\DEVELO~1\AppData\Local\Temp\cce83SFX.s 			page 7


 343              		.loc 1 214 37 is_stmt 0 view .LVU88
 344 0044 4FF07E52 		mov	r2, #1065353216
 345              		.loc 1 216 35 view .LVU89
 346 0048 4FF0010C 		mov	ip, #1
 347 004c 03F13000 		add	r0, r3, #48
 348              		.loc 1 217 34 view .LVU90
 349 0050 0021     		movs	r1, #0
 350              	.LVL24:
 351              	.L35:
 352              		.loc 1 214 9 is_stmt 1 view .LVU91
 353              		.loc 1 214 37 is_stmt 0 view .LVU92
 354 0052 1A60     		str	r2, [r3]	@ float
 355              		.loc 1 215 9 is_stmt 1 view .LVU93
 356              		.loc 1 213 28 is_stmt 0 view .LVU94
 357 0054 0C33     		adds	r3, r3, #12
 358              	.LVL25:
 359              		.loc 1 215 36 view .LVU95
 360 0056 43F8082C 		str	r2, [r3, #-8]	@ float
 361              		.loc 1 216 9 is_stmt 1 view .LVU96
 362              		.loc 1 216 35 is_stmt 0 view .LVU97
 363 005a 03F804CC 		strb	ip, [r3, #-4]
 364              		.loc 1 217 9 is_stmt 1 view .LVU98
 365              		.loc 1 217 34 is_stmt 0 view .LVU99
 366 005e 03F8031C 		strb	r1, [r3, #-3]
 367              		.loc 1 213 34 is_stmt 1 view .LVU100
 368              	.LVL26:
 369              		.loc 1 213 28 view .LVU101
 370 0062 8342     		cmp	r3, r0
 371 0064 F5D1     		bne	.L35
 372              	.LBE104:
 373              	.LBE103:
 374              		.loc 1 99 1 is_stmt 0 view .LVU102
 375 0066 08BD     		pop	{r3, pc}
 376              	.L39:
 377              		.align	2
 378              	.L38:
 379 0068 00000000 		.word	.LANCHOR1
 380 006c 00000000 		.word	.LANCHOR3
 381 0070 00040000 		.word	.LANCHOR3+1024
 382 0074 00060000 		.word	.LANCHOR3+1536
 383 0078 000A0000 		.word	.LANCHOR3+2560
 384 007c 00000000 		.word	.LANCHOR4
 385              		.cfi_endproc
 386              	.LFE448:
 387              		.size	drv_audio_init, .-drv_audio_init
 388              		.section	.text.drv_audio_start,"ax",%progbits
 389              		.align	1
 390              		.p2align 2,,3
 391              		.global	drv_audio_start
 392              		.syntax unified
 393              		.thumb
 394              		.thumb_func
 395              		.type	drv_audio_start, %function
 396              	drv_audio_start:
 397              	.LFB449:
 398              		.loc 1 101 28 is_stmt 1 view -0
 399              		.cfi_startproc
ARM GAS  C:\Users\DEVELO~1\AppData\Local\Temp\cce83SFX.s 			page 8


 400              		@ args = 0, pretend = 0, frame = 0
 401              		@ frame_needed = 0, uses_anonymous_args = 0
 402              		.loc 1 102 5 view .LVU104
 403              		.loc 1 101 28 is_stmt 0 view .LVU105
 404 0000 30B5     		push	{r4, r5, lr}
 405              		.cfi_def_cfa_offset 12
 406              		.cfi_offset 4, -12
 407              		.cfi_offset 5, -8
 408              		.cfi_offset 14, -4
 409              		.loc 1 102 5 view .LVU106
 410 0002 0120     		movs	r0, #1
 411              		.loc 1 101 28 view .LVU107
 412 0004 83B0     		sub	sp, sp, #12
 413              		.cfi_def_cfa_offset 24
 414              		.loc 1 102 5 view .LVU108
 415 0006 FFF7FEFF 		bl	audio_codec_pcm4104_set_mute
 416              	.LVL27:
 417              		.loc 1 103 5 is_stmt 1 view .LVU109
 418              	.LBB107:
 419              	.LBB108:
 420              		.loc 1 403 16 is_stmt 0 view .LVU110
 421 000a 2C4D     		ldr	r5, .L42
 422              	.LBE108:
 423              	.LBE107:
 424              		.loc 1 103 5 view .LVU111
 425 000c FFF7FEFF 		bl	adau1979_set_default_config
 426              	.LVL28:
 427              		.loc 1 105 5 is_stmt 1 view .LVU112
 428              	.LBB113:
 429              	.LBI107:
 430              		.loc 1 401 13 view .LVU113
 431              	.LBB109:
 432              		.loc 1 403 5 view .LVU114
 433              		.loc 1 403 18 is_stmt 0 view .LVU115
 434 0010 0023     		movs	r3, #0
 435 0012 2B4A     		ldr	r2, .L42+4
 436 0014 0221     		movs	r1, #2
 437 0016 1846     		mov	r0, r3
 438              		.loc 1 407 16 view .LVU116
 439 0018 2A4C     		ldr	r4, .L42+8
 440              		.loc 1 403 18 view .LVU117
 441 001a FFF7FEFF 		bl	dmaStreamAlloc
 442              	.LVL29:
 443              		.loc 1 407 18 view .LVU118
 444 001e 2A4A     		ldr	r2, .L42+12
 445              		.loc 1 403 16 view .LVU119
 446 0020 2860     		str	r0, [r5]
 447              		.loc 1 407 5 is_stmt 1 view .LVU120
 448              		.loc 1 407 18 is_stmt 0 view .LVU121
 449 0022 0023     		movs	r3, #0
 450 0024 0221     		movs	r1, #2
 451 0026 0120     		movs	r0, #1
 452 0028 FFF7FEFF 		bl	dmaStreamAlloc
 453              	.LVL30:
 454 002c 0346     		mov	r3, r0
 455              		.loc 1 412 5 view .LVU122
 456 002e 5721     		movs	r1, #87
ARM GAS  C:\Users\DEVELO~1\AppData\Local\Temp\cce83SFX.s 			page 9


 457 0030 2868     		ldr	r0, [r5]
 458              		.loc 1 407 16 view .LVU123
 459 0032 2360     		str	r3, [r4]
 460              		.loc 1 412 5 is_stmt 1 view .LVU124
 461 0034 FFF7FEFF 		bl	dmaSetRequestSource
 462              	.LVL31:
 463              		.loc 1 413 5 view .LVU125
 464 0038 2068     		ldr	r0, [r4]
 465 003a 5621     		movs	r1, #86
 466 003c FFF7FEFF 		bl	dmaSetRequestSource
 467              	.LVL32:
 468              		.loc 1 416 5 view .LVU126
 469              		.loc 1 425 5 view .LVU127
 470 0040 2A68     		ldr	r2, [r5]
 471              		.loc 1 440 5 is_stmt 0 view .LVU128
 472 0042 2368     		ldr	r3, [r4]
 473              		.loc 1 427 5 view .LVU129
 474 0044 4FF48070 		mov	r0, #256
 475              		.loc 1 425 5 view .LVU130
 476 0048 1268     		ldr	r2, [r2]
 477              		.loc 1 426 5 view .LVU131
 478 004a 2049     		ldr	r1, .L42+16
 479              		.loc 1 425 5 view .LVU132
 480 004c 204C     		ldr	r4, .L42+20
 481              		.loc 1 440 5 view .LVU133
 482 004e 1B68     		ldr	r3, [r3]
 483              		.loc 1 425 5 view .LVU134
 484 0050 9460     		str	r4, [r2, #8]
 485              		.loc 1 425 64 is_stmt 1 view .LVU135
 486              		.loc 1 426 5 view .LVU136
 487 0052 D160     		str	r1, [r2, #12]
 488              		.loc 1 426 62 view .LVU137
 489              		.loc 1 427 5 view .LVU138
 490              		.loc 1 441 5 is_stmt 0 view .LVU139
 491 0054 01F58061 		add	r1, r1, #1024
 492              		.loc 1 427 5 view .LVU140
 493 0058 5060     		str	r0, [r2, #4]
 494              		.loc 1 427 66 is_stmt 1 view .LVU141
 495              		.loc 1 428 5 view .LVU142
 496 005a 1E4C     		ldr	r4, .L42+24
 497              		.loc 1 440 5 is_stmt 0 view .LVU143
 498 005c 1E48     		ldr	r0, .L42+28
 499              		.loc 1 428 5 view .LVU144
 500 005e 1460     		str	r4, [r2]
 501              		.loc 1 428 42 is_stmt 1 view .LVU145
 502              		.loc 1 431 5 view .LVU146
 503              	.LVL33:
 504              		.loc 1 440 5 view .LVU147
 505              		.loc 1 442 5 is_stmt 0 view .LVU148
 506 0060 8024     		movs	r4, #128
 507              		.loc 1 440 5 view .LVU149
 508 0062 9860     		str	r0, [r3, #8]
 509              		.loc 1 440 64 is_stmt 1 view .LVU150
 510              		.loc 1 441 5 view .LVU151
 511              		.loc 1 443 5 is_stmt 0 view .LVU152
 512 0064 1D48     		ldr	r0, .L42+32
 513              		.loc 1 441 5 view .LVU153
ARM GAS  C:\Users\DEVELO~1\AppData\Local\Temp\cce83SFX.s 			page 10


 514 0066 D960     		str	r1, [r3, #12]
 515              		.loc 1 441 63 is_stmt 1 view .LVU154
 516              		.loc 1 442 5 view .LVU155
 517 0068 5C60     		str	r4, [r3, #4]
 518              		.loc 1 442 67 view .LVU156
 519              		.loc 1 443 5 view .LVU157
 520              	.LBE109:
 521              	.LBE113:
 522              		.loc 1 106 5 is_stmt 0 view .LVU158
 523 006a 0024     		movs	r4, #0
 524              	.LBB114:
 525              	.LBB110:
 526              		.loc 1 443 5 view .LVU159
 527 006c 1860     		str	r0, [r3]
 528              		.loc 1 443 42 is_stmt 1 view .LVU160
 529              		.loc 1 445 5 view .LVU161
 530 006e 1068     		ldr	r0, [r2]
 531              		.loc 1 449 29 is_stmt 0 view .LVU162
 532 0070 1B49     		ldr	r1, .L42+36
 533              		.loc 1 445 5 view .LVU163
 534 0072 40F00100 		orr	r0, r0, #1
 535 0076 1060     		str	r0, [r2]
 536              		.loc 1 445 32 is_stmt 1 view .LVU164
 537              		.loc 1 446 5 view .LVU165
 538 0078 1A68     		ldr	r2, [r3]
 539 007a 42F00102 		orr	r2, r2, #1
 540 007e 1A60     		str	r2, [r3]
 541              		.loc 1 446 32 view .LVU166
 542              		.loc 1 449 5 view .LVU167
 543              	.LBE110:
 544              	.LBE114:
 545              		.loc 1 106 5 is_stmt 0 view .LVU168
 546 0080 FE22     		movs	r2, #254
 547              	.LBB115:
 548              	.LBB111:
 549              		.loc 1 449 29 view .LVU169
 550 0082 486A     		ldr	r0, [r1, #36]
 551              	.LBE111:
 552              	.LBE115:
 553              		.loc 1 106 5 view .LVU170
 554 0084 174B     		ldr	r3, .L42+40
 555              	.LBB116:
 556              	.LBB112:
 557              		.loc 1 449 29 view .LVU171
 558 0086 40F40030 		orr	r0, r0, #131072
 559 008a 4862     		str	r0, [r1, #36]
 560              		.loc 1 450 5 is_stmt 1 view .LVU172
 561              		.loc 1 450 29 is_stmt 0 view .LVU173
 562 008c 4868     		ldr	r0, [r1, #4]
 563 008e 40F40030 		orr	r0, r0, #131072
 564 0092 4860     		str	r0, [r1, #4]
 565              		.loc 1 451 5 is_stmt 1 view .LVU174
 566              		.loc 1 451 29 is_stmt 0 view .LVU175
 567 0094 486A     		ldr	r0, [r1, #36]
 568 0096 40F48030 		orr	r0, r0, #65536
 569 009a 4862     		str	r0, [r1, #36]
 570              		.loc 1 452 5 is_stmt 1 view .LVU176
ARM GAS  C:\Users\DEVELO~1\AppData\Local\Temp\cce83SFX.s 			page 11


 571              		.loc 1 452 29 is_stmt 0 view .LVU177
 572 009c 4868     		ldr	r0, [r1, #4]
 573 009e 40F48030 		orr	r0, r0, #65536
 574 00a2 4860     		str	r0, [r1, #4]
 575              	.LBE112:
 576              	.LBE116:
 577              		.loc 1 106 5 is_stmt 1 view .LVU178
 578 00a4 4FF43C61 		mov	r1, #3008
 579 00a8 0094     		str	r4, [sp]
 580 00aa 0F48     		ldr	r0, .L42+44
 581 00ac FFF7FEFF 		bl	chThdCreateStatic
 582              	.LVL34:
 583              		.loc 1 107 5 view .LVU179
 584 00b0 2046     		mov	r0, r4
 585              		.loc 1 108 1 is_stmt 0 view .LVU180
 586 00b2 03B0     		add	sp, sp, #12
 587              		.cfi_def_cfa_offset 12
 588              		@ sp needed
 589 00b4 BDE83040 		pop	{r4, r5, lr}
 590              		.cfi_restore 14
 591              		.cfi_restore 5
 592              		.cfi_restore 4
 593              		.cfi_def_cfa_offset 0
 594              		.loc 1 107 5 view .LVU181
 595 00b8 FFF7FEBF 		b	audio_codec_pcm4104_set_mute
 596              	.LVL35:
 597              	.L43:
 598              		.align	2
 599              	.L42:
 600 00bc 00000000 		.word	.LANCHOR5
 601 00c0 00000000 		.word	audio_dma_rx_cb
 602 00c4 00000000 		.word	.LANCHOR6
 603 00c8 00000000 		.word	audio_dma_tx_cb
 604 00cc 00000000 		.word	.LANCHOR3
 605 00d0 40580140 		.word	1073829952
 606 00d4 18550200 		.word	152856
 607 00d8 20580140 		.word	1073829920
 608 00dc 58550200 		.word	152920
 609 00e0 00580140 		.word	1073829888
 610 00e4 00000000 		.word	audioThread
 611 00e8 00000000 		.word	.LANCHOR7
 612              		.cfi_endproc
 613              	.LFE449:
 614              		.size	drv_audio_start, .-drv_audio_start
 615              		.section	.text.drv_audio_stop,"ax",%progbits
 616              		.align	1
 617              		.p2align 2,,3
 618              		.global	drv_audio_stop
 619              		.syntax unified
 620              		.thumb
 621              		.thumb_func
 622              		.type	drv_audio_stop, %function
 623              	drv_audio_stop:
 624              	.LFB450:
 625              		.loc 1 110 27 is_stmt 1 view -0
 626              		.cfi_startproc
 627              		@ args = 0, pretend = 0, frame = 0
ARM GAS  C:\Users\DEVELO~1\AppData\Local\Temp\cce83SFX.s 			page 12


 628              		@ frame_needed = 0, uses_anonymous_args = 0
 629              		.loc 1 111 5 view .LVU183
 630              	.LBB119:
 631              	.LBI119:
 632              		.loc 1 459 13 view .LVU184
 633              	.LBB120:
 634              		.loc 1 460 5 view .LVU185
 635              	.LBE120:
 636              	.LBE119:
 637              		.loc 1 110 27 is_stmt 0 view .LVU186
 638 0000 38B5     		push	{r3, r4, r5, lr}
 639              		.cfi_def_cfa_offset 16
 640              		.cfi_offset 3, -16
 641              		.cfi_offset 4, -12
 642              		.cfi_offset 5, -8
 643              		.cfi_offset 14, -4
 644              	.LBB123:
 645              	.LBB121:
 646              		.loc 1 460 20 view .LVU187
 647 0002 1B4D     		ldr	r5, .L58
 648 0004 2868     		ldr	r0, [r5]
 649              		.loc 1 460 8 view .LVU188
 650 0006 80B1     		cbz	r0, .L45
 651              		.loc 1 461 9 is_stmt 1 view .LVU189
 652 0008 0268     		ldr	r2, [r0]
 653 000a 1368     		ldr	r3, [r2]
 654 000c 23F01F03 		bic	r3, r3, #31
 655 0010 1360     		str	r3, [r2]
 656              		.loc 1 461 9 view .LVU190
 657              	.L46:
 658              		.loc 1 461 9 view .LVU191
 659 0012 1468     		ldr	r4, [r2]
 660 0014 14F00104 		ands	r4, r4, #1
 661 0018 FBD1     		bne	.L46
 662              		.loc 1 461 9 view .LVU192
 663 001a 017B     		ldrb	r1, [r0, #12]	@ zero_extendqisi2
 664 001c 3D23     		movs	r3, #61
 665 001e 4268     		ldr	r2, [r0, #4]
 666 0020 8B40     		lsls	r3, r3, r1
 667 0022 1360     		str	r3, [r2]
 668              		.loc 1 461 9 view .LVU193
 669              		.loc 1 461 37 view .LVU194
 670              		.loc 1 462 9 view .LVU195
 671 0024 FFF7FEFF 		bl	dmaStreamFree
 672              	.LVL36:
 673              		.loc 1 463 9 view .LVU196
 674              		.loc 1 463 20 is_stmt 0 view .LVU197
 675 0028 2C60     		str	r4, [r5]
 676              	.L45:
 677              		.loc 1 465 5 is_stmt 1 view .LVU198
 678              		.loc 1 465 20 is_stmt 0 view .LVU199
 679 002a 124D     		ldr	r5, .L58+4
 680 002c 2868     		ldr	r0, [r5]
 681              		.loc 1 465 8 view .LVU200
 682 002e 80B1     		cbz	r0, .L47
 683              		.loc 1 466 9 is_stmt 1 view .LVU201
 684 0030 0268     		ldr	r2, [r0]
ARM GAS  C:\Users\DEVELO~1\AppData\Local\Temp\cce83SFX.s 			page 13


 685 0032 1368     		ldr	r3, [r2]
 686 0034 23F01F03 		bic	r3, r3, #31
 687 0038 1360     		str	r3, [r2]
 688              		.loc 1 466 9 view .LVU202
 689              	.L48:
 690              		.loc 1 466 9 view .LVU203
 691 003a 1468     		ldr	r4, [r2]
 692 003c 14F00104 		ands	r4, r4, #1
 693 0040 FBD1     		bne	.L48
 694              		.loc 1 466 9 view .LVU204
 695 0042 017B     		ldrb	r1, [r0, #12]	@ zero_extendqisi2
 696 0044 3D23     		movs	r3, #61
 697 0046 4268     		ldr	r2, [r0, #4]
 698 0048 8B40     		lsls	r3, r3, r1
 699 004a 1360     		str	r3, [r2]
 700              		.loc 1 466 9 view .LVU205
 701              		.loc 1 466 37 view .LVU206
 702              		.loc 1 467 9 view .LVU207
 703 004c FFF7FEFF 		bl	dmaStreamFree
 704              	.LVL37:
 705              		.loc 1 468 9 view .LVU208
 706              		.loc 1 468 20 is_stmt 0 view .LVU209
 707 0050 2C60     		str	r4, [r5]
 708              	.L47:
 709              		.loc 1 471 5 is_stmt 1 view .LVU210
 710              		.loc 1 471 29 is_stmt 0 view .LVU211
 711 0052 094B     		ldr	r3, .L58+8
 712              	.LBE121:
 713              	.LBE123:
 714              		.loc 1 112 5 view .LVU212
 715 0054 0120     		movs	r0, #1
 716              	.LBB124:
 717              	.LBB122:
 718              		.loc 1 471 29 view .LVU213
 719 0056 5A6A     		ldr	r2, [r3, #36]
 720 0058 22F44032 		bic	r2, r2, #196608
 721 005c 5A62     		str	r2, [r3, #36]
 722              		.loc 1 472 5 is_stmt 1 view .LVU214
 723              		.loc 1 472 29 is_stmt 0 view .LVU215
 724 005e 5A68     		ldr	r2, [r3, #4]
 725 0060 22F44032 		bic	r2, r2, #196608
 726 0064 5A60     		str	r2, [r3, #4]
 727              	.LBE122:
 728              	.LBE124:
 729              		.loc 1 112 5 is_stmt 1 view .LVU216
 730              		.loc 1 113 1 is_stmt 0 view .LVU217
 731 0066 BDE83840 		pop	{r3, r4, r5, lr}
 732              		.cfi_restore 14
 733              		.cfi_restore 5
 734              		.cfi_restore 4
 735              		.cfi_restore 3
 736              		.cfi_def_cfa_offset 0
 737              		.loc 1 112 5 view .LVU218
 738 006a FFF7FEBF 		b	audio_codec_pcm4104_set_mute
 739              	.LVL38:
 740              	.L59:
 741 006e 00BF     		.align	2
ARM GAS  C:\Users\DEVELO~1\AppData\Local\Temp\cce83SFX.s 			page 14


 742              	.L58:
 743 0070 00000000 		.word	.LANCHOR5
 744 0074 00000000 		.word	.LANCHOR6
 745 0078 00580140 		.word	1073829888
 746              		.cfi_endproc
 747              	.LFE450:
 748              		.size	drv_audio_stop, .-drv_audio_stop
 749              		.section	.text.drv_audio_get_input_buffer,"ax",%progbits
 750              		.align	1
 751              		.p2align 2,,3
 752              		.global	drv_audio_get_input_buffer
 753              		.syntax unified
 754              		.thumb
 755              		.thumb_func
 756              		.type	drv_audio_get_input_buffer, %function
 757              	drv_audio_get_input_buffer:
 758              	.LVL39:
 759              	.LFB451:
 760              		.loc 1 115 75 is_stmt 1 view -0
 761              		.cfi_startproc
 762              		@ args = 0, pretend = 0, frame = 0
 763              		@ frame_needed = 0, uses_anonymous_args = 0
 764              		@ link register save eliminated.
 765              		.loc 1 116 5 view .LVU220
 766              	.LBB125:
 767              	.LBI125:
 768              		.file 3 "./docs/ChibiOS/os/rt/include/chsys.h"
 769              		.loc 3 372 20 view .LVU221
 770              		.loc 3 374 3 view .LVU222
 771              	.LBB126:
 772              	.LBI126:
 773              		.file 4 "./docs/ChibiOS/os/common/ports/ARMv7-M/chcore.h"
 774              		.loc 4 840 27 view .LVU223
 775              		.loc 4 848 3 view .LVU224
 776              	.LBB127:
 777              	.LBI127:
 778              		.file 5 "./docs/ChibiOS/os/common/ext/ARM/CMSIS/Core/Include/cmsis_gcc.h"
 779              		.loc 5 491 27 view .LVU225
 780              	.LBB128:
 781              		.loc 5 493 3 view .LVU226
 782 0000 3023     		movs	r3, #48
 783              	.LBE128:
 784              	.LBE127:
 785              	.LBE126:
 786              	.LBE125:
 787              		.loc 1 115 75 is_stmt 0 view .LVU227
 788 0002 10B4     		push	{r4}
 789              		.cfi_def_cfa_offset 4
 790              		.cfi_offset 4, -4
 791              	.LBB132:
 792              	.LBB131:
 793              	.LBB130:
 794              	.LBB129:
 795              		.loc 5 493 3 view .LVU228
 796              		.syntax unified
 797              	@ 493 "./docs/ChibiOS/os/common/ext/ARM/CMSIS/Core/Include/cmsis_gcc.h" 1
 798 0004 83F31188 		MSR basepri, r3
ARM GAS  C:\Users\DEVELO~1\AppData\Local\Temp\cce83SFX.s 			page 15


 799              	@ 0 "" 2
 800              	.LVL40:
 801              		.loc 5 493 3 view .LVU229
 802              		.thumb
 803              		.syntax unified
 804              	.LBE129:
 805              	.LBE130:
 806              	.LBE131:
 807              		.loc 3 375 35 is_stmt 1 view .LVU230
 808              		.loc 3 376 21 view .LVU231
 809              	.LBE132:
 810              		.loc 1 117 5 view .LVU232
 811              		.loc 1 117 13 is_stmt 0 view .LVU233
 812 0008 0C4C     		ldr	r4, .L72
 813              		.loc 1 118 26 view .LVU234
 814 000a 4FF0FF0C 		mov	ip, #255
 815              	.LBB133:
 816              	.LBB134:
 817              	.LBB135:
 818              	.LBB136:
 819              	.LBB137:
 820              		.loc 5 493 3 view .LVU235
 821 000e 0023     		movs	r3, #0
 822              	.LBE137:
 823              	.LBE136:
 824              	.LBE135:
 825              	.LBE134:
 826              	.LBE133:
 827              		.loc 1 117 13 view .LVU236
 828 0010 2278     		ldrb	r2, [r4]	@ zero_extendqisi2
 829              		.loc 1 118 26 view .LVU237
 830 0012 84F800C0 		strb	ip, [r4]
 831              		.loc 1 117 13 view .LVU238
 832 0016 D2B2     		uxtb	r2, r2
 833              	.LVL41:
 834              		.loc 1 118 5 is_stmt 1 view .LVU239
 835              		.loc 1 119 5 view .LVU240
 836              	.LBB142:
 837              	.LBI133:
 838              		.loc 3 386 20 view .LVU241
 839              	.LBB141:
 840              		.loc 3 388 23 view .LVU242
 841              		.loc 3 389 34 view .LVU243
 842              		.loc 3 395 3 view .LVU244
 843              		.loc 3 395 3 view .LVU245
 844              		.loc 3 395 3 view .LVU246
 845              		.loc 3 399 3 view .LVU247
 846              	.LBB140:
 847              	.LBI135:
 848              		.loc 4 864 27 view .LVU248
 849              		.loc 4 867 3 view .LVU249
 850              	.LBB139:
 851              	.LBI136:
 852              		.loc 5 491 27 view .LVU250
 853              	.LBB138:
 854              		.loc 5 493 3 view .LVU251
 855              		.syntax unified
ARM GAS  C:\Users\DEVELO~1\AppData\Local\Temp\cce83SFX.s 			page 16


 856              	@ 493 "./docs/ChibiOS/os/common/ext/ARM/CMSIS/Core/Include/cmsis_gcc.h" 1
 857 0018 83F31188 		MSR basepri, r3
 858              	@ 0 "" 2
 859              	.LVL42:
 860              		.loc 5 493 3 is_stmt 0 view .LVU252
 861              		.thumb
 862              		.syntax unified
 863              	.LBE138:
 864              	.LBE139:
 865              	.LBE140:
 866              	.LBE141:
 867              	.LBE142:
 868              		.loc 1 121 5 is_stmt 1 view .LVU253
 869              		.loc 1 121 8 is_stmt 0 view .LVU254
 870 001c 6245     		cmp	r2, ip
 871 001e 0AD0     		beq	.L64
 872              		.loc 1 124 5 is_stmt 1 view .LVU255
 873              		.loc 1 124 8 is_stmt 0 view .LVU256
 874 0020 00B1     		cbz	r0, .L62
 875              		.loc 1 125 9 is_stmt 1 view .LVU257
 876              		.loc 1 125 16 is_stmt 0 view .LVU258
 877 0022 0270     		strb	r2, [r0]
 878              	.L62:
 879              		.loc 1 127 5 is_stmt 1 view .LVU259
 880              		.loc 1 127 8 is_stmt 0 view .LVU260
 881 0024 09B1     		cbz	r1, .L63
 882              		.loc 1 128 9 is_stmt 1 view .LVU261
 883              		.loc 1 128 17 is_stmt 0 view .LVU262
 884 0026 1023     		movs	r3, #16
 885 0028 0B60     		str	r3, [r1]
 886              	.L63:
 887              		.loc 1 130 5 is_stmt 1 view .LVU263
 888              		.loc 1 130 12 is_stmt 0 view .LVU264
 889 002a 0548     		ldr	r0, .L72+4
 890              	.LVL43:
 891              		.loc 1 130 12 view .LVU265
 892 002c 00EB4220 		add	r0, r0, r2, lsl #9
 893              	.L60:
 894              		.loc 1 131 1 view .LVU266
 895 0030 5DF8044B 		ldr	r4, [sp], #4
 896              		.cfi_remember_state
 897              		.cfi_restore 4
 898              		.cfi_def_cfa_offset 0
 899 0034 7047     		bx	lr
 900              	.LVL44:
 901              	.L64:
 902              		.cfi_restore_state
 903              		.loc 1 122 16 view .LVU267
 904 0036 1846     		mov	r0, r3
 905              	.LVL45:
 906              		.loc 1 122 16 view .LVU268
 907 0038 FAE7     		b	.L60
 908              	.L73:
 909 003a 00BF     		.align	2
 910              	.L72:
 911 003c 00000000 		.word	.LANCHOR2
 912 0040 00000000 		.word	.LANCHOR3
ARM GAS  C:\Users\DEVELO~1\AppData\Local\Temp\cce83SFX.s 			page 17


 913              		.cfi_endproc
 914              	.LFE451:
 915              		.size	drv_audio_get_input_buffer, .-drv_audio_get_input_buffer
 916              		.section	.text.drv_audio_get_output_buffer,"ax",%progbits
 917              		.align	1
 918              		.p2align 2,,3
 919              		.global	drv_audio_get_output_buffer
 920              		.syntax unified
 921              		.thumb
 922              		.thumb_func
 923              		.type	drv_audio_get_output_buffer, %function
 924              	drv_audio_get_output_buffer:
 925              	.LVL46:
 926              	.LFB452:
 927              		.loc 1 133 70 is_stmt 1 view -0
 928              		.cfi_startproc
 929              		@ args = 0, pretend = 0, frame = 0
 930              		@ frame_needed = 0, uses_anonymous_args = 0
 931              		@ link register save eliminated.
 932              		.loc 1 134 5 view .LVU270
 933              	.LBB143:
 934              	.LBI143:
 935              		.loc 3 372 20 view .LVU271
 936              		.loc 3 374 3 view .LVU272
 937              	.LBB144:
 938              	.LBI144:
 939              		.loc 4 840 27 view .LVU273
 940              		.loc 4 848 3 view .LVU274
 941              	.LBB145:
 942              	.LBI145:
 943              		.loc 5 491 27 view .LVU275
 944              	.LBB146:
 945              		.loc 5 493 3 view .LVU276
 946 0000 3023     		movs	r3, #48
 947              	.LBE146:
 948              	.LBE145:
 949              	.LBE144:
 950              	.LBE143:
 951              		.loc 1 133 70 is_stmt 0 view .LVU277
 952 0002 10B4     		push	{r4}
 953              		.cfi_def_cfa_offset 4
 954              		.cfi_offset 4, -4
 955              	.LBB150:
 956              	.LBB149:
 957              	.LBB148:
 958              	.LBB147:
 959              		.loc 5 493 3 view .LVU278
 960              		.syntax unified
 961              	@ 493 "./docs/ChibiOS/os/common/ext/ARM/CMSIS/Core/Include/cmsis_gcc.h" 1
 962 0004 83F31188 		MSR basepri, r3
 963              	@ 0 "" 2
 964              	.LVL47:
 965              		.loc 5 493 3 view .LVU279
 966              		.thumb
 967              		.syntax unified
 968              	.LBE147:
 969              	.LBE148:
ARM GAS  C:\Users\DEVELO~1\AppData\Local\Temp\cce83SFX.s 			page 18


 970              	.LBE149:
 971              		.loc 3 375 35 is_stmt 1 view .LVU280
 972              		.loc 3 376 21 view .LVU281
 973              	.LBE150:
 974              		.loc 1 135 5 view .LVU282
 975              		.loc 1 135 13 is_stmt 0 view .LVU283
 976 0008 0C4C     		ldr	r4, .L86
 977              		.loc 1 136 27 view .LVU284
 978 000a 4FF0FF0C 		mov	ip, #255
 979              	.LBB151:
 980              	.LBB152:
 981              	.LBB153:
 982              	.LBB154:
 983              	.LBB155:
 984              		.loc 5 493 3 view .LVU285
 985 000e 0023     		movs	r3, #0
 986              	.LBE155:
 987              	.LBE154:
 988              	.LBE153:
 989              	.LBE152:
 990              	.LBE151:
 991              		.loc 1 135 13 view .LVU286
 992 0010 2278     		ldrb	r2, [r4]	@ zero_extendqisi2
 993              		.loc 1 136 27 view .LVU287
 994 0012 84F800C0 		strb	ip, [r4]
 995              		.loc 1 135 13 view .LVU288
 996 0016 D2B2     		uxtb	r2, r2
 997              	.LVL48:
 998              		.loc 1 136 5 is_stmt 1 view .LVU289
 999              		.loc 1 137 5 view .LVU290
 1000              	.LBB160:
 1001              	.LBI151:
 1002              		.loc 3 386 20 view .LVU291
 1003              	.LBB159:
 1004              		.loc 3 388 23 view .LVU292
 1005              		.loc 3 389 34 view .LVU293
 1006              		.loc 3 395 3 view .LVU294
 1007              		.loc 3 395 3 view .LVU295
 1008              		.loc 3 395 3 view .LVU296
 1009              		.loc 3 399 3 view .LVU297
 1010              	.LBB158:
 1011              	.LBI153:
 1012              		.loc 4 864 27 view .LVU298
 1013              		.loc 4 867 3 view .LVU299
 1014              	.LBB157:
 1015              	.LBI154:
 1016              		.loc 5 491 27 view .LVU300
 1017              	.LBB156:
 1018              		.loc 5 493 3 view .LVU301
 1019              		.syntax unified
 1020              	@ 493 "./docs/ChibiOS/os/common/ext/ARM/CMSIS/Core/Include/cmsis_gcc.h" 1
 1021 0018 83F31188 		MSR basepri, r3
 1022              	@ 0 "" 2
 1023              	.LVL49:
 1024              		.loc 5 493 3 is_stmt 0 view .LVU302
 1025              		.thumb
 1026              		.syntax unified
ARM GAS  C:\Users\DEVELO~1\AppData\Local\Temp\cce83SFX.s 			page 19


 1027              	.LBE156:
 1028              	.LBE157:
 1029              	.LBE158:
 1030              	.LBE159:
 1031              	.LBE160:
 1032              		.loc 1 139 5 is_stmt 1 view .LVU303
 1033              		.loc 1 139 8 is_stmt 0 view .LVU304
 1034 001c 6245     		cmp	r2, ip
 1035 001e 0AD0     		beq	.L78
 1036              		.loc 1 142 5 is_stmt 1 view .LVU305
 1037              		.loc 1 142 8 is_stmt 0 view .LVU306
 1038 0020 00B1     		cbz	r0, .L76
 1039              		.loc 1 143 9 is_stmt 1 view .LVU307
 1040              		.loc 1 143 16 is_stmt 0 view .LVU308
 1041 0022 0270     		strb	r2, [r0]
 1042              	.L76:
 1043              		.loc 1 145 5 is_stmt 1 view .LVU309
 1044              		.loc 1 145 8 is_stmt 0 view .LVU310
 1045 0024 09B1     		cbz	r1, .L77
 1046              		.loc 1 146 9 is_stmt 1 view .LVU311
 1047              		.loc 1 146 17 is_stmt 0 view .LVU312
 1048 0026 1023     		movs	r3, #16
 1049 0028 0B60     		str	r3, [r1]
 1050              	.L77:
 1051              		.loc 1 148 5 is_stmt 1 view .LVU313
 1052              		.loc 1 148 12 is_stmt 0 view .LVU314
 1053 002a 0548     		ldr	r0, .L86+4
 1054              	.LVL50:
 1055              		.loc 1 148 12 view .LVU315
 1056 002c 00EB0220 		add	r0, r0, r2, lsl #8
 1057              	.L74:
 1058              		.loc 1 149 1 view .LVU316
 1059 0030 5DF8044B 		ldr	r4, [sp], #4
 1060              		.cfi_remember_state
 1061              		.cfi_restore 4
 1062              		.cfi_def_cfa_offset 0
 1063 0034 7047     		bx	lr
 1064              	.LVL51:
 1065              	.L78:
 1066              		.cfi_restore_state
 1067              		.loc 1 140 16 view .LVU317
 1068 0036 1846     		mov	r0, r3
 1069              	.LVL52:
 1070              		.loc 1 140 16 view .LVU318
 1071 0038 FAE7     		b	.L74
 1072              	.L87:
 1073 003a 00BF     		.align	2
 1074              	.L86:
 1075 003c 00000000 		.word	.LANCHOR0
 1076 0040 00040000 		.word	.LANCHOR3+1024
 1077              		.cfi_endproc
 1078              	.LFE452:
 1079              		.size	drv_audio_get_output_buffer, .-drv_audio_get_output_buffer
 1080              		.section	.text.drv_audio_release_buffers,"ax",%progbits
 1081              		.align	1
 1082              		.p2align 2,,3
 1083              		.global	drv_audio_release_buffers
ARM GAS  C:\Users\DEVELO~1\AppData\Local\Temp\cce83SFX.s 			page 20


 1084              		.syntax unified
 1085              		.thumb
 1086              		.thumb_func
 1087              		.type	drv_audio_release_buffers, %function
 1088              	drv_audio_release_buffers:
 1089              	.LVL53:
 1090              	.LFB453:
 1091              		.loc 1 151 69 is_stmt 1 view -0
 1092              		.cfi_startproc
 1093              		@ args = 0, pretend = 0, frame = 0
 1094              		@ frame_needed = 0, uses_anonymous_args = 0
 1095              		@ link register save eliminated.
 1096              		.loc 1 152 5 view .LVU320
 1097              		.loc 1 153 5 view .LVU321
 1098              		.loc 1 155 1 is_stmt 0 view .LVU322
 1099 0000 7047     		bx	lr
 1100              		.cfi_endproc
 1101              	.LFE453:
 1102              		.size	drv_audio_release_buffers, .-drv_audio_release_buffers
 1103              		.section	.text.drv_audio_get_spi_in_buffers,"ax",%progbits
 1104              		.align	1
 1105              		.p2align 2,,3
 1106              		.global	drv_audio_get_spi_in_buffers
 1107              		.syntax unified
 1108              		.thumb
 1109              		.thumb_func
 1110              		.type	drv_audio_get_spi_in_buffers, %function
 1111              	drv_audio_get_spi_in_buffers:
 1112              	.LFB454:
 1113              		.loc 1 157 75 is_stmt 1 view -0
 1114              		.cfi_startproc
 1115              		@ args = 0, pretend = 0, frame = 0
 1116              		@ frame_needed = 0, uses_anonymous_args = 0
 1117              		@ link register save eliminated.
 1118              		.loc 1 158 5 view .LVU324
 1119              		.loc 1 159 1 is_stmt 0 view .LVU325
 1120 0000 0048     		ldr	r0, .L90
 1121 0002 7047     		bx	lr
 1122              	.L91:
 1123              		.align	2
 1124              	.L90:
 1125 0004 00060000 		.word	.LANCHOR3+1536
 1126              		.cfi_endproc
 1127              	.LFE454:
 1128              		.size	drv_audio_get_spi_in_buffers, .-drv_audio_get_spi_in_buffers
 1129              		.section	.text.drv_audio_get_spi_out_buffers,"ax",%progbits
 1130              		.align	1
 1131              		.p2align 2,,3
 1132              		.global	drv_audio_get_spi_out_buffers
 1133              		.syntax unified
 1134              		.thumb
 1135              		.thumb_func
 1136              		.type	drv_audio_get_spi_out_buffers, %function
 1137              	drv_audio_get_spi_out_buffers:
 1138              	.LFB455:
 1139              		.loc 1 161 76 is_stmt 1 view -0
 1140              		.cfi_startproc
ARM GAS  C:\Users\DEVELO~1\AppData\Local\Temp\cce83SFX.s 			page 21


 1141              		@ args = 0, pretend = 0, frame = 0
 1142              		@ frame_needed = 0, uses_anonymous_args = 0
 1143              		@ link register save eliminated.
 1144              		.loc 1 162 5 view .LVU327
 1145              		.loc 1 163 1 is_stmt 0 view .LVU328
 1146 0000 0048     		ldr	r0, .L93
 1147 0002 7047     		bx	lr
 1148              	.L94:
 1149              		.align	2
 1150              	.L93:
 1151 0004 000A0000 		.word	.LANCHOR3+2560
 1152              		.cfi_endproc
 1153              	.LFE455:
 1154              		.size	drv_audio_get_spi_out_buffers, .-drv_audio_get_spi_out_buffers
 1155              		.section	.text.drv_audio_get_spi_frames,"ax",%progbits
 1156              		.align	1
 1157              		.p2align 2,,3
 1158              		.global	drv_audio_get_spi_frames
 1159              		.syntax unified
 1160              		.thumb
 1161              		.thumb_func
 1162              		.type	drv_audio_get_spi_frames, %function
 1163              	drv_audio_get_spi_frames:
 1164              	.LFB456:
 1165              		.loc 1 165 39 is_stmt 1 view -0
 1166              		.cfi_startproc
 1167              		@ args = 0, pretend = 0, frame = 0
 1168              		@ frame_needed = 0, uses_anonymous_args = 0
 1169              		@ link register save eliminated.
 1170              		.loc 1 166 5 view .LVU330
 1171              		.loc 1 167 1 is_stmt 0 view .LVU331
 1172 0000 1020     		movs	r0, #16
 1173 0002 7047     		bx	lr
 1174              		.cfi_endproc
 1175              	.LFE456:
 1176              		.size	drv_audio_get_spi_frames, .-drv_audio_get_spi_frames
 1177              		.section	.text.drv_audio_register_spilink_pull,"ax",%progbits
 1178              		.align	1
 1179              		.p2align 2,,3
 1180              		.global	drv_audio_register_spilink_pull
 1181              		.syntax unified
 1182              		.thumb
 1183              		.thumb_func
 1184              		.type	drv_audio_register_spilink_pull, %function
 1185              	drv_audio_register_spilink_pull:
 1186              	.LVL54:
 1187              	.LFB457:
 1188              		.loc 1 169 64 is_stmt 1 view -0
 1189              		.cfi_startproc
 1190              		@ args = 0, pretend = 0, frame = 0
 1191              		@ frame_needed = 0, uses_anonymous_args = 0
 1192              		@ link register save eliminated.
 1193              		.loc 1 170 5 view .LVU333
 1194              		.loc 1 170 21 is_stmt 0 view .LVU334
 1195 0000 014B     		ldr	r3, .L97
 1196 0002 1860     		str	r0, [r3]
 1197              		.loc 1 171 1 view .LVU335
ARM GAS  C:\Users\DEVELO~1\AppData\Local\Temp\cce83SFX.s 			page 22


 1198 0004 7047     		bx	lr
 1199              	.L98:
 1200 0006 00BF     		.align	2
 1201              	.L97:
 1202 0008 00000000 		.word	.LANCHOR8
 1203              		.cfi_endproc
 1204              	.LFE457:
 1205              		.size	drv_audio_register_spilink_pull, .-drv_audio_register_spilink_pull
 1206              		.section	.text.drv_audio_register_spilink_push,"ax",%progbits
 1207              		.align	1
 1208              		.p2align 2,,3
 1209              		.global	drv_audio_register_spilink_push
 1210              		.syntax unified
 1211              		.thumb
 1212              		.thumb_func
 1213              		.type	drv_audio_register_spilink_push, %function
 1214              	drv_audio_register_spilink_push:
 1215              	.LVL55:
 1216              	.LFB458:
 1217              		.loc 1 173 64 is_stmt 1 view -0
 1218              		.cfi_startproc
 1219              		@ args = 0, pretend = 0, frame = 0
 1220              		@ frame_needed = 0, uses_anonymous_args = 0
 1221              		@ link register save eliminated.
 1222              		.loc 1 174 5 view .LVU337
 1223              		.loc 1 174 21 is_stmt 0 view .LVU338
 1224 0000 014B     		ldr	r3, .L100
 1225 0002 1860     		str	r0, [r3]
 1226              		.loc 1 175 1 view .LVU339
 1227 0004 7047     		bx	lr
 1228              	.L101:
 1229 0006 00BF     		.align	2
 1230              	.L100:
 1231 0008 00000000 		.word	.LANCHOR9
 1232              		.cfi_endproc
 1233              	.LFE458:
 1234              		.size	drv_audio_register_spilink_push, .-drv_audio_register_spilink_push
 1235              		.section	.text.drv_audio_set_master_volume,"ax",%progbits
 1236              		.align	1
 1237              		.p2align 2,,3
 1238              		.global	drv_audio_set_master_volume
 1239              		.syntax unified
 1240              		.thumb
 1241              		.thumb_func
 1242              		.type	drv_audio_set_master_volume, %function
 1243              	drv_audio_set_master_volume:
 1244              	.LVL56:
 1245              	.LFB459:
 1246              		.loc 1 177 45 is_stmt 1 view -0
 1247              		.cfi_startproc
 1248              		@ args = 0, pretend = 0, frame = 0
 1249              		@ frame_needed = 0, uses_anonymous_args = 0
 1250              		@ link register save eliminated.
 1251              		.loc 1 178 5 view .LVU341
 1252              		.loc 1 178 8 is_stmt 0 view .LVU342
 1253 0000 B5EEC00A 		vcmpe.f32	s0, #0
 1254              		.loc 1 181 25 view .LVU343
ARM GAS  C:\Users\DEVELO~1\AppData\Local\Temp\cce83SFX.s 			page 23


 1255 0004 044B     		ldr	r3, .L106
 1256              		.loc 1 178 8 view .LVU344
 1257 0006 F1EE10FA 		vmrs	APSR_nzcv, FPSCR
 1258              		.loc 1 179 13 view .LVU345
 1259 000a 48BF     		it	mi
 1260 000c 9FED030A 		vldrmi.32	s0, .L106+4
 1261              	.LVL57:
 1262              		.loc 1 181 5 is_stmt 1 view .LVU346
 1263              		.loc 1 181 25 is_stmt 0 view .LVU347
 1264 0010 83ED000A 		vstr.32	s0, [r3]
 1265              		.loc 1 182 1 view .LVU348
 1266 0014 7047     		bx	lr
 1267              	.L107:
 1268 0016 00BF     		.align	2
 1269              	.L106:
 1270 0018 00000000 		.word	.LANCHOR10
 1271 001c 00000000 		.word	0
 1272              		.cfi_endproc
 1273              	.LFE459:
 1274              		.size	drv_audio_set_master_volume, .-drv_audio_set_master_volume
 1275              		.section	.text.drv_audio_set_route,"ax",%progbits
 1276              		.align	1
 1277              		.p2align 2,,3
 1278              		.global	drv_audio_set_route
 1279              		.syntax unified
 1280              		.thumb
 1281              		.thumb_func
 1282              		.type	drv_audio_set_route, %function
 1283              	drv_audio_set_route:
 1284              	.LVL58:
 1285              	.LFB460:
 1286              		.loc 1 184 68 is_stmt 1 view -0
 1287              		.cfi_startproc
 1288              		@ args = 0, pretend = 0, frame = 0
 1289              		@ frame_needed = 0, uses_anonymous_args = 0
 1290              		@ link register save eliminated.
 1291              		.loc 1 185 5 view .LVU350
 1292              		.loc 1 185 8 is_stmt 0 view .LVU351
 1293 0000 0328     		cmp	r0, #3
 1294 0002 06D8     		bhi	.L108
 1295              		.loc 1 189 5 is_stmt 1 view .LVU352
 1296              		.loc 1 189 35 is_stmt 0 view .LVU353
 1297 0004 034B     		ldr	r3, .L110
 1298 0006 00EB4000 		add	r0, r0, r0, lsl #1
 1299              	.LVL59:
 1300              		.loc 1 189 35 view .LVU354
 1301 000a 03EB8003 		add	r3, r3, r0, lsl #2
 1302 000e 1972     		strb	r1, [r3, #8]
 1303              		.loc 1 190 5 is_stmt 1 view .LVU355
 1304              		.loc 1 190 34 is_stmt 0 view .LVU356
 1305 0010 5A72     		strb	r2, [r3, #9]
 1306              	.L108:
 1307              		.loc 1 191 1 view .LVU357
 1308 0012 7047     		bx	lr
 1309              	.L111:
 1310              		.align	2
 1311              	.L110:
ARM GAS  C:\Users\DEVELO~1\AppData\Local\Temp\cce83SFX.s 			page 24


 1312 0014 00000000 		.word	.LANCHOR4
 1313              		.cfi_endproc
 1314              	.LFE460:
 1315              		.size	drv_audio_set_route, .-drv_audio_set_route
 1316              		.section	.text.drv_audio_set_route_gain,"ax",%progbits
 1317              		.align	1
 1318              		.p2align 2,,3
 1319              		.global	drv_audio_set_route_gain
 1320              		.syntax unified
 1321              		.thumb
 1322              		.thumb_func
 1323              		.type	drv_audio_set_route_gain, %function
 1324              	drv_audio_set_route_gain:
 1325              	.LVL60:
 1326              	.LFB462:
 1327              		.loc 1 203 79 is_stmt 1 view -0
 1328              		.cfi_startproc
 1329              		@ args = 0, pretend = 0, frame = 0
 1330              		@ frame_needed = 0, uses_anonymous_args = 0
 1331              		@ link register save eliminated.
 1332              		.loc 1 204 5 view .LVU359
 1333              		.loc 1 204 8 is_stmt 0 view .LVU360
 1334 0000 0328     		cmp	r0, #3
 1335 0002 26D8     		bhi	.L112
 1336              		.loc 1 208 5 is_stmt 1 view .LVU361
 1337              	.LVL61:
 1338              	.LBB161:
 1339              	.LBI161:
 1340              		.loc 1 193 14 view .LVU362
 1341              	.LBB162:
 1342              		.loc 1 194 5 view .LVU363
 1343              		.loc 1 194 8 is_stmt 0 view .LVU364
 1344 0004 B5EEC00A 		vcmpe.f32	s0, #0
 1345 0008 F1EE10FA 		vmrs	APSR_nzcv, FPSCR
 1346 000c 22D4     		bmi	.L118
 1347              		.loc 1 197 5 is_stmt 1 view .LVU365
 1348              		.loc 1 197 8 is_stmt 0 view .LVU366
 1349 000e F7EE007A 		vmov.f32	s15, #1.0e+0
 1350              		.loc 1 198 16 view .LVU367
 1351 0012 B4EE670A 		vcmp.f32	s0, s15
 1352 0016 F1EE10FA 		vmrs	APSR_nzcv, FPSCR
 1353 001a 37FE800A 		vselgt.f32	s0, s15, s0
 1354              	.LVL62:
 1355              	.L114:
 1356              		.loc 1 198 16 view .LVU368
 1357              	.LBE162:
 1358              	.LBE161:
 1359              	.LBB164:
 1360              	.LBB165:
 1361              		.loc 1 194 8 view .LVU369
 1362 001e F5EEC00A 		vcmpe.f32	s1, #0
 1363              	.LBE165:
 1364              	.LBE164:
 1365              		.loc 1 208 37 view .LVU370
 1366 0022 0F4A     		ldr	r2, .L122
 1367 0024 00EB4003 		add	r3, r0, r0, lsl #1
 1368 0028 4100     		lsls	r1, r0, #1
ARM GAS  C:\Users\DEVELO~1\AppData\Local\Temp\cce83SFX.s 			page 25


 1369              	.LBB169:
 1370              	.LBB166:
 1371              		.loc 1 194 8 view .LVU371
 1372 002a F1EE10FA 		vmrs	APSR_nzcv, FPSCR
 1373              	.LBE166:
 1374              	.LBE169:
 1375              		.loc 1 208 37 view .LVU372
 1376 002e 02EB8303 		add	r3, r2, r3, lsl #2
 1377 0032 83ED000A 		vstr.32	s0, [r3]
 1378              		.loc 1 209 5 is_stmt 1 view .LVU373
 1379              	.LVL63:
 1380              	.LBB170:
 1381              	.LBI164:
 1382              		.loc 1 193 14 view .LVU374
 1383              	.LBB167:
 1384              		.loc 1 194 5 view .LVU375
 1385              		.loc 1 194 8 is_stmt 0 view .LVU376
 1386 0036 10D4     		bmi	.L119
 1387              		.loc 1 197 5 is_stmt 1 view .LVU377
 1388              		.loc 1 197 8 is_stmt 0 view .LVU378
 1389 0038 F7EE007A 		vmov.f32	s15, #1.0e+0
 1390              		.loc 1 198 16 view .LVU379
 1391 003c F4EE670A 		vcmp.f32	s1, s15
 1392 0040 F1EE10FA 		vmrs	APSR_nzcv, FPSCR
 1393 0044 77FEA00A 		vselgt.f32	s1, s15, s1
 1394              	.LVL64:
 1395              	.L116:
 1396              		.loc 1 198 16 view .LVU380
 1397              	.LBE167:
 1398              	.LBE170:
 1399              		.loc 1 209 36 view .LVU381
 1400 0048 0B18     		adds	r3, r1, r0
 1401 004a 02EB8302 		add	r2, r2, r3, lsl #2
 1402 004e C2ED010A 		vstr.32	s1, [r2, #4]
 1403              	.L112:
 1404              		.loc 1 210 1 view .LVU382
 1405 0052 7047     		bx	lr
 1406              	.LVL65:
 1407              	.L118:
 1408              	.LBB171:
 1409              	.LBB163:
 1410              		.loc 1 195 16 view .LVU383
 1411 0054 9FED030A 		vldr.32	s0, .L122+4
 1412              	.LVL66:
 1413              		.loc 1 195 16 view .LVU384
 1414 0058 E1E7     		b	.L114
 1415              	.LVL67:
 1416              	.L119:
 1417              		.loc 1 195 16 view .LVU385
 1418              	.LBE163:
 1419              	.LBE171:
 1420              	.LBB172:
 1421              	.LBB168:
 1422 005a DFED020A 		vldr.32	s1, .L122+4
 1423              	.LVL68:
 1424              		.loc 1 195 16 view .LVU386
 1425 005e F3E7     		b	.L116
ARM GAS  C:\Users\DEVELO~1\AppData\Local\Temp\cce83SFX.s 			page 26


 1426              	.L123:
 1427              		.align	2
 1428              	.L122:
 1429 0060 00000000 		.word	.LANCHOR4
 1430 0064 00000000 		.word	0
 1431              	.LBE168:
 1432              	.LBE172:
 1433              		.cfi_endproc
 1434              	.LFE462:
 1435              		.size	drv_audio_set_route_gain, .-drv_audio_set_route_gain
 1436              		.section	.text.drv_audio_process_block,"ax",%progbits
 1437              		.align	1
 1438              		.p2align 2,,3
 1439              		.weak	drv_audio_process_block
 1440              		.syntax unified
 1441              		.thumb
 1442              		.thumb_func
 1443              		.type	drv_audio_process_block, %function
 1444              	drv_audio_process_block:
 1445              	.LVL69:
 1446              	.LFB465:
 1447              		.loc 1 242 88 is_stmt 1 view -0
 1448              		.cfi_startproc
 1449              		@ args = 4, pretend = 0, frame = 0
 1450              		@ frame_needed = 0, uses_anonymous_args = 0
 1451              		.loc 1 243 5 view .LVU388
 1452              		.loc 1 245 5 view .LVU389
 1453              		.loc 1 246 5 view .LVU390
 1454              		.loc 1 246 11 is_stmt 0 view .LVU391
 1455 0000 C149     		ldr	r1, .L210
 1456              	.LVL70:
 1457              		.loc 1 246 11 view .LVU392
 1458 0002 D1ED002A 		vldr.32	s5, [r1]
 1459              	.LVL71:
 1460              		.loc 1 247 5 is_stmt 1 view .LVU393
 1461              		.loc 1 247 8 is_stmt 0 view .LVU394
 1462 0006 F5EEC02A 		vcmpe.f32	s5, #0
 1463              		.loc 1 242 88 view .LVU395
 1464 000a 70B5     		push	{r4, r5, r6, lr}
 1465              		.cfi_def_cfa_offset 16
 1466              		.cfi_offset 4, -16
 1467              		.cfi_offset 5, -12
 1468              		.cfi_offset 6, -8
 1469              		.cfi_offset 14, -4
 1470              		.loc 1 247 8 view .LVU396
 1471 000c F1EE10FA 		vmrs	APSR_nzcv, FPSCR
 1472              		.loc 1 242 88 view .LVU397
 1473 0010 049D     		ldr	r5, [sp, #16]
 1474              		.loc 1 248 16 view .LVU398
 1475 0012 48BF     		it	mi
 1476 0014 DFEDBD2A 		vldrmi.32	s5, .L210+4
 1477              	.LVL72:
 1478              		.loc 1 251 5 is_stmt 1 view .LVU399
 1479              		.loc 1 252 5 view .LVU400
 1480              		.loc 1 254 5 view .LVU401
 1481              	.LBB233:
 1482              		.loc 1 254 10 view .LVU402
ARM GAS  C:\Users\DEVELO~1\AppData\Local\Temp\cce83SFX.s 			page 27


 1483              		.loc 1 254 26 view .LVU403
 1484 0018 002D     		cmp	r5, #0
 1485 001a 00F00D81 		beq	.L127
 1486              	.LBB234:
 1487              	.LBB235:
 1488              	.LBB236:
 1489              	.LBB237:
 1490              	.LBB238:
 1491              	.LBB239:
 1492              		.loc 1 229 45 is_stmt 0 view .LVU404
 1493 001e B7EE003A 		vmov.f32	s6, #1.0e+0
 1494 0022 00F1040C 		add	ip, r0, #4
 1495 0026 02F1100E 		add	lr, r2, #16
 1496              	.LBE239:
 1497              	.LBE238:
 1498              	.LBE237:
 1499              	.LBE236:
 1500              	.LBE235:
 1501              	.LBE234:
 1502              		.loc 1 254 17 view .LVU405
 1503 002a 0020     		movs	r0, #0
 1504              	.LVL73:
 1505              	.LBB321:
 1506              	.LBB251:
 1507              	.LBB252:
 1508              		.loc 1 263 19 view .LVU406
 1509 002c 9FEDB84A 		vldr.32	s8, .L210+8
 1510              	.LBE252:
 1511              	.LBE251:
 1512              	.LBB255:
 1513              	.LBB246:
 1514              		.loc 1 223 8 view .LVU407
 1515 0030 DFEDB84A 		vldr.32	s9, .L210+12
 1516              		.loc 1 227 8 view .LVU408
 1517 0034 DFEDB83A 		vldr.32	s7, .L210+16
 1518              	.LBE246:
 1519              	.LBE255:
 1520              		.loc 1 286 39 view .LVU409
 1521 0038 9FEDB82A 		vldr.32	s4, .L210+20
 1522              	.LVL74:
 1523              	.L163:
 1524              		.loc 1 258 15 view .LVU410
 1525 003c DFEDB37A 		vldr.32	s15, .L210+4
 1526 0040 ACF10406 		sub	r6, ip, #4
 1527              	.LVL75:
 1528              		.loc 1 258 15 view .LVU411
 1529 0044 B649     		ldr	r1, .L210+24
 1530              	.LBE321:
 1531              		.loc 1 254 17 view .LVU412
 1532 0046 0022     		movs	r2, #0
 1533              	.LBB322:
 1534              		.loc 1 257 15 view .LVU413
 1535 0048 B0EE676A 		vmov.f32	s12, s15
 1536              		.loc 1 256 15 view .LVU414
 1537 004c F0EE675A 		vmov.f32	s11, s15
 1538              		.loc 1 255 15 view .LVU415
 1539 0050 B0EE675A 		vmov.f32	s10, s15
ARM GAS  C:\Users\DEVELO~1\AppData\Local\Temp\cce83SFX.s 			page 28


 1540              	.L130:
 1541              	.LVL76:
 1542              	.LBB256:
 1543              	.LBB253:
 1544              		.loc 1 261 13 is_stmt 1 view .LVU416
 1545              		.loc 1 262 13 view .LVU417
 1546              		.loc 1 263 13 view .LVU418
 1547              		.loc 1 267 17 view .LVU419
 1548              		.loc 1 271 17 view .LVU420
 1549              		.loc 1 263 26 is_stmt 0 view .LVU421
 1550 0054 06EBC204 		add	r4, r6, r2, lsl #3
 1551 0058 D4ED006A 		vldr.32	s13, [r4]	@ int
 1552              		.loc 1 264 26 view .LVU422
 1553 005c 0CEBC204 		add	r4, ip, r2, lsl #3
 1554              	.LBE253:
 1555              		.loc 1 260 40 view .LVU423
 1556 0060 0132     		adds	r2, r2, #1
 1557              	.LVL77:
 1558              	.LBB254:
 1559              		.loc 1 264 26 view .LVU424
 1560 0062 94ED007A 		vldr.32	s14, [r4]	@ int
 1561              		.loc 1 263 26 view .LVU425
 1562 0066 F8EEE66A 		vcvt.f32.s32	s13, s13
 1563              		.loc 1 266 16 view .LVU426
 1564 006a 0C7A     		ldrb	r4, [r1, #8]	@ zero_extendqisi2
 1565              		.loc 1 264 26 view .LVU427
 1566 006c B8EEC77A 		vcvt.f32.s32	s14, s14
 1567              		.loc 1 263 19 view .LVU428
 1568 0070 66EE846A 		vmul.f32	s13, s13, s8
 1569              	.LVL78:
 1570              		.loc 1 264 13 is_stmt 1 view .LVU429
 1571              		.loc 1 264 19 is_stmt 0 view .LVU430
 1572 0074 27EE047A 		vmul.f32	s14, s14, s8
 1573              	.LVL79:
 1574              		.loc 1 266 13 is_stmt 1 view .LVU431
 1575              		.loc 1 266 16 is_stmt 0 view .LVU432
 1576 0078 2CB1     		cbz	r4, .L128
 1577              		.loc 1 267 39 view .LVU433
 1578 007a D1ED001A 		vldr.32	s3, [r1]
 1579              		.loc 1 267 24 view .LVU434
 1580 007e A1EEA65A 		vfma.f32	s10, s3, s13
 1581              	.LVL80:
 1582              		.loc 1 268 17 is_stmt 1 view .LVU435
 1583              		.loc 1 268 24 is_stmt 0 view .LVU436
 1584 0082 E1EE875A 		vfma.f32	s11, s3, s14
 1585              	.LVL81:
 1586              	.L128:
 1587              		.loc 1 270 13 is_stmt 1 view .LVU437
 1588              		.loc 1 270 16 is_stmt 0 view .LVU438
 1589 0086 4C7A     		ldrb	r4, [r1, #9]	@ zero_extendqisi2
 1590 0088 2CB1     		cbz	r4, .L129
 1591              		.loc 1 271 38 view .LVU439
 1592 008a D1ED011A 		vldr.32	s3, [r1, #4]
 1593              		.loc 1 271 23 view .LVU440
 1594 008e A1EEA66A 		vfma.f32	s12, s3, s13
 1595              	.LVL82:
 1596              		.loc 1 272 17 is_stmt 1 view .LVU441
ARM GAS  C:\Users\DEVELO~1\AppData\Local\Temp\cce83SFX.s 			page 29


 1597              		.loc 1 272 23 is_stmt 0 view .LVU442
 1598 0092 E1EE877A 		vfma.f32	s15, s3, s14
 1599              	.LVL83:
 1600              	.L129:
 1601              		.loc 1 272 23 view .LVU443
 1602              	.LBE254:
 1603              		.loc 1 260 46 is_stmt 1 discriminator 2 view .LVU444
 1604              		.loc 1 260 40 discriminator 2 view .LVU445
 1605 0096 042A     		cmp	r2, #4
 1606 0098 01F10C01 		add	r1, r1, #12
 1607 009c DAD1     		bne	.L130
 1608              		.loc 1 260 40 is_stmt 0 discriminator 2 view .LVU446
 1609              	.LBE256:
 1610              		.loc 1 276 9 is_stmt 1 discriminator 2 view .LVU447
 1611              	.LVL84:
 1612              	.LBB257:
 1613              	.LBI235:
 1614              		.loc 1 221 14 discriminator 2 view .LVU448
 1615              	.LBB247:
 1616              		.loc 1 222 5 discriminator 2 view .LVU449
 1617              		.loc 1 223 5 discriminator 2 view .LVU450
 1618              		.loc 1 223 8 is_stmt 0 discriminator 2 view .LVU451
 1619 009e B4EEE45A 		vcmpe.f32	s10, s9
 1620 00a2 F1EE10FA 		vmrs	APSR_nzcv, FPSCR
 1621 00a6 00F31381 		bgt	.L202
 1622              		.loc 1 227 5 is_stmt 1 view .LVU452
 1623              		.loc 1 227 8 is_stmt 0 view .LVU453
 1624 00aa B4EEE35A 		vcmpe.f32	s10, s7
 1625 00ae F1EE10FA 		vmrs	APSR_nzcv, FPSCR
 1626 00b2 09D5     		bpl	.L133
 1627              	.LVL85:
 1628              	.LBB242:
 1629              	.LBI237:
 1630              		.loc 1 221 14 is_stmt 1 view .LVU454
 1631              	.LBB241:
 1632              	.LBB240:
 1633              		.loc 1 228 9 view .LVU455
 1634              		.loc 1 228 21 is_stmt 0 view .LVU456
 1635 00b4 35EE245A 		vadd.f32	s10, s10, s9
 1636              	.LVL86:
 1637              		.loc 1 229 9 is_stmt 1 view .LVU457
 1638              		.loc 1 229 45 is_stmt 0 view .LVU458
 1639 00b8 F0EE436A 		vmov.f32	s13, s6
 1640              	.LVL87:
 1641              		.loc 1 229 45 view .LVU459
 1642 00bc E5EE056A 		vfma.f32	s13, s10, s10
 1643              		.loc 1 229 37 view .LVU460
 1644 00c0 85EE267A 		vdiv.f32	s14, s10, s13
 1645              	.LVL88:
 1646              		.loc 1 229 27 view .LVU461
 1647 00c4 37EE645A 		vsub.f32	s10, s14, s9
 1648              	.LVL89:
 1649              	.L133:
 1650              		.loc 1 229 27 view .LVU462
 1651              	.LBE240:
 1652              	.LBE241:
 1653              	.LBE242:
ARM GAS  C:\Users\DEVELO~1\AppData\Local\Temp\cce83SFX.s 			page 30


 1654              	.LBE247:
 1655              	.LBE257:
 1656              		.loc 1 277 9 is_stmt 1 view .LVU463
 1657              	.LBB258:
 1658              	.LBI258:
 1659              		.loc 1 221 14 view .LVU464
 1660              	.LBB259:
 1661              		.loc 1 222 5 view .LVU465
 1662              		.loc 1 223 5 view .LVU466
 1663              		.loc 1 223 8 is_stmt 0 view .LVU467
 1664 00c8 F4EEE45A 		vcmpe.f32	s11, s9
 1665 00cc F1EE10FA 		vmrs	APSR_nzcv, FPSCR
 1666 00d0 00F30E81 		bgt	.L203
 1667              	.L194:
 1668              		.loc 1 227 5 is_stmt 1 view .LVU468
 1669              		.loc 1 227 8 is_stmt 0 view .LVU469
 1670 00d4 F4EEE35A 		vcmpe.f32	s11, s7
 1671 00d8 F1EE10FA 		vmrs	APSR_nzcv, FPSCR
 1672 00dc 09D5     		bpl	.L137
 1673              	.LVL90:
 1674              	.LBB260:
 1675              	.LBI260:
 1676              		.loc 1 221 14 is_stmt 1 view .LVU470
 1677              	.LBB261:
 1678              	.LBB262:
 1679              		.loc 1 228 9 view .LVU471
 1680              		.loc 1 228 21 is_stmt 0 view .LVU472
 1681 00de 75EEA45A 		vadd.f32	s11, s11, s9
 1682              	.LVL91:
 1683              		.loc 1 229 9 is_stmt 1 view .LVU473
 1684              		.loc 1 229 45 is_stmt 0 view .LVU474
 1685 00e2 F0EE436A 		vmov.f32	s13, s6
 1686 00e6 E5EEA56A 		vfma.f32	s13, s11, s11
 1687              		.loc 1 229 37 view .LVU475
 1688 00ea 85EEA67A 		vdiv.f32	s14, s11, s13
 1689              		.loc 1 229 27 view .LVU476
 1690 00ee 77EE645A 		vsub.f32	s11, s14, s9
 1691              	.LVL92:
 1692              	.L137:
 1693              		.loc 1 229 27 view .LVU477
 1694              	.LBE262:
 1695              	.LBE261:
 1696              	.LBE260:
 1697              	.LBE259:
 1698              	.LBE258:
 1699              		.loc 1 278 9 is_stmt 1 view .LVU478
 1700              	.LBB267:
 1701              	.LBI267:
 1702              		.loc 1 221 14 view .LVU479
 1703              	.LBB268:
 1704              		.loc 1 222 5 view .LVU480
 1705              		.loc 1 223 5 view .LVU481
 1706              		.loc 1 223 8 is_stmt 0 view .LVU482
 1707 00f2 B4EEE46A 		vcmpe.f32	s12, s9
 1708 00f6 F1EE10FA 		vmrs	APSR_nzcv, FPSCR
 1709 00fa 00F3DE80 		bgt	.L204
 1710              		.loc 1 227 5 is_stmt 1 view .LVU483
ARM GAS  C:\Users\DEVELO~1\AppData\Local\Temp\cce83SFX.s 			page 31


 1711              		.loc 1 227 8 is_stmt 0 view .LVU484
 1712 00fe B4EEE36A 		vcmpe.f32	s12, s7
 1713 0102 F1EE10FA 		vmrs	APSR_nzcv, FPSCR
 1714 0106 09D5     		bpl	.L141
 1715              	.LVL93:
 1716              	.LBB269:
 1717              	.LBI269:
 1718              		.loc 1 221 14 is_stmt 1 view .LVU485
 1719              	.LBB270:
 1720              	.LBB271:
 1721              		.loc 1 228 9 view .LVU486
 1722              		.loc 1 228 21 is_stmt 0 view .LVU487
 1723 0108 36EE246A 		vadd.f32	s12, s12, s9
 1724              	.LVL94:
 1725              		.loc 1 229 9 is_stmt 1 view .LVU488
 1726              		.loc 1 229 45 is_stmt 0 view .LVU489
 1727 010c F0EE436A 		vmov.f32	s13, s6
 1728 0110 E6EE066A 		vfma.f32	s13, s12, s12
 1729              		.loc 1 229 37 view .LVU490
 1730 0114 86EE267A 		vdiv.f32	s14, s12, s13
 1731              		.loc 1 229 27 view .LVU491
 1732 0118 37EE646A 		vsub.f32	s12, s14, s9
 1733              	.LVL95:
 1734              	.L141:
 1735              		.loc 1 229 27 view .LVU492
 1736              	.LBE271:
 1737              	.LBE270:
 1738              	.LBE269:
 1739              	.LBE268:
 1740              	.LBE267:
 1741              		.loc 1 279 9 is_stmt 1 view .LVU493
 1742              	.LBB274:
 1743              	.LBI274:
 1744              		.loc 1 221 14 view .LVU494
 1745              	.LBB275:
 1746              		.loc 1 222 5 view .LVU495
 1747              		.loc 1 223 5 view .LVU496
 1748              		.loc 1 223 8 is_stmt 0 view .LVU497
 1749 011c F4EEE47A 		vcmpe.f32	s15, s9
 1750 0120 F1EE10FA 		vmrs	APSR_nzcv, FPSCR
 1751 0124 00F3BE80 		bgt	.L205
 1752              		.loc 1 227 5 is_stmt 1 view .LVU498
 1753              		.loc 1 227 8 is_stmt 0 view .LVU499
 1754 0128 F4EEE37A 		vcmpe.f32	s15, s7
 1755 012c F1EE10FA 		vmrs	APSR_nzcv, FPSCR
 1756 0130 09D5     		bpl	.L145
 1757              	.LVL96:
 1758              	.LBB276:
 1759              	.LBI276:
 1760              		.loc 1 221 14 is_stmt 1 view .LVU500
 1761              	.LBB277:
 1762              	.LBB278:
 1763              		.loc 1 228 9 view .LVU501
 1764              		.loc 1 228 21 is_stmt 0 view .LVU502
 1765 0132 77EEA47A 		vadd.f32	s15, s15, s9
 1766              	.LVL97:
 1767              		.loc 1 229 9 is_stmt 1 view .LVU503
ARM GAS  C:\Users\DEVELO~1\AppData\Local\Temp\cce83SFX.s 			page 32


 1768              		.loc 1 229 45 is_stmt 0 view .LVU504
 1769 0136 F0EE436A 		vmov.f32	s13, s6
 1770 013a E7EEA76A 		vfma.f32	s13, s15, s15
 1771              		.loc 1 229 37 view .LVU505
 1772 013e 87EEA67A 		vdiv.f32	s14, s15, s13
 1773              		.loc 1 229 27 view .LVU506
 1774 0142 77EE647A 		vsub.f32	s15, s14, s9
 1775              	.LVL98:
 1776              	.L145:
 1777              		.loc 1 229 27 view .LVU507
 1778              	.LBE278:
 1779              	.LBE277:
 1780              	.LBE276:
 1781              	.LBE275:
 1782              	.LBE274:
 1783              		.loc 1 281 9 is_stmt 1 view .LVU508
 1784              		.loc 1 281 18 is_stmt 0 view .LVU509
 1785 0146 22EE855A 		vmul.f32	s10, s5, s10
 1786              	.LVL99:
 1787              	.LBB281:
 1788              	.LBI281:
 1789              		.loc 1 221 14 is_stmt 1 view .LVU510
 1790              	.LBB282:
 1791              		.loc 1 222 5 view .LVU511
 1792              		.loc 1 223 5 view .LVU512
 1793              		.loc 1 223 8 is_stmt 0 view .LVU513
 1794 014a B4EEE45A 		vcmpe.f32	s10, s9
 1795 014e F1EE10FA 		vmrs	APSR_nzcv, FPSCR
 1796 0152 00F39C80 		bgt	.L206
 1797              		.loc 1 227 5 is_stmt 1 view .LVU514
 1798              		.loc 1 227 8 is_stmt 0 view .LVU515
 1799 0156 B4EEE35A 		vcmpe.f32	s10, s7
 1800 015a F1EE10FA 		vmrs	APSR_nzcv, FPSCR
 1801 015e 09D5     		bpl	.L149
 1802              	.LVL100:
 1803              	.LBB283:
 1804              	.LBI283:
 1805              		.loc 1 221 14 is_stmt 1 view .LVU516
 1806              	.LBB284:
 1807              	.LBB285:
 1808              		.loc 1 228 9 view .LVU517
 1809              		.loc 1 228 21 is_stmt 0 view .LVU518
 1810 0160 35EE245A 		vadd.f32	s10, s10, s9
 1811              	.LVL101:
 1812              		.loc 1 229 9 is_stmt 1 view .LVU519
 1813              		.loc 1 229 45 is_stmt 0 view .LVU520
 1814 0164 F0EE436A 		vmov.f32	s13, s6
 1815 0168 E5EE056A 		vfma.f32	s13, s10, s10
 1816              		.loc 1 229 37 view .LVU521
 1817 016c 85EE267A 		vdiv.f32	s14, s10, s13
 1818              		.loc 1 229 27 view .LVU522
 1819 0170 37EE645A 		vsub.f32	s10, s14, s9
 1820              	.LVL102:
 1821              	.L149:
 1822              		.loc 1 229 27 view .LVU523
 1823              	.LBE285:
 1824              	.LBE284:
ARM GAS  C:\Users\DEVELO~1\AppData\Local\Temp\cce83SFX.s 			page 33


 1825              	.LBE283:
 1826              	.LBE282:
 1827              	.LBE281:
 1828              		.loc 1 282 9 is_stmt 1 view .LVU524
 1829              		.loc 1 282 18 is_stmt 0 view .LVU525
 1830 0174 62EEA55A 		vmul.f32	s11, s5, s11
 1831              	.LVL103:
 1832              	.LBB288:
 1833              	.LBI288:
 1834              		.loc 1 221 14 is_stmt 1 view .LVU526
 1835              	.LBB289:
 1836              		.loc 1 222 5 view .LVU527
 1837              		.loc 1 223 5 view .LVU528
 1838              		.loc 1 223 8 is_stmt 0 view .LVU529
 1839 0178 F4EEE45A 		vcmpe.f32	s11, s9
 1840 017c F1EE10FA 		vmrs	APSR_nzcv, FPSCR
 1841 0180 7ADC     		bgt	.L207
 1842              		.loc 1 227 5 is_stmt 1 view .LVU530
 1843              		.loc 1 227 8 is_stmt 0 view .LVU531
 1844 0182 F4EEE35A 		vcmpe.f32	s11, s7
 1845 0186 F1EE10FA 		vmrs	APSR_nzcv, FPSCR
 1846 018a 09D5     		bpl	.L153
 1847              	.LVL104:
 1848              	.LBB290:
 1849              	.LBI290:
 1850              		.loc 1 221 14 is_stmt 1 view .LVU532
 1851              	.LBB291:
 1852              	.LBB292:
 1853              		.loc 1 228 9 view .LVU533
 1854              		.loc 1 228 21 is_stmt 0 view .LVU534
 1855 018c 75EEA45A 		vadd.f32	s11, s11, s9
 1856              	.LVL105:
 1857              		.loc 1 229 9 is_stmt 1 view .LVU535
 1858              		.loc 1 229 45 is_stmt 0 view .LVU536
 1859 0190 F0EE436A 		vmov.f32	s13, s6
 1860 0194 E5EEA56A 		vfma.f32	s13, s11, s11
 1861              		.loc 1 229 37 view .LVU537
 1862 0198 85EEA67A 		vdiv.f32	s14, s11, s13
 1863              		.loc 1 229 27 view .LVU538
 1864 019c 77EE645A 		vsub.f32	s11, s14, s9
 1865              	.LVL106:
 1866              	.L153:
 1867              		.loc 1 229 27 view .LVU539
 1868              	.LBE292:
 1869              	.LBE291:
 1870              	.LBE290:
 1871              	.LBE289:
 1872              	.LBE288:
 1873              		.loc 1 283 9 is_stmt 1 view .LVU540
 1874              		.loc 1 283 17 is_stmt 0 view .LVU541
 1875 01a0 22EE866A 		vmul.f32	s12, s5, s12
 1876              	.LVL107:
 1877              	.LBB295:
 1878              	.LBI295:
 1879              		.loc 1 221 14 is_stmt 1 view .LVU542
 1880              	.LBB296:
 1881              		.loc 1 222 5 view .LVU543
ARM GAS  C:\Users\DEVELO~1\AppData\Local\Temp\cce83SFX.s 			page 34


 1882              		.loc 1 223 5 view .LVU544
 1883              		.loc 1 223 8 is_stmt 0 view .LVU545
 1884 01a4 B4EEE46A 		vcmpe.f32	s12, s9
 1885 01a8 F1EE10FA 		vmrs	APSR_nzcv, FPSCR
 1886 01ac 59DC     		bgt	.L208
 1887              		.loc 1 227 5 is_stmt 1 view .LVU546
 1888              		.loc 1 227 8 is_stmt 0 view .LVU547
 1889 01ae B4EEE36A 		vcmpe.f32	s12, s7
 1890 01b2 F1EE10FA 		vmrs	APSR_nzcv, FPSCR
 1891 01b6 09D5     		bpl	.L157
 1892              	.LVL108:
 1893              	.LBB297:
 1894              	.LBI297:
 1895              		.loc 1 221 14 is_stmt 1 view .LVU548
 1896              	.LBB298:
 1897              	.LBB299:
 1898              		.loc 1 228 9 view .LVU549
 1899              		.loc 1 228 21 is_stmt 0 view .LVU550
 1900 01b8 36EE246A 		vadd.f32	s12, s12, s9
 1901              	.LVL109:
 1902              		.loc 1 229 9 is_stmt 1 view .LVU551
 1903              		.loc 1 229 45 is_stmt 0 view .LVU552
 1904 01bc F0EE436A 		vmov.f32	s13, s6
 1905 01c0 E6EE066A 		vfma.f32	s13, s12, s12
 1906              		.loc 1 229 37 view .LVU553
 1907 01c4 86EE267A 		vdiv.f32	s14, s12, s13
 1908              		.loc 1 229 27 view .LVU554
 1909 01c8 37EE646A 		vsub.f32	s12, s14, s9
 1910              	.LVL110:
 1911              	.L157:
 1912              		.loc 1 229 27 view .LVU555
 1913              	.LBE299:
 1914              	.LBE298:
 1915              	.LBE297:
 1916              	.LBE296:
 1917              	.LBE295:
 1918              		.loc 1 284 9 is_stmt 1 view .LVU556
 1919              		.loc 1 284 17 is_stmt 0 view .LVU557
 1920 01cc 62EEA77A 		vmul.f32	s15, s5, s15
 1921              	.LVL111:
 1922              	.LBB302:
 1923              	.LBI302:
 1924              		.loc 1 221 14 is_stmt 1 view .LVU558
 1925              	.LBB303:
 1926              		.loc 1 222 5 view .LVU559
 1927              		.loc 1 223 5 view .LVU560
 1928              		.loc 1 223 8 is_stmt 0 view .LVU561
 1929 01d0 F4EEE47A 		vcmpe.f32	s15, s9
 1930 01d4 F1EE10FA 		vmrs	APSR_nzcv, FPSCR
 1931 01d8 38DC     		bgt	.L209
 1932              		.loc 1 227 5 is_stmt 1 view .LVU562
 1933              		.loc 1 227 8 is_stmt 0 view .LVU563
 1934 01da F4EEE37A 		vcmpe.f32	s15, s7
 1935 01de F1EE10FA 		vmrs	APSR_nzcv, FPSCR
 1936 01e2 09D5     		bpl	.L161
 1937              	.LVL112:
 1938              	.LBB304:
ARM GAS  C:\Users\DEVELO~1\AppData\Local\Temp\cce83SFX.s 			page 35


 1939              	.LBI304:
 1940              		.loc 1 221 14 is_stmt 1 view .LVU564
 1941              	.LBB305:
 1942              	.LBB306:
 1943              		.loc 1 228 9 view .LVU565
 1944              		.loc 1 228 21 is_stmt 0 view .LVU566
 1945 01e4 77EEA47A 		vadd.f32	s15, s15, s9
 1946              	.LVL113:
 1947              		.loc 1 229 9 is_stmt 1 view .LVU567
 1948              		.loc 1 229 45 is_stmt 0 view .LVU568
 1949 01e8 F0EE436A 		vmov.f32	s13, s6
 1950 01ec E7EEA76A 		vfma.f32	s13, s15, s15
 1951              		.loc 1 229 37 view .LVU569
 1952 01f0 87EEA67A 		vdiv.f32	s14, s15, s13
 1953              		.loc 1 229 27 view .LVU570
 1954 01f4 77EE647A 		vsub.f32	s15, s14, s9
 1955              	.LVL114:
 1956              	.L161:
 1957              		.loc 1 229 27 view .LVU571
 1958              	.LBE306:
 1959              	.LBE305:
 1960              	.LBE304:
 1961              	.LBE303:
 1962              	.LBE302:
 1963              		.loc 1 286 9 is_stmt 1 view .LVU572
 1964              		.loc 1 286 39 is_stmt 0 view .LVU573
 1965 01f8 25EE025A 		vmul.f32	s10, s10, s4
 1966              	.LVL115:
 1967              		.loc 1 286 39 view .LVU574
 1968              	.LBE322:
 1969              		.loc 1 254 36 view .LVU575
 1970 01fc 0130     		adds	r0, r0, #1
 1971              	.LVL116:
 1972              	.LBB323:
 1973              		.loc 1 287 39 view .LVU576
 1974 01fe 65EE825A 		vmul.f32	s11, s11, s4
 1975              	.LVL117:
 1976              		.loc 1 287 39 view .LVU577
 1977              	.LBE323:
 1978              		.loc 1 254 26 view .LVU578
 1979 0202 0EF1100E 		add	lr, lr, #16
 1980              	.LVL118:
 1981              	.LBB324:
 1982              		.loc 1 288 38 view .LVU579
 1983 0206 26EE026A 		vmul.f32	s12, s12, s4
 1984              	.LVL119:
 1985              		.loc 1 288 38 view .LVU580
 1986              	.LBE324:
 1987              		.loc 1 254 26 view .LVU581
 1988 020a 8542     		cmp	r5, r0
 1989              	.LBB325:
 1990              		.loc 1 289 38 view .LVU582
 1991 020c 67EE827A 		vmul.f32	s15, s15, s4
 1992              	.LVL120:
 1993              		.loc 1 289 38 view .LVU583
 1994              	.LBE325:
 1995              		.loc 1 254 26 view .LVU584
ARM GAS  C:\Users\DEVELO~1\AppData\Local\Temp\cce83SFX.s 			page 36


 1996 0210 0CF1200C 		add	ip, ip, #32
 1997              	.LVL121:
 1998              	.LBB326:
 1999              		.loc 1 286 22 view .LVU585
 2000 0214 BDEEC55A 		vcvt.s32.f32	s10, s10
 2001              		.loc 1 287 22 view .LVU586
 2002 0218 FDEEE55A 		vcvt.s32.f32	s11, s11
 2003              		.loc 1 288 22 view .LVU587
 2004 021c BDEEC66A 		vcvt.s32.f32	s12, s12
 2005              		.loc 1 289 22 view .LVU588
 2006 0220 FDEEE77A 		vcvt.s32.f32	s15, s15
 2007              		.loc 1 286 22 view .LVU589
 2008 0224 0EED085A 		vstr.32	s10, [lr, #-32]	@ int
 2009              	.LVL122:
 2010              		.loc 1 287 9 is_stmt 1 view .LVU590
 2011              		.loc 1 287 22 is_stmt 0 view .LVU591
 2012 0228 4EED075A 		vstr.32	s11, [lr, #-28]	@ int
 2013              		.loc 1 288 9 is_stmt 1 view .LVU592
 2014              		.loc 1 288 22 is_stmt 0 view .LVU593
 2015 022c 0EED066A 		vstr.32	s12, [lr, #-24]	@ int
 2016              		.loc 1 289 9 is_stmt 1 view .LVU594
 2017              		.loc 1 289 22 is_stmt 0 view .LVU595
 2018 0230 4EED057A 		vstr.32	s15, [lr, #-20]	@ int
 2019              		.loc 1 291 9 is_stmt 1 view .LVU596
 2020              	.LVL123:
 2021              		.loc 1 292 9 view .LVU597
 2022              		.loc 1 292 9 is_stmt 0 view .LVU598
 2023              	.LBE326:
 2024              		.loc 1 254 36 is_stmt 1 view .LVU599
 2025              		.loc 1 254 26 view .LVU600
 2026 0234 7FF402AF 		bne	.L163
 2027              	.LVL124:
 2028              	.L127:
 2029              		.loc 1 254 26 is_stmt 0 view .LVU601
 2030              	.LBE233:
 2031              		.loc 1 295 5 is_stmt 1 view .LVU602
 2032              		.loc 1 295 8 is_stmt 0 view .LVU603
 2033 0238 002B     		cmp	r3, #0
 2034 023a 64D0     		beq	.L124
 2035              		.loc 1 296 9 is_stmt 1 view .LVU604
 2036 023c 4FF48062 		mov	r2, #1024
 2037 0240 0021     		movs	r1, #0
 2038 0242 1846     		mov	r0, r3
 2039              		.loc 1 298 1 is_stmt 0 view .LVU605
 2040 0244 BDE87040 		pop	{r4, r5, r6, lr}
 2041              		.cfi_remember_state
 2042              		.cfi_restore 14
 2043              		.cfi_restore 6
 2044              		.cfi_restore 5
 2045              		.cfi_restore 4
 2046              		.cfi_def_cfa_offset 0
 2047              	.LVL125:
 2048              		.loc 1 296 9 view .LVU606
 2049 0248 FFF7FEBF 		b	memset
 2050              	.LVL126:
 2051              	.L209:
 2052              		.cfi_restore_state
ARM GAS  C:\Users\DEVELO~1\AppData\Local\Temp\cce83SFX.s 			page 37


 2053              	.LBB328:
 2054              	.LBB327:
 2055              	.LBB309:
 2056              	.LBB308:
 2057              	.LBB307:
 2058              		.loc 1 224 9 is_stmt 1 view .LVU607
 2059              		.loc 1 224 21 is_stmt 0 view .LVU608
 2060 024c 77EEE47A 		vsub.f32	s15, s15, s9
 2061              	.LVL127:
 2062              		.loc 1 225 9 is_stmt 1 view .LVU609
 2063              		.loc 1 225 44 is_stmt 0 view .LVU610
 2064 0250 F0EE436A 		vmov.f32	s13, s6
 2065 0254 E7EEA76A 		vfma.f32	s13, s15, s15
 2066              		.loc 1 225 36 view .LVU611
 2067 0258 87EEA67A 		vdiv.f32	s14, s15, s13
 2068              		.loc 1 225 26 view .LVU612
 2069 025c 77EE247A 		vadd.f32	s15, s14, s9
 2070              	.LVL128:
 2071              		.loc 1 225 26 view .LVU613
 2072 0260 CAE7     		b	.L161
 2073              	.LVL129:
 2074              	.L208:
 2075              		.loc 1 225 26 view .LVU614
 2076              	.LBE307:
 2077              	.LBE308:
 2078              	.LBE309:
 2079              	.LBB310:
 2080              	.LBB301:
 2081              	.LBB300:
 2082              		.loc 1 224 9 is_stmt 1 view .LVU615
 2083              		.loc 1 224 21 is_stmt 0 view .LVU616
 2084 0262 36EE646A 		vsub.f32	s12, s12, s9
 2085              	.LVL130:
 2086              		.loc 1 225 9 is_stmt 1 view .LVU617
 2087              		.loc 1 225 44 is_stmt 0 view .LVU618
 2088 0266 F0EE436A 		vmov.f32	s13, s6
 2089 026a E6EE066A 		vfma.f32	s13, s12, s12
 2090              		.loc 1 225 36 view .LVU619
 2091 026e 86EE267A 		vdiv.f32	s14, s12, s13
 2092              		.loc 1 225 26 view .LVU620
 2093 0272 37EE246A 		vadd.f32	s12, s14, s9
 2094              	.LVL131:
 2095              		.loc 1 225 26 view .LVU621
 2096 0276 A9E7     		b	.L157
 2097              	.LVL132:
 2098              	.L207:
 2099              		.loc 1 225 26 view .LVU622
 2100              	.LBE300:
 2101              	.LBE301:
 2102              	.LBE310:
 2103              	.LBB311:
 2104              	.LBB294:
 2105              	.LBB293:
 2106              		.loc 1 224 9 is_stmt 1 view .LVU623
 2107              		.loc 1 224 21 is_stmt 0 view .LVU624
 2108 0278 75EEE45A 		vsub.f32	s11, s11, s9
 2109              	.LVL133:
ARM GAS  C:\Users\DEVELO~1\AppData\Local\Temp\cce83SFX.s 			page 38


 2110              		.loc 1 225 9 is_stmt 1 view .LVU625
 2111              		.loc 1 225 44 is_stmt 0 view .LVU626
 2112 027c F0EE436A 		vmov.f32	s13, s6
 2113 0280 E5EEA56A 		vfma.f32	s13, s11, s11
 2114              		.loc 1 225 36 view .LVU627
 2115 0284 85EEA67A 		vdiv.f32	s14, s11, s13
 2116              		.loc 1 225 26 view .LVU628
 2117 0288 77EE245A 		vadd.f32	s11, s14, s9
 2118              	.LVL134:
 2119              		.loc 1 225 26 view .LVU629
 2120 028c 88E7     		b	.L153
 2121              	.LVL135:
 2122              	.L206:
 2123              		.loc 1 225 26 view .LVU630
 2124              	.LBE293:
 2125              	.LBE294:
 2126              	.LBE311:
 2127              	.LBB312:
 2128              	.LBB287:
 2129              	.LBB286:
 2130              		.loc 1 224 9 is_stmt 1 view .LVU631
 2131              		.loc 1 224 21 is_stmt 0 view .LVU632
 2132 028e 35EE645A 		vsub.f32	s10, s10, s9
 2133              	.LVL136:
 2134              		.loc 1 225 9 is_stmt 1 view .LVU633
 2135              		.loc 1 225 44 is_stmt 0 view .LVU634
 2136 0292 F0EE436A 		vmov.f32	s13, s6
 2137 0296 E5EE056A 		vfma.f32	s13, s10, s10
 2138              		.loc 1 225 36 view .LVU635
 2139 029a 85EE267A 		vdiv.f32	s14, s10, s13
 2140              		.loc 1 225 26 view .LVU636
 2141 029e 37EE245A 		vadd.f32	s10, s14, s9
 2142              	.LVL137:
 2143              		.loc 1 225 26 view .LVU637
 2144 02a2 67E7     		b	.L149
 2145              	.LVL138:
 2146              	.L205:
 2147              		.loc 1 225 26 view .LVU638
 2148              	.LBE286:
 2149              	.LBE287:
 2150              	.LBE312:
 2151              	.LBB313:
 2152              	.LBB280:
 2153              	.LBB279:
 2154              		.loc 1 224 9 is_stmt 1 view .LVU639
 2155              		.loc 1 224 21 is_stmt 0 view .LVU640
 2156 02a4 77EEE47A 		vsub.f32	s15, s15, s9
 2157              	.LVL139:
 2158              		.loc 1 225 9 is_stmt 1 view .LVU641
 2159              		.loc 1 225 44 is_stmt 0 view .LVU642
 2160 02a8 F0EE436A 		vmov.f32	s13, s6
 2161 02ac E7EEA76A 		vfma.f32	s13, s15, s15
 2162              		.loc 1 225 36 view .LVU643
 2163 02b0 87EEA67A 		vdiv.f32	s14, s15, s13
 2164              		.loc 1 225 26 view .LVU644
 2165 02b4 77EE247A 		vadd.f32	s15, s14, s9
 2166              	.LVL140:
ARM GAS  C:\Users\DEVELO~1\AppData\Local\Temp\cce83SFX.s 			page 39


 2167              		.loc 1 225 26 view .LVU645
 2168 02b8 45E7     		b	.L145
 2169              	.LVL141:
 2170              	.L204:
 2171              		.loc 1 225 26 view .LVU646
 2172              	.LBE279:
 2173              	.LBE280:
 2174              	.LBE313:
 2175              	.LBB314:
 2176              	.LBB273:
 2177              	.LBB272:
 2178              		.loc 1 224 9 is_stmt 1 view .LVU647
 2179              		.loc 1 224 21 is_stmt 0 view .LVU648
 2180 02ba 36EE646A 		vsub.f32	s12, s12, s9
 2181              	.LVL142:
 2182              		.loc 1 225 9 is_stmt 1 view .LVU649
 2183              		.loc 1 225 44 is_stmt 0 view .LVU650
 2184 02be F0EE436A 		vmov.f32	s13, s6
 2185 02c2 E6EE066A 		vfma.f32	s13, s12, s12
 2186              		.loc 1 225 36 view .LVU651
 2187 02c6 86EE267A 		vdiv.f32	s14, s12, s13
 2188              		.loc 1 225 26 view .LVU652
 2189 02ca 37EE246A 		vadd.f32	s12, s14, s9
 2190              	.LVL143:
 2191              		.loc 1 225 26 view .LVU653
 2192 02ce 25E7     		b	.L141
 2193              	.LVL144:
 2194              	.L202:
 2195              		.loc 1 225 26 view .LVU654
 2196              	.LBE272:
 2197              	.LBE273:
 2198              	.LBE314:
 2199              	.LBB315:
 2200              	.LBB248:
 2201              	.LBB243:
 2202              		.loc 1 224 9 is_stmt 1 view .LVU655
 2203              		.loc 1 224 21 is_stmt 0 view .LVU656
 2204 02d0 35EE645A 		vsub.f32	s10, s10, s9
 2205              	.LVL145:
 2206              		.loc 1 225 9 is_stmt 1 view .LVU657
 2207              		.loc 1 225 44 is_stmt 0 view .LVU658
 2208 02d4 F0EE436A 		vmov.f32	s13, s6
 2209              	.LVL146:
 2210              		.loc 1 225 44 view .LVU659
 2211              	.LBE243:
 2212              	.LBE248:
 2213              	.LBE315:
 2214              	.LBB316:
 2215              	.LBB264:
 2216              		.loc 1 223 8 view .LVU660
 2217 02d8 F4EEE45A 		vcmpe.f32	s11, s9
 2218              	.LBE264:
 2219              	.LBE316:
 2220              	.LBB317:
 2221              	.LBB249:
 2222              	.LBB244:
 2223              		.loc 1 225 44 view .LVU661
ARM GAS  C:\Users\DEVELO~1\AppData\Local\Temp\cce83SFX.s 			page 40


 2224 02dc E5EE056A 		vfma.f32	s13, s10, s10
 2225              	.LBE244:
 2226              	.LBE249:
 2227              	.LBE317:
 2228              	.LBB318:
 2229              	.LBB265:
 2230              		.loc 1 223 8 view .LVU662
 2231 02e0 F1EE10FA 		vmrs	APSR_nzcv, FPSCR
 2232              	.LBE265:
 2233              	.LBE318:
 2234              	.LBB319:
 2235              	.LBB250:
 2236              	.LBB245:
 2237              		.loc 1 225 36 view .LVU663
 2238 02e4 85EE267A 		vdiv.f32	s14, s10, s13
 2239              	.LVL147:
 2240              		.loc 1 225 26 view .LVU664
 2241 02e8 37EE245A 		vadd.f32	s10, s14, s9
 2242              	.LVL148:
 2243              		.loc 1 225 26 view .LVU665
 2244              	.LBE245:
 2245              	.LBE250:
 2246              	.LBE319:
 2247              		.loc 1 277 9 is_stmt 1 view .LVU666
 2248              	.LBB320:
 2249              		.loc 1 221 14 view .LVU667
 2250              	.LBB266:
 2251              		.loc 1 222 5 view .LVU668
 2252              		.loc 1 223 5 view .LVU669
 2253              		.loc 1 223 8 is_stmt 0 view .LVU670
 2254 02ec 7FF7F2AE 		ble	.L194
 2255              	.L203:
 2256              	.LBB263:
 2257              		.loc 1 224 9 is_stmt 1 view .LVU671
 2258              		.loc 1 224 21 is_stmt 0 view .LVU672
 2259 02f0 75EEE45A 		vsub.f32	s11, s11, s9
 2260              	.LVL149:
 2261              		.loc 1 225 9 is_stmt 1 view .LVU673
 2262              		.loc 1 225 44 is_stmt 0 view .LVU674
 2263 02f4 F0EE436A 		vmov.f32	s13, s6
 2264 02f8 E5EEA56A 		vfma.f32	s13, s11, s11
 2265              		.loc 1 225 36 view .LVU675
 2266 02fc 85EEA67A 		vdiv.f32	s14, s11, s13
 2267              		.loc 1 225 26 view .LVU676
 2268 0300 77EE245A 		vadd.f32	s11, s14, s9
 2269              	.LVL150:
 2270              		.loc 1 225 26 view .LVU677
 2271 0304 F5E6     		b	.L137
 2272              	.LVL151:
 2273              	.L124:
 2274              		.loc 1 225 26 view .LVU678
 2275              	.LBE263:
 2276              	.LBE266:
 2277              	.LBE320:
 2278              	.LBE327:
 2279              	.LBE328:
 2280              		.loc 1 298 1 view .LVU679
ARM GAS  C:\Users\DEVELO~1\AppData\Local\Temp\cce83SFX.s 			page 41


 2281 0306 70BD     		pop	{r4, r5, r6, pc}
 2282              	.LVL152:
 2283              	.L211:
 2284              		.loc 1 298 1 view .LVU680
 2285              		.align	2
 2286              	.L210:
 2287 0308 00000000 		.word	.LANCHOR10
 2288 030c 00000000 		.word	0
 2289 0310 01000034 		.word	872415233
 2290 0314 3333733F 		.word	1064514355
 2291 0318 333373BF 		.word	-1082969293
 2292 031c FEFFFF4A 		.word	1258291198
 2293 0320 00000000 		.word	.LANCHOR4
 2294              		.cfi_endproc
 2295              	.LFE465:
 2296              		.size	drv_audio_process_block, .-drv_audio_process_block
 2297              		.section	.rodata.audioThread.str1.4,"aMS",%progbits,1
 2298              		.align	2
 2299              	.LC0:
 2300 0000 61756469 		.ascii	"audioProcess\000"
 2300      6F50726F 
 2300      63657373 
 2300      00
 2301              		.section	.text.audioThread,"ax",%progbits
 2302              		.align	1
 2303              		.p2align 2,,3
 2304              		.syntax unified
 2305              		.thumb
 2306              		.thumb_func
 2307              		.type	audioThread, %function
 2308              	audioThread:
 2309              	.LVL153:
 2310              	.LFB466:
 2311              		.loc 1 304 39 is_stmt 1 view -0
 2312              		.cfi_startproc
 2313              		@ args = 0, pretend = 0, frame = 0
 2314              		@ frame_needed = 0, uses_anonymous_args = 0
 2315              		.loc 1 305 5 view .LVU682
 2316              		.loc 1 306 5 view .LVU683
 2317              	.LBB329:
 2318              	.LBI329:
 2319              		.file 6 "./docs/ChibiOS/os/rt/include/chregistry.h"
 2320              		.loc 6 166 20 view .LVU684
 2321              	.LBB330:
 2322              		.loc 6 169 3 view .LVU685
 2323              	.LBE330:
 2324              	.LBE329:
 2325              		.loc 1 304 39 is_stmt 0 view .LVU686
 2326 0000 2DE9F04F 		push	{r4, r5, r6, r7, r8, r9, r10, fp, lr}
 2327              		.cfi_def_cfa_offset 36
 2328              		.cfi_offset 4, -36
 2329              		.cfi_offset 5, -32
 2330              		.cfi_offset 6, -28
 2331              		.cfi_offset 7, -24
 2332              		.cfi_offset 8, -20
 2333              		.cfi_offset 9, -16
 2334              		.cfi_offset 10, -12
ARM GAS  C:\Users\DEVELO~1\AppData\Local\Temp\cce83SFX.s 			page 42


 2335              		.cfi_offset 11, -8
 2336              		.cfi_offset 14, -4
 2337              	.LBB334:
 2338              	.LBB331:
 2339              		.loc 6 169 3 view .LVU687
 2340 0004 2C4F     		ldr	r7, .L229
 2341              	.LBE331:
 2342              	.LBE334:
 2343              		.loc 1 304 39 view .LVU688
 2344 0006 83B0     		sub	sp, sp, #12
 2345              		.cfi_def_cfa_offset 48
 2346              	.LBB335:
 2347              	.LBB332:
 2348              		.loc 6 169 32 view .LVU689
 2349 0008 2C49     		ldr	r1, .L229+4
 2350              		.loc 6 169 3 view .LVU690
 2351 000a FB68     		ldr	r3, [r7, #12]
 2352              	.LBE332:
 2353              	.LBE335:
 2354              		.loc 1 308 12 view .LVU691
 2355 000c 93F91D20 		ldrsb	r2, [r3, #29]
 2356              	.LBB336:
 2357              	.LBB333:
 2358              		.loc 6 169 32 view .LVU692
 2359 0010 1962     		str	r1, [r3, #32]
 2360              	.LVL154:
 2361              		.loc 6 169 32 view .LVU693
 2362              	.LBE333:
 2363              	.LBE336:
 2364              		.loc 1 308 12 is_stmt 1 view .LVU694
 2365              	.LBB337:
 2366              	.LBI337:
 2367              		.file 7 "./docs/ChibiOS/os/rt/include/chthreads.h"
 2368              		.loc 7 597 20 view .LVU695
 2369              	.LBB338:
 2370              		.loc 7 599 3 view .LVU696
 2371              	.LBB339:
 2372              	.LBI339:
 2373              		.loc 7 527 25 view .LVU697
 2374              	.LBB340:
 2375              		.loc 7 529 3 view .LVU698
 2376              	.LBE340:
 2377              	.LBE339:
 2378              	.LBE338:
 2379              	.LBE337:
 2380              		.loc 1 308 12 is_stmt 0 view .LVU699
 2381 0012 002A     		cmp	r2, #0
 2382 0014 46DB     		blt	.L212
 2383              	.LBB347:
 2384              		.loc 1 325 24 view .LVU700
 2385 0016 DFF8C090 		ldr	r9, .L229+32
 2386 001a 294E     		ldr	r6, .L229+8
 2387              	.LBB348:
 2388              	.LBB349:
 2389              		.loc 2 142 10 view .LVU701
 2390 001c DFF8BC80 		ldr	r8, .L229+36
 2391              	.LBE349:
ARM GAS  C:\Users\DEVELO~1\AppData\Local\Temp\cce83SFX.s 			page 43


 2392              	.LBE348:
 2393              		.loc 1 326 18 view .LVU702
 2394 0020 09F5806A 		add	r10, r9, #1024
 2395 0024 2AE0     		b	.L219
 2396              	.LVL155:
 2397              	.L228:
 2398              		.loc 1 315 68 discriminator 2 view .LVU703
 2399 0026 1978     		ldrb	r1, [r3]	@ zero_extendqisi2
 2400              		.loc 1 315 43 discriminator 2 view .LVU704
 2401 0028 9142     		cmp	r1, r2
 2402 002a 33D0     		beq	.L214
 2403              		.loc 1 319 16 view .LVU705
 2404 002c 3478     		ldrb	r4, [r6]	@ zero_extendqisi2
 2405              		.loc 1 320 17 view .LVU706
 2406 002e 1D78     		ldrb	r5, [r3]	@ zero_extendqisi2
 2407              		.loc 1 319 16 view .LVU707
 2408 0030 E4B2     		uxtb	r4, r4
 2409              	.LVL156:
 2410              		.loc 1 320 9 is_stmt 1 view .LVU708
 2411              		.loc 1 321 30 is_stmt 0 view .LVU709
 2412 0032 3270     		strb	r2, [r6]
 2413              		.loc 1 320 17 view .LVU710
 2414 0034 EDB2     		uxtb	r5, r5
 2415              	.LVL157:
 2416              		.loc 1 321 9 is_stmt 1 view .LVU711
 2417              		.loc 1 322 9 view .LVU712
 2418              		.loc 1 323 9 view .LVU713
 2419              	.LBB351:
 2420              	.LBI351:
 2421              		.loc 3 386 20 view .LVU714
 2422              	.LBB352:
 2423              		.loc 3 388 23 view .LVU715
 2424              		.loc 3 389 34 view .LVU716
 2425              		.loc 3 395 3 view .LVU717
 2426              		.loc 3 395 3 view .LVU718
 2427              		.loc 3 395 3 view .LVU719
 2428              		.loc 3 399 3 view .LVU720
 2429              	.LBB353:
 2430              	.LBI353:
 2431              		.loc 4 864 27 view .LVU721
 2432              		.loc 4 867 3 view .LVU722
 2433              	.LBB354:
 2434              	.LBI354:
 2435              		.loc 5 491 27 view .LVU723
 2436              	.LBB355:
 2437              		.loc 5 493 3 view .LVU724
 2438              	.LBE355:
 2439              	.LBE354:
 2440              	.LBE353:
 2441              	.LBE352:
 2442              	.LBE351:
 2443              		.loc 1 322 31 is_stmt 0 view .LVU725
 2444 0036 1A70     		strb	r2, [r3]
 2445              	.LBB364:
 2446              	.LBB362:
 2447              	.LBB360:
 2448              	.LBB358:
ARM GAS  C:\Users\DEVELO~1\AppData\Local\Temp\cce83SFX.s 			page 44


 2449              	.LBB356:
 2450              		.loc 5 493 3 view .LVU726
 2451              		.syntax unified
 2452              	@ 493 "./docs/ChibiOS/os/common/ext/ARM/CMSIS/Core/Include/cmsis_gcc.h" 1
 2453 0038 80F31188 		MSR basepri, r0
 2454              	@ 0 "" 2
 2455              	.LVL158:
 2456              		.loc 5 493 3 view .LVU727
 2457              		.thumb
 2458              		.syntax unified
 2459              	.LBE356:
 2460              	.LBE358:
 2461              	.LBE360:
 2462              	.LBE362:
 2463              	.LBE364:
 2464              		.loc 1 325 9 is_stmt 1 view .LVU728
 2465              		.loc 1 330 13 view .LVU729
 2466              		.loc 1 329 29 is_stmt 0 view .LVU730
 2467 003c 214B     		ldr	r3, .L229+12
 2468              		.loc 1 330 13 view .LVU731
 2469 003e 1021     		movs	r1, #16
 2470 0040 2148     		ldr	r0, .L229+16
 2471              		.loc 1 325 24 view .LVU732
 2472 0042 09EB4424 		add	r4, r9, r4, lsl #9
 2473              	.LVL159:
 2474              		.loc 1 326 9 is_stmt 1 view .LVU733
 2475              		.loc 1 329 29 is_stmt 0 view .LVU734
 2476 0046 1B68     		ldr	r3, [r3]
 2477              		.loc 1 326 18 view .LVU735
 2478 0048 0AEB0525 		add	r5, r10, r5, lsl #8
 2479              	.LVL160:
 2480              		.loc 1 329 9 is_stmt 1 view .LVU736
 2481              		.loc 1 329 12 is_stmt 0 view .LVU737
 2482 004c 6BB3     		cbz	r3, .L217
 2483              		.loc 1 330 13 view .LVU738
 2484 004e 9847     		blx	r3
 2485              	.LVL161:
 2486              	.L218:
 2487              		.loc 1 335 9 is_stmt 1 view .LVU739
 2488 0050 1E4B     		ldr	r3, .L229+20
 2489 0052 4FF0100B 		mov	fp, #16
 2490 0056 2046     		mov	r0, r4
 2491 0058 2A46     		mov	r2, r5
 2492 005a A3F58061 		sub	r1, r3, #1024
 2493 005e CDF800B0 		str	fp, [sp]
 2494 0062 FFF7FEFF 		bl	drv_audio_process_block
 2495              	.LVL162:
 2496              		.loc 1 342 9 view .LVU740
 2497              		.loc 1 343 13 view .LVU741
 2498              		.loc 1 342 29 is_stmt 0 view .LVU742
 2499 0066 1A4B     		ldr	r3, .L229+24
 2500              		.loc 1 343 13 view .LVU743
 2501 0068 5946     		mov	r1, fp
 2502 006a 1848     		ldr	r0, .L229+20
 2503              		.loc 1 342 29 view .LVU744
 2504 006c 1B68     		ldr	r3, [r3]
 2505              		.loc 1 342 12 view .LVU745
ARM GAS  C:\Users\DEVELO~1\AppData\Local\Temp\cce83SFX.s 			page 45


 2506 006e 03B1     		cbz	r3, .L216
 2507              		.loc 1 343 13 view .LVU746
 2508 0070 9847     		blx	r3
 2509              	.LVL163:
 2510              	.L216:
 2511              	.LBE347:
 2512              		.loc 1 308 12 is_stmt 1 view .LVU747
 2513              	.LBB376:
 2514              		.loc 7 597 20 view .LVU748
 2515              	.LBB345:
 2516              		.loc 7 599 3 view .LVU749
 2517              	.LBB343:
 2518              		.loc 7 527 25 view .LVU750
 2519              	.LBB341:
 2520              		.loc 7 529 3 view .LVU751
 2521              	.LBE341:
 2522              	.LBE343:
 2523              		.loc 7 599 33 is_stmt 0 view .LVU752
 2524 0072 FB68     		ldr	r3, [r7, #12]
 2525              	.LBE345:
 2526              	.LBE376:
 2527              		.loc 1 308 12 view .LVU753
 2528 0074 93F91D30 		ldrsb	r3, [r3, #29]
 2529 0078 002B     		cmp	r3, #0
 2530 007a 13DB     		blt	.L212
 2531              	.LVL164:
 2532              	.L219:
 2533              	.LBB377:
 2534              		.loc 1 309 9 is_stmt 1 view .LVU754
 2535              	.LBB365:
 2536              	.LBI348:
 2537              		.loc 2 140 21 view .LVU755
 2538              	.LBB350:
 2539              		.loc 2 142 3 view .LVU756
 2540              		.loc 2 142 10 is_stmt 0 view .LVU757
 2541 007c 4046     		mov	r0, r8
 2542 007e FFF7FEFF 		bl	chSemWait
 2543              	.LVL165:
 2544              		.loc 2 142 10 view .LVU758
 2545              	.LBE350:
 2546              	.LBE365:
 2547              		.loc 1 311 9 is_stmt 1 view .LVU759
 2548              		.loc 1 312 9 view .LVU760
 2549              		.loc 1 314 9 view .LVU761
 2550              	.LBB366:
 2551              	.LBI366:
 2552              		.loc 3 372 20 view .LVU762
 2553              		.loc 3 374 3 view .LVU763
 2554              	.LBB367:
 2555              	.LBI367:
 2556              		.loc 4 840 27 view .LVU764
 2557              		.loc 4 848 3 view .LVU765
 2558              	.LBB368:
 2559              	.LBI368:
 2560              		.loc 5 491 27 view .LVU766
 2561              	.LBB369:
 2562              		.loc 5 493 3 view .LVU767
ARM GAS  C:\Users\DEVELO~1\AppData\Local\Temp\cce83SFX.s 			page 46


 2563 0082 3023     		movs	r3, #48
 2564              		.syntax unified
 2565              	@ 493 "./docs/ChibiOS/os/common/ext/ARM/CMSIS/Core/Include/cmsis_gcc.h" 1
 2566 0084 83F31188 		MSR basepri, r3
 2567              	@ 0 "" 2
 2568              	.LVL166:
 2569              		.loc 5 493 3 is_stmt 0 view .LVU768
 2570              		.thumb
 2571              		.syntax unified
 2572              	.LBE369:
 2573              	.LBE368:
 2574              	.LBE367:
 2575              		.loc 3 375 35 is_stmt 1 view .LVU769
 2576              		.loc 3 376 21 view .LVU770
 2577              	.LBE366:
 2578              		.loc 1 315 9 view .LVU771
 2579              		.loc 1 319 9 view .LVU772
 2580              		.loc 1 321 30 is_stmt 0 view .LVU773
 2581 0088 FF22     		movs	r2, #255
 2582              		.loc 1 315 34 view .LVU774
 2583 008a 3178     		ldrb	r1, [r6]	@ zero_extendqisi2
 2584              		.loc 1 315 68 view .LVU775
 2585 008c 114B     		ldr	r3, .L229+28
 2586              	.LBB370:
 2587              	.LBB363:
 2588              	.LBB361:
 2589              	.LBB359:
 2590              	.LBB357:
 2591              		.loc 5 493 3 view .LVU776
 2592 008e 0020     		movs	r0, #0
 2593              	.LBE357:
 2594              	.LBE359:
 2595              	.LBE361:
 2596              	.LBE363:
 2597              	.LBE370:
 2598              		.loc 1 315 12 view .LVU777
 2599 0090 9142     		cmp	r1, r2
 2600 0092 C8D1     		bne	.L228
 2601              	.L214:
 2602              		.loc 1 316 13 is_stmt 1 view .LVU778
 2603              	.LBB371:
 2604              	.LBI371:
 2605              		.loc 3 386 20 view .LVU779
 2606              	.LBB372:
 2607              		.loc 3 388 23 view .LVU780
 2608              		.loc 3 389 34 view .LVU781
 2609              		.loc 3 395 3 view .LVU782
 2610              		.loc 3 395 3 view .LVU783
 2611              		.loc 3 395 3 view .LVU784
 2612              		.loc 3 399 3 view .LVU785
 2613              	.LBB373:
 2614              	.LBI373:
 2615              		.loc 4 864 27 view .LVU786
 2616              		.loc 4 867 3 view .LVU787
 2617              	.LVL167:
 2618              	.LBB374:
 2619              	.LBI374:
ARM GAS  C:\Users\DEVELO~1\AppData\Local\Temp\cce83SFX.s 			page 47


 2620              		.loc 5 491 27 view .LVU788
 2621              	.LBB375:
 2622              		.loc 5 493 3 view .LVU789
 2623 0094 0023     		movs	r3, #0
 2624              		.syntax unified
 2625              	@ 493 "./docs/ChibiOS/os/common/ext/ARM/CMSIS/Core/Include/cmsis_gcc.h" 1
 2626 0096 83F31188 		MSR basepri, r3
 2627              	@ 0 "" 2
 2628              	.LVL168:
 2629              		.loc 5 493 3 is_stmt 0 view .LVU790
 2630              		.thumb
 2631              		.syntax unified
 2632              	.LBE375:
 2633              	.LBE374:
 2634              	.LBE373:
 2635              	.LBE372:
 2636              	.LBE371:
 2637              		.loc 1 317 13 is_stmt 1 view .LVU791
 2638              	.LBE377:
 2639              		.loc 1 308 12 view .LVU792
 2640              	.LBB378:
 2641              		.loc 7 597 20 view .LVU793
 2642              	.LBB346:
 2643              		.loc 7 599 3 view .LVU794
 2644              	.LBB344:
 2645              		.loc 7 527 25 view .LVU795
 2646              	.LBB342:
 2647              		.loc 7 529 3 view .LVU796
 2648              	.LBE342:
 2649              	.LBE344:
 2650              		.loc 7 599 33 is_stmt 0 view .LVU797
 2651 009a FB68     		ldr	r3, [r7, #12]
 2652              	.LBE346:
 2653              	.LBE378:
 2654              		.loc 1 308 12 view .LVU798
 2655 009c 93F91D30 		ldrsb	r3, [r3, #29]
 2656 00a0 002B     		cmp	r3, #0
 2657 00a2 EBDA     		bge	.L219
 2658              	.LVL169:
 2659              	.L212:
 2660              		.loc 1 346 1 view .LVU799
 2661 00a4 03B0     		add	sp, sp, #12
 2662              		.cfi_remember_state
 2663              		.cfi_def_cfa_offset 36
 2664              		@ sp needed
 2665 00a6 BDE8F08F 		pop	{r4, r5, r6, r7, r8, r9, r10, fp, pc}
 2666              	.LVL170:
 2667              	.L217:
 2668              		.cfi_restore_state
 2669              	.LBB379:
 2670              		.loc 1 332 13 is_stmt 1 view .LVU800
 2671 00aa 1946     		mov	r1, r3
 2672 00ac 4FF48062 		mov	r2, #1024
 2673 00b0 0548     		ldr	r0, .L229+16
 2674 00b2 FFF7FEFF 		bl	memset
 2675              	.LVL171:
 2676 00b6 CBE7     		b	.L218
ARM GAS  C:\Users\DEVELO~1\AppData\Local\Temp\cce83SFX.s 			page 48


 2677              	.L230:
 2678              		.align	2
 2679              	.L229:
 2680 00b8 00000000 		.word	ch0
 2681 00bc 00000000 		.word	.LC0
 2682 00c0 00000000 		.word	.LANCHOR2
 2683 00c4 00000000 		.word	.LANCHOR8
 2684 00c8 00060000 		.word	.LANCHOR3+1536
 2685 00cc 000A0000 		.word	.LANCHOR3+2560
 2686 00d0 00000000 		.word	.LANCHOR9
 2687 00d4 00000000 		.word	.LANCHOR0
 2688 00d8 00000000 		.word	.LANCHOR3
 2689 00dc 00000000 		.word	.LANCHOR1
 2690              	.LBE379:
 2691              		.cfi_endproc
 2692              	.LFE466:
 2693              		.size	audioThread, .-audioThread
 2694              		.section	.bss.audioThreadWA,"aw",%nobits
 2695              		.align	5
 2696              		.set	.LANCHOR7,. + 0
 2697              		.type	audioThreadWA, %object
 2698              		.size	audioThreadWA, 3008
 2699              	audioThreadWA:
 2700 0000 00000000 		.space	3008
 2700      00000000 
 2700      00000000 
 2700      00000000 
 2700      00000000 
 2701              		.section	.bss.audio_dma_sem,"aw",%nobits
 2702              		.align	2
 2703              		.set	.LANCHOR1,. + 0
 2704              		.type	audio_dma_sem, %object
 2705              		.size	audio_dma_sem, 12
 2706              	audio_dma_sem:
 2707 0000 00000000 		.space	12
 2707      00000000 
 2707      00000000 
 2708              		.section	.bss.g_audio_routes,"aw",%nobits
 2709              		.align	2
 2710              		.set	.LANCHOR4,. + 0
 2711              		.type	g_audio_routes, %object
 2712              		.size	g_audio_routes, 48
 2713              	g_audio_routes:
 2714 0000 00000000 		.space	48
 2714      00000000 
 2714      00000000 
 2714      00000000 
 2714      00000000 
 2715              		.section	.bss.sai_rx_dma,"aw",%nobits
 2716              		.align	2
 2717              		.set	.LANCHOR5,. + 0
 2718              		.type	sai_rx_dma, %object
 2719              		.size	sai_rx_dma, 4
 2720              	sai_rx_dma:
 2721 0000 00000000 		.space	4
 2722              		.section	.bss.sai_tx_dma,"aw",%nobits
 2723              		.align	2
ARM GAS  C:\Users\DEVELO~1\AppData\Local\Temp\cce83SFX.s 			page 49


 2724              		.set	.LANCHOR6,. + 0
 2725              		.type	sai_tx_dma, %object
 2726              		.size	sai_tx_dma, 4
 2727              	sai_tx_dma:
 2728 0000 00000000 		.space	4
 2729              		.section	.bss.spilink_pull_cb,"aw",%nobits
 2730              		.align	2
 2731              		.set	.LANCHOR8,. + 0
 2732              		.type	spilink_pull_cb, %object
 2733              		.size	spilink_pull_cb, 4
 2734              	spilink_pull_cb:
 2735 0000 00000000 		.space	4
 2736              		.section	.bss.spilink_push_cb,"aw",%nobits
 2737              		.align	2
 2738              		.set	.LANCHOR9,. + 0
 2739              		.type	spilink_push_cb, %object
 2740              		.size	spilink_push_cb, 4
 2741              	spilink_push_cb:
 2742 0000 00000000 		.space	4
 2743              		.section	.data.audio_in_ready_index,"aw"
 2744              		.set	.LANCHOR2,. + 0
 2745              		.type	audio_in_ready_index, %object
 2746              		.size	audio_in_ready_index, 1
 2747              	audio_in_ready_index:
 2748 0000 FF       		.byte	-1
 2749              		.section	.data.audio_master_volume,"aw"
 2750              		.align	2
 2751              		.set	.LANCHOR10,. + 0
 2752              		.type	audio_master_volume, %object
 2753              		.size	audio_master_volume, 4
 2754              	audio_master_volume:
 2755 0000 0000803F 		.word	1065353216
 2756              		.section	.data.audio_out_ready_index,"aw"
 2757              		.set	.LANCHOR0,. + 0
 2758              		.type	audio_out_ready_index, %object
 2759              		.size	audio_out_ready_index, 1
 2760              	audio_out_ready_index:
 2761 0000 FF       		.byte	-1
 2762              		.section	.ram_d2,"aw"
 2763              		.align	5
 2764              		.set	.LANCHOR3,. + 0
 2765              		.type	audio_in_buffers, %object
 2766              		.size	audio_in_buffers, 1024
 2767              	audio_in_buffers:
 2768 0000 00000000 		.space	1024
 2768      00000000 
 2768      00000000 
 2768      00000000 
 2768      00000000 
 2769              		.type	audio_out_buffers, %object
 2770              		.size	audio_out_buffers, 512
 2771              	audio_out_buffers:
 2772 0400 00000000 		.space	512
 2772      00000000 
 2772      00000000 
 2772      00000000 
 2772      00000000 
ARM GAS  C:\Users\DEVELO~1\AppData\Local\Temp\cce83SFX.s 			page 50


 2773              		.type	spi_in_buffers, %object
 2774              		.size	spi_in_buffers, 1024
 2775              	spi_in_buffers:
 2776 0600 00000000 		.space	1024
 2776      00000000 
 2776      00000000 
 2776      00000000 
 2776      00000000 
 2777              		.type	spi_out_buffers, %object
 2778              		.size	spi_out_buffers, 1024
 2779              	spi_out_buffers:
 2780 0a00 00000000 		.space	1024
 2780      00000000 
 2780      00000000 
 2780      00000000 
 2780      00000000 
 2781              		.text
 2782              	.Letext0:
 2783              		.file 8 "c:\\chibistudio\\tools\\gnu tools arm embedded\\11.3 2022.08\\lib\\gcc\\arm-none-eabi\\11
 2784              		.file 9 "c:\\chibistudio\\tools\\gnu tools arm embedded\\11.3 2022.08\\arm-none-eabi\\include\\mac
 2785              		.file 10 "c:\\chibistudio\\tools\\gnu tools arm embedded\\11.3 2022.08\\arm-none-eabi\\include\\sy
 2786              		.file 11 "./docs/ChibiOS/os/common/ports/ARM-common/include/chtypes.h"
 2787              		.file 12 "./docs/ChibiOS/os/rt/include/chearly.h"
 2788              		.file 13 "./docs/ChibiOS/os/rt/include/chobjects.h"
 2789              		.file 14 "./docs/ChibiOS/os/rt/include/chrfcu.h"
 2790              		.file 15 "./docs/ChibiOS/os/rt/include/chdebug.h"
 2791              		.file 16 "./docs/ChibiOS/os/rt/include/chtime.h"
 2792              		.file 17 "./docs/ChibiOS/os/rt/include/chtrace.h"
 2793              		.file 18 "./docs/ChibiOS/os/common/ext/ST/STM32H7xx/stm32h743xx.h"
 2794              		.file 19 "./docs/ChibiOS/os/rt/include/chlists.h"
 2795              		.file 20 "./docs/ChibiOS/os/rt/include/chsem.h"
 2796              		.file 21 "./docs/ChibiOS/os/rt/include/chmtx.h"
 2797              		.file 22 "./docs/ChibiOS/os/hal/ports/STM32/LLD/DMAv2/stm32_dma.h"
 2798              		.file 23 "drivers/audio/drv_audio.h"
 2799              		.file 24 "drivers/audio/audio_codec_pcm4104.h"
 2800              		.file 25 "c:\\chibistudio\\tools\\gnu tools arm embedded\\11.3 2022.08\\arm-none-eabi\\include\\st
 2801              		.file 26 "drivers/audio/audio_codec_ada1979.h"
 2802              		.file 27 "<built-in>"