ARM GAS  C:\Users\DEVELO~1\AppData\Local\Temp\ccWjdWXP.s 			page 1


   1              		.cpu cortex-m7
   2              		.arch armv7e-m
   3              		.fpu fpv5-d16
   4              		.eabi_attribute 28, 1
   5              		.eabi_attribute 20, 1
   6              		.eabi_attribute 21, 1
   7              		.eabi_attribute 23, 3
   8              		.eabi_attribute 24, 1
   9              		.eabi_attribute 25, 1
  10              		.eabi_attribute 26, 1
  11              		.eabi_attribute 30, 2
  12              		.eabi_attribute 34, 1
  13              		.eabi_attribute 18, 4
  14              		.file	"drv_buttons.c"
  15              		.text
  16              	.Ltext0:
  17              		.cfi_sections	.debug_frame
  18              		.section	.rodata.buttonThread.str1.4,"aMS",%progbits,1
  19              		.align	2
  20              	.LC0:
  21 0000 62757474 		.ascii	"buttons\000"
  21      6F6E7300 
  22              		.section	.text.buttonThread,"ax",%progbits
  23              		.align	1
  24              		.p2align 2,,3
  25              		.syntax unified
  26              		.thumb
  27              		.thumb_func
  28              		.type	buttonThread, %function
  29              	buttonThread:
  30              	.LVL0:
  31              	.LFB449:
  32              		.file 1 "drivers/drv_buttons.c"
  33              		.loc 1 94 40 view -0
  34              		.cfi_startproc
  35              		@ Volatile: function does not return.
  36              		@ args = 0, pretend = 0, frame = 8
  37              		@ frame_needed = 0, uses_anonymous_args = 0
  38              		.loc 1 95 5 view .LVU1
  39              		.loc 1 96 5 view .LVU2
  40              	.LBB8:
  41              	.LBI8:
  42              		.file 2 "../../../os/rt/include/chregistry.h"
  43              		.loc 2 166 20 view .LVU3
  44              	.LBB9:
  45              		.loc 2 169 3 view .LVU4
  46 0000 1B4B     		ldr	r3, .L5
  47              		.loc 2 169 32 is_stmt 0 view .LVU5
  48 0002 1C4A     		ldr	r2, .L5+4
  49 0004 DB68     		ldr	r3, [r3, #12]
  50              	.LBE9:
  51              	.LBE8:
  52              		.loc 1 98 5 view .LVU6
  53 0006 1C49     		ldr	r1, .L5+8
  54 0008 1C48     		ldr	r0, .L5+12
  55              	.LVL1:
  56              		.loc 1 98 5 view .LVU7
ARM GAS  C:\Users\DEVELO~1\AppData\Local\Temp\ccWjdWXP.s 			page 2


  57 000a 1D4C     		ldr	r4, .L5+16
  58 000c DFF87C80 		ldr	r8, .L5+28
  59              	.LBB11:
  60              	.LBB12:
  61              		.loc 1 67 5 view .LVU8
  62 0010 1C4D     		ldr	r5, .L5+20
  63              		.loc 1 70 5 view .LVU9
  64 0012 1A4E     		ldr	r6, .L5+12
  65              	.LBE12:
  66              	.LBE11:
  67              		.loc 1 94 40 view .LVU10
  68 0014 80B5     		push	{r7, lr}
  69              		.cfi_def_cfa_offset 8
  70              		.cfi_offset 7, -8
  71              		.cfi_offset 14, -4
  72              	.LBB16:
  73              	.LBB10:
  74              		.loc 2 169 32 view .LVU11
  75 0016 1A62     		str	r2, [r3, #32]
  76              	.LVL2:
  77              		.loc 2 169 32 view .LVU12
  78              	.LBE10:
  79              	.LBE16:
  80              		.loc 1 98 5 is_stmt 1 view .LVU13
  81              		.loc 1 94 40 is_stmt 0 view .LVU14
  82 0018 82B0     		sub	sp, sp, #8
  83              		.cfi_def_cfa_offset 16
  84              		.loc 1 98 5 view .LVU15
  85 001a FFF7FEFF 		bl	spiStart
  86              	.LVL3:
  87 001e 1A4B     		ldr	r3, .L5+24
  88              	.LBB17:
  89              	.LBB13:
  90              		.loc 1 64 13 view .LVU16
  91 0020 1F88     		ldrh	r7, [r3]
  92              	.L2:
  93              	.LBE13:
  94              	.LBE17:
  95              		.loc 1 100 5 is_stmt 1 discriminator 1 view .LVU17
  96              		.loc 1 101 9 discriminator 1 view .LVU18
  97              	.LBB18:
  98              	.LBI11:
  99              		.loc 1 62 13 discriminator 1 view .LVU19
 100              	.LBB14:
 101              		.loc 1 64 5 discriminator 1 view .LVU20
 102              		.loc 1 67 5 is_stmt 0 discriminator 1 view .LVU21
 103 0022 4FF00809 		mov	r9, #8
 104              		.loc 1 64 13 discriminator 1 view .LVU22
 105 0026 0023     		movs	r3, #0
 106              		.loc 1 70 5 discriminator 1 view .LVU23
 107 0028 01AA     		add	r2, sp, #4
 108              		.loc 1 64 13 discriminator 1 view .LVU24
 109 002a ADF80470 		strh	r7, [sp, #4]	@ movhi
 110 002e 8DF80630 		strb	r3, [sp, #6]
 111              		.loc 1 67 5 is_stmt 1 discriminator 1 view .LVU25
 112              		.loc 1 70 5 is_stmt 0 discriminator 1 view .LVU26
 113 0032 0321     		movs	r1, #3
ARM GAS  C:\Users\DEVELO~1\AppData\Local\Temp\ccWjdWXP.s 			page 3


 114 0034 3046     		mov	r0, r6
 115              		.loc 1 67 5 discriminator 1 view .LVU27
 116 0036 A5F81A90 		strh	r9, [r5, #26]	@ movhi
 117              		.loc 1 70 5 is_stmt 1 discriminator 1 view .LVU28
 118 003a FFF7FEFF 		bl	spiReceive
 119              	.LVL4:
 120              		.loc 1 73 5 discriminator 1 view .LVU29
 121 003e A5F81890 		strh	r9, [r5, #24]	@ movhi
 122              		.loc 1 75 5 discriminator 1 view .LVU30
 123              		.loc 1 77 24 is_stmt 0 discriminator 1 view .LVU31
 124 0042 9DF80610 		ldrb	r1, [sp, #6]	@ zero_extendqisi2
 125              	.LBE14:
 126              	.LBE18:
 127              		.loc 1 102 9 discriminator 1 view .LVU32
 128 0046 1420     		movs	r0, #20
 129              	.LBB19:
 130              	.LBB15:
 131              		.loc 1 76 24 discriminator 1 view .LVU33
 132 0048 9DF805C0 		ldrb	ip, [sp, #5]	@ zero_extendqisi2
 133              		.loc 1 83 27 discriminator 1 view .LVU34
 134 004c 0B04     		lsls	r3, r1, #16
 135              		.loc 1 75 24 discriminator 1 view .LVU35
 136 004e 9DF80420 		ldrb	r2, [sp, #4]	@ zero_extendqisi2
 137              		.loc 1 80 14 discriminator 1 view .LVU36
 138 0052 43EA0C23 		orr	r3, r3, ip, lsl #8
 139              		.loc 1 75 20 discriminator 1 view .LVU37
 140 0056 2270     		strb	r2, [r4]
 141              		.loc 1 76 5 is_stmt 1 discriminator 1 view .LVU38
 142              		.loc 1 76 20 is_stmt 0 discriminator 1 view .LVU39
 143 0058 84F801C0 		strb	ip, [r4, #1]
 144              		.loc 1 77 5 is_stmt 1 discriminator 1 view .LVU40
 145              		.loc 1 80 14 is_stmt 0 discriminator 1 view .LVU41
 146 005c 1343     		orrs	r3, r3, r2
 147              		.loc 1 77 20 discriminator 1 view .LVU42
 148 005e A170     		strb	r1, [r4, #2]
 149              		.loc 1 80 5 is_stmt 1 discriminator 1 view .LVU43
 150              	.LVL5:
 151              		.loc 1 85 5 discriminator 1 view .LVU44
 152              		.loc 1 85 23 is_stmt 0 discriminator 1 view .LVU45
 153 0060 C3F31303 		ubfx	r3, r3, #0, #20
 154              		.loc 1 85 18 discriminator 1 view .LVU46
 155 0064 C8F80030 		str	r3, [r8]
 156              	.LVL6:
 157              		.loc 1 85 18 discriminator 1 view .LVU47
 158              	.LBE15:
 159              	.LBE19:
 160              		.loc 1 102 9 is_stmt 1 discriminator 1 view .LVU48
 161 0068 FFF7FEFF 		bl	chThdSleep
 162              	.LVL7:
 163              		.loc 1 100 11 discriminator 1 view .LVU49
 164 006c D9E7     		b	.L2
 165              	.L6:
 166 006e 00BF     		.align	2
 167              	.L5:
 168 0070 00000000 		.word	ch0
 169 0074 00000000 		.word	.LC0
 170 0078 00000000 		.word	.LANCHOR0
ARM GAS  C:\Users\DEVELO~1\AppData\Local\Temp\ccWjdWXP.s 			page 4


 171 007c 00000000 		.word	SPID5
 172 0080 00000000 		.word	.LANCHOR2
 173 0084 00000258 		.word	1476526080
 174 0088 00000000 		.word	.LANCHOR1
 175 008c 00000000 		.word	.LANCHOR3
 176              		.cfi_endproc
 177              	.LFE449:
 178              		.size	buttonThread, .-buttonThread
 179              		.section	.text.drv_buttons_init,"ax",%progbits
 180              		.align	1
 181              		.p2align 2,,3
 182              		.global	drv_buttons_init
 183              		.syntax unified
 184              		.thumb
 185              		.thumb_func
 186              		.type	drv_buttons_init, %function
 187              	drv_buttons_init:
 188              	.LFB450:
 189              		.loc 1 110 29 view -0
 190              		.cfi_startproc
 191              		@ args = 0, pretend = 0, frame = 0
 192              		@ frame_needed = 0, uses_anonymous_args = 0
 193              		.loc 1 113 5 view .LVU51
 194              		.loc 1 110 29 is_stmt 0 view .LVU52
 195 0000 10B5     		push	{r4, lr}
 196              		.cfi_def_cfa_offset 8
 197              		.cfi_offset 4, -8
 198              		.cfi_offset 14, -4
 199              		.loc 1 113 5 view .LVU53
 200 0002 044C     		ldr	r4, .L9
 201 0004 0122     		movs	r2, #1
 202 0006 0821     		movs	r1, #8
 203 0008 2046     		mov	r0, r4
 204 000a FFF7FEFF 		bl	_pal_lld_setgroupmode
 205              	.LVL8:
 206              		.loc 1 114 5 is_stmt 1 view .LVU54
 207 000e 0823     		movs	r3, #8
 208 0010 2383     		strh	r3, [r4, #24]	@ movhi
 209              		.loc 1 115 1 is_stmt 0 view .LVU55
 210 0012 10BD     		pop	{r4, pc}
 211              	.L10:
 212              		.align	2
 213              	.L9:
 214 0014 00000258 		.word	1476526080
 215              		.cfi_endproc
 216              	.LFE450:
 217              		.size	drv_buttons_init, .-drv_buttons_init
 218              		.section	.text.drv_buttons_start,"ax",%progbits
 219              		.align	1
 220              		.p2align 2,,3
 221              		.global	drv_buttons_start
 222              		.syntax unified
 223              		.thumb
 224              		.thumb_func
 225              		.type	drv_buttons_start, %function
 226              	drv_buttons_start:
 227              	.LFB451:
ARM GAS  C:\Users\DEVELO~1\AppData\Local\Temp\ccWjdWXP.s 			page 5


 228              		.loc 1 117 30 is_stmt 1 view -0
 229              		.cfi_startproc
 230              		@ args = 0, pretend = 0, frame = 0
 231              		@ frame_needed = 0, uses_anonymous_args = 0
 232              		.loc 1 118 5 view .LVU57
 233              	.LBB22:
 234              	.LBI22:
 235              		.loc 1 110 6 view .LVU58
 236              	.LBB23:
 237              		.loc 1 113 5 view .LVU59
 238              	.LBE23:
 239              	.LBE22:
 240              		.loc 1 117 30 is_stmt 0 view .LVU60
 241 0000 30B5     		push	{r4, r5, lr}
 242              		.cfi_def_cfa_offset 12
 243              		.cfi_offset 4, -12
 244              		.cfi_offset 5, -8
 245              		.cfi_offset 14, -4
 246              	.LBB28:
 247              	.LBB24:
 248              		.loc 1 113 5 view .LVU61
 249 0002 0A4C     		ldr	r4, .L13
 250              	.LBE24:
 251              	.LBE28:
 252              		.loc 1 117 30 view .LVU62
 253 0004 83B0     		sub	sp, sp, #12
 254              		.cfi_def_cfa_offset 24
 255              	.LBB29:
 256              	.LBB25:
 257              		.loc 1 113 5 view .LVU63
 258 0006 0122     		movs	r2, #1
 259 0008 0821     		movs	r1, #8
 260 000a 2046     		mov	r0, r4
 261              	.LBE25:
 262              	.LBE29:
 263              		.loc 1 120 5 view .LVU64
 264 000c 0025     		movs	r5, #0
 265              	.LBB30:
 266              	.LBB26:
 267              		.loc 1 113 5 view .LVU65
 268 000e FFF7FEFF 		bl	_pal_lld_setgroupmode
 269              	.LVL9:
 270              		.loc 1 114 5 is_stmt 1 view .LVU66
 271 0012 0822     		movs	r2, #8
 272              	.LBE26:
 273              	.LBE30:
 274              		.loc 1 120 5 is_stmt 0 view .LVU67
 275 0014 064B     		ldr	r3, .L13+4
 276 0016 4FF43871 		mov	r1, #736
 277              	.LBB31:
 278              	.LBB27:
 279              		.loc 1 114 5 view .LVU68
 280 001a 2283     		strh	r2, [r4, #24]	@ movhi
 281              	.LBE27:
 282              	.LBE31:
 283              		.loc 1 120 5 is_stmt 1 view .LVU69
 284 001c 8022     		movs	r2, #128
ARM GAS  C:\Users\DEVELO~1\AppData\Local\Temp\ccWjdWXP.s 			page 6


 285 001e 0095     		str	r5, [sp]
 286 0020 0448     		ldr	r0, .L13+8
 287 0022 FFF7FEFF 		bl	chThdCreateStatic
 288              	.LVL10:
 289              		.loc 1 122 1 is_stmt 0 view .LVU70
 290 0026 03B0     		add	sp, sp, #12
 291              		.cfi_def_cfa_offset 12
 292              		@ sp needed
 293 0028 30BD     		pop	{r4, r5, pc}
 294              	.L14:
 295 002a 00BF     		.align	2
 296              	.L13:
 297 002c 00000258 		.word	1476526080
 298 0030 00000000 		.word	buttonThread
 299 0034 00000000 		.word	.LANCHOR4
 300              		.cfi_endproc
 301              	.LFE451:
 302              		.size	drv_buttons_start, .-drv_buttons_start
 303              		.section	.text.drv_button_get,"ax",%progbits
 304              		.align	1
 305              		.p2align 2,,3
 306              		.global	drv_button_get
 307              		.syntax unified
 308              		.thumb
 309              		.thumb_func
 310              		.type	drv_button_get, %function
 311              	drv_button_get:
 312              	.LVL11:
 313              	.LFB452:
 314              		.loc 1 124 36 is_stmt 1 view -0
 315              		.cfi_startproc
 316              		@ args = 0, pretend = 0, frame = 0
 317              		@ frame_needed = 0, uses_anonymous_args = 0
 318              		@ link register save eliminated.
 319              		.loc 1 125 5 view .LVU72
 320              		.loc 1 125 8 is_stmt 0 view .LVU73
 321 0000 1328     		cmp	r0, #19
 322 0002 06D8     		bhi	.L17
 323              		.loc 1 128 5 is_stmt 1 view .LVU74
 324              		.loc 1 128 26 is_stmt 0 view .LVU75
 325 0004 044B     		ldr	r3, .L18
 326 0006 1B68     		ldr	r3, [r3]
 327 0008 23FA00F0 		lsr	r0, r3, r0
 328              	.LVL12:
 329              		.loc 1 128 36 view .LVU76
 330 000c 00F00100 		and	r0, r0, #1
 331 0010 7047     		bx	lr
 332              	.LVL13:
 333              	.L17:
 334              		.loc 1 126 16 view .LVU77
 335 0012 0020     		movs	r0, #0
 336              	.LVL14:
 337              		.loc 1 129 1 view .LVU78
 338 0014 7047     		bx	lr
 339              	.L19:
 340 0016 00BF     		.align	2
 341              	.L18:
ARM GAS  C:\Users\DEVELO~1\AppData\Local\Temp\ccWjdWXP.s 			page 7


 342 0018 00000000 		.word	.LANCHOR3
 343              		.cfi_endproc
 344              	.LFE452:
 345              		.size	drv_button_get, .-drv_button_get
 346              		.section	.text.drv_buttons_get_mask,"ax",%progbits
 347              		.align	1
 348              		.p2align 2,,3
 349              		.global	drv_buttons_get_mask
 350              		.syntax unified
 351              		.thumb
 352              		.thumb_func
 353              		.type	drv_buttons_get_mask, %function
 354              	drv_buttons_get_mask:
 355              	.LFB453:
 356              		.loc 1 131 37 is_stmt 1 view -0
 357              		.cfi_startproc
 358              		@ args = 0, pretend = 0, frame = 0
 359              		@ frame_needed = 0, uses_anonymous_args = 0
 360              		@ link register save eliminated.
 361              		.loc 1 132 5 view .LVU80
 362              		.loc 1 132 12 is_stmt 0 view .LVU81
 363 0000 014B     		ldr	r3, .L21
 364 0002 1868     		ldr	r0, [r3]
 365              		.loc 1 133 1 view .LVU82
 366 0004 7047     		bx	lr
 367              	.L22:
 368 0006 00BF     		.align	2
 369              	.L21:
 370 0008 00000000 		.word	.LANCHOR3
 371              		.cfi_endproc
 372              	.LFE453:
 373              		.size	drv_buttons_get_mask, .-drv_buttons_get_mask
 374              		.section	.rodata
 375              		.align	2
 376              		.set	.LANCHOR1,. + 0
 377              	.LC1:
 378 0000 0000     		.ascii	"\000\000"
 379 0002 00       		.space	1
 380              		.section	.bss.buttons_mask,"aw",%nobits
 381              		.align	2
 382              		.set	.LANCHOR3,. + 0
 383              		.type	buttons_mask, %object
 384              		.size	buttons_mask, 4
 385              	buttons_mask:
 386 0000 00000000 		.space	4
 387              		.section	.bss.buttons_raw,"aw",%nobits
 388              		.align	2
 389              		.set	.LANCHOR2,. + 0
 390              		.type	buttons_raw, %object
 391              		.size	buttons_raw, 3
 392              	buttons_raw:
 393 0000 000000   		.space	3
 394              		.section	.bss.waButtons,"aw",%nobits
 395              		.align	5
 396              		.set	.LANCHOR4,. + 0
 397              		.type	waButtons, %object
 398              		.size	waButtons, 736
ARM GAS  C:\Users\DEVELO~1\AppData\Local\Temp\ccWjdWXP.s 			page 8


 399              	waButtons:
 400 0000 00000000 		.space	736
 400      00000000 
 400      00000000 
 400      00000000 
 400      00000000 
 401              		.section	.rodata.spicfg_buttons,"a"
 402              		.align	2
 403              		.set	.LANCHOR0,. + 0
 404              		.type	spicfg_buttons, %object
 405              		.size	spicfg_buttons, 28
 406              	spicfg_buttons:
 407 0000 00       		.byte	0
 408 0001 00       		.byte	0
 409 0002 0000     		.space	2
 410 0004 00000000 		.word	0
 411 0008 00000000 		.word	0
 412 000c 00000000 		.space	8
 412      00000000 
 413 0014 07000040 		.word	1073741831
 414 0018 00004020 		.word	541065216
 415              		.text
 416              	.Letext0:
 417              		.file 3 "c:\\chibistudio\\tools\\gnu tools arm embedded\\11.3 2022.08\\arm-none-eabi\\include\\mac
 418              		.file 4 "c:\\chibistudio\\tools\\gnu tools arm embedded\\11.3 2022.08\\arm-none-eabi\\include\\sys
 419              		.file 5 "c:\\chibistudio\\tools\\gnu tools arm embedded\\11.3 2022.08\\arm-none-eabi\\include\\std
 420              		.file 6 "c:\\chibistudio\\tools\\gnu tools arm embedded\\11.3 2022.08\\lib\\gcc\\arm-none-eabi\\11
 421              		.file 7 "../../../os/common/ports/ARM-common/include/chtypes.h"
 422              		.file 8 "../../../os/rt/include/chearly.h"
 423              		.file 9 "../../../os/rt/include/chobjects.h"
 424              		.file 10 "../../../os/rt/include/chrfcu.h"
 425              		.file 11 "../../../os/rt/include/chdebug.h"
 426              		.file 12 "../../../os/rt/include/chtime.h"
 427              		.file 13 "../../../os/rt/include/chtrace.h"
 428              		.file 14 "../../../os/common/ext/ST/STM32H7xx/stm32h743xx.h"
 429              		.file 15 "../../../os/common/ports/ARMv7-M/chcore.h"
 430              		.file 16 "../../../os/rt/include/chlists.h"
 431              		.file 17 "../../../os/rt/include/chsem.h"
 432              		.file 18 "../../../os/rt/include/chmtx.h"
 433              		.file 19 "../../../os/rt/include/chthreads.h"
 434              		.file 20 "../../../os/hal/ports/STM32/LLD/DMAv2/stm32_dma.h"
 435              		.file 21 "../../../os/hal/ports/STM32/LLD/BDMAv1/stm32_bdma.h"
 436              		.file 22 "../../../os/hal/ports/STM32/LLD/GPIOv2/stm32_gpio.h"
 437              		.file 23 "../../../os/hal/ports/STM32/LLD/GPIOv2/hal_pal_lld.h"
 438              		.file 24 "../../../os/hal/include/hal_spi_v2.h"
 439              		.file 25 "../../../os/hal/ports/STM32/LLD/SPIv3/hal_spi_v2_lld.h"
 440              		.file 26 "../../../os/rt/include/chsys.h"
 441              		.section	.debug_info,"",%progbits
 442              	.Ldebug_info0:
 443 0000 9C130000 		.4byte	0x139c
 444 0004 0500     		.2byte	0x5
 445 0006 01       		.byte	0x1
 446 0007 04       		.byte	0x4
 447 0008 00000000 		.4byte	.Ldebug_abbrev0
 448 000c 21       		.uleb128 0x21
 449 000d 9A010000 		.4byte	.LASF218
 450 0011 1D       		.byte	0x1d
ARM GAS  C:\Users\DEVELO~1\AppData\Local\Temp\ccWjdWXP.s 			page 9


 451 0012 AF000000 		.4byte	.LASF219
 452 0016 66040000 		.4byte	.LASF220
 453 001a 3F000000 		.4byte	.LLRL7
 454 001e 00000000 		.4byte	0
 455 0022 00000000 		.4byte	.Ldebug_line0
 456 0026 0A       		.uleb128 0xa
 457 0027 01       		.byte	0x1
 458 0028 06       		.byte	0x6
 459 0029 EF080000 		.4byte	.LASF0
 460 002d 02       		.uleb128 0x2
 461 002e 7B070000 		.4byte	.LASF3
 462 0032 03       		.byte	0x3
 463 0033 2B       		.byte	0x2b
 464 0034 18       		.byte	0x18
 465 0035 39000000 		.4byte	0x39
 466 0039 0A       		.uleb128 0xa
 467 003a 01       		.byte	0x1
 468 003b 08       		.byte	0x8
 469 003c 30080000 		.4byte	.LASF1
 470 0040 0A       		.uleb128 0xa
 471 0041 02       		.byte	0x2
 472 0042 05       		.byte	0x5
 473 0043 D5060000 		.4byte	.LASF2
 474 0047 02       		.uleb128 0x2
 475 0048 F4020000 		.4byte	.LASF4
 476 004c 03       		.byte	0x3
 477 004d 39       		.byte	0x39
 478 004e 19       		.byte	0x19
 479 004f 53000000 		.4byte	0x53
 480 0053 0A       		.uleb128 0xa
 481 0054 02       		.byte	0x2
 482 0055 07       		.byte	0x7
 483 0056 07090000 		.4byte	.LASF5
 484 005a 02       		.uleb128 0x2
 485 005b 3F040000 		.4byte	.LASF6
 486 005f 03       		.byte	0x3
 487 0060 4D       		.byte	0x4d
 488 0061 18       		.byte	0x18
 489 0062 66000000 		.4byte	0x66
 490 0066 0A       		.uleb128 0xa
 491 0067 04       		.byte	0x4
 492 0068 05       		.byte	0x5
 493 0069 00000000 		.4byte	.LASF7
 494 006d 02       		.uleb128 0x2
 495 006e 43080000 		.4byte	.LASF8
 496 0072 03       		.byte	0x3
 497 0073 4F       		.byte	0x4f
 498 0074 19       		.byte	0x19
 499 0075 79000000 		.4byte	0x79
 500 0079 0A       		.uleb128 0xa
 501 007a 04       		.byte	0x4
 502 007b 07       		.byte	0x7
 503 007c AC070000 		.4byte	.LASF9
 504 0080 0A       		.uleb128 0xa
 505 0081 08       		.byte	0x8
 506 0082 05       		.byte	0x5
 507 0083 0D050000 		.4byte	.LASF10
ARM GAS  C:\Users\DEVELO~1\AppData\Local\Temp\ccWjdWXP.s 			page 10


 508 0087 02       		.uleb128 0x2
 509 0088 C7040000 		.4byte	.LASF11
 510 008c 03       		.byte	0x3
 511 008d 69       		.byte	0x69
 512 008e 19       		.byte	0x19
 513 008f 93000000 		.4byte	0x93
 514 0093 0A       		.uleb128 0xa
 515 0094 08       		.byte	0x8
 516 0095 07       		.byte	0x7
 517 0096 B7020000 		.4byte	.LASF12
 518 009a 22       		.uleb128 0x22
 519 009b 04       		.byte	0x4
 520 009c 05       		.byte	0x5
 521 009d 696E7400 		.ascii	"int\000"
 522 00a1 0A       		.uleb128 0xa
 523 00a2 04       		.byte	0x4
 524 00a3 07       		.byte	0x7
 525 00a4 CE000000 		.4byte	.LASF13
 526 00a8 02       		.uleb128 0x2
 527 00a9 D2040000 		.4byte	.LASF14
 528 00ad 04       		.byte	0x4
 529 00ae 18       		.byte	0x18
 530 00af 13       		.byte	0x13
 531 00b0 2D000000 		.4byte	0x2d
 532 00b4 10       		.uleb128 0x10
 533 00b5 A8000000 		.4byte	0xa8
 534 00b9 02       		.uleb128 0x2
 535 00ba 65060000 		.4byte	.LASF15
 536 00be 04       		.byte	0x4
 537 00bf 24       		.byte	0x24
 538 00c0 14       		.byte	0x14
 539 00c1 47000000 		.4byte	0x47
 540 00c5 02       		.uleb128 0x2
 541 00c6 DC070000 		.4byte	.LASF16
 542 00ca 04       		.byte	0x4
 543 00cb 2C       		.byte	0x2c
 544 00cc 13       		.byte	0x13
 545 00cd 5A000000 		.4byte	0x5a
 546 00d1 02       		.uleb128 0x2
 547 00d2 E0000000 		.4byte	.LASF17
 548 00d6 04       		.byte	0x4
 549 00d7 30       		.byte	0x30
 550 00d8 14       		.byte	0x14
 551 00d9 6D000000 		.4byte	0x6d
 552 00dd 10       		.uleb128 0x10
 553 00de D1000000 		.4byte	0xd1
 554 00e2 02       		.uleb128 0x2
 555 00e3 D5080000 		.4byte	.LASF18
 556 00e7 04       		.byte	0x4
 557 00e8 3C       		.byte	0x3c
 558 00e9 14       		.byte	0x14
 559 00ea 87000000 		.4byte	0x87
 560 00ee 10       		.uleb128 0x10
 561 00ef E2000000 		.4byte	0xe2
 562 00f3 02       		.uleb128 0x2
 563 00f4 1B050000 		.4byte	.LASF19
 564 00f8 05       		.byte	0x5
ARM GAS  C:\Users\DEVELO~1\AppData\Local\Temp\ccWjdWXP.s 			page 11


 565 00f9 34       		.byte	0x34
 566 00fa 1F       		.byte	0x1f
 567 00fb A1000000 		.4byte	0xa1
 568 00ff 02       		.uleb128 0x2
 569 0100 99030000 		.4byte	.LASF20
 570 0104 06       		.byte	0x6
 571 0105 D1       		.byte	0xd1
 572 0106 17       		.byte	0x17
 573 0107 A1000000 		.4byte	0xa1
 574 010b 0A       		.uleb128 0xa
 575 010c 08       		.byte	0x8
 576 010d 04       		.byte	0x4
 577 010e 59060000 		.4byte	.LASF21
 578 0112 02       		.uleb128 0x2
 579 0113 57000000 		.4byte	.LASF22
 580 0117 07       		.byte	0x7
 581 0118 48       		.byte	0x48
 582 0119 1D       		.byte	0x1d
 583 011a E2000000 		.4byte	0xe2
 584 011e 02       		.uleb128 0x2
 585 011f 1B030000 		.4byte	.LASF23
 586 0123 08       		.byte	0x8
 587 0124 50       		.byte	0x50
 588 0125 19       		.byte	0x19
 589 0126 12010000 		.4byte	0x112
 590 012a 02       		.uleb128 0x2
 591 012b 38060000 		.4byte	.LASF24
 592 012f 08       		.byte	0x8
 593 0130 53       		.byte	0x53
 594 0131 19       		.byte	0x19
 595 0132 A8000000 		.4byte	0xa8
 596 0136 02       		.uleb128 0x2
 597 0137 A4040000 		.4byte	.LASF25
 598 013b 08       		.byte	0x8
 599 013c 54       		.byte	0x54
 600 013d 19       		.byte	0x19
 601 013e A8000000 		.4byte	0xa8
 602 0142 02       		.uleb128 0x2
 603 0143 A4070000 		.4byte	.LASF26
 604 0147 08       		.byte	0x8
 605 0148 55       		.byte	0x55
 606 0149 19       		.byte	0x19
 607 014a A8000000 		.4byte	0xa8
 608 014e 02       		.uleb128 0x2
 609 014f 87020000 		.4byte	.LASF27
 610 0153 08       		.byte	0x8
 611 0154 57       		.byte	0x57
 612 0155 19       		.byte	0x19
 613 0156 D1000000 		.4byte	0xd1
 614 015a 02       		.uleb128 0x2
 615 015b 28050000 		.4byte	.LASF28
 616 015f 08       		.byte	0x8
 617 0160 58       		.byte	0x58
 618 0161 19       		.byte	0x19
 619 0162 C5000000 		.4byte	0xc5
 620 0166 02       		.uleb128 0x2
 621 0167 4F020000 		.4byte	.LASF29
ARM GAS  C:\Users\DEVELO~1\AppData\Local\Temp\ccWjdWXP.s 			page 12


 622 016b 08       		.byte	0x8
 623 016c 5A       		.byte	0x5a
 624 016d 19       		.byte	0x19
 625 016e D1000000 		.4byte	0xd1
 626 0172 02       		.uleb128 0x2
 627 0173 FF020000 		.4byte	.LASF30
 628 0177 08       		.byte	0x8
 629 0178 5C       		.byte	0x5c
 630 0179 19       		.byte	0x19
 631 017a C5000000 		.4byte	0xc5
 632 017e 02       		.uleb128 0x2
 633 017f 97090000 		.4byte	.LASF31
 634 0183 08       		.byte	0x8
 635 0184 80       		.byte	0x80
 636 0185 12       		.byte	0x12
 637 0186 A1000000 		.4byte	0xa1
 638 018a 02       		.uleb128 0x2
 639 018b 82030000 		.4byte	.LASF32
 640 018f 08       		.byte	0x8
 641 0190 85       		.byte	0x85
 642 0191 1A       		.byte	0x1a
 643 0192 96010000 		.4byte	0x196
 644 0196 09       		.uleb128 0x9
 645 0197 E9040000 		.4byte	.LASF49
 646 019b 50       		.byte	0x50
 647 019c 09       		.byte	0x9
 648 019d A9       		.byte	0xa9
 649 019e 08       		.byte	0x8
 650 019f 92020000 		.4byte	0x292
 651 01a3 06       		.uleb128 0x6
 652 01a4 68647200 		.ascii	"hdr\000"
 653 01a8 09       		.byte	0x9
 654 01a9 BA       		.byte	0xba
 655 01aa 05       		.byte	0x5
 656 01ab AD0A0000 		.4byte	0xaad
 657 01af 00       		.byte	0
 658 01b0 06       		.uleb128 0x6
 659 01b1 63747800 		.ascii	"ctx\000"
 660 01b5 09       		.byte	0x9
 661 01b6 BE       		.byte	0xbe
 662 01b7 21       		.byte	0x21
 663 01b8 FE080000 		.4byte	0x8fe
 664 01bc 0C       		.byte	0xc
 665 01bd 01       		.uleb128 0x1
 666 01be 52030000 		.4byte	.LASF33
 667 01c2 09       		.byte	0x9
 668 01c3 C2       		.byte	0xc2
 669 01c4 22       		.byte	0x22
 670 01c5 B20B0000 		.4byte	0xbb2
 671 01c9 10       		.byte	0x10
 672 01ca 01       		.uleb128 0x1
 673 01cb 5F040000 		.4byte	.LASF34
 674 01cf 09       		.byte	0x9
 675 01d0 C8       		.byte	0xc8
 676 01d1 22       		.byte	0x22
 677 01d2 B70B0000 		.4byte	0xbb7
 678 01d6 14       		.byte	0x14
ARM GAS  C:\Users\DEVELO~1\AppData\Local\Temp\ccWjdWXP.s 			page 13


 679 01d7 01       		.uleb128 0x1
 680 01d8 F8040000 		.4byte	.LASF35
 681 01dc 09       		.byte	0x9
 682 01dd CD       		.byte	0xcd
 683 01de 21       		.byte	0x21
 684 01df B70B0000 		.4byte	0xbb7
 685 01e3 18       		.byte	0x18
 686 01e4 01       		.uleb128 0x1
 687 01e5 A9080000 		.4byte	.LASF36
 688 01e9 09       		.byte	0x9
 689 01ea D1       		.byte	0xd1
 690 01eb 21       		.byte	0x21
 691 01ec 36010000 		.4byte	0x136
 692 01f0 1C       		.byte	0x1c
 693 01f1 01       		.uleb128 0x1
 694 01f2 85000000 		.4byte	.LASF37
 695 01f6 09       		.byte	0x9
 696 01f7 D5       		.byte	0xd5
 697 01f8 21       		.byte	0x21
 698 01f9 2A010000 		.4byte	0x12a
 699 01fd 1D       		.byte	0x1d
 700 01fe 01       		.uleb128 0x1
 701 01ff F6000000 		.4byte	.LASF38
 702 0203 09       		.byte	0x9
 703 0204 DA       		.byte	0xda
 704 0205 21       		.byte	0x21
 705 0206 42010000 		.4byte	0x142
 706 020a 1E       		.byte	0x1e
 707 020b 01       		.uleb128 0x1
 708 020c 9A070000 		.4byte	.LASF39
 709 0210 09       		.byte	0x9
 710 0211 DE       		.byte	0xde
 711 0212 22       		.byte	0x22
 712 0213 88030000 		.4byte	0x388
 713 0217 20       		.byte	0x20
 714 0218 01       		.uleb128 0x1
 715 0219 AD040000 		.4byte	.LASF40
 716 021d 09       		.byte	0x9
 717 021e E2       		.byte	0xe2
 718 021f 21       		.byte	0x21
 719 0220 4B090000 		.4byte	0x94b
 720 0224 24       		.byte	0x24
 721 0225 01       		.uleb128 0x1
 722 0226 4F000000 		.4byte	.LASF41
 723 022a 09       		.byte	0x9
 724 022b E8       		.byte	0xe8
 725 022c 21       		.byte	0x21
 726 022d 910A0000 		.4byte	0xa91
 727 0231 2C       		.byte	0x2c
 728 0232 01       		.uleb128 0x1
 729 0233 CC030000 		.4byte	.LASF42
 730 0237 09       		.byte	0x9
 731 0238 EE       		.byte	0xee
 732 0239 22       		.byte	0x22
 733 023a F7030000 		.4byte	0x3f7
 734 023e 30       		.byte	0x30
 735 023f 04       		.uleb128 0x4
ARM GAS  C:\Users\DEVELO~1\AppData\Local\Temp\ccWjdWXP.s 			page 14


 736 0240 7500     		.ascii	"u\000"
 737 0242 09       		.byte	0x9
 738 0243 3F01     		.2byte	0x13f
 739 0245 21       		.byte	0x21
 740 0246 DB0A0000 		.4byte	0xadb
 741 024a 34       		.byte	0x34
 742 024b 03       		.uleb128 0x3
 743 024c 4E080000 		.4byte	.LASF43
 744 0250 09       		.byte	0x9
 745 0251 4401     		.2byte	0x144
 746 0253 21       		.byte	0x21
 747 0254 1F090000 		.4byte	0x91f
 748 0258 38       		.byte	0x38
 749 0259 03       		.uleb128 0x3
 750 025a DA040000 		.4byte	.LASF44
 751 025e 09       		.byte	0x9
 752 025f 4A01     		.2byte	0x14a
 753 0261 21       		.byte	0x21
 754 0262 4B090000 		.4byte	0x94b
 755 0266 3C       		.byte	0x3c
 756 0267 03       		.uleb128 0x3
 757 0268 C5000000 		.4byte	.LASF45
 758 026c 09       		.byte	0x9
 759 026d 5001     		.2byte	0x150
 760 026f 21       		.byte	0x21
 761 0270 66010000 		.4byte	0x166
 762 0274 44       		.byte	0x44
 763 0275 03       		.uleb128 0x3
 764 0276 5E030000 		.4byte	.LASF46
 765 027a 09       		.byte	0x9
 766 027b 5701     		.2byte	0x157
 767 027d 22       		.byte	0x22
 768 027e AD0B0000 		.4byte	0xbad
 769 0282 48       		.byte	0x48
 770 0283 03       		.uleb128 0x3
 771 0284 95000000 		.4byte	.LASF47
 772 0288 09       		.byte	0x9
 773 0289 5B01     		.2byte	0x15b
 774 028b 21       		.byte	0x21
 775 028c 4E010000 		.4byte	0x14e
 776 0290 4C       		.byte	0x4c
 777 0291 00       		.byte	0
 778 0292 02       		.uleb128 0x2
 779 0293 C7080000 		.4byte	.LASF48
 780 0297 08       		.byte	0x8
 781 0298 8A       		.byte	0x8a
 782 0299 1F       		.byte	0x1f
 783 029a 9E020000 		.4byte	0x29e
 784 029e 23       		.uleb128 0x23
 785 029f F3030000 		.4byte	.LASF50
 786 02a3 F008     		.2byte	0x8f0
 787 02a5 09       		.byte	0x9
 788 02a6 9701     		.2byte	0x197
 789 02a8 08       		.byte	0x8
 790 02a9 3A030000 		.4byte	0x33a
 791 02ad 03       		.uleb128 0x3
 792 02ae 63070000 		.4byte	.LASF51
ARM GAS  C:\Users\DEVELO~1\AppData\Local\Temp\ccWjdWXP.s 			page 15


 793 02b2 09       		.byte	0x9
 794 02b3 9B01     		.2byte	0x19b
 795 02b5 21       		.byte	0x21
 796 02b6 E70B0000 		.4byte	0xbe7
 797 02ba 00       		.byte	0
 798 02bb 03       		.uleb128 0x3
 799 02bc 0D010000 		.4byte	.LASF52
 800 02c0 09       		.byte	0x9
 801 02c1 9F01     		.2byte	0x19f
 802 02c3 21       		.byte	0x21
 803 02c4 520A0000 		.4byte	0xa52
 804 02c8 10       		.byte	0x10
 805 02c9 03       		.uleb128 0x3
 806 02ca DE080000 		.4byte	.LASF53
 807 02ce 09       		.byte	0x9
 808 02cf A601     		.2byte	0x1a6
 809 02d1 21       		.byte	0x21
 810 02d2 790A0000 		.4byte	0xa79
 811 02d6 30       		.byte	0x30
 812 02d7 03       		.uleb128 0x3
 813 02d8 E9000000 		.4byte	.LASF54
 814 02dc 09       		.byte	0x9
 815 02dd AB01     		.2byte	0x1ab
 816 02df 21       		.byte	0x21
 817 02e0 7E010000 		.4byte	0x17e
 818 02e4 38       		.byte	0x38
 819 02e5 03       		.uleb128 0x3
 820 02e6 7D030000 		.4byte	.LASF55
 821 02ea 09       		.byte	0x9
 822 02eb B101     		.2byte	0x1b1
 823 02ed 21       		.byte	0x21
 824 02ee 61030000 		.4byte	0x361
 825 02f2 3C       		.byte	0x3c
 826 02f3 03       		.uleb128 0x3
 827 02f4 91060000 		.4byte	.LASF56
 828 02f8 09       		.byte	0x9
 829 02f9 B601     		.2byte	0x1b6
 830 02fb 22       		.byte	0x22
 831 02fc 5B0C0000 		.4byte	0xc5b
 832 0300 40       		.byte	0x40
 833 0301 03       		.uleb128 0x3
 834 0302 40060000 		.4byte	.LASF57
 835 0306 09       		.byte	0x9
 836 0307 BA01     		.2byte	0x1ba
 837 0309 21       		.byte	0x21
 838 030a 8A010000 		.4byte	0x18a
 839 030e 44       		.byte	0x44
 840 030f 03       		.uleb128 0x3
 841 0310 9E080000 		.4byte	.LASF58
 842 0314 09       		.byte	0x9
 843 0315 BF01     		.2byte	0x1bf
 844 0317 21       		.byte	0x21
 845 0318 8A010000 		.4byte	0x18a
 846 031c 94       		.byte	0x94
 847 031d 04       		.uleb128 0x4
 848 031e 64626700 		.ascii	"dbg\000"
 849 0322 09       		.byte	0x9
ARM GAS  C:\Users\DEVELO~1\AppData\Local\Temp\ccWjdWXP.s 			page 16


 850 0323 C401     		.2byte	0x1c4
 851 0325 21       		.byte	0x21
 852 0326 9E030000 		.4byte	0x39e
 853 032a E4       		.byte	0xe4
 854 032b 03       		.uleb128 0x3
 855 032c F1070000 		.4byte	.LASF59
 856 0330 09       		.byte	0x9
 857 0331 C901     		.2byte	0x1c9
 858 0333 21       		.byte	0x21
 859 0334 59050000 		.4byte	0x559
 860 0338 E8       		.byte	0xe8
 861 0339 00       		.byte	0
 862 033a 02       		.uleb128 0x2
 863 033b 33040000 		.4byte	.LASF60
 864 033f 0A       		.byte	0xa
 865 0340 3F       		.byte	0x3f
 866 0341 12       		.byte	0x12
 867 0342 D1000000 		.4byte	0xd1
 868 0346 09       		.uleb128 0x9
 869 0347 D3030000 		.4byte	.LASF61
 870 034b 04       		.byte	0x4
 871 034c 0A       		.byte	0xa
 872 034d 44       		.byte	0x44
 873 034e 10       		.byte	0x10
 874 034f 61030000 		.4byte	0x361
 875 0353 01       		.uleb128 0x1
 876 0354 AB050000 		.4byte	.LASF62
 877 0358 0A       		.byte	0xa
 878 0359 48       		.byte	0x48
 879 035a 21       		.byte	0x21
 880 035b 3A030000 		.4byte	0x33a
 881 035f 00       		.byte	0
 882 0360 00       		.byte	0
 883 0361 02       		.uleb128 0x2
 884 0362 E4070000 		.4byte	.LASF63
 885 0366 0A       		.byte	0xa
 886 0367 49       		.byte	0x49
 887 0368 03       		.byte	0x3
 888 0369 46030000 		.4byte	0x346
 889 036d 09       		.uleb128 0x9
 890 036e 6F010000 		.4byte	.LASF64
 891 0372 04       		.byte	0x4
 892 0373 0B       		.byte	0xb
 893 0374 3E       		.byte	0x3e
 894 0375 10       		.byte	0x10
 895 0376 88030000 		.4byte	0x388
 896 037a 01       		.uleb128 0x1
 897 037b 6C080000 		.4byte	.LASF65
 898 037f 0B       		.byte	0xb
 899 0380 46       		.byte	0x46
 900 0381 24       		.byte	0x24
 901 0382 8D030000 		.4byte	0x38d
 902 0386 00       		.byte	0
 903 0387 00       		.byte	0
 904 0388 05       		.uleb128 0x5
 905 0389 99030000 		.4byte	0x399
 906 038d 10       		.uleb128 0x10
ARM GAS  C:\Users\DEVELO~1\AppData\Local\Temp\ccWjdWXP.s 			page 17


 907 038e 88030000 		.4byte	0x388
 908 0392 0A       		.uleb128 0xa
 909 0393 01       		.byte	0x1
 910 0394 08       		.byte	0x8
 911 0395 1E040000 		.4byte	.LASF66
 912 0399 12       		.uleb128 0x12
 913 039a 92030000 		.4byte	0x392
 914 039e 02       		.uleb128 0x2
 915 039f FE040000 		.4byte	.LASF67
 916 03a3 0B       		.byte	0xb
 917 03a4 51       		.byte	0x51
 918 03a5 03       		.byte	0x3
 919 03a6 6D030000 		.4byte	0x36d
 920 03aa 02       		.uleb128 0x2
 921 03ab 8B000000 		.4byte	.LASF68
 922 03af 0C       		.byte	0xc
 923 03b0 6D       		.byte	0x6d
 924 03b1 12       		.byte	0x12
 925 03b2 D1000000 		.4byte	0xd1
 926 03b6 02       		.uleb128 0x2
 927 03b7 E2050000 		.4byte	.LASF69
 928 03bb 0C       		.byte	0xc
 929 03bc 79       		.byte	0x79
 930 03bd 12       		.byte	0x12
 931 03be D1000000 		.4byte	0xd1
 932 03c2 02       		.uleb128 0x2
 933 03c3 49040000 		.4byte	.LASF70
 934 03c7 0C       		.byte	0xc
 935 03c8 9B       		.byte	0x9b
 936 03c9 12       		.byte	0x12
 937 03ca E2000000 		.4byte	0xe2
 938 03ce 0B       		.uleb128 0xb
 939 03cf 08       		.byte	0x8
 940 03d0 0D       		.byte	0xd
 941 03d1 83       		.byte	0x83
 942 03d2 05       		.byte	0x5
 943 03d3 F2030000 		.4byte	0x3f2
 944 03d7 06       		.uleb128 0x6
 945 03d8 6E747000 		.ascii	"ntp\000"
 946 03dc 0D       		.byte	0xd
 947 03dd 87       		.byte	0x87
 948 03de 1E       		.byte	0x1e
 949 03df F2030000 		.4byte	0x3f2
 950 03e3 00       		.byte	0
 951 03e4 01       		.uleb128 0x1
 952 03e5 5C010000 		.4byte	.LASF71
 953 03e9 0D       		.byte	0xd
 954 03ea 8B       		.byte	0x8b
 955 03eb 1E       		.byte	0x1e
 956 03ec F7030000 		.4byte	0x3f7
 957 03f0 04       		.byte	0x4
 958 03f1 00       		.byte	0
 959 03f2 05       		.uleb128 0x5
 960 03f3 8A010000 		.4byte	0x18a
 961 03f7 24       		.uleb128 0x24
 962 03f8 04       		.byte	0x4
 963 03f9 0B       		.uleb128 0xb
ARM GAS  C:\Users\DEVELO~1\AppData\Local\Temp\ccWjdWXP.s 			page 18


 964 03fa 08       		.byte	0x8
 965 03fb 0D       		.byte	0xd
 966 03fc 90       		.byte	0x90
 967 03fd 05       		.byte	0x5
 968 03fe 1C040000 		.4byte	0x41c
 969 0402 06       		.uleb128 0x6
 970 0403 747000   		.ascii	"tp\000"
 971 0406 0D       		.byte	0xd
 972 0407 94       		.byte	0x94
 973 0408 1E       		.byte	0x1e
 974 0409 F2030000 		.4byte	0x3f2
 975 040d 00       		.byte	0
 976 040e 06       		.uleb128 0x6
 977 040f 6D736700 		.ascii	"msg\000"
 978 0413 0D       		.byte	0xd
 979 0414 98       		.byte	0x98
 980 0415 1D       		.byte	0x1d
 981 0416 5A010000 		.4byte	0x15a
 982 041a 04       		.byte	0x4
 983 041b 00       		.byte	0
 984 041c 0B       		.uleb128 0xb
 985 041d 04       		.byte	0x4
 986 041e 0D       		.byte	0xd
 987 041f 9D       		.byte	0x9d
 988 0420 05       		.byte	0x5
 989 0421 33040000 		.4byte	0x433
 990 0425 01       		.uleb128 0x1
 991 0426 9A070000 		.4byte	.LASF39
 992 042a 0D       		.byte	0xd
 993 042b A1       		.byte	0xa1
 994 042c 1E       		.byte	0x1e
 995 042d 88030000 		.4byte	0x388
 996 0431 00       		.byte	0
 997 0432 00       		.byte	0
 998 0433 0B       		.uleb128 0xb
 999 0434 04       		.byte	0x4
 1000 0435 0D       		.byte	0xd
 1001 0436 A6       		.byte	0xa6
 1002 0437 05       		.byte	0x5
 1003 0438 4A040000 		.4byte	0x44a
 1004 043c 01       		.uleb128 0x1
 1005 043d CE020000 		.4byte	.LASF72
 1006 0441 0D       		.byte	0xd
 1007 0442 AA       		.byte	0xaa
 1008 0443 1E       		.byte	0x1e
 1009 0444 88030000 		.4byte	0x388
 1010 0448 00       		.byte	0
 1011 0449 00       		.byte	0
 1012 044a 0B       		.uleb128 0xb
 1013 044b 08       		.byte	0x8
 1014 044c 0D       		.byte	0xd
 1015 044d AF       		.byte	0xaf
 1016 044e 05       		.byte	0x5
 1017 044f 6E040000 		.4byte	0x46e
 1018 0453 06       		.uleb128 0x6
 1019 0454 75703100 		.ascii	"up1\000"
 1020 0458 0D       		.byte	0xd
ARM GAS  C:\Users\DEVELO~1\AppData\Local\Temp\ccWjdWXP.s 			page 19


 1021 0459 B3       		.byte	0xb3
 1022 045a 1E       		.byte	0x1e
 1023 045b F7030000 		.4byte	0x3f7
 1024 045f 00       		.byte	0
 1025 0460 06       		.uleb128 0x6
 1026 0461 75703200 		.ascii	"up2\000"
 1027 0465 0D       		.byte	0xd
 1028 0466 B7       		.byte	0xb7
 1029 0467 1E       		.byte	0x1e
 1030 0468 F7030000 		.4byte	0x3f7
 1031 046c 04       		.byte	0x4
 1032 046d 00       		.byte	0
 1033 046e 13       		.uleb128 0x13
 1034 046f 08       		.byte	0x8
 1035 0470 0D       		.byte	0xd
 1036 0471 7F       		.byte	0x7f
 1037 0472 03       		.byte	0x3
 1038 0473 B3040000 		.4byte	0x4b3
 1039 0477 0E       		.uleb128 0xe
 1040 0478 737700   		.ascii	"sw\000"
 1041 047b 0D       		.byte	0xd
 1042 047c 8C       		.byte	0x8c
 1043 047d 07       		.byte	0x7
 1044 047e CE030000 		.4byte	0x3ce
 1045 0482 0E       		.uleb128 0xe
 1046 0483 72647900 		.ascii	"rdy\000"
 1047 0487 0D       		.byte	0xd
 1048 0488 99       		.byte	0x99
 1049 0489 07       		.byte	0x7
 1050 048a F9030000 		.4byte	0x3f9
 1051 048e 0E       		.uleb128 0xe
 1052 048f 69737200 		.ascii	"isr\000"
 1053 0493 0D       		.byte	0xd
 1054 0494 A2       		.byte	0xa2
 1055 0495 07       		.byte	0x7
 1056 0496 1C040000 		.4byte	0x41c
 1057 049a 0F       		.uleb128 0xf
 1058 049b B2020000 		.4byte	.LASF73
 1059 049f 0D       		.byte	0xd
 1060 04a0 AB       		.byte	0xab
 1061 04a1 07       		.byte	0x7
 1062 04a2 33040000 		.4byte	0x433
 1063 04a6 0F       		.uleb128 0xf
 1064 04a7 94030000 		.4byte	.LASF74
 1065 04ab 0D       		.byte	0xd
 1066 04ac B8       		.byte	0xb8
 1067 04ad 07       		.byte	0x7
 1068 04ae 4A040000 		.4byte	0x44a
 1069 04b2 00       		.byte	0
 1070 04b3 0B       		.uleb128 0xb
 1071 04b4 10       		.byte	0x10
 1072 04b5 0D       		.byte	0xd
 1073 04b6 6C       		.byte	0x6c
 1074 04b7 09       		.byte	0x9
 1075 04b8 F9040000 		.4byte	0x4f9
 1076 04bc 19       		.uleb128 0x19
 1077 04bd 2B080000 		.4byte	.LASF75
ARM GAS  C:\Users\DEVELO~1\AppData\Local\Temp\ccWjdWXP.s 			page 20


 1078 04c1 70       		.byte	0x70
 1079 04c2 D1000000 		.4byte	0xd1
 1080 04c6 03       		.byte	0x3
 1081 04c7 00       		.byte	0
 1082 04c8 19       		.uleb128 0x19
 1083 04c9 A9080000 		.4byte	.LASF36
 1084 04cd 74       		.byte	0x74
 1085 04ce D1000000 		.4byte	0xd1
 1086 04d2 05       		.byte	0x5
 1087 04d3 03       		.byte	0x3
 1088 04d4 19       		.uleb128 0x19
 1089 04d5 CB070000 		.4byte	.LASF76
 1090 04d9 7A       		.byte	0x7a
 1091 04da D1000000 		.4byte	0xd1
 1092 04de 18       		.byte	0x18
 1093 04df 08       		.byte	0x8
 1094 04e0 01       		.uleb128 0x1
 1095 04e1 3B030000 		.4byte	.LASF77
 1096 04e5 0D       		.byte	0xd
 1097 04e6 7E       		.byte	0x7e
 1098 04e7 19       		.byte	0x19
 1099 04e8 AA030000 		.4byte	0x3aa
 1100 04ec 04       		.byte	0x4
 1101 04ed 06       		.uleb128 0x6
 1102 04ee 7500     		.ascii	"u\000"
 1103 04f0 0D       		.byte	0xd
 1104 04f1 B9       		.byte	0xb9
 1105 04f2 05       		.byte	0x5
 1106 04f3 6E040000 		.4byte	0x46e
 1107 04f7 08       		.byte	0x8
 1108 04f8 00       		.byte	0
 1109 04f9 02       		.uleb128 0x2
 1110 04fa 60020000 		.4byte	.LASF78
 1111 04fe 0D       		.byte	0xd
 1112 04ff BA       		.byte	0xba
 1113 0500 03       		.byte	0x3
 1114 0501 B3040000 		.4byte	0x4b3
 1115 0505 25       		.uleb128 0x25
 1116 0506 0808     		.2byte	0x808
 1117 0508 0D       		.byte	0xd
 1118 0509 C0       		.byte	0xc0
 1119 050a 09       		.byte	0x9
 1120 050b 44050000 		.4byte	0x544
 1121 050f 01       		.uleb128 0x1
 1122 0510 A5000000 		.4byte	.LASF79
 1123 0514 0D       		.byte	0xd
 1124 0515 C4       		.byte	0xc4
 1125 0516 19       		.byte	0x19
 1126 0517 B9000000 		.4byte	0xb9
 1127 051b 00       		.byte	0
 1128 051c 01       		.uleb128 0x1
 1129 051d 98050000 		.4byte	.LASF80
 1130 0521 0D       		.byte	0xd
 1131 0522 C8       		.byte	0xc8
 1132 0523 19       		.byte	0x19
 1133 0524 B9000000 		.4byte	0xb9
 1134 0528 02       		.byte	0x2
ARM GAS  C:\Users\DEVELO~1\AppData\Local\Temp\ccWjdWXP.s 			page 21


 1135 0529 06       		.uleb128 0x6
 1136 052a 70747200 		.ascii	"ptr\000"
 1137 052e 0D       		.byte	0xd
 1138 052f CC       		.byte	0xcc
 1139 0530 1A       		.byte	0x1a
 1140 0531 44050000 		.4byte	0x544
 1141 0535 04       		.byte	0x4
 1142 0536 01       		.uleb128 0x1
 1143 0537 9E000000 		.4byte	.LASF81
 1144 053b 0D       		.byte	0xd
 1145 053c D0       		.byte	0xd0
 1146 053d 19       		.byte	0x19
 1147 053e 49050000 		.4byte	0x549
 1148 0542 08       		.byte	0x8
 1149 0543 00       		.byte	0
 1150 0544 05       		.uleb128 0x5
 1151 0545 F9040000 		.4byte	0x4f9
 1152 0549 14       		.uleb128 0x14
 1153 054a F9040000 		.4byte	0x4f9
 1154 054e 59050000 		.4byte	0x559
 1155 0552 15       		.uleb128 0x15
 1156 0553 A1000000 		.4byte	0xa1
 1157 0557 7F       		.byte	0x7f
 1158 0558 00       		.byte	0
 1159 0559 02       		.uleb128 0x2
 1160 055a 1C060000 		.4byte	.LASF82
 1161 055e 0D       		.byte	0xd
 1162 055f D1       		.byte	0xd1
 1163 0560 03       		.byte	0x3
 1164 0561 05050000 		.4byte	0x505
 1165 0565 11       		.uleb128 0x11
 1166 0566 18       		.byte	0x18
 1167 0567 0E       		.byte	0xe
 1168 0568 3002     		.2byte	0x230
 1169 056a C2050000 		.4byte	0x5c2
 1170 056e 04       		.uleb128 0x4
 1171 056f 435200   		.ascii	"CR\000"
 1172 0572 0E       		.byte	0xe
 1173 0573 3202     		.2byte	0x232
 1174 0575 11       		.byte	0x11
 1175 0576 DD000000 		.4byte	0xdd
 1176 057a 00       		.byte	0
 1177 057b 03       		.uleb128 0x3
 1178 057c 2F010000 		.4byte	.LASF83
 1179 0580 0E       		.byte	0xe
 1180 0581 3302     		.2byte	0x233
 1181 0583 11       		.byte	0x11
 1182 0584 DD000000 		.4byte	0xdd
 1183 0588 04       		.byte	0x4
 1184 0589 04       		.uleb128 0x4
 1185 058a 50415200 		.ascii	"PAR\000"
 1186 058e 0E       		.byte	0xe
 1187 058f 3402     		.2byte	0x234
 1188 0591 11       		.byte	0x11
 1189 0592 DD000000 		.4byte	0xdd
 1190 0596 08       		.byte	0x8
 1191 0597 03       		.uleb128 0x3
ARM GAS  C:\Users\DEVELO~1\AppData\Local\Temp\ccWjdWXP.s 			page 22


 1192 0598 EE030000 		.4byte	.LASF84
 1193 059c 0E       		.byte	0xe
 1194 059d 3502     		.2byte	0x235
 1195 059f 11       		.byte	0x11
 1196 05a0 DD000000 		.4byte	0xdd
 1197 05a4 0C       		.byte	0xc
 1198 05a5 03       		.uleb128 0x3
 1199 05a6 9F070000 		.4byte	.LASF85
 1200 05aa 0E       		.byte	0xe
 1201 05ab 3602     		.2byte	0x236
 1202 05ad 11       		.byte	0x11
 1203 05ae DD000000 		.4byte	0xdd
 1204 05b2 10       		.byte	0x10
 1205 05b3 04       		.uleb128 0x4
 1206 05b4 46435200 		.ascii	"FCR\000"
 1207 05b8 0E       		.byte	0xe
 1208 05b9 3702     		.2byte	0x237
 1209 05bb 11       		.byte	0x11
 1210 05bc DD000000 		.4byte	0xdd
 1211 05c0 14       		.byte	0x14
 1212 05c1 00       		.byte	0
 1213 05c2 0C       		.uleb128 0xc
 1214 05c3 85050000 		.4byte	.LASF86
 1215 05c7 0E       		.byte	0xe
 1216 05c8 3802     		.2byte	0x238
 1217 05ca 03       		.byte	0x3
 1218 05cb 65050000 		.4byte	0x565
 1219 05cf 11       		.uleb128 0x11
 1220 05d0 14       		.byte	0x14
 1221 05d1 0E       		.byte	0xe
 1222 05d2 4202     		.2byte	0x242
 1223 05d4 1F060000 		.4byte	0x61f
 1224 05d8 04       		.uleb128 0x4
 1225 05d9 43435200 		.ascii	"CCR\000"
 1226 05dd 0E       		.byte	0xe
 1227 05de 4402     		.2byte	0x244
 1228 05e0 11       		.byte	0x11
 1229 05e1 DD000000 		.4byte	0xdd
 1230 05e5 00       		.byte	0
 1231 05e6 03       		.uleb128 0x3
 1232 05e7 69010000 		.4byte	.LASF87
 1233 05eb 0E       		.byte	0xe
 1234 05ec 4502     		.2byte	0x245
 1235 05ee 11       		.byte	0x11
 1236 05ef DD000000 		.4byte	0xdd
 1237 05f3 04       		.byte	0x4
 1238 05f4 03       		.uleb128 0x3
 1239 05f5 F1000000 		.4byte	.LASF88
 1240 05f9 0E       		.byte	0xe
 1241 05fa 4602     		.2byte	0x246
 1242 05fc 11       		.byte	0x11
 1243 05fd DD000000 		.4byte	0xdd
 1244 0601 08       		.byte	0x8
 1245 0602 03       		.uleb128 0x3
 1246 0603 01090000 		.4byte	.LASF89
 1247 0607 0E       		.byte	0xe
 1248 0608 4702     		.2byte	0x247
ARM GAS  C:\Users\DEVELO~1\AppData\Local\Temp\ccWjdWXP.s 			page 23


 1249 060a 11       		.byte	0x11
 1250 060b DD000000 		.4byte	0xdd
 1251 060f 0C       		.byte	0xc
 1252 0610 03       		.uleb128 0x3
 1253 0611 4B070000 		.4byte	.LASF90
 1254 0615 0E       		.byte	0xe
 1255 0616 4802     		.2byte	0x248
 1256 0618 11       		.byte	0x11
 1257 0619 DD000000 		.4byte	0xdd
 1258 061d 10       		.byte	0x10
 1259 061e 00       		.byte	0
 1260 061f 0C       		.uleb128 0xc
 1261 0620 65050000 		.4byte	.LASF91
 1262 0624 0E       		.byte	0xe
 1263 0625 4902     		.2byte	0x249
 1264 0627 03       		.byte	0x3
 1265 0628 CF050000 		.4byte	0x5cf
 1266 062c 11       		.uleb128 0x11
 1267 062d 08       		.byte	0x8
 1268 062e 0E       		.byte	0xe
 1269 062f 4B02     		.2byte	0x24b
 1270 0631 52060000 		.4byte	0x652
 1271 0635 04       		.uleb128 0x4
 1272 0636 49535200 		.ascii	"ISR\000"
 1273 063a 0E       		.byte	0xe
 1274 063b 4D02     		.2byte	0x24d
 1275 063d 11       		.byte	0x11
 1276 063e DD000000 		.4byte	0xdd
 1277 0642 00       		.byte	0
 1278 0643 03       		.uleb128 0x3
 1279 0644 1A090000 		.4byte	.LASF92
 1280 0648 0E       		.byte	0xe
 1281 0649 4E02     		.2byte	0x24e
 1282 064b 11       		.byte	0x11
 1283 064c DD000000 		.4byte	0xdd
 1284 0650 04       		.byte	0x4
 1285 0651 00       		.byte	0
 1286 0652 0C       		.uleb128 0xc
 1287 0653 15000000 		.4byte	.LASF93
 1288 0657 0E       		.byte	0xe
 1289 0658 4F02     		.2byte	0x24f
 1290 065a 03       		.byte	0x3
 1291 065b 2C060000 		.4byte	0x62c
 1292 065f 11       		.uleb128 0x11
 1293 0660 04       		.byte	0x4
 1294 0661 0E       		.byte	0xe
 1295 0662 5102     		.2byte	0x251
 1296 0664 77060000 		.4byte	0x677
 1297 0668 04       		.uleb128 0x4
 1298 0669 43435200 		.ascii	"CCR\000"
 1299 066d 0E       		.byte	0xe
 1300 066e 5302     		.2byte	0x253
 1301 0670 12       		.byte	0x12
 1302 0671 DD000000 		.4byte	0xdd
 1303 0675 00       		.byte	0
 1304 0676 00       		.byte	0
 1305 0677 0C       		.uleb128 0xc
ARM GAS  C:\Users\DEVELO~1\AppData\Local\Temp\ccWjdWXP.s 			page 24


 1306 0678 A0060000 		.4byte	.LASF94
 1307 067c 0E       		.byte	0xe
 1308 067d 5402     		.2byte	0x254
 1309 067f 02       		.byte	0x2
 1310 0680 5F060000 		.4byte	0x65f
 1311 0684 14       		.uleb128 0x14
 1312 0685 D1000000 		.4byte	0xd1
 1313 0689 94060000 		.4byte	0x694
 1314 068d 15       		.uleb128 0x15
 1315 068e A1000000 		.4byte	0xa1
 1316 0692 02       		.byte	0x2
 1317 0693 00       		.byte	0
 1318 0694 11       		.uleb128 0x11
 1319 0695 54       		.byte	0x54
 1320 0696 0E       		.byte	0xe
 1321 0697 C405     		.2byte	0x5c4
 1322 0699 8B070000 		.4byte	0x78b
 1323 069d 04       		.uleb128 0x4
 1324 069e 43523100 		.ascii	"CR1\000"
 1325 06a2 0E       		.byte	0xe
 1326 06a3 C605     		.2byte	0x5c6
 1327 06a5 11       		.byte	0x11
 1328 06a6 DD000000 		.4byte	0xdd
 1329 06aa 00       		.byte	0
 1330 06ab 04       		.uleb128 0x4
 1331 06ac 43523200 		.ascii	"CR2\000"
 1332 06b0 0E       		.byte	0xe
 1333 06b1 C705     		.2byte	0x5c7
 1334 06b3 11       		.byte	0x11
 1335 06b4 DD000000 		.4byte	0xdd
 1336 06b8 04       		.byte	0x4
 1337 06b9 03       		.uleb128 0x3
 1338 06ba FE060000 		.4byte	.LASF95
 1339 06be 0E       		.byte	0xe
 1340 06bf C805     		.2byte	0x5c8
 1341 06c1 11       		.byte	0x11
 1342 06c2 DD000000 		.4byte	0xdd
 1343 06c6 08       		.byte	0x8
 1344 06c7 03       		.uleb128 0x3
 1345 06c8 03070000 		.4byte	.LASF96
 1346 06cc 0E       		.byte	0xe
 1347 06cd C905     		.2byte	0x5c9
 1348 06cf 11       		.byte	0x11
 1349 06d0 DD000000 		.4byte	0xdd
 1350 06d4 0C       		.byte	0xc
 1351 06d5 04       		.uleb128 0x4
 1352 06d6 49455200 		.ascii	"IER\000"
 1353 06da 0E       		.byte	0xe
 1354 06db CA05     		.2byte	0x5ca
 1355 06dd 11       		.byte	0x11
 1356 06de DD000000 		.4byte	0xdd
 1357 06e2 10       		.byte	0x10
 1358 06e3 04       		.uleb128 0x4
 1359 06e4 535200   		.ascii	"SR\000"
 1360 06e7 0E       		.byte	0xe
 1361 06e8 CB05     		.2byte	0x5cb
 1362 06ea 11       		.byte	0x11
ARM GAS  C:\Users\DEVELO~1\AppData\Local\Temp\ccWjdWXP.s 			page 25


 1363 06eb DD000000 		.4byte	0xdd
 1364 06ef 14       		.byte	0x14
 1365 06f0 03       		.uleb128 0x3
 1366 06f1 1A090000 		.4byte	.LASF92
 1367 06f5 0E       		.byte	0xe
 1368 06f6 CC05     		.2byte	0x5cc
 1369 06f8 11       		.byte	0x11
 1370 06f9 DD000000 		.4byte	0xdd
 1371 06fd 18       		.byte	0x18
 1372 06fe 03       		.uleb128 0x3
 1373 06ff B7060000 		.4byte	.LASF97
 1374 0703 0E       		.byte	0xe
 1375 0704 CD05     		.2byte	0x5cd
 1376 0706 11       		.byte	0x11
 1377 0707 D1000000 		.4byte	0xd1
 1378 070b 1C       		.byte	0x1c
 1379 070c 03       		.uleb128 0x3
 1380 070d F3040000 		.4byte	.LASF98
 1381 0711 0E       		.byte	0xe
 1382 0712 CE05     		.2byte	0x5ce
 1383 0714 11       		.byte	0x11
 1384 0715 DD000000 		.4byte	0xdd
 1385 0719 20       		.byte	0x20
 1386 071a 03       		.uleb128 0x3
 1387 071b C1060000 		.4byte	.LASF99
 1388 071f 0E       		.byte	0xe
 1389 0720 CF05     		.2byte	0x5cf
 1390 0722 11       		.byte	0x11
 1391 0723 84060000 		.4byte	0x684
 1392 0727 24       		.byte	0x24
 1393 0728 03       		.uleb128 0x3
 1394 0729 A7030000 		.4byte	.LASF100
 1395 072d 0E       		.byte	0xe
 1396 072e D005     		.2byte	0x5d0
 1397 0730 11       		.byte	0x11
 1398 0731 DD000000 		.4byte	0xdd
 1399 0735 30       		.byte	0x30
 1400 0736 03       		.uleb128 0x3
 1401 0737 CB060000 		.4byte	.LASF101
 1402 073b 0E       		.byte	0xe
 1403 073c D105     		.2byte	0x5d1
 1404 073e 11       		.byte	0x11
 1405 073f 84060000 		.4byte	0x684
 1406 0743 34       		.byte	0x34
 1407 0744 03       		.uleb128 0x3
 1408 0745 F6060000 		.4byte	.LASF102
 1409 0749 0E       		.byte	0xe
 1410 074a D205     		.2byte	0x5d2
 1411 074c 11       		.byte	0x11
 1412 074d DD000000 		.4byte	0xdd
 1413 0751 40       		.byte	0x40
 1414 0752 03       		.uleb128 0x3
 1415 0753 E3040000 		.4byte	.LASF103
 1416 0757 0E       		.byte	0xe
 1417 0758 D305     		.2byte	0x5d3
 1418 075a 11       		.byte	0x11
 1419 075b DD000000 		.4byte	0xdd
ARM GAS  C:\Users\DEVELO~1\AppData\Local\Temp\ccWjdWXP.s 			page 26


 1420 075f 44       		.byte	0x44
 1421 0760 03       		.uleb128 0x3
 1422 0761 63010000 		.4byte	.LASF104
 1423 0765 0E       		.byte	0xe
 1424 0766 D405     		.2byte	0x5d4
 1425 0768 11       		.byte	0x11
 1426 0769 DD000000 		.4byte	0xdd
 1427 076d 48       		.byte	0x48
 1428 076e 03       		.uleb128 0x3
 1429 076f 17070000 		.4byte	.LASF105
 1430 0773 0E       		.byte	0xe
 1431 0774 D505     		.2byte	0x5d5
 1432 0776 11       		.byte	0x11
 1433 0777 DD000000 		.4byte	0xdd
 1434 077b 4C       		.byte	0x4c
 1435 077c 03       		.uleb128 0x3
 1436 077d 96080000 		.4byte	.LASF106
 1437 0781 0E       		.byte	0xe
 1438 0782 D605     		.2byte	0x5d6
 1439 0784 11       		.byte	0x11
 1440 0785 DD000000 		.4byte	0xdd
 1441 0789 50       		.byte	0x50
 1442 078a 00       		.byte	0
 1443 078b 0C       		.uleb128 0xc
 1444 078c BB080000 		.4byte	.LASF107
 1445 0790 0E       		.byte	0xe
 1446 0791 D805     		.2byte	0x5d8
 1447 0793 03       		.byte	0x3
 1448 0794 94060000 		.4byte	0x694
 1449 0798 18       		.uleb128 0x18
 1450 0799 DF060000 		.4byte	.LASF108
 1451 079d 64       		.byte	0x64
 1452 079e 0F       		.byte	0xf
 1453 079f 3F02     		.2byte	0x23f
 1454 07a1 08       		.byte	0x8
 1455 07a2 FE080000 		.4byte	0x8fe
 1456 07a6 04       		.uleb128 0x4
 1457 07a7 73313600 		.ascii	"s16\000"
 1458 07ab 0F       		.byte	0xf
 1459 07ac 4102     		.2byte	0x241
 1460 07ae 11       		.byte	0x11
 1461 07af D1000000 		.4byte	0xd1
 1462 07b3 00       		.byte	0
 1463 07b4 04       		.uleb128 0x4
 1464 07b5 73313700 		.ascii	"s17\000"
 1465 07b9 0F       		.byte	0xf
 1466 07ba 4202     		.2byte	0x242
 1467 07bc 11       		.byte	0x11
 1468 07bd D1000000 		.4byte	0xd1
 1469 07c1 04       		.byte	0x4
 1470 07c2 04       		.uleb128 0x4
 1471 07c3 73313800 		.ascii	"s18\000"
 1472 07c7 0F       		.byte	0xf
 1473 07c8 4302     		.2byte	0x243
 1474 07ca 11       		.byte	0x11
 1475 07cb D1000000 		.4byte	0xd1
 1476 07cf 08       		.byte	0x8
ARM GAS  C:\Users\DEVELO~1\AppData\Local\Temp\ccWjdWXP.s 			page 27


 1477 07d0 04       		.uleb128 0x4
 1478 07d1 73313900 		.ascii	"s19\000"
 1479 07d5 0F       		.byte	0xf
 1480 07d6 4402     		.2byte	0x244
 1481 07d8 11       		.byte	0x11
 1482 07d9 D1000000 		.4byte	0xd1
 1483 07dd 0C       		.byte	0xc
 1484 07de 04       		.uleb128 0x4
 1485 07df 73323000 		.ascii	"s20\000"
 1486 07e3 0F       		.byte	0xf
 1487 07e4 4502     		.2byte	0x245
 1488 07e6 11       		.byte	0x11
 1489 07e7 D1000000 		.4byte	0xd1
 1490 07eb 10       		.byte	0x10
 1491 07ec 04       		.uleb128 0x4
 1492 07ed 73323100 		.ascii	"s21\000"
 1493 07f1 0F       		.byte	0xf
 1494 07f2 4602     		.2byte	0x246
 1495 07f4 11       		.byte	0x11
 1496 07f5 D1000000 		.4byte	0xd1
 1497 07f9 14       		.byte	0x14
 1498 07fa 04       		.uleb128 0x4
 1499 07fb 73323200 		.ascii	"s22\000"
 1500 07ff 0F       		.byte	0xf
 1501 0800 4702     		.2byte	0x247
 1502 0802 11       		.byte	0x11
 1503 0803 D1000000 		.4byte	0xd1
 1504 0807 18       		.byte	0x18
 1505 0808 04       		.uleb128 0x4
 1506 0809 73323300 		.ascii	"s23\000"
 1507 080d 0F       		.byte	0xf
 1508 080e 4802     		.2byte	0x248
 1509 0810 11       		.byte	0x11
 1510 0811 D1000000 		.4byte	0xd1
 1511 0815 1C       		.byte	0x1c
 1512 0816 04       		.uleb128 0x4
 1513 0817 73323400 		.ascii	"s24\000"
 1514 081b 0F       		.byte	0xf
 1515 081c 4902     		.2byte	0x249
 1516 081e 11       		.byte	0x11
 1517 081f D1000000 		.4byte	0xd1
 1518 0823 20       		.byte	0x20
 1519 0824 04       		.uleb128 0x4
 1520 0825 73323500 		.ascii	"s25\000"
 1521 0829 0F       		.byte	0xf
 1522 082a 4A02     		.2byte	0x24a
 1523 082c 11       		.byte	0x11
 1524 082d D1000000 		.4byte	0xd1
 1525 0831 24       		.byte	0x24
 1526 0832 04       		.uleb128 0x4
 1527 0833 73323600 		.ascii	"s26\000"
 1528 0837 0F       		.byte	0xf
 1529 0838 4B02     		.2byte	0x24b
 1530 083a 11       		.byte	0x11
 1531 083b D1000000 		.4byte	0xd1
 1532 083f 28       		.byte	0x28
 1533 0840 04       		.uleb128 0x4
ARM GAS  C:\Users\DEVELO~1\AppData\Local\Temp\ccWjdWXP.s 			page 28


 1534 0841 73323700 		.ascii	"s27\000"
 1535 0845 0F       		.byte	0xf
 1536 0846 4C02     		.2byte	0x24c
 1537 0848 11       		.byte	0x11
 1538 0849 D1000000 		.4byte	0xd1
 1539 084d 2C       		.byte	0x2c
 1540 084e 04       		.uleb128 0x4
 1541 084f 73323800 		.ascii	"s28\000"
 1542 0853 0F       		.byte	0xf
 1543 0854 4D02     		.2byte	0x24d
 1544 0856 11       		.byte	0x11
 1545 0857 D1000000 		.4byte	0xd1
 1546 085b 30       		.byte	0x30
 1547 085c 04       		.uleb128 0x4
 1548 085d 73323900 		.ascii	"s29\000"
 1549 0861 0F       		.byte	0xf
 1550 0862 4E02     		.2byte	0x24e
 1551 0864 11       		.byte	0x11
 1552 0865 D1000000 		.4byte	0xd1
 1553 0869 34       		.byte	0x34
 1554 086a 04       		.uleb128 0x4
 1555 086b 73333000 		.ascii	"s30\000"
 1556 086f 0F       		.byte	0xf
 1557 0870 4F02     		.2byte	0x24f
 1558 0872 11       		.byte	0x11
 1559 0873 D1000000 		.4byte	0xd1
 1560 0877 38       		.byte	0x38
 1561 0878 04       		.uleb128 0x4
 1562 0879 73333100 		.ascii	"s31\000"
 1563 087d 0F       		.byte	0xf
 1564 087e 5002     		.2byte	0x250
 1565 0880 11       		.byte	0x11
 1566 0881 D1000000 		.4byte	0xd1
 1567 0885 3C       		.byte	0x3c
 1568 0886 04       		.uleb128 0x4
 1569 0887 723400   		.ascii	"r4\000"
 1570 088a 0F       		.byte	0xf
 1571 088b 5202     		.2byte	0x252
 1572 088d 11       		.byte	0x11
 1573 088e D1000000 		.4byte	0xd1
 1574 0892 40       		.byte	0x40
 1575 0893 04       		.uleb128 0x4
 1576 0894 723500   		.ascii	"r5\000"
 1577 0897 0F       		.byte	0xf
 1578 0898 5302     		.2byte	0x253
 1579 089a 11       		.byte	0x11
 1580 089b D1000000 		.4byte	0xd1
 1581 089f 44       		.byte	0x44
 1582 08a0 04       		.uleb128 0x4
 1583 08a1 723600   		.ascii	"r6\000"
 1584 08a4 0F       		.byte	0xf
 1585 08a5 5402     		.2byte	0x254
 1586 08a7 11       		.byte	0x11
 1587 08a8 D1000000 		.4byte	0xd1
 1588 08ac 48       		.byte	0x48
 1589 08ad 04       		.uleb128 0x4
 1590 08ae 723700   		.ascii	"r7\000"
ARM GAS  C:\Users\DEVELO~1\AppData\Local\Temp\ccWjdWXP.s 			page 29


 1591 08b1 0F       		.byte	0xf
 1592 08b2 5502     		.2byte	0x255
 1593 08b4 11       		.byte	0x11
 1594 08b5 D1000000 		.4byte	0xd1
 1595 08b9 4C       		.byte	0x4c
 1596 08ba 04       		.uleb128 0x4
 1597 08bb 723800   		.ascii	"r8\000"
 1598 08be 0F       		.byte	0xf
 1599 08bf 5602     		.2byte	0x256
 1600 08c1 11       		.byte	0x11
 1601 08c2 D1000000 		.4byte	0xd1
 1602 08c6 50       		.byte	0x50
 1603 08c7 04       		.uleb128 0x4
 1604 08c8 723900   		.ascii	"r9\000"
 1605 08cb 0F       		.byte	0xf
 1606 08cc 5702     		.2byte	0x257
 1607 08ce 11       		.byte	0x11
 1608 08cf D1000000 		.4byte	0xd1
 1609 08d3 54       		.byte	0x54
 1610 08d4 04       		.uleb128 0x4
 1611 08d5 72313000 		.ascii	"r10\000"
 1612 08d9 0F       		.byte	0xf
 1613 08da 5802     		.2byte	0x258
 1614 08dc 11       		.byte	0x11
 1615 08dd D1000000 		.4byte	0xd1
 1616 08e1 58       		.byte	0x58
 1617 08e2 04       		.uleb128 0x4
 1618 08e3 72313100 		.ascii	"r11\000"
 1619 08e7 0F       		.byte	0xf
 1620 08e8 5902     		.2byte	0x259
 1621 08ea 11       		.byte	0x11
 1622 08eb D1000000 		.4byte	0xd1
 1623 08ef 5C       		.byte	0x5c
 1624 08f0 04       		.uleb128 0x4
 1625 08f1 6C7200   		.ascii	"lr\000"
 1626 08f4 0F       		.byte	0xf
 1627 08f5 5A02     		.2byte	0x25a
 1628 08f7 11       		.byte	0x11
 1629 08f8 D1000000 		.4byte	0xd1
 1630 08fc 60       		.byte	0x60
 1631 08fd 00       		.byte	0
 1632 08fe 18       		.uleb128 0x18
 1633 08ff 14010000 		.4byte	.LASF109
 1634 0903 04       		.byte	0x4
 1635 0904 0F       		.byte	0xf
 1636 0905 6302     		.2byte	0x263
 1637 0907 08       		.byte	0x8
 1638 0908 1A090000 		.4byte	0x91a
 1639 090c 04       		.uleb128 0x4
 1640 090d 737000   		.ascii	"sp\000"
 1641 0910 0F       		.byte	0xf
 1642 0911 6402     		.2byte	0x264
 1643 0913 1A       		.byte	0x1a
 1644 0914 1A090000 		.4byte	0x91a
 1645 0918 00       		.byte	0
 1646 0919 00       		.byte	0
 1647 091a 05       		.uleb128 0x5
ARM GAS  C:\Users\DEVELO~1\AppData\Local\Temp\ccWjdWXP.s 			page 30


 1648 091b 98070000 		.4byte	0x798
 1649 091f 02       		.uleb128 0x2
 1650 0920 6E060000 		.4byte	.LASF110
 1651 0924 10       		.byte	0x10
 1652 0925 32       		.byte	0x32
 1653 0926 18       		.byte	0x18
 1654 0927 2B090000 		.4byte	0x92b
 1655 092b 09       		.uleb128 0x9
 1656 092c 4A010000 		.4byte	.LASF111
 1657 0930 04       		.byte	0x4
 1658 0931 10       		.byte	0x10
 1659 0932 38       		.byte	0x38
 1660 0933 08       		.byte	0x8
 1661 0934 46090000 		.4byte	0x946
 1662 0938 01       		.uleb128 0x1
 1663 0939 DB000000 		.4byte	.LASF112
 1664 093d 10       		.byte	0x10
 1665 093e 39       		.byte	0x39
 1666 093f 1A       		.byte	0x1a
 1667 0940 46090000 		.4byte	0x946
 1668 0944 00       		.byte	0
 1669 0945 00       		.byte	0
 1670 0946 05       		.uleb128 0x5
 1671 0947 1F090000 		.4byte	0x91f
 1672 094b 02       		.uleb128 0x2
 1673 094c F0050000 		.4byte	.LASF113
 1674 0950 10       		.byte	0x10
 1675 0951 3F       		.byte	0x3f
 1676 0952 19       		.byte	0x19
 1677 0953 57090000 		.4byte	0x957
 1678 0957 09       		.uleb128 0x9
 1679 0958 17080000 		.4byte	.LASF114
 1680 095c 08       		.byte	0x8
 1681 095d 10       		.byte	0x10
 1682 095e 45       		.byte	0x45
 1683 095f 08       		.byte	0x8
 1684 0960 7F090000 		.4byte	0x97f
 1685 0964 01       		.uleb128 0x1
 1686 0965 DB000000 		.4byte	.LASF112
 1687 0969 10       		.byte	0x10
 1688 096a 46       		.byte	0x46
 1689 096b 1A       		.byte	0x1a
 1690 096c 7F090000 		.4byte	0x97f
 1691 0970 00       		.byte	0
 1692 0971 01       		.uleb128 0x1
 1693 0972 45010000 		.4byte	.LASF115
 1694 0976 10       		.byte	0x10
 1695 0977 47       		.byte	0x47
 1696 0978 1A       		.byte	0x1a
 1697 0979 7F090000 		.4byte	0x97f
 1698 097d 04       		.byte	0x4
 1699 097e 00       		.byte	0
 1700 097f 05       		.uleb128 0x5
 1701 0980 4B090000 		.4byte	0x94b
 1702 0984 02       		.uleb128 0x2
 1703 0985 AC030000 		.4byte	.LASF116
 1704 0989 10       		.byte	0x10
ARM GAS  C:\Users\DEVELO~1\AppData\Local\Temp\ccWjdWXP.s 			page 31


 1705 098a 4E       		.byte	0x4e
 1706 098b 22       		.byte	0x22
 1707 098c 90090000 		.4byte	0x990
 1708 0990 09       		.uleb128 0x9
 1709 0991 05080000 		.4byte	.LASF117
 1710 0995 0C       		.byte	0xc
 1711 0996 10       		.byte	0x10
 1712 0997 55       		.byte	0x55
 1713 0998 08       		.byte	0x8
 1714 0999 C5090000 		.4byte	0x9c5
 1715 099d 01       		.uleb128 0x1
 1716 099e DB000000 		.4byte	.LASF112
 1717 09a2 10       		.byte	0x10
 1718 09a3 56       		.byte	0x56
 1719 09a4 1A       		.byte	0x1a
 1720 09a5 C5090000 		.4byte	0x9c5
 1721 09a9 00       		.byte	0
 1722 09aa 01       		.uleb128 0x1
 1723 09ab 45010000 		.4byte	.LASF115
 1724 09af 10       		.byte	0x10
 1725 09b0 57       		.byte	0x57
 1726 09b1 1A       		.byte	0x1a
 1727 09b2 C5090000 		.4byte	0x9c5
 1728 09b6 04       		.byte	0x4
 1729 09b7 01       		.uleb128 0x1
 1730 09b8 19040000 		.4byte	.LASF118
 1731 09bc 10       		.byte	0x10
 1732 09bd 58       		.byte	0x58
 1733 09be 19       		.byte	0x19
 1734 09bf 4E010000 		.4byte	0x14e
 1735 09c3 08       		.byte	0x8
 1736 09c4 00       		.byte	0
 1737 09c5 05       		.uleb128 0x5
 1738 09c6 84090000 		.4byte	0x984
 1739 09ca 02       		.uleb128 0x2
 1740 09cb 23040000 		.4byte	.LASF119
 1741 09cf 10       		.byte	0x10
 1742 09d0 5F       		.byte	0x5f
 1743 09d1 1E       		.byte	0x1e
 1744 09d2 D6090000 		.4byte	0x9d6
 1745 09d6 09       		.uleb128 0x9
 1746 09d7 8C010000 		.4byte	.LASF120
 1747 09db 0C       		.byte	0xc
 1748 09dc 10       		.byte	0x10
 1749 09dd 64       		.byte	0x64
 1750 09de 08       		.byte	0x8
 1751 09df 0B0A0000 		.4byte	0xa0b
 1752 09e3 01       		.uleb128 0x1
 1753 09e4 DB000000 		.4byte	.LASF112
 1754 09e8 10       		.byte	0x10
 1755 09e9 65       		.byte	0x65
 1756 09ea 1A       		.byte	0x1a
 1757 09eb 0B0A0000 		.4byte	0xa0b
 1758 09ef 00       		.byte	0
 1759 09f0 01       		.uleb128 0x1
 1760 09f1 45010000 		.4byte	.LASF115
 1761 09f5 10       		.byte	0x10
ARM GAS  C:\Users\DEVELO~1\AppData\Local\Temp\ccWjdWXP.s 			page 32


 1762 09f6 66       		.byte	0x66
 1763 09f7 1A       		.byte	0x1a
 1764 09f8 0B0A0000 		.4byte	0xa0b
 1765 09fc 04       		.byte	0x4
 1766 09fd 01       		.uleb128 0x1
 1767 09fe FB080000 		.4byte	.LASF121
 1768 0a02 10       		.byte	0x10
 1769 0a03 67       		.byte	0x67
 1770 0a04 19       		.byte	0x19
 1771 0a05 B6030000 		.4byte	0x3b6
 1772 0a09 08       		.byte	0x8
 1773 0a0a 00       		.byte	0
 1774 0a0b 05       		.uleb128 0x5
 1775 0a0c CA090000 		.4byte	0x9ca
 1776 0a10 09       		.uleb128 0x9
 1777 0a11 66030000 		.4byte	.LASF122
 1778 0a15 20       		.byte	0x20
 1779 0a16 09       		.byte	0x9
 1780 0a17 64       		.byte	0x64
 1781 0a18 10       		.byte	0x10
 1782 0a19 520A0000 		.4byte	0xa52
 1783 0a1d 01       		.uleb128 0x1
 1784 0a1e 45070000 		.4byte	.LASF123
 1785 0a22 09       		.byte	0x9
 1786 0a23 68       		.byte	0x68
 1787 0a24 21       		.byte	0x21
 1788 0a25 CA090000 		.4byte	0x9ca
 1789 0a29 00       		.byte	0
 1790 0a2a 01       		.uleb128 0x1
 1791 0a2b 5A070000 		.4byte	.LASF124
 1792 0a2f 09       		.byte	0x9
 1793 0a30 73       		.byte	0x73
 1794 0a31 21       		.byte	0x21
 1795 0a32 AA030000 		.4byte	0x3aa
 1796 0a36 0C       		.byte	0xc
 1797 0a37 01       		.uleb128 0x1
 1798 0a38 44050000 		.4byte	.LASF125
 1799 0a3c 09       		.byte	0x9
 1800 0a3d 7B       		.byte	0x7b
 1801 0a3e 21       		.byte	0x21
 1802 0a3f B6030000 		.4byte	0x3b6
 1803 0a43 10       		.byte	0x10
 1804 0a44 01       		.uleb128 0x1
 1805 0a45 34010000 		.4byte	.LASF126
 1806 0a49 09       		.byte	0x9
 1807 0a4a 81       		.byte	0x81
 1808 0a4b 21       		.byte	0x21
 1809 0a4c EE000000 		.4byte	0xee
 1810 0a50 18       		.byte	0x18
 1811 0a51 00       		.byte	0
 1812 0a52 02       		.uleb128 0x2
 1813 0a53 56080000 		.4byte	.LASF127
 1814 0a57 09       		.byte	0x9
 1815 0a58 83       		.byte	0x83
 1816 0a59 03       		.byte	0x3
 1817 0a5a 100A0000 		.4byte	0xa10
 1818 0a5e 09       		.uleb128 0x9
ARM GAS  C:\Users\DEVELO~1\AppData\Local\Temp\ccWjdWXP.s 			page 33


 1819 0a5f 66000000 		.4byte	.LASF128
 1820 0a63 08       		.byte	0x8
 1821 0a64 09       		.byte	0x9
 1822 0a65 88       		.byte	0x88
 1823 0a66 10       		.byte	0x10
 1824 0a67 790A0000 		.4byte	0xa79
 1825 0a6b 01       		.uleb128 0x1
 1826 0a6c EB070000 		.4byte	.LASF129
 1827 0a70 09       		.byte	0x9
 1828 0a71 8C       		.byte	0x8c
 1829 0a72 21       		.byte	0x21
 1830 0a73 4B090000 		.4byte	0x94b
 1831 0a77 00       		.byte	0
 1832 0a78 00       		.byte	0
 1833 0a79 02       		.uleb128 0x2
 1834 0a7a 7A050000 		.4byte	.LASF130
 1835 0a7e 09       		.byte	0x9
 1836 0a7f 8D       		.byte	0x8d
 1837 0a80 03       		.byte	0x3
 1838 0a81 5E0A0000 		.4byte	0xa5e
 1839 0a85 02       		.uleb128 0x2
 1840 0a86 37000000 		.4byte	.LASF131
 1841 0a8a 09       		.byte	0x9
 1842 0a8b 92       		.byte	0x92
 1843 0a8c 14       		.byte	0x14
 1844 0a8d F2030000 		.4byte	0x3f2
 1845 0a91 02       		.uleb128 0x2
 1846 0a92 D1050000 		.4byte	.LASF132
 1847 0a96 09       		.byte	0x9
 1848 0a97 A1       		.byte	0xa1
 1849 0a98 10       		.byte	0x10
 1850 0a99 9D0A0000 		.4byte	0xa9d
 1851 0a9d 05       		.uleb128 0x5
 1852 0a9e A20A0000 		.4byte	0xaa2
 1853 0aa2 1A       		.uleb128 0x1a
 1854 0aa3 AD0A0000 		.4byte	0xaad
 1855 0aa7 07       		.uleb128 0x7
 1856 0aa8 F2030000 		.4byte	0x3f2
 1857 0aac 00       		.byte	0
 1858 0aad 13       		.uleb128 0x13
 1859 0aae 0C       		.byte	0xc
 1860 0aaf 09       		.byte	0x9
 1861 0ab0 AD       		.byte	0xad
 1862 0ab1 03       		.byte	0x3
 1863 0ab2 DB0A0000 		.4byte	0xadb
 1864 0ab6 0F       		.uleb128 0xf
 1865 0ab7 87010000 		.4byte	.LASF133
 1866 0abb 09       		.byte	0x9
 1867 0abc B1       		.byte	0xb1
 1868 0abd 21       		.byte	0x21
 1869 0abe 1F090000 		.4byte	0x91f
 1870 0ac2 0F       		.uleb128 0xf
 1871 0ac3 EB070000 		.4byte	.LASF129
 1872 0ac7 09       		.byte	0x9
 1873 0ac8 B5       		.byte	0xb5
 1874 0ac9 21       		.byte	0x21
 1875 0aca 4B090000 		.4byte	0x94b
ARM GAS  C:\Users\DEVELO~1\AppData\Local\Temp\ccWjdWXP.s 			page 34


 1876 0ace 0F       		.uleb128 0xf
 1877 0acf ED020000 		.4byte	.LASF134
 1878 0ad3 09       		.byte	0x9
 1879 0ad4 B9       		.byte	0xb9
 1880 0ad5 21       		.byte	0x21
 1881 0ad6 84090000 		.4byte	0x984
 1882 0ada 00       		.byte	0
 1883 0adb 26       		.uleb128 0x26
 1884 0adc 04       		.byte	0x4
 1885 0add 09       		.byte	0x9
 1886 0ade 0201     		.2byte	0x102
 1887 0ae0 03       		.byte	0x3
 1888 0ae1 460B0000 		.4byte	0xb46
 1889 0ae5 0D       		.uleb128 0xd
 1890 0ae6 A0030000 		.4byte	.LASF135
 1891 0aea 0901     		.2byte	0x109
 1892 0aec 21       		.byte	0x21
 1893 0aed 5A010000 		.4byte	0x15a
 1894 0af1 0D       		.uleb128 0xd
 1895 0af2 84090000 		.4byte	.LASF136
 1896 0af6 1001     		.2byte	0x110
 1897 0af8 21       		.byte	0x21
 1898 0af9 5A010000 		.4byte	0x15a
 1899 0afd 0D       		.uleb128 0xd
 1900 0afe 5C010000 		.4byte	.LASF71
 1901 0b02 1701     		.2byte	0x117
 1902 0b04 22       		.byte	0x22
 1903 0b05 F7030000 		.4byte	0x3f7
 1904 0b09 0D       		.uleb128 0xd
 1905 0b0a 6A090000 		.4byte	.LASF137
 1906 0b0e 1E01     		.2byte	0x11e
 1907 0b10 22       		.byte	0x22
 1908 0b11 460B0000 		.4byte	0xb46
 1909 0b15 0D       		.uleb128 0xd
 1910 0b16 3A020000 		.4byte	.LASF138
 1911 0b1a 2301     		.2byte	0x123
 1912 0b1c 21       		.byte	0x21
 1913 0b1d 5A010000 		.4byte	0x15a
 1914 0b21 0D       		.uleb128 0xd
 1915 0b22 FE070000 		.4byte	.LASF139
 1916 0b26 2C01     		.2byte	0x12c
 1917 0b28 22       		.byte	0x22
 1918 0b29 730B0000 		.4byte	0xb73
 1919 0b2d 0D       		.uleb128 0xd
 1920 0b2e 27000000 		.4byte	.LASF140
 1921 0b32 3501     		.2byte	0x135
 1922 0b34 22       		.byte	0x22
 1923 0b35 AD0B0000 		.4byte	0xbad
 1924 0b39 0D       		.uleb128 0xd
 1925 0b3a 3E010000 		.4byte	.LASF141
 1926 0b3e 3D01     		.2byte	0x13d
 1927 0b40 21       		.byte	0x21
 1928 0b41 66010000 		.4byte	0x166
 1929 0b45 00       		.byte	0
 1930 0b46 05       		.uleb128 0x5
 1931 0b47 850A0000 		.4byte	0xa85
 1932 0b4b 09       		.uleb128 0x9
ARM GAS  C:\Users\DEVELO~1\AppData\Local\Temp\ccWjdWXP.s 			page 35


 1933 0b4c 7A020000 		.4byte	.LASF142
 1934 0b50 0C       		.byte	0xc
 1935 0b51 11       		.byte	0x11
 1936 0b52 34       		.byte	0x34
 1937 0b53 10       		.byte	0x10
 1938 0b54 730B0000 		.4byte	0xb73
 1939 0b58 01       		.uleb128 0x1
 1940 0b59 EB070000 		.4byte	.LASF129
 1941 0b5d 11       		.byte	0x11
 1942 0b5e 35       		.byte	0x35
 1943 0b5f 19       		.byte	0x19
 1944 0b60 4B090000 		.4byte	0x94b
 1945 0b64 00       		.byte	0
 1946 0b65 06       		.uleb128 0x6
 1947 0b66 636E7400 		.ascii	"cnt\000"
 1948 0b6a 11       		.byte	0x11
 1949 0b6b 37       		.byte	0x37
 1950 0b6c 19       		.byte	0x19
 1951 0b6d 72010000 		.4byte	0x172
 1952 0b71 08       		.byte	0x8
 1953 0b72 00       		.byte	0
 1954 0b73 05       		.uleb128 0x5
 1955 0b74 4B0B0000 		.4byte	0xb4b
 1956 0b78 09       		.uleb128 0x9
 1957 0b79 DB030000 		.4byte	.LASF143
 1958 0b7d 10       		.byte	0x10
 1959 0b7e 12       		.byte	0x12
 1960 0b7f 39       		.byte	0x39
 1961 0b80 08       		.byte	0x8
 1962 0b81 AD0B0000 		.4byte	0xbad
 1963 0b85 01       		.uleb128 0x1
 1964 0b86 EB070000 		.4byte	.LASF129
 1965 0b8a 12       		.byte	0x12
 1966 0b8b 3A       		.byte	0x3a
 1967 0b8c 19       		.byte	0x19
 1968 0b8d 4B090000 		.4byte	0x94b
 1969 0b91 00       		.byte	0
 1970 0b92 01       		.uleb128 0x1
 1971 0b93 52030000 		.4byte	.LASF33
 1972 0b97 12       		.byte	0x12
 1973 0b98 3C       		.byte	0x3c
 1974 0b99 1A       		.byte	0x1a
 1975 0b9a F2030000 		.4byte	0x3f2
 1976 0b9e 08       		.byte	0x8
 1977 0b9f 01       		.uleb128 0x1
 1978 0ba0 DB000000 		.4byte	.LASF112
 1979 0ba4 12       		.byte	0x12
 1980 0ba5 3E       		.byte	0x3e
 1981 0ba6 1A       		.byte	0x1a
 1982 0ba7 950C0000 		.4byte	0xc95
 1983 0bab 0C       		.byte	0xc
 1984 0bac 00       		.byte	0
 1985 0bad 05       		.uleb128 0x5
 1986 0bae 780B0000 		.4byte	0xb78
 1987 0bb2 05       		.uleb128 0x5
 1988 0bb3 92020000 		.4byte	0x292
 1989 0bb7 05       		.uleb128 0x5
ARM GAS  C:\Users\DEVELO~1\AppData\Local\Temp\ccWjdWXP.s 			page 36


 1990 0bb8 1E010000 		.4byte	0x11e
 1991 0bbc 18       		.uleb128 0x18
 1992 0bbd 21010000 		.4byte	.LASF144
 1993 0bc1 10       		.byte	0x10
 1994 0bc2 09       		.byte	0x9
 1995 0bc3 6C01     		.2byte	0x16c
 1996 0bc5 10       		.byte	0x10
 1997 0bc6 E70B0000 		.4byte	0xbe7
 1998 0bca 03       		.uleb128 0x3
 1999 0bcb ED020000 		.4byte	.LASF134
 2000 0bcf 09       		.byte	0x9
 2001 0bd0 7101     		.2byte	0x171
 2002 0bd2 21       		.byte	0x21
 2003 0bd3 84090000 		.4byte	0x984
 2004 0bd7 00       		.byte	0
 2005 0bd8 03       		.uleb128 0x3
 2006 0bd9 2D090000 		.4byte	.LASF145
 2007 0bdd 09       		.byte	0x9
 2008 0bde 7501     		.2byte	0x175
 2009 0be0 22       		.byte	0x22
 2010 0be1 F2030000 		.4byte	0x3f2
 2011 0be5 0C       		.byte	0xc
 2012 0be6 00       		.byte	0
 2013 0be7 0C       		.uleb128 0xc
 2014 0be8 BE070000 		.4byte	.LASF146
 2015 0bec 09       		.byte	0x9
 2016 0bed 7601     		.2byte	0x176
 2017 0bef 03       		.byte	0x3
 2018 0bf0 BC0B0000 		.4byte	0xbbc
 2019 0bf4 18       		.uleb128 0x18
 2020 0bf5 2F070000 		.4byte	.LASF147
 2021 0bf9 14       		.byte	0x14
 2022 0bfa 09       		.byte	0x9
 2023 0bfb 7B01     		.2byte	0x17b
 2024 0bfd 10       		.byte	0x10
 2025 0bfe 490C0000 		.4byte	0xc49
 2026 0c02 03       		.uleb128 0x3
 2027 0c03 9A070000 		.4byte	.LASF39
 2028 0c07 09       		.byte	0x9
 2029 0c08 7F01     		.2byte	0x17f
 2030 0c0a 22       		.byte	0x22
 2031 0c0b 88030000 		.4byte	0x388
 2032 0c0f 00       		.byte	0
 2033 0c10 03       		.uleb128 0x3
 2034 0c11 09000000 		.4byte	.LASF148
 2035 0c15 09       		.byte	0x9
 2036 0c16 8301     		.2byte	0x183
 2037 0c18 22       		.byte	0x22
 2038 0c19 B70B0000 		.4byte	0xbb7
 2039 0c1d 04       		.byte	0x4
 2040 0c1e 03       		.uleb128 0x3
 2041 0c1f 24070000 		.4byte	.LASF149
 2042 0c23 09       		.byte	0x9
 2043 0c24 8701     		.2byte	0x187
 2044 0c26 22       		.byte	0x22
 2045 0c27 B70B0000 		.4byte	0xbb7
 2046 0c2b 08       		.byte	0x8
ARM GAS  C:\Users\DEVELO~1\AppData\Local\Temp\ccWjdWXP.s 			page 37


 2047 0c2c 03       		.uleb128 0x3
 2048 0c2d 0D060000 		.4byte	.LASF150
 2049 0c31 09       		.byte	0x9
 2050 0c32 8C01     		.2byte	0x18c
 2051 0c34 22       		.byte	0x22
 2052 0c35 B70B0000 		.4byte	0xbb7
 2053 0c39 0C       		.byte	0xc
 2054 0c3a 03       		.uleb128 0x3
 2055 0c3b 9D050000 		.4byte	.LASF151
 2056 0c3f 09       		.byte	0x9
 2057 0c40 9001     		.2byte	0x190
 2058 0c42 22       		.byte	0x22
 2059 0c43 B70B0000 		.4byte	0xbb7
 2060 0c47 10       		.byte	0x10
 2061 0c48 00       		.byte	0
 2062 0c49 0C       		.uleb128 0xc
 2063 0c4a 95020000 		.4byte	.LASF152
 2064 0c4e 09       		.byte	0x9
 2065 0c4f 9201     		.2byte	0x192
 2066 0c51 03       		.byte	0x3
 2067 0c52 F40B0000 		.4byte	0xbf4
 2068 0c56 12       		.uleb128 0x12
 2069 0c57 490C0000 		.4byte	0xc49
 2070 0c5b 05       		.uleb128 0x5
 2071 0c5c 560C0000 		.4byte	0xc56
 2072 0c60 27       		.uleb128 0x27
 2073 0c61 63683000 		.ascii	"ch0\000"
 2074 0c65 1A       		.byte	0x1a
 2075 0c66 1F01     		.2byte	0x11f
 2076 0c68 16       		.byte	0x16
 2077 0c69 92020000 		.4byte	0x292
 2078 0c6d 02       		.uleb128 0x2
 2079 0c6e AA020000 		.4byte	.LASF153
 2080 0c72 13       		.byte	0x13
 2081 0c73 34       		.byte	0x34
 2082 0c74 10       		.byte	0x10
 2083 0c75 790C0000 		.4byte	0xc79
 2084 0c79 05       		.uleb128 0x5
 2085 0c7a 7E0C0000 		.4byte	0xc7e
 2086 0c7e 1A       		.uleb128 0x1a
 2087 0c7f 890C0000 		.4byte	0xc89
 2088 0c83 07       		.uleb128 0x7
 2089 0c84 F7030000 		.4byte	0x3f7
 2090 0c88 00       		.byte	0
 2091 0c89 02       		.uleb128 0x2
 2092 0c8a 98060000 		.4byte	.LASF154
 2093 0c8e 12       		.byte	0x12
 2094 0c8f 34       		.byte	0x34
 2095 0c90 19       		.byte	0x19
 2096 0c91 780B0000 		.4byte	0xb78
 2097 0c95 05       		.uleb128 0x5
 2098 0c96 890C0000 		.4byte	0xc89
 2099 0c9a 0A       		.uleb128 0xa
 2100 0c9b 01       		.byte	0x1
 2101 0c9c 02       		.byte	0x2
 2102 0c9d C0030000 		.4byte	.LASF155
 2103 0ca1 11       		.uleb128 0x11
ARM GAS  C:\Users\DEVELO~1\AppData\Local\Temp\ccWjdWXP.s 			page 38


 2104 0ca2 10       		.byte	0x10
 2105 0ca3 14       		.byte	0x14
 2106 0ca4 A701     		.2byte	0x1a7
 2107 0ca6 FF0C0000 		.4byte	0xcff
 2108 0caa 03       		.uleb128 0x3
 2109 0cab A1090000 		.4byte	.LASF156
 2110 0caf 14       		.byte	0x14
 2111 0cb0 A801     		.2byte	0x1a8
 2112 0cb2 1A       		.byte	0x1a
 2113 0cb3 FF0C0000 		.4byte	0xcff
 2114 0cb7 00       		.byte	0
 2115 0cb8 03       		.uleb128 0x3
 2116 0cb9 5B020000 		.4byte	.LASF157
 2117 0cbd 14       		.byte	0x14
 2118 0cbe A901     		.2byte	0x1a9
 2119 0cc0 1A       		.byte	0x1a
 2120 0cc1 040D0000 		.4byte	0xd04
 2121 0cc5 04       		.byte	0x4
 2122 0cc6 04       		.uleb128 0x4
 2123 0cc7 6D757800 		.ascii	"mux\000"
 2124 0ccb 14       		.byte	0x14
 2125 0ccc AB01     		.2byte	0x1ab
 2126 0cce 1B       		.byte	0x1b
 2127 0ccf 090D0000 		.4byte	0xd09
 2128 0cd3 08       		.byte	0x8
 2129 0cd4 03       		.uleb128 0x3
 2130 0cd5 74020000 		.4byte	.LASF158
 2131 0cd9 14       		.byte	0x14
 2132 0cda AF01     		.2byte	0x1af
 2133 0cdc 19       		.byte	0x19
 2134 0cdd A8000000 		.4byte	0xa8
 2135 0ce1 0C       		.byte	0xc
 2136 0ce2 03       		.uleb128 0x3
 2137 0ce3 8D090000 		.4byte	.LASF159
 2138 0ce7 14       		.byte	0x14
 2139 0ce8 B101     		.2byte	0x1b1
 2140 0cea 19       		.byte	0x19
 2141 0ceb A8000000 		.4byte	0xa8
 2142 0cef 0D       		.byte	0xd
 2143 0cf0 03       		.uleb128 0x3
 2144 0cf1 D5020000 		.4byte	.LASF160
 2145 0cf5 14       		.byte	0x14
 2146 0cf6 B201     		.2byte	0x1b2
 2147 0cf8 19       		.byte	0x19
 2148 0cf9 A8000000 		.4byte	0xa8
 2149 0cfd 0E       		.byte	0xe
 2150 0cfe 00       		.byte	0
 2151 0cff 05       		.uleb128 0x5
 2152 0d00 C2050000 		.4byte	0x5c2
 2153 0d04 05       		.uleb128 0x5
 2154 0d05 DD000000 		.4byte	0xdd
 2155 0d09 05       		.uleb128 0x5
 2156 0d0a 77060000 		.4byte	0x677
 2157 0d0e 0C       		.uleb128 0xc
 2158 0d0f B4040000 		.4byte	.LASF161
 2159 0d13 14       		.byte	0x14
 2160 0d14 B301     		.2byte	0x1b3
ARM GAS  C:\Users\DEVELO~1\AppData\Local\Temp\ccWjdWXP.s 			page 39


 2161 0d16 03       		.byte	0x3
 2162 0d17 A10C0000 		.4byte	0xca1
 2163 0d1b 12       		.uleb128 0x12
 2164 0d1c 0E0D0000 		.4byte	0xd0e
 2165 0d20 0B       		.uleb128 0xb
 2166 0d21 14       		.byte	0x14
 2167 0d22 15       		.byte	0x15
 2168 0d23 E5       		.byte	0xe5
 2169 0d24 09       		.byte	0x9
 2170 0d25 780D0000 		.4byte	0xd78
 2171 0d29 01       		.uleb128 0x1
 2172 0d2a 22000000 		.4byte	.LASF162
 2173 0d2e 15       		.byte	0x15
 2174 0d2f E6       		.byte	0xe6
 2175 0d30 1E       		.byte	0x1e
 2176 0d31 780D0000 		.4byte	0xd78
 2177 0d35 00       		.byte	0
 2178 0d36 01       		.uleb128 0x1
 2179 0d37 83060000 		.4byte	.LASF163
 2180 0d3b 15       		.byte	0x15
 2181 0d3c E7       		.byte	0xe7
 2182 0d3d 1E       		.byte	0x1e
 2183 0d3e 7D0D0000 		.4byte	0xd7d
 2184 0d42 04       		.byte	0x4
 2185 0d43 01       		.uleb128 0x1
 2186 0d44 74020000 		.4byte	.LASF158
 2187 0d48 15       		.byte	0x15
 2188 0d49 E8       		.byte	0xe8
 2189 0d4a 1D       		.byte	0x1d
 2190 0d4b A8000000 		.4byte	0xa8
 2191 0d4f 08       		.byte	0x8
 2192 0d50 06       		.uleb128 0x6
 2193 0d51 6D757800 		.ascii	"mux\000"
 2194 0d55 15       		.byte	0x15
 2195 0d56 EA       		.byte	0xea
 2196 0d57 1E       		.byte	0x1e
 2197 0d58 090D0000 		.4byte	0xd09
 2198 0d5c 0C       		.byte	0xc
 2199 0d5d 01       		.uleb128 0x1
 2200 0d5e 8D090000 		.4byte	.LASF159
 2201 0d62 15       		.byte	0x15
 2202 0d63 EB       		.byte	0xeb
 2203 0d64 1D       		.byte	0x1d
 2204 0d65 A8000000 		.4byte	0xa8
 2205 0d69 10       		.byte	0x10
 2206 0d6a 01       		.uleb128 0x1
 2207 0d6b D5020000 		.4byte	.LASF160
 2208 0d6f 15       		.byte	0x15
 2209 0d70 EC       		.byte	0xec
 2210 0d71 1D       		.byte	0x1d
 2211 0d72 A8000000 		.4byte	0xa8
 2212 0d76 11       		.byte	0x11
 2213 0d77 00       		.byte	0
 2214 0d78 05       		.uleb128 0x5
 2215 0d79 52060000 		.4byte	0x652
 2216 0d7d 05       		.uleb128 0x5
 2217 0d7e 1F060000 		.4byte	0x61f
ARM GAS  C:\Users\DEVELO~1\AppData\Local\Temp\ccWjdWXP.s 			page 40


 2218 0d82 02       		.uleb128 0x2
 2219 0d83 56090000 		.4byte	.LASF164
 2220 0d87 15       		.byte	0x15
 2221 0d88 ED       		.byte	0xed
 2222 0d89 03       		.byte	0x3
 2223 0d8a 200D0000 		.4byte	0xd20
 2224 0d8e 12       		.uleb128 0x12
 2225 0d8f 820D0000 		.4byte	0xd82
 2226 0d93 0B       		.uleb128 0xb
 2227 0d94 04       		.byte	0x4
 2228 0d95 16       		.byte	0x16
 2229 0d96 5B       		.byte	0x5b
 2230 0d97 05       		.byte	0x5
 2231 0d98 B70D0000 		.4byte	0xdb7
 2232 0d9c 06       		.uleb128 0x6
 2233 0d9d 73657400 		.ascii	"set\000"
 2234 0da1 16       		.byte	0x16
 2235 0da2 5C       		.byte	0x5c
 2236 0da3 19       		.byte	0x19
 2237 0da4 B9000000 		.4byte	0xb9
 2238 0da8 00       		.byte	0
 2239 0da9 01       		.uleb128 0x1
 2240 0daa 58030000 		.4byte	.LASF165
 2241 0dae 16       		.byte	0x16
 2242 0daf 5D       		.byte	0x5d
 2243 0db0 19       		.byte	0x19
 2244 0db1 B9000000 		.4byte	0xb9
 2245 0db5 02       		.byte	0x2
 2246 0db6 00       		.byte	0
 2247 0db7 13       		.uleb128 0x13
 2248 0db8 04       		.byte	0x4
 2249 0db9 16       		.byte	0x16
 2250 0dba 59       		.byte	0x59
 2251 0dbb 0C       		.byte	0xc
 2252 0dbc D50D0000 		.4byte	0xdd5
 2253 0dc0 0E       		.uleb128 0xe
 2254 0dc1 5700     		.ascii	"W\000"
 2255 0dc3 16       		.byte	0x16
 2256 0dc4 5A       		.byte	0x5a
 2257 0dc5 19       		.byte	0x19
 2258 0dc6 D1000000 		.4byte	0xd1
 2259 0dca 0E       		.uleb128 0xe
 2260 0dcb 4800     		.ascii	"H\000"
 2261 0dcd 16       		.byte	0x16
 2262 0dce 5E       		.byte	0x5e
 2263 0dcf 07       		.byte	0x7
 2264 0dd0 930D0000 		.4byte	0xd93
 2265 0dd4 00       		.byte	0
 2266 0dd5 10       		.uleb128 0x10
 2267 0dd6 B70D0000 		.4byte	0xdb7
 2268 0dda 0B       		.uleb128 0xb
 2269 0ddb 28       		.byte	0x28
 2270 0ddc 16       		.byte	0x16
 2271 0ddd 51       		.byte	0x51
 2272 0dde 09       		.byte	0x9
 2273 0ddf 660E0000 		.4byte	0xe66
 2274 0de3 01       		.uleb128 0x1
ARM GAS  C:\Users\DEVELO~1\AppData\Local\Temp\ccWjdWXP.s 			page 41


 2275 0de4 C6030000 		.4byte	.LASF166
 2276 0de8 16       		.byte	0x16
 2277 0de9 53       		.byte	0x53
 2278 0dea 19       		.byte	0x19
 2279 0deb DD000000 		.4byte	0xdd
 2280 0def 00       		.byte	0
 2281 0df0 01       		.uleb128 0x1
 2282 0df1 1D070000 		.4byte	.LASF167
 2283 0df5 16       		.byte	0x16
 2284 0df6 54       		.byte	0x54
 2285 0df7 19       		.byte	0x19
 2286 0df8 DD000000 		.4byte	0xdd
 2287 0dfc 04       		.byte	0x4
 2288 0dfd 01       		.uleb128 0x1
 2289 0dfe 4B060000 		.4byte	.LASF168
 2290 0e02 16       		.byte	0x16
 2291 0e03 55       		.byte	0x55
 2292 0e04 19       		.byte	0x19
 2293 0e05 DD000000 		.4byte	0xdd
 2294 0e09 08       		.byte	0x8
 2295 0e0a 01       		.uleb128 0x1
 2296 0e0b 0D040000 		.4byte	.LASF169
 2297 0e0f 16       		.byte	0x16
 2298 0e10 56       		.byte	0x56
 2299 0e11 19       		.byte	0x19
 2300 0e12 DD000000 		.4byte	0xdd
 2301 0e16 0C       		.byte	0xc
 2302 0e17 06       		.uleb128 0x6
 2303 0e18 49445200 		.ascii	"IDR\000"
 2304 0e1c 16       		.byte	0x16
 2305 0e1d 57       		.byte	0x57
 2306 0e1e 19       		.byte	0x19
 2307 0e1f DD000000 		.4byte	0xdd
 2308 0e23 10       		.byte	0x10
 2309 0e24 06       		.uleb128 0x6
 2310 0e25 4F445200 		.ascii	"ODR\000"
 2311 0e29 16       		.byte	0x16
 2312 0e2a 58       		.byte	0x58
 2313 0e2b 19       		.byte	0x19
 2314 0e2c DD000000 		.4byte	0xdd
 2315 0e30 14       		.byte	0x14
 2316 0e31 01       		.uleb128 0x1
 2317 0e32 4A000000 		.4byte	.LASF170
 2318 0e36 16       		.byte	0x16
 2319 0e37 5F       		.byte	0x5f
 2320 0e38 05       		.byte	0x5
 2321 0e39 D50D0000 		.4byte	0xdd5
 2322 0e3d 18       		.byte	0x18
 2323 0e3e 01       		.uleb128 0x1
 2324 0e3f 53060000 		.4byte	.LASF171
 2325 0e43 16       		.byte	0x16
 2326 0e44 60       		.byte	0x60
 2327 0e45 19       		.byte	0x19
 2328 0e46 DD000000 		.4byte	0xdd
 2329 0e4a 1C       		.byte	0x1c
 2330 0e4b 01       		.uleb128 0x1
 2331 0e4c 3E080000 		.4byte	.LASF172
ARM GAS  C:\Users\DEVELO~1\AppData\Local\Temp\ccWjdWXP.s 			page 42


 2332 0e50 16       		.byte	0x16
 2333 0e51 61       		.byte	0x61
 2334 0e52 19       		.byte	0x19
 2335 0e53 DD000000 		.4byte	0xdd
 2336 0e57 20       		.byte	0x20
 2337 0e58 01       		.uleb128 0x1
 2338 0e59 40030000 		.4byte	.LASF173
 2339 0e5d 16       		.byte	0x16
 2340 0e5e 62       		.byte	0x62
 2341 0e5f 19       		.byte	0x19
 2342 0e60 DD000000 		.4byte	0xdd
 2343 0e64 24       		.byte	0x24
 2344 0e65 00       		.byte	0
 2345 0e66 02       		.uleb128 0x2
 2346 0e67 45030000 		.4byte	.LASF174
 2347 0e6b 16       		.byte	0x16
 2348 0e6c 63       		.byte	0x63
 2349 0e6d 03       		.byte	0x3
 2350 0e6e DA0D0000 		.4byte	0xdda
 2351 0e72 02       		.uleb128 0x2
 2352 0e73 58050000 		.4byte	.LASF175
 2353 0e77 17       		.byte	0x17
 2354 0e78 C2       		.byte	0xc2
 2355 0e79 12       		.byte	0x12
 2356 0e7a D1000000 		.4byte	0xd1
 2357 0e7e 02       		.uleb128 0x2
 2358 0e7f E6080000 		.4byte	.LASF176
 2359 0e83 17       		.byte	0x17
 2360 0e84 C7       		.byte	0xc7
 2361 0e85 12       		.byte	0x12
 2362 0e86 D1000000 		.4byte	0xd1
 2363 0e8a 02       		.uleb128 0x2
 2364 0e8b 04010000 		.4byte	.LASF177
 2365 0e8f 17       		.byte	0x17
 2366 0e90 CC       		.byte	0xcc
 2367 0e91 12       		.byte	0x12
 2368 0e92 D1000000 		.4byte	0xd1
 2369 0e96 02       		.uleb128 0x2
 2370 0e97 02040000 		.4byte	.LASF178
 2371 0e9b 17       		.byte	0x17
 2372 0e9c D9       		.byte	0xd9
 2373 0e9d 18       		.byte	0x18
 2374 0e9e A20E0000 		.4byte	0xea2
 2375 0ea2 05       		.uleb128 0x5
 2376 0ea3 660E0000 		.4byte	0xe66
 2377 0ea7 05       		.uleb128 0x5
 2378 0ea8 1B0D0000 		.4byte	0xd1b
 2379 0eac 28       		.uleb128 0x28
 2380 0ead 07       		.byte	0x7
 2381 0eae 01       		.byte	0x1
 2382 0eaf 39000000 		.4byte	0x39
 2383 0eb3 18       		.byte	0x18
 2384 0eb4 76       		.byte	0x76
 2385 0eb5 0E       		.byte	0xe
 2386 0eb6 D90E0000 		.4byte	0xed9
 2387 0eba 16       		.uleb128 0x16
 2388 0ebb 78060000 		.4byte	.LASF179
ARM GAS  C:\Users\DEVELO~1\AppData\Local\Temp\ccWjdWXP.s 			page 43


 2389 0ebf 00       		.byte	0
 2390 0ec0 16       		.uleb128 0x16
 2391 0ec1 D3070000 		.4byte	.LASF180
 2392 0ec5 01       		.byte	0x1
 2393 0ec6 16       		.uleb128 0x16
 2394 0ec7 71070000 		.4byte	.LASF181
 2395 0ecb 02       		.byte	0x2
 2396 0ecc 16       		.uleb128 0x16
 2397 0ecd 20080000 		.4byte	.LASF182
 2398 0ed1 03       		.byte	0x3
 2399 0ed2 16       		.uleb128 0x16
 2400 0ed3 77090000 		.4byte	.LASF183
 2401 0ed7 04       		.byte	0x4
 2402 0ed8 00       		.byte	0
 2403 0ed9 02       		.uleb128 0x2
 2404 0eda EB060000 		.4byte	.LASF184
 2405 0ede 18       		.byte	0x18
 2406 0edf 7C       		.byte	0x7c
 2407 0ee0 03       		.byte	0x3
 2408 0ee1 AC0E0000 		.4byte	0xeac
 2409 0ee5 02       		.uleb128 0x2
 2410 0ee6 52010000 		.4byte	.LASF185
 2411 0eea 18       		.byte	0x18
 2412 0eeb 81       		.byte	0x81
 2413 0eec 1F       		.byte	0x1f
 2414 0eed F10E0000 		.4byte	0xef1
 2415 0ef1 09       		.uleb128 0x9
 2416 0ef2 2C030000 		.4byte	.LASF186
 2417 0ef6 3C       		.byte	0x3c
 2418 0ef7 18       		.byte	0x18
 2419 0ef8 D8       		.byte	0xd8
 2420 0ef9 08       		.byte	0x8
 2421 0efa 990F0000 		.4byte	0xf99
 2422 0efe 01       		.uleb128 0x1
 2423 0eff A9080000 		.4byte	.LASF36
 2424 0f03 18       		.byte	0x18
 2425 0f04 DC       		.byte	0xdc
 2426 0f05 1D       		.byte	0x1d
 2427 0f06 D90E0000 		.4byte	0xed9
 2428 0f0a 00       		.byte	0
 2429 0f0b 01       		.uleb128 0x1
 2430 0f0c 91060000 		.4byte	.LASF56
 2431 0f10 18       		.byte	0x18
 2432 0f11 E0       		.byte	0xe0
 2433 0f12 1E       		.byte	0x1e
 2434 0f13 97100000 		.4byte	0x1097
 2435 0f17 04       		.byte	0x4
 2436 0f18 01       		.uleb128 0x1
 2437 0f19 1F090000 		.4byte	.LASF187
 2438 0f1d 18       		.byte	0x18
 2439 0f1e E5       		.byte	0xe5
 2440 0f1f 1D       		.byte	0x1d
 2441 0f20 850A0000 		.4byte	0xa85
 2442 0f24 08       		.byte	0x8
 2443 0f25 01       		.uleb128 0x1
 2444 0f26 6E020000 		.4byte	.LASF188
 2445 0f2a 18       		.byte	0x18
ARM GAS  C:\Users\DEVELO~1\AppData\Local\Temp\ccWjdWXP.s 			page 44


 2446 0f2b EB       		.byte	0xeb
 2447 0f2c 1D       		.byte	0x1d
 2448 0f2d 890C0000 		.4byte	0xc89
 2449 0f31 0C       		.byte	0xc
 2450 0f32 06       		.uleb128 0x6
 2451 0f33 73706900 		.ascii	"spi\000"
 2452 0f37 18       		.byte	0x18
 2453 0f38 F1       		.byte	0xf1
 2454 0f39 03       		.byte	0x3
 2455 0f3a 9C100000 		.4byte	0x109c
 2456 0f3e 1C       		.byte	0x1c
 2457 0f3f 01       		.uleb128 0x1
 2458 0f40 4E090000 		.4byte	.LASF189
 2459 0f44 18       		.byte	0x18
 2460 0f45 F1       		.byte	0xf1
 2461 0f46 03       		.byte	0x3
 2462 0f47 9A0C0000 		.4byte	0xc9a
 2463 0f4b 20       		.byte	0x20
 2464 0f4c 06       		.uleb128 0x6
 2465 0f4d 727800   		.ascii	"rx\000"
 2466 0f50 18       		.byte	0x18
 2467 0f51 F1       		.byte	0xf1
 2468 0f52 03       		.byte	0x3
 2469 0f53 4E100000 		.4byte	0x104e
 2470 0f57 24       		.byte	0x24
 2471 0f58 06       		.uleb128 0x6
 2472 0f59 747800   		.ascii	"tx\000"
 2473 0f5c 18       		.byte	0x18
 2474 0f5d F1       		.byte	0xf1
 2475 0f5e 03       		.byte	0x3
 2476 0f5f 75100000 		.4byte	0x1075
 2477 0f63 28       		.byte	0x28
 2478 0f64 01       		.uleb128 0x1
 2479 0f65 76080000 		.4byte	.LASF190
 2480 0f69 18       		.byte	0x18
 2481 0f6a F1       		.byte	0xf1
 2482 0f6b 03       		.byte	0x3
 2483 0f6c D1000000 		.4byte	0xd1
 2484 0f70 2C       		.byte	0x2c
 2485 0f71 01       		.uleb128 0x1
 2486 0f72 55040000 		.4byte	.LASF191
 2487 0f76 18       		.byte	0x18
 2488 0f77 F1       		.byte	0xf1
 2489 0f78 03       		.byte	0x3
 2490 0f79 D1000000 		.4byte	0xd1
 2491 0f7d 30       		.byte	0x30
 2492 0f7e 01       		.uleb128 0x1
 2493 0f7f 70090000 		.4byte	.LASF192
 2494 0f83 18       		.byte	0x18
 2495 0f84 F1       		.byte	0xf1
 2496 0f85 03       		.byte	0x3
 2497 0f86 D1000000 		.4byte	0xd1
 2498 0f8a 34       		.byte	0x34
 2499 0f8b 01       		.uleb128 0x1
 2500 0f8c 51070000 		.4byte	.LASF193
 2501 0f90 18       		.byte	0x18
 2502 0f91 F1       		.byte	0xf1
ARM GAS  C:\Users\DEVELO~1\AppData\Local\Temp\ccWjdWXP.s 			page 45


 2503 0f92 03       		.byte	0x3
 2504 0f93 D1000000 		.4byte	0xd1
 2505 0f97 38       		.byte	0x38
 2506 0f98 00       		.byte	0
 2507 0f99 02       		.uleb128 0x2
 2508 0f9a E4030000 		.4byte	.LASF194
 2509 0f9e 18       		.byte	0x18
 2510 0f9f 86       		.byte	0x86
 2511 0fa0 1F       		.byte	0x1f
 2512 0fa1 AA0F0000 		.4byte	0xfaa
 2513 0fa5 12       		.uleb128 0x12
 2514 0fa6 990F0000 		.4byte	0xf99
 2515 0faa 09       		.uleb128 0x9
 2516 0fab C2050000 		.4byte	.LASF195
 2517 0faf 1C       		.byte	0x1c
 2518 0fb0 18       		.byte	0x18
 2519 0fb1 9F       		.byte	0x9f
 2520 0fb2 08       		.byte	0x8
 2521 0fb3 20100000 		.4byte	0x1020
 2522 0fb7 01       		.uleb128 0x1
 2523 0fb8 2E000000 		.4byte	.LASF196
 2524 0fbc 18       		.byte	0x18
 2525 0fbd A4       		.byte	0xa4
 2526 0fbe 1D       		.byte	0x1d
 2527 0fbf 9A0C0000 		.4byte	0xc9a
 2528 0fc3 00       		.byte	0
 2529 0fc4 01       		.uleb128 0x1
 2530 0fc5 13040000 		.4byte	.LASF197
 2531 0fc9 18       		.byte	0x18
 2532 0fca AA       		.byte	0xaa
 2533 0fcb 1D       		.byte	0x1d
 2534 0fcc 9A0C0000 		.4byte	0xc9a
 2535 0fd0 01       		.byte	0x1
 2536 0fd1 01       		.uleb128 0x1
 2537 0fd2 69070000 		.4byte	.LASF198
 2538 0fd6 18       		.byte	0x18
 2539 0fd7 AF       		.byte	0xaf
 2540 0fd8 1D       		.byte	0x1d
 2541 0fd9 20100000 		.4byte	0x1020
 2542 0fdd 04       		.byte	0x4
 2543 0fde 01       		.uleb128 0x1
 2544 0fdf FB000000 		.4byte	.LASF199
 2545 0fe3 18       		.byte	0x18
 2546 0fe4 B3       		.byte	0xb3
 2547 0fe5 1D       		.byte	0x1d
 2548 0fe6 20100000 		.4byte	0x1020
 2549 0fea 08       		.byte	0x8
 2550 0feb 01       		.uleb128 0x1
 2551 0fec 25030000 		.4byte	.LASF200
 2552 0ff0 18       		.byte	0x18
 2553 0ff1 CA       		.byte	0xca
 2554 0ff2 1D       		.byte	0x1d
 2555 0ff3 960E0000 		.4byte	0xe96
 2556 0ff7 0C       		.byte	0xc
 2557 0ff8 01       		.uleb128 0x1
 2558 0ff9 A8090000 		.4byte	.LASF201
 2559 0ffd 18       		.byte	0x18
ARM GAS  C:\Users\DEVELO~1\AppData\Local\Temp\ccWjdWXP.s 			page 46


 2560 0ffe CF       		.byte	0xcf
 2561 0fff 1D       		.byte	0x1d
 2562 1000 F3000000 		.4byte	0xf3
 2563 1004 10       		.byte	0x10
 2564 1005 01       		.uleb128 0x1
 2565 1006 44090000 		.4byte	.LASF202
 2566 100a 18       		.byte	0x18
 2567 100b D2       		.byte	0xd2
 2568 100c 03       		.byte	0x3
 2569 100d D1000000 		.4byte	0xd1
 2570 1011 14       		.byte	0x14
 2571 1012 01       		.uleb128 0x1
 2572 1013 49090000 		.4byte	.LASF203
 2573 1017 18       		.byte	0x18
 2574 1018 D2       		.byte	0xd2
 2575 1019 03       		.byte	0x3
 2576 101a D1000000 		.4byte	0xd1
 2577 101e 18       		.byte	0x18
 2578 101f 00       		.byte	0
 2579 1020 02       		.uleb128 0x2
 2580 1021 7F010000 		.4byte	.LASF204
 2581 1025 18       		.byte	0x18
 2582 1026 8E       		.byte	0x8e
 2583 1027 10       		.byte	0x10
 2584 1028 2C100000 		.4byte	0x102c
 2585 102c 05       		.uleb128 0x5
 2586 102d 31100000 		.4byte	0x1031
 2587 1031 1A       		.uleb128 0x1a
 2588 1032 3C100000 		.4byte	0x103c
 2589 1036 07       		.uleb128 0x7
 2590 1037 3C100000 		.4byte	0x103c
 2591 103b 00       		.byte	0
 2592 103c 05       		.uleb128 0x5
 2593 103d E50E0000 		.4byte	0xee5
 2594 1041 29       		.uleb128 0x29
 2595 1042 8B060000 		.4byte	.LASF205
 2596 1046 19       		.byte	0x19
 2597 1047 5A02     		.2byte	0x25a
 2598 1049 12       		.byte	0x12
 2599 104a E50E0000 		.4byte	0xee5
 2600 104e 13       		.uleb128 0x13
 2601 104f 04       		.byte	0x4
 2602 1050 18       		.byte	0x18
 2603 1051 F1       		.byte	0xf1
 2604 1052 03       		.byte	0x3
 2605 1053 70100000 		.4byte	0x1070
 2606 1057 0E       		.uleb128 0xe
 2607 1058 646D6100 		.ascii	"dma\000"
 2608 105c 18       		.byte	0x18
 2609 105d F1       		.byte	0xf1
 2610 105e 03       		.byte	0x3
 2611 105f A70E0000 		.4byte	0xea7
 2612 1063 0F       		.uleb128 0xf
 2613 1064 22000000 		.4byte	.LASF162
 2614 1068 18       		.byte	0x18
 2615 1069 F1       		.byte	0xf1
 2616 106a 03       		.byte	0x3
ARM GAS  C:\Users\DEVELO~1\AppData\Local\Temp\ccWjdWXP.s 			page 47


 2617 106b 70100000 		.4byte	0x1070
 2618 106f 00       		.byte	0
 2619 1070 05       		.uleb128 0x5
 2620 1071 8E0D0000 		.4byte	0xd8e
 2621 1075 13       		.uleb128 0x13
 2622 1076 04       		.byte	0x4
 2623 1077 18       		.byte	0x18
 2624 1078 F1       		.byte	0xf1
 2625 1079 03       		.byte	0x3
 2626 107a 97100000 		.4byte	0x1097
 2627 107e 0E       		.uleb128 0xe
 2628 107f 646D6100 		.ascii	"dma\000"
 2629 1083 18       		.byte	0x18
 2630 1084 F1       		.byte	0xf1
 2631 1085 03       		.byte	0x3
 2632 1086 A70E0000 		.4byte	0xea7
 2633 108a 0F       		.uleb128 0xf
 2634 108b 22000000 		.4byte	.LASF162
 2635 108f 18       		.byte	0x18
 2636 1090 F1       		.byte	0xf1
 2637 1091 03       		.byte	0x3
 2638 1092 70100000 		.4byte	0x1070
 2639 1096 00       		.byte	0
 2640 1097 05       		.uleb128 0x5
 2641 1098 A50F0000 		.4byte	0xfa5
 2642 109c 05       		.uleb128 0x5
 2643 109d 8B070000 		.4byte	0x78b
 2644 10a1 1B       		.uleb128 0x1b
 2645 10a2 35090000 		.4byte	.LASF206
 2646 10a6 0F       		.byte	0xf
 2647 10a7 18       		.byte	0x18
 2648 10a8 A50F0000 		.4byte	0xfa5
 2649 10ac 05       		.uleb128 0x5
 2650 10ad 03       		.byte	0x3
 2651 10ae 00000000 		.4byte	spicfg_buttons
 2652 10b2 14       		.uleb128 0x14
 2653 10b3 B4000000 		.4byte	0xb4
 2654 10b7 C2100000 		.4byte	0x10c2
 2655 10bb 15       		.uleb128 0x15
 2656 10bc A1000000 		.4byte	0xa1
 2657 10c0 02       		.byte	0x2
 2658 10c1 00       		.byte	0
 2659 10c2 10       		.uleb128 0x10
 2660 10c3 B2100000 		.4byte	0x10b2
 2661 10c7 1B       		.uleb128 0x1b
 2662 10c8 AF080000 		.4byte	.LASF207
 2663 10cc 31       		.byte	0x31
 2664 10cd 1A       		.byte	0x1a
 2665 10ce C2100000 		.4byte	0x10c2
 2666 10d2 05       		.uleb128 0x5
 2667 10d3 03       		.byte	0x3
 2668 10d4 00000000 		.4byte	buttons_raw
 2669 10d8 1B       		.uleb128 0x1b
 2670 10d9 42020000 		.4byte	.LASF208
 2671 10dd 32       		.byte	0x32
 2672 10de 1A       		.byte	0x1a
 2673 10df DD000000 		.4byte	0xdd
ARM GAS  C:\Users\DEVELO~1\AppData\Local\Temp\ccWjdWXP.s 			page 48


 2674 10e3 05       		.uleb128 0x5
 2675 10e4 03       		.byte	0x3
 2676 10e5 00000000 		.4byte	buttons_mask
 2677 10e9 14       		.uleb128 0x14
 2678 10ea 1E010000 		.4byte	0x11e
 2679 10ee F9100000 		.4byte	0x10f9
 2680 10f2 15       		.uleb128 0x15
 2681 10f3 A1000000 		.4byte	0xa1
 2682 10f7 5B       		.byte	0x5b
 2683 10f8 00       		.byte	0
 2684 10f9 2A       		.uleb128 0x2a
 2685 10fa 4E050000 		.4byte	.LASF209
 2686 10fe 01       		.byte	0x1
 2687 10ff 5C       		.byte	0x5c
 2688 1100 08       		.byte	0x8
 2689 1101 E9100000 		.4byte	0x10e9
 2690 1105 20       		.byte	0x20
 2691 1106 05       		.uleb128 0x5
 2692 1107 03       		.byte	0x3
 2693 1108 00000000 		.4byte	waButtons
 2694 110c 1C       		.uleb128 0x1c
 2695 110d 8B080000 		.4byte	.LASF210
 2696 1111 18       		.byte	0x18
 2697 1112 F901     		.2byte	0x1f9
 2698 1114 09       		.byte	0x9
 2699 1115 5A010000 		.4byte	0x15a
 2700 1119 2D110000 		.4byte	0x112d
 2701 111d 07       		.uleb128 0x7
 2702 111e 3C100000 		.4byte	0x103c
 2703 1122 07       		.uleb128 0x7
 2704 1123 FF000000 		.4byte	0xff
 2705 1127 07       		.uleb128 0x7
 2706 1128 F7030000 		.4byte	0x3f7
 2707 112c 00       		.byte	0
 2708 112d 1E       		.uleb128 0x1e
 2709 112e 80080000 		.4byte	.LASF213
 2710 1132 13       		.byte	0x13
 2711 1133 DC01     		.2byte	0x1dc
 2712 1135 3F110000 		.4byte	0x113f
 2713 1139 07       		.uleb128 0x7
 2714 113a B6030000 		.4byte	0x3b6
 2715 113e 00       		.byte	0
 2716 113f 1C       		.uleb128 0x1c
 2717 1140 8B030000 		.4byte	.LASF211
 2718 1144 18       		.byte	0x18
 2719 1145 E301     		.2byte	0x1e3
 2720 1147 09       		.byte	0x9
 2721 1148 5A010000 		.4byte	0x15a
 2722 114c 5B110000 		.4byte	0x115b
 2723 1150 07       		.uleb128 0x7
 2724 1151 3C100000 		.4byte	0x103c
 2725 1155 07       		.uleb128 0x7
 2726 1156 97100000 		.4byte	0x1097
 2727 115a 00       		.byte	0
 2728 115b 1C       		.uleb128 0x1c
 2729 115c FB050000 		.4byte	.LASF212
 2730 1160 13       		.byte	0x13
ARM GAS  C:\Users\DEVELO~1\AppData\Local\Temp\ccWjdWXP.s 			page 49


 2731 1161 C401     		.2byte	0x1c4
 2732 1163 0D       		.byte	0xd
 2733 1164 F2030000 		.4byte	0x3f2
 2734 1168 86110000 		.4byte	0x1186
 2735 116c 07       		.uleb128 0x7
 2736 116d B70B0000 		.4byte	0xbb7
 2737 1171 07       		.uleb128 0x7
 2738 1172 FF000000 		.4byte	0xff
 2739 1176 07       		.uleb128 0x7
 2740 1177 4E010000 		.4byte	0x14e
 2741 117b 07       		.uleb128 0x7
 2742 117c 6D0C0000 		.4byte	0xc6d
 2743 1180 07       		.uleb128 0x7
 2744 1181 F7030000 		.4byte	0x3f7
 2745 1185 00       		.byte	0
 2746 1186 1E       		.uleb128 0x1e
 2747 1187 05030000 		.4byte	.LASF214
 2748 118b 17       		.byte	0x17
 2749 118c F301     		.2byte	0x1f3
 2750 118e A2110000 		.4byte	0x11a2
 2751 1192 07       		.uleb128 0x7
 2752 1193 960E0000 		.4byte	0xe96
 2753 1197 07       		.uleb128 0x7
 2754 1198 720E0000 		.4byte	0xe72
 2755 119c 07       		.uleb128 0x7
 2756 119d 7E0E0000 		.4byte	0xe7e
 2757 11a1 00       		.byte	0
 2758 11a2 2B       		.uleb128 0x2b
 2759 11a3 85070000 		.4byte	.LASF221
 2760 11a7 01       		.byte	0x1
 2761 11a8 83       		.byte	0x83
 2762 11a9 0A       		.byte	0xa
 2763 11aa D1000000 		.4byte	0xd1
 2764 11ae 00000000 		.4byte	.LFB453
 2765 11b2 0C000000 		.4byte	.LFE453-.LFB453
 2766 11b6 01       		.uleb128 0x1
 2767 11b7 9C       		.byte	0x9c
 2768 11b8 2C       		.uleb128 0x2c
 2769 11b9 08070000 		.4byte	.LASF222
 2770 11bd 01       		.byte	0x1
 2771 11be 7C       		.byte	0x7c
 2772 11bf 06       		.byte	0x6
 2773 11c0 9A0C0000 		.4byte	0xc9a
 2774 11c4 00000000 		.4byte	.LFB452
 2775 11c8 1C000000 		.4byte	.LFE452-.LFB452
 2776 11cc 01       		.uleb128 0x1
 2777 11cd 9C       		.byte	0x9c
 2778 11ce E7110000 		.4byte	0x11e7
 2779 11d2 2D       		.uleb128 0x2d
 2780 11d3 8F020000 		.4byte	.LASF215
 2781 11d7 01       		.byte	0x1
 2782 11d8 7C       		.byte	0x7c
 2783 11d9 1D       		.byte	0x1d
 2784 11da A8000000 		.4byte	0xa8
 2785 11de 14000000 		.4byte	.LLST6
 2786 11e2 0C000000 		.4byte	.LVUS6
 2787 11e6 00       		.byte	0
ARM GAS  C:\Users\DEVELO~1\AppData\Local\Temp\ccWjdWXP.s 			page 50


 2788 11e7 2E       		.uleb128 0x2e
 2789 11e8 B0050000 		.4byte	.LASF223
 2790 11ec 01       		.byte	0x1
 2791 11ed 75       		.byte	0x75
 2792 11ee 06       		.byte	0x6
 2793 11ef 00000000 		.4byte	.LFB451
 2794 11f3 38000000 		.4byte	.LFE451-.LFB451
 2795 11f7 01       		.uleb128 0x1
 2796 11f8 9C       		.byte	0x9c
 2797 11f9 5D120000 		.4byte	0x125d
 2798 11fd 1D       		.uleb128 0x1d
 2799 11fe 5D120000 		.4byte	0x125d
 2800 1202 00000000 		.4byte	.LBI22
 2801 1206 02       		.byte	.LVU58
 2802 1207 2A000000 		.4byte	.LLRL5
 2803 120b 76       		.byte	0x76
 2804 120c 05       		.byte	0x5
 2805 120d 2C120000 		.4byte	0x122c
 2806 1211 17       		.uleb128 0x17
 2807 1212 12000000 		.4byte	.LVL9
 2808 1216 86110000 		.4byte	0x1186
 2809 121a 08       		.uleb128 0x8
 2810 121b 01       		.uleb128 0x1
 2811 121c 50       		.byte	0x50
 2812 121d 02       		.uleb128 0x2
 2813 121e 74       		.byte	0x74
 2814 121f 00       		.sleb128 0
 2815 1220 08       		.uleb128 0x8
 2816 1221 01       		.uleb128 0x1
 2817 1222 51       		.byte	0x51
 2818 1223 01       		.uleb128 0x1
 2819 1224 38       		.byte	0x38
 2820 1225 08       		.uleb128 0x8
 2821 1226 01       		.uleb128 0x1
 2822 1227 52       		.byte	0x52
 2823 1228 01       		.uleb128 0x1
 2824 1229 31       		.byte	0x31
 2825 122a 00       		.byte	0
 2826 122b 00       		.byte	0
 2827 122c 17       		.uleb128 0x17
 2828 122d 26000000 		.4byte	.LVL10
 2829 1231 5B110000 		.4byte	0x115b
 2830 1235 08       		.uleb128 0x8
 2831 1236 01       		.uleb128 0x1
 2832 1237 50       		.byte	0x50
 2833 1238 05       		.uleb128 0x5
 2834 1239 03       		.byte	0x3
 2835 123a 00000000 		.4byte	.LANCHOR4
 2836 123e 08       		.uleb128 0x8
 2837 123f 01       		.uleb128 0x1
 2838 1240 51       		.byte	0x51
 2839 1241 03       		.uleb128 0x3
 2840 1242 0A       		.byte	0xa
 2841 1243 E002     		.2byte	0x2e0
 2842 1245 08       		.uleb128 0x8
 2843 1246 01       		.uleb128 0x1
 2844 1247 52       		.byte	0x52
ARM GAS  C:\Users\DEVELO~1\AppData\Local\Temp\ccWjdWXP.s 			page 51


 2845 1248 02       		.uleb128 0x2
 2846 1249 08       		.byte	0x8
 2847 124a 80       		.byte	0x80
 2848 124b 08       		.uleb128 0x8
 2849 124c 01       		.uleb128 0x1
 2850 124d 53       		.byte	0x53
 2851 124e 05       		.uleb128 0x5
 2852 124f 03       		.byte	0x3
 2853 1250 00000000 		.4byte	buttonThread
 2854 1254 08       		.uleb128 0x8
 2855 1255 02       		.uleb128 0x2
 2856 1256 7D       		.byte	0x7d
 2857 1257 00       		.sleb128 0
 2858 1258 02       		.uleb128 0x2
 2859 1259 75       		.byte	0x75
 2860 125a 00       		.sleb128 0
 2861 125b 00       		.byte	0
 2862 125c 00       		.byte	0
 2863 125d 2F       		.uleb128 0x2f
 2864 125e DC020000 		.4byte	.LASF224
 2865 1262 01       		.byte	0x1
 2866 1263 6E       		.byte	0x6e
 2867 1264 06       		.byte	0x6
 2868 1265 01       		.byte	0x1
 2869 1266 30       		.uleb128 0x30
 2870 1267 2B060000 		.4byte	.LASF225
 2871 126b 01       		.byte	0x1
 2872 126c 5E       		.byte	0x5e
 2873 126d 08       		.byte	0x8
 2874 126e 00000000 		.4byte	.LFB449
 2875 1272 90000000 		.4byte	.LFE449-.LFB449
 2876 1276 01       		.uleb128 0x1
 2877 1277 9C       		.byte	0x9c
 2878 1278 2A130000 		.4byte	0x132a
 2879 127c 31       		.uleb128 0x31
 2880 127d 61726700 		.ascii	"arg\000"
 2881 1281 01       		.byte	0x1
 2882 1282 5E       		.byte	0x5e
 2883 1283 08       		.byte	0x8
 2884 1284 F7030000 		.4byte	0x3f7
 2885 1288 38000000 		.4byte	.LLST0
 2886 128c 34000000 		.4byte	.LVUS0
 2887 1290 1D       		.uleb128 0x1d
 2888 1291 5B130000 		.4byte	0x135b
 2889 1295 00000000 		.4byte	.LBI8
 2890 1299 03       		.byte	.LVU3
 2891 129a 0C000000 		.4byte	.LLRL1
 2892 129e 60       		.byte	0x60
 2893 129f 05       		.byte	0x5
 2894 12a0 B2120000 		.4byte	0x12b2
 2895 12a4 32       		.uleb128 0x32
 2896 12a5 68130000 		.4byte	0x1368
 2897 12a9 4E000000 		.4byte	.LLST2
 2898 12ad 4C000000 		.4byte	.LVUS2
 2899 12b1 00       		.byte	0
 2900 12b2 1D       		.uleb128 0x1d
 2901 12b3 2A130000 		.4byte	0x132a
ARM GAS  C:\Users\DEVELO~1\AppData\Local\Temp\ccWjdWXP.s 			page 52


 2902 12b7 22000000 		.4byte	.LBI11
 2903 12bb 02       		.byte	.LVU19
 2904 12bc 18000000 		.4byte	.LLRL3
 2905 12c0 65       		.byte	0x65
 2906 12c1 09       		.byte	0x9
 2907 12c2 FD120000 		.4byte	0x12fd
 2908 12c6 33       		.uleb128 0x33
 2909 12c7 18000000 		.4byte	.LLRL3
 2910 12cb 34       		.uleb128 0x34
 2911 12cc 37130000 		.4byte	0x1337
 2912 12d0 02       		.uleb128 0x2
 2913 12d1 91       		.byte	0x91
 2914 12d2 74       		.sleb128 -12
 2915 12d3 35       		.uleb128 0x35
 2916 12d4 41130000 		.4byte	0x1341
 2917 12d8 5E000000 		.4byte	.LLST4
 2918 12dc 5C000000 		.4byte	.LVUS4
 2919 12e0 17       		.uleb128 0x17
 2920 12e1 3E000000 		.4byte	.LVL4
 2921 12e5 0C110000 		.4byte	0x110c
 2922 12e9 08       		.uleb128 0x8
 2923 12ea 01       		.uleb128 0x1
 2924 12eb 50       		.byte	0x50
 2925 12ec 02       		.uleb128 0x2
 2926 12ed 76       		.byte	0x76
 2927 12ee 00       		.sleb128 0
 2928 12ef 08       		.uleb128 0x8
 2929 12f0 01       		.uleb128 0x1
 2930 12f1 51       		.byte	0x51
 2931 12f2 01       		.uleb128 0x1
 2932 12f3 33       		.byte	0x33
 2933 12f4 08       		.uleb128 0x8
 2934 12f5 01       		.uleb128 0x1
 2935 12f6 52       		.byte	0x52
 2936 12f7 02       		.uleb128 0x2
 2937 12f8 91       		.byte	0x91
 2938 12f9 74       		.sleb128 -12
 2939 12fa 00       		.byte	0
 2940 12fb 00       		.byte	0
 2941 12fc 00       		.byte	0
 2942 12fd 36       		.uleb128 0x36
 2943 12fe 1E000000 		.4byte	.LVL3
 2944 1302 3F110000 		.4byte	0x113f
 2945 1306 1A130000 		.4byte	0x131a
 2946 130a 08       		.uleb128 0x8
 2947 130b 01       		.uleb128 0x1
 2948 130c 50       		.byte	0x50
 2949 130d 02       		.uleb128 0x2
 2950 130e 76       		.byte	0x76
 2951 130f 00       		.sleb128 0
 2952 1310 08       		.uleb128 0x8
 2953 1311 01       		.uleb128 0x1
 2954 1312 51       		.byte	0x51
 2955 1313 05       		.uleb128 0x5
 2956 1314 03       		.byte	0x3
 2957 1315 00000000 		.4byte	.LANCHOR0
 2958 1319 00       		.byte	0
ARM GAS  C:\Users\DEVELO~1\AppData\Local\Temp\ccWjdWXP.s 			page 53


 2959 131a 17       		.uleb128 0x17
 2960 131b 6C000000 		.4byte	.LVL7
 2961 131f 2D110000 		.4byte	0x112d
 2962 1323 08       		.uleb128 0x8
 2963 1324 01       		.uleb128 0x1
 2964 1325 50       		.byte	0x50
 2965 1326 01       		.uleb128 0x1
 2966 1327 44       		.byte	0x44
 2967 1328 00       		.byte	0
 2968 1329 00       		.byte	0
 2969 132a 1F       		.uleb128 0x1f
 2970 132b 2E050000 		.4byte	.LASF216
 2971 132f 01       		.byte	0x1
 2972 1330 3E       		.byte	0x3e
 2973 1331 0D       		.byte	0xd
 2974 1332 01       		.byte	0x1
 2975 1333 4B130000 		.4byte	0x134b
 2976 1337 20       		.uleb128 0x20
 2977 1338 727800   		.ascii	"rx\000"
 2978 133b 40       		.byte	0x40
 2979 133c 0D       		.byte	0xd
 2980 133d 4B130000 		.4byte	0x134b
 2981 1341 20       		.uleb128 0x20
 2982 1342 6D00     		.ascii	"m\000"
 2983 1344 50       		.byte	0x50
 2984 1345 0E       		.byte	0xe
 2985 1346 D1000000 		.4byte	0xd1
 2986 134a 00       		.byte	0
 2987 134b 14       		.uleb128 0x14
 2988 134c A8000000 		.4byte	0xa8
 2989 1350 5B130000 		.4byte	0x135b
 2990 1354 15       		.uleb128 0x15
 2991 1355 A1000000 		.4byte	0xa1
 2992 1359 02       		.byte	0x2
 2993 135a 00       		.byte	0
 2994 135b 1F       		.uleb128 0x1f
 2995 135c 72000000 		.4byte	.LASF217
 2996 1360 02       		.byte	0x2
 2997 1361 A6       		.byte	0xa6
 2998 1362 14       		.byte	0x14
 2999 1363 03       		.byte	0x3
 3000 1364 75130000 		.4byte	0x1375
 3001 1368 37       		.uleb128 0x37
 3002 1369 9A070000 		.4byte	.LASF39
 3003 136d 02       		.byte	0x2
 3004 136e A6       		.byte	0xa6
 3005 136f 33       		.byte	0x33
 3006 1370 88030000 		.4byte	0x388
 3007 1374 00       		.byte	0
 3008 1375 38       		.uleb128 0x38
 3009 1376 5D120000 		.4byte	0x125d
 3010 137a 00000000 		.4byte	.LFB450
 3011 137e 18000000 		.4byte	.LFE450-.LFB450
 3012 1382 01       		.uleb128 0x1
 3013 1383 9C       		.byte	0x9c
 3014 1384 17       		.uleb128 0x17
 3015 1385 0E000000 		.4byte	.LVL8
ARM GAS  C:\Users\DEVELO~1\AppData\Local\Temp\ccWjdWXP.s 			page 54


 3016 1389 86110000 		.4byte	0x1186
 3017 138d 08       		.uleb128 0x8
 3018 138e 01       		.uleb128 0x1
 3019 138f 50       		.byte	0x50
 3020 1390 02       		.uleb128 0x2
 3021 1391 74       		.byte	0x74
 3022 1392 00       		.sleb128 0
 3023 1393 08       		.uleb128 0x8
 3024 1394 01       		.uleb128 0x1
 3025 1395 51       		.byte	0x51
 3026 1396 01       		.uleb128 0x1
 3027 1397 38       		.byte	0x38
 3028 1398 08       		.uleb128 0x8
 3029 1399 01       		.uleb128 0x1
 3030 139a 52       		.byte	0x52
 3031 139b 01       		.uleb128 0x1
 3032 139c 31       		.byte	0x31
 3033 139d 00       		.byte	0
 3034 139e 00       		.byte	0
 3035 139f 00       		.byte	0
 3036              		.section	.debug_abbrev,"",%progbits
 3037              	.Ldebug_abbrev0:
 3038 0000 01       		.uleb128 0x1
 3039 0001 0D       		.uleb128 0xd
 3040 0002 00       		.byte	0
 3041 0003 03       		.uleb128 0x3
 3042 0004 0E       		.uleb128 0xe
 3043 0005 3A       		.uleb128 0x3a
 3044 0006 0B       		.uleb128 0xb
 3045 0007 3B       		.uleb128 0x3b
 3046 0008 0B       		.uleb128 0xb
 3047 0009 39       		.uleb128 0x39
 3048 000a 0B       		.uleb128 0xb
 3049 000b 49       		.uleb128 0x49
 3050 000c 13       		.uleb128 0x13
 3051 000d 38       		.uleb128 0x38
 3052 000e 0B       		.uleb128 0xb
 3053 000f 00       		.byte	0
 3054 0010 00       		.byte	0
 3055 0011 02       		.uleb128 0x2
 3056 0012 16       		.uleb128 0x16
 3057 0013 00       		.byte	0
 3058 0014 03       		.uleb128 0x3
 3059 0015 0E       		.uleb128 0xe
 3060 0016 3A       		.uleb128 0x3a
 3061 0017 0B       		.uleb128 0xb
 3062 0018 3B       		.uleb128 0x3b
 3063 0019 0B       		.uleb128 0xb
 3064 001a 39       		.uleb128 0x39
 3065 001b 0B       		.uleb128 0xb
 3066 001c 49       		.uleb128 0x49
 3067 001d 13       		.uleb128 0x13
 3068 001e 00       		.byte	0
 3069 001f 00       		.byte	0
 3070 0020 03       		.uleb128 0x3
 3071 0021 0D       		.uleb128 0xd
 3072 0022 00       		.byte	0
ARM GAS  C:\Users\DEVELO~1\AppData\Local\Temp\ccWjdWXP.s 			page 55


 3073 0023 03       		.uleb128 0x3
 3074 0024 0E       		.uleb128 0xe
 3075 0025 3A       		.uleb128 0x3a
 3076 0026 0B       		.uleb128 0xb
 3077 0027 3B       		.uleb128 0x3b
 3078 0028 05       		.uleb128 0x5
 3079 0029 39       		.uleb128 0x39
 3080 002a 0B       		.uleb128 0xb
 3081 002b 49       		.uleb128 0x49
 3082 002c 13       		.uleb128 0x13
 3083 002d 38       		.uleb128 0x38
 3084 002e 0B       		.uleb128 0xb
 3085 002f 00       		.byte	0
 3086 0030 00       		.byte	0
 3087 0031 04       		.uleb128 0x4
 3088 0032 0D       		.uleb128 0xd
 3089 0033 00       		.byte	0
 3090 0034 03       		.uleb128 0x3
 3091 0035 08       		.uleb128 0x8
 3092 0036 3A       		.uleb128 0x3a
 3093 0037 0B       		.uleb128 0xb
 3094 0038 3B       		.uleb128 0x3b
 3095 0039 05       		.uleb128 0x5
 3096 003a 39       		.uleb128 0x39
 3097 003b 0B       		.uleb128 0xb
 3098 003c 49       		.uleb128 0x49
 3099 003d 13       		.uleb128 0x13
 3100 003e 38       		.uleb128 0x38
 3101 003f 0B       		.uleb128 0xb
 3102 0040 00       		.byte	0
 3103 0041 00       		.byte	0
 3104 0042 05       		.uleb128 0x5
 3105 0043 0F       		.uleb128 0xf
 3106 0044 00       		.byte	0
 3107 0045 0B       		.uleb128 0xb
 3108 0046 21       		.uleb128 0x21
 3109 0047 04       		.sleb128 4
 3110 0048 49       		.uleb128 0x49
 3111 0049 13       		.uleb128 0x13
 3112 004a 00       		.byte	0
 3113 004b 00       		.byte	0
 3114 004c 06       		.uleb128 0x6
 3115 004d 0D       		.uleb128 0xd
 3116 004e 00       		.byte	0
 3117 004f 03       		.uleb128 0x3
 3118 0050 08       		.uleb128 0x8
 3119 0051 3A       		.uleb128 0x3a
 3120 0052 0B       		.uleb128 0xb
 3121 0053 3B       		.uleb128 0x3b
 3122 0054 0B       		.uleb128 0xb
 3123 0055 39       		.uleb128 0x39
 3124 0056 0B       		.uleb128 0xb
 3125 0057 49       		.uleb128 0x49
 3126 0058 13       		.uleb128 0x13
 3127 0059 38       		.uleb128 0x38
 3128 005a 0B       		.uleb128 0xb
 3129 005b 00       		.byte	0
ARM GAS  C:\Users\DEVELO~1\AppData\Local\Temp\ccWjdWXP.s 			page 56


 3130 005c 00       		.byte	0
 3131 005d 07       		.uleb128 0x7
 3132 005e 05       		.uleb128 0x5
 3133 005f 00       		.byte	0
 3134 0060 49       		.uleb128 0x49
 3135 0061 13       		.uleb128 0x13
 3136 0062 00       		.byte	0
 3137 0063 00       		.byte	0
 3138 0064 08       		.uleb128 0x8
 3139 0065 49       		.uleb128 0x49
 3140 0066 00       		.byte	0
 3141 0067 02       		.uleb128 0x2
 3142 0068 18       		.uleb128 0x18
 3143 0069 7E       		.uleb128 0x7e
 3144 006a 18       		.uleb128 0x18
 3145 006b 00       		.byte	0
 3146 006c 00       		.byte	0
 3147 006d 09       		.uleb128 0x9
 3148 006e 13       		.uleb128 0x13
 3149 006f 01       		.byte	0x1
 3150 0070 03       		.uleb128 0x3
 3151 0071 0E       		.uleb128 0xe
 3152 0072 0B       		.uleb128 0xb
 3153 0073 0B       		.uleb128 0xb
 3154 0074 3A       		.uleb128 0x3a
 3155 0075 0B       		.uleb128 0xb
 3156 0076 3B       		.uleb128 0x3b
 3157 0077 0B       		.uleb128 0xb
 3158 0078 39       		.uleb128 0x39
 3159 0079 0B       		.uleb128 0xb
 3160 007a 01       		.uleb128 0x1
 3161 007b 13       		.uleb128 0x13
 3162 007c 00       		.byte	0
 3163 007d 00       		.byte	0
 3164 007e 0A       		.uleb128 0xa
 3165 007f 24       		.uleb128 0x24
 3166 0080 00       		.byte	0
 3167 0081 0B       		.uleb128 0xb
 3168 0082 0B       		.uleb128 0xb
 3169 0083 3E       		.uleb128 0x3e
 3170 0084 0B       		.uleb128 0xb
 3171 0085 03       		.uleb128 0x3
 3172 0086 0E       		.uleb128 0xe
 3173 0087 00       		.byte	0
 3174 0088 00       		.byte	0
 3175 0089 0B       		.uleb128 0xb
 3176 008a 13       		.uleb128 0x13
 3177 008b 01       		.byte	0x1
 3178 008c 0B       		.uleb128 0xb
 3179 008d 0B       		.uleb128 0xb
 3180 008e 3A       		.uleb128 0x3a
 3181 008f 0B       		.uleb128 0xb
 3182 0090 3B       		.uleb128 0x3b
 3183 0091 0B       		.uleb128 0xb
 3184 0092 39       		.uleb128 0x39
 3185 0093 0B       		.uleb128 0xb
 3186 0094 01       		.uleb128 0x1
ARM GAS  C:\Users\DEVELO~1\AppData\Local\Temp\ccWjdWXP.s 			page 57


 3187 0095 13       		.uleb128 0x13
 3188 0096 00       		.byte	0
 3189 0097 00       		.byte	0
 3190 0098 0C       		.uleb128 0xc
 3191 0099 16       		.uleb128 0x16
 3192 009a 00       		.byte	0
 3193 009b 03       		.uleb128 0x3
 3194 009c 0E       		.uleb128 0xe
 3195 009d 3A       		.uleb128 0x3a
 3196 009e 0B       		.uleb128 0xb
 3197 009f 3B       		.uleb128 0x3b
 3198 00a0 05       		.uleb128 0x5
 3199 00a1 39       		.uleb128 0x39
 3200 00a2 0B       		.uleb128 0xb
 3201 00a3 49       		.uleb128 0x49
 3202 00a4 13       		.uleb128 0x13
 3203 00a5 00       		.byte	0
 3204 00a6 00       		.byte	0
 3205 00a7 0D       		.uleb128 0xd
 3206 00a8 0D       		.uleb128 0xd
 3207 00a9 00       		.byte	0
 3208 00aa 03       		.uleb128 0x3
 3209 00ab 0E       		.uleb128 0xe
 3210 00ac 3A       		.uleb128 0x3a
 3211 00ad 21       		.uleb128 0x21
 3212 00ae 09       		.sleb128 9
 3213 00af 3B       		.uleb128 0x3b
 3214 00b0 05       		.uleb128 0x5
 3215 00b1 39       		.uleb128 0x39
 3216 00b2 0B       		.uleb128 0xb
 3217 00b3 49       		.uleb128 0x49
 3218 00b4 13       		.uleb128 0x13
 3219 00b5 00       		.byte	0
 3220 00b6 00       		.byte	0
 3221 00b7 0E       		.uleb128 0xe
 3222 00b8 0D       		.uleb128 0xd
 3223 00b9 00       		.byte	0
 3224 00ba 03       		.uleb128 0x3
 3225 00bb 08       		.uleb128 0x8
 3226 00bc 3A       		.uleb128 0x3a
 3227 00bd 0B       		.uleb128 0xb
 3228 00be 3B       		.uleb128 0x3b
 3229 00bf 0B       		.uleb128 0xb
 3230 00c0 39       		.uleb128 0x39
 3231 00c1 0B       		.uleb128 0xb
 3232 00c2 49       		.uleb128 0x49
 3233 00c3 13       		.uleb128 0x13
 3234 00c4 00       		.byte	0
 3235 00c5 00       		.byte	0
 3236 00c6 0F       		.uleb128 0xf
 3237 00c7 0D       		.uleb128 0xd
 3238 00c8 00       		.byte	0
 3239 00c9 03       		.uleb128 0x3
 3240 00ca 0E       		.uleb128 0xe
 3241 00cb 3A       		.uleb128 0x3a
 3242 00cc 0B       		.uleb128 0xb
 3243 00cd 3B       		.uleb128 0x3b
ARM GAS  C:\Users\DEVELO~1\AppData\Local\Temp\ccWjdWXP.s 			page 58


 3244 00ce 0B       		.uleb128 0xb
 3245 00cf 39       		.uleb128 0x39
 3246 00d0 0B       		.uleb128 0xb
 3247 00d1 49       		.uleb128 0x49
 3248 00d2 13       		.uleb128 0x13
 3249 00d3 00       		.byte	0
 3250 00d4 00       		.byte	0
 3251 00d5 10       		.uleb128 0x10
 3252 00d6 35       		.uleb128 0x35
 3253 00d7 00       		.byte	0
 3254 00d8 49       		.uleb128 0x49
 3255 00d9 13       		.uleb128 0x13
 3256 00da 00       		.byte	0
 3257 00db 00       		.byte	0
 3258 00dc 11       		.uleb128 0x11
 3259 00dd 13       		.uleb128 0x13
 3260 00de 01       		.byte	0x1
 3261 00df 0B       		.uleb128 0xb
 3262 00e0 0B       		.uleb128 0xb
 3263 00e1 3A       		.uleb128 0x3a
 3264 00e2 0B       		.uleb128 0xb
 3265 00e3 3B       		.uleb128 0x3b
 3266 00e4 05       		.uleb128 0x5
 3267 00e5 39       		.uleb128 0x39
 3268 00e6 21       		.uleb128 0x21
 3269 00e7 09       		.sleb128 9
 3270 00e8 01       		.uleb128 0x1
 3271 00e9 13       		.uleb128 0x13
 3272 00ea 00       		.byte	0
 3273 00eb 00       		.byte	0
 3274 00ec 12       		.uleb128 0x12
 3275 00ed 26       		.uleb128 0x26
 3276 00ee 00       		.byte	0
 3277 00ef 49       		.uleb128 0x49
 3278 00f0 13       		.uleb128 0x13
 3279 00f1 00       		.byte	0
 3280 00f2 00       		.byte	0
 3281 00f3 13       		.uleb128 0x13
 3282 00f4 17       		.uleb128 0x17
 3283 00f5 01       		.byte	0x1
 3284 00f6 0B       		.uleb128 0xb
 3285 00f7 0B       		.uleb128 0xb
 3286 00f8 3A       		.uleb128 0x3a
 3287 00f9 0B       		.uleb128 0xb
 3288 00fa 3B       		.uleb128 0x3b
 3289 00fb 0B       		.uleb128 0xb
 3290 00fc 39       		.uleb128 0x39
 3291 00fd 0B       		.uleb128 0xb
 3292 00fe 01       		.uleb128 0x1
 3293 00ff 13       		.uleb128 0x13
 3294 0100 00       		.byte	0
 3295 0101 00       		.byte	0
 3296 0102 14       		.uleb128 0x14
 3297 0103 01       		.uleb128 0x1
 3298 0104 01       		.byte	0x1
 3299 0105 49       		.uleb128 0x49
 3300 0106 13       		.uleb128 0x13
ARM GAS  C:\Users\DEVELO~1\AppData\Local\Temp\ccWjdWXP.s 			page 59


 3301 0107 01       		.uleb128 0x1
 3302 0108 13       		.uleb128 0x13
 3303 0109 00       		.byte	0
 3304 010a 00       		.byte	0
 3305 010b 15       		.uleb128 0x15
 3306 010c 21       		.uleb128 0x21
 3307 010d 00       		.byte	0
 3308 010e 49       		.uleb128 0x49
 3309 010f 13       		.uleb128 0x13
 3310 0110 2F       		.uleb128 0x2f
 3311 0111 0B       		.uleb128 0xb
 3312 0112 00       		.byte	0
 3313 0113 00       		.byte	0
 3314 0114 16       		.uleb128 0x16
 3315 0115 28       		.uleb128 0x28
 3316 0116 00       		.byte	0
 3317 0117 03       		.uleb128 0x3
 3318 0118 0E       		.uleb128 0xe
 3319 0119 1C       		.uleb128 0x1c
 3320 011a 0B       		.uleb128 0xb
 3321 011b 00       		.byte	0
 3322 011c 00       		.byte	0
 3323 011d 17       		.uleb128 0x17
 3324 011e 48       		.uleb128 0x48
 3325 011f 01       		.byte	0x1
 3326 0120 7D       		.uleb128 0x7d
 3327 0121 01       		.uleb128 0x1
 3328 0122 7F       		.uleb128 0x7f
 3329 0123 13       		.uleb128 0x13
 3330 0124 00       		.byte	0
 3331 0125 00       		.byte	0
 3332 0126 18       		.uleb128 0x18
 3333 0127 13       		.uleb128 0x13
 3334 0128 01       		.byte	0x1
 3335 0129 03       		.uleb128 0x3
 3336 012a 0E       		.uleb128 0xe
 3337 012b 0B       		.uleb128 0xb
 3338 012c 0B       		.uleb128 0xb
 3339 012d 3A       		.uleb128 0x3a
 3340 012e 0B       		.uleb128 0xb
 3341 012f 3B       		.uleb128 0x3b
 3342 0130 05       		.uleb128 0x5
 3343 0131 39       		.uleb128 0x39
 3344 0132 0B       		.uleb128 0xb
 3345 0133 01       		.uleb128 0x1
 3346 0134 13       		.uleb128 0x13
 3347 0135 00       		.byte	0
 3348 0136 00       		.byte	0
 3349 0137 19       		.uleb128 0x19
 3350 0138 0D       		.uleb128 0xd
 3351 0139 00       		.byte	0
 3352 013a 03       		.uleb128 0x3
 3353 013b 0E       		.uleb128 0xe
 3354 013c 3A       		.uleb128 0x3a
 3355 013d 21       		.uleb128 0x21
 3356 013e 0D       		.sleb128 13
 3357 013f 3B       		.uleb128 0x3b
ARM GAS  C:\Users\DEVELO~1\AppData\Local\Temp\ccWjdWXP.s 			page 60


 3358 0140 0B       		.uleb128 0xb
 3359 0141 39       		.uleb128 0x39
 3360 0142 21       		.uleb128 0x21
 3361 0143 19       		.sleb128 25
 3362 0144 49       		.uleb128 0x49
 3363 0145 13       		.uleb128 0x13
 3364 0146 0D       		.uleb128 0xd
 3365 0147 0B       		.uleb128 0xb
 3366 0148 6B       		.uleb128 0x6b
 3367 0149 0B       		.uleb128 0xb
 3368 014a 00       		.byte	0
 3369 014b 00       		.byte	0
 3370 014c 1A       		.uleb128 0x1a
 3371 014d 15       		.uleb128 0x15
 3372 014e 01       		.byte	0x1
 3373 014f 27       		.uleb128 0x27
 3374 0150 19       		.uleb128 0x19
 3375 0151 01       		.uleb128 0x1
 3376 0152 13       		.uleb128 0x13
 3377 0153 00       		.byte	0
 3378 0154 00       		.byte	0
 3379 0155 1B       		.uleb128 0x1b
 3380 0156 34       		.uleb128 0x34
 3381 0157 00       		.byte	0
 3382 0158 03       		.uleb128 0x3
 3383 0159 0E       		.uleb128 0xe
 3384 015a 3A       		.uleb128 0x3a
 3385 015b 21       		.uleb128 0x21
 3386 015c 01       		.sleb128 1
 3387 015d 3B       		.uleb128 0x3b
 3388 015e 0B       		.uleb128 0xb
 3389 015f 39       		.uleb128 0x39
 3390 0160 0B       		.uleb128 0xb
 3391 0161 49       		.uleb128 0x49
 3392 0162 13       		.uleb128 0x13
 3393 0163 02       		.uleb128 0x2
 3394 0164 18       		.uleb128 0x18
 3395 0165 00       		.byte	0
 3396 0166 00       		.byte	0
 3397 0167 1C       		.uleb128 0x1c
 3398 0168 2E       		.uleb128 0x2e
 3399 0169 01       		.byte	0x1
 3400 016a 3F       		.uleb128 0x3f
 3401 016b 19       		.uleb128 0x19
 3402 016c 03       		.uleb128 0x3
 3403 016d 0E       		.uleb128 0xe
 3404 016e 3A       		.uleb128 0x3a
 3405 016f 0B       		.uleb128 0xb
 3406 0170 3B       		.uleb128 0x3b
 3407 0171 05       		.uleb128 0x5
 3408 0172 39       		.uleb128 0x39
 3409 0173 0B       		.uleb128 0xb
 3410 0174 27       		.uleb128 0x27
 3411 0175 19       		.uleb128 0x19
 3412 0176 49       		.uleb128 0x49
 3413 0177 13       		.uleb128 0x13
 3414 0178 3C       		.uleb128 0x3c
ARM GAS  C:\Users\DEVELO~1\AppData\Local\Temp\ccWjdWXP.s 			page 61


 3415 0179 19       		.uleb128 0x19
 3416 017a 01       		.uleb128 0x1
 3417 017b 13       		.uleb128 0x13
 3418 017c 00       		.byte	0
 3419 017d 00       		.byte	0
 3420 017e 1D       		.uleb128 0x1d
 3421 017f 1D       		.uleb128 0x1d
 3422 0180 01       		.byte	0x1
 3423 0181 31       		.uleb128 0x31
 3424 0182 13       		.uleb128 0x13
 3425 0183 52       		.uleb128 0x52
 3426 0184 01       		.uleb128 0x1
 3427 0185 B842     		.uleb128 0x2138
 3428 0187 0B       		.uleb128 0xb
 3429 0188 55       		.uleb128 0x55
 3430 0189 17       		.uleb128 0x17
 3431 018a 58       		.uleb128 0x58
 3432 018b 21       		.uleb128 0x21
 3433 018c 01       		.sleb128 1
 3434 018d 59       		.uleb128 0x59
 3435 018e 0B       		.uleb128 0xb
 3436 018f 57       		.uleb128 0x57
 3437 0190 0B       		.uleb128 0xb
 3438 0191 01       		.uleb128 0x1
 3439 0192 13       		.uleb128 0x13
 3440 0193 00       		.byte	0
 3441 0194 00       		.byte	0
 3442 0195 1E       		.uleb128 0x1e
 3443 0196 2E       		.uleb128 0x2e
 3444 0197 01       		.byte	0x1
 3445 0198 3F       		.uleb128 0x3f
 3446 0199 19       		.uleb128 0x19
 3447 019a 03       		.uleb128 0x3
 3448 019b 0E       		.uleb128 0xe
 3449 019c 3A       		.uleb128 0x3a
 3450 019d 0B       		.uleb128 0xb
 3451 019e 3B       		.uleb128 0x3b
 3452 019f 05       		.uleb128 0x5
 3453 01a0 39       		.uleb128 0x39
 3454 01a1 21       		.uleb128 0x21
 3455 01a2 08       		.sleb128 8
 3456 01a3 27       		.uleb128 0x27
 3457 01a4 19       		.uleb128 0x19
 3458 01a5 3C       		.uleb128 0x3c
 3459 01a6 19       		.uleb128 0x19
 3460 01a7 01       		.uleb128 0x1
 3461 01a8 13       		.uleb128 0x13
 3462 01a9 00       		.byte	0
 3463 01aa 00       		.byte	0
 3464 01ab 1F       		.uleb128 0x1f
 3465 01ac 2E       		.uleb128 0x2e
 3466 01ad 01       		.byte	0x1
 3467 01ae 03       		.uleb128 0x3
 3468 01af 0E       		.uleb128 0xe
 3469 01b0 3A       		.uleb128 0x3a
 3470 01b1 0B       		.uleb128 0xb
 3471 01b2 3B       		.uleb128 0x3b
ARM GAS  C:\Users\DEVELO~1\AppData\Local\Temp\ccWjdWXP.s 			page 62


 3472 01b3 0B       		.uleb128 0xb
 3473 01b4 39       		.uleb128 0x39
 3474 01b5 0B       		.uleb128 0xb
 3475 01b6 27       		.uleb128 0x27
 3476 01b7 19       		.uleb128 0x19
 3477 01b8 20       		.uleb128 0x20
 3478 01b9 0B       		.uleb128 0xb
 3479 01ba 01       		.uleb128 0x1
 3480 01bb 13       		.uleb128 0x13
 3481 01bc 00       		.byte	0
 3482 01bd 00       		.byte	0
 3483 01be 20       		.uleb128 0x20
 3484 01bf 34       		.uleb128 0x34
 3485 01c0 00       		.byte	0
 3486 01c1 03       		.uleb128 0x3
 3487 01c2 08       		.uleb128 0x8
 3488 01c3 3A       		.uleb128 0x3a
 3489 01c4 21       		.uleb128 0x21
 3490 01c5 01       		.sleb128 1
 3491 01c6 3B       		.uleb128 0x3b
 3492 01c7 0B       		.uleb128 0xb
 3493 01c8 39       		.uleb128 0x39
 3494 01c9 0B       		.uleb128 0xb
 3495 01ca 49       		.uleb128 0x49
 3496 01cb 13       		.uleb128 0x13
 3497 01cc 00       		.byte	0
 3498 01cd 00       		.byte	0
 3499 01ce 21       		.uleb128 0x21
 3500 01cf 11       		.uleb128 0x11
 3501 01d0 01       		.byte	0x1
 3502 01d1 25       		.uleb128 0x25
 3503 01d2 0E       		.uleb128 0xe
 3504 01d3 13       		.uleb128 0x13
 3505 01d4 0B       		.uleb128 0xb
 3506 01d5 03       		.uleb128 0x3
 3507 01d6 0E       		.uleb128 0xe
 3508 01d7 1B       		.uleb128 0x1b
 3509 01d8 0E       		.uleb128 0xe
 3510 01d9 55       		.uleb128 0x55
 3511 01da 17       		.uleb128 0x17
 3512 01db 11       		.uleb128 0x11
 3513 01dc 01       		.uleb128 0x1
 3514 01dd 10       		.uleb128 0x10
 3515 01de 17       		.uleb128 0x17
 3516 01df 00       		.byte	0
 3517 01e0 00       		.byte	0
 3518 01e1 22       		.uleb128 0x22
 3519 01e2 24       		.uleb128 0x24
 3520 01e3 00       		.byte	0
 3521 01e4 0B       		.uleb128 0xb
 3522 01e5 0B       		.uleb128 0xb
 3523 01e6 3E       		.uleb128 0x3e
 3524 01e7 0B       		.uleb128 0xb
 3525 01e8 03       		.uleb128 0x3
 3526 01e9 08       		.uleb128 0x8
 3527 01ea 00       		.byte	0
 3528 01eb 00       		.byte	0
ARM GAS  C:\Users\DEVELO~1\AppData\Local\Temp\ccWjdWXP.s 			page 63


 3529 01ec 23       		.uleb128 0x23
 3530 01ed 13       		.uleb128 0x13
 3531 01ee 01       		.byte	0x1
 3532 01ef 03       		.uleb128 0x3
 3533 01f0 0E       		.uleb128 0xe
 3534 01f1 0B       		.uleb128 0xb
 3535 01f2 05       		.uleb128 0x5
 3536 01f3 3A       		.uleb128 0x3a
 3537 01f4 0B       		.uleb128 0xb
 3538 01f5 3B       		.uleb128 0x3b
 3539 01f6 05       		.uleb128 0x5
 3540 01f7 39       		.uleb128 0x39
 3541 01f8 0B       		.uleb128 0xb
 3542 01f9 01       		.uleb128 0x1
 3543 01fa 13       		.uleb128 0x13
 3544 01fb 00       		.byte	0
 3545 01fc 00       		.byte	0
 3546 01fd 24       		.uleb128 0x24
 3547 01fe 0F       		.uleb128 0xf
 3548 01ff 00       		.byte	0
 3549 0200 0B       		.uleb128 0xb
 3550 0201 0B       		.uleb128 0xb
 3551 0202 00       		.byte	0
 3552 0203 00       		.byte	0
 3553 0204 25       		.uleb128 0x25
 3554 0205 13       		.uleb128 0x13
 3555 0206 01       		.byte	0x1
 3556 0207 0B       		.uleb128 0xb
 3557 0208 05       		.uleb128 0x5
 3558 0209 3A       		.uleb128 0x3a
 3559 020a 0B       		.uleb128 0xb
 3560 020b 3B       		.uleb128 0x3b
 3561 020c 0B       		.uleb128 0xb
 3562 020d 39       		.uleb128 0x39
 3563 020e 0B       		.uleb128 0xb
 3564 020f 01       		.uleb128 0x1
 3565 0210 13       		.uleb128 0x13
 3566 0211 00       		.byte	0
 3567 0212 00       		.byte	0
 3568 0213 26       		.uleb128 0x26
 3569 0214 17       		.uleb128 0x17
 3570 0215 01       		.byte	0x1
 3571 0216 0B       		.uleb128 0xb
 3572 0217 0B       		.uleb128 0xb
 3573 0218 3A       		.uleb128 0x3a
 3574 0219 0B       		.uleb128 0xb
 3575 021a 3B       		.uleb128 0x3b
 3576 021b 05       		.uleb128 0x5
 3577 021c 39       		.uleb128 0x39
 3578 021d 0B       		.uleb128 0xb
 3579 021e 01       		.uleb128 0x1
 3580 021f 13       		.uleb128 0x13
 3581 0220 00       		.byte	0
 3582 0221 00       		.byte	0
 3583 0222 27       		.uleb128 0x27
 3584 0223 34       		.uleb128 0x34
 3585 0224 00       		.byte	0
ARM GAS  C:\Users\DEVELO~1\AppData\Local\Temp\ccWjdWXP.s 			page 64


 3586 0225 03       		.uleb128 0x3
 3587 0226 08       		.uleb128 0x8
 3588 0227 3A       		.uleb128 0x3a
 3589 0228 0B       		.uleb128 0xb
 3590 0229 3B       		.uleb128 0x3b
 3591 022a 05       		.uleb128 0x5
 3592 022b 39       		.uleb128 0x39
 3593 022c 0B       		.uleb128 0xb
 3594 022d 49       		.uleb128 0x49
 3595 022e 13       		.uleb128 0x13
 3596 022f 3F       		.uleb128 0x3f
 3597 0230 19       		.uleb128 0x19
 3598 0231 3C       		.uleb128 0x3c
 3599 0232 19       		.uleb128 0x19
 3600 0233 00       		.byte	0
 3601 0234 00       		.byte	0
 3602 0235 28       		.uleb128 0x28
 3603 0236 04       		.uleb128 0x4
 3604 0237 01       		.byte	0x1
 3605 0238 3E       		.uleb128 0x3e
 3606 0239 0B       		.uleb128 0xb
 3607 023a 0B       		.uleb128 0xb
 3608 023b 0B       		.uleb128 0xb
 3609 023c 49       		.uleb128 0x49
 3610 023d 13       		.uleb128 0x13
 3611 023e 3A       		.uleb128 0x3a
 3612 023f 0B       		.uleb128 0xb
 3613 0240 3B       		.uleb128 0x3b
 3614 0241 0B       		.uleb128 0xb
 3615 0242 39       		.uleb128 0x39
 3616 0243 0B       		.uleb128 0xb
 3617 0244 01       		.uleb128 0x1
 3618 0245 13       		.uleb128 0x13
 3619 0246 00       		.byte	0
 3620 0247 00       		.byte	0
 3621 0248 29       		.uleb128 0x29
 3622 0249 34       		.uleb128 0x34
 3623 024a 00       		.byte	0
 3624 024b 03       		.uleb128 0x3
 3625 024c 0E       		.uleb128 0xe
 3626 024d 3A       		.uleb128 0x3a
 3627 024e 0B       		.uleb128 0xb
 3628 024f 3B       		.uleb128 0x3b
 3629 0250 05       		.uleb128 0x5
 3630 0251 39       		.uleb128 0x39
 3631 0252 0B       		.uleb128 0xb
 3632 0253 49       		.uleb128 0x49
 3633 0254 13       		.uleb128 0x13
 3634 0255 3F       		.uleb128 0x3f
 3635 0256 19       		.uleb128 0x19
 3636 0257 3C       		.uleb128 0x3c
 3637 0258 19       		.uleb128 0x19
 3638 0259 00       		.byte	0
 3639 025a 00       		.byte	0
 3640 025b 2A       		.uleb128 0x2a
 3641 025c 34       		.uleb128 0x34
 3642 025d 00       		.byte	0
ARM GAS  C:\Users\DEVELO~1\AppData\Local\Temp\ccWjdWXP.s 			page 65


 3643 025e 03       		.uleb128 0x3
 3644 025f 0E       		.uleb128 0xe
 3645 0260 3A       		.uleb128 0x3a
 3646 0261 0B       		.uleb128 0xb
 3647 0262 3B       		.uleb128 0x3b
 3648 0263 0B       		.uleb128 0xb
 3649 0264 39       		.uleb128 0x39
 3650 0265 0B       		.uleb128 0xb
 3651 0266 49       		.uleb128 0x49
 3652 0267 13       		.uleb128 0x13
 3653 0268 8801     		.uleb128 0x88
 3654 026a 0B       		.uleb128 0xb
 3655 026b 02       		.uleb128 0x2
 3656 026c 18       		.uleb128 0x18
 3657 026d 00       		.byte	0
 3658 026e 00       		.byte	0
 3659 026f 2B       		.uleb128 0x2b
 3660 0270 2E       		.uleb128 0x2e
 3661 0271 00       		.byte	0
 3662 0272 3F       		.uleb128 0x3f
 3663 0273 19       		.uleb128 0x19
 3664 0274 03       		.uleb128 0x3
 3665 0275 0E       		.uleb128 0xe
 3666 0276 3A       		.uleb128 0x3a
 3667 0277 0B       		.uleb128 0xb
 3668 0278 3B       		.uleb128 0x3b
 3669 0279 0B       		.uleb128 0xb
 3670 027a 39       		.uleb128 0x39
 3671 027b 0B       		.uleb128 0xb
 3672 027c 27       		.uleb128 0x27
 3673 027d 19       		.uleb128 0x19
 3674 027e 49       		.uleb128 0x49
 3675 027f 13       		.uleb128 0x13
 3676 0280 11       		.uleb128 0x11
 3677 0281 01       		.uleb128 0x1
 3678 0282 12       		.uleb128 0x12
 3679 0283 06       		.uleb128 0x6
 3680 0284 40       		.uleb128 0x40
 3681 0285 18       		.uleb128 0x18
 3682 0286 7A       		.uleb128 0x7a
 3683 0287 19       		.uleb128 0x19
 3684 0288 00       		.byte	0
 3685 0289 00       		.byte	0
 3686 028a 2C       		.uleb128 0x2c
 3687 028b 2E       		.uleb128 0x2e
 3688 028c 01       		.byte	0x1
 3689 028d 3F       		.uleb128 0x3f
 3690 028e 19       		.uleb128 0x19
 3691 028f 03       		.uleb128 0x3
 3692 0290 0E       		.uleb128 0xe
 3693 0291 3A       		.uleb128 0x3a
 3694 0292 0B       		.uleb128 0xb
 3695 0293 3B       		.uleb128 0x3b
 3696 0294 0B       		.uleb128 0xb
 3697 0295 39       		.uleb128 0x39
 3698 0296 0B       		.uleb128 0xb
 3699 0297 27       		.uleb128 0x27
ARM GAS  C:\Users\DEVELO~1\AppData\Local\Temp\ccWjdWXP.s 			page 66


 3700 0298 19       		.uleb128 0x19
 3701 0299 49       		.uleb128 0x49
 3702 029a 13       		.uleb128 0x13
 3703 029b 11       		.uleb128 0x11
 3704 029c 01       		.uleb128 0x1
 3705 029d 12       		.uleb128 0x12
 3706 029e 06       		.uleb128 0x6
 3707 029f 40       		.uleb128 0x40
 3708 02a0 18       		.uleb128 0x18
 3709 02a1 7A       		.uleb128 0x7a
 3710 02a2 19       		.uleb128 0x19
 3711 02a3 01       		.uleb128 0x1
 3712 02a4 13       		.uleb128 0x13
 3713 02a5 00       		.byte	0
 3714 02a6 00       		.byte	0
 3715 02a7 2D       		.uleb128 0x2d
 3716 02a8 05       		.uleb128 0x5
 3717 02a9 00       		.byte	0
 3718 02aa 03       		.uleb128 0x3
 3719 02ab 0E       		.uleb128 0xe
 3720 02ac 3A       		.uleb128 0x3a
 3721 02ad 0B       		.uleb128 0xb
 3722 02ae 3B       		.uleb128 0x3b
 3723 02af 0B       		.uleb128 0xb
 3724 02b0 39       		.uleb128 0x39
 3725 02b1 0B       		.uleb128 0xb
 3726 02b2 49       		.uleb128 0x49
 3727 02b3 13       		.uleb128 0x13
 3728 02b4 02       		.uleb128 0x2
 3729 02b5 17       		.uleb128 0x17
 3730 02b6 B742     		.uleb128 0x2137
 3731 02b8 17       		.uleb128 0x17
 3732 02b9 00       		.byte	0
 3733 02ba 00       		.byte	0
 3734 02bb 2E       		.uleb128 0x2e
 3735 02bc 2E       		.uleb128 0x2e
 3736 02bd 01       		.byte	0x1
 3737 02be 3F       		.uleb128 0x3f
 3738 02bf 19       		.uleb128 0x19
 3739 02c0 03       		.uleb128 0x3
 3740 02c1 0E       		.uleb128 0xe
 3741 02c2 3A       		.uleb128 0x3a
 3742 02c3 0B       		.uleb128 0xb
 3743 02c4 3B       		.uleb128 0x3b
 3744 02c5 0B       		.uleb128 0xb
 3745 02c6 39       		.uleb128 0x39
 3746 02c7 0B       		.uleb128 0xb
 3747 02c8 27       		.uleb128 0x27
 3748 02c9 19       		.uleb128 0x19
 3749 02ca 11       		.uleb128 0x11
 3750 02cb 01       		.uleb128 0x1
 3751 02cc 12       		.uleb128 0x12
 3752 02cd 06       		.uleb128 0x6
 3753 02ce 40       		.uleb128 0x40
 3754 02cf 18       		.uleb128 0x18
 3755 02d0 7A       		.uleb128 0x7a
 3756 02d1 19       		.uleb128 0x19
ARM GAS  C:\Users\DEVELO~1\AppData\Local\Temp\ccWjdWXP.s 			page 67


 3757 02d2 01       		.uleb128 0x1
 3758 02d3 13       		.uleb128 0x13
 3759 02d4 00       		.byte	0
 3760 02d5 00       		.byte	0
 3761 02d6 2F       		.uleb128 0x2f
 3762 02d7 2E       		.uleb128 0x2e
 3763 02d8 00       		.byte	0
 3764 02d9 3F       		.uleb128 0x3f
 3765 02da 19       		.uleb128 0x19
 3766 02db 03       		.uleb128 0x3
 3767 02dc 0E       		.uleb128 0xe
 3768 02dd 3A       		.uleb128 0x3a
 3769 02de 0B       		.uleb128 0xb
 3770 02df 3B       		.uleb128 0x3b
 3771 02e0 0B       		.uleb128 0xb
 3772 02e1 39       		.uleb128 0x39
 3773 02e2 0B       		.uleb128 0xb
 3774 02e3 27       		.uleb128 0x27
 3775 02e4 19       		.uleb128 0x19
 3776 02e5 20       		.uleb128 0x20
 3777 02e6 0B       		.uleb128 0xb
 3778 02e7 00       		.byte	0
 3779 02e8 00       		.byte	0
 3780 02e9 30       		.uleb128 0x30
 3781 02ea 2E       		.uleb128 0x2e
 3782 02eb 01       		.byte	0x1
 3783 02ec 03       		.uleb128 0x3
 3784 02ed 0E       		.uleb128 0xe
 3785 02ee 3A       		.uleb128 0x3a
 3786 02ef 0B       		.uleb128 0xb
 3787 02f0 3B       		.uleb128 0x3b
 3788 02f1 0B       		.uleb128 0xb
 3789 02f2 39       		.uleb128 0x39
 3790 02f3 0B       		.uleb128 0xb
 3791 02f4 27       		.uleb128 0x27
 3792 02f5 19       		.uleb128 0x19
 3793 02f6 11       		.uleb128 0x11
 3794 02f7 01       		.uleb128 0x1
 3795 02f8 12       		.uleb128 0x12
 3796 02f9 06       		.uleb128 0x6
 3797 02fa 40       		.uleb128 0x40
 3798 02fb 18       		.uleb128 0x18
 3799 02fc 7A       		.uleb128 0x7a
 3800 02fd 19       		.uleb128 0x19
 3801 02fe 01       		.uleb128 0x1
 3802 02ff 13       		.uleb128 0x13
 3803 0300 00       		.byte	0
 3804 0301 00       		.byte	0
 3805 0302 31       		.uleb128 0x31
 3806 0303 05       		.uleb128 0x5
 3807 0304 00       		.byte	0
 3808 0305 03       		.uleb128 0x3
 3809 0306 08       		.uleb128 0x8
 3810 0307 3A       		.uleb128 0x3a
 3811 0308 0B       		.uleb128 0xb
 3812 0309 3B       		.uleb128 0x3b
 3813 030a 0B       		.uleb128 0xb
ARM GAS  C:\Users\DEVELO~1\AppData\Local\Temp\ccWjdWXP.s 			page 68


 3814 030b 39       		.uleb128 0x39
 3815 030c 0B       		.uleb128 0xb
 3816 030d 49       		.uleb128 0x49
 3817 030e 13       		.uleb128 0x13
 3818 030f 02       		.uleb128 0x2
 3819 0310 17       		.uleb128 0x17
 3820 0311 B742     		.uleb128 0x2137
 3821 0313 17       		.uleb128 0x17
 3822 0314 00       		.byte	0
 3823 0315 00       		.byte	0
 3824 0316 32       		.uleb128 0x32
 3825 0317 05       		.uleb128 0x5
 3826 0318 00       		.byte	0
 3827 0319 31       		.uleb128 0x31
 3828 031a 13       		.uleb128 0x13
 3829 031b 02       		.uleb128 0x2
 3830 031c 17       		.uleb128 0x17
 3831 031d B742     		.uleb128 0x2137
 3832 031f 17       		.uleb128 0x17
 3833 0320 00       		.byte	0
 3834 0321 00       		.byte	0
 3835 0322 33       		.uleb128 0x33
 3836 0323 0B       		.uleb128 0xb
 3837 0324 01       		.byte	0x1
 3838 0325 55       		.uleb128 0x55
 3839 0326 17       		.uleb128 0x17
 3840 0327 00       		.byte	0
 3841 0328 00       		.byte	0
 3842 0329 34       		.uleb128 0x34
 3843 032a 34       		.uleb128 0x34
 3844 032b 00       		.byte	0
 3845 032c 31       		.uleb128 0x31
 3846 032d 13       		.uleb128 0x13
 3847 032e 02       		.uleb128 0x2
 3848 032f 18       		.uleb128 0x18
 3849 0330 00       		.byte	0
 3850 0331 00       		.byte	0
 3851 0332 35       		.uleb128 0x35
 3852 0333 34       		.uleb128 0x34
 3853 0334 00       		.byte	0
 3854 0335 31       		.uleb128 0x31
 3855 0336 13       		.uleb128 0x13
 3856 0337 02       		.uleb128 0x2
 3857 0338 17       		.uleb128 0x17
 3858 0339 B742     		.uleb128 0x2137
 3859 033b 17       		.uleb128 0x17
 3860 033c 00       		.byte	0
 3861 033d 00       		.byte	0
 3862 033e 36       		.uleb128 0x36
 3863 033f 48       		.uleb128 0x48
 3864 0340 01       		.byte	0x1
 3865 0341 7D       		.uleb128 0x7d
 3866 0342 01       		.uleb128 0x1
 3867 0343 7F       		.uleb128 0x7f
 3868 0344 13       		.uleb128 0x13
 3869 0345 01       		.uleb128 0x1
 3870 0346 13       		.uleb128 0x13
ARM GAS  C:\Users\DEVELO~1\AppData\Local\Temp\ccWjdWXP.s 			page 69


 3871 0347 00       		.byte	0
 3872 0348 00       		.byte	0
 3873 0349 37       		.uleb128 0x37
 3874 034a 05       		.uleb128 0x5
 3875 034b 00       		.byte	0
 3876 034c 03       		.uleb128 0x3
 3877 034d 0E       		.uleb128 0xe
 3878 034e 3A       		.uleb128 0x3a
 3879 034f 0B       		.uleb128 0xb
 3880 0350 3B       		.uleb128 0x3b
 3881 0351 0B       		.uleb128 0xb
 3882 0352 39       		.uleb128 0x39
 3883 0353 0B       		.uleb128 0xb
 3884 0354 49       		.uleb128 0x49
 3885 0355 13       		.uleb128 0x13
 3886 0356 00       		.byte	0
 3887 0357 00       		.byte	0
 3888 0358 38       		.uleb128 0x38
 3889 0359 2E       		.uleb128 0x2e
 3890 035a 01       		.byte	0x1
 3891 035b 31       		.uleb128 0x31
 3892 035c 13       		.uleb128 0x13
 3893 035d 11       		.uleb128 0x11
 3894 035e 01       		.uleb128 0x1
 3895 035f 12       		.uleb128 0x12
 3896 0360 06       		.uleb128 0x6
 3897 0361 40       		.uleb128 0x40
 3898 0362 18       		.uleb128 0x18
 3899 0363 7A       		.uleb128 0x7a
 3900 0364 19       		.uleb128 0x19
 3901 0365 00       		.byte	0
 3902 0366 00       		.byte	0
 3903 0367 00       		.byte	0
 3904              		.section	.debug_loclists,"",%progbits
 3905 0000 78000000 		.4byte	.Ldebug_loc3-.Ldebug_loc2
 3906              	.Ldebug_loc2:
 3907 0004 0500     		.2byte	0x5
 3908 0006 04       		.byte	0x4
 3909 0007 00       		.byte	0
 3910 0008 00000000 		.4byte	0
 3911              	.Ldebug_loc0:
 3912              	.LVUS6:
 3913 000c 00       		.uleb128 0
 3914 000d 00       		.uleb128 .LVU76
 3915 000e 00       		.uleb128 .LVU76
 3916 000f 00       		.uleb128 .LVU77
 3917 0010 00       		.uleb128 .LVU77
 3918 0011 00       		.uleb128 .LVU78
 3919 0012 00       		.uleb128 .LVU78
 3920 0013 00       		.uleb128 0
 3921              	.LLST6:
 3922 0014 06       		.byte	0x6
 3923 0015 00000000 		.4byte	.LVL11
 3924 0019 04       		.byte	0x4
 3925 001a 00       		.uleb128 .LVL11-.LVL11
 3926 001b 0C       		.uleb128 .LVL12-.LVL11
 3927 001c 01       		.uleb128 0x1
ARM GAS  C:\Users\DEVELO~1\AppData\Local\Temp\ccWjdWXP.s 			page 70


 3928 001d 50       		.byte	0x50
 3929 001e 04       		.byte	0x4
 3930 001f 0C       		.uleb128 .LVL12-.LVL11
 3931 0020 12       		.uleb128 .LVL13-.LVL11
 3932 0021 04       		.uleb128 0x4
 3933 0022 A3       		.byte	0xa3
 3934 0023 01       		.uleb128 0x1
 3935 0024 50       		.byte	0x50
 3936 0025 9F       		.byte	0x9f
 3937 0026 04       		.byte	0x4
 3938 0027 12       		.uleb128 .LVL13-.LVL11
 3939 0028 14       		.uleb128 .LVL14-.LVL11
 3940 0029 01       		.uleb128 0x1
 3941 002a 50       		.byte	0x50
 3942 002b 04       		.byte	0x4
 3943 002c 14       		.uleb128 .LVL14-.LVL11
 3944 002d 1C       		.uleb128 .LFE452-.LVL11
 3945 002e 04       		.uleb128 0x4
 3946 002f A3       		.byte	0xa3
 3947 0030 01       		.uleb128 0x1
 3948 0031 50       		.byte	0x50
 3949 0032 9F       		.byte	0x9f
 3950 0033 00       		.byte	0
 3951              	.LVUS0:
 3952 0034 00       		.uleb128 0
 3953 0035 00       		.uleb128 .LVU7
 3954 0036 00       		.uleb128 .LVU7
 3955 0037 00       		.uleb128 0
 3956              	.LLST0:
 3957 0038 06       		.byte	0x6
 3958 0039 00000000 		.4byte	.LVL0
 3959 003d 04       		.byte	0x4
 3960 003e 00       		.uleb128 .LVL0-.LVL0
 3961 003f 0A       		.uleb128 .LVL1-.LVL0
 3962 0040 01       		.uleb128 0x1
 3963 0041 50       		.byte	0x50
 3964 0042 04       		.byte	0x4
 3965 0043 0A       		.uleb128 .LVL1-.LVL0
 3966 0044 9001     		.uleb128 .LFE449-.LVL0
 3967 0046 04       		.uleb128 0x4
 3968 0047 A3       		.byte	0xa3
 3969 0048 01       		.uleb128 0x1
 3970 0049 50       		.byte	0x50
 3971 004a 9F       		.byte	0x9f
 3972 004b 00       		.byte	0
 3973              	.LVUS2:
 3974 004c 03       		.uleb128 .LVU3
 3975 004d 00       		.uleb128 .LVU12
 3976              	.LLST2:
 3977 004e 08       		.byte	0x8
 3978 004f 00000000 		.4byte	.LVL0
 3979 0053 18       		.uleb128 .LVL2-.LVL0
 3980 0054 06       		.uleb128 0x6
 3981 0055 03       		.byte	0x3
 3982 0056 00000000 		.4byte	.LC0
 3983 005a 9F       		.byte	0x9f
 3984 005b 00       		.byte	0
ARM GAS  C:\Users\DEVELO~1\AppData\Local\Temp\ccWjdWXP.s 			page 71


 3985              	.LVUS4:
 3986 005c 01       		.uleb128 .LVU44
 3987 005d 00       		.uleb128 .LVU47
 3988              	.LLST4:
 3989 005e 08       		.byte	0x8
 3990 005f 60000000 		.4byte	.LVL5
 3991 0063 08       		.uleb128 .LVL6-.LVL5
 3992 0064 16       		.uleb128 0x16
 3993 0065 7C       		.byte	0x7c
 3994 0066 00       		.sleb128 0
 3995 0067 08       		.byte	0x8
 3996 0068 FF       		.byte	0xff
 3997 0069 1A       		.byte	0x1a
 3998 006a 38       		.byte	0x38
 3999 006b 24       		.byte	0x24
 4000 006c 71       		.byte	0x71
 4001 006d 00       		.sleb128 0
 4002 006e 08       		.byte	0x8
 4003 006f FF       		.byte	0xff
 4004 0070 1A       		.byte	0x1a
 4005 0071 40       		.byte	0x40
 4006 0072 24       		.byte	0x24
 4007 0073 21       		.byte	0x21
 4008 0074 72       		.byte	0x72
 4009 0075 00       		.sleb128 0
 4010 0076 08       		.byte	0x8
 4011 0077 FF       		.byte	0xff
 4012 0078 1A       		.byte	0x1a
 4013 0079 21       		.byte	0x21
 4014 007a 9F       		.byte	0x9f
 4015 007b 00       		.byte	0
 4016              	.Ldebug_loc3:
 4017              		.section	.debug_aranges,"",%progbits
 4018 0000 3C000000 		.4byte	0x3c
 4019 0004 0200     		.2byte	0x2
 4020 0006 00000000 		.4byte	.Ldebug_info0
 4021 000a 04       		.byte	0x4
 4022 000b 00       		.byte	0
 4023 000c 0000     		.2byte	0
 4024 000e 0000     		.2byte	0
 4025 0010 00000000 		.4byte	.LFB449
 4026 0014 90000000 		.4byte	.LFE449-.LFB449
 4027 0018 00000000 		.4byte	.LFB450
 4028 001c 18000000 		.4byte	.LFE450-.LFB450
 4029 0020 00000000 		.4byte	.LFB451
 4030 0024 38000000 		.4byte	.LFE451-.LFB451
 4031 0028 00000000 		.4byte	.LFB452
 4032 002c 1C000000 		.4byte	.LFE452-.LFB452
 4033 0030 00000000 		.4byte	.LFB453
 4034 0034 0C000000 		.4byte	.LFE453-.LFB453
 4035 0038 00000000 		.4byte	0
 4036 003c 00000000 		.4byte	0
 4037              		.section	.debug_rnglists,"",%progbits
 4038              	.Ldebug_ranges0:
 4039 0000 5B000000 		.4byte	.Ldebug_ranges3-.Ldebug_ranges2
 4040              	.Ldebug_ranges2:
 4041 0004 0500     		.2byte	0x5
ARM GAS  C:\Users\DEVELO~1\AppData\Local\Temp\ccWjdWXP.s 			page 72


 4042 0006 04       		.byte	0x4
 4043 0007 00       		.byte	0
 4044 0008 00000000 		.4byte	0
 4045              	.LLRL1:
 4046 000c 05       		.byte	0x5
 4047 000d 00000000 		.4byte	.LBB8
 4048 0011 04       		.byte	0x4
 4049 0012 00       		.uleb128 .LBB8-.LBB8
 4050 0013 06       		.uleb128 .LBE8-.LBB8
 4051 0014 04       		.byte	0x4
 4052 0015 16       		.uleb128 .LBB16-.LBB8
 4053 0016 18       		.uleb128 .LBE16-.LBB8
 4054 0017 00       		.byte	0
 4055              	.LLRL3:
 4056 0018 05       		.byte	0x5
 4057 0019 10000000 		.4byte	.LBB11
 4058 001d 04       		.byte	0x4
 4059 001e 00       		.uleb128 .LBB11-.LBB11
 4060 001f 04       		.uleb128 .LBE11-.LBB11
 4061 0020 04       		.byte	0x4
 4062 0021 10       		.uleb128 .LBB17-.LBB11
 4063 0022 12       		.uleb128 .LBE17-.LBB11
 4064 0023 04       		.byte	0x4
 4065 0024 12       		.uleb128 .LBB18-.LBB11
 4066 0025 36       		.uleb128 .LBE18-.LBB11
 4067 0026 04       		.byte	0x4
 4068 0027 38       		.uleb128 .LBB19-.LBB11
 4069 0028 58       		.uleb128 .LBE19-.LBB11
 4070 0029 00       		.byte	0
 4071              	.LLRL5:
 4072 002a 05       		.byte	0x5
 4073 002b 00000000 		.4byte	.LBB22
 4074 002f 04       		.byte	0x4
 4075 0030 00       		.uleb128 .LBB22-.LBB22
 4076 0031 00       		.uleb128 .LBE22-.LBB22
 4077 0032 04       		.byte	0x4
 4078 0033 02       		.uleb128 .LBB28-.LBB22
 4079 0034 04       		.uleb128 .LBE28-.LBB22
 4080 0035 04       		.byte	0x4
 4081 0036 06       		.uleb128 .LBB29-.LBB22
 4082 0037 0C       		.uleb128 .LBE29-.LBB22
 4083 0038 04       		.byte	0x4
 4084 0039 0E       		.uleb128 .LBB30-.LBB22
 4085 003a 14       		.uleb128 .LBE30-.LBB22
 4086 003b 04       		.byte	0x4
 4087 003c 1A       		.uleb128 .LBB31-.LBB22
 4088 003d 1C       		.uleb128 .LBE31-.LBB22
 4089 003e 00       		.byte	0
 4090              	.LLRL7:
 4091 003f 07       		.byte	0x7
 4092 0040 00000000 		.4byte	.LFB449
 4093 0044 9001     		.uleb128 .LFE449-.LFB449
 4094 0046 07       		.byte	0x7
 4095 0047 00000000 		.4byte	.LFB450
 4096 004b 18       		.uleb128 .LFE450-.LFB450
 4097 004c 07       		.byte	0x7
 4098 004d 00000000 		.4byte	.LFB451
ARM GAS  C:\Users\DEVELO~1\AppData\Local\Temp\ccWjdWXP.s 			page 73


 4099 0051 38       		.uleb128 .LFE451-.LFB451
 4100 0052 07       		.byte	0x7
 4101 0053 00000000 		.4byte	.LFB452
 4102 0057 1C       		.uleb128 .LFE452-.LFB452
 4103 0058 07       		.byte	0x7
 4104 0059 00000000 		.4byte	.LFB453
 4105 005d 0C       		.uleb128 .LFE453-.LFB453
 4106 005e 00       		.byte	0
 4107              	.Ldebug_ranges3:
 4108              		.section	.debug_line,"",%progbits
 4109              	.Ldebug_line0:
 4110 0000 0F060000 		.section	.debug_str,"MS",%progbits,1
 4110      03001F04 
 4110      00000201 
 4110      FB0E0D00 
 4110      01010101 
 4111              	.LASF7:
 4112 0000 6C6F6E67 		.ascii	"long int\000"
 4112      20696E74 
 4112      00
 4113              	.LASF148:
 4114 0009 63737461 		.ascii	"cstack_base\000"
 4114      636B5F62 
 4114      61736500 
 4115              	.LASF93:
 4116 0015 42444D41 		.ascii	"BDMA_TypeDef\000"
 4116      5F547970 
 4116      65446566 
 4116      00
 4117              	.LASF162:
 4118 0022 62646D61 		.ascii	"bdma\000"
 4118      00
 4119              	.LASF140:
 4120 0027 77746D74 		.ascii	"wtmtxp\000"
 4120      787000
 4121              	.LASF196:
 4122 002e 63697263 		.ascii	"circular\000"
 4122      756C6172 
 4122      00
 4123              	.LASF131:
 4124 0037 74687265 		.ascii	"thread_reference_t\000"
 4124      61645F72 
 4124      65666572 
 4124      656E6365 
 4124      5F7400
 4125              	.LASF170:
 4126 004a 42535252 		.ascii	"BSRR\000"
 4126      00
 4127              	.LASF41:
 4128 004f 64697370 		.ascii	"dispose\000"
 4128      6F736500 
 4129              	.LASF22:
 4130 0057 706F7274 		.ascii	"port_stkline_t\000"
 4130      5F73746B 
 4130      6C696E65 
 4130      5F7400
 4131              	.LASF128:
ARM GAS  C:\Users\DEVELO~1\AppData\Local\Temp\ccWjdWXP.s 			page 74


 4132 0066 63685F72 		.ascii	"ch_registry\000"
 4132      65676973 
 4132      74727900 
 4133              	.LASF217:
 4134 0072 63685265 		.ascii	"chRegSetThreadName\000"
 4134      67536574 
 4134      54687265 
 4134      61644E61 
 4134      6D6500
 4135              	.LASF37:
 4136 0085 666C6167 		.ascii	"flags\000"
 4136      7300
 4137              	.LASF68:
 4138 008b 73797374 		.ascii	"systime_t\000"
 4138      696D655F 
 4138      7400
 4139              	.LASF47:
 4140 0095 7265616C 		.ascii	"realprio\000"
 4140      7072696F 
 4140      00
 4141              	.LASF81:
 4142 009e 62756666 		.ascii	"buffer\000"
 4142      657200
 4143              	.LASF79:
 4144 00a5 73757370 		.ascii	"suspended\000"
 4144      656E6465 
 4144      6400
 4145              	.LASF219:
 4146 00af 64726976 		.ascii	"drivers/drv_buttons.c\000"
 4146      6572732F 
 4146      6472765F 
 4146      62757474 
 4146      6F6E732E 
 4147              	.LASF45:
 4148 00c5 6570656E 		.ascii	"epending\000"
 4148      64696E67 
 4148      00
 4149              	.LASF13:
 4150 00ce 756E7369 		.ascii	"unsigned int\000"
 4150      676E6564 
 4150      20696E74 
 4150      00
 4151              	.LASF112:
 4152 00db 6E657874 		.ascii	"next\000"
 4152      00
 4153              	.LASF17:
 4154 00e0 75696E74 		.ascii	"uint32_t\000"
 4154      33325F74 
 4154      00
 4155              	.LASF54:
 4156 00e9 636F7265 		.ascii	"core_id\000"
 4156      5F696400 
 4157              	.LASF88:
 4158 00f1 43504152 		.ascii	"CPAR\000"
 4158      00
 4159              	.LASF38:
 4160 00f6 72656673 		.ascii	"refs\000"
ARM GAS  C:\Users\DEVELO~1\AppData\Local\Temp\ccWjdWXP.s 			page 75


 4160      00
 4161              	.LASF199:
 4162 00fb 6572726F 		.ascii	"error_cb\000"
 4162      725F6362 
 4162      00
 4163              	.LASF177:
 4164 0104 696F6C69 		.ascii	"ioline_t\000"
 4164      6E655F74 
 4164      00
 4165              	.LASF52:
 4166 010d 76746C69 		.ascii	"vtlist\000"
 4166      737400
 4167              	.LASF109:
 4168 0114 706F7274 		.ascii	"port_context\000"
 4168      5F636F6E 
 4168      74657874 
 4168      00
 4169              	.LASF144:
 4170 0121 63685F72 		.ascii	"ch_ready_list\000"
 4170      65616479 
 4170      5F6C6973 
 4170      7400
 4171              	.LASF83:
 4172 012f 4E445452 		.ascii	"NDTR\000"
 4172      00
 4173              	.LASF126:
 4174 0134 6C617374 		.ascii	"laststamp\000"
 4174      7374616D 
 4174      7000
 4175              	.LASF141:
 4176 013e 65776D61 		.ascii	"ewmask\000"
 4176      736B00
 4177              	.LASF115:
 4178 0145 70726576 		.ascii	"prev\000"
 4178      00
 4179              	.LASF111:
 4180 014a 63685F6C 		.ascii	"ch_list\000"
 4180      69737400 
 4181              	.LASF185:
 4182 0152 53504944 		.ascii	"SPIDriver\000"
 4182      72697665 
 4182      7200
 4183              	.LASF71:
 4184 015c 77746F62 		.ascii	"wtobjp\000"
 4184      6A7000
 4185              	.LASF104:
 4186 0163 52584352 		.ascii	"RXCRC\000"
 4186      4300
 4187              	.LASF87:
 4188 0169 434E4454 		.ascii	"CNDTR\000"
 4188      5200
 4189              	.LASF64:
 4190 016f 63685F73 		.ascii	"ch_system_debug\000"
 4190      79737465 
 4190      6D5F6465 
 4190      62756700 
 4191              	.LASF204:
ARM GAS  C:\Users\DEVELO~1\AppData\Local\Temp\ccWjdWXP.s 			page 76


 4192 017f 73706963 		.ascii	"spicb_t\000"
 4192      625F7400 
 4193              	.LASF133:
 4194 0187 6C697374 		.ascii	"list\000"
 4194      00
 4195              	.LASF120:
 4196 018c 63685F64 		.ascii	"ch_delta_list\000"
 4196      656C7461 
 4196      5F6C6973 
 4196      7400
 4197              	.LASF218:
 4198 019a 474E5520 		.ascii	"GNU C17 11.3.1 20220712 -mcpu=cortex-m7 -mthumb -mf"
 4198      43313720 
 4198      31312E33 
 4198      2E312032 
 4198      30323230 
 4199 01cd 6C6F6174 		.ascii	"loat-abi=hard -mfpu=fpv5-d16 -march=armv7e-m+fp.dp "
 4199      2D616269 
 4199      3D686172 
 4199      64202D6D 
 4199      6670753D 
 4200 0200 2D676764 		.ascii	"-ggdb -O2 -ffunction-sections -fdata-sections -fno-"
 4200      62202D4F 
 4200      32202D66 
 4200      66756E63 
 4200      74696F6E 
 4201 0233 636F6D6D 		.ascii	"common\000"
 4201      6F6E00
 4202              	.LASF138:
 4203 023a 73656E74 		.ascii	"sentmsg\000"
 4203      6D736700 
 4204              	.LASF208:
 4205 0242 62757474 		.ascii	"buttons_mask\000"
 4205      6F6E735F 
 4205      6D61736B 
 4205      00
 4206              	.LASF29:
 4207 024f 6576656E 		.ascii	"eventmask_t\000"
 4207      746D6173 
 4207      6B5F7400 
 4208              	.LASF157:
 4209 025b 69666372 		.ascii	"ifcr\000"
 4209      00
 4210              	.LASF78:
 4211 0260 74726163 		.ascii	"trace_event_t\000"
 4211      655F6576 
 4211      656E745F 
 4211      7400
 4212              	.LASF188:
 4213 026e 6D757465 		.ascii	"mutex\000"
 4213      7800
 4214              	.LASF158:
 4215 0274 73686966 		.ascii	"shift\000"
 4215      7400
 4216              	.LASF142:
 4217 027a 63685F73 		.ascii	"ch_semaphore\000"
 4217      656D6170 
ARM GAS  C:\Users\DEVELO~1\AppData\Local\Temp\ccWjdWXP.s 			page 77


 4217      686F7265 
 4217      00
 4218              	.LASF27:
 4219 0287 74707269 		.ascii	"tprio_t\000"
 4219      6F5F7400 
 4220              	.LASF215:
 4221 028f 696E6465 		.ascii	"index\000"
 4221      7800
 4222              	.LASF152:
 4223 0295 6F735F69 		.ascii	"os_instance_config_t\000"
 4223      6E737461 
 4223      6E63655F 
 4223      636F6E66 
 4223      69675F74 
 4224              	.LASF153:
 4225 02aa 7466756E 		.ascii	"tfunc_t\000"
 4225      635F7400 
 4226              	.LASF73:
 4227 02b2 68616C74 		.ascii	"halt\000"
 4227      00
 4228              	.LASF12:
 4229 02b7 6C6F6E67 		.ascii	"long long unsigned int\000"
 4229      206C6F6E 
 4229      6720756E 
 4229      7369676E 
 4229      65642069 
 4230              	.LASF72:
 4231 02ce 72656173 		.ascii	"reason\000"
 4231      6F6E00
 4232              	.LASF160:
 4233 02d5 76656374 		.ascii	"vector\000"
 4233      6F7200
 4234              	.LASF224:
 4235 02dc 6472765F 		.ascii	"drv_buttons_init\000"
 4235      62757474 
 4235      6F6E735F 
 4235      696E6974 
 4235      00
 4236              	.LASF134:
 4237 02ed 70717565 		.ascii	"pqueue\000"
 4237      756500
 4238              	.LASF4:
 4239 02f4 5F5F7569 		.ascii	"__uint16_t\000"
 4239      6E743136 
 4239      5F7400
 4240              	.LASF30:
 4241 02ff 636E745F 		.ascii	"cnt_t\000"
 4241      7400
 4242              	.LASF214:
 4243 0305 5F70616C 		.ascii	"_pal_lld_setgroupmode\000"
 4243      5F6C6C64 
 4243      5F736574 
 4243      67726F75 
 4243      706D6F64 
 4244              	.LASF23:
 4245 031b 73746B6C 		.ascii	"stkline_t\000"
 4245      696E655F 
ARM GAS  C:\Users\DEVELO~1\AppData\Local\Temp\ccWjdWXP.s 			page 78


 4245      7400
 4246              	.LASF200:
 4247 0325 7373706F 		.ascii	"ssport\000"
 4247      727400
 4248              	.LASF186:
 4249 032c 68616C5F 		.ascii	"hal_spi_driver\000"
 4249      7370695F 
 4249      64726976 
 4249      657200
 4250              	.LASF77:
 4251 033b 74696D65 		.ascii	"time\000"
 4251      00
 4252              	.LASF173:
 4253 0340 41465248 		.ascii	"AFRH\000"
 4253      00
 4254              	.LASF174:
 4255 0345 73746D33 		.ascii	"stm32_gpio_t\000"
 4255      325F6770 
 4255      696F5F74 
 4255      00
 4256              	.LASF33:
 4257 0352 6F776E65 		.ascii	"owner\000"
 4257      7200
 4258              	.LASF165:
 4259 0358 636C6561 		.ascii	"clear\000"
 4259      7200
 4260              	.LASF46:
 4261 035e 6D74786C 		.ascii	"mtxlist\000"
 4261      69737400 
 4262              	.LASF122:
 4263 0366 63685F76 		.ascii	"ch_virtual_timers_list\000"
 4263      69727475 
 4263      616C5F74 
 4263      696D6572 
 4263      735F6C69 
 4264              	.LASF55:
 4265 037d 72666375 		.ascii	"rfcu\000"
 4265      00
 4266              	.LASF32:
 4267 0382 74687265 		.ascii	"thread_t\000"
 4267      61645F74 
 4267      00
 4268              	.LASF211:
 4269 038b 73706953 		.ascii	"spiStart\000"
 4269      74617274 
 4269      00
 4270              	.LASF74:
 4271 0394 75736572 		.ascii	"user\000"
 4271      00
 4272              	.LASF20:
 4273 0399 73697A65 		.ascii	"size_t\000"
 4273      5F7400
 4274              	.LASF135:
 4275 03a0 7264796D 		.ascii	"rdymsg\000"
 4275      736700
 4276              	.LASF100:
 4277 03a7 52584452 		.ascii	"RXDR\000"
ARM GAS  C:\Users\DEVELO~1\AppData\Local\Temp\ccWjdWXP.s 			page 79


 4277      00
 4278              	.LASF116:
 4279 03ac 63685F70 		.ascii	"ch_priority_queue_t\000"
 4279      72696F72 
 4279      6974795F 
 4279      71756575 
 4279      655F7400 
 4280              	.LASF155:
 4281 03c0 5F426F6F 		.ascii	"_Bool\000"
 4281      6C00
 4282              	.LASF166:
 4283 03c6 4D4F4445 		.ascii	"MODER\000"
 4283      5200
 4284              	.LASF42:
 4285 03cc 6F626A65 		.ascii	"object\000"
 4285      637400
 4286              	.LASF61:
 4287 03d3 63685F72 		.ascii	"ch_rfcu\000"
 4287      66637500 
 4288              	.LASF143:
 4289 03db 63685F6D 		.ascii	"ch_mutex\000"
 4289      75746578 
 4289      00
 4290              	.LASF194:
 4291 03e4 53504943 		.ascii	"SPIConfig\000"
 4291      6F6E6669 
 4291      6700
 4292              	.LASF84:
 4293 03ee 4D304152 		.ascii	"M0AR\000"
 4293      00
 4294              	.LASF50:
 4295 03f3 63685F6F 		.ascii	"ch_os_instance\000"
 4295      735F696E 
 4295      7374616E 
 4295      636500
 4296              	.LASF178:
 4297 0402 696F706F 		.ascii	"ioportid_t\000"
 4297      72746964 
 4297      5F7400
 4298              	.LASF169:
 4299 040d 50555044 		.ascii	"PUPDR\000"
 4299      5200
 4300              	.LASF197:
 4301 0413 736C6176 		.ascii	"slave\000"
 4301      6500
 4302              	.LASF118:
 4303 0419 7072696F 		.ascii	"prio\000"
 4303      00
 4304              	.LASF66:
 4305 041e 63686172 		.ascii	"char\000"
 4305      00
 4306              	.LASF119:
 4307 0423 63685F64 		.ascii	"ch_delta_list_t\000"
 4307      656C7461 
 4307      5F6C6973 
 4307      745F7400 
 4308              	.LASF60:
ARM GAS  C:\Users\DEVELO~1\AppData\Local\Temp\ccWjdWXP.s 			page 80


 4309 0433 72666375 		.ascii	"rfcu_mask_t\000"
 4309      5F6D6173 
 4309      6B5F7400 
 4310              	.LASF6:
 4311 043f 5F5F696E 		.ascii	"__int32_t\000"
 4311      7433325F 
 4311      7400
 4312              	.LASF70:
 4313 0449 74696D65 		.ascii	"time_conv_t\000"
 4313      5F636F6E 
 4313      765F7400 
 4314              	.LASF191:
 4315 0455 7478646D 		.ascii	"txdmamode\000"
 4315      616D6F64 
 4315      6500
 4316              	.LASF34:
 4317 045f 77616261 		.ascii	"wabase\000"
 4317      736500
 4318              	.LASF220:
 4319 0466 433A5C43 		.ascii	"C:\\ChibiStudio\\ChibiOS-master\\demos\\STM32\\CUST"
 4319      68696269 
 4319      53747564 
 4319      696F5C43 
 4319      68696269 
 4320 0494 4F4D5F48 		.ascii	"OM_H743IIT6_maj\000"
 4320      37343349 
 4320      4954365F 
 4320      6D616A00 
 4321              	.LASF25:
 4322 04a4 74737461 		.ascii	"tstate_t\000"
 4322      74655F74 
 4322      00
 4323              	.LASF40:
 4324 04ad 72717565 		.ascii	"rqueue\000"
 4324      756500
 4325              	.LASF161:
 4326 04b4 73746D33 		.ascii	"stm32_dma_stream_t\000"
 4326      325F646D 
 4326      615F7374 
 4326      7265616D 
 4326      5F7400
 4327              	.LASF11:
 4328 04c7 5F5F7569 		.ascii	"__uint64_t\000"
 4328      6E743634 
 4328      5F7400
 4329              	.LASF14:
 4330 04d2 75696E74 		.ascii	"uint8_t\000"
 4330      385F7400 
 4331              	.LASF44:
 4332 04da 6D736771 		.ascii	"msgqueue\000"
 4332      75657565 
 4332      00
 4333              	.LASF103:
 4334 04e3 54584352 		.ascii	"TXCRC\000"
 4334      4300
 4335              	.LASF49:
 4336 04e9 63685F74 		.ascii	"ch_thread\000"
ARM GAS  C:\Users\DEVELO~1\AppData\Local\Temp\ccWjdWXP.s 			page 81


 4336      68726561 
 4336      6400
 4337              	.LASF98:
 4338 04f3 54584452 		.ascii	"TXDR\000"
 4338      00
 4339              	.LASF35:
 4340 04f8 7761656E 		.ascii	"waend\000"
 4340      6400
 4341              	.LASF67:
 4342 04fe 73797374 		.ascii	"system_debug_t\000"
 4342      656D5F64 
 4342      65627567 
 4342      5F7400
 4343              	.LASF10:
 4344 050d 6C6F6E67 		.ascii	"long long int\000"
 4344      206C6F6E 
 4344      6720696E 
 4344      7400
 4345              	.LASF19:
 4346 051b 75696E74 		.ascii	"uint_fast8_t\000"
 4346      5F666173 
 4346      74385F74 
 4346      00
 4347              	.LASF28:
 4348 0528 6D73675F 		.ascii	"msg_t\000"
 4348      7400
 4349              	.LASF216:
 4350 052e 62757474 		.ascii	"buttons_read_shiftreg\000"
 4350      6F6E735F 
 4350      72656164 
 4350      5F736869 
 4350      66747265 
 4351              	.LASF125:
 4352 0544 6C617374 		.ascii	"lastdelta\000"
 4352      64656C74 
 4352      6100
 4353              	.LASF209:
 4354 054e 77614275 		.ascii	"waButtons\000"
 4354      74746F6E 
 4354      7300
 4355              	.LASF175:
 4356 0558 696F706F 		.ascii	"ioportmask_t\000"
 4356      72746D61 
 4356      736B5F74 
 4356      00
 4357              	.LASF91:
 4358 0565 42444D41 		.ascii	"BDMA_Channel_TypeDef\000"
 4358      5F436861 
 4358      6E6E656C 
 4358      5F547970 
 4358      65446566 
 4359              	.LASF130:
 4360 057a 72656769 		.ascii	"registry_t\000"
 4360      73747279 
 4360      5F7400
 4361              	.LASF86:
 4362 0585 444D415F 		.ascii	"DMA_Stream_TypeDef\000"
ARM GAS  C:\Users\DEVELO~1\AppData\Local\Temp\ccWjdWXP.s 			page 82


 4362      53747265 
 4362      616D5F54 
 4362      79706544 
 4362      656600
 4363              	.LASF80:
 4364 0598 73697A65 		.ascii	"size\000"
 4364      00
 4365              	.LASF151:
 4366 059d 69646C65 		.ascii	"idlestack_end\000"
 4366      73746163 
 4366      6B5F656E 
 4366      6400
 4367              	.LASF62:
 4368 05ab 6D61736B 		.ascii	"mask\000"
 4368      00
 4369              	.LASF223:
 4370 05b0 6472765F 		.ascii	"drv_buttons_start\000"
 4370      62757474 
 4370      6F6E735F 
 4370      73746172 
 4370      7400
 4371              	.LASF195:
 4372 05c2 68616C5F 		.ascii	"hal_spi_config\000"
 4372      7370695F 
 4372      636F6E66 
 4372      696700
 4373              	.LASF132:
 4374 05d1 74687265 		.ascii	"thread_dispose_t\000"
 4374      61645F64 
 4374      6973706F 
 4374      73655F74 
 4374      00
 4375              	.LASF69:
 4376 05e2 73797369 		.ascii	"sysinterval_t\000"
 4376      6E746572 
 4376      76616C5F 
 4376      7400
 4377              	.LASF113:
 4378 05f0 63685F71 		.ascii	"ch_queue_t\000"
 4378      75657565 
 4378      5F7400
 4379              	.LASF212:
 4380 05fb 63685468 		.ascii	"chThdCreateStatic\000"
 4380      64437265 
 4380      61746553 
 4380      74617469 
 4380      6300
 4381              	.LASF150:
 4382 060d 69646C65 		.ascii	"idlestack_base\000"
 4382      73746163 
 4382      6B5F6261 
 4382      736500
 4383              	.LASF82:
 4384 061c 74726163 		.ascii	"trace_buffer_t\000"
 4384      655F6275 
 4384      66666572 
 4384      5F7400
ARM GAS  C:\Users\DEVELO~1\AppData\Local\Temp\ccWjdWXP.s 			page 83


 4385              	.LASF225:
 4386 062b 62757474 		.ascii	"buttonThread\000"
 4386      6F6E5468 
 4386      72656164 
 4386      00
 4387              	.LASF24:
 4388 0638 746D6F64 		.ascii	"tmode_t\000"
 4388      655F7400 
 4389              	.LASF57:
 4390 0640 69646C65 		.ascii	"idlethread\000"
 4390      74687265 
 4390      616400
 4391              	.LASF168:
 4392 064b 4F535045 		.ascii	"OSPEEDR\000"
 4392      45445200 
 4393              	.LASF171:
 4394 0653 4C4F434B 		.ascii	"LOCKR\000"
 4394      5200
 4395              	.LASF21:
 4396 0659 6C6F6E67 		.ascii	"long double\000"
 4396      20646F75 
 4396      626C6500 
 4397              	.LASF15:
 4398 0665 75696E74 		.ascii	"uint16_t\000"
 4398      31365F74 
 4398      00
 4399              	.LASF110:
 4400 066e 63685F6C 		.ascii	"ch_list_t\000"
 4400      6973745F 
 4400      7400
 4401              	.LASF179:
 4402 0678 5350495F 		.ascii	"SPI_UNINIT\000"
 4402      554E494E 
 4402      495400
 4403              	.LASF163:
 4404 0683 6368616E 		.ascii	"channel\000"
 4404      6E656C00 
 4405              	.LASF205:
 4406 068b 53504944 		.ascii	"SPID5\000"
 4406      3500
 4407              	.LASF56:
 4408 0691 636F6E66 		.ascii	"config\000"
 4408      696700
 4409              	.LASF154:
 4410 0698 6D757465 		.ascii	"mutex_t\000"
 4410      785F7400 
 4411              	.LASF94:
 4412 06a0 444D414D 		.ascii	"DMAMUX_Channel_TypeDef\000"
 4412      55585F43 
 4412      68616E6E 
 4412      656C5F54 
 4412      79706544 
 4413              	.LASF97:
 4414 06b7 52455345 		.ascii	"RESERVED0\000"
 4414      52564544 
 4414      3000
 4415              	.LASF99:
ARM GAS  C:\Users\DEVELO~1\AppData\Local\Temp\ccWjdWXP.s 			page 84


 4416 06c1 52455345 		.ascii	"RESERVED1\000"
 4416      52564544 
 4416      3100
 4417              	.LASF101:
 4418 06cb 52455345 		.ascii	"RESERVED2\000"
 4418      52564544 
 4418      3200
 4419              	.LASF2:
 4420 06d5 73686F72 		.ascii	"short int\000"
 4420      7420696E 
 4420      7400
 4421              	.LASF108:
 4422 06df 706F7274 		.ascii	"port_intctx\000"
 4422      5F696E74 
 4422      63747800 
 4423              	.LASF184:
 4424 06eb 73706973 		.ascii	"spistate_t\000"
 4424      74617465 
 4424      5F7400
 4425              	.LASF102:
 4426 06f6 43524350 		.ascii	"CRCPOLY\000"
 4426      4F4C5900 
 4427              	.LASF95:
 4428 06fe 43464731 		.ascii	"CFG1\000"
 4428      00
 4429              	.LASF96:
 4430 0703 43464732 		.ascii	"CFG2\000"
 4430      00
 4431              	.LASF222:
 4432 0708 6472765F 		.ascii	"drv_button_get\000"
 4432      62757474 
 4432      6F6E5F67 
 4432      657400
 4433              	.LASF105:
 4434 0717 55445244 		.ascii	"UDRDR\000"
 4434      5200
 4435              	.LASF167:
 4436 071d 4F545950 		.ascii	"OTYPER\000"
 4436      455200
 4437              	.LASF149:
 4438 0724 63737461 		.ascii	"cstack_end\000"
 4438      636B5F65 
 4438      6E6400
 4439              	.LASF147:
 4440 072f 63685F6F 		.ascii	"ch_os_instance_config\000"
 4440      735F696E 
 4440      7374616E 
 4440      63655F63 
 4440      6F6E6669 
 4441              	.LASF123:
 4442 0745 646C6973 		.ascii	"dlist\000"
 4442      7400
 4443              	.LASF90:
 4444 074b 434D3141 		.ascii	"CM1AR\000"
 4444      5200
 4445              	.LASF193:
 4446 0751 7478736F 		.ascii	"txsource\000"
ARM GAS  C:\Users\DEVELO~1\AppData\Local\Temp\ccWjdWXP.s 			page 85


 4446      75726365 
 4446      00
 4447              	.LASF124:
 4448 075a 6C617374 		.ascii	"lasttime\000"
 4448      74696D65 
 4448      00
 4449              	.LASF51:
 4450 0763 726C6973 		.ascii	"rlist\000"
 4450      7400
 4451              	.LASF198:
 4452 0769 64617461 		.ascii	"data_cb\000"
 4452      5F636200 
 4453              	.LASF181:
 4454 0771 5350495F 		.ascii	"SPI_READY\000"
 4454      52454144 
 4454      5900
 4455              	.LASF3:
 4456 077b 5F5F7569 		.ascii	"__uint8_t\000"
 4456      6E74385F 
 4456      7400
 4457              	.LASF221:
 4458 0785 6472765F 		.ascii	"drv_buttons_get_mask\000"
 4458      62757474 
 4458      6F6E735F 
 4458      6765745F 
 4458      6D61736B 
 4459              	.LASF39:
 4460 079a 6E616D65 		.ascii	"name\000"
 4460      00
 4461              	.LASF85:
 4462 079f 4D314152 		.ascii	"M1AR\000"
 4462      00
 4463              	.LASF26:
 4464 07a4 74726566 		.ascii	"trefs_t\000"
 4464      735F7400 
 4465              	.LASF9:
 4466 07ac 6C6F6E67 		.ascii	"long unsigned int\000"
 4466      20756E73 
 4466      69676E65 
 4466      6420696E 
 4466      7400
 4467              	.LASF146:
 4468 07be 72656164 		.ascii	"ready_list_t\000"
 4468      795F6C69 
 4468      73745F74 
 4468      00
 4469              	.LASF76:
 4470 07cb 72747374 		.ascii	"rtstamp\000"
 4470      616D7000 
 4471              	.LASF180:
 4472 07d3 5350495F 		.ascii	"SPI_STOP\000"
 4472      53544F50 
 4472      00
 4473              	.LASF16:
 4474 07dc 696E7433 		.ascii	"int32_t\000"
 4474      325F7400 
 4475              	.LASF63:
ARM GAS  C:\Users\DEVELO~1\AppData\Local\Temp\ccWjdWXP.s 			page 86


 4476 07e4 72666375 		.ascii	"rfcu_t\000"
 4476      5F7400
 4477              	.LASF129:
 4478 07eb 71756575 		.ascii	"queue\000"
 4478      6500
 4479              	.LASF59:
 4480 07f1 74726163 		.ascii	"trace_buffer\000"
 4480      655F6275 
 4480      66666572 
 4480      00
 4481              	.LASF139:
 4482 07fe 77747365 		.ascii	"wtsemp\000"
 4482      6D7000
 4483              	.LASF117:
 4484 0805 63685F70 		.ascii	"ch_priority_queue\000"
 4484      72696F72 
 4484      6974795F 
 4484      71756575 
 4484      6500
 4485              	.LASF114:
 4486 0817 63685F71 		.ascii	"ch_queue\000"
 4486      75657565 
 4486      00
 4487              	.LASF182:
 4488 0820 5350495F 		.ascii	"SPI_ACTIVE\000"
 4488      41435449 
 4488      564500
 4489              	.LASF75:
 4490 082b 74797065 		.ascii	"type\000"
 4490      00
 4491              	.LASF1:
 4492 0830 756E7369 		.ascii	"unsigned char\000"
 4492      676E6564 
 4492      20636861 
 4492      7200
 4493              	.LASF172:
 4494 083e 4146524C 		.ascii	"AFRL\000"
 4494      00
 4495              	.LASF8:
 4496 0843 5F5F7569 		.ascii	"__uint32_t\000"
 4496      6E743332 
 4496      5F7400
 4497              	.LASF43:
 4498 084e 77616974 		.ascii	"waiting\000"
 4498      696E6700 
 4499              	.LASF127:
 4500 0856 76697274 		.ascii	"virtual_timers_list_t\000"
 4500      75616C5F 
 4500      74696D65 
 4500      72735F6C 
 4500      6973745F 
 4501              	.LASF65:
 4502 086c 70616E69 		.ascii	"panic_msg\000"
 4502      635F6D73 
 4502      6700
 4503              	.LASF190:
 4504 0876 7278646D 		.ascii	"rxdmamode\000"
ARM GAS  C:\Users\DEVELO~1\AppData\Local\Temp\ccWjdWXP.s 			page 87


 4504      616D6F64 
 4504      6500
 4505              	.LASF213:
 4506 0880 63685468 		.ascii	"chThdSleep\000"
 4506      64536C65 
 4506      657000
 4507              	.LASF210:
 4508 088b 73706952 		.ascii	"spiReceive\000"
 4508      65636569 
 4508      766500
 4509              	.LASF106:
 4510 0896 49325343 		.ascii	"I2SCFGR\000"
 4510      46475200 
 4511              	.LASF58:
 4512 089e 6D61696E 		.ascii	"mainthread\000"
 4512      74687265 
 4512      616400
 4513              	.LASF36:
 4514 08a9 73746174 		.ascii	"state\000"
 4514      6500
 4515              	.LASF207:
 4516 08af 62757474 		.ascii	"buttons_raw\000"
 4516      6F6E735F 
 4516      72617700 
 4517              	.LASF107:
 4518 08bb 5350495F 		.ascii	"SPI_TypeDef\000"
 4518      54797065 
 4518      44656600 
 4519              	.LASF48:
 4520 08c7 6F735F69 		.ascii	"os_instance_t\000"
 4520      6E737461 
 4520      6E63655F 
 4520      7400
 4521              	.LASF18:
 4522 08d5 75696E74 		.ascii	"uint64_t\000"
 4522      36345F74 
 4522      00
 4523              	.LASF53:
 4524 08de 7265676C 		.ascii	"reglist\000"
 4524      69737400 
 4525              	.LASF176:
 4526 08e6 696F6D6F 		.ascii	"iomode_t\000"
 4526      64655F74 
 4526      00
 4527              	.LASF0:
 4528 08ef 7369676E 		.ascii	"signed char\000"
 4528      65642063 
 4528      68617200 
 4529              	.LASF121:
 4530 08fb 64656C74 		.ascii	"delta\000"
 4530      6100
 4531              	.LASF89:
 4532 0901 434D3041 		.ascii	"CM0AR\000"
 4532      5200
 4533              	.LASF5:
 4534 0907 73686F72 		.ascii	"short unsigned int\000"
 4534      7420756E 
ARM GAS  C:\Users\DEVELO~1\AppData\Local\Temp\ccWjdWXP.s 			page 88


 4534      7369676E 
 4534      65642069 
 4534      6E7400
 4535              	.LASF92:
 4536 091a 49464352 		.ascii	"IFCR\000"
 4536      00
 4537              	.LASF187:
 4538 091f 73796E63 		.ascii	"sync_transfer\000"
 4538      5F747261 
 4538      6E736665 
 4538      7200
 4539              	.LASF145:
 4540 092d 63757272 		.ascii	"current\000"
 4540      656E7400 
 4541              	.LASF206:
 4542 0935 73706963 		.ascii	"spicfg_buttons\000"
 4542      66675F62 
 4542      7574746F 
 4542      6E7300
 4543              	.LASF202:
 4544 0944 63666731 		.ascii	"cfg1\000"
 4544      00
 4545              	.LASF203:
 4546 0949 63666732 		.ascii	"cfg2\000"
 4546      00
 4547              	.LASF189:
 4548 094e 69735F62 		.ascii	"is_bdma\000"
 4548      646D6100 
 4549              	.LASF164:
 4550 0956 73746D33 		.ascii	"stm32_bdma_stream_t\000"
 4550      325F6264 
 4550      6D615F73 
 4550      74726561 
 4550      6D5F7400 
 4551              	.LASF137:
 4552 096a 77747472 		.ascii	"wttrp\000"
 4552      7000
 4553              	.LASF192:
 4554 0970 72787369 		.ascii	"rxsink\000"
 4554      6E6B00
 4555              	.LASF183:
 4556 0977 5350495F 		.ascii	"SPI_COMPLETE\000"
 4556      434F4D50 
 4556      4C455445 
 4556      00
 4557              	.LASF136:
 4558 0984 65786974 		.ascii	"exitcode\000"
 4558      636F6465 
 4558      00
 4559              	.LASF159:
 4560 098d 73656C66 		.ascii	"selfindex\000"
 4560      696E6465 
 4560      7800
 4561              	.LASF31:
 4562 0997 636F7265 		.ascii	"core_id_t\000"
 4562      5F69645F 
 4562      7400
ARM GAS  C:\Users\DEVELO~1\AppData\Local\Temp\ccWjdWXP.s 			page 89


 4563              	.LASF156:
 4564 09a1 73747265 		.ascii	"stream\000"
 4564      616D00
 4565              	.LASF201:
 4566 09a8 73737061 		.ascii	"sspad\000"
 4566      6400
 4567              		.ident	"GCC: (Arm GNU Toolchain 11.3.Rel1) 11.3.1 20220712"
ARM GAS  C:\Users\DEVELO~1\AppData\Local\Temp\ccWjdWXP.s 			page 90


DEFINED SYMBOLS
                            *ABS*:00000000 drv_buttons.c
C:\Users\DEVELO~1\AppData\Local\Temp\ccWjdWXP.s:19     .rodata.buttonThread.str1.4:00000000 $d
C:\Users\DEVELO~1\AppData\Local\Temp\ccWjdWXP.s:23     .text.buttonThread:00000000 $t
C:\Users\DEVELO~1\AppData\Local\Temp\ccWjdWXP.s:29     .text.buttonThread:00000000 buttonThread
C:\Users\DEVELO~1\AppData\Local\Temp\ccWjdWXP.s:168    .text.buttonThread:00000070 $d
C:\Users\DEVELO~1\AppData\Local\Temp\ccWjdWXP.s:180    .text.drv_buttons_init:00000000 $t
C:\Users\DEVELO~1\AppData\Local\Temp\ccWjdWXP.s:187    .text.drv_buttons_init:00000000 drv_buttons_init
C:\Users\DEVELO~1\AppData\Local\Temp\ccWjdWXP.s:214    .text.drv_buttons_init:00000014 $d
C:\Users\DEVELO~1\AppData\Local\Temp\ccWjdWXP.s:219    .text.drv_buttons_start:00000000 $t
C:\Users\DEVELO~1\AppData\Local\Temp\ccWjdWXP.s:226    .text.drv_buttons_start:00000000 drv_buttons_start
C:\Users\DEVELO~1\AppData\Local\Temp\ccWjdWXP.s:297    .text.drv_buttons_start:0000002c $d
C:\Users\DEVELO~1\AppData\Local\Temp\ccWjdWXP.s:304    .text.drv_button_get:00000000 $t
C:\Users\DEVELO~1\AppData\Local\Temp\ccWjdWXP.s:311    .text.drv_button_get:00000000 drv_button_get
C:\Users\DEVELO~1\AppData\Local\Temp\ccWjdWXP.s:342    .text.drv_button_get:00000018 $d
C:\Users\DEVELO~1\AppData\Local\Temp\ccWjdWXP.s:347    .text.drv_buttons_get_mask:00000000 $t
C:\Users\DEVELO~1\AppData\Local\Temp\ccWjdWXP.s:354    .text.drv_buttons_get_mask:00000000 drv_buttons_get_mask
C:\Users\DEVELO~1\AppData\Local\Temp\ccWjdWXP.s:370    .text.drv_buttons_get_mask:00000008 $d
C:\Users\DEVELO~1\AppData\Local\Temp\ccWjdWXP.s:375    .rodata:00000000 $d
C:\Users\DEVELO~1\AppData\Local\Temp\ccWjdWXP.s:381    .bss.buttons_mask:00000000 $d
C:\Users\DEVELO~1\AppData\Local\Temp\ccWjdWXP.s:385    .bss.buttons_mask:00000000 buttons_mask
C:\Users\DEVELO~1\AppData\Local\Temp\ccWjdWXP.s:388    .bss.buttons_raw:00000000 $d
C:\Users\DEVELO~1\AppData\Local\Temp\ccWjdWXP.s:392    .bss.buttons_raw:00000000 buttons_raw
C:\Users\DEVELO~1\AppData\Local\Temp\ccWjdWXP.s:395    .bss.waButtons:00000000 $d
C:\Users\DEVELO~1\AppData\Local\Temp\ccWjdWXP.s:399    .bss.waButtons:00000000 waButtons
C:\Users\DEVELO~1\AppData\Local\Temp\ccWjdWXP.s:402    .rodata.spicfg_buttons:00000000 $d
C:\Users\DEVELO~1\AppData\Local\Temp\ccWjdWXP.s:406    .rodata.spicfg_buttons:00000000 spicfg_buttons

UNDEFINED SYMBOLS
spiStart
spiReceive
chThdSleep
ch0
SPID5
_pal_lld_setgroupmode
chThdCreateStatic
