ARM GAS  C:\Users\DEVELO~1\AppData\Local\Temp\cccUcPR2.s 			page 1


   1              		.cpu cortex-m7
   2              		.arch armv7e-m
   3              		.fpu fpv5-d16
   4              		.eabi_attribute 28, 1
   5              		.eabi_attribute 20, 1
   6              		.eabi_attribute 21, 1
   7              		.eabi_attribute 23, 3
   8              		.eabi_attribute 24, 1
   9              		.eabi_attribute 25, 1
  10              		.eabi_attribute 26, 1
  11              		.eabi_attribute 30, 2
  12              		.eabi_attribute 34, 1
  13              		.eabi_attribute 18, 4
  14              		.file	"drv_leds_addr.c"
  15              		.text
  16              	.Ltext0:
  17              		.cfi_sections	.debug_frame
  18              		.section	.text.ws_prepare_buffer,"ax",%progbits
  19              		.align	1
  20              		.p2align 2,,3
  21              		.syntax unified
  22              		.thumb
  23              		.thumb_func
  24              		.type	ws_prepare_buffer, %function
  25              	ws_prepare_buffer:
  26              	.LFB451:
  27              		.file 1 "drivers/drv_leds_addr.c"
  28              		.loc 1 100 37 view -0
  29              		.cfi_startproc
  30              		@ args = 0, pretend = 0, frame = 0
  31              		@ frame_needed = 0, uses_anonymous_args = 0
  32              		@ link register save eliminated.
  33              		.loc 1 101 5 view .LVU1
  34              	.LVL0:
  35              		.loc 1 103 5 view .LVU2
  36              	.LBB127:
  37              		.loc 1 103 10 view .LVU3
  38              		.loc 1 103 28 view .LVU4
  39              	.LBE127:
  40              		.loc 1 100 37 is_stmt 0 view .LVU5
  41 0000 F0B4     		push	{r4, r5, r6, r7}
  42              		.cfi_def_cfa_offset 16
  43              		.cfi_offset 4, -16
  44              		.cfi_offset 5, -12
  45              		.cfi_offset 6, -8
  46              		.cfi_offset 7, -4
  47              	.LBB133:
  48              	.LBB128:
  49              	.LBB129:
  50              		.loc 1 111 28 view .LVU6
  51 0002 4FF0010C 		mov	ip, #1
  52 0006 114F     		ldr	r7, .L10
  53 0008 114D     		ldr	r5, .L10+4
  54              	.LBE129:
  55              	.LBE128:
  56              	.LBE133:
  57              		.loc 1 101 14 view .LVU7
ARM GAS  C:\Users\DEVELO~1\AppData\Local\Temp\cccUcPR2.s 			page 2


  58 000a 0024     		movs	r4, #0
  59              	.LVL1:
  60              	.L4:
  61              	.LBB134:
  62              	.LBB132:
  63              		.loc 1 104 9 is_stmt 1 view .LVU8
  64              		.loc 1 106 27 is_stmt 0 view .LVU9
  65 000c 7878     		ldrb	r0, [r7, #1]	@ zero_extendqisi2
  66              		.loc 1 104 18 view .LVU10
  67 000e 2A46     		mov	r2, r5
  68              		.loc 1 105 27 view .LVU11
  69 0010 3E78     		ldrb	r6, [r7]	@ zero_extendqisi2
  70              	.LBB130:
  71              		.loc 1 109 18 view .LVU12
  72 0012 1723     		movs	r3, #23
  73              	.LBE130:
  74              		.loc 1 106 30 view .LVU13
  75 0014 0002     		lsls	r0, r0, #8
  76              		.loc 1 107 27 view .LVU14
  77 0016 B978     		ldrb	r1, [r7, #2]	@ zero_extendqisi2
  78              		.loc 1 105 37 view .LVU15
  79 0018 40EA0640 		orr	r0, r0, r6, lsl #16
  80              		.loc 1 106 37 view .LVU16
  81 001c 0843     		orrs	r0, r0, r1
  82              	.LVL2:
  83              		.loc 1 109 9 is_stmt 1 view .LVU17
  84              	.LBB131:
  85              		.loc 1 109 14 view .LVU18
  86              		.loc 1 109 32 view .LVU19
  87              	.L3:
  88              		.loc 1 110 13 view .LVU20
  89              		.loc 1 111 28 is_stmt 0 view .LVU21
  90 001e 0CFA03F1 		lsl	r1, ip, r3
  91              		.loc 1 109 41 view .LVU22
  92 0022 013B     		subs	r3, r3, #1
  93              	.LVL3:
  94              		.loc 1 110 31 view .LVU23
  95 0024 0142     		tst	r1, r0
  96 0026 14BF     		ite	ne
  97 0028 5421     		movne	r1, #84
  98 002a 2421     		moveq	r1, #36
  99              		.loc 1 110 31 view .LVU24
 100 002c 22F8021F 		strh	r1, [r2, #2]!	@ movhi
 101              		.loc 1 109 41 is_stmt 1 view .LVU25
 102              	.LVL4:
 103              		.loc 1 109 32 view .LVU26
 104 0030 591C     		adds	r1, r3, #1
 105 0032 F4D1     		bne	.L3
 106              		.loc 1 110 27 is_stmt 0 discriminator 2 view .LVU27
 107 0034 1834     		adds	r4, r4, #24
 108              	.LBE131:
 109              	.LBE132:
 110              		.loc 1 103 48 is_stmt 1 discriminator 2 view .LVU28
 111              	.LVL5:
 112              		.loc 1 103 28 discriminator 2 view .LVU29
 113 0036 0337     		adds	r7, r7, #3
 114 0038 3035     		adds	r5, r5, #48
ARM GAS  C:\Users\DEVELO~1\AppData\Local\Temp\cccUcPR2.s 			page 3


 115 003a B4F5167F 		cmp	r4, #600
 116 003e E5D1     		bne	.L4
 117              	.LBE134:
 118              	.LBB135:
 119              		.loc 1 116 27 is_stmt 0 view .LVU30
 120 0040 A022     		movs	r2, #160
 121 0042 0021     		movs	r1, #0
 122 0044 0348     		ldr	r0, .L10+8
 123              	.LVL6:
 124              		.loc 1 116 27 view .LVU31
 125              	.LBE135:
 126              		.loc 1 120 1 view .LVU32
 127 0046 F0BC     		pop	{r4, r5, r6, r7}
 128              		.cfi_restore 7
 129              		.cfi_restore 6
 130              		.cfi_restore 5
 131              		.cfi_restore 4
 132              		.cfi_def_cfa_offset 0
 133              	.LVL7:
 134              	.LBB136:
 135              		.loc 1 116 27 view .LVU33
 136 0048 FFF7FEBF 		b	memset
 137              	.LVL8:
 138              	.L11:
 139              		.loc 1 116 27 view .LVU34
 140              		.align	2
 141              	.L10:
 142 004c 00000000 		.word	.LANCHOR0
 143 0050 FEFFFFFF 		.word	.LANCHOR1-2
 144 0054 B0040000 		.word	.LANCHOR1+1200
 145              	.LBE136:
 146              		.cfi_endproc
 147              	.LFE451:
 148              		.size	ws_prepare_buffer, .-ws_prepare_buffer
 149              		.section	.text.ws_dma_callback,"ax",%progbits
 150              		.align	1
 151              		.p2align 2,,3
 152              		.syntax unified
 153              		.thumb
 154              		.thumb_func
 155              		.type	ws_dma_callback, %function
 156              	ws_dma_callback:
 157              	.LVL9:
 158              	.LFB463:
 159              		.loc 1 315 54 is_stmt 1 view -0
 160              		.cfi_startproc
 161              		@ args = 0, pretend = 0, frame = 0
 162              		@ frame_needed = 0, uses_anonymous_args = 0
 163              		.loc 1 316 5 view .LVU36
 164              		.loc 1 318 5 view .LVU37
 165              		.loc 1 322 5 view .LVU38
 166              		.loc 1 322 8 is_stmt 0 view .LVU39
 167 0000 11F00D03 		ands	r3, r1, #13
 168              		.loc 1 315 54 view .LVU40
 169 0004 10B5     		push	{r4, lr}
 170              		.cfi_def_cfa_offset 8
 171              		.cfi_offset 4, -8
ARM GAS  C:\Users\DEVELO~1\AppData\Local\Temp\cccUcPR2.s 			page 4


 172              		.cfi_offset 14, -4
 173              		.loc 1 322 8 view .LVU41
 174 0006 11D1     		bne	.L22
 175              		.loc 1 332 5 is_stmt 1 view .LVU42
 176              		.loc 1 332 8 is_stmt 0 view .LVU43
 177 0008 8A06     		lsls	r2, r1, #26
 178 000a 0ED5     		bpl	.L12
 179              	.LBB176:
 180              	.LBI176:
 181              		.loc 1 315 13 is_stmt 1 view .LVU44
 182              	.LVL10:
 183              	.LBB177:
 184              		.loc 1 333 9 view .LVU45
 185              	.LBB178:
 186              	.LBI178:
 187              		.file 2 "./docs/ChibiOS/os/rt/include/chsys.h"
 188              		.loc 2 416 20 view .LVU46
 189              		.loc 2 418 3 view .LVU47
 190              	.LBB179:
 191              	.LBI179:
 192              		.file 3 "./docs/ChibiOS/os/common/ports/ARMv7-M/chcore.h"
 193              		.loc 3 879 27 view .LVU48
 194              		.loc 3 881 3 view .LVU49
 195              	.LBB180:
 196              	.LBI180:
 197              		.loc 3 840 27 view .LVU50
 198              		.loc 3 848 3 view .LVU51
 199              	.LBB181:
 200              	.LBI181:
 201              		.file 4 "./docs/ChibiOS/os/common/ext/ARM/CMSIS/Core/Include/cmsis_gcc.h"
 202              		.loc 4 491 27 view .LVU52
 203              	.LBB182:
 204              		.loc 4 493 3 view .LVU53
 205 000c 3022     		movs	r2, #48
 206              		.syntax unified
 207              	@ 493 "./docs/ChibiOS/os/common/ext/ARM/CMSIS/Core/Include/cmsis_gcc.h" 1
 208 000e 82F31188 		MSR basepri, r2
 209              	@ 0 "" 2
 210              	.LVL11:
 211              		.loc 4 493 3 is_stmt 0 view .LVU54
 212              		.thumb
 213              		.syntax unified
 214              	.LBE182:
 215              	.LBE181:
 216              	.LBE180:
 217              	.LBE179:
 218              		.loc 2 419 35 is_stmt 1 view .LVU55
 219              		.loc 2 420 30 view .LVU56
 220              	.LBE178:
 221              		.loc 1 334 9 view .LVU57
 222              	.LBB183:
 223              	.LBB184:
 224              		.file 5 "./docs/ChibiOS/os/oslib/include/chbsem.h"
 225              		.loc 5 265 15 is_stmt 0 view .LVU58
 226 0012 1148     		ldr	r0, .L23
 227              	.LVL12:
 228              		.loc 5 265 15 view .LVU59
ARM GAS  C:\Users\DEVELO~1\AppData\Local\Temp\cccUcPR2.s 			page 5


 229              	.LBE184:
 230              	.LBE183:
 231              		.loc 1 335 28 view .LVU60
 232 0014 0121     		movs	r1, #1
 233              	.LVL13:
 234              		.loc 1 334 22 view .LVU61
 235 0016 114C     		ldr	r4, .L23+4
 236              		.loc 1 335 28 view .LVU62
 237 0018 114A     		ldr	r2, .L23+8
 238              		.loc 1 334 22 view .LVU63
 239 001a 2370     		strb	r3, [r4]
 240              		.loc 1 335 9 is_stmt 1 view .LVU64
 241              	.LBB188:
 242              	.LBB185:
 243              		.loc 5 265 6 is_stmt 0 view .LVU65
 244 001c 8368     		ldr	r3, [r0, #8]
 245              	.LBE185:
 246              	.LBE188:
 247              		.loc 1 335 28 view .LVU66
 248 001e 1170     		strb	r1, [r2]
 249              		.loc 1 336 9 is_stmt 1 view .LVU67
 250              	.LVL14:
 251              	.LBB189:
 252              	.LBI183:
 253              		.loc 5 261 20 view .LVU68
 254              	.LBB186:
 255              		.loc 5 263 21 view .LVU69
 256              		.loc 5 265 3 view .LVU70
 257              		.loc 5 265 6 is_stmt 0 view .LVU71
 258 0020 002B     		cmp	r3, #0
 259 0022 16DD     		ble	.L21
 260              	.LVL15:
 261              	.L16:
 262              		.loc 5 265 6 view .LVU72
 263              	.LBE186:
 264              	.LBE189:
 265              		.loc 1 337 9 is_stmt 1 view .LVU73
 266              	.LBB190:
 267              	.LBI190:
 268              		.loc 2 438 20 view .LVU74
 269              		.loc 2 440 32 view .LVU75
 270              		.loc 2 441 34 view .LVU76
 271              		.loc 2 442 3 view .LVU77
 272              	.LBB191:
 273              	.LBI191:
 274              		.loc 3 890 27 view .LVU78
 275              		.loc 3 892 3 view .LVU79
 276              	.LBB192:
 277              	.LBI192:
 278              		.loc 3 864 27 view .LVU80
 279              		.loc 3 867 3 view .LVU81
 280              	.LBB193:
 281              	.LBI193:
 282              		.loc 4 491 27 view .LVU82
 283              	.LBB194:
 284              		.loc 4 493 3 view .LVU83
 285 0024 0023     		movs	r3, #0
ARM GAS  C:\Users\DEVELO~1\AppData\Local\Temp\cccUcPR2.s 			page 6


 286              		.syntax unified
 287              	@ 493 "./docs/ChibiOS/os/common/ext/ARM/CMSIS/Core/Include/cmsis_gcc.h" 1
 288 0026 83F31188 		MSR basepri, r3
 289              	@ 0 "" 2
 290              	.LVL16:
 291              		.thumb
 292              		.syntax unified
 293              	.L12:
 294              		.loc 4 493 3 is_stmt 0 view .LVU84
 295              	.LBE194:
 296              	.LBE193:
 297              	.LBE192:
 298              	.LBE191:
 299              	.LBE190:
 300              	.LBE177:
 301              	.LBE176:
 302              		.loc 1 339 1 view .LVU85
 303 002a 10BD     		pop	{r4, pc}
 304              	.LVL17:
 305              	.L22:
 306              		.loc 1 323 9 is_stmt 1 view .LVU86
 307              	.LBB197:
 308              	.LBI197:
 309              		.loc 2 416 20 view .LVU87
 310              		.loc 2 418 3 view .LVU88
 311              	.LBB198:
 312              	.LBI198:
 313              		.loc 3 879 27 view .LVU89
 314              		.loc 3 881 3 view .LVU90
 315              	.LBB199:
 316              	.LBI199:
 317              		.loc 3 840 27 view .LVU91
 318              		.loc 3 848 3 view .LVU92
 319              	.LBB200:
 320              	.LBI200:
 321              		.loc 4 491 27 view .LVU93
 322              	.LBB201:
 323              		.loc 4 493 3 view .LVU94
 324 002c 3023     		movs	r3, #48
 325              		.syntax unified
 326              	@ 493 "./docs/ChibiOS/os/common/ext/ARM/CMSIS/Core/Include/cmsis_gcc.h" 1
 327 002e 83F31188 		MSR basepri, r3
 328              	@ 0 "" 2
 329              	.LVL18:
 330              		.loc 4 493 3 is_stmt 0 view .LVU95
 331              		.thumb
 332              		.syntax unified
 333              	.LBE201:
 334              	.LBE200:
 335              	.LBE199:
 336              	.LBE198:
 337              		.loc 2 419 35 is_stmt 1 view .LVU96
 338              		.loc 2 420 30 view .LVU97
 339              	.LBE197:
 340              		.loc 1 324 9 view .LVU98
 341              		.loc 1 324 23 is_stmt 0 view .LVU99
 342 0032 0C4A     		ldr	r2, .L23+12
ARM GAS  C:\Users\DEVELO~1\AppData\Local\Temp\cccUcPR2.s 			page 7


 343              		.loc 1 325 22 view .LVU100
 344 0034 4FF0000C 		mov	ip, #0
 345              	.LBB202:
 346              	.LBB203:
 347              		.loc 5 265 15 view .LVU101
 348 0038 0748     		ldr	r0, .L23
 349              	.LVL19:
 350              		.loc 5 265 15 view .LVU102
 351              	.LBE203:
 352              	.LBE202:
 353              		.loc 1 324 23 view .LVU103
 354 003a 1368     		ldr	r3, [r2]
 355              		.loc 1 325 22 view .LVU104
 356 003c 0749     		ldr	r1, .L23+4
 357              	.LVL20:
 358              		.loc 1 324 23 view .LVU105
 359 003e 0133     		adds	r3, r3, #1
 360 0040 1360     		str	r3, [r2]
 361              		.loc 1 325 9 is_stmt 1 view .LVU106
 362              		.loc 1 326 31 is_stmt 0 view .LVU107
 363 0042 0122     		movs	r2, #1
 364 0044 084B     		ldr	r3, .L23+16
 365              		.loc 1 325 22 view .LVU108
 366 0046 81F800C0 		strb	ip, [r1]
 367              		.loc 1 326 9 is_stmt 1 view .LVU109
 368              		.loc 1 326 31 is_stmt 0 view .LVU110
 369 004a 1A70     		strb	r2, [r3]
 370              		.loc 1 327 9 is_stmt 1 view .LVU111
 371              	.LVL21:
 372              	.LBB205:
 373              	.LBI202:
 374              		.loc 5 261 20 view .LVU112
 375              	.LBB204:
 376              		.loc 5 263 21 view .LVU113
 377              		.loc 5 265 3 view .LVU114
 378              		.loc 5 265 6 is_stmt 0 view .LVU115
 379 004c 8368     		ldr	r3, [r0, #8]
 380 004e 6345     		cmp	r3, ip
 381 0050 E8DC     		bgt	.L16
 382              	.LVL22:
 383              	.L21:
 384              		.loc 5 265 6 view .LVU116
 385              	.LBE204:
 386              	.LBE205:
 387              	.LBB206:
 388              	.LBB196:
 389              	.LBB195:
 390              	.LBB187:
 391              		.loc 5 266 5 is_stmt 1 view .LVU117
 392 0052 FFF7FEFF 		bl	chSemSignalI
 393              	.LVL23:
 394 0056 E5E7     		b	.L16
 395              	.L24:
 396              		.align	2
 397              	.L23:
 398 0058 00000000 		.word	.LANCHOR5
 399 005c 00000000 		.word	.LANCHOR3
ARM GAS  C:\Users\DEVELO~1\AppData\Local\Temp\cccUcPR2.s 			page 8


 400 0060 00000000 		.word	.LANCHOR6
 401 0064 00000000 		.word	.LANCHOR2
 402 0068 00000000 		.word	.LANCHOR4
 403              	.LBE187:
 404              	.LBE195:
 405              	.LBE196:
 406              	.LBE206:
 407              		.cfi_endproc
 408              	.LFE463:
 409              		.size	ws_dma_callback, .-ws_dma_callback
 410              		.section	.rodata.led_dma_thread.str1.4,"aMS",%progbits,1
 411              		.align	2
 412              	.LC0:
 413 0000 6C65642D 		.ascii	"led-dma\000"
 413      646D6100 
 414              		.global	__aeabi_uldivmod
 415              		.global	__aeabi_ldivmod
 416              		.section	.text.led_dma_thread,"ax",%progbits
 417              		.align	1
 418              		.p2align 2,,3
 419              		.syntax unified
 420              		.thumb
 421              		.thumb_func
 422              		.type	led_dma_thread, %function
 423              	led_dma_thread:
 424              	.LVL24:
 425              	.LFB462:
 426              		.loc 1 292 42 view -0
 427              		.cfi_startproc
 428              		@ args = 0, pretend = 0, frame = 8
 429              		@ frame_needed = 0, uses_anonymous_args = 0
 430              		.loc 1 293 5 view .LVU119
 431              		.loc 1 294 5 view .LVU120
 432              	.LBB236:
 433              	.LBI236:
 434              		.file 6 "./docs/ChibiOS/os/rt/include/chregistry.h"
 435              		.loc 6 166 20 view .LVU121
 436              	.LBB237:
 437              		.loc 6 169 3 view .LVU122
 438 0000 404B     		ldr	r3, .L45
 439              		.loc 6 169 32 is_stmt 0 view .LVU123
 440 0002 414A     		ldr	r2, .L45+4
 441 0004 DB68     		ldr	r3, [r3, #12]
 442              	.LBE237:
 443              	.LBE236:
 444              		.loc 1 292 42 view .LVU124
 445 0006 2DE9F04F 		push	{r4, r5, r6, r7, r8, r9, r10, fp, lr}
 446              		.cfi_def_cfa_offset 36
 447              		.cfi_offset 4, -36
 448              		.cfi_offset 5, -32
 449              		.cfi_offset 6, -28
 450              		.cfi_offset 7, -24
 451              		.cfi_offset 8, -20
 452              		.cfi_offset 9, -16
 453              		.cfi_offset 10, -12
 454              		.cfi_offset 11, -8
 455              		.cfi_offset 14, -4
ARM GAS  C:\Users\DEVELO~1\AppData\Local\Temp\cccUcPR2.s 			page 9


 456 000a 404F     		ldr	r7, .L45+8
 457 000c 83B0     		sub	sp, sp, #12
 458              		.cfi_def_cfa_offset 48
 459 000e 404E     		ldr	r6, .L45+12
 460 0010 DFF828B1 		ldr	fp, .L45+56
 461 0014 DFF828A1 		ldr	r10, .L45+60
 462              	.LBB239:
 463              	.LBB238:
 464              		.loc 6 169 32 view .LVU125
 465 0018 1A62     		str	r2, [r3, #32]
 466              	.LVL25:
 467              	.L26:
 468              		.loc 6 169 32 view .LVU126
 469              	.LBE238:
 470              	.LBE239:
 471              	.LBB240:
 472              	.LBB241:
 473              	.LBB242:
 474              		.loc 5 142 10 discriminator 1 view .LVU127
 475 001a DFF82891 		ldr	r9, .L45+64
 476              	.LBE242:
 477              	.LBE241:
 478              	.LBB244:
 479              	.LBB245:
 480              	.LBB246:
 481              	.LBB247:
 482              		.loc 4 493 3 discriminator 1 view .LVU128
 483 001e 4FF03008 		mov	r8, #48
 484              	.L28:
 485              	.LBE247:
 486              	.LBE246:
 487              	.LBE245:
 488              	.LBE244:
 489              	.LBE240:
 490              		.loc 1 296 5 is_stmt 1 discriminator 1 view .LVU129
 491              	.LBB278:
 492              		.loc 1 297 9 discriminator 1 view .LVU130
 493              	.LVL26:
 494              	.LBB251:
 495              	.LBI241:
 496              		.loc 5 140 21 discriminator 1 view .LVU131
 497              	.LBB243:
 498              		.loc 5 142 3 discriminator 1 view .LVU132
 499              		.loc 5 142 10 is_stmt 0 discriminator 1 view .LVU133
 500 0022 4846     		mov	r0, r9
 501 0024 FFF7FEFF 		bl	chSemWait
 502              	.LVL27:
 503              		.loc 5 142 10 discriminator 1 view .LVU134
 504              	.LBE243:
 505              	.LBE251:
 506              		.loc 1 299 9 is_stmt 1 discriminator 1 view .LVU135
 507              		.loc 1 300 9 discriminator 1 view .LVU136
 508              		.loc 1 301 9 discriminator 1 view .LVU137
 509              		.loc 1 303 9 discriminator 1 view .LVU138
 510              	.LBB252:
 511              	.LBI244:
 512              		.loc 2 372 20 discriminator 1 view .LVU139
ARM GAS  C:\Users\DEVELO~1\AppData\Local\Temp\cccUcPR2.s 			page 10


 513              		.loc 2 374 3 discriminator 1 view .LVU140
 514              	.LBB250:
 515              	.LBI245:
 516              		.loc 3 840 27 discriminator 1 view .LVU141
 517              		.loc 3 848 3 discriminator 1 view .LVU142
 518              	.LBB249:
 519              	.LBI246:
 520              		.loc 4 491 27 discriminator 1 view .LVU143
 521              	.LBB248:
 522              		.loc 4 493 3 discriminator 1 view .LVU144
 523              		.syntax unified
 524              	@ 493 "./docs/ChibiOS/os/common/ext/ARM/CMSIS/Core/Include/cmsis_gcc.h" 1
 525 0028 88F31188 		MSR basepri, r8
 526              	@ 0 "" 2
 527              	.LVL28:
 528              		.loc 4 493 3 is_stmt 0 discriminator 1 view .LVU145
 529              		.thumb
 530              		.syntax unified
 531              	.LBE248:
 532              	.LBE249:
 533              	.LBE250:
 534              		.loc 2 375 35 is_stmt 1 discriminator 1 view .LVU146
 535              		.loc 2 376 21 discriminator 1 view .LVU147
 536              	.LBE252:
 537              		.loc 1 304 9 discriminator 1 view .LVU148
 538              		.loc 1 306 31 is_stmt 0 discriminator 1 view .LVU149
 539 002c 0024     		movs	r4, #0
 540              		.loc 1 304 23 discriminator 1 view .LVU150
 541 002e 3D78     		ldrb	r5, [r7]	@ zero_extendqisi2
 542              		.loc 1 305 20 discriminator 1 view .LVU151
 543 0030 3378     		ldrb	r3, [r6]	@ zero_extendqisi2
 544              		.loc 1 304 23 discriminator 1 view .LVU152
 545 0032 EDB2     		uxtb	r5, r5
 546              	.LVL29:
 547              		.loc 1 305 9 is_stmt 1 discriminator 1 view .LVU153
 548              		.loc 1 306 31 is_stmt 0 discriminator 1 view .LVU154
 549 0034 3C70     		strb	r4, [r7]
 550              		.loc 1 305 20 discriminator 1 view .LVU155
 551 0036 DBB2     		uxtb	r3, r3
 552              	.LVL30:
 553              		.loc 1 306 9 is_stmt 1 discriminator 1 view .LVU156
 554              		.loc 1 307 9 discriminator 1 view .LVU157
 555              		.loc 1 307 28 is_stmt 0 discriminator 1 view .LVU158
 556 0038 3470     		strb	r4, [r6]
 557              		.loc 1 308 9 is_stmt 1 discriminator 1 view .LVU159
 558              		.loc 1 308 30 is_stmt 0 discriminator 1 view .LVU160
 559 003a DBF80020 		ldr	r2, [fp]
 560              	.LVL31:
 561              		.loc 1 309 9 is_stmt 1 discriminator 1 view .LVU161
 562              	.LBB253:
 563              	.LBI253:
 564              		.loc 2 386 20 discriminator 1 view .LVU162
 565              	.LBB254:
 566              		.loc 2 388 23 discriminator 1 view .LVU163
 567              		.loc 2 389 34 discriminator 1 view .LVU164
 568              		.loc 2 395 3 discriminator 1 view .LVU165
 569              		.loc 2 395 3 discriminator 1 view .LVU166
ARM GAS  C:\Users\DEVELO~1\AppData\Local\Temp\cccUcPR2.s 			page 11


 570              		.loc 2 395 3 discriminator 1 view .LVU167
 571              		.loc 2 399 3 discriminator 1 view .LVU168
 572              	.LBB255:
 573              	.LBI255:
 574              		.loc 3 864 27 discriminator 1 view .LVU169
 575              		.loc 3 867 3 discriminator 1 view .LVU170
 576              	.LBB256:
 577              	.LBI256:
 578              		.loc 4 491 27 discriminator 1 view .LVU171
 579              	.LBB257:
 580              		.loc 4 493 3 discriminator 1 view .LVU172
 581              		.syntax unified
 582              	@ 493 "./docs/ChibiOS/os/common/ext/ARM/CMSIS/Core/Include/cmsis_gcc.h" 1
 583 003e 84F31188 		MSR basepri, r4
 584              	@ 0 "" 2
 585              	.LVL32:
 586              		.loc 4 493 3 is_stmt 0 discriminator 1 view .LVU173
 587              		.thumb
 588              		.syntax unified
 589              	.LBE257:
 590              	.LBE256:
 591              	.LBE255:
 592              	.LBE254:
 593              	.LBE253:
 594              		.loc 1 311 9 is_stmt 1 discriminator 1 view .LVU174
 595              	.LBB258:
 596              	.LBI258:
 597              		.loc 1 267 13 discriminator 1 view .LVU175
 598              	.LBB259:
 599              		.loc 1 270 5 discriminator 1 view .LVU176
 600              		.loc 1 270 8 is_stmt 0 discriminator 1 view .LVU177
 601 0042 83B9     		cbnz	r3, .L43
 602              	.LVL33:
 603              	.L27:
 604              		.loc 1 275 5 is_stmt 1 view .LVU178
 605              		.loc 1 275 8 is_stmt 0 view .LVU179
 606 0044 002D     		cmp	r5, #0
 607 0046 ECD0     		beq	.L28
 608              		.loc 1 276 9 is_stmt 1 view .LVU180
 609              		.loc 1 276 35 is_stmt 0 view .LVU181
 610 0048 DAF80030 		ldr	r3, [r10]
 611 004c 0133     		adds	r3, r3, #1
 612              		.loc 1 278 12 view .LVU182
 613 004e 022B     		cmp	r3, #2
 614              		.loc 1 276 35 view .LVU183
 615 0050 CAF80030 		str	r3, [r10]
 616              		.loc 1 278 9 is_stmt 1 view .LVU184
 617              		.loc 1 278 12 is_stmt 0 view .LVU185
 618 0054 1DD9     		bls	.L29
 619              		.loc 1 279 13 is_stmt 1 view .LVU186
 620              		.loc 1 279 29 is_stmt 0 view .LVU187
 621 0056 0023     		movs	r3, #0
 622 0058 2E4A     		ldr	r2, .L45+16
 623 005a 1370     		strb	r3, [r2]
 624              		.loc 1 280 13 is_stmt 1 view .LVU188
 625              		.loc 1 280 36 is_stmt 0 view .LVU189
 626 005c 2E4A     		ldr	r2, .L45+20
ARM GAS  C:\Users\DEVELO~1\AppData\Local\Temp\cccUcPR2.s 			page 12


 627 005e 1368     		ldr	r3, [r2]
 628 0060 0133     		adds	r3, r3, #1
 629 0062 1360     		str	r3, [r2]
 630              		.loc 1 281 13 is_stmt 1 view .LVU190
 631 0064 D9E7     		b	.L26
 632              	.LVL34:
 633              	.L43:
 634              		.loc 1 271 9 view .LVU191
 635              	.LBB260:
 636              	.LBI260:
 637              		.file 7 "./docs/ChibiOS/os/rt/include/chvt.h"
 638              		.loc 7 172 29 view .LVU192
 639              		.loc 7 174 3 view .LVU193
 640              	.LBB261:
 641              	.LBI261:
 642              		.loc 7 135 25 view .LVU194
 643              		.loc 7 140 3 view .LVU195
 644              	.LBB262:
 645              	.LBI262:
 646              		.file 8 "./docs/ChibiOS/os/hal/osal/rt-nil/chcore_timer.h"
 647              		.loc 8 111 25 view .LVU196
 648              	.LBB263:
 649              		.loc 8 113 3 view .LVU197
 650 0066 0192     		str	r2, [sp, #4]
 651              	.LVL35:
 652              		.loc 8 113 10 is_stmt 0 view .LVU198
 653 0068 FFF7FEFF 		bl	stGetCounter
 654              	.LVL36:
 655              		.loc 8 113 10 view .LVU199
 656              	.LBE263:
 657              	.LBE262:
 658              	.LBE261:
 659              	.LBB264:
 660              	.LBI264:
 661              		.file 9 "./docs/ChibiOS/os/rt/include/chtime.h"
 662              		.loc 9 461 29 is_stmt 1 view .LVU200
 663              	.LBB265:
 664              		.loc 9 465 3 view .LVU201
 665              		.loc 9 465 3 is_stmt 0 view .LVU202
 666              	.LBE265:
 667              	.LBE264:
 668              	.LBE260:
 669              		.loc 1 271 30 view .LVU203
 670 006c 42F20F71 		movw	r1, #9999
 671              	.LBB268:
 672              	.LBB267:
 673              	.LBB266:
 674              		.loc 9 465 10 view .LVU204
 675 0070 019A     		ldr	r2, [sp, #4]
 676 0072 831A     		subs	r3, r0, r2
 677              	.LBE266:
 678              	.LBE267:
 679              	.LBE268:
 680              		.loc 1 271 30 view .LVU205
 681 0074 0846     		mov	r0, r1
 682 0076 294A     		ldr	r2, .L45+24
 683 0078 2146     		mov	r1, r4
ARM GAS  C:\Users\DEVELO~1\AppData\Local\Temp\cccUcPR2.s 			page 13


 684 007a E3FB0201 		umlal	r0, r1, r3, r2
 685 007e 0023     		movs	r3, #0
 686 0080 42F21072 		movw	r2, #10000
 687 0084 FFF7FEFF 		bl	__aeabi_uldivmod
 688              	.LVL37:
 689              		.loc 1 271 28 view .LVU206
 690 0088 254B     		ldr	r3, .L45+28
 691              		.loc 1 272 36 view .LVU207
 692 008a CAF80040 		str	r4, [r10]
 693              		.loc 1 271 28 view .LVU208
 694 008e 1860     		str	r0, [r3]
 695              		.loc 1 272 9 is_stmt 1 view .LVU209
 696 0090 D8E7     		b	.L27
 697              	.LVL38:
 698              	.L29:
 699              		.loc 1 284 9 view .LVU210
 700 0092 2448     		ldr	r0, .L45+32
 701 0094 FFF7FEFF 		bl	chMtxLock
 702              	.LVL39:
 703              		.loc 1 285 9 view .LVU211
 704              		.loc 1 285 13 is_stmt 0 view .LVU212
 705 0098 234B     		ldr	r3, .L45+36
 706 009a 1B78     		ldrb	r3, [r3]	@ zero_extendqisi2
 707              		.loc 1 285 12 view .LVU213
 708 009c 03F0FF02 		and	r2, r3, #255
 709 00a0 13B9     		cbnz	r3, .L31
 710              		.loc 1 285 27 view .LVU214
 711 00a2 1C4B     		ldr	r3, .L45+16
 712 00a4 1B78     		ldrb	r3, [r3]	@ zero_extendqisi2
 713 00a6 1BB9     		cbnz	r3, .L44
 714              	.L31:
 715              		.loc 1 288 9 is_stmt 1 view .LVU215
 716 00a8 1E48     		ldr	r0, .L45+32
 717 00aa FFF7FEFF 		bl	chMtxUnlock
 718              	.LVL40:
 719 00ae B4E7     		b	.L26
 720              	.L44:
 721              		.loc 1 286 13 view .LVU216
 722              	.LBB269:
 723              	.LBI269:
 724              		.loc 1 134 20 view .LVU217
 725              	.LBB270:
 726              		.loc 1 135 5 view .LVU218
 727              	.LBB271:
 728              	.LBI271:
 729              		.loc 1 72 20 view .LVU219
 730              	.LBB272:
 731              		.loc 1 73 5 view .LVU220
 732              		.loc 1 73 17 is_stmt 0 view .LVU221
 733 00b0 1E49     		ldr	r1, .L45+40
 734 00b2 0123     		movs	r3, #1
 735 00b4 4B61     		str	r3, [r1, #20]
 736              		.loc 1 74 5 is_stmt 1 view .LVU222
 737              	.LBE272:
 738              	.LBE271:
 739              		.loc 1 137 5 is_stmt 0 view .LVU223
 740 00b6 1E4B     		ldr	r3, .L45+44
ARM GAS  C:\Users\DEVELO~1\AppData\Local\Temp\cccUcPR2.s 			page 14


 741              	.LBB274:
 742              	.LBB273:
 743              		.loc 1 74 17 view .LVU224
 744 00b8 4A62     		str	r2, [r1, #36]
 745              	.LBE273:
 746              	.LBE274:
 747              		.loc 1 137 5 is_stmt 1 view .LVU225
 748 00ba 1968     		ldr	r1, [r3]
 749 00bc 0A68     		ldr	r2, [r1]
 750 00be 1368     		ldr	r3, [r2]
 751 00c0 23F01F03 		bic	r3, r3, #31
 752 00c4 1360     		str	r3, [r2]
 753              		.loc 1 137 5 view .LVU226
 754              	.L32:
 755              		.loc 1 137 5 view .LVU227
 756 00c6 1368     		ldr	r3, [r2]
 757 00c8 DB07     		lsls	r3, r3, #31
 758 00ca FCD4     		bmi	.L32
 759              		.loc 1 137 5 view .LVU228
 760 00cc 087B     		ldrb	r0, [r1, #12]	@ zero_extendqisi2
 761 00ce 3D23     		movs	r3, #61
 762 00d0 4968     		ldr	r1, [r1, #4]
 763 00d2 8340     		lsls	r3, r3, r0
 764 00d4 0B60     		str	r3, [r1]
 765              		.loc 1 137 5 view .LVU229
 766              		.loc 1 137 36 view .LVU230
 767              		.loc 1 138 5 view .LVU231
 768              		.loc 1 139 5 is_stmt 0 view .LVU232
 769 00d6 4FF42A71 		mov	r1, #680
 770              		.loc 1 138 5 view .LVU233
 771 00da 164B     		ldr	r3, .L45+48
 772 00dc D360     		str	r3, [r2, #12]
 773              		.loc 1 138 51 is_stmt 1 view .LVU234
 774              		.loc 1 139 5 view .LVU235
 775              		.loc 1 140 5 is_stmt 0 view .LVU236
 776 00de 164B     		ldr	r3, .L45+52
 777              		.loc 1 139 5 view .LVU237
 778 00e0 5160     		str	r1, [r2, #4]
 779              		.loc 1 139 64 is_stmt 1 view .LVU238
 780              		.loc 1 140 5 view .LVU239
 781 00e2 1B68     		ldr	r3, [r3]
 782 00e4 1360     		str	r3, [r2]
 783              		.loc 1 140 49 view .LVU240
 784              		.loc 1 148 5 view .LVU241
 785              		.loc 1 148 18 is_stmt 0 view .LVU242
 786 00e6 0123     		movs	r3, #1
 787 00e8 0F4A     		ldr	r2, .L45+36
 788 00ea 1370     		strb	r3, [r2]
 789              		.loc 1 149 5 is_stmt 1 view .LVU243
 790              	.LBB275:
 791              	.LBI275:
 792              		.loc 7 135 25 view .LVU244
 793              		.loc 7 140 3 view .LVU245
 794              	.LBB276:
 795              	.LBI276:
 796              		.loc 8 111 25 view .LVU246
 797              	.LBB277:
ARM GAS  C:\Users\DEVELO~1\AppData\Local\Temp\cccUcPR2.s 			page 15


 798              		.loc 8 113 3 view .LVU247
 799              		.loc 8 113 10 is_stmt 0 view .LVU248
 800 00ec FFF7FEFF 		bl	stGetCounter
 801              	.LVL41:
 802              	.LBE277:
 803              	.LBE276:
 804              	.LBE275:
 805              		.loc 1 150 5 view .LVU249
 806 00f0 0F4B     		ldr	r3, .L45+44
 807              		.loc 1 149 22 view .LVU250
 808 00f2 CBF80000 		str	r0, [fp]
 809              		.loc 1 150 5 is_stmt 1 view .LVU251
 810 00f6 1B68     		ldr	r3, [r3]
 811 00f8 1A68     		ldr	r2, [r3]
 812 00fa 1368     		ldr	r3, [r2]
 813 00fc 43F00103 		orr	r3, r3, #1
 814 0100 1360     		str	r3, [r2]
 815              		.loc 1 150 35 view .LVU252
 816              		.loc 1 151 1 is_stmt 0 view .LVU253
 817 0102 D1E7     		b	.L31
 818              	.L46:
 819              		.align	2
 820              	.L45:
 821 0104 00000000 		.word	ch0
 822 0108 00000000 		.word	.LC0
 823 010c 00000000 		.word	.LANCHOR4
 824 0110 00000000 		.word	.LANCHOR6
 825 0114 00000000 		.word	.LANCHOR10
 826 0118 00000000 		.word	.LANCHOR11
 827 011c 40420F00 		.word	1000000
 828 0120 00000000 		.word	.LANCHOR8
 829 0124 00000000 		.word	.LANCHOR12
 830 0128 00000000 		.word	.LANCHOR3
 831 012c 00040140 		.word	1073808384
 832 0130 00000000 		.word	.LANCHOR13
 833 0134 00000000 		.word	.LANCHOR1
 834 0138 00000000 		.word	.LANCHOR14
 835 013c 00000000 		.word	.LANCHOR7
 836 0140 00000000 		.word	.LANCHOR9
 837 0144 00000000 		.word	.LANCHOR5
 838              	.LBE270:
 839              	.LBE269:
 840              	.LBE259:
 841              	.LBE258:
 842              	.LBE278:
 843              		.cfi_endproc
 844              	.LFE462:
 845              		.size	led_dma_thread, .-led_dma_thread
 846              		.section	.text.drv_leds_addr_init,"ax",%progbits
 847              		.align	1
 848              		.p2align 2,,3
 849              		.global	drv_leds_addr_init
 850              		.syntax unified
 851              		.thumb
 852              		.thumb_func
 853              		.type	drv_leds_addr_init, %function
 854              	drv_leds_addr_init:
ARM GAS  C:\Users\DEVELO~1\AppData\Local\Temp\cccUcPR2.s 			page 16


 855              	.LFB454:
 856              		.loc 1 155 31 is_stmt 1 view -0
 857              		.cfi_startproc
 858              		@ args = 0, pretend = 0, frame = 0
 859              		@ frame_needed = 0, uses_anonymous_args = 0
 860              		.loc 1 156 5 view .LVU255
 861              		.loc 1 155 31 is_stmt 0 view .LVU256
 862 0000 30B5     		push	{r4, r5, lr}
 863              		.cfi_def_cfa_offset 12
 864              		.cfi_offset 4, -12
 865              		.cfi_offset 5, -8
 866              		.cfi_offset 14, -4
 867              		.loc 1 156 5 view .LVU257
 868 0002 3948     		ldr	r0, .L51
 869              		.loc 1 155 31 view .LVU258
 870 0004 83B0     		sub	sp, sp, #12
 871              		.cfi_def_cfa_offset 24
 872              		.loc 1 156 5 view .LVU259
 873 0006 FFF7FEFF 		bl	chMtxObjectInit
 874              	.LVL42:
 875              		.loc 1 157 5 is_stmt 1 view .LVU260
 876              		.loc 1 157 18 is_stmt 0 view .LVU261
 877 000a 0024     		movs	r4, #0
 878 000c 3749     		ldr	r1, .L51+4
 879              		.loc 1 158 20 view .LVU262
 880 000e 384B     		ldr	r3, .L51+8
 881              		.loc 1 157 18 view .LVU263
 882 0010 0C70     		strb	r4, [r1]
 883              		.loc 1 158 5 is_stmt 1 view .LVU264
 884              		.loc 1 159 29 is_stmt 0 view .LVU265
 885 0012 3848     		ldr	r0, .L51+12
 886              		.loc 1 160 24 view .LVU266
 887 0014 384A     		ldr	r2, .L51+16
 888              		.loc 1 161 22 view .LVU267
 889 0016 3949     		ldr	r1, .L51+20
 890              		.loc 1 158 20 view .LVU268
 891 0018 1C60     		str	r4, [r3]
 892              		.loc 1 159 5 is_stmt 1 view .LVU269
 893              		.loc 1 162 24 is_stmt 0 view .LVU270
 894 001a 394B     		ldr	r3, .L51+24
 895              		.loc 1 159 29 view .LVU271
 896 001c 0460     		str	r4, [r0]
 897              		.loc 1 160 5 is_stmt 1 view .LVU272
 898              		.loc 1 160 24 is_stmt 0 view .LVU273
 899 001e 1460     		str	r4, [r2]
 900              		.loc 1 161 5 is_stmt 1 view .LVU274
 901              		.loc 1 163 27 is_stmt 0 view .LVU275
 902 0020 3848     		ldr	r0, .L51+28
 903              		.loc 1 161 22 view .LVU276
 904 0022 0C60     		str	r4, [r1]
 905              		.loc 1 162 5 is_stmt 1 view .LVU277
 906              		.loc 1 164 21 is_stmt 0 view .LVU278
 907 0024 0121     		movs	r1, #1
 908 0026 384A     		ldr	r2, .L51+32
 909              		.loc 1 162 24 view .LVU279
 910 0028 1C70     		strb	r4, [r3]
 911              		.loc 1 163 5 is_stmt 1 view .LVU280
ARM GAS  C:\Users\DEVELO~1\AppData\Local\Temp\cccUcPR2.s 			page 17


 912              		.loc 1 165 32 is_stmt 0 view .LVU281
 913 002a 384B     		ldr	r3, .L51+36
 914              		.loc 1 163 27 view .LVU282
 915 002c 0470     		strb	r4, [r0]
 916              		.loc 1 164 5 is_stmt 1 view .LVU283
 917              		.loc 1 164 21 is_stmt 0 view .LVU284
 918 002e 1170     		strb	r1, [r2]
 919              		.loc 1 165 5 is_stmt 1 view .LVU285
 920              	.LBB293:
 921              	.LBB294:
 922              		.loc 5 125 3 is_stmt 0 view .LVU286
 923 0030 2146     		mov	r1, r4
 924 0032 3748     		ldr	r0, .L51+40
 925              	.LBE294:
 926              	.LBE293:
 927              		.loc 1 165 32 view .LVU287
 928 0034 1C60     		str	r4, [r3]
 929              		.loc 1 167 5 is_stmt 1 view .LVU288
 930              	.LVL43:
 931              	.LBB296:
 932              	.LBI293:
 933              		.loc 5 123 20 view .LVU289
 934              	.LBB295:
 935              		.loc 5 125 3 view .LVU290
 936 0036 FFF7FEFF 		bl	chSemObjectInit
 937              	.LVL44:
 938              		.loc 5 125 3 is_stmt 0 view .LVU291
 939              	.LBE295:
 940              	.LBE296:
 941              		.loc 1 169 5 is_stmt 1 view .LVU292
 942              	.LBB297:
 943              	.LBI297:
 944              		.loc 1 56 13 view .LVU293
 945              	.LBB298:
 946              		.loc 1 57 5 view .LVU294
 947              	.LBB299:
 948              	.LBI299:
 949              		.file 10 "./docs/ChibiOS/os/hal/ports/STM32/STM32H7xx/stm32_rcc.h"
 950              		.loc 10 319 22 view .LVU295
 951              	.LBB300:
 952              		.loc 10 323 3 view .LVU296
 953              		.loc 10 323 19 is_stmt 0 view .LVU297
 954 003a 364B     		ldr	r3, .L51+44
 955              	.LBE300:
 956              	.LBE299:
 957              		.loc 1 60 17 view .LVU298
 958 003c 7720     		movs	r0, #119
 959              		.loc 1 59 17 view .LVU299
 960 003e 3649     		ldr	r1, .L51+48
 961              	.LBB303:
 962              	.LBB301:
 963              		.loc 10 323 19 view .LVU300
 964 0040 D3F8F020 		ldr	r2, [r3, #240]
 965              	.LBE301:
 966              	.LBE303:
 967              	.LBE298:
 968              	.LBE297:
ARM GAS  C:\Users\DEVELO~1\AppData\Local\Temp\cccUcPR2.s 			page 18


 969              	.LBB308:
 970              	.LBB309:
 971              		.loc 1 85 19 view .LVU301
 972 0044 354D     		ldr	r5, .L51+52
 973              	.LBE309:
 974              	.LBE308:
 975              	.LBB315:
 976              	.LBB305:
 977              	.LBB304:
 978              	.LBB302:
 979              		.loc 10 323 19 view .LVU302
 980 0046 42F00202 		orr	r2, r2, #2
 981 004a C3F8F020 		str	r2, [r3, #240]
 982              		.loc 10 324 3 is_stmt 1 view .LVU303
 983              		.loc 10 325 5 view .LVU304
 984              		.loc 10 325 23 is_stmt 0 view .LVU305
 985 004e D3F81821 		ldr	r2, [r3, #280]
 986 0052 42F00202 		orr	r2, r2, #2
 987 0056 C3F81821 		str	r2, [r3, #280]
 988              		.loc 10 330 3 is_stmt 1 view .LVU306
 989 005a D3F81831 		ldr	r3, [r3, #280]
 990              	.LVL45:
 991              		.loc 10 330 3 is_stmt 0 view .LVU307
 992              	.LBE302:
 993              	.LBE304:
 994              		.loc 1 59 5 is_stmt 1 view .LVU308
 995              	.LBE305:
 996              	.LBE315:
 997              	.LBB316:
 998              	.LBB312:
 999              		.loc 1 85 21 is_stmt 0 view .LVU309
 1000 005e 2346     		mov	r3, r4
 1001              	.LBE312:
 1002              	.LBE316:
 1003              	.LBB317:
 1004              	.LBB306:
 1005              		.loc 1 59 17 view .LVU310
 1006 0060 8C62     		str	r4, [r1, #40]
 1007              		.loc 1 60 5 is_stmt 1 view .LVU311
 1008              		.loc 1 60 17 is_stmt 0 view .LVU312
 1009 0062 C862     		str	r0, [r1, #44]
 1010              		.loc 1 61 5 is_stmt 1 view .LVU313
 1011              		.loc 1 61 18 is_stmt 0 view .LVU314
 1012 0064 8C63     		str	r4, [r1, #56]
 1013              		.loc 1 63 5 is_stmt 1 view .LVU315
 1014              		.loc 1 63 19 is_stmt 0 view .LVU316
 1015 0066 8869     		ldr	r0, [r1, #24]
 1016              	.LBE306:
 1017              	.LBE317:
 1018              	.LBB318:
 1019              	.LBB313:
 1020              		.loc 1 85 21 view .LVU317
 1021 0068 2D4A     		ldr	r2, .L51+56
 1022              	.LBE313:
 1023              	.LBE318:
 1024              	.LBB319:
 1025              	.LBB307:
ARM GAS  C:\Users\DEVELO~1\AppData\Local\Temp\cccUcPR2.s 			page 19


 1026              		.loc 1 63 19 view .LVU318
 1027 006a 40F4C040 		orr	r0, r0, #24576
 1028 006e 8861     		str	r0, [r1, #24]
 1029              		.loc 1 64 5 is_stmt 1 view .LVU319
 1030              		.loc 1 64 19 is_stmt 0 view .LVU320
 1031 0070 086A     		ldr	r0, [r1, #32]
 1032 0072 40F01000 		orr	r0, r0, #16
 1033 0076 0862     		str	r0, [r1, #32]
 1034              		.loc 1 65 5 is_stmt 1 view .LVU321
 1035              		.loc 1 65 19 is_stmt 0 view .LVU322
 1036 0078 486C     		ldr	r0, [r1, #68]
 1037 007a 40F40040 		orr	r0, r0, #32768
 1038 007e 4864     		str	r0, [r1, #68]
 1039              		.loc 1 67 5 is_stmt 1 view .LVU323
 1040              		.loc 1 67 18 is_stmt 0 view .LVU324
 1041 0080 C868     		ldr	r0, [r1, #12]
 1042 0082 40F48060 		orr	r0, r0, #1024
 1043 0086 C860     		str	r0, [r1, #12]
 1044              		.loc 1 69 5 is_stmt 1 view .LVU325
 1045              		.loc 1 69 17 is_stmt 0 view .LVU326
 1046 0088 0868     		ldr	r0, [r1]
 1047 008a 40F00100 		orr	r0, r0, #1
 1048 008e 0860     		str	r0, [r1]
 1049              	.LBE307:
 1050              	.LBE319:
 1051              		.loc 1 170 5 is_stmt 1 view .LVU327
 1052              	.LBB320:
 1053              	.LBI308:
 1054              		.loc 1 84 13 view .LVU328
 1055              	.LBB314:
 1056              		.loc 1 85 5 view .LVU329
 1057              		.loc 1 85 21 is_stmt 0 view .LVU330
 1058 0090 0D21     		movs	r1, #13
 1059 0092 0920     		movs	r0, #9
 1060 0094 FFF7FEFF 		bl	dmaStreamAlloc
 1061              	.LVL46:
 1062              		.loc 1 92 5 view .LVU331
 1063 0098 3021     		movs	r1, #48
 1064              		.loc 1 85 19 view .LVU332
 1065 009a 2860     		str	r0, [r5]
 1066              		.loc 1 89 5 is_stmt 1 view .LVU333
 1067              		.loc 1 89 5 view .LVU334
 1068              		.loc 1 89 5 view .LVU335
 1069              		.loc 1 92 5 view .LVU336
 1070 009c FFF7FEFF 		bl	dmaSetRequestSource
 1071              	.LVL47:
 1072              		.loc 1 95 5 view .LVU337
 1073              	.LBB310:
 1074              	.LBI310:
 1075              		.loc 1 122 13 view .LVU338
 1076              	.LBB311:
 1077              		.loc 1 123 5 view .LVU339
 1078              		.loc 1 131 5 is_stmt 0 view .LVU340
 1079 00a0 2B68     		ldr	r3, [r5]
 1080              		.loc 1 123 17 view .LVU341
 1081 00a2 42F65640 		movw	r0, #11350
 1082              		.loc 1 131 5 view .LVU342
ARM GAS  C:\Users\DEVELO~1\AppData\Local\Temp\cccUcPR2.s 			page 20


 1083 00a6 1F4A     		ldr	r2, .L51+60
 1084 00a8 1B68     		ldr	r3, [r3]
 1085              		.loc 1 123 17 view .LVU343
 1086 00aa 1F49     		ldr	r1, .L51+64
 1087              		.loc 1 131 5 view .LVU344
 1088 00ac 9A60     		str	r2, [r3, #8]
 1089              		.loc 1 123 17 view .LVU345
 1090 00ae 0860     		str	r0, [r1]
 1091              		.loc 1 131 5 is_stmt 1 view .LVU346
 1092              		.loc 1 131 57 view .LVU347
 1093              	.LBE311:
 1094              	.LBE310:
 1095              	.LBE314:
 1096              	.LBE320:
 1097              		.loc 1 171 5 view .LVU348
 1098              	.LBB321:
 1099              	.LBI321:
 1100              		.loc 1 209 6 view .LVU349
 1101              	.LBB322:
 1102              		.loc 1 210 5 view .LVU350
 1103 00b0 0D48     		ldr	r0, .L51
 1104 00b2 FFF7FEFF 		bl	chMtxLock
 1105              	.LVL48:
 1106              		.loc 1 211 5 view .LVU351
 1107              	.LBB323:
 1108              		.loc 1 211 10 view .LVU352
 1109              		.loc 1 211 23 view .LVU353
 1110 00b6 1D4B     		ldr	r3, .L51+68
 1111 00b8 03F14B02 		add	r2, r3, #75
 1112              	.LVL49:
 1113              	.L48:
 1114              	.LBB324:
 1115              		.loc 1 212 9 view .LVU354
 1116              		.loc 1 212 23 is_stmt 0 view .LVU355
 1117 00bc 1C70     		strb	r4, [r3]
 1118              	.LBE324:
 1119              		.loc 1 211 23 view .LVU356
 1120 00be 0333     		adds	r3, r3, #3
 1121              	.LBB325:
 1122              		.loc 1 212 23 view .LVU357
 1123 00c0 03F8024C 		strb	r4, [r3, #-2]
 1124 00c4 03F8014C 		strb	r4, [r3, #-1]
 1125              	.LBE325:
 1126              		.loc 1 211 43 is_stmt 1 view .LVU358
 1127              		.loc 1 211 23 view .LVU359
 1128 00c8 9342     		cmp	r3, r2
 1129 00ca F7D1     		bne	.L48
 1130              	.LBE323:
 1131              		.loc 1 213 5 view .LVU360
 1132 00cc 0648     		ldr	r0, .L51
 1133 00ce FFF7FEFF 		bl	chMtxUnlock
 1134              	.LVL50:
 1135              	.LBE322:
 1136              	.LBE321:
 1137              		.loc 1 173 5 view .LVU361
 1138 00d2 174B     		ldr	r3, .L51+72
 1139 00d4 8022     		movs	r2, #128
ARM GAS  C:\Users\DEVELO~1\AppData\Local\Temp\cccUcPR2.s 			page 21


 1140 00d6 4FF43871 		mov	r1, #736
 1141 00da 0094     		str	r4, [sp]
 1142 00dc 1548     		ldr	r0, .L51+76
 1143 00de FFF7FEFF 		bl	chThdCreateStatic
 1144              	.LVL51:
 1145              		.loc 1 178 1 is_stmt 0 view .LVU362
 1146 00e2 03B0     		add	sp, sp, #12
 1147              		.cfi_def_cfa_offset 12
 1148              		@ sp needed
 1149 00e4 30BD     		pop	{r4, r5, pc}
 1150              	.L52:
 1151 00e6 00BF     		.align	2
 1152              	.L51:
 1153 00e8 00000000 		.word	.LANCHOR12
 1154 00ec 00000000 		.word	.LANCHOR3
 1155 00f0 00000000 		.word	.LANCHOR2
 1156 00f4 00000000 		.word	.LANCHOR11
 1157 00f8 00000000 		.word	.LANCHOR8
 1158 00fc 00000000 		.word	.LANCHOR7
 1159 0100 00000000 		.word	.LANCHOR6
 1160 0104 00000000 		.word	.LANCHOR4
 1161 0108 00000000 		.word	.LANCHOR10
 1162 010c 00000000 		.word	.LANCHOR9
 1163 0110 00000000 		.word	.LANCHOR5
 1164 0114 00440258 		.word	1476543488
 1165 0118 00040140 		.word	1073808384
 1166 011c 00000000 		.word	.LANCHOR13
 1167 0120 00000000 		.word	ws_dma_callback
 1168 0124 38040140 		.word	1073808440
 1169 0128 00000000 		.word	.LANCHOR14
 1170 012c 00000000 		.word	.LANCHOR0
 1171 0130 00000000 		.word	led_dma_thread
 1172 0134 00000000 		.word	.LANCHOR15
 1173              		.cfi_endproc
 1174              	.LFE454:
 1175              		.size	drv_leds_addr_init, .-drv_leds_addr_init
 1176              		.section	.text.drv_leds_addr_update,"ax",%progbits
 1177              		.align	1
 1178              		.p2align 2,,3
 1179              		.global	drv_leds_addr_update
 1180              		.syntax unified
 1181              		.thumb
 1182              		.thumb_func
 1183              		.type	drv_leds_addr_update, %function
 1184              	drv_leds_addr_update:
 1185              	.LFB455:
 1186              		.loc 1 180 33 is_stmt 1 view -0
 1187              		.cfi_startproc
 1188              		@ args = 0, pretend = 0, frame = 0
 1189              		@ frame_needed = 0, uses_anonymous_args = 0
 1190              		.loc 1 181 5 view .LVU364
 1191              		.loc 1 180 33 is_stmt 0 view .LVU365
 1192 0000 70B5     		push	{r4, r5, r6, lr}
 1193              		.cfi_def_cfa_offset 16
 1194              		.cfi_offset 4, -16
 1195              		.cfi_offset 5, -12
 1196              		.cfi_offset 6, -8
ARM GAS  C:\Users\DEVELO~1\AppData\Local\Temp\cccUcPR2.s 			page 22


 1197              		.cfi_offset 14, -4
 1198              		.loc 1 182 9 view .LVU366
 1199 0002 1F4C     		ldr	r4, .L59
 1200              		.loc 1 181 5 view .LVU367
 1201 0004 1F48     		ldr	r0, .L59+4
 1202 0006 FFF7FEFF 		bl	chMtxLock
 1203              	.LVL52:
 1204              		.loc 1 182 5 is_stmt 1 view .LVU368
 1205              		.loc 1 182 9 is_stmt 0 view .LVU369
 1206 000a 2378     		ldrb	r3, [r4]	@ zero_extendqisi2
 1207              		.loc 1 182 8 view .LVU370
 1208 000c 23B9     		cbnz	r3, .L54
 1209 000e 03F0FF05 		and	r5, r3, #255
 1210              		.loc 1 182 25 discriminator 1 view .LVU371
 1211 0012 1D4B     		ldr	r3, .L59+8
 1212 0014 1B78     		ldrb	r3, [r3]	@ zero_extendqisi2
 1213              		.loc 1 182 22 discriminator 1 view .LVU372
 1214 0016 23B9     		cbnz	r3, .L55
 1215              	.L54:
 1216              		.loc 1 183 9 is_stmt 1 view .LVU373
 1217 0018 1A48     		ldr	r0, .L59+4
 1218              		.loc 1 191 1 is_stmt 0 view .LVU374
 1219 001a BDE87040 		pop	{r4, r5, r6, lr}
 1220              		.cfi_remember_state
 1221              		.cfi_restore 14
 1222              		.cfi_restore 6
 1223              		.cfi_restore 5
 1224              		.cfi_restore 4
 1225              		.cfi_def_cfa_offset 0
 1226              		.loc 1 183 9 view .LVU375
 1227 001e FFF7FEBF 		b	chMtxUnlock
 1228              	.LVL53:
 1229              	.L55:
 1230              		.cfi_restore_state
 1231              		.loc 1 187 5 is_stmt 1 view .LVU376
 1232              	.LBB333:
 1233              	.LBB334:
 1234              		.loc 1 137 5 is_stmt 0 view .LVU377
 1235 0022 1A4E     		ldr	r6, .L59+12
 1236              	.LBE334:
 1237              	.LBE333:
 1238              		.loc 1 187 5 view .LVU378
 1239 0024 FFF7FEFF 		bl	ws_prepare_buffer
 1240              	.LVL54:
 1241              		.loc 1 188 5 is_stmt 1 view .LVU379
 1242              	.LBB350:
 1243              	.LBI333:
 1244              		.loc 1 134 20 view .LVU380
 1245              	.LBB347:
 1246              		.loc 1 135 5 view .LVU381
 1247              	.LBB335:
 1248              	.LBI335:
 1249              		.loc 1 72 20 view .LVU382
 1250              	.LBB336:
 1251              		.loc 1 73 5 view .LVU383
 1252              		.loc 1 73 17 is_stmt 0 view .LVU384
 1253 0028 194B     		ldr	r3, .L59+16
ARM GAS  C:\Users\DEVELO~1\AppData\Local\Temp\cccUcPR2.s 			page 23


 1254 002a 0122     		movs	r2, #1
 1255              	.LBE336:
 1256              	.LBE335:
 1257              		.loc 1 137 5 view .LVU385
 1258 002c 3168     		ldr	r1, [r6]
 1259              	.LBB339:
 1260              	.LBB337:
 1261              		.loc 1 73 17 view .LVU386
 1262 002e 5A61     		str	r2, [r3, #20]
 1263              		.loc 1 74 5 is_stmt 1 view .LVU387
 1264              	.LBE337:
 1265              	.LBE339:
 1266              		.loc 1 137 5 is_stmt 0 view .LVU388
 1267 0030 0A68     		ldr	r2, [r1]
 1268              	.LBB340:
 1269              	.LBB338:
 1270              		.loc 1 74 17 view .LVU389
 1271 0032 5D62     		str	r5, [r3, #36]
 1272              	.LBE338:
 1273              	.LBE340:
 1274              		.loc 1 137 5 is_stmt 1 view .LVU390
 1275 0034 1368     		ldr	r3, [r2]
 1276 0036 23F01F03 		bic	r3, r3, #31
 1277 003a 1360     		str	r3, [r2]
 1278              		.loc 1 137 5 view .LVU391
 1279              	.L56:
 1280              		.loc 1 137 5 view .LVU392
 1281 003c 1368     		ldr	r3, [r2]
 1282 003e DB07     		lsls	r3, r3, #31
 1283 0040 FCD4     		bmi	.L56
 1284              		.loc 1 137 5 view .LVU393
 1285 0042 4868     		ldr	r0, [r1, #4]
 1286 0044 3D23     		movs	r3, #61
 1287 0046 097B     		ldrb	r1, [r1, #12]	@ zero_extendqisi2
 1288 0048 8B40     		lsls	r3, r3, r1
 1289              		.loc 1 138 5 is_stmt 0 view .LVU394
 1290 004a 1249     		ldr	r1, .L59+20
 1291              		.loc 1 137 5 view .LVU395
 1292 004c 0360     		str	r3, [r0]
 1293              		.loc 1 137 5 is_stmt 1 view .LVU396
 1294              		.loc 1 137 36 view .LVU397
 1295              		.loc 1 138 5 view .LVU398
 1296              		.loc 1 140 5 is_stmt 0 view .LVU399
 1297 004e 124B     		ldr	r3, .L59+24
 1298              		.loc 1 138 5 view .LVU400
 1299 0050 D160     		str	r1, [r2, #12]
 1300              		.loc 1 138 51 is_stmt 1 view .LVU401
 1301              		.loc 1 139 5 view .LVU402
 1302 0052 4FF42A71 		mov	r1, #680
 1303              		.loc 1 140 5 is_stmt 0 view .LVU403
 1304 0056 1B68     		ldr	r3, [r3]
 1305              		.loc 1 139 5 view .LVU404
 1306 0058 5160     		str	r1, [r2, #4]
 1307              		.loc 1 139 64 is_stmt 1 view .LVU405
 1308              		.loc 1 140 5 view .LVU406
 1309 005a 1360     		str	r3, [r2]
 1310              		.loc 1 140 49 view .LVU407
ARM GAS  C:\Users\DEVELO~1\AppData\Local\Temp\cccUcPR2.s 			page 24


 1311              		.loc 1 148 5 view .LVU408
 1312              		.loc 1 148 18 is_stmt 0 view .LVU409
 1313 005c 0123     		movs	r3, #1
 1314 005e 2370     		strb	r3, [r4]
 1315              		.loc 1 149 5 is_stmt 1 view .LVU410
 1316              	.LBB341:
 1317              	.LBI341:
 1318              		.loc 7 135 25 view .LVU411
 1319              		.loc 7 140 3 view .LVU412
 1320              	.LBB342:
 1321              	.LBI342:
 1322              		.loc 8 111 25 view .LVU413
 1323              	.LBB343:
 1324              		.loc 8 113 3 view .LVU414
 1325              		.loc 8 113 10 is_stmt 0 view .LVU415
 1326 0060 FFF7FEFF 		bl	stGetCounter
 1327              	.LVL55:
 1328              	.LBE343:
 1329              	.LBE342:
 1330              	.LBE341:
 1331              		.loc 1 150 5 view .LVU416
 1332 0064 3268     		ldr	r2, [r6]
 1333              	.LBB346:
 1334              	.LBB345:
 1335              	.LBB344:
 1336              		.loc 8 113 10 view .LVU417
 1337 0066 0346     		mov	r3, r0
 1338              	.LBE344:
 1339              	.LBE345:
 1340              	.LBE346:
 1341              		.loc 1 149 22 view .LVU418
 1342 0068 0C49     		ldr	r1, .L59+28
 1343              		.loc 1 150 5 view .LVU419
 1344 006a 1268     		ldr	r2, [r2]
 1345              		.loc 1 149 22 view .LVU420
 1346 006c 0B60     		str	r3, [r1]
 1347              		.loc 1 150 5 is_stmt 1 view .LVU421
 1348 006e 1368     		ldr	r3, [r2]
 1349              	.LBE347:
 1350              	.LBE350:
 1351              		.loc 1 190 5 is_stmt 0 view .LVU422
 1352 0070 0448     		ldr	r0, .L59+4
 1353              	.LBB351:
 1354              	.LBB348:
 1355              		.loc 1 150 5 view .LVU423
 1356 0072 43F00103 		orr	r3, r3, #1
 1357              	.LBE348:
 1358              	.LBE351:
 1359              		.loc 1 191 1 view .LVU424
 1360 0076 BDE87040 		pop	{r4, r5, r6, lr}
 1361              		.cfi_restore 14
 1362              		.cfi_restore 6
 1363              		.cfi_restore 5
 1364              		.cfi_restore 4
 1365              		.cfi_def_cfa_offset 0
 1366              	.LBB352:
 1367              	.LBB349:
ARM GAS  C:\Users\DEVELO~1\AppData\Local\Temp\cccUcPR2.s 			page 25


 1368              		.loc 1 150 5 view .LVU425
 1369 007a 1360     		str	r3, [r2]
 1370              		.loc 1 150 35 is_stmt 1 view .LVU426
 1371              	.LBE349:
 1372              	.LBE352:
 1373              		.loc 1 190 5 view .LVU427
 1374 007c FFF7FEBF 		b	chMtxUnlock
 1375              	.LVL56:
 1376              	.L60:
 1377              		.align	2
 1378              	.L59:
 1379 0080 00000000 		.word	.LANCHOR3
 1380 0084 00000000 		.word	.LANCHOR12
 1381 0088 00000000 		.word	.LANCHOR10
 1382 008c 00000000 		.word	.LANCHOR13
 1383 0090 00040140 		.word	1073808384
 1384 0094 00000000 		.word	.LANCHOR1
 1385 0098 00000000 		.word	.LANCHOR14
 1386 009c 00000000 		.word	.LANCHOR7
 1387              		.cfi_endproc
 1388              	.LFE455:
 1389              		.size	drv_leds_addr_update, .-drv_leds_addr_update
 1390              		.section	.text.drv_leds_addr_set_rgb,"ax",%progbits
 1391              		.align	1
 1392              		.p2align 2,,3
 1393              		.global	drv_leds_addr_set_rgb
 1394              		.syntax unified
 1395              		.thumb
 1396              		.thumb_func
 1397              		.type	drv_leds_addr_set_rgb, %function
 1398              	drv_leds_addr_set_rgb:
 1399              	.LVL57:
 1400              	.LFB456:
 1401              		.loc 1 193 72 view -0
 1402              		.cfi_startproc
 1403              		@ args = 0, pretend = 0, frame = 0
 1404              		@ frame_needed = 0, uses_anonymous_args = 0
 1405              		.loc 1 194 5 view .LVU429
 1406              		.loc 1 194 8 is_stmt 0 view .LVU430
 1407 0000 1828     		cmp	r0, #24
 1408 0002 00D9     		bls	.L66
 1409 0004 7047     		bx	lr
 1410              	.L66:
 1411              		.loc 1 195 5 is_stmt 1 view .LVU431
 1412              		.loc 1 193 72 is_stmt 0 view .LVU432
 1413 0006 F8B5     		push	{r3, r4, r5, r6, r7, lr}
 1414              		.cfi_def_cfa_offset 24
 1415              		.cfi_offset 3, -24
 1416              		.cfi_offset 4, -20
 1417              		.cfi_offset 5, -16
 1418              		.cfi_offset 6, -12
 1419              		.cfi_offset 7, -8
 1420              		.cfi_offset 14, -4
 1421 0008 0446     		mov	r4, r0
 1422              		.loc 1 195 5 view .LVU433
 1423 000a 0948     		ldr	r0, .L67
 1424              	.LVL58:
ARM GAS  C:\Users\DEVELO~1\AppData\Local\Temp\cccUcPR2.s 			page 26


 1425              		.loc 1 195 5 view .LVU434
 1426 000c 1D46     		mov	r5, r3
 1427 000e 0E46     		mov	r6, r1
 1428 0010 1746     		mov	r7, r2
 1429              		.loc 1 196 25 view .LVU435
 1430 0012 04EB4404 		add	r4, r4, r4, lsl #1
 1431              	.LVL59:
 1432              		.loc 1 195 5 view .LVU436
 1433 0016 FFF7FEFF 		bl	chMtxLock
 1434              	.LVL60:
 1435              		.loc 1 196 5 is_stmt 1 view .LVU437
 1436              		.loc 1 196 25 is_stmt 0 view .LVU438
 1437 001a 064B     		ldr	r3, .L67+4
 1438              		.loc 1 199 5 view .LVU439
 1439 001c 0448     		ldr	r0, .L67
 1440              		.loc 1 197 25 view .LVU440
 1441 001e 1F55     		strb	r7, [r3, r4]
 1442              		.loc 1 196 25 view .LVU441
 1443 0020 2344     		add	r3, r3, r4
 1444 0022 5E70     		strb	r6, [r3, #1]
 1445              		.loc 1 197 5 is_stmt 1 view .LVU442
 1446              		.loc 1 198 5 view .LVU443
 1447              		.loc 1 198 25 is_stmt 0 view .LVU444
 1448 0024 9D70     		strb	r5, [r3, #2]
 1449              		.loc 1 199 5 is_stmt 1 view .LVU445
 1450              		.loc 1 200 1 is_stmt 0 view .LVU446
 1451 0026 BDE8F840 		pop	{r3, r4, r5, r6, r7, lr}
 1452              		.cfi_restore 14
 1453              		.cfi_restore 7
 1454              		.cfi_restore 6
 1455              		.cfi_restore 5
 1456              		.cfi_restore 4
 1457              		.cfi_restore 3
 1458              		.cfi_def_cfa_offset 0
 1459              		.loc 1 199 5 view .LVU447
 1460 002a FFF7FEBF 		b	chMtxUnlock
 1461              	.LVL61:
 1462              	.L68:
 1463 002e 00BF     		.align	2
 1464              	.L67:
 1465 0030 00000000 		.word	.LANCHOR12
 1466 0034 00000000 		.word	.LANCHOR0
 1467              		.cfi_endproc
 1468              	.LFE456:
 1469              		.size	drv_leds_addr_set_rgb, .-drv_leds_addr_set_rgb
 1470              		.section	.text.drv_leds_addr_set_color,"ax",%progbits
 1471              		.align	1
 1472              		.p2align 2,,3
 1473              		.global	drv_leds_addr_set_color
 1474              		.syntax unified
 1475              		.thumb
 1476              		.thumb_func
 1477              		.type	drv_leds_addr_set_color, %function
 1478              	drv_leds_addr_set_color:
 1479              	.LVL62:
 1480              	.LFB457:
 1481              		.loc 1 202 60 is_stmt 1 view -0
ARM GAS  C:\Users\DEVELO~1\AppData\Local\Temp\cccUcPR2.s 			page 27


 1482              		.cfi_startproc
 1483              		@ args = 0, pretend = 0, frame = 8
 1484              		@ frame_needed = 0, uses_anonymous_args = 0
 1485              		.loc 1 203 5 view .LVU449
 1486              		.loc 1 202 60 is_stmt 0 view .LVU450
 1487 0000 10B5     		push	{r4, lr}
 1488              		.cfi_def_cfa_offset 8
 1489              		.cfi_offset 4, -8
 1490              		.cfi_offset 14, -4
 1491              		.loc 1 203 8 view .LVU451
 1492 0002 1828     		cmp	r0, #24
 1493              		.loc 1 202 60 view .LVU452
 1494 0004 82B0     		sub	sp, sp, #8
 1495              		.cfi_def_cfa_offset 16
 1496              		.loc 1 202 60 view .LVU453
 1497 0006 0191     		str	r1, [sp, #4]
 1498              		.loc 1 203 8 view .LVU454
 1499 0008 01D9     		bls	.L72
 1500              		.loc 1 207 1 view .LVU455
 1501 000a 02B0     		add	sp, sp, #8
 1502              		.cfi_remember_state
 1503              		.cfi_def_cfa_offset 8
 1504              		@ sp needed
 1505 000c 10BD     		pop	{r4, pc}
 1506              	.L72:
 1507              		.cfi_restore_state
 1508              		.loc 1 204 5 is_stmt 1 view .LVU456
 1509 000e 0446     		mov	r4, r0
 1510 0010 0948     		ldr	r0, .L73
 1511              	.LVL63:
 1512              		.loc 1 204 5 is_stmt 0 view .LVU457
 1513 0012 FFF7FEFF 		bl	chMtxLock
 1514              	.LVL64:
 1515              		.loc 1 205 5 is_stmt 1 view .LVU458
 1516              		.loc 1 205 23 is_stmt 0 view .LVU459
 1517 0016 094B     		ldr	r3, .L73+4
 1518 0018 04EB4404 		add	r4, r4, r4, lsl #1
 1519              	.LVL65:
 1520              		.loc 1 205 23 view .LVU460
 1521 001c BDF804C0 		ldrh	ip, [sp, #4]	@ unaligned
 1522 0020 9DF80610 		ldrb	r1, [sp, #6]	@ zero_extendqisi2
 1523 0024 1A19     		adds	r2, r3, r4
 1524              		.loc 1 206 5 view .LVU461
 1525 0026 0448     		ldr	r0, .L73
 1526              		.loc 1 205 23 view .LVU462
 1527 0028 23F804C0 		strh	ip, [r3, r4]	@ unaligned
 1528 002c 9170     		strb	r1, [r2, #2]
 1529              		.loc 1 206 5 is_stmt 1 view .LVU463
 1530              		.loc 1 207 1 is_stmt 0 view .LVU464
 1531 002e 02B0     		add	sp, sp, #8
 1532              		.cfi_def_cfa_offset 8
 1533              		@ sp needed
 1534 0030 BDE81040 		pop	{r4, lr}
 1535              		.cfi_restore 14
 1536              		.cfi_restore 4
 1537              		.cfi_def_cfa_offset 0
 1538              		.loc 1 206 5 view .LVU465
ARM GAS  C:\Users\DEVELO~1\AppData\Local\Temp\cccUcPR2.s 			page 28


 1539 0034 FFF7FEBF 		b	chMtxUnlock
 1540              	.LVL66:
 1541              	.L74:
 1542              		.align	2
 1543              	.L73:
 1544 0038 00000000 		.word	.LANCHOR12
 1545 003c 00000000 		.word	.LANCHOR0
 1546              		.cfi_endproc
 1547              	.LFE457:
 1548              		.size	drv_leds_addr_set_color, .-drv_leds_addr_set_color
 1549              		.section	.text.drv_leds_addr_clear,"ax",%progbits
 1550              		.align	1
 1551              		.p2align 2,,3
 1552              		.global	drv_leds_addr_clear
 1553              		.syntax unified
 1554              		.thumb
 1555              		.thumb_func
 1556              		.type	drv_leds_addr_clear, %function
 1557              	drv_leds_addr_clear:
 1558              	.LFB458:
 1559              		.loc 1 209 32 is_stmt 1 view -0
 1560              		.cfi_startproc
 1561              		@ args = 0, pretend = 0, frame = 0
 1562              		@ frame_needed = 0, uses_anonymous_args = 0
 1563              		.loc 1 210 5 view .LVU467
 1564              		.loc 1 209 32 is_stmt 0 view .LVU468
 1565 0000 08B5     		push	{r3, lr}
 1566              		.cfi_def_cfa_offset 8
 1567              		.cfi_offset 3, -8
 1568              		.cfi_offset 14, -4
 1569              		.loc 1 210 5 view .LVU469
 1570 0002 0A48     		ldr	r0, .L79
 1571 0004 FFF7FEFF 		bl	chMtxLock
 1572              	.LVL67:
 1573              		.loc 1 211 5 is_stmt 1 view .LVU470
 1574              	.LBB353:
 1575              		.loc 1 211 10 view .LVU471
 1576              		.loc 1 211 23 view .LVU472
 1577 0008 094B     		ldr	r3, .L79+4
 1578              	.LBB354:
 1579              		.loc 1 212 23 is_stmt 0 view .LVU473
 1580 000a 0022     		movs	r2, #0
 1581 000c 03F14B01 		add	r1, r3, #75
 1582              	.LVL68:
 1583              	.L76:
 1584              		.loc 1 212 9 is_stmt 1 discriminator 3 view .LVU474
 1585              		.loc 1 212 23 is_stmt 0 discriminator 3 view .LVU475
 1586 0010 1A70     		strb	r2, [r3]
 1587              	.LBE354:
 1588              		.loc 1 211 23 discriminator 3 view .LVU476
 1589 0012 0333     		adds	r3, r3, #3
 1590              	.LBB355:
 1591              		.loc 1 212 23 discriminator 3 view .LVU477
 1592 0014 03F8022C 		strb	r2, [r3, #-2]
 1593 0018 03F8012C 		strb	r2, [r3, #-1]
 1594              	.LBE355:
 1595              		.loc 1 211 43 is_stmt 1 discriminator 3 view .LVU478
ARM GAS  C:\Users\DEVELO~1\AppData\Local\Temp\cccUcPR2.s 			page 29


 1596              		.loc 1 211 23 discriminator 3 view .LVU479
 1597 001c 8B42     		cmp	r3, r1
 1598 001e F7D1     		bne	.L76
 1599              	.LBE353:
 1600              		.loc 1 213 5 view .LVU480
 1601 0020 0248     		ldr	r0, .L79
 1602              		.loc 1 214 1 is_stmt 0 view .LVU481
 1603 0022 BDE80840 		pop	{r3, lr}
 1604              		.cfi_restore 14
 1605              		.cfi_restore 3
 1606              		.cfi_def_cfa_offset 0
 1607              		.loc 1 213 5 view .LVU482
 1608 0026 FFF7FEBF 		b	chMtxUnlock
 1609              	.LVL69:
 1610              	.L80:
 1611 002a 00BF     		.align	2
 1612              	.L79:
 1613 002c 00000000 		.word	.LANCHOR12
 1614 0030 00000000 		.word	.LANCHOR0
 1615              		.cfi_endproc
 1616              	.LFE458:
 1617              		.size	drv_leds_addr_clear, .-drv_leds_addr_clear
 1618              		.section	.text.drv_leds_addr_set,"ax",%progbits
 1619              		.align	1
 1620              		.p2align 2,,3
 1621              		.global	drv_leds_addr_set
 1622              		.syntax unified
 1623              		.thumb
 1624              		.thumb_func
 1625              		.type	drv_leds_addr_set, %function
 1626              	drv_leds_addr_set:
 1627              	.LVL70:
 1628              	.LFB459:
 1629              		.loc 1 216 71 is_stmt 1 view -0
 1630              		.cfi_startproc
 1631              		@ args = 0, pretend = 0, frame = 8
 1632              		@ frame_needed = 0, uses_anonymous_args = 0
 1633              		.loc 1 217 5 view .LVU484
 1634              		.loc 1 216 71 is_stmt 0 view .LVU485
 1635 0000 30B5     		push	{r4, r5, lr}
 1636              		.cfi_def_cfa_offset 12
 1637              		.cfi_offset 4, -12
 1638              		.cfi_offset 5, -8
 1639              		.cfi_offset 14, -4
 1640              		.loc 1 217 8 view .LVU486
 1641 0002 1828     		cmp	r0, #24
 1642              		.loc 1 216 71 view .LVU487
 1643 0004 83B0     		sub	sp, sp, #12
 1644              		.cfi_def_cfa_offset 24
 1645              		.loc 1 216 71 view .LVU488
 1646 0006 0191     		str	r1, [sp, #4]
 1647              		.loc 1 217 8 view .LVU489
 1648 0008 01D9     		bls	.L84
 1649              		.loc 1 222 1 view .LVU490
 1650 000a 03B0     		add	sp, sp, #12
 1651              		.cfi_remember_state
 1652              		.cfi_def_cfa_offset 12
ARM GAS  C:\Users\DEVELO~1\AppData\Local\Temp\cccUcPR2.s 			page 30


 1653              		@ sp needed
 1654 000c 30BD     		pop	{r4, r5, pc}
 1655              	.L84:
 1656              		.cfi_restore_state
 1657              		.loc 1 218 5 is_stmt 1 view .LVU491
 1658 000e 0446     		mov	r4, r0
 1659 0010 0948     		ldr	r0, .L85
 1660              	.LVL71:
 1661              		.loc 1 218 5 is_stmt 0 view .LVU492
 1662 0012 1546     		mov	r5, r2
 1663 0014 FFF7FEFF 		bl	chMtxLock
 1664              	.LVL72:
 1665              		.loc 1 219 5 is_stmt 1 view .LVU493
 1666              		.loc 1 219 38 is_stmt 0 view .LVU494
 1667 0018 019A     		ldr	r2, [sp, #4]
 1668 001a 084B     		ldr	r3, .L85+4
 1669              		.loc 1 221 5 view .LVU495
 1670 001c 0648     		ldr	r0, .L85
 1671              		.loc 1 219 38 view .LVU496
 1672 001e 03EB8401 		add	r1, r3, r4, lsl #2
 1673 0022 23F82420 		strh	r2, [r3, r4, lsl #2]	@ movhi
 1674 0026 120C     		lsrs	r2, r2, #16
 1675              		.loc 1 220 38 view .LVU497
 1676 0028 CD70     		strb	r5, [r1, #3]
 1677              		.loc 1 219 38 view .LVU498
 1678 002a 8A70     		strb	r2, [r1, #2]
 1679              		.loc 1 220 5 is_stmt 1 view .LVU499
 1680              		.loc 1 221 5 view .LVU500
 1681              		.loc 1 222 1 is_stmt 0 view .LVU501
 1682 002c 03B0     		add	sp, sp, #12
 1683              		.cfi_def_cfa_offset 12
 1684              		@ sp needed
 1685 002e BDE83040 		pop	{r4, r5, lr}
 1686              		.cfi_restore 14
 1687              		.cfi_restore 5
 1688              		.cfi_restore 4
 1689              		.cfi_def_cfa_offset 0
 1690              	.LVL73:
 1691              		.loc 1 221 5 view .LVU502
 1692 0032 FFF7FEBF 		b	chMtxUnlock
 1693              	.LVL74:
 1694              	.L86:
 1695 0036 00BF     		.align	2
 1696              	.L85:
 1697 0038 00000000 		.word	.LANCHOR12
 1698 003c 00000000 		.word	.LANCHOR16
 1699              		.cfi_endproc
 1700              	.LFE459:
 1701              		.size	drv_leds_addr_set, .-drv_leds_addr_set
 1702              		.section	.text.drv_leds_addr_render,"ax",%progbits
 1703              		.align	1
 1704              		.p2align 2,,3
 1705              		.global	drv_leds_addr_render
 1706              		.syntax unified
 1707              		.thumb
 1708              		.thumb_func
 1709              		.type	drv_leds_addr_render, %function
ARM GAS  C:\Users\DEVELO~1\AppData\Local\Temp\cccUcPR2.s 			page 31


 1710              	drv_leds_addr_render:
 1711              	.LFB460:
 1712              		.loc 1 224 33 is_stmt 1 view -0
 1713              		.cfi_startproc
 1714              		@ args = 0, pretend = 0, frame = 0
 1715              		@ frame_needed = 0, uses_anonymous_args = 0
 1716              		.loc 1 225 5 view .LVU504
 1717              		.loc 1 226 5 view .LVU505
 1718              		.loc 1 224 33 is_stmt 0 view .LVU506
 1719 0000 70B5     		push	{r4, r5, r6, lr}
 1720              		.cfi_def_cfa_offset 16
 1721              		.cfi_offset 4, -16
 1722              		.cfi_offset 5, -12
 1723              		.cfi_offset 6, -8
 1724              		.cfi_offset 14, -4
 1725              		.loc 1 226 9 view .LVU507
 1726 0002 3D4D     		ldr	r5, .L106
 1727              		.loc 1 230 9 view .LVU508
 1728 0004 3D4C     		ldr	r4, .L106+4
 1729              		.loc 1 226 9 view .LVU509
 1730 0006 2B68     		ldr	r3, [r5]
 1731              		.loc 1 228 5 view .LVU510
 1732 0008 3D48     		ldr	r0, .L106+8
 1733              		.loc 1 226 9 view .LVU511
 1734 000a 0133     		adds	r3, r3, #1
 1735 000c 2B60     		str	r3, [r5]
 1736              		.loc 1 228 5 is_stmt 1 view .LVU512
 1737 000e FFF7FEFF 		bl	chMtxLock
 1738              	.LVL75:
 1739              		.loc 1 230 5 view .LVU513
 1740              		.loc 1 230 9 is_stmt 0 view .LVU514
 1741 0012 2378     		ldrb	r3, [r4]	@ zero_extendqisi2
 1742              		.loc 1 230 8 view .LVU515
 1743 0014 002B     		cmp	r3, #0
 1744 0016 6AD1     		bne	.L88
 1745 0018 03F0FF02 		and	r2, r3, #255
 1746              		.loc 1 230 25 discriminator 1 view .LVU516
 1747 001c 394B     		ldr	r3, .L106+12
 1748 001e 1B78     		ldrb	r3, [r3]	@ zero_extendqisi2
 1749              		.loc 1 230 22 discriminator 1 view .LVU517
 1750 0020 002B     		cmp	r3, #0
 1751 0022 64D0     		beq	.L88
 1752 0024 384E     		ldr	r6, .L106+16
 1753 0026 3346     		mov	r3, r6
 1754 0028 06F14B01 		add	r1, r6, #75
 1755              	.L90:
 1756              	.LBB367:
 1757              	.LBB368:
 1758              		.loc 1 236 9 is_stmt 1 discriminator 3 view .LVU518
 1759              		.loc 1 236 23 is_stmt 0 discriminator 3 view .LVU519
 1760 002c 1A70     		strb	r2, [r3]
 1761              	.LBE368:
 1762              		.loc 1 235 23 discriminator 3 view .LVU520
 1763 002e 0333     		adds	r3, r3, #3
 1764              	.LBB369:
 1765              		.loc 1 236 23 discriminator 3 view .LVU521
 1766 0030 03F8022C 		strb	r2, [r3, #-2]
ARM GAS  C:\Users\DEVELO~1\AppData\Local\Temp\cccUcPR2.s 			page 32


 1767 0034 03F8012C 		strb	r2, [r3, #-1]
 1768              	.LBE369:
 1769              		.loc 1 235 43 is_stmt 1 discriminator 3 view .LVU522
 1770              		.loc 1 235 23 discriminator 3 view .LVU523
 1771 0038 8B42     		cmp	r3, r1
 1772 003a F7D1     		bne	.L90
 1773              	.LBE367:
 1774              	.LBB370:
 1775              		.loc 1 238 14 is_stmt 0 view .LVU524
 1776 003c 0023     		movs	r3, #0
 1777 003e 3349     		ldr	r1, .L106+20
 1778 0040 04E0     		b	.L95
 1779              	.LVL76:
 1780              	.L105:
 1781              	.LBB371:
 1782              		.loc 1 240 9 view .LVU525
 1783 0042 012A     		cmp	r2, #1
 1784 0044 0FD0     		beq	.L93
 1785              	.LVL77:
 1786              	.L94:
 1787              		.loc 1 240 9 view .LVU526
 1788              	.LBE371:
 1789              		.loc 1 238 43 is_stmt 1 discriminator 2 view .LVU527
 1790 0046 0133     		adds	r3, r3, #1
 1791              	.LVL78:
 1792              		.loc 1 238 23 discriminator 2 view .LVU528
 1793 0048 192B     		cmp	r3, #25
 1794 004a 1CD0     		beq	.L104
 1795              	.LVL79:
 1796              	.L95:
 1797              	.LBB372:
 1798              		.loc 1 239 9 view .LVU529
 1799              		.loc 1 240 9 view .LVU530
 1800              		.loc 1 240 39 is_stmt 0 view .LVU531
 1801 004c 01EB8302 		add	r2, r1, r3, lsl #2
 1802 0050 9800     		lsls	r0, r3, #2
 1803 0052 D278     		ldrb	r2, [r2, #3]	@ zero_extendqisi2
 1804              		.loc 1 240 9 view .LVU532
 1805 0054 022A     		cmp	r2, #2
 1806 0056 46D0     		beq	.L91
 1807 0058 032A     		cmp	r2, #3
 1808 005a F2D1     		bne	.L105
 1809              		.loc 1 248 13 is_stmt 1 view .LVU533
 1810              	.LVL80:
 1811              		.loc 1 249 13 view .LVU534
 1812              		.loc 1 256 9 view .LVU535
 1813              		.loc 1 248 25 is_stmt 0 view .LVU536
 1814 005c 2A68     		ldr	r2, [r5]
 1815 005e 02F01F02 		and	r2, r2, #31
 1816              		.loc 1 256 12 view .LVU537
 1817 0062 9A42     		cmp	r2, r3
 1818 0064 EFD1     		bne	.L94
 1819              	.LVL81:
 1820              	.L93:
 1821              		.loc 1 257 13 is_stmt 1 view .LVU538
 1822              		.loc 1 257 27 is_stmt 0 view .LVU539
 1823 0066 03EB4302 		add	r2, r3, r3, lsl #1
ARM GAS  C:\Users\DEVELO~1\AppData\Local\Temp\cccUcPR2.s 			page 33


 1824 006a 01EB000C 		add	ip, r1, r0
 1825              	.LBE372:
 1826              		.loc 1 238 43 view .LVU540
 1827 006e 0133     		adds	r3, r3, #1
 1828              	.LVL82:
 1829              	.LBB373:
 1830              		.loc 1 257 27 view .LVU541
 1831 0070 31F800E0 		ldrh	lr, [r1, r0]	@ unaligned
 1832 0074 9CF802C0 		ldrb	ip, [ip, #2]	@ zero_extendqisi2
 1833 0078 B018     		adds	r0, r6, r2
 1834              	.LBE373:
 1835              		.loc 1 238 23 view .LVU542
 1836 007a 192B     		cmp	r3, #25
 1837              	.LBB374:
 1838              		.loc 1 257 27 view .LVU543
 1839 007c 26F802E0 		strh	lr, [r6, r2]	@ unaligned
 1840 0080 80F802C0 		strb	ip, [r0, #2]
 1841              	.LBE374:
 1842              		.loc 1 238 43 is_stmt 1 view .LVU544
 1843              	.LVL83:
 1844              		.loc 1 238 23 view .LVU545
 1845 0084 E2D1     		bne	.L95
 1846              	.L104:
 1847              		.loc 1 238 23 is_stmt 0 view .LVU546
 1848              	.LBE370:
 1849              		.loc 1 261 5 is_stmt 1 view .LVU547
 1850 0086 FFF7FEFF 		bl	ws_prepare_buffer
 1851              	.LVL84:
 1852              		.loc 1 262 5 view .LVU548
 1853              	.LBB376:
 1854              	.LBI376:
 1855              		.loc 1 134 20 view .LVU549
 1856              	.LBB377:
 1857              		.loc 1 135 5 view .LVU550
 1858              	.LBB378:
 1859              	.LBI378:
 1860              		.loc 1 72 20 view .LVU551
 1861              	.LBB379:
 1862              		.loc 1 73 5 view .LVU552
 1863              	.LBE379:
 1864              	.LBE378:
 1865              		.loc 1 137 5 is_stmt 0 view .LVU553
 1866 008a 214D     		ldr	r5, .L106+24
 1867              	.LBB382:
 1868              	.LBB380:
 1869              		.loc 1 73 17 view .LVU554
 1870 008c 214B     		ldr	r3, .L106+28
 1871 008e 0121     		movs	r1, #1
 1872              		.loc 1 74 17 view .LVU555
 1873 0090 0022     		movs	r2, #0
 1874              		.loc 1 73 17 view .LVU556
 1875 0092 5961     		str	r1, [r3, #20]
 1876              		.loc 1 74 5 is_stmt 1 view .LVU557
 1877              	.LBE380:
 1878              	.LBE382:
 1879              		.loc 1 137 5 is_stmt 0 view .LVU558
 1880 0094 2968     		ldr	r1, [r5]
ARM GAS  C:\Users\DEVELO~1\AppData\Local\Temp\cccUcPR2.s 			page 34


 1881              	.LBB383:
 1882              	.LBB381:
 1883              		.loc 1 74 17 view .LVU559
 1884 0096 5A62     		str	r2, [r3, #36]
 1885              	.LBE381:
 1886              	.LBE383:
 1887              		.loc 1 137 5 is_stmt 1 view .LVU560
 1888 0098 0A68     		ldr	r2, [r1]
 1889 009a 1368     		ldr	r3, [r2]
 1890 009c 23F01F03 		bic	r3, r3, #31
 1891 00a0 1360     		str	r3, [r2]
 1892              		.loc 1 137 5 view .LVU561
 1893              	.L96:
 1894              		.loc 1 137 5 view .LVU562
 1895 00a2 1368     		ldr	r3, [r2]
 1896 00a4 DB07     		lsls	r3, r3, #31
 1897 00a6 FCD4     		bmi	.L96
 1898              		.loc 1 137 5 view .LVU563
 1899 00a8 4868     		ldr	r0, [r1, #4]
 1900 00aa 3D23     		movs	r3, #61
 1901 00ac 097B     		ldrb	r1, [r1, #12]	@ zero_extendqisi2
 1902 00ae 8B40     		lsls	r3, r3, r1
 1903              		.loc 1 138 5 is_stmt 0 view .LVU564
 1904 00b0 1949     		ldr	r1, .L106+32
 1905              		.loc 1 137 5 view .LVU565
 1906 00b2 0360     		str	r3, [r0]
 1907              		.loc 1 137 5 is_stmt 1 view .LVU566
 1908              		.loc 1 137 36 view .LVU567
 1909              		.loc 1 138 5 view .LVU568
 1910              		.loc 1 140 5 is_stmt 0 view .LVU569
 1911 00b4 194B     		ldr	r3, .L106+36
 1912              		.loc 1 138 5 view .LVU570
 1913 00b6 D160     		str	r1, [r2, #12]
 1914              		.loc 1 138 51 is_stmt 1 view .LVU571
 1915              		.loc 1 139 5 view .LVU572
 1916 00b8 4FF42A71 		mov	r1, #680
 1917              		.loc 1 140 5 is_stmt 0 view .LVU573
 1918 00bc 1B68     		ldr	r3, [r3]
 1919              		.loc 1 139 5 view .LVU574
 1920 00be 5160     		str	r1, [r2, #4]
 1921              		.loc 1 139 64 is_stmt 1 view .LVU575
 1922              		.loc 1 140 5 view .LVU576
 1923 00c0 1360     		str	r3, [r2]
 1924              		.loc 1 140 49 view .LVU577
 1925              		.loc 1 148 5 view .LVU578
 1926              		.loc 1 148 18 is_stmt 0 view .LVU579
 1927 00c2 0123     		movs	r3, #1
 1928 00c4 2370     		strb	r3, [r4]
 1929              		.loc 1 149 5 is_stmt 1 view .LVU580
 1930              	.LBB384:
 1931              	.LBI384:
 1932              		.loc 7 135 25 view .LVU581
 1933              		.loc 7 140 3 view .LVU582
 1934              	.LBB385:
 1935              	.LBI385:
 1936              		.loc 8 111 25 view .LVU583
 1937              	.LBB386:
ARM GAS  C:\Users\DEVELO~1\AppData\Local\Temp\cccUcPR2.s 			page 35


 1938              		.loc 8 113 3 view .LVU584
 1939              		.loc 8 113 10 is_stmt 0 view .LVU585
 1940 00c6 FFF7FEFF 		bl	stGetCounter
 1941              	.LVL85:
 1942              	.LBE386:
 1943              	.LBE385:
 1944              	.LBE384:
 1945              		.loc 1 150 5 view .LVU586
 1946 00ca 2A68     		ldr	r2, [r5]
 1947              	.LBB389:
 1948              	.LBB388:
 1949              	.LBB387:
 1950              		.loc 8 113 10 view .LVU587
 1951 00cc 0346     		mov	r3, r0
 1952              	.LBE387:
 1953              	.LBE388:
 1954              	.LBE389:
 1955              		.loc 1 149 22 view .LVU588
 1956 00ce 1449     		ldr	r1, .L106+40
 1957              		.loc 1 150 5 view .LVU589
 1958 00d0 1268     		ldr	r2, [r2]
 1959              		.loc 1 149 22 view .LVU590
 1960 00d2 0B60     		str	r3, [r1]
 1961              		.loc 1 150 5 is_stmt 1 view .LVU591
 1962 00d4 1368     		ldr	r3, [r2]
 1963              	.LBE377:
 1964              	.LBE376:
 1965              		.loc 1 264 5 is_stmt 0 view .LVU592
 1966 00d6 0A48     		ldr	r0, .L106+8
 1967              	.LBB392:
 1968              	.LBB390:
 1969              		.loc 1 150 5 view .LVU593
 1970 00d8 43F00103 		orr	r3, r3, #1
 1971              	.LBE390:
 1972              	.LBE392:
 1973              		.loc 1 265 1 view .LVU594
 1974 00dc BDE87040 		pop	{r4, r5, r6, lr}
 1975              		.cfi_remember_state
 1976              		.cfi_restore 14
 1977              		.cfi_restore 6
 1978              		.cfi_restore 5
 1979              		.cfi_restore 4
 1980              		.cfi_def_cfa_offset 0
 1981              	.LBB393:
 1982              	.LBB391:
 1983              		.loc 1 150 5 view .LVU595
 1984 00e0 1360     		str	r3, [r2]
 1985              		.loc 1 150 35 is_stmt 1 view .LVU596
 1986              	.LBE391:
 1987              	.LBE393:
 1988              		.loc 1 264 5 view .LVU597
 1989 00e2 FFF7FEBF 		b	chMtxUnlock
 1990              	.LVL86:
 1991              	.L91:
 1992              		.cfi_restore_state
 1993              	.LBB394:
 1994              	.LBB375:
ARM GAS  C:\Users\DEVELO~1\AppData\Local\Temp\cccUcPR2.s 			page 36


 1995              		.loc 1 245 13 view .LVU598
 1996              		.loc 1 246 13 view .LVU599
 1997              		.loc 1 256 9 view .LVU600
 1998              		.loc 1 245 39 is_stmt 0 view .LVU601
 1999 00e6 2A68     		ldr	r2, [r5]
 2000              		.loc 1 256 12 view .LVU602
 2001 00e8 1206     		lsls	r2, r2, #24
 2002 00ea BCD4     		bmi	.L93
 2003 00ec ABE7     		b	.L94
 2004              	.LVL87:
 2005              	.L88:
 2006              		.loc 1 256 12 view .LVU603
 2007              	.LBE375:
 2008              	.LBE394:
 2009              		.loc 1 231 9 is_stmt 1 view .LVU604
 2010 00ee 0448     		ldr	r0, .L106+8
 2011              		.loc 1 265 1 is_stmt 0 view .LVU605
 2012 00f0 BDE87040 		pop	{r4, r5, r6, lr}
 2013              		.cfi_restore 14
 2014              		.cfi_restore 6
 2015              		.cfi_restore 5
 2016              		.cfi_restore 4
 2017              		.cfi_def_cfa_offset 0
 2018              		.loc 1 231 9 view .LVU606
 2019 00f4 FFF7FEBF 		b	chMtxUnlock
 2020              	.LVL88:
 2021              	.L107:
 2022              		.align	2
 2023              	.L106:
 2024 00f8 00000000 		.word	.LANCHOR17
 2025 00fc 00000000 		.word	.LANCHOR3
 2026 0100 00000000 		.word	.LANCHOR12
 2027 0104 00000000 		.word	.LANCHOR10
 2028 0108 00000000 		.word	.LANCHOR0
 2029 010c 00000000 		.word	.LANCHOR16
 2030 0110 00000000 		.word	.LANCHOR13
 2031 0114 00040140 		.word	1073808384
 2032 0118 00000000 		.word	.LANCHOR1
 2033 011c 00000000 		.word	.LANCHOR14
 2034 0120 00000000 		.word	.LANCHOR7
 2035              		.cfi_endproc
 2036              	.LFE460:
 2037              		.size	drv_leds_addr_render, .-drv_leds_addr_render
 2038              		.section	.text.drv_leds_addr_is_busy,"ax",%progbits
 2039              		.align	1
 2040              		.p2align 2,,3
 2041              		.global	drv_leds_addr_is_busy
 2042              		.syntax unified
 2043              		.thumb
 2044              		.thumb_func
 2045              		.type	drv_leds_addr_is_busy, %function
 2046              	drv_leds_addr_is_busy:
 2047              	.LFB464:
 2048              		.loc 1 341 34 is_stmt 1 view -0
 2049              		.cfi_startproc
 2050              		@ args = 0, pretend = 0, frame = 0
 2051              		@ frame_needed = 0, uses_anonymous_args = 0
ARM GAS  C:\Users\DEVELO~1\AppData\Local\Temp\cccUcPR2.s 			page 37


 2052              		@ link register save eliminated.
 2053              		.loc 1 342 5 view .LVU608
 2054              		.loc 1 342 12 is_stmt 0 view .LVU609
 2055 0000 014B     		ldr	r3, .L109
 2056 0002 1878     		ldrb	r0, [r3]	@ zero_extendqisi2
 2057              		.loc 1 343 1 view .LVU610
 2058 0004 7047     		bx	lr
 2059              	.L110:
 2060 0006 00BF     		.align	2
 2061              	.L109:
 2062 0008 00000000 		.word	.LANCHOR3
 2063              		.cfi_endproc
 2064              	.LFE464:
 2065              		.size	drv_leds_addr_is_busy, .-drv_leds_addr_is_busy
 2066              		.section	.text.drv_leds_addr_error_count,"ax",%progbits
 2067              		.align	1
 2068              		.p2align 2,,3
 2069              		.global	drv_leds_addr_error_count
 2070              		.syntax unified
 2071              		.thumb
 2072              		.thumb_func
 2073              		.type	drv_leds_addr_error_count, %function
 2074              	drv_leds_addr_error_count:
 2075              	.LFB465:
 2076              		.loc 1 345 42 is_stmt 1 view -0
 2077              		.cfi_startproc
 2078              		@ args = 0, pretend = 0, frame = 0
 2079              		@ frame_needed = 0, uses_anonymous_args = 0
 2080              		@ link register save eliminated.
 2081              		.loc 1 346 5 view .LVU612
 2082              		.loc 1 346 12 is_stmt 0 view .LVU613
 2083 0000 014B     		ldr	r3, .L112
 2084 0002 1868     		ldr	r0, [r3]
 2085              		.loc 1 347 1 view .LVU614
 2086 0004 7047     		bx	lr
 2087              	.L113:
 2088 0006 00BF     		.align	2
 2089              	.L112:
 2090 0008 00000000 		.word	.LANCHOR2
 2091              		.cfi_endproc
 2092              	.LFE465:
 2093              		.size	drv_leds_addr_error_count, .-drv_leds_addr_error_count
 2094              		.section	.text.drv_leds_addr_last_frame_time_us,"ax",%progbits
 2095              		.align	1
 2096              		.p2align 2,,3
 2097              		.global	drv_leds_addr_last_frame_time_us
 2098              		.syntax unified
 2099              		.thumb
 2100              		.thumb_func
 2101              		.type	drv_leds_addr_last_frame_time_us, %function
 2102              	drv_leds_addr_last_frame_time_us:
 2103              	.LFB466:
 2104              		.loc 1 349 49 is_stmt 1 view -0
 2105              		.cfi_startproc
 2106              		@ args = 0, pretend = 0, frame = 0
 2107              		@ frame_needed = 0, uses_anonymous_args = 0
 2108              		@ link register save eliminated.
ARM GAS  C:\Users\DEVELO~1\AppData\Local\Temp\cccUcPR2.s 			page 38


 2109              		.loc 1 350 5 view .LVU616
 2110              		.loc 1 350 12 is_stmt 0 view .LVU617
 2111 0000 014B     		ldr	r3, .L115
 2112 0002 1868     		ldr	r0, [r3]
 2113              		.loc 1 351 1 view .LVU618
 2114 0004 7047     		bx	lr
 2115              	.L116:
 2116 0006 00BF     		.align	2
 2117              	.L115:
 2118 0008 00000000 		.word	.LANCHOR8
 2119              		.cfi_endproc
 2120              	.LFE466:
 2121              		.size	drv_leds_addr_last_frame_time_us, .-drv_leds_addr_last_frame_time_us
 2122              		.section	.text.drv_leds_addr_retry_exhausted_count,"ax",%progbits
 2123              		.align	1
 2124              		.p2align 2,,3
 2125              		.global	drv_leds_addr_retry_exhausted_count
 2126              		.syntax unified
 2127              		.thumb
 2128              		.thumb_func
 2129              		.type	drv_leds_addr_retry_exhausted_count, %function
 2130              	drv_leds_addr_retry_exhausted_count:
 2131              	.LFB467:
 2132              		.loc 1 353 52 is_stmt 1 view -0
 2133              		.cfi_startproc
 2134              		@ args = 0, pretend = 0, frame = 0
 2135              		@ frame_needed = 0, uses_anonymous_args = 0
 2136              		@ link register save eliminated.
 2137              		.loc 1 354 5 view .LVU620
 2138              		.loc 1 354 12 is_stmt 0 view .LVU621
 2139 0000 014B     		ldr	r3, .L118
 2140 0002 1868     		ldr	r0, [r3]
 2141              		.loc 1 355 1 view .LVU622
 2142 0004 7047     		bx	lr
 2143              	.L119:
 2144 0006 00BF     		.align	2
 2145              	.L118:
 2146 0008 00000000 		.word	.LANCHOR11
 2147              		.cfi_endproc
 2148              	.LFE467:
 2149              		.size	drv_leds_addr_retry_exhausted_count, .-drv_leds_addr_retry_exhausted_count
 2150              		.section	.bss.drv_leds_addr_state,"aw",%nobits
 2151              		.align	2
 2152              		.set	.LANCHOR16,. + 0
 2153              		.type	drv_leds_addr_state, %object
 2154              		.size	drv_leds_addr_state, 100
 2155              	drv_leds_addr_state:
 2156 0000 00000000 		.space	100
 2156      00000000 
 2156      00000000 
 2156      00000000 
 2156      00000000 
 2157              		.section	.bss.last_frame_start,"aw",%nobits
 2158              		.align	2
 2159              		.set	.LANCHOR7,. + 0
 2160              		.type	last_frame_start, %object
 2161              		.size	last_frame_start, 4
ARM GAS  C:\Users\DEVELO~1\AppData\Local\Temp\cccUcPR2.s 			page 39


 2162              	last_frame_start:
 2163 0000 00000000 		.space	4
 2164              		.section	.bss.last_frame_time_us,"aw",%nobits
 2165              		.align	2
 2166              		.set	.LANCHOR8,. + 0
 2167              		.type	last_frame_time_us, %object
 2168              		.size	last_frame_time_us, 4
 2169              	last_frame_time_us:
 2170 0000 00000000 		.space	4
 2171              		.section	.bss.led_buffer,"aw",%nobits
 2172              		.align	2
 2173              		.set	.LANCHOR0,. + 0
 2174              		.type	led_buffer, %object
 2175              		.size	led_buffer, 75
 2176              	led_buffer:
 2177 0000 00000000 		.space	75
 2177      00000000 
 2177      00000000 
 2177      00000000 
 2177      00000000 
 2178              		.section	.bss.led_dma_busy,"aw",%nobits
 2179              		.set	.LANCHOR3,. + 0
 2180              		.type	led_dma_busy, %object
 2181              		.size	led_dma_busy, 1
 2182              	led_dma_busy:
 2183 0000 00       		.space	1
 2184              		.section	.bss.led_dma_consecutive_errors,"aw",%nobits
 2185              		.align	2
 2186              		.set	.LANCHOR9,. + 0
 2187              		.type	led_dma_consecutive_errors, %object
 2188              		.size	led_dma_consecutive_errors, 4
 2189              	led_dma_consecutive_errors:
 2190 0000 00000000 		.space	4
 2191              		.section	.bss.led_dma_error_pending,"aw",%nobits
 2192              		.set	.LANCHOR4,. + 0
 2193              		.type	led_dma_error_pending, %object
 2194              		.size	led_dma_error_pending, 1
 2195              	led_dma_error_pending:
 2196 0000 00       		.space	1
 2197              		.section	.bss.led_dma_errors,"aw",%nobits
 2198              		.align	2
 2199              		.set	.LANCHOR2,. + 0
 2200              		.type	led_dma_errors, %object
 2201              		.size	led_dma_errors, 4
 2202              	led_dma_errors:
 2203 0000 00000000 		.space	4
 2204              		.section	.bss.led_dma_retry_exhausted,"aw",%nobits
 2205              		.align	2
 2206              		.set	.LANCHOR11,. + 0
 2207              		.type	led_dma_retry_exhausted, %object
 2208              		.size	led_dma_retry_exhausted, 4
 2209              	led_dma_retry_exhausted:
 2210 0000 00000000 		.space	4
 2211              		.section	.bss.led_dma_sem,"aw",%nobits
 2212              		.align	2
 2213              		.set	.LANCHOR5,. + 0
 2214              		.type	led_dma_sem, %object
ARM GAS  C:\Users\DEVELO~1\AppData\Local\Temp\cccUcPR2.s 			page 40


 2215              		.size	led_dma_sem, 12
 2216              	led_dma_sem:
 2217 0000 00000000 		.space	12
 2217      00000000 
 2217      00000000 
 2218              		.section	.bss.led_dma_tc_pending,"aw",%nobits
 2219              		.set	.LANCHOR6,. + 0
 2220              		.type	led_dma_tc_pending, %object
 2221              		.size	led_dma_tc_pending, 1
 2222              	led_dma_tc_pending:
 2223 0000 00       		.space	1
 2224              		.section	.bss.led_dma_thread_wa,"aw",%nobits
 2225              		.align	5
 2226              		.set	.LANCHOR15,. + 0
 2227              		.type	led_dma_thread_wa, %object
 2228              		.size	led_dma_thread_wa, 1216
 2229              	led_dma_thread_wa:
 2230 0000 00000000 		.space	1216
 2230      00000000 
 2230      00000000 
 2230      00000000 
 2230      00000000 
 2231              		.section	.bss.leds_mutex,"aw",%nobits
 2232              		.align	2
 2233              		.set	.LANCHOR12,. + 0
 2234              		.type	leds_mutex, %object
 2235              		.size	leds_mutex, 16
 2236              	leds_mutex:
 2237 0000 00000000 		.space	16
 2237      00000000 
 2237      00000000 
 2237      00000000 
 2238              		.section	.bss.tick.0,"aw",%nobits
 2239              		.align	2
 2240              		.set	.LANCHOR17,. + 0
 2241              		.type	tick.0, %object
 2242              		.size	tick.0, 4
 2243              	tick.0:
 2244 0000 00000000 		.space	4
 2245              		.section	.bss.ws_dma_mode,"aw",%nobits
 2246              		.align	2
 2247              		.set	.LANCHOR14,. + 0
 2248              		.type	ws_dma_mode, %object
 2249              		.size	ws_dma_mode, 4
 2250              	ws_dma_mode:
 2251 0000 00000000 		.space	4
 2252              		.section	.bss.ws_dma_stream,"aw",%nobits
 2253              		.align	2
 2254              		.set	.LANCHOR13,. + 0
 2255              		.type	ws_dma_stream, %object
 2256              		.size	ws_dma_stream, 4
 2257              	ws_dma_stream:
 2258 0000 00000000 		.space	4
 2259              		.section	.data.led_dma_enabled,"aw"
 2260              		.set	.LANCHOR10,. + 0
 2261              		.type	led_dma_enabled, %object
 2262              		.size	led_dma_enabled, 1
ARM GAS  C:\Users\DEVELO~1\AppData\Local\Temp\cccUcPR2.s 			page 41


 2263              	led_dma_enabled:
 2264 0000 01       		.byte	1
 2265              		.section	.ram_d2,"aw"
 2266              		.align	5
 2267              		.set	.LANCHOR1,. + 0
 2268              		.type	pwm_buffer, %object
 2269              		.size	pwm_buffer, 1360
 2270              	pwm_buffer:
 2271 0000 00000000 		.space	1360
 2271      00000000 
 2271      00000000 
 2271      00000000 
 2271      00000000 
 2272              		.text
 2273              	.Letext0:
 2274              		.file 11 "c:\\chibistudio\\tools\\gnu tools arm embedded\\11.3 2022.08\\lib\\gcc\\arm-none-eabi\\1
 2275              		.file 12 "c:\\chibistudio\\tools\\gnu tools arm embedded\\11.3 2022.08\\arm-none-eabi\\include\\ma
 2276              		.file 13 "c:\\chibistudio\\tools\\gnu tools arm embedded\\11.3 2022.08\\arm-none-eabi\\include\\sy
 2277              		.file 14 "./docs/ChibiOS/os/common/ports/ARM-common/include/chtypes.h"
 2278              		.file 15 "./docs/ChibiOS/os/rt/include/chearly.h"
 2279              		.file 16 "./docs/ChibiOS/os/rt/include/chobjects.h"
 2280              		.file 17 "./docs/ChibiOS/os/rt/include/chrfcu.h"
 2281              		.file 18 "./docs/ChibiOS/os/rt/include/chdebug.h"
 2282              		.file 19 "./docs/ChibiOS/os/rt/include/chtrace.h"
 2283              		.file 20 "./docs/ChibiOS/os/common/ext/ST/STM32H7xx/stm32h743xx.h"
 2284              		.file 21 "./docs/ChibiOS/os/rt/include/chlists.h"
 2285              		.file 22 "./docs/ChibiOS/os/rt/include/chsem.h"
 2286              		.file 23 "./docs/ChibiOS/os/rt/include/chmtx.h"
 2287              		.file 24 "./docs/ChibiOS/os/rt/include/chthreads.h"
 2288              		.file 25 "./docs/ChibiOS/os/hal/ports/STM32/LLD/DMAv2/stm32_dma.h"
 2289              		.file 26 "drivers/drv_leds_addr.h"
 2290              		.file 27 "./docs/ChibiOS/os/hal/include/hal_st.h"
 2291              		.file 28 "<built-in>"