ARM GAS  C:\Users\DEVELO~1\AppData\Local\Temp\ccWjdWXP.s 			page 1


   1              		.cpu cortex-m7
   2              		.arch armv7e-m
   3              		.fpu fpv5-d16
   4              		.eabi_attribute 28, 1
   5              		.eabi_attribute 20, 1
   6              		.eabi_attribute 21, 1
   7              		.eabi_attribute 23, 3
   8              		.eabi_attribute 24, 1
   9              		.eabi_attribute 25, 1
  10              		.eabi_attribute 26, 1
  11              		.eabi_attribute 30, 2
  12              		.eabi_attribute 34, 1
  13              		.eabi_attribute 18, 4
  14              		.file	"drv_buttons.c"
  15              		.text
  16              	.Ltext0:
  17              		.cfi_sections	.debug_frame
  18              		.section	.rodata.buttonThread.str1.4,"aMS",%progbits,1
  19              		.align	2
  20              	.LC0:
  21 0000 62757474 		.ascii	"buttons\000"
  21      6F6E7300 
  22              		.section	.text.buttonThread,"ax",%progbits
  23              		.align	1
  24              		.p2align 2,,3
  25              		.syntax unified
  26              		.thumb
  27              		.thumb_func
  28              		.type	buttonThread, %function
  29              	buttonThread:
  30              	.LVL0:
  31              	.LFB449:
  32              		.file 1 "drivers/drv_buttons.c"
  33              		.loc 1 94 40 view -0
  34              		.cfi_startproc
  35              		@ Volatile: function does not return.
  36              		@ args = 0, pretend = 0, frame = 8
  37              		@ frame_needed = 0, uses_anonymous_args = 0
  38              		.loc 1 95 5 view .LVU1
  39              		.loc 1 96 5 view .LVU2
  40              	.LBB8:
  41              	.LBI8:
  42              		.file 2 "../../../os/rt/include/chregistry.h"
  43              		.loc 2 166 20 view .LVU3
  44              	.LBB9:
  45              		.loc 2 169 3 view .LVU4
  46 0000 1B4B     		ldr	r3, .L5
  47              		.loc 2 169 32 is_stmt 0 view .LVU5
  48 0002 1C4A     		ldr	r2, .L5+4
  49 0004 DB68     		ldr	r3, [r3, #12]
  50              	.LBE9:
  51              	.LBE8:
  52              		.loc 1 98 5 view .LVU6
  53 0006 1C49     		ldr	r1, .L5+8
  54 0008 1C48     		ldr	r0, .L5+12
  55              	.LVL1:
  56              		.loc 1 98 5 view .LVU7
ARM GAS  C:\Users\DEVELO~1\AppData\Local\Temp\ccWjdWXP.s 			page 2


  57 000a 1D4C     		ldr	r4, .L5+16
  58 000c DFF87C80 		ldr	r8, .L5+28
  59              	.LBB11:
  60              	.LBB12:
  61              		.loc 1 67 5 view .LVU8
  62 0010 1C4D     		ldr	r5, .L5+20
  63              		.loc 1 70 5 view .LVU9
  64 0012 1A4E     		ldr	r6, .L5+12
  65              	.LBE12:
  66              	.LBE11:
  67              		.loc 1 94 40 view .LVU10
  68 0014 80B5     		push	{r7, lr}
  69              		.cfi_def_cfa_offset 8
  70              		.cfi_offset 7, -8
  71              		.cfi_offset 14, -4
  72              	.LBB16:
  73              	.LBB10:
  74              		.loc 2 169 32 view .LVU11
  75 0016 1A62     		str	r2, [r3, #32]
  76              	.LVL2:
  77              		.loc 2 169 32 view .LVU12
  78              	.LBE10:
  79              	.LBE16:
  80              		.loc 1 98 5 is_stmt 1 view .LVU13
  81              		.loc 1 94 40 is_stmt 0 view .LVU14
  82 0018 82B0     		sub	sp, sp, #8
  83              		.cfi_def_cfa_offset 16
  84              		.loc 1 98 5 view .LVU15
  85 001a FFF7FEFF 		bl	spiStart
  86              	.LVL3:
  87 001e 1A4B     		ldr	r3, .L5+24
  88              	.LBB17:
  89              	.LBB13:
  90              		.loc 1 64 13 view .LVU16
  91 0020 1F88     		ldrh	r7, [r3]
  92              	.L2:
  93              	.LBE13:
  94              	.LBE17:
  95              		.loc 1 100 5 is_stmt 1 discriminator 1 view .LVU17
  96              		.loc 1 101 9 discriminator 1 view .LVU18
  97              	.LBB18:
  98              	.LBI11:
  99              		.loc 1 62 13 discriminator 1 view .LVU19
 100              	.LBB14:
 101              		.loc 1 64 5 discriminator 1 view .LVU20
 102              		.loc 1 67 5 is_stmt 0 discriminator 1 view .LVU21
 103 0022 4FF00809 		mov	r9, #8
 104              		.loc 1 64 13 discriminator 1 view .LVU22
 105 0026 0023     		movs	r3, #0
 106              		.loc 1 70 5 discriminator 1 view .LVU23
 107 0028 01AA     		add	r2, sp, #4
 108              		.loc 1 64 13 discriminator 1 view .LVU24
 109 002a ADF80470 		strh	r7, [sp, #4]	@ movhi
 110 002e 8DF80630 		strb	r3, [sp, #6]
 111              		.loc 1 67 5 is_stmt 1 discriminator 1 view .LVU25
 112              		.loc 1 70 5 is_stmt 0 discriminator 1 view .LVU26
 113 0032 0321     		movs	r1, #3
ARM GAS  C:\Users\DEVELO~1\AppData\Local\Temp\ccWjdWXP.s 			page 3


 114 0034 3046     		mov	r0, r6
 115              		.loc 1 67 5 discriminator 1 view .LVU27
 116 0036 A5F81A90 		strh	r9, [r5, #26]	@ movhi
 117              		.loc 1 70 5 is_stmt 1 discriminator 1 view .LVU28
 118 003a FFF7FEFF 		bl	spiReceive
 119              	.LVL4:
 120              		.loc 1 73 5 discriminator 1 view .LVU29
 121 003e A5F81890 		strh	r9, [r5, #24]	@ movhi
 122              		.loc 1 75 5 discriminator 1 view .LVU30
 123              		.loc 1 77 24 is_stmt 0 discriminator 1 view .LVU31
 124 0042 9DF80610 		ldrb	r1, [sp, #6]	@ zero_extendqisi2
 125              	.LBE14:
 126              	.LBE18:
 127              		.loc 1 102 9 discriminator 1 view .LVU32
 128 0046 1420     		movs	r0, #20
 129              	.LBB19:
 130              	.LBB15:
 131              		.loc 1 76 24 discriminator 1 view .LVU33
 132 0048 9DF805C0 		ldrb	ip, [sp, #5]	@ zero_extendqisi2
 133              		.loc 1 83 27 discriminator 1 view .LVU34
 134 004c 0B04     		lsls	r3, r1, #16
 135              		.loc 1 75 24 discriminator 1 view .LVU35
 136 004e 9DF80420 		ldrb	r2, [sp, #4]	@ zero_extendqisi2
 137              		.loc 1 80 14 discriminator 1 view .LVU36
 138 0052 43EA0C23 		orr	r3, r3, ip, lsl #8
 139              		.loc 1 75 20 discriminator 1 view .LVU37
 140 0056 2270     		strb	r2, [r4]
 141              		.loc 1 76 5 is_stmt 1 discriminator 1 view .LVU38
 142              		.loc 1 76 20 is_stmt 0 discriminator 1 view .LVU39
 143 0058 84F801C0 		strb	ip, [r4, #1]
 144              		.loc 1 77 5 is_stmt 1 discriminator 1 view .LVU40
 145              		.loc 1 80 14 is_stmt 0 discriminator 1 view .LVU41
 146 005c 1343     		orrs	r3, r3, r2
 147              		.loc 1 77 20 discriminator 1 view .LVU42
 148 005e A170     		strb	r1, [r4, #2]
 149              		.loc 1 80 5 is_stmt 1 discriminator 1 view .LVU43
 150              	.LVL5:
 151              		.loc 1 85 5 discriminator 1 view .LVU44
 152              		.loc 1 85 23 is_stmt 0 discriminator 1 view .LVU45
 153 0060 C3F31303 		ubfx	r3, r3, #0, #20
 154              		.loc 1 85 18 discriminator 1 view .LVU46
 155 0064 C8F80030 		str	r3, [r8]
 156              	.LVL6:
 157              		.loc 1 85 18 discriminator 1 view .LVU47
 158              	.LBE15:
 159              	.LBE19:
 160              		.loc 1 102 9 is_stmt 1 discriminator 1 view .LVU48
 161 0068 FFF7FEFF 		bl	chThdSleep
 162              	.LVL7:
 163              		.loc 1 100 11 discriminator 1 view .LVU49
 164 006c D9E7     		b	.L2
 165              	.L6:
 166 006e 00BF     		.align	2
 167              	.L5:
 168 0070 00000000 		.word	ch0
 169 0074 00000000 		.word	.LC0
 170 0078 00000000 		.word	.LANCHOR0
ARM GAS  C:\Users\DEVELO~1\AppData\Local\Temp\ccWjdWXP.s 			page 4


 171 007c 00000000 		.word	SPID5
 172 0080 00000000 		.word	.LANCHOR2
 173 0084 00000258 		.word	1476526080
 174 0088 00000000 		.word	.LANCHOR1
 175 008c 00000000 		.word	.LANCHOR3
 176              		.cfi_endproc
 177              	.LFE449:
 178              		.size	buttonThread, .-buttonThread
 179              		.section	.text.drv_buttons_init,"ax",%progbits
 180              		.align	1
 181              		.p2align 2,,3
 182              		.global	drv_buttons_init
 183              		.syntax unified
 184              		.thumb
 185              		.thumb_func
 186              		.type	drv_buttons_init, %function
 187              	drv_buttons_init:
 188              	.LFB450:
 189              		.loc 1 110 29 view -0
 190              		.cfi_startproc
 191              		@ args = 0, pretend = 0, frame = 0
 192              		@ frame_needed = 0, uses_anonymous_args = 0
 193              		.loc 1 113 5 view .LVU51
 194              		.loc 1 110 29 is_stmt 0 view .LVU52
 195 0000 10B5     		push	{r4, lr}
 196              		.cfi_def_cfa_offset 8
 197              		.cfi_offset 4, -8
 198              		.cfi_offset 14, -4
 199              		.loc 1 113 5 view .LVU53
 200 0002 044C     		ldr	r4, .L9
 201 0004 0122     		movs	r2, #1
 202 0006 0821     		movs	r1, #8
 203 0008 2046     		mov	r0, r4
 204 000a FFF7FEFF 		bl	_pal_lld_setgroupmode
 205              	.LVL8:
 206              		.loc 1 114 5 is_stmt 1 view .LVU54
 207 000e 0823     		movs	r3, #8
 208 0010 2383     		strh	r3, [r4, #24]	@ movhi
 209              		.loc 1 115 1 is_stmt 0 view .LVU55
 210 0012 10BD     		pop	{r4, pc}
 211              	.L10:
 212              		.align	2
 213              	.L9:
 214 0014 00000258 		.word	1476526080
 215              		.cfi_endproc
 216              	.LFE450:
 217              		.size	drv_buttons_init, .-drv_buttons_init
 218              		.section	.text.drv_buttons_start,"ax",%progbits
 219              		.align	1
 220              		.p2align 2,,3
 221              		.global	drv_buttons_start
 222              		.syntax unified
 223              		.thumb
 224              		.thumb_func
 225              		.type	drv_buttons_start, %function
 226              	drv_buttons_start:
 227              	.LFB451:
ARM GAS  C:\Users\DEVELO~1\AppData\Local\Temp\ccWjdWXP.s 			page 5


 228              		.loc 1 117 30 is_stmt 1 view -0
 229              		.cfi_startproc
 230              		@ args = 0, pretend = 0, frame = 0
 231              		@ frame_needed = 0, uses_anonymous_args = 0
 232              		.loc 1 118 5 view .LVU57
 233              	.LBB22:
 234              	.LBI22:
 235              		.loc 1 110 6 view .LVU58
 236              	.LBB23:
 237              		.loc 1 113 5 view .LVU59
 238              	.LBE23:
 239              	.LBE22:
 240              		.loc 1 117 30 is_stmt 0 view .LVU60
 241 0000 30B5     		push	{r4, r5, lr}
 242              		.cfi_def_cfa_offset 12
 243              		.cfi_offset 4, -12
 244              		.cfi_offset 5, -8
 245              		.cfi_offset 14, -4
 246              	.LBB28:
 247              	.LBB24:
 248              		.loc 1 113 5 view .LVU61
 249 0002 0A4C     		ldr	r4, .L13
 250              	.LBE24:
 251              	.LBE28:
 252              		.loc 1 117 30 view .LVU62
 253 0004 83B0     		sub	sp, sp, #12
 254              		.cfi_def_cfa_offset 24
 255              	.LBB29:
 256              	.LBB25:
 257              		.loc 1 113 5 view .LVU63
 258 0006 0122     		movs	r2, #1
 259 0008 0821     		movs	r1, #8
 260 000a 2046     		mov	r0, r4
 261              	.LBE25:
 262              	.LBE29:
 263              		.loc 1 120 5 view .LVU64
 264 000c 0025     		movs	r5, #0
 265              	.LBB30:
 266              	.LBB26:
 267              		.loc 1 113 5 view .LVU65
 268 000e FFF7FEFF 		bl	_pal_lld_setgroupmode
 269              	.LVL9:
 270              		.loc 1 114 5 is_stmt 1 view .LVU66
 271 0012 0822     		movs	r2, #8
 272              	.LBE26:
 273              	.LBE30:
 274              		.loc 1 120 5 is_stmt 0 view .LVU67
 275 0014 064B     		ldr	r3, .L13+4
 276 0016 4FF43871 		mov	r1, #736
 277              	.LBB31:
 278              	.LBB27:
 279              		.loc 1 114 5 view .LVU68
 280 001a 2283     		strh	r2, [r4, #24]	@ movhi
 281              	.LBE27:
 282              	.LBE31:
 283              		.loc 1 120 5 is_stmt 1 view .LVU69
 284 001c 8022     		movs	r2, #128
ARM GAS  C:\Users\DEVELO~1\AppData\Local\Temp\ccWjdWXP.s 			page 6


 285 001e 0095     		str	r5, [sp]
 286 0020 0448     		ldr	r0, .L13+8
 287 0022 FFF7FEFF 		bl	chThdCreateStatic
 288              	.LVL10:
 289              		.loc 1 122 1 is_stmt 0 view .LVU70
 290 0026 03B0     		add	sp, sp, #12
 291              		.cfi_def_cfa_offset 12
 292              		@ sp needed
 293 0028 30BD     		pop	{r4, r5, pc}
 294              	.L14:
 295 002a 00BF     		.align	2
 296              	.L13:
 297 002c 00000258 		.word	1476526080
 298 0030 00000000 		.word	buttonThread
 299 0034 00000000 		.word	.LANCHOR4
 300              		.cfi_endproc
 301              	.LFE451:
 302              		.size	drv_buttons_start, .-drv_buttons_start
 303              		.section	.text.drv_button_get,"ax",%progbits
 304              		.align	1
 305              		.p2align 2,,3
 306              		.global	drv_button_get
 307              		.syntax unified
 308              		.thumb
 309              		.thumb_func
 310              		.type	drv_button_get, %function
 311              	drv_button_get:
 312              	.LVL11:
 313              	.LFB452:
 314              		.loc 1 124 36 is_stmt 1 view -0
 315              		.cfi_startproc
 316              		@ args = 0, pretend = 0, frame = 0
 317              		@ frame_needed = 0, uses_anonymous_args = 0
 318              		@ link register save eliminated.
 319              		.loc 1 125 5 view .LVU72
 320              		.loc 1 125 8 is_stmt 0 view .LVU73
 321 0000 1328     		cmp	r0, #19
 322 0002 06D8     		bhi	.L17
 323              		.loc 1 128 5 is_stmt 1 view .LVU74
 324              		.loc 1 128 26 is_stmt 0 view .LVU75
 325 0004 044B     		ldr	r3, .L18
 326 0006 1B68     		ldr	r3, [r3]
 327 0008 23FA00F0 		lsr	r0, r3, r0
 328              	.LVL12:
 329              		.loc 1 128 36 view .LVU76
 330 000c 00F00100 		and	r0, r0, #1
 331 0010 7047     		bx	lr
 332              	.LVL13:
 333              	.L17:
 334              		.loc 1 126 16 view .LVU77
 335 0012 0020     		movs	r0, #0
 336              	.LVL14:
 337              		.loc 1 129 1 view .LVU78
 338 0014 7047     		bx	lr
 339              	.L19:
 340 0016 00BF     		.align	2
 341              	.L18:
ARM GAS  C:\Users\DEVELO~1\AppData\Local\Temp\ccWjdWXP.s 			page 7


 342 0018 00000000 		.word	.LANCHOR3
 343              		.cfi_endproc
 344              	.LFE452:
 345              		.size	drv_button_get, .-drv_button_get
 346              		.section	.text.drv_buttons_get_mask,"ax",%progbits
 347              		.align	1
 348              		.p2align 2,,3
 349              		.global	drv_buttons_get_mask
 350              		.syntax unified
 351              		.thumb
 352              		.thumb_func
 353              		.type	drv_buttons_get_mask, %function
 354              	drv_buttons_get_mask:
 355              	.LFB453:
 356              		.loc 1 131 37 is_stmt 1 view -0
 357              		.cfi_startproc
 358              		@ args = 0, pretend = 0, frame = 0
 359              		@ frame_needed = 0, uses_anonymous_args = 0
 360              		@ link register save eliminated.
 361              		.loc 1 132 5 view .LVU80
 362              		.loc 1 132 12 is_stmt 0 view .LVU81
 363 0000 014B     		ldr	r3, .L21
 364 0002 1868     		ldr	r0, [r3]
 365              		.loc 1 133 1 view .LVU82
 366 0004 7047     		bx	lr
 367              	.L22:
 368 0006 00BF     		.align	2
 369              	.L21:
 370 0008 00000000 		.word	.LANCHOR3
 371              		.cfi_endproc
 372              	.LFE453:
 373              		.size	drv_buttons_get_mask, .-drv_buttons_get_mask
 374              		.section	.rodata
 375              		.align	2
 376              		.set	.LANCHOR1,. + 0
 377              	.LC1:
 378 0000 0000     		.ascii	"\000\000"
 379 0002 00       		.space	1
 380              		.section	.bss.buttons_mask,"aw",%nobits
 381              		.align	2
 382              		.set	.LANCHOR3,. + 0
 383              		.type	buttons_mask, %object
 384              		.size	buttons_mask, 4
 385              	buttons_mask:
 386 0000 00000000 		.space	4
 387              		.section	.bss.buttons_raw,"aw",%nobits
 388              		.align	2
 389              		.set	.LANCHOR2,. + 0
 390              		.type	buttons_raw, %object
 391              		.size	buttons_raw, 3
 392              	buttons_raw:
 393 0000 000000   		.space	3
 394              		.section	.bss.waButtons,"aw",%nobits
 395              		.align	5
 396              		.set	.LANCHOR4,. + 0
 397              		.type	waButtons, %object
 398              		.size	waButtons, 736
ARM GAS  C:\Users\DEVELO~1\AppData\Local\Temp\ccWjdWXP.s 			page 8


 399              	waButtons:
 400 0000 00000000 		.space	736
 400      00000000 
 400      00000000 
 400      00000000 
 400      00000000 
 401              		.section	.rodata.spicfg_buttons,"a"
 402              		.align	2
 403              		.set	.LANCHOR0,. + 0
 404              		.type	spicfg_buttons, %object
 405              		.size	spicfg_buttons, 28
 406              	spicfg_buttons:
 407 0000 00       		.byte	0
 408 0001 00       		.byte	0
 409 0002 0000     		.space	2
 410 0004 00000000 		.word	0
 411 0008 00000000 		.word	0
 412 000c 00000000 		.space	8
 412      00000000 
 413 0014 07000040 		.word	1073741831
 414 0018 00004020 		.word	541065216
 415              		.text
 416              	.Letext0:
 417              		.file 3 "c:\\chibistudio\\tools\\gnu tools arm embedded\\11.3 2022.08\\arm-none-eabi\\include\\mac
 418              		.file 4 "c:\\chibistudio\\tools\\gnu tools arm embedded\\11.3 2022.08\\arm-none-eabi\\include\\sys
 419              		.file 5 "c:\\chibistudio\\tools\\gnu tools arm embedded\\11.3 2022.08\\arm-none-eabi\\include\\std
 420              		.file 6 "c:\\chibistudio\\tools\\gnu tools arm embedded\\11.3 2022.08\\lib\\gcc\\arm-none-eabi\\11
 421              		.file 7 "../../../os/common/ports/ARM-common/include/chtypes.h"
 422              		.file 8 "../../../os/rt/include/chearly.h"
 423              		.file 9 "../../../os/rt/include/chobjects.h"
 424              		.file 10 "../../../os/rt/include/chrfcu.h"
 425              		.file 11 "../../../os/rt/include/chdebug.h"
 426              		.file 12 "../../../os/rt/include/chtime.h"
 427              		.file 13 "../../../os/rt/include/chtrace.h"
 428              		.file 14 "../../../os/common/ext/ST/STM32H7xx/stm32h743xx.h"
 429              		.file 15 "../../../os/common/ports/ARMv7-M/chcore.h"
 430              		.file 16 "../../../os/rt/include/chlists.h"
 431              		.file 17 "../../../os/rt/include/chsem.h"
 432              		.file 18 "../../../os/rt/include/chmtx.h"
 433              		.file 19 "../../../os/rt/include/chthreads.h"
 434              		.file 20 "../../../os/hal/ports/STM32/LLD/DMAv2/stm32_dma.h"
 435              		.file 21 "../../../os/hal/ports/STM32/LLD/BDMAv1/stm32_bdma.h"
 436              		.file 22 "../../../os/hal/ports/STM32/LLD/GPIOv2/stm32_gpio.h"
 437              		.file 23 "../../../os/hal/ports/STM32/LLD/GPIOv2/hal_pal_lld.h"
 438              		.file 24 "../../../os/hal/include/hal_spi_v2.h"
 439              		.file 25 "../../../os/hal/ports/STM32/LLD/SPIv3/hal_spi_v2_lld.h"
 440              		.file 26 "../../../os/rt/include/chsys.h"