ARM GAS  C:\Users\DEVELO~1\AppData\Local\Temp\ccqjbveV.s 			page 1


   1              		.cpu cortex-m7
   2              		.arch armv7e-m
   3              		.fpu fpv5-d16
   4              		.eabi_attribute 28, 1
   5              		.eabi_attribute 20, 1
   6              		.eabi_attribute 21, 1
   7              		.eabi_attribute 23, 3
   8              		.eabi_attribute 24, 1
   9              		.eabi_attribute 25, 1
  10              		.eabi_attribute 26, 1
  11              		.eabi_attribute 30, 2
  12              		.eabi_attribute 34, 1
  13              		.eabi_attribute 18, 4
  14              		.file	"drv_buttons.c"
  15              		.text
  16              	.Ltext0:
  17              		.cfi_sections	.debug_frame
  18              		.section	.rodata.buttonThread.str1.4,"aMS",%progbits,1
  19              		.align	2
  20              	.LC0:
  21 0000 62757474 		.ascii	"buttons\000"
  21      6F6E7300 
  22              		.section	.text.buttonThread,"ax",%progbits
  23              		.align	1
  24              		.p2align 2,,3
  25              		.syntax unified
  26              		.thumb
  27              		.thumb_func
  28              		.type	buttonThread, %function
  29              	buttonThread:
  30              	.LVL0:
  31              	.LFB449:
  32              		.file 1 "drivers/drv_buttons.c"
  33              		.loc 1 103 40 view -0
  34              		.cfi_startproc
  35              		@ args = 0, pretend = 0, frame = 8
  36              		@ frame_needed = 0, uses_anonymous_args = 0
  37              		.loc 1 104 5 view .LVU1
  38              		.loc 1 105 5 view .LVU2
  39              	.LBB20:
  40              	.LBI20:
  41              		.file 2 "./docs/ChibiOS/os/rt/include/chregistry.h"
  42              		.loc 2 166 20 view .LVU3
  43              	.LBB21:
  44              		.loc 2 169 3 view .LVU4
  45              	.LBE21:
  46              	.LBE20:
  47              		.loc 1 103 40 is_stmt 0 view .LVU5
  48 0000 2DE9F04F 		push	{r4, r5, r6, r7, r8, r9, r10, fp, lr}
  49              		.cfi_def_cfa_offset 36
  50              		.cfi_offset 4, -36
  51              		.cfi_offset 5, -32
  52              		.cfi_offset 6, -28
  53              		.cfi_offset 7, -24
  54              		.cfi_offset 8, -20
  55              		.cfi_offset 9, -16
  56              		.cfi_offset 10, -12
ARM GAS  C:\Users\DEVELO~1\AppData\Local\Temp\ccqjbveV.s 			page 2


  57              		.cfi_offset 11, -8
  58              		.cfi_offset 14, -4
  59              	.LBB25:
  60              	.LBB22:
  61              		.loc 2 169 3 view .LVU6
  62 0004 DFF8B490 		ldr	r9, .L7+24
  63              	.LBE22:
  64              	.LBE25:
  65              		.loc 1 103 40 view .LVU7
  66 0008 83B0     		sub	sp, sp, #12
  67              		.cfi_def_cfa_offset 48
  68              	.LBB26:
  69              	.LBB23:
  70              		.loc 2 169 32 view .LVU8
  71 000a 2649     		ldr	r1, .L7
  72              		.loc 2 169 3 view .LVU9
  73 000c D9F80C30 		ldr	r3, [r9, #12]
  74              	.LBE23:
  75              	.LBE26:
  76              		.loc 1 107 12 view .LVU10
  77 0010 93F91D20 		ldrsb	r2, [r3, #29]
  78              	.LBB27:
  79              	.LBB24:
  80              		.loc 2 169 32 view .LVU11
  81 0014 1962     		str	r1, [r3, #32]
  82              	.LVL1:
  83              		.loc 2 169 32 view .LVU12
  84              	.LBE24:
  85              	.LBE27:
  86              		.loc 1 107 12 is_stmt 1 view .LVU13
  87              	.LBB28:
  88              	.LBI28:
  89              		.file 3 "./docs/ChibiOS/os/rt/include/chthreads.h"
  90              		.loc 3 597 20 view .LVU14
  91              	.LBB29:
  92              		.loc 3 599 3 view .LVU15
  93              	.LBB30:
  94              	.LBI30:
  95              		.loc 3 527 25 view .LVU16
  96              	.LBB31:
  97              		.loc 3 529 3 view .LVU17
  98              	.LBE31:
  99              	.LBE30:
 100              	.LBE29:
 101              	.LBE28:
 102              		.loc 1 107 12 is_stmt 0 view .LVU18
 103 0016 002A     		cmp	r2, #0
 104 0018 3DDB     		blt	.L2
 105 001a 234B     		ldr	r3, .L7+4
 106 001c 234C     		ldr	r4, .L7+8
 107 001e DFF8A080 		ldr	r8, .L7+28
 108              	.LBB35:
 109              	.LBB36:
 110              		.loc 1 66 13 view .LVU19
 111 0022 1F88     		ldrh	r7, [r3]
 112              		.loc 1 68 5 view .LVU20
 113 0024 224E     		ldr	r6, .L7+12
ARM GAS  C:\Users\DEVELO~1\AppData\Local\Temp\ccqjbveV.s 			page 3


 114              		.loc 1 71 5 view .LVU21
 115 0026 234D     		ldr	r5, .L7+16
 116              	.LVL2:
 117              	.L3:
 118              		.loc 1 71 5 view .LVU22
 119              	.LBE36:
 120              	.LBE35:
 121              		.loc 1 108 9 is_stmt 1 view .LVU23
 122              	.LBB39:
 123              	.LBI35:
 124              		.loc 1 64 13 view .LVU24
 125              	.LBB37:
 126              		.loc 1 66 5 view .LVU25
 127              		.loc 1 66 13 is_stmt 0 view .LVU26
 128 0028 0023     		movs	r3, #0
 129              		.loc 1 68 5 view .LVU27
 130 002a 3046     		mov	r0, r6
 131              		.loc 1 74 5 view .LVU28
 132 002c DFF894A0 		ldr	r10, .L7+32
 133 0030 4FF0080B 		mov	fp, #8
 134              		.loc 1 66 13 view .LVU29
 135 0034 8DF80630 		strb	r3, [sp, #6]
 136              		.loc 1 68 5 is_stmt 1 view .LVU30
 137              		.loc 1 66 13 is_stmt 0 view .LVU31
 138 0038 ADF80470 		strh	r7, [sp, #4]	@ movhi
 139              		.loc 1 68 5 view .LVU32
 140 003c FFF7FEFF 		bl	chMtxLock
 141              	.LVL3:
 142              		.loc 1 71 5 is_stmt 1 view .LVU33
 143 0040 1D49     		ldr	r1, .L7+20
 144 0042 2846     		mov	r0, r5
 145 0044 FFF7FEFF 		bl	spiStart
 146              	.LVL4:
 147              		.loc 1 74 5 view .LVU34
 148              		.loc 1 77 5 is_stmt 0 view .LVU35
 149 0048 01AA     		add	r2, sp, #4
 150 004a 0321     		movs	r1, #3
 151 004c 2846     		mov	r0, r5
 152              		.loc 1 74 5 view .LVU36
 153 004e AAF81AB0 		strh	fp, [r10, #26]	@ movhi
 154              		.loc 1 77 5 is_stmt 1 view .LVU37
 155 0052 FFF7FEFF 		bl	spiReceive
 156              	.LVL5:
 157              		.loc 1 80 5 view .LVU38
 158              		.loc 1 82 5 is_stmt 0 view .LVU39
 159 0056 3046     		mov	r0, r6
 160              		.loc 1 80 5 view .LVU40
 161 0058 AAF818B0 		strh	fp, [r10, #24]	@ movhi
 162              		.loc 1 82 5 is_stmt 1 view .LVU41
 163 005c FFF7FEFF 		bl	chMtxUnlock
 164              	.LVL6:
 165              		.loc 1 84 5 view .LVU42
 166              		.loc 1 86 24 is_stmt 0 view .LVU43
 167 0060 9DF80610 		ldrb	r1, [sp, #6]	@ zero_extendqisi2
 168              		.loc 1 85 24 view .LVU44
 169 0064 9DF805C0 		ldrb	ip, [sp, #5]	@ zero_extendqisi2
 170              	.LBE37:
ARM GAS  C:\Users\DEVELO~1\AppData\Local\Temp\ccqjbveV.s 			page 4


 171              	.LBE39:
 172              		.loc 1 109 9 view .LVU45
 173 0068 1420     		movs	r0, #20
 174              	.LBB40:
 175              	.LBB38:
 176              		.loc 1 92 27 view .LVU46
 177 006a 0B04     		lsls	r3, r1, #16
 178              		.loc 1 84 24 view .LVU47
 179 006c 9DF80420 		ldrb	r2, [sp, #4]	@ zero_extendqisi2
 180              		.loc 1 89 14 view .LVU48
 181 0070 43EA0C23 		orr	r3, r3, ip, lsl #8
 182              		.loc 1 84 20 view .LVU49
 183 0074 2270     		strb	r2, [r4]
 184              		.loc 1 85 5 is_stmt 1 view .LVU50
 185              		.loc 1 85 20 is_stmt 0 view .LVU51
 186 0076 84F801C0 		strb	ip, [r4, #1]
 187              		.loc 1 86 5 is_stmt 1 view .LVU52
 188              		.loc 1 89 14 is_stmt 0 view .LVU53
 189 007a 1343     		orrs	r3, r3, r2
 190              		.loc 1 86 20 view .LVU54
 191 007c A170     		strb	r1, [r4, #2]
 192              		.loc 1 89 5 is_stmt 1 view .LVU55
 193              	.LVL7:
 194              		.loc 1 94 5 view .LVU56
 195              		.loc 1 94 23 is_stmt 0 view .LVU57
 196 007e C3F31303 		ubfx	r3, r3, #0, #20
 197              		.loc 1 94 18 view .LVU58
 198 0082 C8F80030 		str	r3, [r8]
 199              	.LVL8:
 200              		.loc 1 94 18 view .LVU59
 201              	.LBE38:
 202              	.LBE40:
 203              		.loc 1 109 9 is_stmt 1 view .LVU60
 204 0086 FFF7FEFF 		bl	chThdSleep
 205              	.LVL9:
 206              		.loc 1 107 12 view .LVU61
 207              	.LBB41:
 208              		.loc 3 597 20 view .LVU62
 209              	.LBB34:
 210              		.loc 3 599 3 view .LVU63
 211              	.LBB33:
 212              		.loc 3 527 25 view .LVU64
 213              	.LBB32:
 214              		.loc 3 529 3 view .LVU65
 215              	.LBE32:
 216              	.LBE33:
 217              		.loc 3 599 33 is_stmt 0 view .LVU66
 218 008a D9F80C30 		ldr	r3, [r9, #12]
 219              	.LBE34:
 220              	.LBE41:
 221              		.loc 1 107 12 view .LVU67
 222 008e 93F91D30 		ldrsb	r3, [r3, #29]
 223 0092 002B     		cmp	r3, #0
 224 0094 C8DA     		bge	.L3
 225              	.L2:
 226              		.loc 1 112 5 is_stmt 1 view .LVU68
 227 0096 0020     		movs	r0, #0
ARM GAS  C:\Users\DEVELO~1\AppData\Local\Temp\ccqjbveV.s 			page 5


 228              		.loc 1 113 1 is_stmt 0 view .LVU69
 229 0098 03B0     		add	sp, sp, #12
 230              		.cfi_def_cfa_offset 36
 231              		@ sp needed
 232 009a BDE8F04F 		pop	{r4, r5, r6, r7, r8, r9, r10, fp, lr}
 233              		.cfi_restore 14
 234              		.cfi_restore 11
 235              		.cfi_restore 10
 236              		.cfi_restore 9
 237              		.cfi_restore 8
 238              		.cfi_restore 7
 239              		.cfi_restore 6
 240              		.cfi_restore 5
 241              		.cfi_restore 4
 242              		.cfi_def_cfa_offset 0
 243              		.loc 1 112 5 view .LVU70
 244 009e FFF7FEBF 		b	chThdExit
 245              	.LVL10:
 246              	.L8:
 247 00a2 00BF     		.align	2
 248              	.L7:
 249 00a4 00000000 		.word	.LC0
 250 00a8 00000000 		.word	.LANCHOR0
 251 00ac 00000000 		.word	.LANCHOR2
 252 00b0 00000000 		.word	spi5_mutex
 253 00b4 00000000 		.word	SPID5
 254 00b8 00000000 		.word	.LANCHOR1
 255 00bc 00000000 		.word	ch0
 256 00c0 00000000 		.word	.LANCHOR3
 257 00c4 00000258 		.word	1476526080
 258              		.cfi_endproc
 259              	.LFE449:
 260              		.size	buttonThread, .-buttonThread
 261              		.section	.text.drv_buttons_init,"ax",%progbits
 262              		.align	1
 263              		.p2align 2,,3
 264              		.global	drv_buttons_init
 265              		.syntax unified
 266              		.thumb
 267              		.thumb_func
 268              		.type	drv_buttons_init, %function
 269              	drv_buttons_init:
 270              	.LFB450:
 271              		.loc 1 119 29 is_stmt 1 view -0
 272              		.cfi_startproc
 273              		@ args = 0, pretend = 0, frame = 0
 274              		@ frame_needed = 0, uses_anonymous_args = 0
 275              		.loc 1 122 5 view .LVU72
 276              		.loc 1 119 29 is_stmt 0 view .LVU73
 277 0000 10B5     		push	{r4, lr}
 278              		.cfi_def_cfa_offset 8
 279              		.cfi_offset 4, -8
 280              		.cfi_offset 14, -4
 281              		.loc 1 122 5 view .LVU74
 282 0002 044C     		ldr	r4, .L11
 283 0004 0122     		movs	r2, #1
 284 0006 0821     		movs	r1, #8
ARM GAS  C:\Users\DEVELO~1\AppData\Local\Temp\ccqjbveV.s 			page 6


 285 0008 2046     		mov	r0, r4
 286 000a FFF7FEFF 		bl	_pal_lld_setgroupmode
 287              	.LVL11:
 288              		.loc 1 123 5 is_stmt 1 view .LVU75
 289 000e 0823     		movs	r3, #8
 290 0010 2383     		strh	r3, [r4, #24]	@ movhi
 291              		.loc 1 124 1 is_stmt 0 view .LVU76
 292 0012 10BD     		pop	{r4, pc}
 293              	.L12:
 294              		.align	2
 295              	.L11:
 296 0014 00000258 		.word	1476526080
 297              		.cfi_endproc
 298              	.LFE450:
 299              		.size	drv_buttons_init, .-drv_buttons_init
 300              		.section	.text.drv_buttons_start,"ax",%progbits
 301              		.align	1
 302              		.p2align 2,,3
 303              		.global	drv_buttons_start
 304              		.syntax unified
 305              		.thumb
 306              		.thumb_func
 307              		.type	drv_buttons_start, %function
 308              	drv_buttons_start:
 309              	.LFB451:
 310              		.loc 1 126 30 is_stmt 1 view -0
 311              		.cfi_startproc
 312              		@ args = 0, pretend = 0, frame = 0
 313              		@ frame_needed = 0, uses_anonymous_args = 0
 314              		.loc 1 127 5 view .LVU78
 315              		.loc 1 126 30 is_stmt 0 view .LVU79
 316 0000 30B5     		push	{r4, r5, lr}
 317              		.cfi_def_cfa_offset 12
 318              		.cfi_offset 4, -12
 319              		.cfi_offset 5, -8
 320              		.cfi_offset 14, -4
 321              		.loc 1 127 20 view .LVU80
 322 0002 104C     		ldr	r4, .L21
 323              		.loc 1 126 30 view .LVU81
 324 0004 83B0     		sub	sp, sp, #12
 325              		.cfi_def_cfa_offset 24
 326              		.loc 1 127 20 view .LVU82
 327 0006 2068     		ldr	r0, [r4]
 328              		.loc 1 127 8 view .LVU83
 329 0008 40B1     		cbz	r0, .L14
 330              		.loc 1 128 9 is_stmt 1 view .LVU84
 331              	.LVL12:
 332              	.LBB46:
 333              	.LBI46:
 334              		.loc 3 584 20 view .LVU85
 335              	.LBB47:
 336              		.loc 3 586 3 view .LVU86
 337              		.loc 3 586 3 is_stmt 0 view .LVU87
 338              	.LBE47:
 339              	.LBE46:
 340              		.loc 1 128 12 view .LVU88
 341 000a 037F     		ldrb	r3, [r0, #28]	@ zero_extendqisi2
ARM GAS  C:\Users\DEVELO~1\AppData\Local\Temp\ccqjbveV.s 			page 7


 342 000c 0F2B     		cmp	r3, #15
 343 000e 01D0     		beq	.L20
 344              		.loc 1 140 1 view .LVU89
 345 0010 03B0     		add	sp, sp, #12
 346              		.cfi_remember_state
 347              		.cfi_def_cfa_offset 12
 348              		@ sp needed
 349 0012 30BD     		pop	{r4, r5, pc}
 350              	.L20:
 351              		.cfi_restore_state
 352              		.loc 1 129 13 is_stmt 1 view .LVU90
 353 0014 FFF7FEFF 		bl	chThdWait
 354              	.LVL13:
 355              		.loc 1 130 13 view .LVU91
 356              		.loc 1 130 24 is_stmt 0 view .LVU92
 357 0018 0023     		movs	r3, #0
 358 001a 2360     		str	r3, [r4]
 359              	.L14:
 360              		.loc 1 136 5 is_stmt 1 view .LVU93
 361              	.LBB48:
 362              	.LBI48:
 363              		.loc 1 119 6 view .LVU94
 364              	.LBB49:
 365              		.loc 1 122 5 view .LVU95
 366 001c 0A4D     		ldr	r5, .L21+4
 367 001e 0122     		movs	r2, #1
 368 0020 0821     		movs	r1, #8
 369 0022 2846     		mov	r0, r5
 370 0024 FFF7FEFF 		bl	_pal_lld_setgroupmode
 371              	.LVL14:
 372              		.loc 1 123 5 view .LVU96
 373 0028 0821     		movs	r1, #8
 374              	.LBE49:
 375              	.LBE48:
 376              		.loc 1 138 18 is_stmt 0 view .LVU97
 377 002a 0022     		movs	r2, #0
 378 002c 074B     		ldr	r3, .L21+8
 379              	.LBB51:
 380              	.LBB50:
 381              		.loc 1 123 5 view .LVU98
 382 002e 2983     		strh	r1, [r5, #24]	@ movhi
 383              	.LBE50:
 384              	.LBE51:
 385              		.loc 1 138 5 is_stmt 1 view .LVU99
 386              		.loc 1 138 18 is_stmt 0 view .LVU100
 387 0030 4FF43871 		mov	r1, #736
 388 0034 0092     		str	r2, [sp]
 389 0036 8022     		movs	r2, #128
 390 0038 0548     		ldr	r0, .L21+12
 391 003a FFF7FEFF 		bl	chThdCreateStatic
 392              	.LVL15:
 393              		.loc 1 138 16 view .LVU101
 394 003e 2060     		str	r0, [r4]
 395              		.loc 1 140 1 view .LVU102
 396 0040 03B0     		add	sp, sp, #12
 397              		.cfi_def_cfa_offset 12
 398              		@ sp needed
ARM GAS  C:\Users\DEVELO~1\AppData\Local\Temp\ccqjbveV.s 			page 8


 399 0042 30BD     		pop	{r4, r5, pc}
 400              	.L22:
 401              		.align	2
 402              	.L21:
 403 0044 00000000 		.word	.LANCHOR4
 404 0048 00000258 		.word	1476526080
 405 004c 00000000 		.word	buttonThread
 406 0050 00000000 		.word	.LANCHOR5
 407              		.cfi_endproc
 408              	.LFE451:
 409              		.size	drv_buttons_start, .-drv_buttons_start
 410              		.section	.text.drv_buttons_stop,"ax",%progbits
 411              		.align	1
 412              		.p2align 2,,3
 413              		.global	drv_buttons_stop
 414              		.syntax unified
 415              		.thumb
 416              		.thumb_func
 417              		.type	drv_buttons_stop, %function
 418              	drv_buttons_stop:
 419              	.LFB452:
 420              		.loc 1 142 29 is_stmt 1 view -0
 421              		.cfi_startproc
 422              		@ args = 0, pretend = 0, frame = 0
 423              		@ frame_needed = 0, uses_anonymous_args = 0
 424              		.loc 1 143 5 view .LVU104
 425              		.loc 1 142 29 is_stmt 0 view .LVU105
 426 0000 10B5     		push	{r4, lr}
 427              		.cfi_def_cfa_offset 8
 428              		.cfi_offset 4, -8
 429              		.cfi_offset 14, -4
 430              		.loc 1 143 20 view .LVU106
 431 0002 054C     		ldr	r4, .L29
 432 0004 2068     		ldr	r0, [r4]
 433              		.loc 1 143 8 view .LVU107
 434 0006 30B1     		cbz	r0, .L23
 435              		.loc 1 146 5 is_stmt 1 view .LVU108
 436 0008 FFF7FEFF 		bl	chThdTerminate
 437              	.LVL16:
 438              		.loc 1 147 5 view .LVU109
 439 000c 2068     		ldr	r0, [r4]
 440 000e FFF7FEFF 		bl	chThdWait
 441              	.LVL17:
 442              		.loc 1 148 5 view .LVU110
 443              		.loc 1 148 16 is_stmt 0 view .LVU111
 444 0012 0023     		movs	r3, #0
 445 0014 2360     		str	r3, [r4]
 446              	.L23:
 447              		.loc 1 149 1 view .LVU112
 448 0016 10BD     		pop	{r4, pc}
 449              	.L30:
 450              		.align	2
 451              	.L29:
 452 0018 00000000 		.word	.LANCHOR4
 453              		.cfi_endproc
 454              	.LFE452:
 455              		.size	drv_buttons_stop, .-drv_buttons_stop
ARM GAS  C:\Users\DEVELO~1\AppData\Local\Temp\ccqjbveV.s 			page 9


 456              		.section	.text.drv_button_get,"ax",%progbits
 457              		.align	1
 458              		.p2align 2,,3
 459              		.global	drv_button_get
 460              		.syntax unified
 461              		.thumb
 462              		.thumb_func
 463              		.type	drv_button_get, %function
 464              	drv_button_get:
 465              	.LVL18:
 466              	.LFB453:
 467              		.loc 1 151 36 is_stmt 1 view -0
 468              		.cfi_startproc
 469              		@ args = 0, pretend = 0, frame = 0
 470              		@ frame_needed = 0, uses_anonymous_args = 0
 471              		@ link register save eliminated.
 472              		.loc 1 152 5 view .LVU114
 473              		.loc 1 152 8 is_stmt 0 view .LVU115
 474 0000 1328     		cmp	r0, #19
 475 0002 06D8     		bhi	.L33
 476              		.loc 1 155 5 is_stmt 1 view .LVU116
 477              		.loc 1 155 26 is_stmt 0 view .LVU117
 478 0004 044B     		ldr	r3, .L34
 479 0006 1B68     		ldr	r3, [r3]
 480 0008 23FA00F0 		lsr	r0, r3, r0
 481              	.LVL19:
 482              		.loc 1 155 36 view .LVU118
 483 000c 00F00100 		and	r0, r0, #1
 484 0010 7047     		bx	lr
 485              	.LVL20:
 486              	.L33:
 487              		.loc 1 153 16 view .LVU119
 488 0012 0020     		movs	r0, #0
 489              	.LVL21:
 490              		.loc 1 156 1 view .LVU120
 491 0014 7047     		bx	lr
 492              	.L35:
 493 0016 00BF     		.align	2
 494              	.L34:
 495 0018 00000000 		.word	.LANCHOR3
 496              		.cfi_endproc
 497              	.LFE453:
 498              		.size	drv_button_get, .-drv_button_get
 499              		.section	.text.drv_buttons_get_mask,"ax",%progbits
 500              		.align	1
 501              		.p2align 2,,3
 502              		.global	drv_buttons_get_mask
 503              		.syntax unified
 504              		.thumb
 505              		.thumb_func
 506              		.type	drv_buttons_get_mask, %function
 507              	drv_buttons_get_mask:
 508              	.LFB454:
 509              		.loc 1 158 37 is_stmt 1 view -0
 510              		.cfi_startproc
 511              		@ args = 0, pretend = 0, frame = 0
 512              		@ frame_needed = 0, uses_anonymous_args = 0
ARM GAS  C:\Users\DEVELO~1\AppData\Local\Temp\ccqjbveV.s 			page 10


 513              		@ link register save eliminated.
 514              		.loc 1 159 5 view .LVU122
 515              		.loc 1 159 12 is_stmt 0 view .LVU123
 516 0000 014B     		ldr	r3, .L37
 517 0002 1868     		ldr	r0, [r3]
 518              		.loc 1 160 1 view .LVU124
 519 0004 7047     		bx	lr
 520              	.L38:
 521 0006 00BF     		.align	2
 522              	.L37:
 523 0008 00000000 		.word	.LANCHOR3
 524              		.cfi_endproc
 525              	.LFE454:
 526              		.size	drv_buttons_get_mask, .-drv_buttons_get_mask
 527              		.section	.rodata
 528              		.align	2
 529              		.set	.LANCHOR0,. + 0
 530              	.LC1:
 531 0000 0000     		.ascii	"\000\000"
 532 0002 00       		.space	1
 533              		.section	.bss.buttons_mask,"aw",%nobits
 534              		.align	2
 535              		.set	.LANCHOR3,. + 0
 536              		.type	buttons_mask, %object
 537              		.size	buttons_mask, 4
 538              	buttons_mask:
 539 0000 00000000 		.space	4
 540              		.section	.bss.buttons_raw,"aw",%nobits
 541              		.align	2
 542              		.set	.LANCHOR2,. + 0
 543              		.type	buttons_raw, %object
 544              		.size	buttons_raw, 3
 545              	buttons_raw:
 546 0000 000000   		.space	3
 547              		.section	.bss.buttons_tp,"aw",%nobits
 548              		.align	2
 549              		.set	.LANCHOR4,. + 0
 550              		.type	buttons_tp, %object
 551              		.size	buttons_tp, 4
 552              	buttons_tp:
 553 0000 00000000 		.space	4
 554              		.section	.bss.waButtons,"aw",%nobits
 555              		.align	5
 556              		.set	.LANCHOR5,. + 0
 557              		.type	waButtons, %object
 558              		.size	waButtons, 736
 559              	waButtons:
 560 0000 00000000 		.space	736
 560      00000000 
 560      00000000 
 560      00000000 
 560      00000000 
 561              		.section	.rodata.spicfg_buttons,"a"
 562              		.align	2
 563              		.set	.LANCHOR1,. + 0
 564              		.type	spicfg_buttons, %object
 565              		.size	spicfg_buttons, 28
ARM GAS  C:\Users\DEVELO~1\AppData\Local\Temp\ccqjbveV.s 			page 11


 566              	spicfg_buttons:
 567 0000 00       		.byte	0
 568 0001 00       		.byte	0
 569 0002 0000     		.space	2
 570 0004 00000000 		.word	0
 571 0008 00000000 		.word	0
 572 000c 00000000 		.space	8
 572      00000000 
 573 0014 07000040 		.word	1073741831
 574 0018 00004020 		.word	541065216
 575              		.text
 576              	.Letext0:
 577              		.file 4 "c:\\chibistudio\\tools\\gnu tools arm embedded\\11.3 2022.08\\arm-none-eabi\\include\\mac
 578              		.file 5 "c:\\chibistudio\\tools\\gnu tools arm embedded\\11.3 2022.08\\arm-none-eabi\\include\\sys
 579              		.file 6 "c:\\chibistudio\\tools\\gnu tools arm embedded\\11.3 2022.08\\arm-none-eabi\\include\\std
 580              		.file 7 "c:\\chibistudio\\tools\\gnu tools arm embedded\\11.3 2022.08\\lib\\gcc\\arm-none-eabi\\11
 581              		.file 8 "./docs/ChibiOS/os/common/ports/ARM-common/include/chtypes.h"
 582              		.file 9 "./docs/ChibiOS/os/rt/include/chearly.h"
 583              		.file 10 "./docs/ChibiOS/os/rt/include/chobjects.h"
 584              		.file 11 "./docs/ChibiOS/os/rt/include/chrfcu.h"
 585              		.file 12 "./docs/ChibiOS/os/rt/include/chdebug.h"
 586              		.file 13 "./docs/ChibiOS/os/rt/include/chtime.h"
 587              		.file 14 "./docs/ChibiOS/os/rt/include/chtrace.h"
 588              		.file 15 "./docs/ChibiOS/os/common/ext/ST/STM32H7xx/stm32h743xx.h"
 589              		.file 16 "./docs/ChibiOS/os/common/ports/ARMv7-M/chcore.h"
 590              		.file 17 "./docs/ChibiOS/os/rt/include/chlists.h"
 591              		.file 18 "./docs/ChibiOS/os/rt/include/chsem.h"
 592              		.file 19 "./docs/ChibiOS/os/rt/include/chmtx.h"
 593              		.file 20 "./docs/ChibiOS/os/hal/ports/STM32/LLD/DMAv2/stm32_dma.h"
 594              		.file 21 "./docs/ChibiOS/os/hal/ports/STM32/LLD/BDMAv1/stm32_bdma.h"
 595              		.file 22 "./docs/ChibiOS/os/hal/ports/STM32/LLD/GPIOv2/stm32_gpio.h"
 596              		.file 23 "./docs/ChibiOS/os/hal/ports/STM32/LLD/GPIOv2/hal_pal_lld.h"
 597              		.file 24 "./docs/ChibiOS/os/hal/include/hal_spi_v2.h"
 598              		.file 25 "./docs/ChibiOS/os/hal/ports/STM32/LLD/SPIv3/hal_spi_v2_lld.h"
 599              		.file 26 "drivers/drivers.h"
 600              		.file 27 "./docs/ChibiOS/os/rt/include/chsys.h"
 601              		.section	.debug_info,"",%progbits
 602              	.Ldebug_info0:
 603 0000 01150000 		.4byte	0x1501
 604 0004 0500     		.2byte	0x5
 605 0006 01       		.byte	0x1
 606 0007 04       		.byte	0x4
 607 0008 00000000 		.4byte	.Ldebug_abbrev0
 608 000c 27       		.uleb128 0x27
 609 000d AD010000 		.4byte	.LASF229
 610 0011 1D       		.byte	0x1d
 611 0012 B7000000 		.4byte	.LASF230
 612 0016 79040000 		.4byte	.LASF231
 613 001a 51000000 		.4byte	.LLRL10
 614 001e 00000000 		.4byte	0
 615 0022 00000000 		.4byte	.Ldebug_line0
 616 0026 0A       		.uleb128 0xa
 617 0027 01       		.byte	0x1
 618 0028 06       		.byte	0x6
 619 0029 6C090000 		.4byte	.LASF0
 620 002d 02       		.uleb128 0x2
 621 002e F8070000 		.4byte	.LASF3
ARM GAS  C:\Users\DEVELO~1\AppData\Local\Temp\ccqjbveV.s 			page 12


 622 0032 04       		.byte	0x4
 623 0033 2B       		.byte	0x2b
 624 0034 18       		.byte	0x18
 625 0035 39000000 		.4byte	0x39
 626 0039 0A       		.uleb128 0xa
 627 003a 01       		.byte	0x1
 628 003b 08       		.byte	0x8
 629 003c AD080000 		.4byte	.LASF1
 630 0040 0A       		.uleb128 0xa
 631 0041 02       		.byte	0x2
 632 0042 05       		.byte	0x5
 633 0043 52070000 		.4byte	.LASF2
 634 0047 02       		.uleb128 0x2
 635 0048 07030000 		.4byte	.LASF4
 636 004c 04       		.byte	0x4
 637 004d 39       		.byte	0x39
 638 004e 19       		.byte	0x19
 639 004f 53000000 		.4byte	0x53
 640 0053 0A       		.uleb128 0xa
 641 0054 02       		.byte	0x2
 642 0055 07       		.byte	0x7
 643 0056 84090000 		.4byte	.LASF5
 644 005a 02       		.uleb128 0x2
 645 005b 52040000 		.4byte	.LASF6
 646 005f 04       		.byte	0x4
 647 0060 4D       		.byte	0x4d
 648 0061 18       		.byte	0x18
 649 0062 66000000 		.4byte	0x66
 650 0066 0A       		.uleb128 0xa
 651 0067 04       		.byte	0x4
 652 0068 05       		.byte	0x5
 653 0069 00000000 		.4byte	.LASF7
 654 006d 02       		.uleb128 0x2
 655 006e C0080000 		.4byte	.LASF8
 656 0072 04       		.byte	0x4
 657 0073 4F       		.byte	0x4f
 658 0074 19       		.byte	0x19
 659 0075 79000000 		.4byte	0x79
 660 0079 0A       		.uleb128 0xa
 661 007a 04       		.byte	0x4
 662 007b 07       		.byte	0x7
 663 007c 29080000 		.4byte	.LASF9
 664 0080 0A       		.uleb128 0xa
 665 0081 08       		.byte	0x8
 666 0082 05       		.byte	0x5
 667 0083 41050000 		.4byte	.LASF10
 668 0087 02       		.uleb128 0x2
 669 0088 E5040000 		.4byte	.LASF11
 670 008c 04       		.byte	0x4
 671 008d 69       		.byte	0x69
 672 008e 19       		.byte	0x19
 673 008f 93000000 		.4byte	0x93
 674 0093 0A       		.uleb128 0xa
 675 0094 08       		.byte	0x8
 676 0095 07       		.byte	0x7
 677 0096 CA020000 		.4byte	.LASF12
 678 009a 28       		.uleb128 0x28
ARM GAS  C:\Users\DEVELO~1\AppData\Local\Temp\ccqjbveV.s 			page 13


 679 009b 04       		.byte	0x4
 680 009c 05       		.byte	0x5
 681 009d 696E7400 		.ascii	"int\000"
 682 00a1 0A       		.uleb128 0xa
 683 00a2 04       		.byte	0x4
 684 00a3 07       		.byte	0x7
 685 00a4 D6000000 		.4byte	.LASF13
 686 00a8 02       		.uleb128 0x2
 687 00a9 F0040000 		.4byte	.LASF14
 688 00ad 05       		.byte	0x5
 689 00ae 18       		.byte	0x18
 690 00af 13       		.byte	0x13
 691 00b0 2D000000 		.4byte	0x2d
 692 00b4 10       		.uleb128 0x10
 693 00b5 A8000000 		.4byte	0xa8
 694 00b9 02       		.uleb128 0x2
 695 00ba C5060000 		.4byte	.LASF15
 696 00be 05       		.byte	0x5
 697 00bf 24       		.byte	0x24
 698 00c0 14       		.byte	0x14
 699 00c1 47000000 		.4byte	0x47
 700 00c5 02       		.uleb128 0x2
 701 00c6 59080000 		.4byte	.LASF16
 702 00ca 05       		.byte	0x5
 703 00cb 2C       		.byte	0x2c
 704 00cc 13       		.byte	0x13
 705 00cd 5A000000 		.4byte	0x5a
 706 00d1 02       		.uleb128 0x2
 707 00d2 E8000000 		.4byte	.LASF17
 708 00d6 05       		.byte	0x5
 709 00d7 30       		.byte	0x30
 710 00d8 14       		.byte	0x14
 711 00d9 6D000000 		.4byte	0x6d
 712 00dd 10       		.uleb128 0x10
 713 00de D1000000 		.4byte	0xd1
 714 00e2 02       		.uleb128 0x2
 715 00e3 52090000 		.4byte	.LASF18
 716 00e7 05       		.byte	0x5
 717 00e8 3C       		.byte	0x3c
 718 00e9 14       		.byte	0x14
 719 00ea 87000000 		.4byte	0x87
 720 00ee 10       		.uleb128 0x10
 721 00ef E2000000 		.4byte	0xe2
 722 00f3 02       		.uleb128 0x2
 723 00f4 4F050000 		.4byte	.LASF19
 724 00f8 06       		.byte	0x6
 725 00f9 34       		.byte	0x34
 726 00fa 1F       		.byte	0x1f
 727 00fb A1000000 		.4byte	0xa1
 728 00ff 02       		.uleb128 0x2
 729 0100 AC030000 		.4byte	.LASF20
 730 0104 07       		.byte	0x7
 731 0105 D1       		.byte	0xd1
 732 0106 17       		.byte	0x17
 733 0107 A1000000 		.4byte	0xa1
 734 010b 0A       		.uleb128 0xa
 735 010c 08       		.byte	0x8
ARM GAS  C:\Users\DEVELO~1\AppData\Local\Temp\ccqjbveV.s 			page 14


 736 010d 04       		.byte	0x4
 737 010e B9060000 		.4byte	.LASF21
 738 0112 02       		.uleb128 0x2
 739 0113 4E000000 		.4byte	.LASF22
 740 0117 08       		.byte	0x8
 741 0118 48       		.byte	0x48
 742 0119 1D       		.byte	0x1d
 743 011a E2000000 		.4byte	0xe2
 744 011e 02       		.uleb128 0x2
 745 011f 2E030000 		.4byte	.LASF23
 746 0123 09       		.byte	0x9
 747 0124 50       		.byte	0x50
 748 0125 19       		.byte	0x19
 749 0126 12010000 		.4byte	0x112
 750 012a 02       		.uleb128 0x2
 751 012b 98060000 		.4byte	.LASF24
 752 012f 09       		.byte	0x9
 753 0130 53       		.byte	0x53
 754 0131 19       		.byte	0x19
 755 0132 A8000000 		.4byte	0xa8
 756 0136 02       		.uleb128 0x2
 757 0137 C2040000 		.4byte	.LASF25
 758 013b 09       		.byte	0x9
 759 013c 54       		.byte	0x54
 760 013d 19       		.byte	0x19
 761 013e A8000000 		.4byte	0xa8
 762 0142 02       		.uleb128 0x2
 763 0143 21080000 		.4byte	.LASF26
 764 0147 09       		.byte	0x9
 765 0148 55       		.byte	0x55
 766 0149 19       		.byte	0x19
 767 014a A8000000 		.4byte	0xa8
 768 014e 02       		.uleb128 0x2
 769 014f 9A020000 		.4byte	.LASF27
 770 0153 09       		.byte	0x9
 771 0154 57       		.byte	0x57
 772 0155 19       		.byte	0x19
 773 0156 D1000000 		.4byte	0xd1
 774 015a 02       		.uleb128 0x2
 775 015b 77050000 		.4byte	.LASF28
 776 015f 09       		.byte	0x9
 777 0160 58       		.byte	0x58
 778 0161 19       		.byte	0x19
 779 0162 C5000000 		.4byte	0xc5
 780 0166 02       		.uleb128 0x2
 781 0167 62020000 		.4byte	.LASF29
 782 016b 09       		.byte	0x9
 783 016c 5A       		.byte	0x5a
 784 016d 19       		.byte	0x19
 785 016e D1000000 		.4byte	0xd1
 786 0172 02       		.uleb128 0x2
 787 0173 12030000 		.4byte	.LASF30
 788 0177 09       		.byte	0x9
 789 0178 5C       		.byte	0x5c
 790 0179 19       		.byte	0x19
 791 017a C5000000 		.4byte	0xc5
 792 017e 02       		.uleb128 0x2
ARM GAS  C:\Users\DEVELO~1\AppData\Local\Temp\ccqjbveV.s 			page 15


 793 017f 2C0A0000 		.4byte	.LASF31
 794 0183 09       		.byte	0x9
 795 0184 80       		.byte	0x80
 796 0185 12       		.byte	0x12
 797 0186 A1000000 		.4byte	0xa1
 798 018a 02       		.uleb128 0x2
 799 018b 95030000 		.4byte	.LASF32
 800 018f 09       		.byte	0x9
 801 0190 85       		.byte	0x85
 802 0191 1A       		.byte	0x1a
 803 0192 96010000 		.4byte	0x196
 804 0196 09       		.uleb128 0x9
 805 0197 1D050000 		.4byte	.LASF49
 806 019b 50       		.byte	0x50
 807 019c 0A       		.byte	0xa
 808 019d A9       		.byte	0xa9
 809 019e 08       		.byte	0x8
 810 019f 92020000 		.4byte	0x292
 811 01a3 08       		.uleb128 0x8
 812 01a4 68647200 		.ascii	"hdr\000"
 813 01a8 0A       		.byte	0xa
 814 01a9 BA       		.byte	0xba
 815 01aa 05       		.byte	0x5
 816 01ab AD0A0000 		.4byte	0xaad
 817 01af 00       		.byte	0
 818 01b0 08       		.uleb128 0x8
 819 01b1 63747800 		.ascii	"ctx\000"
 820 01b5 0A       		.byte	0xa
 821 01b6 BE       		.byte	0xbe
 822 01b7 21       		.byte	0x21
 823 01b8 FE080000 		.4byte	0x8fe
 824 01bc 0C       		.byte	0xc
 825 01bd 01       		.uleb128 0x1
 826 01be 65030000 		.4byte	.LASF33
 827 01c2 0A       		.byte	0xa
 828 01c3 C2       		.byte	0xc2
 829 01c4 22       		.byte	0x22
 830 01c5 B20B0000 		.4byte	0xbb2
 831 01c9 10       		.byte	0x10
 832 01ca 01       		.uleb128 0x1
 833 01cb 72040000 		.4byte	.LASF34
 834 01cf 0A       		.byte	0xa
 835 01d0 C8       		.byte	0xc8
 836 01d1 22       		.byte	0x22
 837 01d2 B70B0000 		.4byte	0xbb7
 838 01d6 14       		.byte	0x14
 839 01d7 01       		.uleb128 0x1
 840 01d8 2C050000 		.4byte	.LASF35
 841 01dc 0A       		.byte	0xa
 842 01dd CD       		.byte	0xcd
 843 01de 21       		.byte	0x21
 844 01df B70B0000 		.4byte	0xbb7
 845 01e3 18       		.byte	0x18
 846 01e4 01       		.uleb128 0x1
 847 01e5 26090000 		.4byte	.LASF36
 848 01e9 0A       		.byte	0xa
 849 01ea D1       		.byte	0xd1
ARM GAS  C:\Users\DEVELO~1\AppData\Local\Temp\ccqjbveV.s 			page 16


 850 01eb 21       		.byte	0x21
 851 01ec 36010000 		.4byte	0x136
 852 01f0 1C       		.byte	0x1c
 853 01f1 01       		.uleb128 0x1
 854 01f2 8D000000 		.4byte	.LASF37
 855 01f6 0A       		.byte	0xa
 856 01f7 D5       		.byte	0xd5
 857 01f8 21       		.byte	0x21
 858 01f9 2A010000 		.4byte	0x12a
 859 01fd 1D       		.byte	0x1d
 860 01fe 01       		.uleb128 0x1
 861 01ff FE000000 		.4byte	.LASF38
 862 0203 0A       		.byte	0xa
 863 0204 DA       		.byte	0xda
 864 0205 21       		.byte	0x21
 865 0206 42010000 		.4byte	0x142
 866 020a 1E       		.byte	0x1e
 867 020b 01       		.uleb128 0x1
 868 020c 17080000 		.4byte	.LASF39
 869 0210 0A       		.byte	0xa
 870 0211 DE       		.byte	0xde
 871 0212 22       		.byte	0x22
 872 0213 88030000 		.4byte	0x388
 873 0217 20       		.byte	0x20
 874 0218 01       		.uleb128 0x1
 875 0219 CB040000 		.4byte	.LASF40
 876 021d 0A       		.byte	0xa
 877 021e E2       		.byte	0xe2
 878 021f 21       		.byte	0x21
 879 0220 4B090000 		.4byte	0x94b
 880 0224 24       		.byte	0x24
 881 0225 01       		.uleb128 0x1
 882 0226 46000000 		.4byte	.LASF41
 883 022a 0A       		.byte	0xa
 884 022b E8       		.byte	0xe8
 885 022c 21       		.byte	0x21
 886 022d 910A0000 		.4byte	0xa91
 887 0231 2C       		.byte	0x2c
 888 0232 01       		.uleb128 0x1
 889 0233 DF030000 		.4byte	.LASF42
 890 0237 0A       		.byte	0xa
 891 0238 EE       		.byte	0xee
 892 0239 22       		.byte	0x22
 893 023a F7030000 		.4byte	0x3f7
 894 023e 30       		.byte	0x30
 895 023f 04       		.uleb128 0x4
 896 0240 7500     		.ascii	"u\000"
 897 0242 0A       		.byte	0xa
 898 0243 3F01     		.2byte	0x13f
 899 0245 21       		.byte	0x21
 900 0246 DB0A0000 		.4byte	0xadb
 901 024a 34       		.byte	0x34
 902 024b 03       		.uleb128 0x3
 903 024c CB080000 		.4byte	.LASF43
 904 0250 0A       		.byte	0xa
 905 0251 4401     		.2byte	0x144
 906 0253 21       		.byte	0x21
ARM GAS  C:\Users\DEVELO~1\AppData\Local\Temp\ccqjbveV.s 			page 17


 907 0254 1F090000 		.4byte	0x91f
 908 0258 38       		.byte	0x38
 909 0259 03       		.uleb128 0x3
 910 025a 0E050000 		.4byte	.LASF44
 911 025e 0A       		.byte	0xa
 912 025f 4A01     		.2byte	0x14a
 913 0261 21       		.byte	0x21
 914 0262 4B090000 		.4byte	0x94b
 915 0266 3C       		.byte	0x3c
 916 0267 03       		.uleb128 0x3
 917 0268 CD000000 		.4byte	.LASF45
 918 026c 0A       		.byte	0xa
 919 026d 5001     		.2byte	0x150
 920 026f 21       		.byte	0x21
 921 0270 66010000 		.4byte	0x166
 922 0274 44       		.byte	0x44
 923 0275 03       		.uleb128 0x3
 924 0276 71030000 		.4byte	.LASF46
 925 027a 0A       		.byte	0xa
 926 027b 5701     		.2byte	0x157
 927 027d 22       		.byte	0x22
 928 027e AD0B0000 		.4byte	0xbad
 929 0282 48       		.byte	0x48
 930 0283 03       		.uleb128 0x3
 931 0284 9D000000 		.4byte	.LASF47
 932 0288 0A       		.byte	0xa
 933 0289 5B01     		.2byte	0x15b
 934 028b 21       		.byte	0x21
 935 028c 4E010000 		.4byte	0x14e
 936 0290 4C       		.byte	0x4c
 937 0291 00       		.byte	0
 938 0292 02       		.uleb128 0x2
 939 0293 44090000 		.4byte	.LASF48
 940 0297 09       		.byte	0x9
 941 0298 8A       		.byte	0x8a
 942 0299 1F       		.byte	0x1f
 943 029a 9E020000 		.4byte	0x29e
 944 029e 29       		.uleb128 0x29
 945 029f 06040000 		.4byte	.LASF50
 946 02a3 F008     		.2byte	0x8f0
 947 02a5 0A       		.byte	0xa
 948 02a6 9701     		.2byte	0x197
 949 02a8 08       		.byte	0x8
 950 02a9 3A030000 		.4byte	0x33a
 951 02ad 03       		.uleb128 0x3
 952 02ae E0070000 		.4byte	.LASF51
 953 02b2 0A       		.byte	0xa
 954 02b3 9B01     		.2byte	0x19b
 955 02b5 21       		.byte	0x21
 956 02b6 E70B0000 		.4byte	0xbe7
 957 02ba 00       		.byte	0
 958 02bb 03       		.uleb128 0x3
 959 02bc 20010000 		.4byte	.LASF52
 960 02c0 0A       		.byte	0xa
 961 02c1 9F01     		.2byte	0x19f
 962 02c3 21       		.byte	0x21
 963 02c4 520A0000 		.4byte	0xa52
ARM GAS  C:\Users\DEVELO~1\AppData\Local\Temp\ccqjbveV.s 			page 18


 964 02c8 10       		.byte	0x10
 965 02c9 03       		.uleb128 0x3
 966 02ca 5B090000 		.4byte	.LASF53
 967 02ce 0A       		.byte	0xa
 968 02cf A601     		.2byte	0x1a6
 969 02d1 21       		.byte	0x21
 970 02d2 790A0000 		.4byte	0xa79
 971 02d6 30       		.byte	0x30
 972 02d7 03       		.uleb128 0x3
 973 02d8 F1000000 		.4byte	.LASF54
 974 02dc 0A       		.byte	0xa
 975 02dd AB01     		.2byte	0x1ab
 976 02df 21       		.byte	0x21
 977 02e0 7E010000 		.4byte	0x17e
 978 02e4 38       		.byte	0x38
 979 02e5 03       		.uleb128 0x3
 980 02e6 90030000 		.4byte	.LASF55
 981 02ea 0A       		.byte	0xa
 982 02eb B101     		.2byte	0x1b1
 983 02ed 21       		.byte	0x21
 984 02ee 61030000 		.4byte	0x361
 985 02f2 3C       		.byte	0x3c
 986 02f3 03       		.uleb128 0x3
 987 02f4 04070000 		.4byte	.LASF56
 988 02f8 0A       		.byte	0xa
 989 02f9 B601     		.2byte	0x1b6
 990 02fb 22       		.byte	0x22
 991 02fc 5B0C0000 		.4byte	0xc5b
 992 0300 40       		.byte	0x40
 993 0301 03       		.uleb128 0x3
 994 0302 A0060000 		.4byte	.LASF57
 995 0306 0A       		.byte	0xa
 996 0307 BA01     		.2byte	0x1ba
 997 0309 21       		.byte	0x21
 998 030a 8A010000 		.4byte	0x18a
 999 030e 44       		.byte	0x44
 1000 030f 03       		.uleb128 0x3
 1001 0310 1B090000 		.4byte	.LASF58
 1002 0314 0A       		.byte	0xa
 1003 0315 BF01     		.2byte	0x1bf
 1004 0317 21       		.byte	0x21
 1005 0318 8A010000 		.4byte	0x18a
 1006 031c 94       		.byte	0x94
 1007 031d 04       		.uleb128 0x4
 1008 031e 64626700 		.ascii	"dbg\000"
 1009 0322 0A       		.byte	0xa
 1010 0323 C401     		.2byte	0x1c4
 1011 0325 21       		.byte	0x21
 1012 0326 9E030000 		.4byte	0x39e
 1013 032a E4       		.byte	0xe4
 1014 032b 03       		.uleb128 0x3
 1015 032c 6E080000 		.4byte	.LASF59
 1016 0330 0A       		.byte	0xa
 1017 0331 C901     		.2byte	0x1c9
 1018 0333 21       		.byte	0x21
 1019 0334 59050000 		.4byte	0x559
 1020 0338 E8       		.byte	0xe8
ARM GAS  C:\Users\DEVELO~1\AppData\Local\Temp\ccqjbveV.s 			page 19


 1021 0339 00       		.byte	0
 1022 033a 02       		.uleb128 0x2
 1023 033b 46040000 		.4byte	.LASF60
 1024 033f 0B       		.byte	0xb
 1025 0340 3F       		.byte	0x3f
 1026 0341 12       		.byte	0x12
 1027 0342 D1000000 		.4byte	0xd1
 1028 0346 09       		.uleb128 0x9
 1029 0347 E6030000 		.4byte	.LASF61
 1030 034b 04       		.byte	0x4
 1031 034c 0B       		.byte	0xb
 1032 034d 44       		.byte	0x44
 1033 034e 10       		.byte	0x10
 1034 034f 61030000 		.4byte	0x361
 1035 0353 01       		.uleb128 0x1
 1036 0354 0B060000 		.4byte	.LASF62
 1037 0358 0B       		.byte	0xb
 1038 0359 48       		.byte	0x48
 1039 035a 21       		.byte	0x21
 1040 035b 3A030000 		.4byte	0x33a
 1041 035f 00       		.byte	0
 1042 0360 00       		.byte	0
 1043 0361 02       		.uleb128 0x2
 1044 0362 61080000 		.4byte	.LASF63
 1045 0366 0B       		.byte	0xb
 1046 0367 49       		.byte	0x49
 1047 0368 03       		.byte	0x3
 1048 0369 46030000 		.4byte	0x346
 1049 036d 09       		.uleb128 0x9
 1050 036e 82010000 		.4byte	.LASF64
 1051 0372 04       		.byte	0x4
 1052 0373 0C       		.byte	0xc
 1053 0374 3E       		.byte	0x3e
 1054 0375 10       		.byte	0x10
 1055 0376 88030000 		.4byte	0x388
 1056 037a 01       		.uleb128 0x1
 1057 037b E9080000 		.4byte	.LASF65
 1058 037f 0C       		.byte	0xc
 1059 0380 46       		.byte	0x46
 1060 0381 24       		.byte	0x24
 1061 0382 8D030000 		.4byte	0x38d
 1062 0386 00       		.byte	0
 1063 0387 00       		.byte	0
 1064 0388 05       		.uleb128 0x5
 1065 0389 99030000 		.4byte	0x399
 1066 038d 10       		.uleb128 0x10
 1067 038e 88030000 		.4byte	0x388
 1068 0392 0A       		.uleb128 0xa
 1069 0393 01       		.byte	0x1
 1070 0394 08       		.byte	0x8
 1071 0395 31040000 		.4byte	.LASF66
 1072 0399 12       		.uleb128 0x12
 1073 039a 92030000 		.4byte	0x392
 1074 039e 02       		.uleb128 0x2
 1075 039f 32050000 		.4byte	.LASF67
 1076 03a3 0C       		.byte	0xc
 1077 03a4 51       		.byte	0x51
ARM GAS  C:\Users\DEVELO~1\AppData\Local\Temp\ccqjbveV.s 			page 20


 1078 03a5 03       		.byte	0x3
 1079 03a6 6D030000 		.4byte	0x36d
 1080 03aa 02       		.uleb128 0x2
 1081 03ab 93000000 		.4byte	.LASF68
 1082 03af 0D       		.byte	0xd
 1083 03b0 6D       		.byte	0x6d
 1084 03b1 12       		.byte	0x12
 1085 03b2 D1000000 		.4byte	0xd1
 1086 03b6 02       		.uleb128 0x2
 1087 03b7 42060000 		.4byte	.LASF69
 1088 03bb 0D       		.byte	0xd
 1089 03bc 79       		.byte	0x79
 1090 03bd 12       		.byte	0x12
 1091 03be D1000000 		.4byte	0xd1
 1092 03c2 02       		.uleb128 0x2
 1093 03c3 5C040000 		.4byte	.LASF70
 1094 03c7 0D       		.byte	0xd
 1095 03c8 9B       		.byte	0x9b
 1096 03c9 12       		.byte	0x12
 1097 03ca E2000000 		.4byte	0xe2
 1098 03ce 0B       		.uleb128 0xb
 1099 03cf 08       		.byte	0x8
 1100 03d0 0E       		.byte	0xe
 1101 03d1 83       		.byte	0x83
 1102 03d2 05       		.byte	0x5
 1103 03d3 F2030000 		.4byte	0x3f2
 1104 03d7 08       		.uleb128 0x8
 1105 03d8 6E747000 		.ascii	"ntp\000"
 1106 03dc 0E       		.byte	0xe
 1107 03dd 87       		.byte	0x87
 1108 03de 1E       		.byte	0x1e
 1109 03df F2030000 		.4byte	0x3f2
 1110 03e3 00       		.byte	0
 1111 03e4 01       		.uleb128 0x1
 1112 03e5 6F010000 		.4byte	.LASF71
 1113 03e9 0E       		.byte	0xe
 1114 03ea 8B       		.byte	0x8b
 1115 03eb 1E       		.byte	0x1e
 1116 03ec F7030000 		.4byte	0x3f7
 1117 03f0 04       		.byte	0x4
 1118 03f1 00       		.byte	0
 1119 03f2 05       		.uleb128 0x5
 1120 03f3 8A010000 		.4byte	0x18a
 1121 03f7 2A       		.uleb128 0x2a
 1122 03f8 04       		.byte	0x4
 1123 03f9 0B       		.uleb128 0xb
 1124 03fa 08       		.byte	0x8
 1125 03fb 0E       		.byte	0xe
 1126 03fc 90       		.byte	0x90
 1127 03fd 05       		.byte	0x5
 1128 03fe 1C040000 		.4byte	0x41c
 1129 0402 08       		.uleb128 0x8
 1130 0403 747000   		.ascii	"tp\000"
 1131 0406 0E       		.byte	0xe
 1132 0407 94       		.byte	0x94
 1133 0408 1E       		.byte	0x1e
 1134 0409 F2030000 		.4byte	0x3f2
ARM GAS  C:\Users\DEVELO~1\AppData\Local\Temp\ccqjbveV.s 			page 21


 1135 040d 00       		.byte	0
 1136 040e 08       		.uleb128 0x8
 1137 040f 6D736700 		.ascii	"msg\000"
 1138 0413 0E       		.byte	0xe
 1139 0414 98       		.byte	0x98
 1140 0415 1D       		.byte	0x1d
 1141 0416 5A010000 		.4byte	0x15a
 1142 041a 04       		.byte	0x4
 1143 041b 00       		.byte	0
 1144 041c 0B       		.uleb128 0xb
 1145 041d 04       		.byte	0x4
 1146 041e 0E       		.byte	0xe
 1147 041f 9D       		.byte	0x9d
 1148 0420 05       		.byte	0x5
 1149 0421 33040000 		.4byte	0x433
 1150 0425 01       		.uleb128 0x1
 1151 0426 17080000 		.4byte	.LASF39
 1152 042a 0E       		.byte	0xe
 1153 042b A1       		.byte	0xa1
 1154 042c 1E       		.byte	0x1e
 1155 042d 88030000 		.4byte	0x388
 1156 0431 00       		.byte	0
 1157 0432 00       		.byte	0
 1158 0433 0B       		.uleb128 0xb
 1159 0434 04       		.byte	0x4
 1160 0435 0E       		.byte	0xe
 1161 0436 A6       		.byte	0xa6
 1162 0437 05       		.byte	0x5
 1163 0438 4A040000 		.4byte	0x44a
 1164 043c 01       		.uleb128 0x1
 1165 043d E1020000 		.4byte	.LASF72
 1166 0441 0E       		.byte	0xe
 1167 0442 AA       		.byte	0xaa
 1168 0443 1E       		.byte	0x1e
 1169 0444 88030000 		.4byte	0x388
 1170 0448 00       		.byte	0
 1171 0449 00       		.byte	0
 1172 044a 0B       		.uleb128 0xb
 1173 044b 08       		.byte	0x8
 1174 044c 0E       		.byte	0xe
 1175 044d AF       		.byte	0xaf
 1176 044e 05       		.byte	0x5
 1177 044f 6E040000 		.4byte	0x46e
 1178 0453 08       		.uleb128 0x8
 1179 0454 75703100 		.ascii	"up1\000"
 1180 0458 0E       		.byte	0xe
 1181 0459 B3       		.byte	0xb3
 1182 045a 1E       		.byte	0x1e
 1183 045b F7030000 		.4byte	0x3f7
 1184 045f 00       		.byte	0
 1185 0460 08       		.uleb128 0x8
 1186 0461 75703200 		.ascii	"up2\000"
 1187 0465 0E       		.byte	0xe
 1188 0466 B7       		.byte	0xb7
 1189 0467 1E       		.byte	0x1e
 1190 0468 F7030000 		.4byte	0x3f7
 1191 046c 04       		.byte	0x4
ARM GAS  C:\Users\DEVELO~1\AppData\Local\Temp\ccqjbveV.s 			page 22


 1192 046d 00       		.byte	0
 1193 046e 13       		.uleb128 0x13
 1194 046f 08       		.byte	0x8
 1195 0470 0E       		.byte	0xe
 1196 0471 7F       		.byte	0x7f
 1197 0472 03       		.byte	0x3
 1198 0473 B3040000 		.4byte	0x4b3
 1199 0477 0E       		.uleb128 0xe
 1200 0478 737700   		.ascii	"sw\000"
 1201 047b 0E       		.byte	0xe
 1202 047c 8C       		.byte	0x8c
 1203 047d 07       		.byte	0x7
 1204 047e CE030000 		.4byte	0x3ce
 1205 0482 0E       		.uleb128 0xe
 1206 0483 72647900 		.ascii	"rdy\000"
 1207 0487 0E       		.byte	0xe
 1208 0488 99       		.byte	0x99
 1209 0489 07       		.byte	0x7
 1210 048a F9030000 		.4byte	0x3f9
 1211 048e 0E       		.uleb128 0xe
 1212 048f 69737200 		.ascii	"isr\000"
 1213 0493 0E       		.byte	0xe
 1214 0494 A2       		.byte	0xa2
 1215 0495 07       		.byte	0x7
 1216 0496 1C040000 		.4byte	0x41c
 1217 049a 0F       		.uleb128 0xf
 1218 049b C5020000 		.4byte	.LASF73
 1219 049f 0E       		.byte	0xe
 1220 04a0 AB       		.byte	0xab
 1221 04a1 07       		.byte	0x7
 1222 04a2 33040000 		.4byte	0x433
 1223 04a6 0F       		.uleb128 0xf
 1224 04a7 A7030000 		.4byte	.LASF74
 1225 04ab 0E       		.byte	0xe
 1226 04ac B8       		.byte	0xb8
 1227 04ad 07       		.byte	0x7
 1228 04ae 4A040000 		.4byte	0x44a
 1229 04b2 00       		.byte	0
 1230 04b3 0B       		.uleb128 0xb
 1231 04b4 10       		.byte	0x10
 1232 04b5 0E       		.byte	0xe
 1233 04b6 6C       		.byte	0x6c
 1234 04b7 09       		.byte	0x9
 1235 04b8 F9040000 		.4byte	0x4f9
 1236 04bc 1E       		.uleb128 0x1e
 1237 04bd A8080000 		.4byte	.LASF75
 1238 04c1 70       		.byte	0x70
 1239 04c2 D1000000 		.4byte	0xd1
 1240 04c6 03       		.byte	0x3
 1241 04c7 00       		.byte	0
 1242 04c8 1E       		.uleb128 0x1e
 1243 04c9 26090000 		.4byte	.LASF36
 1244 04cd 74       		.byte	0x74
 1245 04ce D1000000 		.4byte	0xd1
 1246 04d2 05       		.byte	0x5
 1247 04d3 03       		.byte	0x3
 1248 04d4 1E       		.uleb128 0x1e
ARM GAS  C:\Users\DEVELO~1\AppData\Local\Temp\ccqjbveV.s 			page 23


 1249 04d5 48080000 		.4byte	.LASF76
 1250 04d9 7A       		.byte	0x7a
 1251 04da D1000000 		.4byte	0xd1
 1252 04de 18       		.byte	0x18
 1253 04df 08       		.byte	0x8
 1254 04e0 01       		.uleb128 0x1
 1255 04e1 4E030000 		.4byte	.LASF77
 1256 04e5 0E       		.byte	0xe
 1257 04e6 7E       		.byte	0x7e
 1258 04e7 19       		.byte	0x19
 1259 04e8 AA030000 		.4byte	0x3aa
 1260 04ec 04       		.byte	0x4
 1261 04ed 08       		.uleb128 0x8
 1262 04ee 7500     		.ascii	"u\000"
 1263 04f0 0E       		.byte	0xe
 1264 04f1 B9       		.byte	0xb9
 1265 04f2 05       		.byte	0x5
 1266 04f3 6E040000 		.4byte	0x46e
 1267 04f7 08       		.byte	0x8
 1268 04f8 00       		.byte	0
 1269 04f9 02       		.uleb128 0x2
 1270 04fa 73020000 		.4byte	.LASF78
 1271 04fe 0E       		.byte	0xe
 1272 04ff BA       		.byte	0xba
 1273 0500 03       		.byte	0x3
 1274 0501 B3040000 		.4byte	0x4b3
 1275 0505 2B       		.uleb128 0x2b
 1276 0506 0808     		.2byte	0x808
 1277 0508 0E       		.byte	0xe
 1278 0509 C0       		.byte	0xc0
 1279 050a 09       		.byte	0x9
 1280 050b 44050000 		.4byte	0x544
 1281 050f 01       		.uleb128 0x1
 1282 0510 AD000000 		.4byte	.LASF79
 1283 0514 0E       		.byte	0xe
 1284 0515 C4       		.byte	0xc4
 1285 0516 19       		.byte	0x19
 1286 0517 B9000000 		.4byte	0xb9
 1287 051b 00       		.byte	0
 1288 051c 01       		.uleb128 0x1
 1289 051d F8050000 		.4byte	.LASF80
 1290 0521 0E       		.byte	0xe
 1291 0522 C8       		.byte	0xc8
 1292 0523 19       		.byte	0x19
 1293 0524 B9000000 		.4byte	0xb9
 1294 0528 02       		.byte	0x2
 1295 0529 08       		.uleb128 0x8
 1296 052a 70747200 		.ascii	"ptr\000"
 1297 052e 0E       		.byte	0xe
 1298 052f CC       		.byte	0xcc
 1299 0530 1A       		.byte	0x1a
 1300 0531 44050000 		.4byte	0x544
 1301 0535 04       		.byte	0x4
 1302 0536 01       		.uleb128 0x1
 1303 0537 A6000000 		.4byte	.LASF81
 1304 053b 0E       		.byte	0xe
 1305 053c D0       		.byte	0xd0
ARM GAS  C:\Users\DEVELO~1\AppData\Local\Temp\ccqjbveV.s 			page 24


 1306 053d 19       		.byte	0x19
 1307 053e 49050000 		.4byte	0x549
 1308 0542 08       		.byte	0x8
 1309 0543 00       		.byte	0
 1310 0544 05       		.uleb128 0x5
 1311 0545 F9040000 		.4byte	0x4f9
 1312 0549 14       		.uleb128 0x14
 1313 054a F9040000 		.4byte	0x4f9
 1314 054e 59050000 		.4byte	0x559
 1315 0552 15       		.uleb128 0x15
 1316 0553 A1000000 		.4byte	0xa1
 1317 0557 7F       		.byte	0x7f
 1318 0558 00       		.byte	0
 1319 0559 02       		.uleb128 0x2
 1320 055a 7C060000 		.4byte	.LASF82
 1321 055e 0E       		.byte	0xe
 1322 055f D1       		.byte	0xd1
 1323 0560 03       		.byte	0x3
 1324 0561 05050000 		.4byte	0x505
 1325 0565 11       		.uleb128 0x11
 1326 0566 18       		.byte	0x18
 1327 0567 0F       		.byte	0xf
 1328 0568 3002     		.2byte	0x230
 1329 056a C2050000 		.4byte	0x5c2
 1330 056e 04       		.uleb128 0x4
 1331 056f 435200   		.ascii	"CR\000"
 1332 0572 0F       		.byte	0xf
 1333 0573 3202     		.2byte	0x232
 1334 0575 11       		.byte	0x11
 1335 0576 DD000000 		.4byte	0xdd
 1336 057a 00       		.byte	0
 1337 057b 03       		.uleb128 0x3
 1338 057c 42010000 		.4byte	.LASF83
 1339 0580 0F       		.byte	0xf
 1340 0581 3302     		.2byte	0x233
 1341 0583 11       		.byte	0x11
 1342 0584 DD000000 		.4byte	0xdd
 1343 0588 04       		.byte	0x4
 1344 0589 04       		.uleb128 0x4
 1345 058a 50415200 		.ascii	"PAR\000"
 1346 058e 0F       		.byte	0xf
 1347 058f 3402     		.2byte	0x234
 1348 0591 11       		.byte	0x11
 1349 0592 DD000000 		.4byte	0xdd
 1350 0596 08       		.byte	0x8
 1351 0597 03       		.uleb128 0x3
 1352 0598 01040000 		.4byte	.LASF84
 1353 059c 0F       		.byte	0xf
 1354 059d 3502     		.2byte	0x235
 1355 059f 11       		.byte	0x11
 1356 05a0 DD000000 		.4byte	0xdd
 1357 05a4 0C       		.byte	0xc
 1358 05a5 03       		.uleb128 0x3
 1359 05a6 1C080000 		.4byte	.LASF85
 1360 05aa 0F       		.byte	0xf
 1361 05ab 3602     		.2byte	0x236
 1362 05ad 11       		.byte	0x11
ARM GAS  C:\Users\DEVELO~1\AppData\Local\Temp\ccqjbveV.s 			page 25


 1363 05ae DD000000 		.4byte	0xdd
 1364 05b2 10       		.byte	0x10
 1365 05b3 04       		.uleb128 0x4
 1366 05b4 46435200 		.ascii	"FCR\000"
 1367 05b8 0F       		.byte	0xf
 1368 05b9 3702     		.2byte	0x237
 1369 05bb 11       		.byte	0x11
 1370 05bc DD000000 		.4byte	0xdd
 1371 05c0 14       		.byte	0x14
 1372 05c1 00       		.byte	0
 1373 05c2 0C       		.uleb128 0xc
 1374 05c3 E5050000 		.4byte	.LASF86
 1375 05c7 0F       		.byte	0xf
 1376 05c8 3802     		.2byte	0x238
 1377 05ca 03       		.byte	0x3
 1378 05cb 65050000 		.4byte	0x565
 1379 05cf 11       		.uleb128 0x11
 1380 05d0 14       		.byte	0x14
 1381 05d1 0F       		.byte	0xf
 1382 05d2 4202     		.2byte	0x242
 1383 05d4 1F060000 		.4byte	0x61f
 1384 05d8 04       		.uleb128 0x4
 1385 05d9 43435200 		.ascii	"CCR\000"
 1386 05dd 0F       		.byte	0xf
 1387 05de 4402     		.2byte	0x244
 1388 05e0 11       		.byte	0x11
 1389 05e1 DD000000 		.4byte	0xdd
 1390 05e5 00       		.byte	0
 1391 05e6 03       		.uleb128 0x3
 1392 05e7 7C010000 		.4byte	.LASF87
 1393 05eb 0F       		.byte	0xf
 1394 05ec 4502     		.2byte	0x245
 1395 05ee 11       		.byte	0x11
 1396 05ef DD000000 		.4byte	0xdd
 1397 05f3 04       		.byte	0x4
 1398 05f4 03       		.uleb128 0x3
 1399 05f5 F9000000 		.4byte	.LASF88
 1400 05f9 0F       		.byte	0xf
 1401 05fa 4602     		.2byte	0x246
 1402 05fc 11       		.byte	0x11
 1403 05fd DD000000 		.4byte	0xdd
 1404 0601 08       		.byte	0x8
 1405 0602 03       		.uleb128 0x3
 1406 0603 7E090000 		.4byte	.LASF89
 1407 0607 0F       		.byte	0xf
 1408 0608 4702     		.2byte	0x247
 1409 060a 11       		.byte	0x11
 1410 060b DD000000 		.4byte	0xdd
 1411 060f 0C       		.byte	0xc
 1412 0610 03       		.uleb128 0x3
 1413 0611 C8070000 		.4byte	.LASF90
 1414 0615 0F       		.byte	0xf
 1415 0616 4802     		.2byte	0x248
 1416 0618 11       		.byte	0x11
 1417 0619 DD000000 		.4byte	0xdd
 1418 061d 10       		.byte	0x10
 1419 061e 00       		.byte	0
ARM GAS  C:\Users\DEVELO~1\AppData\Local\Temp\ccqjbveV.s 			page 26


 1420 061f 0C       		.uleb128 0xc
 1421 0620 C5050000 		.4byte	.LASF91
 1422 0624 0F       		.byte	0xf
 1423 0625 4902     		.2byte	0x249
 1424 0627 03       		.byte	0x3
 1425 0628 CF050000 		.4byte	0x5cf
 1426 062c 11       		.uleb128 0x11
 1427 062d 08       		.byte	0x8
 1428 062e 0F       		.byte	0xf
 1429 062f 4B02     		.2byte	0x24b
 1430 0631 52060000 		.4byte	0x652
 1431 0635 04       		.uleb128 0x4
 1432 0636 49535200 		.ascii	"ISR\000"
 1433 063a 0F       		.byte	0xf
 1434 063b 4D02     		.2byte	0x24d
 1435 063d 11       		.byte	0x11
 1436 063e DD000000 		.4byte	0xdd
 1437 0642 00       		.byte	0
 1438 0643 03       		.uleb128 0x3
 1439 0644 97090000 		.4byte	.LASF92
 1440 0648 0F       		.byte	0xf
 1441 0649 4E02     		.2byte	0x24e
 1442 064b 11       		.byte	0x11
 1443 064c DD000000 		.4byte	0xdd
 1444 0650 04       		.byte	0x4
 1445 0651 00       		.byte	0
 1446 0652 0C       		.uleb128 0xc
 1447 0653 15000000 		.4byte	.LASF93
 1448 0657 0F       		.byte	0xf
 1449 0658 4F02     		.2byte	0x24f
 1450 065a 03       		.byte	0x3
 1451 065b 2C060000 		.4byte	0x62c
 1452 065f 11       		.uleb128 0x11
 1453 0660 04       		.byte	0x4
 1454 0661 0F       		.byte	0xf
 1455 0662 5102     		.2byte	0x251
 1456 0664 77060000 		.4byte	0x677
 1457 0668 04       		.uleb128 0x4
 1458 0669 43435200 		.ascii	"CCR\000"
 1459 066d 0F       		.byte	0xf
 1460 066e 5302     		.2byte	0x253
 1461 0670 12       		.byte	0x12
 1462 0671 DD000000 		.4byte	0xdd
 1463 0675 00       		.byte	0
 1464 0676 00       		.byte	0
 1465 0677 0C       		.uleb128 0xc
 1466 0678 1D070000 		.4byte	.LASF94
 1467 067c 0F       		.byte	0xf
 1468 067d 5402     		.2byte	0x254
 1469 067f 02       		.byte	0x2
 1470 0680 5F060000 		.4byte	0x65f
 1471 0684 14       		.uleb128 0x14
 1472 0685 D1000000 		.4byte	0xd1
 1473 0689 94060000 		.4byte	0x694
 1474 068d 15       		.uleb128 0x15
 1475 068e A1000000 		.4byte	0xa1
 1476 0692 02       		.byte	0x2
ARM GAS  C:\Users\DEVELO~1\AppData\Local\Temp\ccqjbveV.s 			page 27


 1477 0693 00       		.byte	0
 1478 0694 11       		.uleb128 0x11
 1479 0695 54       		.byte	0x54
 1480 0696 0F       		.byte	0xf
 1481 0697 C405     		.2byte	0x5c4
 1482 0699 8B070000 		.4byte	0x78b
 1483 069d 04       		.uleb128 0x4
 1484 069e 43523100 		.ascii	"CR1\000"
 1485 06a2 0F       		.byte	0xf
 1486 06a3 C605     		.2byte	0x5c6
 1487 06a5 11       		.byte	0x11
 1488 06a6 DD000000 		.4byte	0xdd
 1489 06aa 00       		.byte	0
 1490 06ab 04       		.uleb128 0x4
 1491 06ac 43523200 		.ascii	"CR2\000"
 1492 06b0 0F       		.byte	0xf
 1493 06b1 C705     		.2byte	0x5c7
 1494 06b3 11       		.byte	0x11
 1495 06b4 DD000000 		.4byte	0xdd
 1496 06b8 04       		.byte	0x4
 1497 06b9 03       		.uleb128 0x3
 1498 06ba 7B070000 		.4byte	.LASF95
 1499 06be 0F       		.byte	0xf
 1500 06bf C805     		.2byte	0x5c8
 1501 06c1 11       		.byte	0x11
 1502 06c2 DD000000 		.4byte	0xdd
 1503 06c6 08       		.byte	0x8
 1504 06c7 03       		.uleb128 0x3
 1505 06c8 80070000 		.4byte	.LASF96
 1506 06cc 0F       		.byte	0xf
 1507 06cd C905     		.2byte	0x5c9
 1508 06cf 11       		.byte	0x11
 1509 06d0 DD000000 		.4byte	0xdd
 1510 06d4 0C       		.byte	0xc
 1511 06d5 04       		.uleb128 0x4
 1512 06d6 49455200 		.ascii	"IER\000"
 1513 06da 0F       		.byte	0xf
 1514 06db CA05     		.2byte	0x5ca
 1515 06dd 11       		.byte	0x11
 1516 06de DD000000 		.4byte	0xdd
 1517 06e2 10       		.byte	0x10
 1518 06e3 04       		.uleb128 0x4
 1519 06e4 535200   		.ascii	"SR\000"
 1520 06e7 0F       		.byte	0xf
 1521 06e8 CB05     		.2byte	0x5cb
 1522 06ea 11       		.byte	0x11
 1523 06eb DD000000 		.4byte	0xdd
 1524 06ef 14       		.byte	0x14
 1525 06f0 03       		.uleb128 0x3
 1526 06f1 97090000 		.4byte	.LASF92
 1527 06f5 0F       		.byte	0xf
 1528 06f6 CC05     		.2byte	0x5cc
 1529 06f8 11       		.byte	0x11
 1530 06f9 DD000000 		.4byte	0xdd
 1531 06fd 18       		.byte	0x18
 1532 06fe 03       		.uleb128 0x3
 1533 06ff 34070000 		.4byte	.LASF97
ARM GAS  C:\Users\DEVELO~1\AppData\Local\Temp\ccqjbveV.s 			page 28


 1534 0703 0F       		.byte	0xf
 1535 0704 CD05     		.2byte	0x5cd
 1536 0706 11       		.byte	0x11
 1537 0707 D1000000 		.4byte	0xd1
 1538 070b 1C       		.byte	0x1c
 1539 070c 03       		.uleb128 0x3
 1540 070d 27050000 		.4byte	.LASF98
 1541 0711 0F       		.byte	0xf
 1542 0712 CE05     		.2byte	0x5ce
 1543 0714 11       		.byte	0x11
 1544 0715 DD000000 		.4byte	0xdd
 1545 0719 20       		.byte	0x20
 1546 071a 03       		.uleb128 0x3
 1547 071b 3E070000 		.4byte	.LASF99
 1548 071f 0F       		.byte	0xf
 1549 0720 CF05     		.2byte	0x5cf
 1550 0722 11       		.byte	0x11
 1551 0723 84060000 		.4byte	0x684
 1552 0727 24       		.byte	0x24
 1553 0728 03       		.uleb128 0x3
 1554 0729 BA030000 		.4byte	.LASF100
 1555 072d 0F       		.byte	0xf
 1556 072e D005     		.2byte	0x5d0
 1557 0730 11       		.byte	0x11
 1558 0731 DD000000 		.4byte	0xdd
 1559 0735 30       		.byte	0x30
 1560 0736 03       		.uleb128 0x3
 1561 0737 48070000 		.4byte	.LASF101
 1562 073b 0F       		.byte	0xf
 1563 073c D105     		.2byte	0x5d1
 1564 073e 11       		.byte	0x11
 1565 073f 84060000 		.4byte	0x684
 1566 0743 34       		.byte	0x34
 1567 0744 03       		.uleb128 0x3
 1568 0745 73070000 		.4byte	.LASF102
 1569 0749 0F       		.byte	0xf
 1570 074a D205     		.2byte	0x5d2
 1571 074c 11       		.byte	0x11
 1572 074d DD000000 		.4byte	0xdd
 1573 0751 40       		.byte	0x40
 1574 0752 03       		.uleb128 0x3
 1575 0753 17050000 		.4byte	.LASF103
 1576 0757 0F       		.byte	0xf
 1577 0758 D305     		.2byte	0x5d3
 1578 075a 11       		.byte	0x11
 1579 075b DD000000 		.4byte	0xdd
 1580 075f 44       		.byte	0x44
 1581 0760 03       		.uleb128 0x3
 1582 0761 76010000 		.4byte	.LASF104
 1583 0765 0F       		.byte	0xf
 1584 0766 D405     		.2byte	0x5d4
 1585 0768 11       		.byte	0x11
 1586 0769 DD000000 		.4byte	0xdd
 1587 076d 48       		.byte	0x48
 1588 076e 03       		.uleb128 0x3
 1589 076f 94070000 		.4byte	.LASF105
 1590 0773 0F       		.byte	0xf
ARM GAS  C:\Users\DEVELO~1\AppData\Local\Temp\ccqjbveV.s 			page 29


 1591 0774 D505     		.2byte	0x5d5
 1592 0776 11       		.byte	0x11
 1593 0777 DD000000 		.4byte	0xdd
 1594 077b 4C       		.byte	0x4c
 1595 077c 03       		.uleb128 0x3
 1596 077d 13090000 		.4byte	.LASF106
 1597 0781 0F       		.byte	0xf
 1598 0782 D605     		.2byte	0x5d6
 1599 0784 11       		.byte	0x11
 1600 0785 DD000000 		.4byte	0xdd
 1601 0789 50       		.byte	0x50
 1602 078a 00       		.byte	0
 1603 078b 0C       		.uleb128 0xc
 1604 078c 38090000 		.4byte	.LASF107
 1605 0790 0F       		.byte	0xf
 1606 0791 D805     		.2byte	0x5d8
 1607 0793 03       		.byte	0x3
 1608 0794 94060000 		.4byte	0x694
 1609 0798 17       		.uleb128 0x17
 1610 0799 5C070000 		.4byte	.LASF108
 1611 079d 64       		.byte	0x64
 1612 079e 10       		.byte	0x10
 1613 079f 3F02     		.2byte	0x23f
 1614 07a1 08       		.byte	0x8
 1615 07a2 FE080000 		.4byte	0x8fe
 1616 07a6 04       		.uleb128 0x4
 1617 07a7 73313600 		.ascii	"s16\000"
 1618 07ab 10       		.byte	0x10
 1619 07ac 4102     		.2byte	0x241
 1620 07ae 11       		.byte	0x11
 1621 07af D1000000 		.4byte	0xd1
 1622 07b3 00       		.byte	0
 1623 07b4 04       		.uleb128 0x4
 1624 07b5 73313700 		.ascii	"s17\000"
 1625 07b9 10       		.byte	0x10
 1626 07ba 4202     		.2byte	0x242
 1627 07bc 11       		.byte	0x11
 1628 07bd D1000000 		.4byte	0xd1
 1629 07c1 04       		.byte	0x4
 1630 07c2 04       		.uleb128 0x4
 1631 07c3 73313800 		.ascii	"s18\000"
 1632 07c7 10       		.byte	0x10
 1633 07c8 4302     		.2byte	0x243
 1634 07ca 11       		.byte	0x11
 1635 07cb D1000000 		.4byte	0xd1
 1636 07cf 08       		.byte	0x8
 1637 07d0 04       		.uleb128 0x4
 1638 07d1 73313900 		.ascii	"s19\000"
 1639 07d5 10       		.byte	0x10
 1640 07d6 4402     		.2byte	0x244
 1641 07d8 11       		.byte	0x11
 1642 07d9 D1000000 		.4byte	0xd1
 1643 07dd 0C       		.byte	0xc
 1644 07de 04       		.uleb128 0x4
 1645 07df 73323000 		.ascii	"s20\000"
 1646 07e3 10       		.byte	0x10
 1647 07e4 4502     		.2byte	0x245
ARM GAS  C:\Users\DEVELO~1\AppData\Local\Temp\ccqjbveV.s 			page 30


 1648 07e6 11       		.byte	0x11
 1649 07e7 D1000000 		.4byte	0xd1
 1650 07eb 10       		.byte	0x10
 1651 07ec 04       		.uleb128 0x4
 1652 07ed 73323100 		.ascii	"s21\000"
 1653 07f1 10       		.byte	0x10
 1654 07f2 4602     		.2byte	0x246
 1655 07f4 11       		.byte	0x11
 1656 07f5 D1000000 		.4byte	0xd1
 1657 07f9 14       		.byte	0x14
 1658 07fa 04       		.uleb128 0x4
 1659 07fb 73323200 		.ascii	"s22\000"
 1660 07ff 10       		.byte	0x10
 1661 0800 4702     		.2byte	0x247
 1662 0802 11       		.byte	0x11
 1663 0803 D1000000 		.4byte	0xd1
 1664 0807 18       		.byte	0x18
 1665 0808 04       		.uleb128 0x4
 1666 0809 73323300 		.ascii	"s23\000"
 1667 080d 10       		.byte	0x10
 1668 080e 4802     		.2byte	0x248
 1669 0810 11       		.byte	0x11
 1670 0811 D1000000 		.4byte	0xd1
 1671 0815 1C       		.byte	0x1c
 1672 0816 04       		.uleb128 0x4
 1673 0817 73323400 		.ascii	"s24\000"
 1674 081b 10       		.byte	0x10
 1675 081c 4902     		.2byte	0x249
 1676 081e 11       		.byte	0x11
 1677 081f D1000000 		.4byte	0xd1
 1678 0823 20       		.byte	0x20
 1679 0824 04       		.uleb128 0x4
 1680 0825 73323500 		.ascii	"s25\000"
 1681 0829 10       		.byte	0x10
 1682 082a 4A02     		.2byte	0x24a
 1683 082c 11       		.byte	0x11
 1684 082d D1000000 		.4byte	0xd1
 1685 0831 24       		.byte	0x24
 1686 0832 04       		.uleb128 0x4
 1687 0833 73323600 		.ascii	"s26\000"
 1688 0837 10       		.byte	0x10
 1689 0838 4B02     		.2byte	0x24b
 1690 083a 11       		.byte	0x11
 1691 083b D1000000 		.4byte	0xd1
 1692 083f 28       		.byte	0x28
 1693 0840 04       		.uleb128 0x4
 1694 0841 73323700 		.ascii	"s27\000"
 1695 0845 10       		.byte	0x10
 1696 0846 4C02     		.2byte	0x24c
 1697 0848 11       		.byte	0x11
 1698 0849 D1000000 		.4byte	0xd1
 1699 084d 2C       		.byte	0x2c
 1700 084e 04       		.uleb128 0x4
 1701 084f 73323800 		.ascii	"s28\000"
 1702 0853 10       		.byte	0x10
 1703 0854 4D02     		.2byte	0x24d
 1704 0856 11       		.byte	0x11
ARM GAS  C:\Users\DEVELO~1\AppData\Local\Temp\ccqjbveV.s 			page 31


 1705 0857 D1000000 		.4byte	0xd1
 1706 085b 30       		.byte	0x30
 1707 085c 04       		.uleb128 0x4
 1708 085d 73323900 		.ascii	"s29\000"
 1709 0861 10       		.byte	0x10
 1710 0862 4E02     		.2byte	0x24e
 1711 0864 11       		.byte	0x11
 1712 0865 D1000000 		.4byte	0xd1
 1713 0869 34       		.byte	0x34
 1714 086a 04       		.uleb128 0x4
 1715 086b 73333000 		.ascii	"s30\000"
 1716 086f 10       		.byte	0x10
 1717 0870 4F02     		.2byte	0x24f
 1718 0872 11       		.byte	0x11
 1719 0873 D1000000 		.4byte	0xd1
 1720 0877 38       		.byte	0x38
 1721 0878 04       		.uleb128 0x4
 1722 0879 73333100 		.ascii	"s31\000"
 1723 087d 10       		.byte	0x10
 1724 087e 5002     		.2byte	0x250
 1725 0880 11       		.byte	0x11
 1726 0881 D1000000 		.4byte	0xd1
 1727 0885 3C       		.byte	0x3c
 1728 0886 04       		.uleb128 0x4
 1729 0887 723400   		.ascii	"r4\000"
 1730 088a 10       		.byte	0x10
 1731 088b 5202     		.2byte	0x252
 1732 088d 11       		.byte	0x11
 1733 088e D1000000 		.4byte	0xd1
 1734 0892 40       		.byte	0x40
 1735 0893 04       		.uleb128 0x4
 1736 0894 723500   		.ascii	"r5\000"
 1737 0897 10       		.byte	0x10
 1738 0898 5302     		.2byte	0x253
 1739 089a 11       		.byte	0x11
 1740 089b D1000000 		.4byte	0xd1
 1741 089f 44       		.byte	0x44
 1742 08a0 04       		.uleb128 0x4
 1743 08a1 723600   		.ascii	"r6\000"
 1744 08a4 10       		.byte	0x10
 1745 08a5 5402     		.2byte	0x254
 1746 08a7 11       		.byte	0x11
 1747 08a8 D1000000 		.4byte	0xd1
 1748 08ac 48       		.byte	0x48
 1749 08ad 04       		.uleb128 0x4
 1750 08ae 723700   		.ascii	"r7\000"
 1751 08b1 10       		.byte	0x10
 1752 08b2 5502     		.2byte	0x255
 1753 08b4 11       		.byte	0x11
 1754 08b5 D1000000 		.4byte	0xd1
 1755 08b9 4C       		.byte	0x4c
 1756 08ba 04       		.uleb128 0x4
 1757 08bb 723800   		.ascii	"r8\000"
 1758 08be 10       		.byte	0x10
 1759 08bf 5602     		.2byte	0x256
 1760 08c1 11       		.byte	0x11
 1761 08c2 D1000000 		.4byte	0xd1
ARM GAS  C:\Users\DEVELO~1\AppData\Local\Temp\ccqjbveV.s 			page 32


 1762 08c6 50       		.byte	0x50
 1763 08c7 04       		.uleb128 0x4
 1764 08c8 723900   		.ascii	"r9\000"
 1765 08cb 10       		.byte	0x10
 1766 08cc 5702     		.2byte	0x257
 1767 08ce 11       		.byte	0x11
 1768 08cf D1000000 		.4byte	0xd1
 1769 08d3 54       		.byte	0x54
 1770 08d4 04       		.uleb128 0x4
 1771 08d5 72313000 		.ascii	"r10\000"
 1772 08d9 10       		.byte	0x10
 1773 08da 5802     		.2byte	0x258
 1774 08dc 11       		.byte	0x11
 1775 08dd D1000000 		.4byte	0xd1
 1776 08e1 58       		.byte	0x58
 1777 08e2 04       		.uleb128 0x4
 1778 08e3 72313100 		.ascii	"r11\000"
 1779 08e7 10       		.byte	0x10
 1780 08e8 5902     		.2byte	0x259
 1781 08ea 11       		.byte	0x11
 1782 08eb D1000000 		.4byte	0xd1
 1783 08ef 5C       		.byte	0x5c
 1784 08f0 04       		.uleb128 0x4
 1785 08f1 6C7200   		.ascii	"lr\000"
 1786 08f4 10       		.byte	0x10
 1787 08f5 5A02     		.2byte	0x25a
 1788 08f7 11       		.byte	0x11
 1789 08f8 D1000000 		.4byte	0xd1
 1790 08fc 60       		.byte	0x60
 1791 08fd 00       		.byte	0
 1792 08fe 17       		.uleb128 0x17
 1793 08ff 27010000 		.4byte	.LASF109
 1794 0903 04       		.byte	0x4
 1795 0904 10       		.byte	0x10
 1796 0905 6302     		.2byte	0x263
 1797 0907 08       		.byte	0x8
 1798 0908 1A090000 		.4byte	0x91a
 1799 090c 04       		.uleb128 0x4
 1800 090d 737000   		.ascii	"sp\000"
 1801 0910 10       		.byte	0x10
 1802 0911 6402     		.2byte	0x264
 1803 0913 1A       		.byte	0x1a
 1804 0914 1A090000 		.4byte	0x91a
 1805 0918 00       		.byte	0
 1806 0919 00       		.byte	0
 1807 091a 05       		.uleb128 0x5
 1808 091b 98070000 		.4byte	0x798
 1809 091f 02       		.uleb128 0x2
 1810 0920 E1060000 		.4byte	.LASF110
 1811 0924 11       		.byte	0x11
 1812 0925 32       		.byte	0x32
 1813 0926 18       		.byte	0x18
 1814 0927 2B090000 		.4byte	0x92b
 1815 092b 09       		.uleb128 0x9
 1816 092c 5D010000 		.4byte	.LASF111
 1817 0930 04       		.byte	0x4
 1818 0931 11       		.byte	0x11
ARM GAS  C:\Users\DEVELO~1\AppData\Local\Temp\ccqjbveV.s 			page 33


 1819 0932 38       		.byte	0x38
 1820 0933 08       		.byte	0x8
 1821 0934 46090000 		.4byte	0x946
 1822 0938 01       		.uleb128 0x1
 1823 0939 E3000000 		.4byte	.LASF112
 1824 093d 11       		.byte	0x11
 1825 093e 39       		.byte	0x39
 1826 093f 1A       		.byte	0x1a
 1827 0940 46090000 		.4byte	0x946
 1828 0944 00       		.byte	0
 1829 0945 00       		.byte	0
 1830 0946 05       		.uleb128 0x5
 1831 0947 1F090000 		.4byte	0x91f
 1832 094b 02       		.uleb128 0x2
 1833 094c 50060000 		.4byte	.LASF113
 1834 0950 11       		.byte	0x11
 1835 0951 3F       		.byte	0x3f
 1836 0952 19       		.byte	0x19
 1837 0953 57090000 		.4byte	0x957
 1838 0957 09       		.uleb128 0x9
 1839 0958 94080000 		.4byte	.LASF114
 1840 095c 08       		.byte	0x8
 1841 095d 11       		.byte	0x11
 1842 095e 45       		.byte	0x45
 1843 095f 08       		.byte	0x8
 1844 0960 7F090000 		.4byte	0x97f
 1845 0964 01       		.uleb128 0x1
 1846 0965 E3000000 		.4byte	.LASF112
 1847 0969 11       		.byte	0x11
 1848 096a 46       		.byte	0x46
 1849 096b 1A       		.byte	0x1a
 1850 096c 7F090000 		.4byte	0x97f
 1851 0970 00       		.byte	0
 1852 0971 01       		.uleb128 0x1
 1853 0972 58010000 		.4byte	.LASF115
 1854 0976 11       		.byte	0x11
 1855 0977 47       		.byte	0x47
 1856 0978 1A       		.byte	0x1a
 1857 0979 7F090000 		.4byte	0x97f
 1858 097d 04       		.byte	0x4
 1859 097e 00       		.byte	0
 1860 097f 05       		.uleb128 0x5
 1861 0980 4B090000 		.4byte	0x94b
 1862 0984 02       		.uleb128 0x2
 1863 0985 BF030000 		.4byte	.LASF116
 1864 0989 11       		.byte	0x11
 1865 098a 4E       		.byte	0x4e
 1866 098b 22       		.byte	0x22
 1867 098c 90090000 		.4byte	0x990
 1868 0990 09       		.uleb128 0x9
 1869 0991 82080000 		.4byte	.LASF117
 1870 0995 0C       		.byte	0xc
 1871 0996 11       		.byte	0x11
 1872 0997 55       		.byte	0x55
 1873 0998 08       		.byte	0x8
 1874 0999 C5090000 		.4byte	0x9c5
 1875 099d 01       		.uleb128 0x1
ARM GAS  C:\Users\DEVELO~1\AppData\Local\Temp\ccqjbveV.s 			page 34


 1876 099e E3000000 		.4byte	.LASF112
 1877 09a2 11       		.byte	0x11
 1878 09a3 56       		.byte	0x56
 1879 09a4 1A       		.byte	0x1a
 1880 09a5 C5090000 		.4byte	0x9c5
 1881 09a9 00       		.byte	0
 1882 09aa 01       		.uleb128 0x1
 1883 09ab 58010000 		.4byte	.LASF115
 1884 09af 11       		.byte	0x11
 1885 09b0 57       		.byte	0x57
 1886 09b1 1A       		.byte	0x1a
 1887 09b2 C5090000 		.4byte	0x9c5
 1888 09b6 04       		.byte	0x4
 1889 09b7 01       		.uleb128 0x1
 1890 09b8 2C040000 		.4byte	.LASF118
 1891 09bc 11       		.byte	0x11
 1892 09bd 58       		.byte	0x58
 1893 09be 19       		.byte	0x19
 1894 09bf 4E010000 		.4byte	0x14e
 1895 09c3 08       		.byte	0x8
 1896 09c4 00       		.byte	0
 1897 09c5 05       		.uleb128 0x5
 1898 09c6 84090000 		.4byte	0x984
 1899 09ca 02       		.uleb128 0x2
 1900 09cb 36040000 		.4byte	.LASF119
 1901 09cf 11       		.byte	0x11
 1902 09d0 5F       		.byte	0x5f
 1903 09d1 1E       		.byte	0x1e
 1904 09d2 D6090000 		.4byte	0x9d6
 1905 09d6 09       		.uleb128 0x9
 1906 09d7 9F010000 		.4byte	.LASF120
 1907 09db 0C       		.byte	0xc
 1908 09dc 11       		.byte	0x11
 1909 09dd 64       		.byte	0x64
 1910 09de 08       		.byte	0x8
 1911 09df 0B0A0000 		.4byte	0xa0b
 1912 09e3 01       		.uleb128 0x1
 1913 09e4 E3000000 		.4byte	.LASF112
 1914 09e8 11       		.byte	0x11
 1915 09e9 65       		.byte	0x65
 1916 09ea 1A       		.byte	0x1a
 1917 09eb 0B0A0000 		.4byte	0xa0b
 1918 09ef 00       		.byte	0
 1919 09f0 01       		.uleb128 0x1
 1920 09f1 58010000 		.4byte	.LASF115
 1921 09f5 11       		.byte	0x11
 1922 09f6 66       		.byte	0x66
 1923 09f7 1A       		.byte	0x1a
 1924 09f8 0B0A0000 		.4byte	0xa0b
 1925 09fc 04       		.byte	0x4
 1926 09fd 01       		.uleb128 0x1
 1927 09fe 78090000 		.4byte	.LASF121
 1928 0a02 11       		.byte	0x11
 1929 0a03 67       		.byte	0x67
 1930 0a04 19       		.byte	0x19
 1931 0a05 B6030000 		.4byte	0x3b6
 1932 0a09 08       		.byte	0x8
ARM GAS  C:\Users\DEVELO~1\AppData\Local\Temp\ccqjbveV.s 			page 35


 1933 0a0a 00       		.byte	0
 1934 0a0b 05       		.uleb128 0x5
 1935 0a0c CA090000 		.4byte	0x9ca
 1936 0a10 09       		.uleb128 0x9
 1937 0a11 79030000 		.4byte	.LASF122
 1938 0a15 20       		.byte	0x20
 1939 0a16 0A       		.byte	0xa
 1940 0a17 64       		.byte	0x64
 1941 0a18 10       		.byte	0x10
 1942 0a19 520A0000 		.4byte	0xa52
 1943 0a1d 01       		.uleb128 0x1
 1944 0a1e C2070000 		.4byte	.LASF123
 1945 0a22 0A       		.byte	0xa
 1946 0a23 68       		.byte	0x68
 1947 0a24 21       		.byte	0x21
 1948 0a25 CA090000 		.4byte	0x9ca
 1949 0a29 00       		.byte	0
 1950 0a2a 01       		.uleb128 0x1
 1951 0a2b D7070000 		.4byte	.LASF124
 1952 0a2f 0A       		.byte	0xa
 1953 0a30 73       		.byte	0x73
 1954 0a31 21       		.byte	0x21
 1955 0a32 AA030000 		.4byte	0x3aa
 1956 0a36 0C       		.byte	0xc
 1957 0a37 01       		.uleb128 0x1
 1958 0a38 93050000 		.4byte	.LASF125
 1959 0a3c 0A       		.byte	0xa
 1960 0a3d 7B       		.byte	0x7b
 1961 0a3e 21       		.byte	0x21
 1962 0a3f B6030000 		.4byte	0x3b6
 1963 0a43 10       		.byte	0x10
 1964 0a44 01       		.uleb128 0x1
 1965 0a45 47010000 		.4byte	.LASF126
 1966 0a49 0A       		.byte	0xa
 1967 0a4a 81       		.byte	0x81
 1968 0a4b 21       		.byte	0x21
 1969 0a4c EE000000 		.4byte	0xee
 1970 0a50 18       		.byte	0x18
 1971 0a51 00       		.byte	0
 1972 0a52 02       		.uleb128 0x2
 1973 0a53 D3080000 		.4byte	.LASF127
 1974 0a57 0A       		.byte	0xa
 1975 0a58 83       		.byte	0x83
 1976 0a59 03       		.byte	0x3
 1977 0a5a 100A0000 		.4byte	0xa10
 1978 0a5e 09       		.uleb128 0x9
 1979 0a5f 5D000000 		.4byte	.LASF128
 1980 0a63 08       		.byte	0x8
 1981 0a64 0A       		.byte	0xa
 1982 0a65 88       		.byte	0x88
 1983 0a66 10       		.byte	0x10
 1984 0a67 790A0000 		.4byte	0xa79
 1985 0a6b 01       		.uleb128 0x1
 1986 0a6c 68080000 		.4byte	.LASF129
 1987 0a70 0A       		.byte	0xa
 1988 0a71 8C       		.byte	0x8c
 1989 0a72 21       		.byte	0x21
ARM GAS  C:\Users\DEVELO~1\AppData\Local\Temp\ccqjbveV.s 			page 36


 1990 0a73 4B090000 		.4byte	0x94b
 1991 0a77 00       		.byte	0
 1992 0a78 00       		.byte	0
 1993 0a79 02       		.uleb128 0x2
 1994 0a7a DA050000 		.4byte	.LASF130
 1995 0a7e 0A       		.byte	0xa
 1996 0a7f 8D       		.byte	0x8d
 1997 0a80 03       		.byte	0x3
 1998 0a81 5E0A0000 		.4byte	0xa5e
 1999 0a85 02       		.uleb128 0x2
 2000 0a86 CE060000 		.4byte	.LASF131
 2001 0a8a 0A       		.byte	0xa
 2002 0a8b 92       		.byte	0x92
 2003 0a8c 14       		.byte	0x14
 2004 0a8d F2030000 		.4byte	0x3f2
 2005 0a91 02       		.uleb128 0x2
 2006 0a92 31060000 		.4byte	.LASF132
 2007 0a96 0A       		.byte	0xa
 2008 0a97 A1       		.byte	0xa1
 2009 0a98 10       		.byte	0x10
 2010 0a99 9D0A0000 		.4byte	0xa9d
 2011 0a9d 05       		.uleb128 0x5
 2012 0a9e A20A0000 		.4byte	0xaa2
 2013 0aa2 1F       		.uleb128 0x1f
 2014 0aa3 AD0A0000 		.4byte	0xaad
 2015 0aa7 06       		.uleb128 0x6
 2016 0aa8 F2030000 		.4byte	0x3f2
 2017 0aac 00       		.byte	0
 2018 0aad 13       		.uleb128 0x13
 2019 0aae 0C       		.byte	0xc
 2020 0aaf 0A       		.byte	0xa
 2021 0ab0 AD       		.byte	0xad
 2022 0ab1 03       		.byte	0x3
 2023 0ab2 DB0A0000 		.4byte	0xadb
 2024 0ab6 0F       		.uleb128 0xf
 2025 0ab7 9A010000 		.4byte	.LASF133
 2026 0abb 0A       		.byte	0xa
 2027 0abc B1       		.byte	0xb1
 2028 0abd 21       		.byte	0x21
 2029 0abe 1F090000 		.4byte	0x91f
 2030 0ac2 0F       		.uleb128 0xf
 2031 0ac3 68080000 		.4byte	.LASF129
 2032 0ac7 0A       		.byte	0xa
 2033 0ac8 B5       		.byte	0xb5
 2034 0ac9 21       		.byte	0x21
 2035 0aca 4B090000 		.4byte	0x94b
 2036 0ace 0F       		.uleb128 0xf
 2037 0acf 00030000 		.4byte	.LASF134
 2038 0ad3 0A       		.byte	0xa
 2039 0ad4 B9       		.byte	0xb9
 2040 0ad5 21       		.byte	0x21
 2041 0ad6 84090000 		.4byte	0x984
 2042 0ada 00       		.byte	0
 2043 0adb 2C       		.uleb128 0x2c
 2044 0adc 04       		.byte	0x4
 2045 0add 0A       		.byte	0xa
 2046 0ade 0201     		.2byte	0x102
ARM GAS  C:\Users\DEVELO~1\AppData\Local\Temp\ccqjbveV.s 			page 37


 2047 0ae0 03       		.byte	0x3
 2048 0ae1 460B0000 		.4byte	0xb46
 2049 0ae5 0D       		.uleb128 0xd
 2050 0ae6 B3030000 		.4byte	.LASF135
 2051 0aea 0901     		.2byte	0x109
 2052 0aec 21       		.byte	0x21
 2053 0aed 5A010000 		.4byte	0x15a
 2054 0af1 0D       		.uleb128 0xd
 2055 0af2 190A0000 		.4byte	.LASF136
 2056 0af6 1001     		.2byte	0x110
 2057 0af8 21       		.byte	0x21
 2058 0af9 5A010000 		.4byte	0x15a
 2059 0afd 0D       		.uleb128 0xd
 2060 0afe 6F010000 		.4byte	.LASF71
 2061 0b02 1701     		.2byte	0x117
 2062 0b04 22       		.byte	0x22
 2063 0b05 F7030000 		.4byte	0x3f7
 2064 0b09 0D       		.uleb128 0xd
 2065 0b0a FF090000 		.4byte	.LASF137
 2066 0b0e 1E01     		.2byte	0x11e
 2067 0b10 22       		.byte	0x22
 2068 0b11 460B0000 		.4byte	0xb46
 2069 0b15 0D       		.uleb128 0xd
 2070 0b16 4D020000 		.4byte	.LASF138
 2071 0b1a 2301     		.2byte	0x123
 2072 0b1c 21       		.byte	0x21
 2073 0b1d 5A010000 		.4byte	0x15a
 2074 0b21 0D       		.uleb128 0xd
 2075 0b22 7B080000 		.4byte	.LASF139
 2076 0b26 2C01     		.2byte	0x12c
 2077 0b28 22       		.byte	0x22
 2078 0b29 730B0000 		.4byte	0xb73
 2079 0b2d 0D       		.uleb128 0xd
 2080 0b2e 27000000 		.4byte	.LASF140
 2081 0b32 3501     		.2byte	0x135
 2082 0b34 22       		.byte	0x22
 2083 0b35 AD0B0000 		.4byte	0xbad
 2084 0b39 0D       		.uleb128 0xd
 2085 0b3a 51010000 		.4byte	.LASF141
 2086 0b3e 3D01     		.2byte	0x13d
 2087 0b40 21       		.byte	0x21
 2088 0b41 66010000 		.4byte	0x166
 2089 0b45 00       		.byte	0
 2090 0b46 05       		.uleb128 0x5
 2091 0b47 850A0000 		.4byte	0xa85
 2092 0b4b 09       		.uleb128 0x9
 2093 0b4c 8D020000 		.4byte	.LASF142
 2094 0b50 0C       		.byte	0xc
 2095 0b51 12       		.byte	0x12
 2096 0b52 34       		.byte	0x34
 2097 0b53 10       		.byte	0x10
 2098 0b54 730B0000 		.4byte	0xb73
 2099 0b58 01       		.uleb128 0x1
 2100 0b59 68080000 		.4byte	.LASF129
 2101 0b5d 12       		.byte	0x12
 2102 0b5e 35       		.byte	0x35
 2103 0b5f 19       		.byte	0x19
ARM GAS  C:\Users\DEVELO~1\AppData\Local\Temp\ccqjbveV.s 			page 38


 2104 0b60 4B090000 		.4byte	0x94b
 2105 0b64 00       		.byte	0
 2106 0b65 08       		.uleb128 0x8
 2107 0b66 636E7400 		.ascii	"cnt\000"
 2108 0b6a 12       		.byte	0x12
 2109 0b6b 37       		.byte	0x37
 2110 0b6c 19       		.byte	0x19
 2111 0b6d 72010000 		.4byte	0x172
 2112 0b71 08       		.byte	0x8
 2113 0b72 00       		.byte	0
 2114 0b73 05       		.uleb128 0x5
 2115 0b74 4B0B0000 		.4byte	0xb4b
 2116 0b78 09       		.uleb128 0x9
 2117 0b79 EE030000 		.4byte	.LASF143
 2118 0b7d 10       		.byte	0x10
 2119 0b7e 13       		.byte	0x13
 2120 0b7f 39       		.byte	0x39
 2121 0b80 08       		.byte	0x8
 2122 0b81 AD0B0000 		.4byte	0xbad
 2123 0b85 01       		.uleb128 0x1
 2124 0b86 68080000 		.4byte	.LASF129
 2125 0b8a 13       		.byte	0x13
 2126 0b8b 3A       		.byte	0x3a
 2127 0b8c 19       		.byte	0x19
 2128 0b8d 4B090000 		.4byte	0x94b
 2129 0b91 00       		.byte	0
 2130 0b92 01       		.uleb128 0x1
 2131 0b93 65030000 		.4byte	.LASF33
 2132 0b97 13       		.byte	0x13
 2133 0b98 3C       		.byte	0x3c
 2134 0b99 1A       		.byte	0x1a
 2135 0b9a F2030000 		.4byte	0x3f2
 2136 0b9e 08       		.byte	0x8
 2137 0b9f 01       		.uleb128 0x1
 2138 0ba0 E3000000 		.4byte	.LASF112
 2139 0ba4 13       		.byte	0x13
 2140 0ba5 3E       		.byte	0x3e
 2141 0ba6 1A       		.byte	0x1a
 2142 0ba7 950C0000 		.4byte	0xc95
 2143 0bab 0C       		.byte	0xc
 2144 0bac 00       		.byte	0
 2145 0bad 05       		.uleb128 0x5
 2146 0bae 780B0000 		.4byte	0xb78
 2147 0bb2 05       		.uleb128 0x5
 2148 0bb3 92020000 		.4byte	0x292
 2149 0bb7 05       		.uleb128 0x5
 2150 0bb8 1E010000 		.4byte	0x11e
 2151 0bbc 17       		.uleb128 0x17
 2152 0bbd 34010000 		.4byte	.LASF144
 2153 0bc1 10       		.byte	0x10
 2154 0bc2 0A       		.byte	0xa
 2155 0bc3 6C01     		.2byte	0x16c
 2156 0bc5 10       		.byte	0x10
 2157 0bc6 E70B0000 		.4byte	0xbe7
 2158 0bca 03       		.uleb128 0x3
 2159 0bcb 00030000 		.4byte	.LASF134
 2160 0bcf 0A       		.byte	0xa
ARM GAS  C:\Users\DEVELO~1\AppData\Local\Temp\ccqjbveV.s 			page 39


 2161 0bd0 7101     		.2byte	0x171
 2162 0bd2 21       		.byte	0x21
 2163 0bd3 84090000 		.4byte	0x984
 2164 0bd7 00       		.byte	0
 2165 0bd8 03       		.uleb128 0x3
 2166 0bd9 AA090000 		.4byte	.LASF145
 2167 0bdd 0A       		.byte	0xa
 2168 0bde 7501     		.2byte	0x175
 2169 0be0 22       		.byte	0x22
 2170 0be1 F2030000 		.4byte	0x3f2
 2171 0be5 0C       		.byte	0xc
 2172 0be6 00       		.byte	0
 2173 0be7 0C       		.uleb128 0xc
 2174 0be8 3B080000 		.4byte	.LASF146
 2175 0bec 0A       		.byte	0xa
 2176 0bed 7601     		.2byte	0x176
 2177 0bef 03       		.byte	0x3
 2178 0bf0 BC0B0000 		.4byte	0xbbc
 2179 0bf4 17       		.uleb128 0x17
 2180 0bf5 AC070000 		.4byte	.LASF147
 2181 0bf9 14       		.byte	0x14
 2182 0bfa 0A       		.byte	0xa
 2183 0bfb 7B01     		.2byte	0x17b
 2184 0bfd 10       		.byte	0x10
 2185 0bfe 490C0000 		.4byte	0xc49
 2186 0c02 03       		.uleb128 0x3
 2187 0c03 17080000 		.4byte	.LASF39
 2188 0c07 0A       		.byte	0xa
 2189 0c08 7F01     		.2byte	0x17f
 2190 0c0a 22       		.byte	0x22
 2191 0c0b 88030000 		.4byte	0x388
 2192 0c0f 00       		.byte	0
 2193 0c10 03       		.uleb128 0x3
 2194 0c11 09000000 		.4byte	.LASF148
 2195 0c15 0A       		.byte	0xa
 2196 0c16 8301     		.2byte	0x183
 2197 0c18 22       		.byte	0x22
 2198 0c19 B70B0000 		.4byte	0xbb7
 2199 0c1d 04       		.byte	0x4
 2200 0c1e 03       		.uleb128 0x3
 2201 0c1f A1070000 		.4byte	.LASF149
 2202 0c23 0A       		.byte	0xa
 2203 0c24 8701     		.2byte	0x187
 2204 0c26 22       		.byte	0x22
 2205 0c27 B70B0000 		.4byte	0xbb7
 2206 0c2b 08       		.byte	0x8
 2207 0c2c 03       		.uleb128 0x3
 2208 0c2d 6D060000 		.4byte	.LASF150
 2209 0c31 0A       		.byte	0xa
 2210 0c32 8C01     		.2byte	0x18c
 2211 0c34 22       		.byte	0x22
 2212 0c35 B70B0000 		.4byte	0xbb7
 2213 0c39 0C       		.byte	0xc
 2214 0c3a 03       		.uleb128 0x3
 2215 0c3b FD050000 		.4byte	.LASF151
 2216 0c3f 0A       		.byte	0xa
 2217 0c40 9001     		.2byte	0x190
ARM GAS  C:\Users\DEVELO~1\AppData\Local\Temp\ccqjbveV.s 			page 40


 2218 0c42 22       		.byte	0x22
 2219 0c43 B70B0000 		.4byte	0xbb7
 2220 0c47 10       		.byte	0x10
 2221 0c48 00       		.byte	0
 2222 0c49 0C       		.uleb128 0xc
 2223 0c4a A8020000 		.4byte	.LASF152
 2224 0c4e 0A       		.byte	0xa
 2225 0c4f 9201     		.2byte	0x192
 2226 0c51 03       		.byte	0x3
 2227 0c52 F40B0000 		.4byte	0xbf4
 2228 0c56 12       		.uleb128 0x12
 2229 0c57 490C0000 		.4byte	0xc49
 2230 0c5b 05       		.uleb128 0x5
 2231 0c5c 560C0000 		.4byte	0xc56
 2232 0c60 2D       		.uleb128 0x2d
 2233 0c61 63683000 		.ascii	"ch0\000"
 2234 0c65 1B       		.byte	0x1b
 2235 0c66 1F01     		.2byte	0x11f
 2236 0c68 16       		.byte	0x16
 2237 0c69 92020000 		.4byte	0x292
 2238 0c6d 02       		.uleb128 0x2
 2239 0c6e BD020000 		.4byte	.LASF153
 2240 0c72 03       		.byte	0x3
 2241 0c73 34       		.byte	0x34
 2242 0c74 10       		.byte	0x10
 2243 0c75 790C0000 		.4byte	0xc79
 2244 0c79 05       		.uleb128 0x5
 2245 0c7a 7E0C0000 		.4byte	0xc7e
 2246 0c7e 1F       		.uleb128 0x1f
 2247 0c7f 890C0000 		.4byte	0xc89
 2248 0c83 06       		.uleb128 0x6
 2249 0c84 F7030000 		.4byte	0x3f7
 2250 0c88 00       		.byte	0
 2251 0c89 02       		.uleb128 0x2
 2252 0c8a 15070000 		.4byte	.LASF154
 2253 0c8e 13       		.byte	0x13
 2254 0c8f 34       		.byte	0x34
 2255 0c90 19       		.byte	0x19
 2256 0c91 780B0000 		.4byte	0xb78
 2257 0c95 05       		.uleb128 0x5
 2258 0c96 890C0000 		.4byte	0xc89
 2259 0c9a 0A       		.uleb128 0xa
 2260 0c9b 01       		.byte	0x1
 2261 0c9c 02       		.byte	0x2
 2262 0c9d D3030000 		.4byte	.LASF155
 2263 0ca1 11       		.uleb128 0x11
 2264 0ca2 10       		.byte	0x10
 2265 0ca3 14       		.byte	0x14
 2266 0ca4 A701     		.2byte	0x1a7
 2267 0ca6 FF0C0000 		.4byte	0xcff
 2268 0caa 03       		.uleb128 0x3
 2269 0cab 360A0000 		.4byte	.LASF156
 2270 0caf 14       		.byte	0x14
 2271 0cb0 A801     		.2byte	0x1a8
 2272 0cb2 1A       		.byte	0x1a
 2273 0cb3 FF0C0000 		.4byte	0xcff
 2274 0cb7 00       		.byte	0
ARM GAS  C:\Users\DEVELO~1\AppData\Local\Temp\ccqjbveV.s 			page 41


 2275 0cb8 03       		.uleb128 0x3
 2276 0cb9 6E020000 		.4byte	.LASF157
 2277 0cbd 14       		.byte	0x14
 2278 0cbe A901     		.2byte	0x1a9
 2279 0cc0 1A       		.byte	0x1a
 2280 0cc1 040D0000 		.4byte	0xd04
 2281 0cc5 04       		.byte	0x4
 2282 0cc6 04       		.uleb128 0x4
 2283 0cc7 6D757800 		.ascii	"mux\000"
 2284 0ccb 14       		.byte	0x14
 2285 0ccc AB01     		.2byte	0x1ab
 2286 0cce 1B       		.byte	0x1b
 2287 0ccf 090D0000 		.4byte	0xd09
 2288 0cd3 08       		.byte	0x8
 2289 0cd4 03       		.uleb128 0x3
 2290 0cd5 87020000 		.4byte	.LASF158
 2291 0cd9 14       		.byte	0x14
 2292 0cda AF01     		.2byte	0x1af
 2293 0cdc 19       		.byte	0x19
 2294 0cdd A8000000 		.4byte	0xa8
 2295 0ce1 0C       		.byte	0xc
 2296 0ce2 03       		.uleb128 0x3
 2297 0ce3 220A0000 		.4byte	.LASF159
 2298 0ce7 14       		.byte	0x14
 2299 0ce8 B101     		.2byte	0x1b1
 2300 0cea 19       		.byte	0x19
 2301 0ceb A8000000 		.4byte	0xa8
 2302 0cef 0D       		.byte	0xd
 2303 0cf0 03       		.uleb128 0x3
 2304 0cf1 E8020000 		.4byte	.LASF160
 2305 0cf5 14       		.byte	0x14
 2306 0cf6 B201     		.2byte	0x1b2
 2307 0cf8 19       		.byte	0x19
 2308 0cf9 A8000000 		.4byte	0xa8
 2309 0cfd 0E       		.byte	0xe
 2310 0cfe 00       		.byte	0
 2311 0cff 05       		.uleb128 0x5
 2312 0d00 C2050000 		.4byte	0x5c2
 2313 0d04 05       		.uleb128 0x5
 2314 0d05 DD000000 		.4byte	0xdd
 2315 0d09 05       		.uleb128 0x5
 2316 0d0a 77060000 		.4byte	0x677
 2317 0d0e 0C       		.uleb128 0xc
 2318 0d0f D2040000 		.4byte	.LASF161
 2319 0d13 14       		.byte	0x14
 2320 0d14 B301     		.2byte	0x1b3
 2321 0d16 03       		.byte	0x3
 2322 0d17 A10C0000 		.4byte	0xca1
 2323 0d1b 12       		.uleb128 0x12
 2324 0d1c 0E0D0000 		.4byte	0xd0e
 2325 0d20 0B       		.uleb128 0xb
 2326 0d21 14       		.byte	0x14
 2327 0d22 15       		.byte	0x15
 2328 0d23 E5       		.byte	0xe5
 2329 0d24 09       		.byte	0x9
 2330 0d25 780D0000 		.4byte	0xd78
 2331 0d29 01       		.uleb128 0x1
ARM GAS  C:\Users\DEVELO~1\AppData\Local\Temp\ccqjbveV.s 			page 42


 2332 0d2a 22000000 		.4byte	.LASF162
 2333 0d2e 15       		.byte	0x15
 2334 0d2f E6       		.byte	0xe6
 2335 0d30 1E       		.byte	0x1e
 2336 0d31 780D0000 		.4byte	0xd78
 2337 0d35 00       		.byte	0
 2338 0d36 01       		.uleb128 0x1
 2339 0d37 F6060000 		.4byte	.LASF163
 2340 0d3b 15       		.byte	0x15
 2341 0d3c E7       		.byte	0xe7
 2342 0d3d 1E       		.byte	0x1e
 2343 0d3e 7D0D0000 		.4byte	0xd7d
 2344 0d42 04       		.byte	0x4
 2345 0d43 01       		.uleb128 0x1
 2346 0d44 87020000 		.4byte	.LASF158
 2347 0d48 15       		.byte	0x15
 2348 0d49 E8       		.byte	0xe8
 2349 0d4a 1D       		.byte	0x1d
 2350 0d4b A8000000 		.4byte	0xa8
 2351 0d4f 08       		.byte	0x8
 2352 0d50 08       		.uleb128 0x8
 2353 0d51 6D757800 		.ascii	"mux\000"
 2354 0d55 15       		.byte	0x15
 2355 0d56 EA       		.byte	0xea
 2356 0d57 1E       		.byte	0x1e
 2357 0d58 090D0000 		.4byte	0xd09
 2358 0d5c 0C       		.byte	0xc
 2359 0d5d 01       		.uleb128 0x1
 2360 0d5e 220A0000 		.4byte	.LASF159
 2361 0d62 15       		.byte	0x15
 2362 0d63 EB       		.byte	0xeb
 2363 0d64 1D       		.byte	0x1d
 2364 0d65 A8000000 		.4byte	0xa8
 2365 0d69 10       		.byte	0x10
 2366 0d6a 01       		.uleb128 0x1
 2367 0d6b E8020000 		.4byte	.LASF160
 2368 0d6f 15       		.byte	0x15
 2369 0d70 EC       		.byte	0xec
 2370 0d71 1D       		.byte	0x1d
 2371 0d72 A8000000 		.4byte	0xa8
 2372 0d76 11       		.byte	0x11
 2373 0d77 00       		.byte	0
 2374 0d78 05       		.uleb128 0x5
 2375 0d79 52060000 		.4byte	0x652
 2376 0d7d 05       		.uleb128 0x5
 2377 0d7e 1F060000 		.4byte	0x61f
 2378 0d82 02       		.uleb128 0x2
 2379 0d83 EB090000 		.4byte	.LASF164
 2380 0d87 15       		.byte	0x15
 2381 0d88 ED       		.byte	0xed
 2382 0d89 03       		.byte	0x3
 2383 0d8a 200D0000 		.4byte	0xd20
 2384 0d8e 12       		.uleb128 0x12
 2385 0d8f 820D0000 		.4byte	0xd82
 2386 0d93 0B       		.uleb128 0xb
 2387 0d94 04       		.byte	0x4
 2388 0d95 16       		.byte	0x16
ARM GAS  C:\Users\DEVELO~1\AppData\Local\Temp\ccqjbveV.s 			page 43


 2389 0d96 5B       		.byte	0x5b
 2390 0d97 05       		.byte	0x5
 2391 0d98 B70D0000 		.4byte	0xdb7
 2392 0d9c 08       		.uleb128 0x8
 2393 0d9d 73657400 		.ascii	"set\000"
 2394 0da1 16       		.byte	0x16
 2395 0da2 5C       		.byte	0x5c
 2396 0da3 19       		.byte	0x19
 2397 0da4 B9000000 		.4byte	0xb9
 2398 0da8 00       		.byte	0
 2399 0da9 01       		.uleb128 0x1
 2400 0daa 6B030000 		.4byte	.LASF165
 2401 0dae 16       		.byte	0x16
 2402 0daf 5D       		.byte	0x5d
 2403 0db0 19       		.byte	0x19
 2404 0db1 B9000000 		.4byte	0xb9
 2405 0db5 02       		.byte	0x2
 2406 0db6 00       		.byte	0
 2407 0db7 13       		.uleb128 0x13
 2408 0db8 04       		.byte	0x4
 2409 0db9 16       		.byte	0x16
 2410 0dba 59       		.byte	0x59
 2411 0dbb 0C       		.byte	0xc
 2412 0dbc D50D0000 		.4byte	0xdd5
 2413 0dc0 0E       		.uleb128 0xe
 2414 0dc1 5700     		.ascii	"W\000"
 2415 0dc3 16       		.byte	0x16
 2416 0dc4 5A       		.byte	0x5a
 2417 0dc5 19       		.byte	0x19
 2418 0dc6 D1000000 		.4byte	0xd1
 2419 0dca 0E       		.uleb128 0xe
 2420 0dcb 4800     		.ascii	"H\000"
 2421 0dcd 16       		.byte	0x16
 2422 0dce 5E       		.byte	0x5e
 2423 0dcf 07       		.byte	0x7
 2424 0dd0 930D0000 		.4byte	0xd93
 2425 0dd4 00       		.byte	0
 2426 0dd5 10       		.uleb128 0x10
 2427 0dd6 B70D0000 		.4byte	0xdb7
 2428 0dda 0B       		.uleb128 0xb
 2429 0ddb 28       		.byte	0x28
 2430 0ddc 16       		.byte	0x16
 2431 0ddd 51       		.byte	0x51
 2432 0dde 09       		.byte	0x9
 2433 0ddf 660E0000 		.4byte	0xe66
 2434 0de3 01       		.uleb128 0x1
 2435 0de4 D9030000 		.4byte	.LASF166
 2436 0de8 16       		.byte	0x16
 2437 0de9 53       		.byte	0x53
 2438 0dea 19       		.byte	0x19
 2439 0deb DD000000 		.4byte	0xdd
 2440 0def 00       		.byte	0
 2441 0df0 01       		.uleb128 0x1
 2442 0df1 9A070000 		.4byte	.LASF167
 2443 0df5 16       		.byte	0x16
 2444 0df6 54       		.byte	0x54
 2445 0df7 19       		.byte	0x19
ARM GAS  C:\Users\DEVELO~1\AppData\Local\Temp\ccqjbveV.s 			page 44


 2446 0df8 DD000000 		.4byte	0xdd
 2447 0dfc 04       		.byte	0x4
 2448 0dfd 01       		.uleb128 0x1
 2449 0dfe AB060000 		.4byte	.LASF168
 2450 0e02 16       		.byte	0x16
 2451 0e03 55       		.byte	0x55
 2452 0e04 19       		.byte	0x19
 2453 0e05 DD000000 		.4byte	0xdd
 2454 0e09 08       		.byte	0x8
 2455 0e0a 01       		.uleb128 0x1
 2456 0e0b 20040000 		.4byte	.LASF169
 2457 0e0f 16       		.byte	0x16
 2458 0e10 56       		.byte	0x56
 2459 0e11 19       		.byte	0x19
 2460 0e12 DD000000 		.4byte	0xdd
 2461 0e16 0C       		.byte	0xc
 2462 0e17 08       		.uleb128 0x8
 2463 0e18 49445200 		.ascii	"IDR\000"
 2464 0e1c 16       		.byte	0x16
 2465 0e1d 57       		.byte	0x57
 2466 0e1e 19       		.byte	0x19
 2467 0e1f DD000000 		.4byte	0xdd
 2468 0e23 10       		.byte	0x10
 2469 0e24 08       		.uleb128 0x8
 2470 0e25 4F445200 		.ascii	"ODR\000"
 2471 0e29 16       		.byte	0x16
 2472 0e2a 58       		.byte	0x58
 2473 0e2b 19       		.byte	0x19
 2474 0e2c DD000000 		.4byte	0xdd
 2475 0e30 14       		.byte	0x14
 2476 0e31 01       		.uleb128 0x1
 2477 0e32 41000000 		.4byte	.LASF170
 2478 0e36 16       		.byte	0x16
 2479 0e37 5F       		.byte	0x5f
 2480 0e38 05       		.byte	0x5
 2481 0e39 D50D0000 		.4byte	0xdd5
 2482 0e3d 18       		.byte	0x18
 2483 0e3e 01       		.uleb128 0x1
 2484 0e3f B3060000 		.4byte	.LASF171
 2485 0e43 16       		.byte	0x16
 2486 0e44 60       		.byte	0x60
 2487 0e45 19       		.byte	0x19
 2488 0e46 DD000000 		.4byte	0xdd
 2489 0e4a 1C       		.byte	0x1c
 2490 0e4b 01       		.uleb128 0x1
 2491 0e4c BB080000 		.4byte	.LASF172
 2492 0e50 16       		.byte	0x16
 2493 0e51 61       		.byte	0x61
 2494 0e52 19       		.byte	0x19
 2495 0e53 DD000000 		.4byte	0xdd
 2496 0e57 20       		.byte	0x20
 2497 0e58 01       		.uleb128 0x1
 2498 0e59 53030000 		.4byte	.LASF173
 2499 0e5d 16       		.byte	0x16
 2500 0e5e 62       		.byte	0x62
 2501 0e5f 19       		.byte	0x19
 2502 0e60 DD000000 		.4byte	0xdd
ARM GAS  C:\Users\DEVELO~1\AppData\Local\Temp\ccqjbveV.s 			page 45


 2503 0e64 24       		.byte	0x24
 2504 0e65 00       		.byte	0
 2505 0e66 02       		.uleb128 0x2
 2506 0e67 58030000 		.4byte	.LASF174
 2507 0e6b 16       		.byte	0x16
 2508 0e6c 63       		.byte	0x63
 2509 0e6d 03       		.byte	0x3
 2510 0e6e DA0D0000 		.4byte	0xdda
 2511 0e72 02       		.uleb128 0x2
 2512 0e73 A7050000 		.4byte	.LASF175
 2513 0e77 17       		.byte	0x17
 2514 0e78 C2       		.byte	0xc2
 2515 0e79 12       		.byte	0x12
 2516 0e7a D1000000 		.4byte	0xd1
 2517 0e7e 02       		.uleb128 0x2
 2518 0e7f 63090000 		.4byte	.LASF176
 2519 0e83 17       		.byte	0x17
 2520 0e84 C7       		.byte	0xc7
 2521 0e85 12       		.byte	0x12
 2522 0e86 D1000000 		.4byte	0xd1
 2523 0e8a 02       		.uleb128 0x2
 2524 0e8b 17010000 		.4byte	.LASF177
 2525 0e8f 17       		.byte	0x17
 2526 0e90 CC       		.byte	0xcc
 2527 0e91 12       		.byte	0x12
 2528 0e92 D1000000 		.4byte	0xd1
 2529 0e96 02       		.uleb128 0x2
 2530 0e97 15040000 		.4byte	.LASF178
 2531 0e9b 17       		.byte	0x17
 2532 0e9c D9       		.byte	0xd9
 2533 0e9d 18       		.byte	0x18
 2534 0e9e A20E0000 		.4byte	0xea2
 2535 0ea2 05       		.uleb128 0x5
 2536 0ea3 660E0000 		.4byte	0xe66
 2537 0ea7 05       		.uleb128 0x5
 2538 0ea8 1B0D0000 		.4byte	0xd1b
 2539 0eac 2E       		.uleb128 0x2e
 2540 0ead 07       		.byte	0x7
 2541 0eae 01       		.byte	0x1
 2542 0eaf 39000000 		.4byte	0x39
 2543 0eb3 18       		.byte	0x18
 2544 0eb4 76       		.byte	0x76
 2545 0eb5 0E       		.byte	0xe
 2546 0eb6 D90E0000 		.4byte	0xed9
 2547 0eba 16       		.uleb128 0x16
 2548 0ebb EB060000 		.4byte	.LASF179
 2549 0ebf 00       		.byte	0
 2550 0ec0 16       		.uleb128 0x16
 2551 0ec1 50080000 		.4byte	.LASF180
 2552 0ec5 01       		.byte	0x1
 2553 0ec6 16       		.uleb128 0x16
 2554 0ec7 EE070000 		.4byte	.LASF181
 2555 0ecb 02       		.byte	0x2
 2556 0ecc 16       		.uleb128 0x16
 2557 0ecd 9D080000 		.4byte	.LASF182
 2558 0ed1 03       		.byte	0x3
 2559 0ed2 16       		.uleb128 0x16
ARM GAS  C:\Users\DEVELO~1\AppData\Local\Temp\ccqjbveV.s 			page 46


 2560 0ed3 0C0A0000 		.4byte	.LASF183
 2561 0ed7 04       		.byte	0x4
 2562 0ed8 00       		.byte	0
 2563 0ed9 02       		.uleb128 0x2
 2564 0eda 68070000 		.4byte	.LASF184
 2565 0ede 18       		.byte	0x18
 2566 0edf 7C       		.byte	0x7c
 2567 0ee0 03       		.byte	0x3
 2568 0ee1 AC0E0000 		.4byte	0xeac
 2569 0ee5 02       		.uleb128 0x2
 2570 0ee6 65010000 		.4byte	.LASF185
 2571 0eea 18       		.byte	0x18
 2572 0eeb 81       		.byte	0x81
 2573 0eec 1F       		.byte	0x1f
 2574 0eed F10E0000 		.4byte	0xef1
 2575 0ef1 09       		.uleb128 0x9
 2576 0ef2 3F030000 		.4byte	.LASF186
 2577 0ef6 3C       		.byte	0x3c
 2578 0ef7 18       		.byte	0x18
 2579 0ef8 D8       		.byte	0xd8
 2580 0ef9 08       		.byte	0x8
 2581 0efa 990F0000 		.4byte	0xf99
 2582 0efe 01       		.uleb128 0x1
 2583 0eff 26090000 		.4byte	.LASF36
 2584 0f03 18       		.byte	0x18
 2585 0f04 DC       		.byte	0xdc
 2586 0f05 1D       		.byte	0x1d
 2587 0f06 D90E0000 		.4byte	0xed9
 2588 0f0a 00       		.byte	0
 2589 0f0b 01       		.uleb128 0x1
 2590 0f0c 04070000 		.4byte	.LASF56
 2591 0f10 18       		.byte	0x18
 2592 0f11 E0       		.byte	0xe0
 2593 0f12 1E       		.byte	0x1e
 2594 0f13 97100000 		.4byte	0x1097
 2595 0f17 04       		.byte	0x4
 2596 0f18 01       		.uleb128 0x1
 2597 0f19 9C090000 		.4byte	.LASF187
 2598 0f1d 18       		.byte	0x18
 2599 0f1e E5       		.byte	0xe5
 2600 0f1f 1D       		.byte	0x1d
 2601 0f20 850A0000 		.4byte	0xa85
 2602 0f24 08       		.byte	0x8
 2603 0f25 01       		.uleb128 0x1
 2604 0f26 81020000 		.4byte	.LASF188
 2605 0f2a 18       		.byte	0x18
 2606 0f2b EB       		.byte	0xeb
 2607 0f2c 1D       		.byte	0x1d
 2608 0f2d 890C0000 		.4byte	0xc89
 2609 0f31 0C       		.byte	0xc
 2610 0f32 08       		.uleb128 0x8
 2611 0f33 73706900 		.ascii	"spi\000"
 2612 0f37 18       		.byte	0x18
 2613 0f38 F1       		.byte	0xf1
 2614 0f39 03       		.byte	0x3
 2615 0f3a 9C100000 		.4byte	0x109c
 2616 0f3e 1C       		.byte	0x1c
ARM GAS  C:\Users\DEVELO~1\AppData\Local\Temp\ccqjbveV.s 			page 47


 2617 0f3f 01       		.uleb128 0x1
 2618 0f40 E3090000 		.4byte	.LASF189
 2619 0f44 18       		.byte	0x18
 2620 0f45 F1       		.byte	0xf1
 2621 0f46 03       		.byte	0x3
 2622 0f47 9A0C0000 		.4byte	0xc9a
 2623 0f4b 20       		.byte	0x20
 2624 0f4c 08       		.uleb128 0x8
 2625 0f4d 727800   		.ascii	"rx\000"
 2626 0f50 18       		.byte	0x18
 2627 0f51 F1       		.byte	0xf1
 2628 0f52 03       		.byte	0x3
 2629 0f53 4E100000 		.4byte	0x104e
 2630 0f57 24       		.byte	0x24
 2631 0f58 08       		.uleb128 0x8
 2632 0f59 747800   		.ascii	"tx\000"
 2633 0f5c 18       		.byte	0x18
 2634 0f5d F1       		.byte	0xf1
 2635 0f5e 03       		.byte	0x3
 2636 0f5f 75100000 		.4byte	0x1075
 2637 0f63 28       		.byte	0x28
 2638 0f64 01       		.uleb128 0x1
 2639 0f65 F3080000 		.4byte	.LASF190
 2640 0f69 18       		.byte	0x18
 2641 0f6a F1       		.byte	0xf1
 2642 0f6b 03       		.byte	0x3
 2643 0f6c D1000000 		.4byte	0xd1
 2644 0f70 2C       		.byte	0x2c
 2645 0f71 01       		.uleb128 0x1
 2646 0f72 68040000 		.4byte	.LASF191
 2647 0f76 18       		.byte	0x18
 2648 0f77 F1       		.byte	0xf1
 2649 0f78 03       		.byte	0x3
 2650 0f79 D1000000 		.4byte	0xd1
 2651 0f7d 30       		.byte	0x30
 2652 0f7e 01       		.uleb128 0x1
 2653 0f7f 050A0000 		.4byte	.LASF192
 2654 0f83 18       		.byte	0x18
 2655 0f84 F1       		.byte	0xf1
 2656 0f85 03       		.byte	0x3
 2657 0f86 D1000000 		.4byte	0xd1
 2658 0f8a 34       		.byte	0x34
 2659 0f8b 01       		.uleb128 0x1
 2660 0f8c CE070000 		.4byte	.LASF193
 2661 0f90 18       		.byte	0x18
 2662 0f91 F1       		.byte	0xf1
 2663 0f92 03       		.byte	0x3
 2664 0f93 D1000000 		.4byte	0xd1
 2665 0f97 38       		.byte	0x38
 2666 0f98 00       		.byte	0
 2667 0f99 02       		.uleb128 0x2
 2668 0f9a F7030000 		.4byte	.LASF194
 2669 0f9e 18       		.byte	0x18
 2670 0f9f 86       		.byte	0x86
 2671 0fa0 1F       		.byte	0x1f
 2672 0fa1 AA0F0000 		.4byte	0xfaa
 2673 0fa5 12       		.uleb128 0x12
ARM GAS  C:\Users\DEVELO~1\AppData\Local\Temp\ccqjbveV.s 			page 48


 2674 0fa6 990F0000 		.4byte	0xf99
 2675 0faa 09       		.uleb128 0x9
 2676 0fab 22060000 		.4byte	.LASF195
 2677 0faf 1C       		.byte	0x1c
 2678 0fb0 18       		.byte	0x18
 2679 0fb1 9F       		.byte	0x9f
 2680 0fb2 08       		.byte	0x8
 2681 0fb3 20100000 		.4byte	0x1020
 2682 0fb7 01       		.uleb128 0x1
 2683 0fb8 2E000000 		.4byte	.LASF196
 2684 0fbc 18       		.byte	0x18
 2685 0fbd A4       		.byte	0xa4
 2686 0fbe 1D       		.byte	0x1d
 2687 0fbf 9A0C0000 		.4byte	0xc9a
 2688 0fc3 00       		.byte	0
 2689 0fc4 01       		.uleb128 0x1
 2690 0fc5 26040000 		.4byte	.LASF197
 2691 0fc9 18       		.byte	0x18
 2692 0fca AA       		.byte	0xaa
 2693 0fcb 1D       		.byte	0x1d
 2694 0fcc 9A0C0000 		.4byte	0xc9a
 2695 0fd0 01       		.byte	0x1
 2696 0fd1 01       		.uleb128 0x1
 2697 0fd2 E6070000 		.4byte	.LASF198
 2698 0fd6 18       		.byte	0x18
 2699 0fd7 AF       		.byte	0xaf
 2700 0fd8 1D       		.byte	0x1d
 2701 0fd9 20100000 		.4byte	0x1020
 2702 0fdd 04       		.byte	0x4
 2703 0fde 01       		.uleb128 0x1
 2704 0fdf 0E010000 		.4byte	.LASF199
 2705 0fe3 18       		.byte	0x18
 2706 0fe4 B3       		.byte	0xb3
 2707 0fe5 1D       		.byte	0x1d
 2708 0fe6 20100000 		.4byte	0x1020
 2709 0fea 08       		.byte	0x8
 2710 0feb 01       		.uleb128 0x1
 2711 0fec 38030000 		.4byte	.LASF200
 2712 0ff0 18       		.byte	0x18
 2713 0ff1 CA       		.byte	0xca
 2714 0ff2 1D       		.byte	0x1d
 2715 0ff3 960E0000 		.4byte	0xe96
 2716 0ff7 0C       		.byte	0xc
 2717 0ff8 01       		.uleb128 0x1
 2718 0ff9 3D0A0000 		.4byte	.LASF201
 2719 0ffd 18       		.byte	0x18
 2720 0ffe CF       		.byte	0xcf
 2721 0fff 1D       		.byte	0x1d
 2722 1000 F3000000 		.4byte	0xf3
 2723 1004 10       		.byte	0x10
 2724 1005 01       		.uleb128 0x1
 2725 1006 D9090000 		.4byte	.LASF202
 2726 100a 18       		.byte	0x18
 2727 100b D2       		.byte	0xd2
 2728 100c 03       		.byte	0x3
 2729 100d D1000000 		.4byte	0xd1
 2730 1011 14       		.byte	0x14
ARM GAS  C:\Users\DEVELO~1\AppData\Local\Temp\ccqjbveV.s 			page 49


 2731 1012 01       		.uleb128 0x1
 2732 1013 DE090000 		.4byte	.LASF203
 2733 1017 18       		.byte	0x18
 2734 1018 D2       		.byte	0xd2
 2735 1019 03       		.byte	0x3
 2736 101a D1000000 		.4byte	0xd1
 2737 101e 18       		.byte	0x18
 2738 101f 00       		.byte	0
 2739 1020 02       		.uleb128 0x2
 2740 1021 92010000 		.4byte	.LASF204
 2741 1025 18       		.byte	0x18
 2742 1026 8E       		.byte	0x8e
 2743 1027 10       		.byte	0x10
 2744 1028 2C100000 		.4byte	0x102c
 2745 102c 05       		.uleb128 0x5
 2746 102d 31100000 		.4byte	0x1031
 2747 1031 1F       		.uleb128 0x1f
 2748 1032 3C100000 		.4byte	0x103c
 2749 1036 06       		.uleb128 0x6
 2750 1037 3C100000 		.4byte	0x103c
 2751 103b 00       		.byte	0
 2752 103c 05       		.uleb128 0x5
 2753 103d E50E0000 		.4byte	0xee5
 2754 1041 2F       		.uleb128 0x2f
 2755 1042 FE060000 		.4byte	.LASF205
 2756 1046 19       		.byte	0x19
 2757 1047 5A02     		.2byte	0x25a
 2758 1049 12       		.byte	0x12
 2759 104a E50E0000 		.4byte	0xee5
 2760 104e 13       		.uleb128 0x13
 2761 104f 04       		.byte	0x4
 2762 1050 18       		.byte	0x18
 2763 1051 F1       		.byte	0xf1
 2764 1052 03       		.byte	0x3
 2765 1053 70100000 		.4byte	0x1070
 2766 1057 0E       		.uleb128 0xe
 2767 1058 646D6100 		.ascii	"dma\000"
 2768 105c 18       		.byte	0x18
 2769 105d F1       		.byte	0xf1
 2770 105e 03       		.byte	0x3
 2771 105f A70E0000 		.4byte	0xea7
 2772 1063 0F       		.uleb128 0xf
 2773 1064 22000000 		.4byte	.LASF162
 2774 1068 18       		.byte	0x18
 2775 1069 F1       		.byte	0xf1
 2776 106a 03       		.byte	0x3
 2777 106b 70100000 		.4byte	0x1070
 2778 106f 00       		.byte	0
 2779 1070 05       		.uleb128 0x5
 2780 1071 8E0D0000 		.4byte	0xd8e
 2781 1075 13       		.uleb128 0x13
 2782 1076 04       		.byte	0x4
 2783 1077 18       		.byte	0x18
 2784 1078 F1       		.byte	0xf1
 2785 1079 03       		.byte	0x3
 2786 107a 97100000 		.4byte	0x1097
 2787 107e 0E       		.uleb128 0xe
ARM GAS  C:\Users\DEVELO~1\AppData\Local\Temp\ccqjbveV.s 			page 50


 2788 107f 646D6100 		.ascii	"dma\000"
 2789 1083 18       		.byte	0x18
 2790 1084 F1       		.byte	0xf1
 2791 1085 03       		.byte	0x3
 2792 1086 A70E0000 		.4byte	0xea7
 2793 108a 0F       		.uleb128 0xf
 2794 108b 22000000 		.4byte	.LASF162
 2795 108f 18       		.byte	0x18
 2796 1090 F1       		.byte	0xf1
 2797 1091 03       		.byte	0x3
 2798 1092 70100000 		.4byte	0x1070
 2799 1096 00       		.byte	0
 2800 1097 05       		.uleb128 0x5
 2801 1098 A50F0000 		.4byte	0xfa5
 2802 109c 05       		.uleb128 0x5
 2803 109d 8B070000 		.4byte	0x78b
 2804 10a1 30       		.uleb128 0x30
 2805 10a2 03010000 		.4byte	.LASF206
 2806 10a6 1A       		.byte	0x1a
 2807 10a7 15       		.byte	0x15
 2808 10a8 10       		.byte	0x10
 2809 10a9 890C0000 		.4byte	0xc89
 2810 10ad 18       		.uleb128 0x18
 2811 10ae C0090000 		.4byte	.LASF207
 2812 10b2 10       		.byte	0x10
 2813 10b3 18       		.byte	0x18
 2814 10b4 A50F0000 		.4byte	0xfa5
 2815 10b8 05       		.uleb128 0x5
 2816 10b9 03       		.byte	0x3
 2817 10ba 00000000 		.4byte	spicfg_buttons
 2818 10be 14       		.uleb128 0x14
 2819 10bf B4000000 		.4byte	0xb4
 2820 10c3 CE100000 		.4byte	0x10ce
 2821 10c7 15       		.uleb128 0x15
 2822 10c8 A1000000 		.4byte	0xa1
 2823 10cc 02       		.byte	0x2
 2824 10cd 00       		.byte	0
 2825 10ce 10       		.uleb128 0x10
 2826 10cf BE100000 		.4byte	0x10be
 2827 10d3 18       		.uleb128 0x18
 2828 10d4 2C090000 		.4byte	.LASF208
 2829 10d8 32       		.byte	0x32
 2830 10d9 1A       		.byte	0x1a
 2831 10da CE100000 		.4byte	0x10ce
 2832 10de 05       		.uleb128 0x5
 2833 10df 03       		.byte	0x3
 2834 10e0 00000000 		.4byte	buttons_raw
 2835 10e4 18       		.uleb128 0x18
 2836 10e5 55020000 		.4byte	.LASF209
 2837 10e9 33       		.byte	0x33
 2838 10ea 1A       		.byte	0x1a
 2839 10eb DD000000 		.4byte	0xdd
 2840 10ef 05       		.uleb128 0x5
 2841 10f0 03       		.byte	0x3
 2842 10f1 00000000 		.4byte	buttons_mask
 2843 10f5 18       		.uleb128 0x18
 2844 10f6 B7040000 		.4byte	.LASF210
ARM GAS  C:\Users\DEVELO~1\AppData\Local\Temp\ccqjbveV.s 			page 51


 2845 10fa 34       		.byte	0x34
 2846 10fb 12       		.byte	0x12
 2847 10fc F2030000 		.4byte	0x3f2
 2848 1100 05       		.uleb128 0x5
 2849 1101 03       		.byte	0x3
 2850 1102 00000000 		.4byte	buttons_tp
 2851 1106 14       		.uleb128 0x14
 2852 1107 1E010000 		.4byte	0x11e
 2853 110b 16110000 		.4byte	0x1116
 2854 110f 15       		.uleb128 0x15
 2855 1110 A1000000 		.4byte	0xa1
 2856 1114 5B       		.byte	0x5b
 2857 1115 00       		.byte	0
 2858 1116 31       		.uleb128 0x31
 2859 1117 9D050000 		.4byte	.LASF211
 2860 111b 01       		.byte	0x1
 2861 111c 65       		.byte	0x65
 2862 111d 08       		.byte	0x8
 2863 111e 06110000 		.4byte	0x1106
 2864 1122 20       		.byte	0x20
 2865 1123 05       		.uleb128 0x5
 2866 1124 03       		.byte	0x3
 2867 1125 00000000 		.4byte	waButtons
 2868 1129 19       		.uleb128 0x19
 2869 112a 5C050000 		.4byte	.LASF212
 2870 112e 03       		.byte	0x3
 2871 112f D101     		.2byte	0x1d1
 2872 1131 3B110000 		.4byte	0x113b
 2873 1135 06       		.uleb128 0x6
 2874 1136 F2030000 		.4byte	0x3f2
 2875 113a 00       		.byte	0
 2876 113b 21       		.uleb128 0x21
 2877 113c 6B050000 		.4byte	.LASF213
 2878 1140 6C       		.byte	0x6c
 2879 1141 4B110000 		.4byte	0x114b
 2880 1145 06       		.uleb128 0x6
 2881 1146 950C0000 		.4byte	0xc95
 2882 114a 00       		.byte	0
 2883 114b 1A       		.uleb128 0x1a
 2884 114c 08090000 		.4byte	.LASF214
 2885 1150 18       		.byte	0x18
 2886 1151 F901     		.2byte	0x1f9
 2887 1153 09       		.byte	0x9
 2888 1154 5A010000 		.4byte	0x15a
 2889 1158 6C110000 		.4byte	0x116c
 2890 115c 06       		.uleb128 0x6
 2891 115d 3C100000 		.4byte	0x103c
 2892 1161 06       		.uleb128 0x6
 2893 1162 FF000000 		.4byte	0xff
 2894 1166 06       		.uleb128 0x6
 2895 1167 F7030000 		.4byte	0x3f7
 2896 116b 00       		.byte	0
 2897 116c 1A       		.uleb128 0x1a
 2898 116d 9E030000 		.4byte	.LASF215
 2899 1171 18       		.byte	0x18
 2900 1172 E301     		.2byte	0x1e3
 2901 1174 09       		.byte	0x9
ARM GAS  C:\Users\DEVELO~1\AppData\Local\Temp\ccqjbveV.s 			page 52


 2902 1175 5A010000 		.4byte	0x15a
 2903 1179 88110000 		.4byte	0x1188
 2904 117d 06       		.uleb128 0x6
 2905 117e 3C100000 		.4byte	0x103c
 2906 1182 06       		.uleb128 0x6
 2907 1183 97100000 		.4byte	0x1097
 2908 1187 00       		.byte	0
 2909 1188 21       		.uleb128 0x21
 2910 1189 37000000 		.4byte	.LASF216
 2911 118d 68       		.byte	0x68
 2912 118e 98110000 		.4byte	0x1198
 2913 1192 06       		.uleb128 0x6
 2914 1193 950C0000 		.4byte	0xc95
 2915 1197 00       		.byte	0
 2916 1198 19       		.uleb128 0x19
 2917 1199 CF090000 		.4byte	.LASF217
 2918 119d 03       		.byte	0x3
 2919 119e CB01     		.2byte	0x1cb
 2920 11a0 AA110000 		.4byte	0x11aa
 2921 11a4 06       		.uleb128 0x6
 2922 11a5 5A010000 		.4byte	0x15a
 2923 11a9 00       		.byte	0
 2924 11aa 19       		.uleb128 0x19
 2925 11ab FD080000 		.4byte	.LASF218
 2926 11af 03       		.byte	0x3
 2927 11b0 DC01     		.2byte	0x1dc
 2928 11b2 BC110000 		.4byte	0x11bc
 2929 11b6 06       		.uleb128 0x6
 2930 11b7 B6030000 		.4byte	0x3b6
 2931 11bb 00       		.byte	0
 2932 11bc 1A       		.uleb128 0x1a
 2933 11bd 5B060000 		.4byte	.LASF219
 2934 11c1 03       		.byte	0x3
 2935 11c2 C401     		.2byte	0x1c4
 2936 11c4 0D       		.byte	0xd
 2937 11c5 F2030000 		.4byte	0x3f2
 2938 11c9 E7110000 		.4byte	0x11e7
 2939 11cd 06       		.uleb128 0x6
 2940 11ce B70B0000 		.4byte	0xbb7
 2941 11d2 06       		.uleb128 0x6
 2942 11d3 FF000000 		.4byte	0xff
 2943 11d7 06       		.uleb128 0x6
 2944 11d8 4E010000 		.4byte	0x14e
 2945 11dc 06       		.uleb128 0x6
 2946 11dd 6D0C0000 		.4byte	0xc6d
 2947 11e1 06       		.uleb128 0x6
 2948 11e2 F7030000 		.4byte	0x3f7
 2949 11e6 00       		.byte	0
 2950 11e7 1A       		.uleb128 0x1a
 2951 11e8 0B070000 		.4byte	.LASF220
 2952 11ec 03       		.byte	0x3
 2953 11ed CE01     		.2byte	0x1ce
 2954 11ef 09       		.byte	0x9
 2955 11f0 5A010000 		.4byte	0x15a
 2956 11f4 FE110000 		.4byte	0x11fe
 2957 11f8 06       		.uleb128 0x6
 2958 11f9 F2030000 		.4byte	0x3f2
ARM GAS  C:\Users\DEVELO~1\AppData\Local\Temp\ccqjbveV.s 			page 53


 2959 11fd 00       		.byte	0
 2960 11fe 19       		.uleb128 0x19
 2961 11ff 18030000 		.4byte	.LASF221
 2962 1203 17       		.byte	0x17
 2963 1204 F301     		.2byte	0x1f3
 2964 1206 1A120000 		.4byte	0x121a
 2965 120a 06       		.uleb128 0x6
 2966 120b 960E0000 		.4byte	0xe96
 2967 120f 06       		.uleb128 0x6
 2968 1210 720E0000 		.4byte	0xe72
 2969 1214 06       		.uleb128 0x6
 2970 1215 7E0E0000 		.4byte	0xe7e
 2971 1219 00       		.byte	0
 2972 121a 32       		.uleb128 0x32
 2973 121b 02080000 		.4byte	.LASF232
 2974 121f 01       		.byte	0x1
 2975 1220 9E       		.byte	0x9e
 2976 1221 0A       		.byte	0xa
 2977 1222 D1000000 		.4byte	0xd1
 2978 1226 00000000 		.4byte	.LFB454
 2979 122a 0C000000 		.4byte	.LFE454-.LFB454
 2980 122e 01       		.uleb128 0x1
 2981 122f 9C       		.byte	0x9c
 2982 1230 33       		.uleb128 0x33
 2983 1231 85070000 		.4byte	.LASF233
 2984 1235 01       		.byte	0x1
 2985 1236 97       		.byte	0x97
 2986 1237 06       		.byte	0x6
 2987 1238 9A0C0000 		.4byte	0xc9a
 2988 123c 00000000 		.4byte	.LFB453
 2989 1240 1C000000 		.4byte	.LFE453-.LFB453
 2990 1244 01       		.uleb128 0x1
 2991 1245 9C       		.byte	0x9c
 2992 1246 5F120000 		.4byte	0x125f
 2993 124a 34       		.uleb128 0x34
 2994 124b A2020000 		.4byte	.LASF224
 2995 124f 01       		.byte	0x1
 2996 1250 97       		.byte	0x97
 2997 1251 1D       		.byte	0x1d
 2998 1252 A8000000 		.4byte	0xa8
 2999 1256 14000000 		.4byte	.LLST9
 3000 125a 0C000000 		.4byte	.LVUS9
 3001 125e 00       		.byte	0
 3002 125f 22       		.uleb128 0x22
 3003 1260 B4050000 		.4byte	.LASF222
 3004 1264 8E       		.byte	0x8e
 3005 1265 00000000 		.4byte	.LFB452
 3006 1269 1C000000 		.4byte	.LFE452-.LFB452
 3007 126d 01       		.uleb128 0x1
 3008 126e 9C       		.byte	0x9c
 3009 126f 86120000 		.4byte	0x1286
 3010 1273 20       		.uleb128 0x20
 3011 1274 0C000000 		.4byte	.LVL16
 3012 1278 29110000 		.4byte	0x1129
 3013 127c 20       		.uleb128 0x20
 3014 127d 12000000 		.4byte	.LVL17
 3015 1281 E7110000 		.4byte	0x11e7
ARM GAS  C:\Users\DEVELO~1\AppData\Local\Temp\ccqjbveV.s 			page 54


 3016 1285 00       		.byte	0
 3017 1286 22       		.uleb128 0x22
 3018 1287 10060000 		.4byte	.LASF223
 3019 128b 7E       		.byte	0x7e
 3020 128c 00000000 		.4byte	.LFB451
 3021 1290 54000000 		.4byte	.LFE451-.LFB451
 3022 1294 01       		.uleb128 0x1
 3023 1295 9C       		.byte	0x9c
 3024 1296 29130000 		.4byte	0x1329
 3025 129a 35       		.uleb128 0x35
 3026 129b AF140000 		.4byte	0x14af
 3027 129f 0A000000 		.4byte	.LBI46
 3028 12a3 01       		.byte	.LVU85
 3029 12a4 0A000000 		.4byte	.LBB46
 3030 12a8 00000000 		.4byte	.LBE46-.LBB46
 3031 12ac 01       		.byte	0x1
 3032 12ad 80       		.byte	0x80
 3033 12ae 0D       		.byte	0xd
 3034 12af C1120000 		.4byte	0x12c1
 3035 12b3 23       		.uleb128 0x23
 3036 12b4 C1140000 		.4byte	0x14c1
 3037 12b8 36000000 		.4byte	.LLST7
 3038 12bc 34000000 		.4byte	.LVUS7
 3039 12c0 00       		.byte	0
 3040 12c1 1B       		.uleb128 0x1b
 3041 12c2 29130000 		.4byte	0x1329
 3042 12c6 1C000000 		.4byte	.LBI48
 3043 12ca 01       		.byte	.LVU94
 3044 12cb 45000000 		.4byte	.LLRL8
 3045 12cf 88       		.byte	0x88
 3046 12d0 05       		.byte	0x5
 3047 12d1 F0120000 		.4byte	0x12f0
 3048 12d5 1C       		.uleb128 0x1c
 3049 12d6 28000000 		.4byte	.LVL14
 3050 12da FE110000 		.4byte	0x11fe
 3051 12de 07       		.uleb128 0x7
 3052 12df 01       		.uleb128 0x1
 3053 12e0 50       		.byte	0x50
 3054 12e1 02       		.uleb128 0x2
 3055 12e2 75       		.byte	0x75
 3056 12e3 00       		.sleb128 0
 3057 12e4 07       		.uleb128 0x7
 3058 12e5 01       		.uleb128 0x1
 3059 12e6 51       		.byte	0x51
 3060 12e7 01       		.uleb128 0x1
 3061 12e8 38       		.byte	0x38
 3062 12e9 07       		.uleb128 0x7
 3063 12ea 01       		.uleb128 0x1
 3064 12eb 52       		.byte	0x52
 3065 12ec 01       		.uleb128 0x1
 3066 12ed 31       		.byte	0x31
 3067 12ee 00       		.byte	0
 3068 12ef 00       		.byte	0
 3069 12f0 20       		.uleb128 0x20
 3070 12f1 18000000 		.4byte	.LVL13
 3071 12f5 E7110000 		.4byte	0x11e7
 3072 12f9 1C       		.uleb128 0x1c
ARM GAS  C:\Users\DEVELO~1\AppData\Local\Temp\ccqjbveV.s 			page 55


 3073 12fa 3E000000 		.4byte	.LVL15
 3074 12fe BC110000 		.4byte	0x11bc
 3075 1302 07       		.uleb128 0x7
 3076 1303 01       		.uleb128 0x1
 3077 1304 50       		.byte	0x50
 3078 1305 05       		.uleb128 0x5
 3079 1306 03       		.byte	0x3
 3080 1307 00000000 		.4byte	.LANCHOR5
 3081 130b 07       		.uleb128 0x7
 3082 130c 01       		.uleb128 0x1
 3083 130d 51       		.byte	0x51
 3084 130e 03       		.uleb128 0x3
 3085 130f 0A       		.byte	0xa
 3086 1310 E002     		.2byte	0x2e0
 3087 1312 07       		.uleb128 0x7
 3088 1313 01       		.uleb128 0x1
 3089 1314 52       		.byte	0x52
 3090 1315 02       		.uleb128 0x2
 3091 1316 08       		.byte	0x8
 3092 1317 80       		.byte	0x80
 3093 1318 07       		.uleb128 0x7
 3094 1319 01       		.uleb128 0x1
 3095 131a 53       		.byte	0x53
 3096 131b 05       		.uleb128 0x5
 3097 131c 03       		.byte	0x3
 3098 131d 00000000 		.4byte	buttonThread
 3099 1321 07       		.uleb128 0x7
 3100 1322 02       		.uleb128 0x2
 3101 1323 7D       		.byte	0x7d
 3102 1324 00       		.sleb128 0
 3103 1325 01       		.uleb128 0x1
 3104 1326 30       		.byte	0x30
 3105 1327 00       		.byte	0
 3106 1328 00       		.byte	0
 3107 1329 36       		.uleb128 0x36
 3108 132a EF020000 		.4byte	.LASF234
 3109 132e 01       		.byte	0x1
 3110 132f 77       		.byte	0x77
 3111 1330 06       		.byte	0x6
 3112 1331 01       		.byte	0x1
 3113 1332 37       		.uleb128 0x37
 3114 1333 8B060000 		.4byte	.LASF235
 3115 1337 01       		.byte	0x1
 3116 1338 67       		.byte	0x67
 3117 1339 08       		.byte	0x8
 3118 133a 00000000 		.4byte	.LFB449
 3119 133e C8000000 		.4byte	.LFE449-.LFB449
 3120 1342 01       		.uleb128 0x1
 3121 1343 9C       		.byte	0x9c
 3122 1344 58140000 		.4byte	0x1458
 3123 1348 38       		.uleb128 0x38
 3124 1349 61726700 		.ascii	"arg\000"
 3125 134d 01       		.byte	0x1
 3126 134e 67       		.byte	0x67
 3127 134f 08       		.byte	0x8
 3128 1350 F7030000 		.4byte	0x3f7
 3129 1354 43000000 		.4byte	.LLST0
ARM GAS  C:\Users\DEVELO~1\AppData\Local\Temp\ccqjbveV.s 			page 56


 3130 1358 3F000000 		.4byte	.LVUS0
 3131 135c 1B       		.uleb128 0x1b
 3132 135d 89140000 		.4byte	0x1489
 3133 1361 00000000 		.4byte	.LBI20
 3134 1365 03       		.byte	.LVU3
 3135 1366 0C000000 		.4byte	.LLRL1
 3136 136a 69       		.byte	0x69
 3137 136b 05       		.byte	0x5
 3138 136c 7E130000 		.4byte	0x137e
 3139 1370 23       		.uleb128 0x23
 3140 1371 96140000 		.4byte	0x1496
 3141 1375 59000000 		.4byte	.LLST2
 3142 1379 57000000 		.4byte	.LVUS2
 3143 137d 00       		.byte	0
 3144 137e 1B       		.uleb128 0x1b
 3145 137f A3140000 		.4byte	0x14a3
 3146 1383 16000000 		.4byte	.LBI28
 3147 1387 02       		.byte	.LVU14
 3148 1388 1E000000 		.4byte	.LLRL3
 3149 138c 6B       		.byte	0x6b
 3150 138d 0D       		.byte	0xd
 3151 138e A5130000 		.4byte	0x13a5
 3152 1392 39       		.uleb128 0x39
 3153 1393 CE140000 		.4byte	0x14ce
 3154 1397 16000000 		.4byte	.LBI30
 3155 139b 04       		.byte	.LVU16
 3156 139c 2A000000 		.4byte	.LLRL4
 3157 13a0 03       		.byte	0x3
 3158 13a1 5702     		.2byte	0x257
 3159 13a3 12       		.byte	0x12
 3160 13a4 00       		.byte	0
 3161 13a5 1B       		.uleb128 0x1b
 3162 13a6 58140000 		.4byte	0x1458
 3163 13aa 28000000 		.4byte	.LBI35
 3164 13ae 02       		.byte	.LVU24
 3165 13af 36000000 		.4byte	.LLRL5
 3166 13b3 6C       		.byte	0x6c
 3167 13b4 09       		.byte	0x9
 3168 13b5 35140000 		.4byte	0x1435
 3169 13b9 3A       		.uleb128 0x3a
 3170 13ba 36000000 		.4byte	.LLRL5
 3171 13be 3B       		.uleb128 0x3b
 3172 13bf 65140000 		.4byte	0x1465
 3173 13c3 02       		.uleb128 0x2
 3174 13c4 91       		.byte	0x91
 3175 13c5 54       		.sleb128 -44
 3176 13c6 3C       		.uleb128 0x3c
 3177 13c7 6F140000 		.4byte	0x146f
 3178 13cb 69000000 		.4byte	.LLST6
 3179 13cf 67000000 		.4byte	.LVUS6
 3180 13d3 1D       		.uleb128 0x1d
 3181 13d4 40000000 		.4byte	.LVL3
 3182 13d8 88110000 		.4byte	0x1188
 3183 13dc E7130000 		.4byte	0x13e7
 3184 13e0 07       		.uleb128 0x7
 3185 13e1 01       		.uleb128 0x1
 3186 13e2 50       		.byte	0x50
ARM GAS  C:\Users\DEVELO~1\AppData\Local\Temp\ccqjbveV.s 			page 57


 3187 13e3 02       		.uleb128 0x2
 3188 13e4 76       		.byte	0x76
 3189 13e5 00       		.sleb128 0
 3190 13e6 00       		.byte	0
 3191 13e7 1D       		.uleb128 0x1d
 3192 13e8 48000000 		.4byte	.LVL4
 3193 13ec 6C110000 		.4byte	0x116c
 3194 13f0 04140000 		.4byte	0x1404
 3195 13f4 07       		.uleb128 0x7
 3196 13f5 01       		.uleb128 0x1
 3197 13f6 50       		.byte	0x50
 3198 13f7 02       		.uleb128 0x2
 3199 13f8 75       		.byte	0x75
 3200 13f9 00       		.sleb128 0
 3201 13fa 07       		.uleb128 0x7
 3202 13fb 01       		.uleb128 0x1
 3203 13fc 51       		.byte	0x51
 3204 13fd 05       		.uleb128 0x5
 3205 13fe 03       		.byte	0x3
 3206 13ff 00000000 		.4byte	.LANCHOR1
 3207 1403 00       		.byte	0
 3208 1404 1D       		.uleb128 0x1d
 3209 1405 56000000 		.4byte	.LVL5
 3210 1409 4B110000 		.4byte	0x114b
 3211 140d 23140000 		.4byte	0x1423
 3212 1411 07       		.uleb128 0x7
 3213 1412 01       		.uleb128 0x1
 3214 1413 50       		.byte	0x50
 3215 1414 02       		.uleb128 0x2
 3216 1415 75       		.byte	0x75
 3217 1416 00       		.sleb128 0
 3218 1417 07       		.uleb128 0x7
 3219 1418 01       		.uleb128 0x1
 3220 1419 51       		.byte	0x51
 3221 141a 01       		.uleb128 0x1
 3222 141b 33       		.byte	0x33
 3223 141c 07       		.uleb128 0x7
 3224 141d 01       		.uleb128 0x1
 3225 141e 52       		.byte	0x52
 3226 141f 02       		.uleb128 0x2
 3227 1420 91       		.byte	0x91
 3228 1421 54       		.sleb128 -44
 3229 1422 00       		.byte	0
 3230 1423 1C       		.uleb128 0x1c
 3231 1424 60000000 		.4byte	.LVL6
 3232 1428 3B110000 		.4byte	0x113b
 3233 142c 07       		.uleb128 0x7
 3234 142d 01       		.uleb128 0x1
 3235 142e 50       		.byte	0x50
 3236 142f 02       		.uleb128 0x2
 3237 1430 76       		.byte	0x76
 3238 1431 00       		.sleb128 0
 3239 1432 00       		.byte	0
 3240 1433 00       		.byte	0
 3241 1434 00       		.byte	0
 3242 1435 1D       		.uleb128 0x1d
 3243 1436 8A000000 		.4byte	.LVL9
ARM GAS  C:\Users\DEVELO~1\AppData\Local\Temp\ccqjbveV.s 			page 58


 3244 143a AA110000 		.4byte	0x11aa
 3245 143e 48140000 		.4byte	0x1448
 3246 1442 07       		.uleb128 0x7
 3247 1443 01       		.uleb128 0x1
 3248 1444 50       		.byte	0x50
 3249 1445 01       		.uleb128 0x1
 3250 1446 44       		.byte	0x44
 3251 1447 00       		.byte	0
 3252 1448 3D       		.uleb128 0x3d
 3253 1449 A2000000 		.4byte	.LVL10
 3254 144d 98110000 		.4byte	0x1198
 3255 1451 07       		.uleb128 0x7
 3256 1452 01       		.uleb128 0x1
 3257 1453 50       		.byte	0x50
 3258 1454 01       		.uleb128 0x1
 3259 1455 30       		.byte	0x30
 3260 1456 00       		.byte	0
 3261 1457 00       		.byte	0
 3262 1458 24       		.uleb128 0x24
 3263 1459 7D050000 		.4byte	.LASF225
 3264 145d 01       		.byte	0x1
 3265 145e 40       		.byte	0x40
 3266 145f 0D       		.byte	0xd
 3267 1460 01       		.byte	0x1
 3268 1461 79140000 		.4byte	0x1479
 3269 1465 25       		.uleb128 0x25
 3270 1466 727800   		.ascii	"rx\000"
 3271 1469 42       		.byte	0x42
 3272 146a 0D       		.byte	0xd
 3273 146b 79140000 		.4byte	0x1479
 3274 146f 25       		.uleb128 0x25
 3275 1470 6D00     		.ascii	"m\000"
 3276 1472 59       		.byte	0x59
 3277 1473 0E       		.byte	0xe
 3278 1474 D1000000 		.4byte	0xd1
 3279 1478 00       		.byte	0
 3280 1479 14       		.uleb128 0x14
 3281 147a A8000000 		.4byte	0xa8
 3282 147e 89140000 		.4byte	0x1489
 3283 1482 15       		.uleb128 0x15
 3284 1483 A1000000 		.4byte	0xa1
 3285 1487 02       		.byte	0x2
 3286 1488 00       		.byte	0
 3287 1489 24       		.uleb128 0x24
 3288 148a 69000000 		.4byte	.LASF226
 3289 148e 02       		.byte	0x2
 3290 148f A6       		.byte	0xa6
 3291 1490 14       		.byte	0x14
 3292 1491 03       		.byte	0x3
 3293 1492 A3140000 		.4byte	0x14a3
 3294 1496 3E       		.uleb128 0x3e
 3295 1497 17080000 		.4byte	.LASF39
 3296 149b 02       		.byte	0x2
 3297 149c A6       		.byte	0xa6
 3298 149d 33       		.byte	0x33
 3299 149e 88030000 		.4byte	0x388
 3300 14a2 00       		.byte	0
ARM GAS  C:\Users\DEVELO~1\AppData\Local\Temp\ccqjbveV.s 			page 59


 3301 14a3 26       		.uleb128 0x26
 3302 14a4 F8040000 		.4byte	.LASF227
 3303 14a8 5502     		.2byte	0x255
 3304 14aa 14       		.byte	0x14
 3305 14ab 9A0C0000 		.4byte	0xc9a
 3306 14af 3F       		.uleb128 0x3f
 3307 14b0 7C000000 		.4byte	.LASF236
 3308 14b4 03       		.byte	0x3
 3309 14b5 4802     		.2byte	0x248
 3310 14b7 14       		.byte	0x14
 3311 14b8 9A0C0000 		.4byte	0xc9a
 3312 14bc 03       		.byte	0x3
 3313 14bd CE140000 		.4byte	0x14ce
 3314 14c1 40       		.uleb128 0x40
 3315 14c2 747000   		.ascii	"tp\000"
 3316 14c5 03       		.byte	0x3
 3317 14c6 4802     		.2byte	0x248
 3318 14c8 2F       		.byte	0x2f
 3319 14c9 F2030000 		.4byte	0x3f2
 3320 14cd 00       		.byte	0
 3321 14ce 26       		.uleb128 0x26
 3322 14cf B2090000 		.4byte	.LASF228
 3323 14d3 0F02     		.2byte	0x20f
 3324 14d5 19       		.byte	0x19
 3325 14d6 F2030000 		.4byte	0x3f2
 3326 14da 41       		.uleb128 0x41
 3327 14db 29130000 		.4byte	0x1329
 3328 14df 00000000 		.4byte	.LFB450
 3329 14e3 18000000 		.4byte	.LFE450-.LFB450
 3330 14e7 01       		.uleb128 0x1
 3331 14e8 9C       		.byte	0x9c
 3332 14e9 1C       		.uleb128 0x1c
 3333 14ea 0E000000 		.4byte	.LVL11
 3334 14ee FE110000 		.4byte	0x11fe
 3335 14f2 07       		.uleb128 0x7
 3336 14f3 01       		.uleb128 0x1
 3337 14f4 50       		.byte	0x50
 3338 14f5 02       		.uleb128 0x2
 3339 14f6 74       		.byte	0x74
 3340 14f7 00       		.sleb128 0
 3341 14f8 07       		.uleb128 0x7
 3342 14f9 01       		.uleb128 0x1
 3343 14fa 51       		.byte	0x51
 3344 14fb 01       		.uleb128 0x1
 3345 14fc 38       		.byte	0x38
 3346 14fd 07       		.uleb128 0x7
 3347 14fe 01       		.uleb128 0x1
 3348 14ff 52       		.byte	0x52
 3349 1500 01       		.uleb128 0x1
 3350 1501 31       		.byte	0x31
 3351 1502 00       		.byte	0
 3352 1503 00       		.byte	0
 3353 1504 00       		.byte	0
 3354              		.section	.debug_abbrev,"",%progbits
 3355              	.Ldebug_abbrev0:
 3356 0000 01       		.uleb128 0x1
 3357 0001 0D       		.uleb128 0xd
ARM GAS  C:\Users\DEVELO~1\AppData\Local\Temp\ccqjbveV.s 			page 60


 3358 0002 00       		.byte	0
 3359 0003 03       		.uleb128 0x3
 3360 0004 0E       		.uleb128 0xe
 3361 0005 3A       		.uleb128 0x3a
 3362 0006 0B       		.uleb128 0xb
 3363 0007 3B       		.uleb128 0x3b
 3364 0008 0B       		.uleb128 0xb
 3365 0009 39       		.uleb128 0x39
 3366 000a 0B       		.uleb128 0xb
 3367 000b 49       		.uleb128 0x49
 3368 000c 13       		.uleb128 0x13
 3369 000d 38       		.uleb128 0x38
 3370 000e 0B       		.uleb128 0xb
 3371 000f 00       		.byte	0
 3372 0010 00       		.byte	0
 3373 0011 02       		.uleb128 0x2
 3374 0012 16       		.uleb128 0x16
 3375 0013 00       		.byte	0
 3376 0014 03       		.uleb128 0x3
 3377 0015 0E       		.uleb128 0xe
 3378 0016 3A       		.uleb128 0x3a
 3379 0017 0B       		.uleb128 0xb
 3380 0018 3B       		.uleb128 0x3b
 3381 0019 0B       		.uleb128 0xb
 3382 001a 39       		.uleb128 0x39
 3383 001b 0B       		.uleb128 0xb
 3384 001c 49       		.uleb128 0x49
 3385 001d 13       		.uleb128 0x13
 3386 001e 00       		.byte	0
 3387 001f 00       		.byte	0
 3388 0020 03       		.uleb128 0x3
 3389 0021 0D       		.uleb128 0xd
 3390 0022 00       		.byte	0
 3391 0023 03       		.uleb128 0x3
 3392 0024 0E       		.uleb128 0xe
 3393 0025 3A       		.uleb128 0x3a
 3394 0026 0B       		.uleb128 0xb
 3395 0027 3B       		.uleb128 0x3b
 3396 0028 05       		.uleb128 0x5
 3397 0029 39       		.uleb128 0x39
 3398 002a 0B       		.uleb128 0xb
 3399 002b 49       		.uleb128 0x49
 3400 002c 13       		.uleb128 0x13
 3401 002d 38       		.uleb128 0x38
 3402 002e 0B       		.uleb128 0xb
 3403 002f 00       		.byte	0
 3404 0030 00       		.byte	0
 3405 0031 04       		.uleb128 0x4
 3406 0032 0D       		.uleb128 0xd
 3407 0033 00       		.byte	0
 3408 0034 03       		.uleb128 0x3
 3409 0035 08       		.uleb128 0x8
 3410 0036 3A       		.uleb128 0x3a
 3411 0037 0B       		.uleb128 0xb
 3412 0038 3B       		.uleb128 0x3b
 3413 0039 05       		.uleb128 0x5
 3414 003a 39       		.uleb128 0x39
ARM GAS  C:\Users\DEVELO~1\AppData\Local\Temp\ccqjbveV.s 			page 61


 3415 003b 0B       		.uleb128 0xb
 3416 003c 49       		.uleb128 0x49
 3417 003d 13       		.uleb128 0x13
 3418 003e 38       		.uleb128 0x38
 3419 003f 0B       		.uleb128 0xb
 3420 0040 00       		.byte	0
 3421 0041 00       		.byte	0
 3422 0042 05       		.uleb128 0x5
 3423 0043 0F       		.uleb128 0xf
 3424 0044 00       		.byte	0
 3425 0045 0B       		.uleb128 0xb
 3426 0046 21       		.uleb128 0x21
 3427 0047 04       		.sleb128 4
 3428 0048 49       		.uleb128 0x49
 3429 0049 13       		.uleb128 0x13
 3430 004a 00       		.byte	0
 3431 004b 00       		.byte	0
 3432 004c 06       		.uleb128 0x6
 3433 004d 05       		.uleb128 0x5
 3434 004e 00       		.byte	0
 3435 004f 49       		.uleb128 0x49
 3436 0050 13       		.uleb128 0x13
 3437 0051 00       		.byte	0
 3438 0052 00       		.byte	0
 3439 0053 07       		.uleb128 0x7
 3440 0054 49       		.uleb128 0x49
 3441 0055 00       		.byte	0
 3442 0056 02       		.uleb128 0x2
 3443 0057 18       		.uleb128 0x18
 3444 0058 7E       		.uleb128 0x7e
 3445 0059 18       		.uleb128 0x18
 3446 005a 00       		.byte	0
 3447 005b 00       		.byte	0
 3448 005c 08       		.uleb128 0x8
 3449 005d 0D       		.uleb128 0xd
 3450 005e 00       		.byte	0
 3451 005f 03       		.uleb128 0x3
 3452 0060 08       		.uleb128 0x8
 3453 0061 3A       		.uleb128 0x3a
 3454 0062 0B       		.uleb128 0xb
 3455 0063 3B       		.uleb128 0x3b
 3456 0064 0B       		.uleb128 0xb
 3457 0065 39       		.uleb128 0x39
 3458 0066 0B       		.uleb128 0xb
 3459 0067 49       		.uleb128 0x49
 3460 0068 13       		.uleb128 0x13
 3461 0069 38       		.uleb128 0x38
 3462 006a 0B       		.uleb128 0xb
 3463 006b 00       		.byte	0
 3464 006c 00       		.byte	0
 3465 006d 09       		.uleb128 0x9
 3466 006e 13       		.uleb128 0x13
 3467 006f 01       		.byte	0x1
 3468 0070 03       		.uleb128 0x3
 3469 0071 0E       		.uleb128 0xe
 3470 0072 0B       		.uleb128 0xb
 3471 0073 0B       		.uleb128 0xb
ARM GAS  C:\Users\DEVELO~1\AppData\Local\Temp\ccqjbveV.s 			page 62


 3472 0074 3A       		.uleb128 0x3a
 3473 0075 0B       		.uleb128 0xb
 3474 0076 3B       		.uleb128 0x3b
 3475 0077 0B       		.uleb128 0xb
 3476 0078 39       		.uleb128 0x39
 3477 0079 0B       		.uleb128 0xb
 3478 007a 01       		.uleb128 0x1
 3479 007b 13       		.uleb128 0x13
 3480 007c 00       		.byte	0
 3481 007d 00       		.byte	0
 3482 007e 0A       		.uleb128 0xa
 3483 007f 24       		.uleb128 0x24
 3484 0080 00       		.byte	0
 3485 0081 0B       		.uleb128 0xb
 3486 0082 0B       		.uleb128 0xb
 3487 0083 3E       		.uleb128 0x3e
 3488 0084 0B       		.uleb128 0xb
 3489 0085 03       		.uleb128 0x3
 3490 0086 0E       		.uleb128 0xe
 3491 0087 00       		.byte	0
 3492 0088 00       		.byte	0
 3493 0089 0B       		.uleb128 0xb
 3494 008a 13       		.uleb128 0x13
 3495 008b 01       		.byte	0x1
 3496 008c 0B       		.uleb128 0xb
 3497 008d 0B       		.uleb128 0xb
 3498 008e 3A       		.uleb128 0x3a
 3499 008f 0B       		.uleb128 0xb
 3500 0090 3B       		.uleb128 0x3b
 3501 0091 0B       		.uleb128 0xb
 3502 0092 39       		.uleb128 0x39
 3503 0093 0B       		.uleb128 0xb
 3504 0094 01       		.uleb128 0x1
 3505 0095 13       		.uleb128 0x13
 3506 0096 00       		.byte	0
 3507 0097 00       		.byte	0
 3508 0098 0C       		.uleb128 0xc
 3509 0099 16       		.uleb128 0x16
 3510 009a 00       		.byte	0
 3511 009b 03       		.uleb128 0x3
 3512 009c 0E       		.uleb128 0xe
 3513 009d 3A       		.uleb128 0x3a
 3514 009e 0B       		.uleb128 0xb
 3515 009f 3B       		.uleb128 0x3b
 3516 00a0 05       		.uleb128 0x5
 3517 00a1 39       		.uleb128 0x39
 3518 00a2 0B       		.uleb128 0xb
 3519 00a3 49       		.uleb128 0x49
 3520 00a4 13       		.uleb128 0x13
 3521 00a5 00       		.byte	0
 3522 00a6 00       		.byte	0
 3523 00a7 0D       		.uleb128 0xd
 3524 00a8 0D       		.uleb128 0xd
 3525 00a9 00       		.byte	0
 3526 00aa 03       		.uleb128 0x3
 3527 00ab 0E       		.uleb128 0xe
 3528 00ac 3A       		.uleb128 0x3a
ARM GAS  C:\Users\DEVELO~1\AppData\Local\Temp\ccqjbveV.s 			page 63


 3529 00ad 21       		.uleb128 0x21
 3530 00ae 0A       		.sleb128 10
 3531 00af 3B       		.uleb128 0x3b
 3532 00b0 05       		.uleb128 0x5
 3533 00b1 39       		.uleb128 0x39
 3534 00b2 0B       		.uleb128 0xb
 3535 00b3 49       		.uleb128 0x49
 3536 00b4 13       		.uleb128 0x13
 3537 00b5 00       		.byte	0
 3538 00b6 00       		.byte	0
 3539 00b7 0E       		.uleb128 0xe
 3540 00b8 0D       		.uleb128 0xd
 3541 00b9 00       		.byte	0
 3542 00ba 03       		.uleb128 0x3
 3543 00bb 08       		.uleb128 0x8
 3544 00bc 3A       		.uleb128 0x3a
 3545 00bd 0B       		.uleb128 0xb
 3546 00be 3B       		.uleb128 0x3b
 3547 00bf 0B       		.uleb128 0xb
 3548 00c0 39       		.uleb128 0x39
 3549 00c1 0B       		.uleb128 0xb
 3550 00c2 49       		.uleb128 0x49
 3551 00c3 13       		.uleb128 0x13
 3552 00c4 00       		.byte	0
 3553 00c5 00       		.byte	0
 3554 00c6 0F       		.uleb128 0xf
 3555 00c7 0D       		.uleb128 0xd
 3556 00c8 00       		.byte	0
 3557 00c9 03       		.uleb128 0x3
 3558 00ca 0E       		.uleb128 0xe
 3559 00cb 3A       		.uleb128 0x3a
 3560 00cc 0B       		.uleb128 0xb
 3561 00cd 3B       		.uleb128 0x3b
 3562 00ce 0B       		.uleb128 0xb
 3563 00cf 39       		.uleb128 0x39
 3564 00d0 0B       		.uleb128 0xb
 3565 00d1 49       		.uleb128 0x49
 3566 00d2 13       		.uleb128 0x13
 3567 00d3 00       		.byte	0
 3568 00d4 00       		.byte	0
 3569 00d5 10       		.uleb128 0x10
 3570 00d6 35       		.uleb128 0x35
 3571 00d7 00       		.byte	0
 3572 00d8 49       		.uleb128 0x49
 3573 00d9 13       		.uleb128 0x13
 3574 00da 00       		.byte	0
 3575 00db 00       		.byte	0
 3576 00dc 11       		.uleb128 0x11
 3577 00dd 13       		.uleb128 0x13
 3578 00de 01       		.byte	0x1
 3579 00df 0B       		.uleb128 0xb
 3580 00e0 0B       		.uleb128 0xb
 3581 00e1 3A       		.uleb128 0x3a
 3582 00e2 0B       		.uleb128 0xb
 3583 00e3 3B       		.uleb128 0x3b
 3584 00e4 05       		.uleb128 0x5
 3585 00e5 39       		.uleb128 0x39
ARM GAS  C:\Users\DEVELO~1\AppData\Local\Temp\ccqjbveV.s 			page 64


 3586 00e6 21       		.uleb128 0x21
 3587 00e7 09       		.sleb128 9
 3588 00e8 01       		.uleb128 0x1
 3589 00e9 13       		.uleb128 0x13
 3590 00ea 00       		.byte	0
 3591 00eb 00       		.byte	0
 3592 00ec 12       		.uleb128 0x12
 3593 00ed 26       		.uleb128 0x26
 3594 00ee 00       		.byte	0
 3595 00ef 49       		.uleb128 0x49
 3596 00f0 13       		.uleb128 0x13
 3597 00f1 00       		.byte	0
 3598 00f2 00       		.byte	0
 3599 00f3 13       		.uleb128 0x13
 3600 00f4 17       		.uleb128 0x17
 3601 00f5 01       		.byte	0x1
 3602 00f6 0B       		.uleb128 0xb
 3603 00f7 0B       		.uleb128 0xb
 3604 00f8 3A       		.uleb128 0x3a
 3605 00f9 0B       		.uleb128 0xb
 3606 00fa 3B       		.uleb128 0x3b
 3607 00fb 0B       		.uleb128 0xb
 3608 00fc 39       		.uleb128 0x39
 3609 00fd 0B       		.uleb128 0xb
 3610 00fe 01       		.uleb128 0x1
 3611 00ff 13       		.uleb128 0x13
 3612 0100 00       		.byte	0
 3613 0101 00       		.byte	0
 3614 0102 14       		.uleb128 0x14
 3615 0103 01       		.uleb128 0x1
 3616 0104 01       		.byte	0x1
 3617 0105 49       		.uleb128 0x49
 3618 0106 13       		.uleb128 0x13
 3619 0107 01       		.uleb128 0x1
 3620 0108 13       		.uleb128 0x13
 3621 0109 00       		.byte	0
 3622 010a 00       		.byte	0
 3623 010b 15       		.uleb128 0x15
 3624 010c 21       		.uleb128 0x21
 3625 010d 00       		.byte	0
 3626 010e 49       		.uleb128 0x49
 3627 010f 13       		.uleb128 0x13
 3628 0110 2F       		.uleb128 0x2f
 3629 0111 0B       		.uleb128 0xb
 3630 0112 00       		.byte	0
 3631 0113 00       		.byte	0
 3632 0114 16       		.uleb128 0x16
 3633 0115 28       		.uleb128 0x28
 3634 0116 00       		.byte	0
 3635 0117 03       		.uleb128 0x3
 3636 0118 0E       		.uleb128 0xe
 3637 0119 1C       		.uleb128 0x1c
 3638 011a 0B       		.uleb128 0xb
 3639 011b 00       		.byte	0
 3640 011c 00       		.byte	0
 3641 011d 17       		.uleb128 0x17
 3642 011e 13       		.uleb128 0x13
ARM GAS  C:\Users\DEVELO~1\AppData\Local\Temp\ccqjbveV.s 			page 65


 3643 011f 01       		.byte	0x1
 3644 0120 03       		.uleb128 0x3
 3645 0121 0E       		.uleb128 0xe
 3646 0122 0B       		.uleb128 0xb
 3647 0123 0B       		.uleb128 0xb
 3648 0124 3A       		.uleb128 0x3a
 3649 0125 0B       		.uleb128 0xb
 3650 0126 3B       		.uleb128 0x3b
 3651 0127 05       		.uleb128 0x5
 3652 0128 39       		.uleb128 0x39
 3653 0129 0B       		.uleb128 0xb
 3654 012a 01       		.uleb128 0x1
 3655 012b 13       		.uleb128 0x13
 3656 012c 00       		.byte	0
 3657 012d 00       		.byte	0
 3658 012e 18       		.uleb128 0x18
 3659 012f 34       		.uleb128 0x34
 3660 0130 00       		.byte	0
 3661 0131 03       		.uleb128 0x3
 3662 0132 0E       		.uleb128 0xe
 3663 0133 3A       		.uleb128 0x3a
 3664 0134 21       		.uleb128 0x21
 3665 0135 01       		.sleb128 1
 3666 0136 3B       		.uleb128 0x3b
 3667 0137 0B       		.uleb128 0xb
 3668 0138 39       		.uleb128 0x39
 3669 0139 0B       		.uleb128 0xb
 3670 013a 49       		.uleb128 0x49
 3671 013b 13       		.uleb128 0x13
 3672 013c 02       		.uleb128 0x2
 3673 013d 18       		.uleb128 0x18
 3674 013e 00       		.byte	0
 3675 013f 00       		.byte	0
 3676 0140 19       		.uleb128 0x19
 3677 0141 2E       		.uleb128 0x2e
 3678 0142 01       		.byte	0x1
 3679 0143 3F       		.uleb128 0x3f
 3680 0144 19       		.uleb128 0x19
 3681 0145 03       		.uleb128 0x3
 3682 0146 0E       		.uleb128 0xe
 3683 0147 3A       		.uleb128 0x3a
 3684 0148 0B       		.uleb128 0xb
 3685 0149 3B       		.uleb128 0x3b
 3686 014a 05       		.uleb128 0x5
 3687 014b 39       		.uleb128 0x39
 3688 014c 21       		.uleb128 0x21
 3689 014d 08       		.sleb128 8
 3690 014e 27       		.uleb128 0x27
 3691 014f 19       		.uleb128 0x19
 3692 0150 3C       		.uleb128 0x3c
 3693 0151 19       		.uleb128 0x19
 3694 0152 01       		.uleb128 0x1
 3695 0153 13       		.uleb128 0x13
 3696 0154 00       		.byte	0
 3697 0155 00       		.byte	0
 3698 0156 1A       		.uleb128 0x1a
 3699 0157 2E       		.uleb128 0x2e
ARM GAS  C:\Users\DEVELO~1\AppData\Local\Temp\ccqjbveV.s 			page 66


 3700 0158 01       		.byte	0x1
 3701 0159 3F       		.uleb128 0x3f
 3702 015a 19       		.uleb128 0x19
 3703 015b 03       		.uleb128 0x3
 3704 015c 0E       		.uleb128 0xe
 3705 015d 3A       		.uleb128 0x3a
 3706 015e 0B       		.uleb128 0xb
 3707 015f 3B       		.uleb128 0x3b
 3708 0160 05       		.uleb128 0x5
 3709 0161 39       		.uleb128 0x39
 3710 0162 0B       		.uleb128 0xb
 3711 0163 27       		.uleb128 0x27
 3712 0164 19       		.uleb128 0x19
 3713 0165 49       		.uleb128 0x49
 3714 0166 13       		.uleb128 0x13
 3715 0167 3C       		.uleb128 0x3c
 3716 0168 19       		.uleb128 0x19
 3717 0169 01       		.uleb128 0x1
 3718 016a 13       		.uleb128 0x13
 3719 016b 00       		.byte	0
 3720 016c 00       		.byte	0
 3721 016d 1B       		.uleb128 0x1b
 3722 016e 1D       		.uleb128 0x1d
 3723 016f 01       		.byte	0x1
 3724 0170 31       		.uleb128 0x31
 3725 0171 13       		.uleb128 0x13
 3726 0172 52       		.uleb128 0x52
 3727 0173 01       		.uleb128 0x1
 3728 0174 B842     		.uleb128 0x2138
 3729 0176 0B       		.uleb128 0xb
 3730 0177 55       		.uleb128 0x55
 3731 0178 17       		.uleb128 0x17
 3732 0179 58       		.uleb128 0x58
 3733 017a 21       		.uleb128 0x21
 3734 017b 01       		.sleb128 1
 3735 017c 59       		.uleb128 0x59
 3736 017d 0B       		.uleb128 0xb
 3737 017e 57       		.uleb128 0x57
 3738 017f 0B       		.uleb128 0xb
 3739 0180 01       		.uleb128 0x1
 3740 0181 13       		.uleb128 0x13
 3741 0182 00       		.byte	0
 3742 0183 00       		.byte	0
 3743 0184 1C       		.uleb128 0x1c
 3744 0185 48       		.uleb128 0x48
 3745 0186 01       		.byte	0x1
 3746 0187 7D       		.uleb128 0x7d
 3747 0188 01       		.uleb128 0x1
 3748 0189 7F       		.uleb128 0x7f
 3749 018a 13       		.uleb128 0x13
 3750 018b 00       		.byte	0
 3751 018c 00       		.byte	0
 3752 018d 1D       		.uleb128 0x1d
 3753 018e 48       		.uleb128 0x48
 3754 018f 01       		.byte	0x1
 3755 0190 7D       		.uleb128 0x7d
 3756 0191 01       		.uleb128 0x1
ARM GAS  C:\Users\DEVELO~1\AppData\Local\Temp\ccqjbveV.s 			page 67


 3757 0192 7F       		.uleb128 0x7f
 3758 0193 13       		.uleb128 0x13
 3759 0194 01       		.uleb128 0x1
 3760 0195 13       		.uleb128 0x13
 3761 0196 00       		.byte	0
 3762 0197 00       		.byte	0
 3763 0198 1E       		.uleb128 0x1e
 3764 0199 0D       		.uleb128 0xd
 3765 019a 00       		.byte	0
 3766 019b 03       		.uleb128 0x3
 3767 019c 0E       		.uleb128 0xe
 3768 019d 3A       		.uleb128 0x3a
 3769 019e 21       		.uleb128 0x21
 3770 019f 0E       		.sleb128 14
 3771 01a0 3B       		.uleb128 0x3b
 3772 01a1 0B       		.uleb128 0xb
 3773 01a2 39       		.uleb128 0x39
 3774 01a3 21       		.uleb128 0x21
 3775 01a4 19       		.sleb128 25
 3776 01a5 49       		.uleb128 0x49
 3777 01a6 13       		.uleb128 0x13
 3778 01a7 0D       		.uleb128 0xd
 3779 01a8 0B       		.uleb128 0xb
 3780 01a9 6B       		.uleb128 0x6b
 3781 01aa 0B       		.uleb128 0xb
 3782 01ab 00       		.byte	0
 3783 01ac 00       		.byte	0
 3784 01ad 1F       		.uleb128 0x1f
 3785 01ae 15       		.uleb128 0x15
 3786 01af 01       		.byte	0x1
 3787 01b0 27       		.uleb128 0x27
 3788 01b1 19       		.uleb128 0x19
 3789 01b2 01       		.uleb128 0x1
 3790 01b3 13       		.uleb128 0x13
 3791 01b4 00       		.byte	0
 3792 01b5 00       		.byte	0
 3793 01b6 20       		.uleb128 0x20
 3794 01b7 48       		.uleb128 0x48
 3795 01b8 00       		.byte	0
 3796 01b9 7D       		.uleb128 0x7d
 3797 01ba 01       		.uleb128 0x1
 3798 01bb 7F       		.uleb128 0x7f
 3799 01bc 13       		.uleb128 0x13
 3800 01bd 00       		.byte	0
 3801 01be 00       		.byte	0
 3802 01bf 21       		.uleb128 0x21
 3803 01c0 2E       		.uleb128 0x2e
 3804 01c1 01       		.byte	0x1
 3805 01c2 3F       		.uleb128 0x3f
 3806 01c3 19       		.uleb128 0x19
 3807 01c4 03       		.uleb128 0x3
 3808 01c5 0E       		.uleb128 0xe
 3809 01c6 3A       		.uleb128 0x3a
 3810 01c7 21       		.uleb128 0x21
 3811 01c8 13       		.sleb128 19
 3812 01c9 3B       		.uleb128 0x3b
 3813 01ca 0B       		.uleb128 0xb
ARM GAS  C:\Users\DEVELO~1\AppData\Local\Temp\ccqjbveV.s 			page 68


 3814 01cb 39       		.uleb128 0x39
 3815 01cc 21       		.uleb128 0x21
 3816 01cd 08       		.sleb128 8
 3817 01ce 27       		.uleb128 0x27
 3818 01cf 19       		.uleb128 0x19
 3819 01d0 3C       		.uleb128 0x3c
 3820 01d1 19       		.uleb128 0x19
 3821 01d2 01       		.uleb128 0x1
 3822 01d3 13       		.uleb128 0x13
 3823 01d4 00       		.byte	0
 3824 01d5 00       		.byte	0
 3825 01d6 22       		.uleb128 0x22
 3826 01d7 2E       		.uleb128 0x2e
 3827 01d8 01       		.byte	0x1
 3828 01d9 3F       		.uleb128 0x3f
 3829 01da 19       		.uleb128 0x19
 3830 01db 03       		.uleb128 0x3
 3831 01dc 0E       		.uleb128 0xe
 3832 01dd 3A       		.uleb128 0x3a
 3833 01de 21       		.uleb128 0x21
 3834 01df 01       		.sleb128 1
 3835 01e0 3B       		.uleb128 0x3b
 3836 01e1 0B       		.uleb128 0xb
 3837 01e2 39       		.uleb128 0x39
 3838 01e3 21       		.uleb128 0x21
 3839 01e4 06       		.sleb128 6
 3840 01e5 27       		.uleb128 0x27
 3841 01e6 19       		.uleb128 0x19
 3842 01e7 11       		.uleb128 0x11
 3843 01e8 01       		.uleb128 0x1
 3844 01e9 12       		.uleb128 0x12
 3845 01ea 06       		.uleb128 0x6
 3846 01eb 40       		.uleb128 0x40
 3847 01ec 18       		.uleb128 0x18
 3848 01ed 7A       		.uleb128 0x7a
 3849 01ee 19       		.uleb128 0x19
 3850 01ef 01       		.uleb128 0x1
 3851 01f0 13       		.uleb128 0x13
 3852 01f1 00       		.byte	0
 3853 01f2 00       		.byte	0
 3854 01f3 23       		.uleb128 0x23
 3855 01f4 05       		.uleb128 0x5
 3856 01f5 00       		.byte	0
 3857 01f6 31       		.uleb128 0x31
 3858 01f7 13       		.uleb128 0x13
 3859 01f8 02       		.uleb128 0x2
 3860 01f9 17       		.uleb128 0x17
 3861 01fa B742     		.uleb128 0x2137
 3862 01fc 17       		.uleb128 0x17
 3863 01fd 00       		.byte	0
 3864 01fe 00       		.byte	0
 3865 01ff 24       		.uleb128 0x24
 3866 0200 2E       		.uleb128 0x2e
 3867 0201 01       		.byte	0x1
 3868 0202 03       		.uleb128 0x3
 3869 0203 0E       		.uleb128 0xe
 3870 0204 3A       		.uleb128 0x3a
ARM GAS  C:\Users\DEVELO~1\AppData\Local\Temp\ccqjbveV.s 			page 69


 3871 0205 0B       		.uleb128 0xb
 3872 0206 3B       		.uleb128 0x3b
 3873 0207 0B       		.uleb128 0xb
 3874 0208 39       		.uleb128 0x39
 3875 0209 0B       		.uleb128 0xb
 3876 020a 27       		.uleb128 0x27
 3877 020b 19       		.uleb128 0x19
 3878 020c 20       		.uleb128 0x20
 3879 020d 0B       		.uleb128 0xb
 3880 020e 01       		.uleb128 0x1
 3881 020f 13       		.uleb128 0x13
 3882 0210 00       		.byte	0
 3883 0211 00       		.byte	0
 3884 0212 25       		.uleb128 0x25
 3885 0213 34       		.uleb128 0x34
 3886 0214 00       		.byte	0
 3887 0215 03       		.uleb128 0x3
 3888 0216 08       		.uleb128 0x8
 3889 0217 3A       		.uleb128 0x3a
 3890 0218 21       		.uleb128 0x21
 3891 0219 01       		.sleb128 1
 3892 021a 3B       		.uleb128 0x3b
 3893 021b 0B       		.uleb128 0xb
 3894 021c 39       		.uleb128 0x39
 3895 021d 0B       		.uleb128 0xb
 3896 021e 49       		.uleb128 0x49
 3897 021f 13       		.uleb128 0x13
 3898 0220 00       		.byte	0
 3899 0221 00       		.byte	0
 3900 0222 26       		.uleb128 0x26
 3901 0223 2E       		.uleb128 0x2e
 3902 0224 00       		.byte	0
 3903 0225 03       		.uleb128 0x3
 3904 0226 0E       		.uleb128 0xe
 3905 0227 3A       		.uleb128 0x3a
 3906 0228 21       		.uleb128 0x21
 3907 0229 03       		.sleb128 3
 3908 022a 3B       		.uleb128 0x3b
 3909 022b 05       		.uleb128 0x5
 3910 022c 39       		.uleb128 0x39
 3911 022d 0B       		.uleb128 0xb
 3912 022e 27       		.uleb128 0x27
 3913 022f 19       		.uleb128 0x19
 3914 0230 49       		.uleb128 0x49
 3915 0231 13       		.uleb128 0x13
 3916 0232 20       		.uleb128 0x20
 3917 0233 21       		.uleb128 0x21
 3918 0234 03       		.sleb128 3
 3919 0235 00       		.byte	0
 3920 0236 00       		.byte	0
 3921 0237 27       		.uleb128 0x27
 3922 0238 11       		.uleb128 0x11
 3923 0239 01       		.byte	0x1
 3924 023a 25       		.uleb128 0x25
 3925 023b 0E       		.uleb128 0xe
 3926 023c 13       		.uleb128 0x13
 3927 023d 0B       		.uleb128 0xb
ARM GAS  C:\Users\DEVELO~1\AppData\Local\Temp\ccqjbveV.s 			page 70


 3928 023e 03       		.uleb128 0x3
 3929 023f 0E       		.uleb128 0xe
 3930 0240 1B       		.uleb128 0x1b
 3931 0241 0E       		.uleb128 0xe
 3932 0242 55       		.uleb128 0x55
 3933 0243 17       		.uleb128 0x17
 3934 0244 11       		.uleb128 0x11
 3935 0245 01       		.uleb128 0x1
 3936 0246 10       		.uleb128 0x10
 3937 0247 17       		.uleb128 0x17
 3938 0248 00       		.byte	0
 3939 0249 00       		.byte	0
 3940 024a 28       		.uleb128 0x28
 3941 024b 24       		.uleb128 0x24
 3942 024c 00       		.byte	0
 3943 024d 0B       		.uleb128 0xb
 3944 024e 0B       		.uleb128 0xb
 3945 024f 3E       		.uleb128 0x3e
 3946 0250 0B       		.uleb128 0xb
 3947 0251 03       		.uleb128 0x3
 3948 0252 08       		.uleb128 0x8
 3949 0253 00       		.byte	0
 3950 0254 00       		.byte	0
 3951 0255 29       		.uleb128 0x29
 3952 0256 13       		.uleb128 0x13
 3953 0257 01       		.byte	0x1
 3954 0258 03       		.uleb128 0x3
 3955 0259 0E       		.uleb128 0xe
 3956 025a 0B       		.uleb128 0xb
 3957 025b 05       		.uleb128 0x5
 3958 025c 3A       		.uleb128 0x3a
 3959 025d 0B       		.uleb128 0xb
 3960 025e 3B       		.uleb128 0x3b
 3961 025f 05       		.uleb128 0x5
 3962 0260 39       		.uleb128 0x39
 3963 0261 0B       		.uleb128 0xb
 3964 0262 01       		.uleb128 0x1
 3965 0263 13       		.uleb128 0x13
 3966 0264 00       		.byte	0
 3967 0265 00       		.byte	0
 3968 0266 2A       		.uleb128 0x2a
 3969 0267 0F       		.uleb128 0xf
 3970 0268 00       		.byte	0
 3971 0269 0B       		.uleb128 0xb
 3972 026a 0B       		.uleb128 0xb
 3973 026b 00       		.byte	0
 3974 026c 00       		.byte	0
 3975 026d 2B       		.uleb128 0x2b
 3976 026e 13       		.uleb128 0x13
 3977 026f 01       		.byte	0x1
 3978 0270 0B       		.uleb128 0xb
 3979 0271 05       		.uleb128 0x5
 3980 0272 3A       		.uleb128 0x3a
 3981 0273 0B       		.uleb128 0xb
 3982 0274 3B       		.uleb128 0x3b
 3983 0275 0B       		.uleb128 0xb
 3984 0276 39       		.uleb128 0x39
ARM GAS  C:\Users\DEVELO~1\AppData\Local\Temp\ccqjbveV.s 			page 71


 3985 0277 0B       		.uleb128 0xb
 3986 0278 01       		.uleb128 0x1
 3987 0279 13       		.uleb128 0x13
 3988 027a 00       		.byte	0
 3989 027b 00       		.byte	0
 3990 027c 2C       		.uleb128 0x2c
 3991 027d 17       		.uleb128 0x17
 3992 027e 01       		.byte	0x1
 3993 027f 0B       		.uleb128 0xb
 3994 0280 0B       		.uleb128 0xb
 3995 0281 3A       		.uleb128 0x3a
 3996 0282 0B       		.uleb128 0xb
 3997 0283 3B       		.uleb128 0x3b
 3998 0284 05       		.uleb128 0x5
 3999 0285 39       		.uleb128 0x39
 4000 0286 0B       		.uleb128 0xb
 4001 0287 01       		.uleb128 0x1
 4002 0288 13       		.uleb128 0x13
 4003 0289 00       		.byte	0
 4004 028a 00       		.byte	0
 4005 028b 2D       		.uleb128 0x2d
 4006 028c 34       		.uleb128 0x34
 4007 028d 00       		.byte	0
 4008 028e 03       		.uleb128 0x3
 4009 028f 08       		.uleb128 0x8
 4010 0290 3A       		.uleb128 0x3a
 4011 0291 0B       		.uleb128 0xb
 4012 0292 3B       		.uleb128 0x3b
 4013 0293 05       		.uleb128 0x5
 4014 0294 39       		.uleb128 0x39
 4015 0295 0B       		.uleb128 0xb
 4016 0296 49       		.uleb128 0x49
 4017 0297 13       		.uleb128 0x13
 4018 0298 3F       		.uleb128 0x3f
 4019 0299 19       		.uleb128 0x19
 4020 029a 3C       		.uleb128 0x3c
 4021 029b 19       		.uleb128 0x19
 4022 029c 00       		.byte	0
 4023 029d 00       		.byte	0
 4024 029e 2E       		.uleb128 0x2e
 4025 029f 04       		.uleb128 0x4
 4026 02a0 01       		.byte	0x1
 4027 02a1 3E       		.uleb128 0x3e
 4028 02a2 0B       		.uleb128 0xb
 4029 02a3 0B       		.uleb128 0xb
 4030 02a4 0B       		.uleb128 0xb
 4031 02a5 49       		.uleb128 0x49
 4032 02a6 13       		.uleb128 0x13
 4033 02a7 3A       		.uleb128 0x3a
 4034 02a8 0B       		.uleb128 0xb
 4035 02a9 3B       		.uleb128 0x3b
 4036 02aa 0B       		.uleb128 0xb
 4037 02ab 39       		.uleb128 0x39
 4038 02ac 0B       		.uleb128 0xb
 4039 02ad 01       		.uleb128 0x1
 4040 02ae 13       		.uleb128 0x13
 4041 02af 00       		.byte	0
ARM GAS  C:\Users\DEVELO~1\AppData\Local\Temp\ccqjbveV.s 			page 72


 4042 02b0 00       		.byte	0
 4043 02b1 2F       		.uleb128 0x2f
 4044 02b2 34       		.uleb128 0x34
 4045 02b3 00       		.byte	0
 4046 02b4 03       		.uleb128 0x3
 4047 02b5 0E       		.uleb128 0xe
 4048 02b6 3A       		.uleb128 0x3a
 4049 02b7 0B       		.uleb128 0xb
 4050 02b8 3B       		.uleb128 0x3b
 4051 02b9 05       		.uleb128 0x5
 4052 02ba 39       		.uleb128 0x39
 4053 02bb 0B       		.uleb128 0xb
 4054 02bc 49       		.uleb128 0x49
 4055 02bd 13       		.uleb128 0x13
 4056 02be 3F       		.uleb128 0x3f
 4057 02bf 19       		.uleb128 0x19
 4058 02c0 3C       		.uleb128 0x3c
 4059 02c1 19       		.uleb128 0x19
 4060 02c2 00       		.byte	0
 4061 02c3 00       		.byte	0
 4062 02c4 30       		.uleb128 0x30
 4063 02c5 34       		.uleb128 0x34
 4064 02c6 00       		.byte	0
 4065 02c7 03       		.uleb128 0x3
 4066 02c8 0E       		.uleb128 0xe
 4067 02c9 3A       		.uleb128 0x3a
 4068 02ca 0B       		.uleb128 0xb
 4069 02cb 3B       		.uleb128 0x3b
 4070 02cc 0B       		.uleb128 0xb
 4071 02cd 39       		.uleb128 0x39
 4072 02ce 0B       		.uleb128 0xb
 4073 02cf 49       		.uleb128 0x49
 4074 02d0 13       		.uleb128 0x13
 4075 02d1 3F       		.uleb128 0x3f
 4076 02d2 19       		.uleb128 0x19
 4077 02d3 3C       		.uleb128 0x3c
 4078 02d4 19       		.uleb128 0x19
 4079 02d5 00       		.byte	0
 4080 02d6 00       		.byte	0
 4081 02d7 31       		.uleb128 0x31
 4082 02d8 34       		.uleb128 0x34
 4083 02d9 00       		.byte	0
 4084 02da 03       		.uleb128 0x3
 4085 02db 0E       		.uleb128 0xe
 4086 02dc 3A       		.uleb128 0x3a
 4087 02dd 0B       		.uleb128 0xb
 4088 02de 3B       		.uleb128 0x3b
 4089 02df 0B       		.uleb128 0xb
 4090 02e0 39       		.uleb128 0x39
 4091 02e1 0B       		.uleb128 0xb
 4092 02e2 49       		.uleb128 0x49
 4093 02e3 13       		.uleb128 0x13
 4094 02e4 8801     		.uleb128 0x88
 4095 02e6 0B       		.uleb128 0xb
 4096 02e7 02       		.uleb128 0x2
 4097 02e8 18       		.uleb128 0x18
 4098 02e9 00       		.byte	0
ARM GAS  C:\Users\DEVELO~1\AppData\Local\Temp\ccqjbveV.s 			page 73


 4099 02ea 00       		.byte	0
 4100 02eb 32       		.uleb128 0x32
 4101 02ec 2E       		.uleb128 0x2e
 4102 02ed 00       		.byte	0
 4103 02ee 3F       		.uleb128 0x3f
 4104 02ef 19       		.uleb128 0x19
 4105 02f0 03       		.uleb128 0x3
 4106 02f1 0E       		.uleb128 0xe
 4107 02f2 3A       		.uleb128 0x3a
 4108 02f3 0B       		.uleb128 0xb
 4109 02f4 3B       		.uleb128 0x3b
 4110 02f5 0B       		.uleb128 0xb
 4111 02f6 39       		.uleb128 0x39
 4112 02f7 0B       		.uleb128 0xb
 4113 02f8 27       		.uleb128 0x27
 4114 02f9 19       		.uleb128 0x19
 4115 02fa 49       		.uleb128 0x49
 4116 02fb 13       		.uleb128 0x13
 4117 02fc 11       		.uleb128 0x11
 4118 02fd 01       		.uleb128 0x1
 4119 02fe 12       		.uleb128 0x12
 4120 02ff 06       		.uleb128 0x6
 4121 0300 40       		.uleb128 0x40
 4122 0301 18       		.uleb128 0x18
 4123 0302 7A       		.uleb128 0x7a
 4124 0303 19       		.uleb128 0x19
 4125 0304 00       		.byte	0
 4126 0305 00       		.byte	0
 4127 0306 33       		.uleb128 0x33
 4128 0307 2E       		.uleb128 0x2e
 4129 0308 01       		.byte	0x1
 4130 0309 3F       		.uleb128 0x3f
 4131 030a 19       		.uleb128 0x19
 4132 030b 03       		.uleb128 0x3
 4133 030c 0E       		.uleb128 0xe
 4134 030d 3A       		.uleb128 0x3a
 4135 030e 0B       		.uleb128 0xb
 4136 030f 3B       		.uleb128 0x3b
 4137 0310 0B       		.uleb128 0xb
 4138 0311 39       		.uleb128 0x39
 4139 0312 0B       		.uleb128 0xb
 4140 0313 27       		.uleb128 0x27
 4141 0314 19       		.uleb128 0x19
 4142 0315 49       		.uleb128 0x49
 4143 0316 13       		.uleb128 0x13
 4144 0317 11       		.uleb128 0x11
 4145 0318 01       		.uleb128 0x1
 4146 0319 12       		.uleb128 0x12
 4147 031a 06       		.uleb128 0x6
 4148 031b 40       		.uleb128 0x40
 4149 031c 18       		.uleb128 0x18
 4150 031d 7A       		.uleb128 0x7a
 4151 031e 19       		.uleb128 0x19
 4152 031f 01       		.uleb128 0x1
 4153 0320 13       		.uleb128 0x13
 4154 0321 00       		.byte	0
 4155 0322 00       		.byte	0
ARM GAS  C:\Users\DEVELO~1\AppData\Local\Temp\ccqjbveV.s 			page 74


 4156 0323 34       		.uleb128 0x34
 4157 0324 05       		.uleb128 0x5
 4158 0325 00       		.byte	0
 4159 0326 03       		.uleb128 0x3
 4160 0327 0E       		.uleb128 0xe
 4161 0328 3A       		.uleb128 0x3a
 4162 0329 0B       		.uleb128 0xb
 4163 032a 3B       		.uleb128 0x3b
 4164 032b 0B       		.uleb128 0xb
 4165 032c 39       		.uleb128 0x39
 4166 032d 0B       		.uleb128 0xb
 4167 032e 49       		.uleb128 0x49
 4168 032f 13       		.uleb128 0x13
 4169 0330 02       		.uleb128 0x2
 4170 0331 17       		.uleb128 0x17
 4171 0332 B742     		.uleb128 0x2137
 4172 0334 17       		.uleb128 0x17
 4173 0335 00       		.byte	0
 4174 0336 00       		.byte	0
 4175 0337 35       		.uleb128 0x35
 4176 0338 1D       		.uleb128 0x1d
 4177 0339 01       		.byte	0x1
 4178 033a 31       		.uleb128 0x31
 4179 033b 13       		.uleb128 0x13
 4180 033c 52       		.uleb128 0x52
 4181 033d 01       		.uleb128 0x1
 4182 033e B842     		.uleb128 0x2138
 4183 0340 0B       		.uleb128 0xb
 4184 0341 11       		.uleb128 0x11
 4185 0342 01       		.uleb128 0x1
 4186 0343 12       		.uleb128 0x12
 4187 0344 06       		.uleb128 0x6
 4188 0345 58       		.uleb128 0x58
 4189 0346 0B       		.uleb128 0xb
 4190 0347 59       		.uleb128 0x59
 4191 0348 0B       		.uleb128 0xb
 4192 0349 57       		.uleb128 0x57
 4193 034a 0B       		.uleb128 0xb
 4194 034b 01       		.uleb128 0x1
 4195 034c 13       		.uleb128 0x13
 4196 034d 00       		.byte	0
 4197 034e 00       		.byte	0
 4198 034f 36       		.uleb128 0x36
 4199 0350 2E       		.uleb128 0x2e
 4200 0351 00       		.byte	0
 4201 0352 3F       		.uleb128 0x3f
 4202 0353 19       		.uleb128 0x19
 4203 0354 03       		.uleb128 0x3
 4204 0355 0E       		.uleb128 0xe
 4205 0356 3A       		.uleb128 0x3a
 4206 0357 0B       		.uleb128 0xb
 4207 0358 3B       		.uleb128 0x3b
 4208 0359 0B       		.uleb128 0xb
 4209 035a 39       		.uleb128 0x39
 4210 035b 0B       		.uleb128 0xb
 4211 035c 27       		.uleb128 0x27
 4212 035d 19       		.uleb128 0x19
ARM GAS  C:\Users\DEVELO~1\AppData\Local\Temp\ccqjbveV.s 			page 75


 4213 035e 20       		.uleb128 0x20
 4214 035f 0B       		.uleb128 0xb
 4215 0360 00       		.byte	0
 4216 0361 00       		.byte	0
 4217 0362 37       		.uleb128 0x37
 4218 0363 2E       		.uleb128 0x2e
 4219 0364 01       		.byte	0x1
 4220 0365 03       		.uleb128 0x3
 4221 0366 0E       		.uleb128 0xe
 4222 0367 3A       		.uleb128 0x3a
 4223 0368 0B       		.uleb128 0xb
 4224 0369 3B       		.uleb128 0x3b
 4225 036a 0B       		.uleb128 0xb
 4226 036b 39       		.uleb128 0x39
 4227 036c 0B       		.uleb128 0xb
 4228 036d 27       		.uleb128 0x27
 4229 036e 19       		.uleb128 0x19
 4230 036f 11       		.uleb128 0x11
 4231 0370 01       		.uleb128 0x1
 4232 0371 12       		.uleb128 0x12
 4233 0372 06       		.uleb128 0x6
 4234 0373 40       		.uleb128 0x40
 4235 0374 18       		.uleb128 0x18
 4236 0375 7A       		.uleb128 0x7a
 4237 0376 19       		.uleb128 0x19
 4238 0377 01       		.uleb128 0x1
 4239 0378 13       		.uleb128 0x13
 4240 0379 00       		.byte	0
 4241 037a 00       		.byte	0
 4242 037b 38       		.uleb128 0x38
 4243 037c 05       		.uleb128 0x5
 4244 037d 00       		.byte	0
 4245 037e 03       		.uleb128 0x3
 4246 037f 08       		.uleb128 0x8
 4247 0380 3A       		.uleb128 0x3a
 4248 0381 0B       		.uleb128 0xb
 4249 0382 3B       		.uleb128 0x3b
 4250 0383 0B       		.uleb128 0xb
 4251 0384 39       		.uleb128 0x39
 4252 0385 0B       		.uleb128 0xb
 4253 0386 49       		.uleb128 0x49
 4254 0387 13       		.uleb128 0x13
 4255 0388 02       		.uleb128 0x2
 4256 0389 17       		.uleb128 0x17
 4257 038a B742     		.uleb128 0x2137
 4258 038c 17       		.uleb128 0x17
 4259 038d 00       		.byte	0
 4260 038e 00       		.byte	0
 4261 038f 39       		.uleb128 0x39
 4262 0390 1D       		.uleb128 0x1d
 4263 0391 00       		.byte	0
 4264 0392 31       		.uleb128 0x31
 4265 0393 13       		.uleb128 0x13
 4266 0394 52       		.uleb128 0x52
 4267 0395 01       		.uleb128 0x1
 4268 0396 B842     		.uleb128 0x2138
 4269 0398 0B       		.uleb128 0xb
ARM GAS  C:\Users\DEVELO~1\AppData\Local\Temp\ccqjbveV.s 			page 76


 4270 0399 55       		.uleb128 0x55
 4271 039a 17       		.uleb128 0x17
 4272 039b 58       		.uleb128 0x58
 4273 039c 0B       		.uleb128 0xb
 4274 039d 59       		.uleb128 0x59
 4275 039e 05       		.uleb128 0x5
 4276 039f 57       		.uleb128 0x57
 4277 03a0 0B       		.uleb128 0xb
 4278 03a1 00       		.byte	0
 4279 03a2 00       		.byte	0
 4280 03a3 3A       		.uleb128 0x3a
 4281 03a4 0B       		.uleb128 0xb
 4282 03a5 01       		.byte	0x1
 4283 03a6 55       		.uleb128 0x55
 4284 03a7 17       		.uleb128 0x17
 4285 03a8 00       		.byte	0
 4286 03a9 00       		.byte	0
 4287 03aa 3B       		.uleb128 0x3b
 4288 03ab 34       		.uleb128 0x34
 4289 03ac 00       		.byte	0
 4290 03ad 31       		.uleb128 0x31
 4291 03ae 13       		.uleb128 0x13
 4292 03af 02       		.uleb128 0x2
 4293 03b0 18       		.uleb128 0x18
 4294 03b1 00       		.byte	0
 4295 03b2 00       		.byte	0
 4296 03b3 3C       		.uleb128 0x3c
 4297 03b4 34       		.uleb128 0x34
 4298 03b5 00       		.byte	0
 4299 03b6 31       		.uleb128 0x31
 4300 03b7 13       		.uleb128 0x13
 4301 03b8 02       		.uleb128 0x2
 4302 03b9 17       		.uleb128 0x17
 4303 03ba B742     		.uleb128 0x2137
 4304 03bc 17       		.uleb128 0x17
 4305 03bd 00       		.byte	0
 4306 03be 00       		.byte	0
 4307 03bf 3D       		.uleb128 0x3d
 4308 03c0 48       		.uleb128 0x48
 4309 03c1 01       		.byte	0x1
 4310 03c2 7D       		.uleb128 0x7d
 4311 03c3 01       		.uleb128 0x1
 4312 03c4 8201     		.uleb128 0x82
 4313 03c6 19       		.uleb128 0x19
 4314 03c7 7F       		.uleb128 0x7f
 4315 03c8 13       		.uleb128 0x13
 4316 03c9 00       		.byte	0
 4317 03ca 00       		.byte	0
 4318 03cb 3E       		.uleb128 0x3e
 4319 03cc 05       		.uleb128 0x5
 4320 03cd 00       		.byte	0
 4321 03ce 03       		.uleb128 0x3
 4322 03cf 0E       		.uleb128 0xe
 4323 03d0 3A       		.uleb128 0x3a
 4324 03d1 0B       		.uleb128 0xb
 4325 03d2 3B       		.uleb128 0x3b
 4326 03d3 0B       		.uleb128 0xb
ARM GAS  C:\Users\DEVELO~1\AppData\Local\Temp\ccqjbveV.s 			page 77


 4327 03d4 39       		.uleb128 0x39
 4328 03d5 0B       		.uleb128 0xb
 4329 03d6 49       		.uleb128 0x49
 4330 03d7 13       		.uleb128 0x13
 4331 03d8 00       		.byte	0
 4332 03d9 00       		.byte	0
 4333 03da 3F       		.uleb128 0x3f
 4334 03db 2E       		.uleb128 0x2e
 4335 03dc 01       		.byte	0x1
 4336 03dd 03       		.uleb128 0x3
 4337 03de 0E       		.uleb128 0xe
 4338 03df 3A       		.uleb128 0x3a
 4339 03e0 0B       		.uleb128 0xb
 4340 03e1 3B       		.uleb128 0x3b
 4341 03e2 05       		.uleb128 0x5
 4342 03e3 39       		.uleb128 0x39
 4343 03e4 0B       		.uleb128 0xb
 4344 03e5 27       		.uleb128 0x27
 4345 03e6 19       		.uleb128 0x19
 4346 03e7 49       		.uleb128 0x49
 4347 03e8 13       		.uleb128 0x13
 4348 03e9 20       		.uleb128 0x20
 4349 03ea 0B       		.uleb128 0xb
 4350 03eb 01       		.uleb128 0x1
 4351 03ec 13       		.uleb128 0x13
 4352 03ed 00       		.byte	0
 4353 03ee 00       		.byte	0
 4354 03ef 40       		.uleb128 0x40
 4355 03f0 05       		.uleb128 0x5
 4356 03f1 00       		.byte	0
 4357 03f2 03       		.uleb128 0x3
 4358 03f3 08       		.uleb128 0x8
 4359 03f4 3A       		.uleb128 0x3a
 4360 03f5 0B       		.uleb128 0xb
 4361 03f6 3B       		.uleb128 0x3b
 4362 03f7 05       		.uleb128 0x5
 4363 03f8 39       		.uleb128 0x39
 4364 03f9 0B       		.uleb128 0xb
 4365 03fa 49       		.uleb128 0x49
 4366 03fb 13       		.uleb128 0x13
 4367 03fc 00       		.byte	0
 4368 03fd 00       		.byte	0
 4369 03fe 41       		.uleb128 0x41
 4370 03ff 2E       		.uleb128 0x2e
 4371 0400 01       		.byte	0x1
 4372 0401 31       		.uleb128 0x31
 4373 0402 13       		.uleb128 0x13
 4374 0403 11       		.uleb128 0x11
 4375 0404 01       		.uleb128 0x1
 4376 0405 12       		.uleb128 0x12
 4377 0406 06       		.uleb128 0x6
 4378 0407 40       		.uleb128 0x40
 4379 0408 18       		.uleb128 0x18
 4380 0409 7A       		.uleb128 0x7a
 4381 040a 19       		.uleb128 0x19
 4382 040b 00       		.byte	0
 4383 040c 00       		.byte	0
ARM GAS  C:\Users\DEVELO~1\AppData\Local\Temp\ccqjbveV.s 			page 78


 4384 040d 00       		.byte	0
 4385              		.section	.debug_loclists,"",%progbits
 4386 0000 83000000 		.4byte	.Ldebug_loc3-.Ldebug_loc2
 4387              	.Ldebug_loc2:
 4388 0004 0500     		.2byte	0x5
 4389 0006 04       		.byte	0x4
 4390 0007 00       		.byte	0
 4391 0008 00000000 		.4byte	0
 4392              	.Ldebug_loc0:
 4393              	.LVUS9:
 4394 000c 00       		.uleb128 0
 4395 000d 00       		.uleb128 .LVU118
 4396 000e 00       		.uleb128 .LVU118
 4397 000f 00       		.uleb128 .LVU119
 4398 0010 00       		.uleb128 .LVU119
 4399 0011 00       		.uleb128 .LVU120
 4400 0012 00       		.uleb128 .LVU120
 4401 0013 00       		.uleb128 0
 4402              	.LLST9:
 4403 0014 06       		.byte	0x6
 4404 0015 00000000 		.4byte	.LVL18
 4405 0019 04       		.byte	0x4
 4406 001a 00       		.uleb128 .LVL18-.LVL18
 4407 001b 0C       		.uleb128 .LVL19-.LVL18
 4408 001c 01       		.uleb128 0x1
 4409 001d 50       		.byte	0x50
 4410 001e 04       		.byte	0x4
 4411 001f 0C       		.uleb128 .LVL19-.LVL18
 4412 0020 12       		.uleb128 .LVL20-.LVL18
 4413 0021 04       		.uleb128 0x4
 4414 0022 A3       		.byte	0xa3
 4415 0023 01       		.uleb128 0x1
 4416 0024 50       		.byte	0x50
 4417 0025 9F       		.byte	0x9f
 4418 0026 04       		.byte	0x4
 4419 0027 12       		.uleb128 .LVL20-.LVL18
 4420 0028 14       		.uleb128 .LVL21-.LVL18
 4421 0029 01       		.uleb128 0x1
 4422 002a 50       		.byte	0x50
 4423 002b 04       		.byte	0x4
 4424 002c 14       		.uleb128 .LVL21-.LVL18
 4425 002d 1C       		.uleb128 .LFE453-.LVL18
 4426 002e 04       		.uleb128 0x4
 4427 002f A3       		.byte	0xa3
 4428 0030 01       		.uleb128 0x1
 4429 0031 50       		.byte	0x50
 4430 0032 9F       		.byte	0x9f
 4431 0033 00       		.byte	0
 4432              	.LVUS7:
 4433 0034 01       		.uleb128 .LVU85
 4434 0035 03       		.uleb128 .LVU87
 4435              	.LLST7:
 4436 0036 08       		.byte	0x8
 4437 0037 0A000000 		.4byte	.LVL12
 4438 003b 00       		.uleb128 .LVL12-.LVL12
 4439 003c 01       		.uleb128 0x1
 4440 003d 50       		.byte	0x50
ARM GAS  C:\Users\DEVELO~1\AppData\Local\Temp\ccqjbveV.s 			page 79


 4441 003e 00       		.byte	0
 4442              	.LVUS0:
 4443 003f 00       		.uleb128 0
 4444 0040 00       		.uleb128 .LVU22
 4445 0041 00       		.uleb128 .LVU22
 4446 0042 00       		.uleb128 0
 4447              	.LLST0:
 4448 0043 06       		.byte	0x6
 4449 0044 00000000 		.4byte	.LVL0
 4450 0048 04       		.byte	0x4
 4451 0049 00       		.uleb128 .LVL0-.LVL0
 4452 004a 28       		.uleb128 .LVL2-.LVL0
 4453 004b 01       		.uleb128 0x1
 4454 004c 50       		.byte	0x50
 4455 004d 04       		.byte	0x4
 4456 004e 28       		.uleb128 .LVL2-.LVL0
 4457 004f C801     		.uleb128 .LFE449-.LVL0
 4458 0051 04       		.uleb128 0x4
 4459 0052 A3       		.byte	0xa3
 4460 0053 01       		.uleb128 0x1
 4461 0054 50       		.byte	0x50
 4462 0055 9F       		.byte	0x9f
 4463 0056 00       		.byte	0
 4464              	.LVUS2:
 4465 0057 03       		.uleb128 .LVU3
 4466 0058 00       		.uleb128 .LVU12
 4467              	.LLST2:
 4468 0059 08       		.byte	0x8
 4469 005a 00000000 		.4byte	.LVL0
 4470 005e 16       		.uleb128 .LVL1-.LVL0
 4471 005f 06       		.uleb128 0x6
 4472 0060 03       		.byte	0x3
 4473 0061 00000000 		.4byte	.LC0
 4474 0065 9F       		.byte	0x9f
 4475 0066 00       		.byte	0
 4476              	.LVUS6:
 4477 0067 01       		.uleb128 .LVU56
 4478 0068 00       		.uleb128 .LVU59
 4479              	.LLST6:
 4480 0069 08       		.byte	0x8
 4481 006a 7E000000 		.4byte	.LVL7
 4482 006e 08       		.uleb128 .LVL8-.LVL7
 4483 006f 16       		.uleb128 0x16
 4484 0070 7C       		.byte	0x7c
 4485 0071 00       		.sleb128 0
 4486 0072 08       		.byte	0x8
 4487 0073 FF       		.byte	0xff
 4488 0074 1A       		.byte	0x1a
 4489 0075 38       		.byte	0x38
 4490 0076 24       		.byte	0x24
 4491 0077 71       		.byte	0x71
 4492 0078 00       		.sleb128 0
 4493 0079 08       		.byte	0x8
 4494 007a FF       		.byte	0xff
 4495 007b 1A       		.byte	0x1a
 4496 007c 40       		.byte	0x40
 4497 007d 24       		.byte	0x24
ARM GAS  C:\Users\DEVELO~1\AppData\Local\Temp\ccqjbveV.s 			page 80


 4498 007e 21       		.byte	0x21
 4499 007f 72       		.byte	0x72
 4500 0080 00       		.sleb128 0
 4501 0081 08       		.byte	0x8
 4502 0082 FF       		.byte	0xff
 4503 0083 1A       		.byte	0x1a
 4504 0084 21       		.byte	0x21
 4505 0085 9F       		.byte	0x9f
 4506 0086 00       		.byte	0
 4507              	.Ldebug_loc3:
 4508              		.section	.debug_aranges,"",%progbits
 4509 0000 44000000 		.4byte	0x44
 4510 0004 0200     		.2byte	0x2
 4511 0006 00000000 		.4byte	.Ldebug_info0
 4512 000a 04       		.byte	0x4
 4513 000b 00       		.byte	0
 4514 000c 0000     		.2byte	0
 4515 000e 0000     		.2byte	0
 4516 0010 00000000 		.4byte	.LFB449
 4517 0014 C8000000 		.4byte	.LFE449-.LFB449
 4518 0018 00000000 		.4byte	.LFB450
 4519 001c 18000000 		.4byte	.LFE450-.LFB450
 4520 0020 00000000 		.4byte	.LFB451
 4521 0024 54000000 		.4byte	.LFE451-.LFB451
 4522 0028 00000000 		.4byte	.LFB452
 4523 002c 1C000000 		.4byte	.LFE452-.LFB452
 4524 0030 00000000 		.4byte	.LFB453
 4525 0034 1C000000 		.4byte	.LFE453-.LFB453
 4526 0038 00000000 		.4byte	.LFB454
 4527 003c 0C000000 		.4byte	.LFE454-.LFB454
 4528 0040 00000000 		.4byte	0
 4529 0044 00000000 		.4byte	0
 4530              		.section	.debug_rnglists,"",%progbits
 4531              	.Ldebug_ranges0:
 4532 0000 73000000 		.4byte	.Ldebug_ranges3-.Ldebug_ranges2
 4533              	.Ldebug_ranges2:
 4534 0004 0500     		.2byte	0x5
 4535 0006 04       		.byte	0x4
 4536 0007 00       		.byte	0
 4537 0008 00000000 		.4byte	0
 4538              	.LLRL1:
 4539 000c 05       		.byte	0x5
 4540 000d 00000000 		.4byte	.LBB20
 4541 0011 04       		.byte	0x4
 4542 0012 00       		.uleb128 .LBB20-.LBB20
 4543 0013 00       		.uleb128 .LBE20-.LBB20
 4544 0014 04       		.byte	0x4
 4545 0015 04       		.uleb128 .LBB25-.LBB20
 4546 0016 08       		.uleb128 .LBE25-.LBB20
 4547 0017 04       		.byte	0x4
 4548 0018 0A       		.uleb128 .LBB26-.LBB20
 4549 0019 10       		.uleb128 .LBE26-.LBB20
 4550 001a 04       		.byte	0x4
 4551 001b 14       		.uleb128 .LBB27-.LBB20
 4552 001c 16       		.uleb128 .LBE27-.LBB20
 4553 001d 00       		.byte	0
 4554              	.LLRL3:
ARM GAS  C:\Users\DEVELO~1\AppData\Local\Temp\ccqjbveV.s 			page 81


 4555 001e 05       		.byte	0x5
 4556 001f 16000000 		.4byte	.LBB28
 4557 0023 04       		.byte	0x4
 4558 0024 00       		.uleb128 .LBB28-.LBB28
 4559 0025 00       		.uleb128 .LBE28-.LBB28
 4560 0026 04       		.byte	0x4
 4561 0027 74       		.uleb128 .LBB41-.LBB28
 4562 0028 78       		.uleb128 .LBE41-.LBB28
 4563 0029 00       		.byte	0
 4564              	.LLRL4:
 4565 002a 05       		.byte	0x5
 4566 002b 16000000 		.4byte	.LBB30
 4567 002f 04       		.byte	0x4
 4568 0030 00       		.uleb128 .LBB30-.LBB30
 4569 0031 00       		.uleb128 .LBE30-.LBB30
 4570 0032 04       		.byte	0x4
 4571 0033 74       		.uleb128 .LBB33-.LBB30
 4572 0034 74       		.uleb128 .LBE33-.LBB30
 4573 0035 00       		.byte	0
 4574              	.LLRL5:
 4575 0036 05       		.byte	0x5
 4576 0037 22000000 		.4byte	.LBB35
 4577 003b 04       		.byte	0x4
 4578 003c 00       		.uleb128 .LBB35-.LBB35
 4579 003d 06       		.uleb128 .LBE35-.LBB35
 4580 003e 04       		.byte	0x4
 4581 003f 06       		.uleb128 .LBB39-.LBB35
 4582 0040 46       		.uleb128 .LBE39-.LBB35
 4583 0041 04       		.byte	0x4
 4584 0042 48       		.uleb128 .LBB40-.LBB35
 4585 0043 64       		.uleb128 .LBE40-.LBB35
 4586 0044 00       		.byte	0
 4587              	.LLRL8:
 4588 0045 05       		.byte	0x5
 4589 0046 1C000000 		.4byte	.LBB48
 4590 004a 04       		.byte	0x4
 4591 004b 00       		.uleb128 .LBB48-.LBB48
 4592 004c 0E       		.uleb128 .LBE48-.LBB48
 4593 004d 04       		.byte	0x4
 4594 004e 12       		.uleb128 .LBB51-.LBB48
 4595 004f 14       		.uleb128 .LBE51-.LBB48
 4596 0050 00       		.byte	0
 4597              	.LLRL10:
 4598 0051 07       		.byte	0x7
 4599 0052 00000000 		.4byte	.LFB449
 4600 0056 C801     		.uleb128 .LFE449-.LFB449
 4601 0058 07       		.byte	0x7
 4602 0059 00000000 		.4byte	.LFB450
 4603 005d 18       		.uleb128 .LFE450-.LFB450
 4604 005e 07       		.byte	0x7
 4605 005f 00000000 		.4byte	.LFB451
 4606 0063 54       		.uleb128 .LFE451-.LFB451
 4607 0064 07       		.byte	0x7
 4608 0065 00000000 		.4byte	.LFB452
 4609 0069 1C       		.uleb128 .LFE452-.LFB452
 4610 006a 07       		.byte	0x7
 4611 006b 00000000 		.4byte	.LFB453
ARM GAS  C:\Users\DEVELO~1\AppData\Local\Temp\ccqjbveV.s 			page 82


 4612 006f 1C       		.uleb128 .LFE453-.LFB453
 4613 0070 07       		.byte	0x7
 4614 0071 00000000 		.4byte	.LFB454
 4615 0075 0C       		.uleb128 .LFE454-.LFB454
 4616 0076 00       		.byte	0
 4617              	.Ldebug_ranges3:
 4618              		.section	.debug_line,"",%progbits
 4619              	.Ldebug_line0:
 4620 0000 98060000 		.section	.debug_str,"MS",%progbits,1
 4620      03006204 
 4620      00000201 
 4620      FB0E0D00 
 4620      01010101 
 4621              	.LASF7:
 4622 0000 6C6F6E67 		.ascii	"long int\000"
 4622      20696E74 
 4622      00
 4623              	.LASF148:
 4624 0009 63737461 		.ascii	"cstack_base\000"
 4624      636B5F62 
 4624      61736500 
 4625              	.LASF93:
 4626 0015 42444D41 		.ascii	"BDMA_TypeDef\000"
 4626      5F547970 
 4626      65446566 
 4626      00
 4627              	.LASF162:
 4628 0022 62646D61 		.ascii	"bdma\000"
 4628      00
 4629              	.LASF140:
 4630 0027 77746D74 		.ascii	"wtmtxp\000"
 4630      787000
 4631              	.LASF196:
 4632 002e 63697263 		.ascii	"circular\000"
 4632      756C6172 
 4632      00
 4633              	.LASF216:
 4634 0037 63684D74 		.ascii	"chMtxLock\000"
 4634      784C6F63 
 4634      6B00
 4635              	.LASF170:
 4636 0041 42535252 		.ascii	"BSRR\000"
 4636      00
 4637              	.LASF41:
 4638 0046 64697370 		.ascii	"dispose\000"
 4638      6F736500 
 4639              	.LASF22:
 4640 004e 706F7274 		.ascii	"port_stkline_t\000"
 4640      5F73746B 
 4640      6C696E65 
 4640      5F7400
 4641              	.LASF128:
 4642 005d 63685F72 		.ascii	"ch_registry\000"
 4642      65676973 
 4642      74727900 
 4643              	.LASF226:
 4644 0069 63685265 		.ascii	"chRegSetThreadName\000"
ARM GAS  C:\Users\DEVELO~1\AppData\Local\Temp\ccqjbveV.s 			page 83


 4644      67536574 
 4644      54687265 
 4644      61644E61 
 4644      6D6500
 4645              	.LASF236:
 4646 007c 63685468 		.ascii	"chThdTerminatedX\000"
 4646      64546572 
 4646      6D696E61 
 4646      74656458 
 4646      00
 4647              	.LASF37:
 4648 008d 666C6167 		.ascii	"flags\000"
 4648      7300
 4649              	.LASF68:
 4650 0093 73797374 		.ascii	"systime_t\000"
 4650      696D655F 
 4650      7400
 4651              	.LASF47:
 4652 009d 7265616C 		.ascii	"realprio\000"
 4652      7072696F 
 4652      00
 4653              	.LASF81:
 4654 00a6 62756666 		.ascii	"buffer\000"
 4654      657200
 4655              	.LASF79:
 4656 00ad 73757370 		.ascii	"suspended\000"
 4656      656E6465 
 4656      6400
 4657              	.LASF230:
 4658 00b7 64726976 		.ascii	"drivers/drv_buttons.c\000"
 4658      6572732F 
 4658      6472765F 
 4658      62757474 
 4658      6F6E732E 
 4659              	.LASF45:
 4660 00cd 6570656E 		.ascii	"epending\000"
 4660      64696E67 
 4660      00
 4661              	.LASF13:
 4662 00d6 756E7369 		.ascii	"unsigned int\000"
 4662      676E6564 
 4662      20696E74 
 4662      00
 4663              	.LASF112:
 4664 00e3 6E657874 		.ascii	"next\000"
 4664      00
 4665              	.LASF17:
 4666 00e8 75696E74 		.ascii	"uint32_t\000"
 4666      33325F74 
 4666      00
 4667              	.LASF54:
 4668 00f1 636F7265 		.ascii	"core_id\000"
 4668      5F696400 
 4669              	.LASF88:
 4670 00f9 43504152 		.ascii	"CPAR\000"
 4670      00
 4671              	.LASF38:
ARM GAS  C:\Users\DEVELO~1\AppData\Local\Temp\ccqjbveV.s 			page 84


 4672 00fe 72656673 		.ascii	"refs\000"
 4672      00
 4673              	.LASF206:
 4674 0103 73706935 		.ascii	"spi5_mutex\000"
 4674      5F6D7574 
 4674      657800
 4675              	.LASF199:
 4676 010e 6572726F 		.ascii	"error_cb\000"
 4676      725F6362 
 4676      00
 4677              	.LASF177:
 4678 0117 696F6C69 		.ascii	"ioline_t\000"
 4678      6E655F74 
 4678      00
 4679              	.LASF52:
 4680 0120 76746C69 		.ascii	"vtlist\000"
 4680      737400
 4681              	.LASF109:
 4682 0127 706F7274 		.ascii	"port_context\000"
 4682      5F636F6E 
 4682      74657874 
 4682      00
 4683              	.LASF144:
 4684 0134 63685F72 		.ascii	"ch_ready_list\000"
 4684      65616479 
 4684      5F6C6973 
 4684      7400
 4685              	.LASF83:
 4686 0142 4E445452 		.ascii	"NDTR\000"
 4686      00
 4687              	.LASF126:
 4688 0147 6C617374 		.ascii	"laststamp\000"
 4688      7374616D 
 4688      7000
 4689              	.LASF141:
 4690 0151 65776D61 		.ascii	"ewmask\000"
 4690      736B00
 4691              	.LASF115:
 4692 0158 70726576 		.ascii	"prev\000"
 4692      00
 4693              	.LASF111:
 4694 015d 63685F6C 		.ascii	"ch_list\000"
 4694      69737400 
 4695              	.LASF185:
 4696 0165 53504944 		.ascii	"SPIDriver\000"
 4696      72697665 
 4696      7200
 4697              	.LASF71:
 4698 016f 77746F62 		.ascii	"wtobjp\000"
 4698      6A7000
 4699              	.LASF104:
 4700 0176 52584352 		.ascii	"RXCRC\000"
 4700      4300
 4701              	.LASF87:
 4702 017c 434E4454 		.ascii	"CNDTR\000"
 4702      5200
 4703              	.LASF64:
ARM GAS  C:\Users\DEVELO~1\AppData\Local\Temp\ccqjbveV.s 			page 85


 4704 0182 63685F73 		.ascii	"ch_system_debug\000"
 4704      79737465 
 4704      6D5F6465 
 4704      62756700 
 4705              	.LASF204:
 4706 0192 73706963 		.ascii	"spicb_t\000"
 4706      625F7400 
 4707              	.LASF133:
 4708 019a 6C697374 		.ascii	"list\000"
 4708      00
 4709              	.LASF120:
 4710 019f 63685F64 		.ascii	"ch_delta_list\000"
 4710      656C7461 
 4710      5F6C6973 
 4710      7400
 4711              	.LASF229:
 4712 01ad 474E5520 		.ascii	"GNU C17 11.3.1 20220712 -mcpu=cortex-m7 -mthumb -mf"
 4712      43313720 
 4712      31312E33 
 4712      2E312032 
 4712      30323230 
 4713 01e0 6C6F6174 		.ascii	"loat-abi=hard -mfpu=fpv5-d16 -march=armv7e-m+fp.dp "
 4713      2D616269 
 4713      3D686172 
 4713      64202D6D 
 4713      6670753D 
 4714 0213 2D676764 		.ascii	"-ggdb -O2 -ffunction-sections -fdata-sections -fno-"
 4714      62202D4F 
 4714      32202D66 
 4714      66756E63 
 4714      74696F6E 
 4715 0246 636F6D6D 		.ascii	"common\000"
 4715      6F6E00
 4716              	.LASF138:
 4717 024d 73656E74 		.ascii	"sentmsg\000"
 4717      6D736700 
 4718              	.LASF209:
 4719 0255 62757474 		.ascii	"buttons_mask\000"
 4719      6F6E735F 
 4719      6D61736B 
 4719      00
 4720              	.LASF29:
 4721 0262 6576656E 		.ascii	"eventmask_t\000"
 4721      746D6173 
 4721      6B5F7400 
 4722              	.LASF157:
 4723 026e 69666372 		.ascii	"ifcr\000"
 4723      00
 4724              	.LASF78:
 4725 0273 74726163 		.ascii	"trace_event_t\000"
 4725      655F6576 
 4725      656E745F 
 4725      7400
 4726              	.LASF188:
 4727 0281 6D757465 		.ascii	"mutex\000"
 4727      7800
 4728              	.LASF158:
ARM GAS  C:\Users\DEVELO~1\AppData\Local\Temp\ccqjbveV.s 			page 86


 4729 0287 73686966 		.ascii	"shift\000"
 4729      7400
 4730              	.LASF142:
 4731 028d 63685F73 		.ascii	"ch_semaphore\000"
 4731      656D6170 
 4731      686F7265 
 4731      00
 4732              	.LASF27:
 4733 029a 74707269 		.ascii	"tprio_t\000"
 4733      6F5F7400 
 4734              	.LASF224:
 4735 02a2 696E6465 		.ascii	"index\000"
 4735      7800
 4736              	.LASF152:
 4737 02a8 6F735F69 		.ascii	"os_instance_config_t\000"
 4737      6E737461 
 4737      6E63655F 
 4737      636F6E66 
 4737      69675F74 
 4738              	.LASF153:
 4739 02bd 7466756E 		.ascii	"tfunc_t\000"
 4739      635F7400 
 4740              	.LASF73:
 4741 02c5 68616C74 		.ascii	"halt\000"
 4741      00
 4742              	.LASF12:
 4743 02ca 6C6F6E67 		.ascii	"long long unsigned int\000"
 4743      206C6F6E 
 4743      6720756E 
 4743      7369676E 
 4743      65642069 
 4744              	.LASF72:
 4745 02e1 72656173 		.ascii	"reason\000"
 4745      6F6E00
 4746              	.LASF160:
 4747 02e8 76656374 		.ascii	"vector\000"
 4747      6F7200
 4748              	.LASF234:
 4749 02ef 6472765F 		.ascii	"drv_buttons_init\000"
 4749      62757474 
 4749      6F6E735F 
 4749      696E6974 
 4749      00
 4750              	.LASF134:
 4751 0300 70717565 		.ascii	"pqueue\000"
 4751      756500
 4752              	.LASF4:
 4753 0307 5F5F7569 		.ascii	"__uint16_t\000"
 4753      6E743136 
 4753      5F7400
 4754              	.LASF30:
 4755 0312 636E745F 		.ascii	"cnt_t\000"
 4755      7400
 4756              	.LASF221:
 4757 0318 5F70616C 		.ascii	"_pal_lld_setgroupmode\000"
 4757      5F6C6C64 
 4757      5F736574 
ARM GAS  C:\Users\DEVELO~1\AppData\Local\Temp\ccqjbveV.s 			page 87


 4757      67726F75 
 4757      706D6F64 
 4758              	.LASF23:
 4759 032e 73746B6C 		.ascii	"stkline_t\000"
 4759      696E655F 
 4759      7400
 4760              	.LASF200:
 4761 0338 7373706F 		.ascii	"ssport\000"
 4761      727400
 4762              	.LASF186:
 4763 033f 68616C5F 		.ascii	"hal_spi_driver\000"
 4763      7370695F 
 4763      64726976 
 4763      657200
 4764              	.LASF77:
 4765 034e 74696D65 		.ascii	"time\000"
 4765      00
 4766              	.LASF173:
 4767 0353 41465248 		.ascii	"AFRH\000"
 4767      00
 4768              	.LASF174:
 4769 0358 73746D33 		.ascii	"stm32_gpio_t\000"
 4769      325F6770 
 4769      696F5F74 
 4769      00
 4770              	.LASF33:
 4771 0365 6F776E65 		.ascii	"owner\000"
 4771      7200
 4772              	.LASF165:
 4773 036b 636C6561 		.ascii	"clear\000"
 4773      7200
 4774              	.LASF46:
 4775 0371 6D74786C 		.ascii	"mtxlist\000"
 4775      69737400 
 4776              	.LASF122:
 4777 0379 63685F76 		.ascii	"ch_virtual_timers_list\000"
 4777      69727475 
 4777      616C5F74 
 4777      696D6572 
 4777      735F6C69 
 4778              	.LASF55:
 4779 0390 72666375 		.ascii	"rfcu\000"
 4779      00
 4780              	.LASF32:
 4781 0395 74687265 		.ascii	"thread_t\000"
 4781      61645F74 
 4781      00
 4782              	.LASF215:
 4783 039e 73706953 		.ascii	"spiStart\000"
 4783      74617274 
 4783      00
 4784              	.LASF74:
 4785 03a7 75736572 		.ascii	"user\000"
 4785      00
 4786              	.LASF20:
 4787 03ac 73697A65 		.ascii	"size_t\000"
 4787      5F7400
ARM GAS  C:\Users\DEVELO~1\AppData\Local\Temp\ccqjbveV.s 			page 88


 4788              	.LASF135:
 4789 03b3 7264796D 		.ascii	"rdymsg\000"
 4789      736700
 4790              	.LASF100:
 4791 03ba 52584452 		.ascii	"RXDR\000"
 4791      00
 4792              	.LASF116:
 4793 03bf 63685F70 		.ascii	"ch_priority_queue_t\000"
 4793      72696F72 
 4793      6974795F 
 4793      71756575 
 4793      655F7400 
 4794              	.LASF155:
 4795 03d3 5F426F6F 		.ascii	"_Bool\000"
 4795      6C00
 4796              	.LASF166:
 4797 03d9 4D4F4445 		.ascii	"MODER\000"
 4797      5200
 4798              	.LASF42:
 4799 03df 6F626A65 		.ascii	"object\000"
 4799      637400
 4800              	.LASF61:
 4801 03e6 63685F72 		.ascii	"ch_rfcu\000"
 4801      66637500 
 4802              	.LASF143:
 4803 03ee 63685F6D 		.ascii	"ch_mutex\000"
 4803      75746578 
 4803      00
 4804              	.LASF194:
 4805 03f7 53504943 		.ascii	"SPIConfig\000"
 4805      6F6E6669 
 4805      6700
 4806              	.LASF84:
 4807 0401 4D304152 		.ascii	"M0AR\000"
 4807      00
 4808              	.LASF50:
 4809 0406 63685F6F 		.ascii	"ch_os_instance\000"
 4809      735F696E 
 4809      7374616E 
 4809      636500
 4810              	.LASF178:
 4811 0415 696F706F 		.ascii	"ioportid_t\000"
 4811      72746964 
 4811      5F7400
 4812              	.LASF169:
 4813 0420 50555044 		.ascii	"PUPDR\000"
 4813      5200
 4814              	.LASF197:
 4815 0426 736C6176 		.ascii	"slave\000"
 4815      6500
 4816              	.LASF118:
 4817 042c 7072696F 		.ascii	"prio\000"
 4817      00
 4818              	.LASF66:
 4819 0431 63686172 		.ascii	"char\000"
 4819      00
 4820              	.LASF119:
ARM GAS  C:\Users\DEVELO~1\AppData\Local\Temp\ccqjbveV.s 			page 89


 4821 0436 63685F64 		.ascii	"ch_delta_list_t\000"
 4821      656C7461 
 4821      5F6C6973 
 4821      745F7400 
 4822              	.LASF60:
 4823 0446 72666375 		.ascii	"rfcu_mask_t\000"
 4823      5F6D6173 
 4823      6B5F7400 
 4824              	.LASF6:
 4825 0452 5F5F696E 		.ascii	"__int32_t\000"
 4825      7433325F 
 4825      7400
 4826              	.LASF70:
 4827 045c 74696D65 		.ascii	"time_conv_t\000"
 4827      5F636F6E 
 4827      765F7400 
 4828              	.LASF191:
 4829 0468 7478646D 		.ascii	"txdmamode\000"
 4829      616D6F64 
 4829      6500
 4830              	.LASF34:
 4831 0472 77616261 		.ascii	"wabase\000"
 4831      736500
 4832              	.LASF231:
 4833 0479 433A5C43 		.ascii	"C:\\ChibiStudio\\ChibiOS-master\\demos\\STM32\\CUST"
 4833      68696269 
 4833      53747564 
 4833      696F5C43 
 4833      68696269 
 4834 04a7 4F4D5F48 		.ascii	"OM_H743IIT6_maj\000"
 4834      37343349 
 4834      4954365F 
 4834      6D616A00 
 4835              	.LASF210:
 4836 04b7 62757474 		.ascii	"buttons_tp\000"
 4836      6F6E735F 
 4836      747000
 4837              	.LASF25:
 4838 04c2 74737461 		.ascii	"tstate_t\000"
 4838      74655F74 
 4838      00
 4839              	.LASF40:
 4840 04cb 72717565 		.ascii	"rqueue\000"
 4840      756500
 4841              	.LASF161:
 4842 04d2 73746D33 		.ascii	"stm32_dma_stream_t\000"
 4842      325F646D 
 4842      615F7374 
 4842      7265616D 
 4842      5F7400
 4843              	.LASF11:
 4844 04e5 5F5F7569 		.ascii	"__uint64_t\000"
 4844      6E743634 
 4844      5F7400
 4845              	.LASF14:
 4846 04f0 75696E74 		.ascii	"uint8_t\000"
 4846      385F7400 
ARM GAS  C:\Users\DEVELO~1\AppData\Local\Temp\ccqjbveV.s 			page 90


 4847              	.LASF227:
 4848 04f8 63685468 		.ascii	"chThdShouldTerminateX\000"
 4848      6453686F 
 4848      756C6454 
 4848      65726D69 
 4848      6E617465 
 4849              	.LASF44:
 4850 050e 6D736771 		.ascii	"msgqueue\000"
 4850      75657565 
 4850      00
 4851              	.LASF103:
 4852 0517 54584352 		.ascii	"TXCRC\000"
 4852      4300
 4853              	.LASF49:
 4854 051d 63685F74 		.ascii	"ch_thread\000"
 4854      68726561 
 4854      6400
 4855              	.LASF98:
 4856 0527 54584452 		.ascii	"TXDR\000"
 4856      00
 4857              	.LASF35:
 4858 052c 7761656E 		.ascii	"waend\000"
 4858      6400
 4859              	.LASF67:
 4860 0532 73797374 		.ascii	"system_debug_t\000"
 4860      656D5F64 
 4860      65627567 
 4860      5F7400
 4861              	.LASF10:
 4862 0541 6C6F6E67 		.ascii	"long long int\000"
 4862      206C6F6E 
 4862      6720696E 
 4862      7400
 4863              	.LASF19:
 4864 054f 75696E74 		.ascii	"uint_fast8_t\000"
 4864      5F666173 
 4864      74385F74 
 4864      00
 4865              	.LASF212:
 4866 055c 63685468 		.ascii	"chThdTerminate\000"
 4866      64546572 
 4866      6D696E61 
 4866      746500
 4867              	.LASF213:
 4868 056b 63684D74 		.ascii	"chMtxUnlock\000"
 4868      78556E6C 
 4868      6F636B00 
 4869              	.LASF28:
 4870 0577 6D73675F 		.ascii	"msg_t\000"
 4870      7400
 4871              	.LASF225:
 4872 057d 62757474 		.ascii	"buttons_read_shiftreg\000"
 4872      6F6E735F 
 4872      72656164 
 4872      5F736869 
 4872      66747265 
 4873              	.LASF125:
ARM GAS  C:\Users\DEVELO~1\AppData\Local\Temp\ccqjbveV.s 			page 91


 4874 0593 6C617374 		.ascii	"lastdelta\000"
 4874      64656C74 
 4874      6100
 4875              	.LASF211:
 4876 059d 77614275 		.ascii	"waButtons\000"
 4876      74746F6E 
 4876      7300
 4877              	.LASF175:
 4878 05a7 696F706F 		.ascii	"ioportmask_t\000"
 4878      72746D61 
 4878      736B5F74 
 4878      00
 4879              	.LASF222:
 4880 05b4 6472765F 		.ascii	"drv_buttons_stop\000"
 4880      62757474 
 4880      6F6E735F 
 4880      73746F70 
 4880      00
 4881              	.LASF91:
 4882 05c5 42444D41 		.ascii	"BDMA_Channel_TypeDef\000"
 4882      5F436861 
 4882      6E6E656C 
 4882      5F547970 
 4882      65446566 
 4883              	.LASF130:
 4884 05da 72656769 		.ascii	"registry_t\000"
 4884      73747279 
 4884      5F7400
 4885              	.LASF86:
 4886 05e5 444D415F 		.ascii	"DMA_Stream_TypeDef\000"
 4886      53747265 
 4886      616D5F54 
 4886      79706544 
 4886      656600
 4887              	.LASF80:
 4888 05f8 73697A65 		.ascii	"size\000"
 4888      00
 4889              	.LASF151:
 4890 05fd 69646C65 		.ascii	"idlestack_end\000"
 4890      73746163 
 4890      6B5F656E 
 4890      6400
 4891              	.LASF62:
 4892 060b 6D61736B 		.ascii	"mask\000"
 4892      00
 4893              	.LASF223:
 4894 0610 6472765F 		.ascii	"drv_buttons_start\000"
 4894      62757474 
 4894      6F6E735F 
 4894      73746172 
 4894      7400
 4895              	.LASF195:
 4896 0622 68616C5F 		.ascii	"hal_spi_config\000"
 4896      7370695F 
 4896      636F6E66 
 4896      696700
 4897              	.LASF132:
ARM GAS  C:\Users\DEVELO~1\AppData\Local\Temp\ccqjbveV.s 			page 92


 4898 0631 74687265 		.ascii	"thread_dispose_t\000"
 4898      61645F64 
 4898      6973706F 
 4898      73655F74 
 4898      00
 4899              	.LASF69:
 4900 0642 73797369 		.ascii	"sysinterval_t\000"
 4900      6E746572 
 4900      76616C5F 
 4900      7400
 4901              	.LASF113:
 4902 0650 63685F71 		.ascii	"ch_queue_t\000"
 4902      75657565 
 4902      5F7400
 4903              	.LASF219:
 4904 065b 63685468 		.ascii	"chThdCreateStatic\000"
 4904      64437265 
 4904      61746553 
 4904      74617469 
 4904      6300
 4905              	.LASF150:
 4906 066d 69646C65 		.ascii	"idlestack_base\000"
 4906      73746163 
 4906      6B5F6261 
 4906      736500
 4907              	.LASF82:
 4908 067c 74726163 		.ascii	"trace_buffer_t\000"
 4908      655F6275 
 4908      66666572 
 4908      5F7400
 4909              	.LASF235:
 4910 068b 62757474 		.ascii	"buttonThread\000"
 4910      6F6E5468 
 4910      72656164 
 4910      00
 4911              	.LASF24:
 4912 0698 746D6F64 		.ascii	"tmode_t\000"
 4912      655F7400 
 4913              	.LASF57:
 4914 06a0 69646C65 		.ascii	"idlethread\000"
 4914      74687265 
 4914      616400
 4915              	.LASF168:
 4916 06ab 4F535045 		.ascii	"OSPEEDR\000"
 4916      45445200 
 4917              	.LASF171:
 4918 06b3 4C4F434B 		.ascii	"LOCKR\000"
 4918      5200
 4919              	.LASF21:
 4920 06b9 6C6F6E67 		.ascii	"long double\000"
 4920      20646F75 
 4920      626C6500 
 4921              	.LASF15:
 4922 06c5 75696E74 		.ascii	"uint16_t\000"
 4922      31365F74 
 4922      00
 4923              	.LASF131:
ARM GAS  C:\Users\DEVELO~1\AppData\Local\Temp\ccqjbveV.s 			page 93


 4924 06ce 74687265 		.ascii	"thread_reference_t\000"
 4924      61645F72 
 4924      65666572 
 4924      656E6365 
 4924      5F7400
 4925              	.LASF110:
 4926 06e1 63685F6C 		.ascii	"ch_list_t\000"
 4926      6973745F 
 4926      7400
 4927              	.LASF179:
 4928 06eb 5350495F 		.ascii	"SPI_UNINIT\000"
 4928      554E494E 
 4928      495400
 4929              	.LASF163:
 4930 06f6 6368616E 		.ascii	"channel\000"
 4930      6E656C00 
 4931              	.LASF205:
 4932 06fe 53504944 		.ascii	"SPID5\000"
 4932      3500
 4933              	.LASF56:
 4934 0704 636F6E66 		.ascii	"config\000"
 4934      696700
 4935              	.LASF220:
 4936 070b 63685468 		.ascii	"chThdWait\000"
 4936      64576169 
 4936      7400
 4937              	.LASF154:
 4938 0715 6D757465 		.ascii	"mutex_t\000"
 4938      785F7400 
 4939              	.LASF94:
 4940 071d 444D414D 		.ascii	"DMAMUX_Channel_TypeDef\000"
 4940      55585F43 
 4940      68616E6E 
 4940      656C5F54 
 4940      79706544 
 4941              	.LASF97:
 4942 0734 52455345 		.ascii	"RESERVED0\000"
 4942      52564544 
 4942      3000
 4943              	.LASF99:
 4944 073e 52455345 		.ascii	"RESERVED1\000"
 4944      52564544 
 4944      3100
 4945              	.LASF101:
 4946 0748 52455345 		.ascii	"RESERVED2\000"
 4946      52564544 
 4946      3200
 4947              	.LASF2:
 4948 0752 73686F72 		.ascii	"short int\000"
 4948      7420696E 
 4948      7400
 4949              	.LASF108:
 4950 075c 706F7274 		.ascii	"port_intctx\000"
 4950      5F696E74 
 4950      63747800 
 4951              	.LASF184:
 4952 0768 73706973 		.ascii	"spistate_t\000"
ARM GAS  C:\Users\DEVELO~1\AppData\Local\Temp\ccqjbveV.s 			page 94


 4952      74617465 
 4952      5F7400
 4953              	.LASF102:
 4954 0773 43524350 		.ascii	"CRCPOLY\000"
 4954      4F4C5900 
 4955              	.LASF95:
 4956 077b 43464731 		.ascii	"CFG1\000"
 4956      00
 4957              	.LASF96:
 4958 0780 43464732 		.ascii	"CFG2\000"
 4958      00
 4959              	.LASF233:
 4960 0785 6472765F 		.ascii	"drv_button_get\000"
 4960      62757474 
 4960      6F6E5F67 
 4960      657400
 4961              	.LASF105:
 4962 0794 55445244 		.ascii	"UDRDR\000"
 4962      5200
 4963              	.LASF167:
 4964 079a 4F545950 		.ascii	"OTYPER\000"
 4964      455200
 4965              	.LASF149:
 4966 07a1 63737461 		.ascii	"cstack_end\000"
 4966      636B5F65 
 4966      6E6400
 4967              	.LASF147:
 4968 07ac 63685F6F 		.ascii	"ch_os_instance_config\000"
 4968      735F696E 
 4968      7374616E 
 4968      63655F63 
 4968      6F6E6669 
 4969              	.LASF123:
 4970 07c2 646C6973 		.ascii	"dlist\000"
 4970      7400
 4971              	.LASF90:
 4972 07c8 434D3141 		.ascii	"CM1AR\000"
 4972      5200
 4973              	.LASF193:
 4974 07ce 7478736F 		.ascii	"txsource\000"
 4974      75726365 
 4974      00
 4975              	.LASF124:
 4976 07d7 6C617374 		.ascii	"lasttime\000"
 4976      74696D65 
 4976      00
 4977              	.LASF51:
 4978 07e0 726C6973 		.ascii	"rlist\000"
 4978      7400
 4979              	.LASF198:
 4980 07e6 64617461 		.ascii	"data_cb\000"
 4980      5F636200 
 4981              	.LASF181:
 4982 07ee 5350495F 		.ascii	"SPI_READY\000"
 4982      52454144 
 4982      5900
 4983              	.LASF3:
ARM GAS  C:\Users\DEVELO~1\AppData\Local\Temp\ccqjbveV.s 			page 95


 4984 07f8 5F5F7569 		.ascii	"__uint8_t\000"
 4984      6E74385F 
 4984      7400
 4985              	.LASF232:
 4986 0802 6472765F 		.ascii	"drv_buttons_get_mask\000"
 4986      62757474 
 4986      6F6E735F 
 4986      6765745F 
 4986      6D61736B 
 4987              	.LASF39:
 4988 0817 6E616D65 		.ascii	"name\000"
 4988      00
 4989              	.LASF85:
 4990 081c 4D314152 		.ascii	"M1AR\000"
 4990      00
 4991              	.LASF26:
 4992 0821 74726566 		.ascii	"trefs_t\000"
 4992      735F7400 
 4993              	.LASF9:
 4994 0829 6C6F6E67 		.ascii	"long unsigned int\000"
 4994      20756E73 
 4994      69676E65 
 4994      6420696E 
 4994      7400
 4995              	.LASF146:
 4996 083b 72656164 		.ascii	"ready_list_t\000"
 4996      795F6C69 
 4996      73745F74 
 4996      00
 4997              	.LASF76:
 4998 0848 72747374 		.ascii	"rtstamp\000"
 4998      616D7000 
 4999              	.LASF180:
 5000 0850 5350495F 		.ascii	"SPI_STOP\000"
 5000      53544F50 
 5000      00
 5001              	.LASF16:
 5002 0859 696E7433 		.ascii	"int32_t\000"
 5002      325F7400 
 5003              	.LASF63:
 5004 0861 72666375 		.ascii	"rfcu_t\000"
 5004      5F7400
 5005              	.LASF129:
 5006 0868 71756575 		.ascii	"queue\000"
 5006      6500
 5007              	.LASF59:
 5008 086e 74726163 		.ascii	"trace_buffer\000"
 5008      655F6275 
 5008      66666572 
 5008      00
 5009              	.LASF139:
 5010 087b 77747365 		.ascii	"wtsemp\000"
 5010      6D7000
 5011              	.LASF117:
 5012 0882 63685F70 		.ascii	"ch_priority_queue\000"
 5012      72696F72 
 5012      6974795F 
ARM GAS  C:\Users\DEVELO~1\AppData\Local\Temp\ccqjbveV.s 			page 96


 5012      71756575 
 5012      6500
 5013              	.LASF114:
 5014 0894 63685F71 		.ascii	"ch_queue\000"
 5014      75657565 
 5014      00
 5015              	.LASF182:
 5016 089d 5350495F 		.ascii	"SPI_ACTIVE\000"
 5016      41435449 
 5016      564500
 5017              	.LASF75:
 5018 08a8 74797065 		.ascii	"type\000"
 5018      00
 5019              	.LASF1:
 5020 08ad 756E7369 		.ascii	"unsigned char\000"
 5020      676E6564 
 5020      20636861 
 5020      7200
 5021              	.LASF172:
 5022 08bb 4146524C 		.ascii	"AFRL\000"
 5022      00
 5023              	.LASF8:
 5024 08c0 5F5F7569 		.ascii	"__uint32_t\000"
 5024      6E743332 
 5024      5F7400
 5025              	.LASF43:
 5026 08cb 77616974 		.ascii	"waiting\000"
 5026      696E6700 
 5027              	.LASF127:
 5028 08d3 76697274 		.ascii	"virtual_timers_list_t\000"
 5028      75616C5F 
 5028      74696D65 
 5028      72735F6C 
 5028      6973745F 
 5029              	.LASF65:
 5030 08e9 70616E69 		.ascii	"panic_msg\000"
 5030      635F6D73 
 5030      6700
 5031              	.LASF190:
 5032 08f3 7278646D 		.ascii	"rxdmamode\000"
 5032      616D6F64 
 5032      6500
 5033              	.LASF218:
 5034 08fd 63685468 		.ascii	"chThdSleep\000"
 5034      64536C65 
 5034      657000
 5035              	.LASF214:
 5036 0908 73706952 		.ascii	"spiReceive\000"
 5036      65636569 
 5036      766500
 5037              	.LASF106:
 5038 0913 49325343 		.ascii	"I2SCFGR\000"
 5038      46475200 
 5039              	.LASF58:
 5040 091b 6D61696E 		.ascii	"mainthread\000"
 5040      74687265 
 5040      616400
ARM GAS  C:\Users\DEVELO~1\AppData\Local\Temp\ccqjbveV.s 			page 97


 5041              	.LASF36:
 5042 0926 73746174 		.ascii	"state\000"
 5042      6500
 5043              	.LASF208:
 5044 092c 62757474 		.ascii	"buttons_raw\000"
 5044      6F6E735F 
 5044      72617700 
 5045              	.LASF107:
 5046 0938 5350495F 		.ascii	"SPI_TypeDef\000"
 5046      54797065 
 5046      44656600 
 5047              	.LASF48:
 5048 0944 6F735F69 		.ascii	"os_instance_t\000"
 5048      6E737461 
 5048      6E63655F 
 5048      7400
 5049              	.LASF18:
 5050 0952 75696E74 		.ascii	"uint64_t\000"
 5050      36345F74 
 5050      00
 5051              	.LASF53:
 5052 095b 7265676C 		.ascii	"reglist\000"
 5052      69737400 
 5053              	.LASF176:
 5054 0963 696F6D6F 		.ascii	"iomode_t\000"
 5054      64655F74 
 5054      00
 5055              	.LASF0:
 5056 096c 7369676E 		.ascii	"signed char\000"
 5056      65642063 
 5056      68617200 
 5057              	.LASF121:
 5058 0978 64656C74 		.ascii	"delta\000"
 5058      6100
 5059              	.LASF89:
 5060 097e 434D3041 		.ascii	"CM0AR\000"
 5060      5200
 5061              	.LASF5:
 5062 0984 73686F72 		.ascii	"short unsigned int\000"
 5062      7420756E 
 5062      7369676E 
 5062      65642069 
 5062      6E7400
 5063              	.LASF92:
 5064 0997 49464352 		.ascii	"IFCR\000"
 5064      00
 5065              	.LASF187:
 5066 099c 73796E63 		.ascii	"sync_transfer\000"
 5066      5F747261 
 5066      6E736665 
 5066      7200
 5067              	.LASF145:
 5068 09aa 63757272 		.ascii	"current\000"
 5068      656E7400 
 5069              	.LASF228:
 5070 09b2 63685468 		.ascii	"chThdGetSelfX\000"
 5070      64476574 
ARM GAS  C:\Users\DEVELO~1\AppData\Local\Temp\ccqjbveV.s 			page 98


 5070      53656C66 
 5070      5800
 5071              	.LASF207:
 5072 09c0 73706963 		.ascii	"spicfg_buttons\000"
 5072      66675F62 
 5072      7574746F 
 5072      6E7300
 5073              	.LASF217:
 5074 09cf 63685468 		.ascii	"chThdExit\000"
 5074      64457869 
 5074      7400
 5075              	.LASF202:
 5076 09d9 63666731 		.ascii	"cfg1\000"
 5076      00
 5077              	.LASF203:
 5078 09de 63666732 		.ascii	"cfg2\000"
 5078      00
 5079              	.LASF189:
 5080 09e3 69735F62 		.ascii	"is_bdma\000"
 5080      646D6100 
 5081              	.LASF164:
 5082 09eb 73746D33 		.ascii	"stm32_bdma_stream_t\000"
 5082      325F6264 
 5082      6D615F73 
 5082      74726561 
 5082      6D5F7400 
 5083              	.LASF137:
 5084 09ff 77747472 		.ascii	"wttrp\000"
 5084      7000
 5085              	.LASF192:
 5086 0a05 72787369 		.ascii	"rxsink\000"
 5086      6E6B00
 5087              	.LASF183:
 5088 0a0c 5350495F 		.ascii	"SPI_COMPLETE\000"
 5088      434F4D50 
 5088      4C455445 
 5088      00
 5089              	.LASF136:
 5090 0a19 65786974 		.ascii	"exitcode\000"
 5090      636F6465 
 5090      00
 5091              	.LASF159:
 5092 0a22 73656C66 		.ascii	"selfindex\000"
 5092      696E6465 
 5092      7800
 5093              	.LASF31:
 5094 0a2c 636F7265 		.ascii	"core_id_t\000"
 5094      5F69645F 
 5094      7400
 5095              	.LASF156:
 5096 0a36 73747265 		.ascii	"stream\000"
 5096      616D00
 5097              	.LASF201:
 5098 0a3d 73737061 		.ascii	"sspad\000"
 5098      6400
 5099              		.ident	"GCC: (Arm GNU Toolchain 11.3.Rel1) 11.3.1 20220712"
ARM GAS  C:\Users\DEVELO~1\AppData\Local\Temp\ccqjbveV.s 			page 99


DEFINED SYMBOLS
                            *ABS*:00000000 drv_buttons.c
C:\Users\DEVELO~1\AppData\Local\Temp\ccqjbveV.s:19     .rodata.buttonThread.str1.4:00000000 $d
C:\Users\DEVELO~1\AppData\Local\Temp\ccqjbveV.s:23     .text.buttonThread:00000000 $t
C:\Users\DEVELO~1\AppData\Local\Temp\ccqjbveV.s:29     .text.buttonThread:00000000 buttonThread
C:\Users\DEVELO~1\AppData\Local\Temp\ccqjbveV.s:249    .text.buttonThread:000000a4 $d
C:\Users\DEVELO~1\AppData\Local\Temp\ccqjbveV.s:262    .text.drv_buttons_init:00000000 $t
C:\Users\DEVELO~1\AppData\Local\Temp\ccqjbveV.s:269    .text.drv_buttons_init:00000000 drv_buttons_init
C:\Users\DEVELO~1\AppData\Local\Temp\ccqjbveV.s:296    .text.drv_buttons_init:00000014 $d
C:\Users\DEVELO~1\AppData\Local\Temp\ccqjbveV.s:301    .text.drv_buttons_start:00000000 $t
C:\Users\DEVELO~1\AppData\Local\Temp\ccqjbveV.s:308    .text.drv_buttons_start:00000000 drv_buttons_start
C:\Users\DEVELO~1\AppData\Local\Temp\ccqjbveV.s:403    .text.drv_buttons_start:00000044 $d
C:\Users\DEVELO~1\AppData\Local\Temp\ccqjbveV.s:411    .text.drv_buttons_stop:00000000 $t
C:\Users\DEVELO~1\AppData\Local\Temp\ccqjbveV.s:418    .text.drv_buttons_stop:00000000 drv_buttons_stop
C:\Users\DEVELO~1\AppData\Local\Temp\ccqjbveV.s:452    .text.drv_buttons_stop:00000018 $d
C:\Users\DEVELO~1\AppData\Local\Temp\ccqjbveV.s:457    .text.drv_button_get:00000000 $t
C:\Users\DEVELO~1\AppData\Local\Temp\ccqjbveV.s:464    .text.drv_button_get:00000000 drv_button_get
C:\Users\DEVELO~1\AppData\Local\Temp\ccqjbveV.s:495    .text.drv_button_get:00000018 $d
C:\Users\DEVELO~1\AppData\Local\Temp\ccqjbveV.s:500    .text.drv_buttons_get_mask:00000000 $t
C:\Users\DEVELO~1\AppData\Local\Temp\ccqjbveV.s:507    .text.drv_buttons_get_mask:00000000 drv_buttons_get_mask
C:\Users\DEVELO~1\AppData\Local\Temp\ccqjbveV.s:523    .text.drv_buttons_get_mask:00000008 $d
C:\Users\DEVELO~1\AppData\Local\Temp\ccqjbveV.s:528    .rodata:00000000 $d
C:\Users\DEVELO~1\AppData\Local\Temp\ccqjbveV.s:534    .bss.buttons_mask:00000000 $d
C:\Users\DEVELO~1\AppData\Local\Temp\ccqjbveV.s:538    .bss.buttons_mask:00000000 buttons_mask
C:\Users\DEVELO~1\AppData\Local\Temp\ccqjbveV.s:541    .bss.buttons_raw:00000000 $d
C:\Users\DEVELO~1\AppData\Local\Temp\ccqjbveV.s:545    .bss.buttons_raw:00000000 buttons_raw
C:\Users\DEVELO~1\AppData\Local\Temp\ccqjbveV.s:548    .bss.buttons_tp:00000000 $d
C:\Users\DEVELO~1\AppData\Local\Temp\ccqjbveV.s:552    .bss.buttons_tp:00000000 buttons_tp
C:\Users\DEVELO~1\AppData\Local\Temp\ccqjbveV.s:555    .bss.waButtons:00000000 $d
C:\Users\DEVELO~1\AppData\Local\Temp\ccqjbveV.s:559    .bss.waButtons:00000000 waButtons
C:\Users\DEVELO~1\AppData\Local\Temp\ccqjbveV.s:562    .rodata.spicfg_buttons:00000000 $d
C:\Users\DEVELO~1\AppData\Local\Temp\ccqjbveV.s:566    .rodata.spicfg_buttons:00000000 spicfg_buttons

UNDEFINED SYMBOLS
chMtxLock
spiStart
spiReceive
chMtxUnlock
chThdSleep
chThdExit
spi5_mutex
SPID5
ch0
_pal_lld_setgroupmode
chThdWait
chThdCreateStatic
chThdTerminate
