ARM GAS  C:\Users\DEVELO~1\AppData\Local\Temp\ccab9Nj4.s 			page 1


   1              		.cpu cortex-m7
   2              		.arch armv7e-m
   3              		.fpu fpv5-d16
   4              		.eabi_attribute 28, 1
   5              		.eabi_attribute 20, 1
   6              		.eabi_attribute 21, 1
   7              		.eabi_attribute 23, 3
   8              		.eabi_attribute 24, 1
   9              		.eabi_attribute 25, 1
  10              		.eabi_attribute 26, 1
  11              		.eabi_attribute 30, 2
  12              		.eabi_attribute 34, 1
  13              		.eabi_attribute 18, 4
  14              		.file	"drv_encoders.c"
  15              		.text
  16              	.Ltext0:
  17              		.cfi_sections	.debug_frame
  18              		.section	.text.drv_encoders_start,"ax",%progbits
  19              		.align	1
  20              		.p2align 2,,3
  21              		.global	drv_encoders_start
  22              		.syntax unified
  23              		.thumb
  24              		.thumb_func
  25              		.type	drv_encoders_start, %function
  26              	drv_encoders_start:
  27              	.LFB451:
  28              		.file 1 "drivers/drv_encoders.c"
  29              		.loc 1 74 31 view -0
  30              		.cfi_startproc
  31              		@ args = 0, pretend = 0, frame = 0
  32              		@ frame_needed = 0, uses_anonymous_args = 0
  33              		@ link register save eliminated.
  34              		.loc 1 76 5 view .LVU1
  35              		.loc 1 76 9 is_stmt 0 view .LVU2
  36 0000 4448     		ldr	r0, .L9
  37              		.loc 1 76 8 view .LVU3
  38 0002 0378     		ldrb	r3, [r0]	@ zero_extendqisi2
  39 0004 03B1     		cbz	r3, .L8
  40 0006 7047     		bx	lr
  41              	.L8:
  42              		.loc 1 79 5 is_stmt 1 view .LVU4
  43              	.LBB48:
  44              	.LBI48:
  45              		.loc 1 33 13 view .LVU5
  46              		.loc 1 34 5 view .LVU6
  47              	.LVL0:
  48              	.LBB49:
  49              	.LBI49:
  50              		.file 2 "./docs/ChibiOS/os/hal/ports/STM32/STM32H7xx/stm32_rcc.h"
  51              		.loc 2 141 22 view .LVU7
  52              	.LBB50:
  53              		.loc 2 145 3 view .LVU8
  54              		.loc 2 145 20 is_stmt 0 view .LVU9
  55 0008 434A     		ldr	r2, .L9+4
  56              	.LBE50:
  57              	.LBE49:
ARM GAS  C:\Users\DEVELO~1\AppData\Local\Temp\ccab9Nj4.s 			page 2


  58              	.LBE48:
  59              	.LBB63:
  60              	.LBB64:
  61              		.loc 1 47 14 view .LVU10
  62 000a 4449     		ldr	r1, .L9+8
  63              	.LBE64:
  64              	.LBE63:
  65              		.loc 1 74 31 view .LVU11
  66 000c 70B4     		push	{r4, r5, r6}
  67              		.cfi_def_cfa_offset 12
  68              		.cfi_offset 4, -12
  69              		.cfi_offset 5, -8
  70              		.cfi_offset 6, -4
  71              	.LBB68:
  72              	.LBB53:
  73              	.LBB51:
  74              		.loc 2 145 20 view .LVU12
  75 000e D2F8E840 		ldr	r4, [r2, #232]
  76              	.LBE51:
  77              	.LBE53:
  78              	.LBE68:
  79              	.LBB69:
  80              	.LBB65:
  81              		.loc 1 50 14 view .LVU13
  82 0012 4FF6FF76 		movw	r6, #65535
  83              		.loc 1 53 16 view .LVU14
  84 0016 40F20115 		movw	r5, #257
  85              	.LBE65:
  86              	.LBE69:
  87              	.LBB70:
  88              	.LBB54:
  89              	.LBB52:
  90              		.loc 2 145 20 view .LVU15
  91 001a 44F00104 		orr	r4, r4, #1
  92 001e C2F8E840 		str	r4, [r2, #232]
  93              		.loc 2 146 3 is_stmt 1 view .LVU16
  94              		.loc 2 147 5 view .LVU17
  95              		.loc 2 147 24 is_stmt 0 view .LVU18
  96 0022 D2F81041 		ldr	r4, [r2, #272]
  97 0026 44F00104 		orr	r4, r4, #1
  98 002a C2F81041 		str	r4, [r2, #272]
  99              		.loc 2 152 3 is_stmt 1 view .LVU19
 100 002e D2F81041 		ldr	r4, [r2, #272]
 101              	.LVL1:
 102              		.loc 2 152 3 is_stmt 0 view .LVU20
 103              	.LBE52:
 104              	.LBE54:
 105              		.loc 1 35 5 is_stmt 1 view .LVU21
 106              	.LBB55:
 107              	.LBI55:
 108              		.loc 2 141 22 view .LVU22
 109              	.LBB56:
 110              		.loc 2 145 3 view .LVU23
 111              		.loc 2 145 20 is_stmt 0 view .LVU24
 112 0032 D2F8E840 		ldr	r4, [r2, #232]
 113 0036 44F00204 		orr	r4, r4, #2
 114 003a C2F8E840 		str	r4, [r2, #232]
ARM GAS  C:\Users\DEVELO~1\AppData\Local\Temp\ccab9Nj4.s 			page 3


 115              		.loc 2 146 3 is_stmt 1 view .LVU25
 116              		.loc 2 147 5 view .LVU26
 117              		.loc 2 147 24 is_stmt 0 view .LVU27
 118 003e D2F81041 		ldr	r4, [r2, #272]
 119 0042 44F00204 		orr	r4, r4, #2
 120 0046 C2F81041 		str	r4, [r2, #272]
 121              		.loc 2 152 3 is_stmt 1 view .LVU28
 122 004a D2F81041 		ldr	r4, [r2, #272]
 123              	.LVL2:
 124              		.loc 2 152 3 is_stmt 0 view .LVU29
 125              	.LBE56:
 126              	.LBE55:
 127              		.loc 1 36 5 is_stmt 1 view .LVU30
 128              	.LBB57:
 129              	.LBI57:
 130              		.loc 2 141 22 view .LVU31
 131              	.LBB58:
 132              		.loc 2 145 3 view .LVU32
 133              		.loc 2 145 20 is_stmt 0 view .LVU33
 134 004e D2F8E840 		ldr	r4, [r2, #232]
 135 0052 44F00404 		orr	r4, r4, #4
 136 0056 C2F8E840 		str	r4, [r2, #232]
 137              		.loc 2 146 3 is_stmt 1 view .LVU34
 138              		.loc 2 147 5 view .LVU35
 139              		.loc 2 147 24 is_stmt 0 view .LVU36
 140 005a D2F81041 		ldr	r4, [r2, #272]
 141 005e 44F00404 		orr	r4, r4, #4
 142 0062 C2F81041 		str	r4, [r2, #272]
 143              		.loc 2 152 3 is_stmt 1 view .LVU37
 144 0066 D2F81041 		ldr	r4, [r2, #272]
 145              	.LVL3:
 146              		.loc 2 152 3 is_stmt 0 view .LVU38
 147              	.LBE58:
 148              	.LBE57:
 149              		.loc 1 37 5 is_stmt 1 view .LVU39
 150              	.LBB59:
 151              	.LBI59:
 152              		.loc 2 141 22 view .LVU40
 153              	.LBB60:
 154              		.loc 2 145 3 view .LVU41
 155              		.loc 2 145 20 is_stmt 0 view .LVU42
 156 006a D2F8E840 		ldr	r4, [r2, #232]
 157 006e 44F00804 		orr	r4, r4, #8
 158 0072 C2F8E840 		str	r4, [r2, #232]
 159              		.loc 2 146 3 is_stmt 1 view .LVU43
 160              		.loc 2 147 5 view .LVU44
 161              		.loc 2 147 24 is_stmt 0 view .LVU45
 162 0076 D2F81041 		ldr	r4, [r2, #272]
 163 007a 44F00804 		orr	r4, r4, #8
 164 007e C2F81041 		str	r4, [r2, #272]
 165              		.loc 2 152 3 is_stmt 1 view .LVU46
 166              	.LBE60:
 167              	.LBE59:
 168              	.LBE70:
 169              	.LBB71:
 170              	.LBB66:
 171              		.loc 1 61 15 is_stmt 0 view .LVU47
ARM GAS  C:\Users\DEVELO~1\AppData\Local\Temp\ccab9Nj4.s 			page 4


 172 0082 0324     		movs	r4, #3
 173              	.LBE66:
 174              	.LBE71:
 175              	.LBB72:
 176              	.LBB62:
 177              	.LBB61:
 178              		.loc 2 152 3 view .LVU48
 179 0084 D2F81021 		ldr	r2, [r2, #272]
 180              	.LVL4:
 181              		.loc 2 152 3 view .LVU49
 182              	.LBE61:
 183              	.LBE62:
 184              	.LBE72:
 185              		.loc 1 81 5 is_stmt 1 view .LVU50
 186              	.LBB73:
 187              	.LBI63:
 188              		.loc 1 44 13 view .LVU51
 189              	.LBB67:
 190              		.loc 1 47 5 view .LVU52
 191              		.loc 1 47 14 is_stmt 0 view .LVU53
 192 0088 0B60     		str	r3, [r1]
 193              		.loc 1 48 5 is_stmt 1 view .LVU54
 194              		.loc 1 48 14 is_stmt 0 view .LVU55
 195 008a 4B62     		str	r3, [r1, #36]
 196              		.loc 1 49 5 is_stmt 1 view .LVU56
 197              		.loc 1 49 14 is_stmt 0 view .LVU57
 198 008c 8B62     		str	r3, [r1, #40]
 199              		.loc 1 50 5 is_stmt 1 view .LVU58
 200              		.loc 1 50 14 is_stmt 0 view .LVU59
 201 008e CE62     		str	r6, [r1, #44]
 202              		.loc 1 53 5 is_stmt 1 view .LVU60
 203              		.loc 1 53 16 is_stmt 0 view .LVU61
 204 0090 8D61     		str	r5, [r1, #24]
 205              		.loc 1 58 5 is_stmt 1 view .LVU62
 206              		.loc 1 58 15 is_stmt 0 view .LVU63
 207 0092 0B62     		str	r3, [r1, #32]
 208              		.loc 1 61 5 is_stmt 1 view .LVU64
 209              		.loc 1 61 15 is_stmt 0 view .LVU65
 210 0094 8C60     		str	r4, [r1, #8]
 211              		.loc 1 64 5 is_stmt 1 view .LVU66
 212              		.loc 1 64 13 is_stmt 0 view .LVU67
 213 0096 0B61     		str	r3, [r1, #16]
 214              		.loc 1 67 5 is_stmt 1 view .LVU68
 215              		.loc 1 67 14 is_stmt 0 view .LVU69
 216 0098 0A68     		ldr	r2, [r1]
 217 009a 42F00102 		orr	r2, r2, #1
 218 009e 0A60     		str	r2, [r1]
 219              	.LVL5:
 220              		.loc 1 67 14 view .LVU70
 221              	.LBE67:
 222              	.LBE73:
 223              		.loc 1 82 5 is_stmt 1 view .LVU71
 224              	.LBB74:
 225              	.LBI74:
 226              		.loc 1 44 13 view .LVU72
 227              	.LBB75:
 228              		.loc 1 47 5 view .LVU73
ARM GAS  C:\Users\DEVELO~1\AppData\Local\Temp\ccab9Nj4.s 			page 5


 229              		.loc 1 47 14 is_stmt 0 view .LVU74
 230 00a0 4FF08042 		mov	r2, #1073741824
 231 00a4 1360     		str	r3, [r2]
 232              		.loc 1 48 5 is_stmt 1 view .LVU75
 233              		.loc 1 48 14 is_stmt 0 view .LVU76
 234 00a6 5362     		str	r3, [r2, #36]
 235              		.loc 1 49 5 is_stmt 1 view .LVU77
 236              		.loc 1 49 14 is_stmt 0 view .LVU78
 237 00a8 9362     		str	r3, [r2, #40]
 238              		.loc 1 50 5 is_stmt 1 view .LVU79
 239              		.loc 1 50 14 is_stmt 0 view .LVU80
 240 00aa D662     		str	r6, [r2, #44]
 241              		.loc 1 53 5 is_stmt 1 view .LVU81
 242              		.loc 1 53 16 is_stmt 0 view .LVU82
 243 00ac 9561     		str	r5, [r2, #24]
 244              		.loc 1 58 5 is_stmt 1 view .LVU83
 245              		.loc 1 58 15 is_stmt 0 view .LVU84
 246 00ae 1362     		str	r3, [r2, #32]
 247              		.loc 1 61 5 is_stmt 1 view .LVU85
 248              		.loc 1 61 15 is_stmt 0 view .LVU86
 249 00b0 9460     		str	r4, [r2, #8]
 250              		.loc 1 64 5 is_stmt 1 view .LVU87
 251              		.loc 1 64 13 is_stmt 0 view .LVU88
 252 00b2 1361     		str	r3, [r2, #16]
 253              		.loc 1 67 5 is_stmt 1 view .LVU89
 254              		.loc 1 67 14 is_stmt 0 view .LVU90
 255 00b4 1168     		ldr	r1, [r2]
 256 00b6 41F00101 		orr	r1, r1, #1
 257 00ba 1160     		str	r1, [r2]
 258              	.LVL6:
 259              		.loc 1 67 14 view .LVU91
 260              	.LBE75:
 261              	.LBE74:
 262              		.loc 1 83 5 is_stmt 1 view .LVU92
 263              	.LBB76:
 264              	.LBI76:
 265              		.loc 1 44 13 view .LVU93
 266              	.LBB77:
 267              		.loc 1 47 5 view .LVU94
 268              	.LBE77:
 269              	.LBE76:
 270              	.LBB79:
 271              	.LBB80:
 272              		.loc 1 47 14 is_stmt 0 view .LVU95
 273 00bc 02F50062 		add	r2, r2, #2048
 274              	.LBE80:
 275              	.LBE79:
 276              	.LBB84:
 277              	.LBB78:
 278 00c0 C2F80034 		str	r3, [r2, #1024]
 279              		.loc 1 48 5 is_stmt 1 view .LVU96
 280              		.loc 1 48 14 is_stmt 0 view .LVU97
 281 00c4 C2F82434 		str	r3, [r2, #1060]
 282              		.loc 1 49 5 is_stmt 1 view .LVU98
 283              		.loc 1 49 14 is_stmt 0 view .LVU99
 284 00c8 C2F82834 		str	r3, [r2, #1064]
 285              		.loc 1 50 5 is_stmt 1 view .LVU100
ARM GAS  C:\Users\DEVELO~1\AppData\Local\Temp\ccab9Nj4.s 			page 6


 286              		.loc 1 50 14 is_stmt 0 view .LVU101
 287 00cc C2F82C64 		str	r6, [r2, #1068]
 288              		.loc 1 53 5 is_stmt 1 view .LVU102
 289              		.loc 1 53 16 is_stmt 0 view .LVU103
 290 00d0 C2F81854 		str	r5, [r2, #1048]
 291              		.loc 1 58 5 is_stmt 1 view .LVU104
 292              		.loc 1 58 15 is_stmt 0 view .LVU105
 293 00d4 C2F82034 		str	r3, [r2, #1056]
 294              		.loc 1 61 5 is_stmt 1 view .LVU106
 295              		.loc 1 61 15 is_stmt 0 view .LVU107
 296 00d8 C2F80844 		str	r4, [r2, #1032]
 297              		.loc 1 64 5 is_stmt 1 view .LVU108
 298              		.loc 1 64 13 is_stmt 0 view .LVU109
 299 00dc C2F81034 		str	r3, [r2, #1040]
 300              		.loc 1 67 5 is_stmt 1 view .LVU110
 301              		.loc 1 67 14 is_stmt 0 view .LVU111
 302 00e0 D2F80014 		ldr	r1, [r2, #1024]
 303 00e4 41F00101 		orr	r1, r1, #1
 304 00e8 C2F80014 		str	r1, [r2, #1024]
 305              	.LVL7:
 306              		.loc 1 67 14 view .LVU112
 307              	.LBE78:
 308              	.LBE84:
 309              		.loc 1 84 5 is_stmt 1 view .LVU113
 310              	.LBB85:
 311              	.LBI79:
 312              		.loc 1 44 13 view .LVU114
 313              	.LBB81:
 314              		.loc 1 47 5 view .LVU115
 315              		.loc 1 47 14 is_stmt 0 view .LVU116
 316 00ec 1360     		str	r3, [r2]
 317              		.loc 1 48 5 is_stmt 1 view .LVU117
 318              		.loc 1 48 14 is_stmt 0 view .LVU118
 319 00ee 5362     		str	r3, [r2, #36]
 320              		.loc 1 49 5 is_stmt 1 view .LVU119
 321              		.loc 1 49 14 is_stmt 0 view .LVU120
 322 00f0 9362     		str	r3, [r2, #40]
 323              		.loc 1 50 5 is_stmt 1 view .LVU121
 324              		.loc 1 50 14 is_stmt 0 view .LVU122
 325 00f2 D662     		str	r6, [r2, #44]
 326              		.loc 1 53 5 is_stmt 1 view .LVU123
 327              		.loc 1 53 16 is_stmt 0 view .LVU124
 328 00f4 9561     		str	r5, [r2, #24]
 329              		.loc 1 58 5 is_stmt 1 view .LVU125
 330              		.loc 1 58 15 is_stmt 0 view .LVU126
 331 00f6 1362     		str	r3, [r2, #32]
 332              		.loc 1 61 5 is_stmt 1 view .LVU127
 333              		.loc 1 61 15 is_stmt 0 view .LVU128
 334 00f8 9460     		str	r4, [r2, #8]
 335              		.loc 1 64 5 is_stmt 1 view .LVU129
 336              		.loc 1 64 13 is_stmt 0 view .LVU130
 337 00fa 1361     		str	r3, [r2, #16]
 338              		.loc 1 67 5 is_stmt 1 view .LVU131
 339              		.loc 1 67 14 is_stmt 0 view .LVU132
 340 00fc 1168     		ldr	r1, [r2]
 341              	.LBE81:
 342              	.LBE85:
ARM GAS  C:\Users\DEVELO~1\AppData\Local\Temp\ccab9Nj4.s 			page 7


 343              	.LBB86:
 344              		.loc 1 87 21 view .LVU133
 345 00fe 084C     		ldr	r4, .L9+12
 346              	.LBE86:
 347              	.LBB87:
 348              	.LBB82:
 349              		.loc 1 67 14 view .LVU134
 350 0100 41F00101 		orr	r1, r1, #1
 351              	.LBE82:
 352              	.LBE87:
 353              	.LBB88:
 354              		.loc 1 87 21 view .LVU135
 355 0104 6360     		str	r3, [r4, #4]
 356              	.LBE88:
 357              	.LBB89:
 358              	.LBB83:
 359              		.loc 1 67 14 view .LVU136
 360 0106 1160     		str	r1, [r2]
 361              	.LVL8:
 362              		.loc 1 67 14 view .LVU137
 363              	.LBE83:
 364              	.LBE89:
 365              		.loc 1 86 5 is_stmt 1 view .LVU138
 366              	.LBB90:
 367              		.loc 1 86 10 view .LVU139
 368              		.loc 1 86 23 view .LVU140
 369              		.loc 1 87 9 view .LVU141
 370              		.loc 1 86 41 view .LVU142
 371              		.loc 1 86 23 view .LVU143
 372              		.loc 1 87 9 view .LVU144
 373              		.loc 1 86 41 view .LVU145
 374              		.loc 1 86 23 view .LVU146
 375              		.loc 1 87 9 view .LVU147
 376              		.loc 1 86 41 view .LVU148
 377              		.loc 1 86 23 view .LVU149
 378              		.loc 1 87 9 view .LVU150
 379              		.loc 1 86 41 view .LVU151
 380              		.loc 1 86 23 view .LVU152
 381              	.LBE90:
 382              		.loc 1 89 5 view .LVU153
 383              		.loc 1 89 22 is_stmt 0 view .LVU154
 384 0108 0122     		movs	r2, #1
 385              	.LBB91:
 386              		.loc 1 87 21 view .LVU155
 387 010a 2360     		str	r3, [r4]
 388              	.LBE91:
 389              		.loc 1 89 22 view .LVU156
 390 010c 0270     		strb	r2, [r0]
 391              		.loc 1 90 1 view .LVU157
 392 010e 70BC     		pop	{r4, r5, r6}
 393              		.cfi_restore 6
 394              		.cfi_restore 5
 395              		.cfi_restore 4
 396              		.cfi_def_cfa_offset 0
 397 0110 7047     		bx	lr
 398              	.L10:
 399 0112 00BF     		.align	2
ARM GAS  C:\Users\DEVELO~1\AppData\Local\Temp\ccab9Nj4.s 			page 8


 400              	.L9:
 401 0114 00000000 		.word	.LANCHOR0
 402 0118 00440258 		.word	1476543488
 403 011c 00040040 		.word	1073742848
 404 0120 00000000 		.word	.LANCHOR1
 405              		.cfi_endproc
 406              	.LFE451:
 407              		.size	drv_encoders_start, .-drv_encoders_start
 408              		.section	.text.drv_encoder_get,"ax",%progbits
 409              		.align	1
 410              		.p2align 2,,3
 411              		.global	drv_encoder_get
 412              		.syntax unified
 413              		.thumb
 414              		.thumb_func
 415              		.type	drv_encoder_get, %function
 416              	drv_encoder_get:
 417              	.LVL9:
 418              	.LFB452:
 419              		.loc 1 92 42 is_stmt 1 view -0
 420              		.cfi_startproc
 421              		@ args = 0, pretend = 0, frame = 0
 422              		@ frame_needed = 0, uses_anonymous_args = 0
 423              		@ link register save eliminated.
 424              		.loc 1 93 5 view .LVU159
 425              		.loc 1 93 8 is_stmt 0 view .LVU160
 426 0000 0328     		cmp	r0, #3
 427 0002 05D8     		bhi	.L13
 428              		.loc 1 96 5 is_stmt 1 view .LVU161
 429              		.loc 1 96 27 is_stmt 0 view .LVU162
 430 0004 034B     		ldr	r3, .L14
 431 0006 53F82030 		ldr	r3, [r3, r0, lsl #2]
 432              		.loc 1 96 31 view .LVU163
 433 000a 586A     		ldr	r0, [r3, #36]
 434              	.LVL10:
 435              		.loc 1 96 12 view .LVU164
 436 000c 00B2     		sxth	r0, r0
 437 000e 7047     		bx	lr
 438              	.LVL11:
 439              	.L13:
 440              		.loc 1 94 16 view .LVU165
 441 0010 0020     		movs	r0, #0
 442              	.LVL12:
 443              		.loc 1 97 1 view .LVU166
 444 0012 7047     		bx	lr
 445              	.L15:
 446              		.align	2
 447              	.L14:
 448 0014 00000000 		.word	.LANCHOR2
 449              		.cfi_endproc
 450              	.LFE452:
 451              		.size	drv_encoder_get, .-drv_encoder_get
 452              		.section	.text.drv_encoder_reset,"ax",%progbits
 453              		.align	1
 454              		.p2align 2,,3
 455              		.global	drv_encoder_reset
 456              		.syntax unified
ARM GAS  C:\Users\DEVELO~1\AppData\Local\Temp\ccab9Nj4.s 			page 9


 457              		.thumb
 458              		.thumb_func
 459              		.type	drv_encoder_reset, %function
 460              	drv_encoder_reset:
 461              	.LVL13:
 462              	.LFB453:
 463              		.loc 1 99 41 is_stmt 1 view -0
 464              		.cfi_startproc
 465              		@ args = 0, pretend = 0, frame = 0
 466              		@ frame_needed = 0, uses_anonymous_args = 0
 467              		@ link register save eliminated.
 468              		.loc 1 100 5 view .LVU168
 469              		.loc 1 100 8 is_stmt 0 view .LVU169
 470 0000 0328     		cmp	r0, #3
 471 0002 07D8     		bhi	.L16
 472              		.loc 1 103 5 is_stmt 1 view .LVU170
 473              		.loc 1 103 11 is_stmt 0 view .LVU171
 474 0004 044A     		ldr	r2, .L18
 475              		.loc 1 103 21 view .LVU172
 476 0006 0023     		movs	r3, #0
 477              		.loc 1 104 18 view .LVU173
 478 0008 0449     		ldr	r1, .L18+4
 479              		.loc 1 103 11 view .LVU174
 480 000a 52F82020 		ldr	r2, [r2, r0, lsl #2]
 481              		.loc 1 104 18 view .LVU175
 482 000e 21F81030 		strh	r3, [r1, r0, lsl #1]	@ movhi
 483              		.loc 1 103 21 view .LVU176
 484 0012 5362     		str	r3, [r2, #36]
 485              		.loc 1 104 5 is_stmt 1 view .LVU177
 486              	.L16:
 487              		.loc 1 105 1 is_stmt 0 view .LVU178
 488 0014 7047     		bx	lr
 489              	.L19:
 490 0016 00BF     		.align	2
 491              	.L18:
 492 0018 00000000 		.word	.LANCHOR2
 493 001c 00000000 		.word	.LANCHOR1
 494              		.cfi_endproc
 495              	.LFE453:
 496              		.size	drv_encoder_reset, .-drv_encoder_reset
 497              		.section	.text.drv_encoder_get_delta,"ax",%progbits
 498              		.align	1
 499              		.p2align 2,,3
 500              		.global	drv_encoder_get_delta
 501              		.syntax unified
 502              		.thumb
 503              		.thumb_func
 504              		.type	drv_encoder_get_delta, %function
 505              	drv_encoder_get_delta:
 506              	.LVL14:
 507              	.LFB454:
 508              		.loc 1 107 48 is_stmt 1 view -0
 509              		.cfi_startproc
 510              		@ args = 0, pretend = 0, frame = 0
 511              		@ frame_needed = 0, uses_anonymous_args = 0
 512              		@ link register save eliminated.
 513              		.loc 1 108 5 view .LVU180
ARM GAS  C:\Users\DEVELO~1\AppData\Local\Temp\ccab9Nj4.s 			page 10


 514              		.loc 1 108 8 is_stmt 0 view .LVU181
 515 0000 0328     		cmp	r0, #3
 516 0002 0BD8     		bhi	.L22
 517              	.LVL15:
 518              	.LBB96:
 519              	.LBI96:
 520              		.loc 1 107 9 is_stmt 1 view .LVU182
 521              	.LBB97:
 522              		.loc 1 111 5 view .LVU183
 523              		.loc 1 111 36 is_stmt 0 view .LVU184
 524 0004 064B     		ldr	r3, .L23
 525              		.loc 1 112 35 view .LVU185
 526 0006 074A     		ldr	r2, .L23+4
 527              		.loc 1 111 36 view .LVU186
 528 0008 53F82010 		ldr	r1, [r3, r0, lsl #2]
 529              		.loc 1 112 25 view .LVU187
 530 000c 32F81030 		ldrh	r3, [r2, r0, lsl #1]
 531              		.loc 1 111 40 view .LVU188
 532 0010 496A     		ldr	r1, [r1, #36]
 533              	.LVL16:
 534              		.loc 1 112 5 is_stmt 1 view .LVU189
 535              		.loc 1 112 25 is_stmt 0 view .LVU190
 536 0012 CB1A     		subs	r3, r1, r3
 537              		.loc 1 111 13 view .LVU191
 538 0014 22F81010 		strh	r1, [r2, r0, lsl #1]	@ movhi
 539              		.loc 1 112 13 view .LVU192
 540 0018 18B2     		sxth	r0, r3
 541              	.LVL17:
 542              		.loc 1 113 5 is_stmt 1 view .LVU193
 543              		.loc 1 114 5 view .LVU194
 544              		.loc 1 114 5 is_stmt 0 view .LVU195
 545 001a 7047     		bx	lr
 546              	.LVL18:
 547              	.L22:
 548              		.loc 1 114 5 view .LVU196
 549              	.LBE97:
 550              	.LBE96:
 551              		.loc 1 109 16 view .LVU197
 552 001c 0020     		movs	r0, #0
 553              	.LVL19:
 554              		.loc 1 115 1 view .LVU198
 555 001e 7047     		bx	lr
 556              	.L24:
 557              		.align	2
 558              	.L23:
 559 0020 00000000 		.word	.LANCHOR2
 560 0024 00000000 		.word	.LANCHOR1
 561              		.cfi_endproc
 562              	.LFE454:
 563              		.size	drv_encoder_get_delta, .-drv_encoder_get_delta
 564              		.section	.text.drv_encoder_get_delta_accel,"ax",%progbits
 565              		.align	1
 566              		.p2align 2,,3
 567              		.global	drv_encoder_get_delta_accel
 568              		.syntax unified
 569              		.thumb
 570              		.thumb_func
ARM GAS  C:\Users\DEVELO~1\AppData\Local\Temp\ccab9Nj4.s 			page 11


 571              		.type	drv_encoder_get_delta_accel, %function
 572              	drv_encoder_get_delta_accel:
 573              	.LVL20:
 574              	.LFB455:
 575              		.loc 1 118 54 is_stmt 1 view -0
 576              		.cfi_startproc
 577              		@ args = 0, pretend = 0, frame = 0
 578              		@ frame_needed = 0, uses_anonymous_args = 0
 579              		@ link register save eliminated.
 580              		.loc 1 119 5 view .LVU200
 581              	.LBB104:
 582              	.LBI104:
 583              		.loc 1 107 9 view .LVU201
 584              	.LBB105:
 585              		.loc 1 108 5 view .LVU202
 586              		.loc 1 108 8 is_stmt 0 view .LVU203
 587 0000 0328     		cmp	r0, #3
 588 0002 17D8     		bhi	.L30
 589              	.LVL21:
 590              	.LBB106:
 591              	.LBI106:
 592              		.loc 1 107 9 is_stmt 1 view .LVU204
 593              	.LBB107:
 594              		.loc 1 111 5 view .LVU205
 595              		.loc 1 111 36 is_stmt 0 view .LVU206
 596 0004 0E4B     		ldr	r3, .L33
 597              		.loc 1 112 35 view .LVU207
 598 0006 0F4A     		ldr	r2, .L33+4
 599              		.loc 1 111 36 view .LVU208
 600 0008 53F82030 		ldr	r3, [r3, r0, lsl #2]
 601              		.loc 1 112 25 view .LVU209
 602 000c 32F81010 		ldrh	r1, [r2, r0, lsl #1]
 603              		.loc 1 111 40 view .LVU210
 604 0010 5B6A     		ldr	r3, [r3, #36]
 605              	.LVL22:
 606              		.loc 1 112 5 is_stmt 1 view .LVU211
 607              		.loc 1 111 13 is_stmt 0 view .LVU212
 608 0012 22F81030 		strh	r3, [r2, r0, lsl #1]	@ movhi
 609              		.loc 1 112 25 view .LVU213
 610 0016 5B1A     		subs	r3, r3, r1
 611              	.LVL23:
 612              		.loc 1 112 13 view .LVU214
 613 0018 18B2     		sxth	r0, r3
 614              	.LVL24:
 615              		.loc 1 113 5 is_stmt 1 view .LVU215
 616              		.loc 1 114 5 view .LVU216
 617              		.loc 1 114 5 is_stmt 0 view .LVU217
 618              	.LBE107:
 619              	.LBE106:
 620              	.LBE105:
 621              	.LBE104:
 622              		.loc 1 121 5 is_stmt 1 view .LVU218
 623              	.LBB112:
 624              	.LBB110:
 625              	.LBB109:
 626              	.LBB108:
 627              		.loc 1 112 25 is_stmt 0 view .LVU219
ARM GAS  C:\Users\DEVELO~1\AppData\Local\Temp\ccab9Nj4.s 			page 12


 628 001a 9BB2     		uxth	r3, r3
 629              	.LBE108:
 630              	.LBE109:
 631              	.LBE110:
 632              	.LBE112:
 633              		.loc 1 121 8 view .LVU220
 634 001c 0528     		cmp	r0, #5
 635 001e 06DC     		bgt	.L31
 636              	.LVL25:
 637              		.loc 1 122 10 is_stmt 1 view .LVU221
 638              		.loc 1 122 13 is_stmt 0 view .LVU222
 639 0020 0228     		cmp	r0, #2
 640 0022 02DD     		ble	.L28
 641              	.L32:
 642              		.loc 1 124 22 is_stmt 1 discriminator 1 view .LVU223
 643              		.loc 1 124 31 is_stmt 0 discriminator 1 view .LVU224
 644 0024 5B00     		lsls	r3, r3, #1
 645 0026 18B2     		sxth	r0, r3
 646 0028 7047     		bx	lr
 647              	.L28:
 648              		.loc 1 123 10 is_stmt 1 view .LVU225
 649              		.loc 1 123 13 is_stmt 0 view .LVU226
 650 002a 411D     		adds	r1, r0, #5
 651 002c 04DA     		bge	.L29
 652              	.L31:
 653              		.loc 1 123 22 is_stmt 1 discriminator 1 view .LVU227
 654              		.loc 1 123 31 is_stmt 0 discriminator 1 view .LVU228
 655 002e 9B00     		lsls	r3, r3, #2
 656 0030 18B2     		sxth	r0, r3
 657 0032 7047     		bx	lr
 658              	.LVL26:
 659              	.L30:
 660              	.LBB113:
 661              	.LBB111:
 662              		.loc 1 109 16 view .LVU229
 663 0034 0020     		movs	r0, #0
 664              	.LVL27:
 665              	.L26:
 666              		.loc 1 109 16 view .LVU230
 667              	.LBE111:
 668              	.LBE113:
 669              		.loc 1 126 1 view .LVU231
 670 0036 7047     		bx	lr
 671              	.L29:
 672              		.loc 1 124 10 is_stmt 1 view .LVU232
 673              		.loc 1 124 13 is_stmt 0 view .LVU233
 674 0038 821C     		adds	r2, r0, #2
 675 003a FCDA     		bge	.L26
 676 003c F2E7     		b	.L32
 677              	.L34:
 678 003e 00BF     		.align	2
 679              	.L33:
 680 0040 00000000 		.word	.LANCHOR2
 681 0044 00000000 		.word	.LANCHOR1
 682              		.cfi_endproc
 683              	.LFE455:
 684              		.size	drv_encoder_get_delta_accel, .-drv_encoder_get_delta_accel
ARM GAS  C:\Users\DEVELO~1\AppData\Local\Temp\ccab9Nj4.s 			page 13


 685              		.section	.bss.encoders_started,"aw",%nobits
 686              		.set	.LANCHOR0,. + 0
 687              		.type	encoders_started, %object
 688              		.size	encoders_started, 1
 689              	encoders_started:
 690 0000 00       		.space	1
 691              		.section	.bss.last_val,"aw",%nobits
 692              		.align	2
 693              		.set	.LANCHOR1,. + 0
 694              		.type	last_val, %object
 695              		.size	last_val, 8
 696              	last_val:
 697 0000 00000000 		.space	8
 697      00000000 
 698              		.section	.rodata.timers,"a"
 699              		.align	2
 700              		.set	.LANCHOR2,. + 0
 701              		.type	timers, %object
 702              		.size	timers, 16
 703              	timers:
 704 0000 00040040 		.word	1073742848
 705 0004 00000040 		.word	1073741824
 706 0008 000C0040 		.word	1073744896
 707 000c 00080040 		.word	1073743872
 708              		.text
 709              	.Letext0:
 710              		.file 3 "c:\\chibistudio\\tools\\gnu tools arm embedded\\11.3 2022.08\\arm-none-eabi\\include\\mac
 711              		.file 4 "c:\\chibistudio\\tools\\gnu tools arm embedded\\11.3 2022.08\\arm-none-eabi\\include\\sys
 712              		.file 5 "drivers/drv_encoders.h"
 713              		.file 6 "c:\\chibistudio\\tools\\gnu tools arm embedded\\11.3 2022.08\\lib\\gcc\\arm-none-eabi\\11
 714              		.file 7 "./docs/ChibiOS/os/common/ext/ST/STM32H7xx/stm32h743xx.h"
 715              		.section	.debug_info,"",%progbits
 716              	.Ldebug_info0:
 717 0000 C4090000 		.4byte	0x9c4
 718 0004 0500     		.2byte	0x5
 719 0006 01       		.byte	0x1
 720 0007 04       		.byte	0x4
 721 0008 00000000 		.4byte	.Ldebug_abbrev0
 722 000c 18       		.uleb128 0x18
 723 000d 51020000 		.4byte	.LASF111
 724 0011 1D       		.byte	0x1d
 725 0012 EA030000 		.4byte	.LASF112
 726 0016 09000000 		.4byte	.LASF113
 727 001a 98000000 		.4byte	.LLRL33
 728 001e 00000000 		.4byte	0
 729 0022 00000000 		.4byte	.Ldebug_line0
 730 0026 04       		.uleb128 0x4
 731 0027 01       		.byte	0x1
 732 0028 06       		.byte	0x6
 733 0029 ED000000 		.4byte	.LASF0
 734 002d 04       		.uleb128 0x4
 735 002e 01       		.byte	0x1
 736 002f 08       		.byte	0x8
 737 0030 D2030000 		.4byte	.LASF1
 738 0034 06       		.uleb128 0x6
 739 0035 B5010000 		.4byte	.LASF5
 740 0039 03       		.byte	0x3
ARM GAS  C:\Users\DEVELO~1\AppData\Local\Temp\ccab9Nj4.s 			page 14


 741 003a 37       		.byte	0x37
 742 003b 18       		.byte	0x18
 743 003c 40000000 		.4byte	0x40
 744 0040 04       		.uleb128 0x4
 745 0041 02       		.byte	0x2
 746 0042 05       		.byte	0x5
 747 0043 E0030000 		.4byte	.LASF2
 748 0047 04       		.uleb128 0x4
 749 0048 02       		.byte	0x2
 750 0049 07       		.byte	0x7
 751 004a 0B020000 		.4byte	.LASF3
 752 004e 04       		.uleb128 0x4
 753 004f 04       		.byte	0x4
 754 0050 05       		.byte	0x5
 755 0051 6E000000 		.4byte	.LASF4
 756 0055 06       		.uleb128 0x6
 757 0056 9C010000 		.4byte	.LASF6
 758 005a 03       		.byte	0x3
 759 005b 4F       		.byte	0x4f
 760 005c 19       		.byte	0x19
 761 005d 61000000 		.4byte	0x61
 762 0061 04       		.uleb128 0x4
 763 0062 04       		.byte	0x4
 764 0063 07       		.byte	0x7
 765 0064 ED010000 		.4byte	.LASF7
 766 0068 04       		.uleb128 0x4
 767 0069 08       		.byte	0x8
 768 006a 05       		.byte	0x5
 769 006b 62010000 		.4byte	.LASF8
 770 006f 04       		.uleb128 0x4
 771 0070 08       		.byte	0x8
 772 0071 07       		.byte	0x7
 773 0072 9B000000 		.4byte	.LASF9
 774 0076 19       		.uleb128 0x19
 775 0077 04       		.byte	0x4
 776 0078 05       		.byte	0x5
 777 0079 696E7400 		.ascii	"int\000"
 778 007d 04       		.uleb128 0x4
 779 007e 04       		.byte	0x4
 780 007f 07       		.byte	0x7
 781 0080 CE010000 		.4byte	.LASF10
 782 0084 06       		.uleb128 0x6
 783 0085 16050000 		.4byte	.LASF11
 784 0089 04       		.byte	0x4
 785 008a 20       		.byte	0x20
 786 008b 13       		.byte	0x13
 787 008c 34000000 		.4byte	0x34
 788 0090 06       		.uleb128 0x6
 789 0091 59040000 		.4byte	.LASF12
 790 0095 04       		.byte	0x4
 791 0096 30       		.byte	0x30
 792 0097 14       		.byte	0x14
 793 0098 55000000 		.4byte	0x55
 794 009c 1A       		.uleb128 0x1a
 795 009d 90000000 		.4byte	0x90
 796 00a1 04       		.uleb128 0x4
 797 00a2 01       		.byte	0x1
ARM GAS  C:\Users\DEVELO~1\AppData\Local\Temp\ccab9Nj4.s 			page 15


 798 00a3 08       		.byte	0x8
 799 00a4 76040000 		.4byte	.LASF13
 800 00a8 1B       		.uleb128 0x1b
 801 00a9 07       		.byte	0x7
 802 00aa 01       		.byte	0x1
 803 00ab 2D000000 		.4byte	0x2d
 804 00af 05       		.byte	0x5
 805 00b0 09       		.byte	0x9
 806 00b1 0E       		.byte	0xe
 807 00b2 CF000000 		.4byte	0xcf
 808 00b6 07       		.uleb128 0x7
 809 00b7 15040000 		.4byte	.LASF14
 810 00bb 00       		.byte	0
 811 00bc 07       		.uleb128 0x7
 812 00bd 1A040000 		.4byte	.LASF15
 813 00c1 01       		.byte	0x1
 814 00c2 07       		.uleb128 0x7
 815 00c3 7B040000 		.4byte	.LASF16
 816 00c7 02       		.byte	0x2
 817 00c8 07       		.uleb128 0x7
 818 00c9 1F040000 		.4byte	.LASF17
 819 00cd 03       		.byte	0x3
 820 00ce 00       		.byte	0
 821 00cf 06       		.uleb128 0x6
 822 00d0 E0010000 		.4byte	.LASF18
 823 00d4 05       		.byte	0x5
 824 00d5 0E       		.byte	0xe
 825 00d6 03       		.byte	0x3
 826 00d7 A8000000 		.4byte	0xa8
 827 00db 06       		.uleb128 0x6
 828 00dc 4C000000 		.4byte	.LASF19
 829 00e0 06       		.byte	0x6
 830 00e1 D1       		.byte	0xd1
 831 00e2 17       		.byte	0x17
 832 00e3 7D000000 		.4byte	0x7d
 833 00e7 04       		.uleb128 0x4
 834 00e8 08       		.byte	0x8
 835 00e9 04       		.byte	0x4
 836 00ea 6A040000 		.4byte	.LASF20
 837 00ee 08       		.uleb128 0x8
 838 00ef 90000000 		.4byte	0x90
 839 00f3 FE000000 		.4byte	0xfe
 840 00f7 09       		.uleb128 0x9
 841 00f8 7D000000 		.4byte	0x7d
 842 00fc 03       		.byte	0x3
 843 00fd 00       		.byte	0
 844 00fe 08       		.uleb128 0x8
 845 00ff 90000000 		.4byte	0x90
 846 0103 0E010000 		.4byte	0x10e
 847 0107 09       		.uleb128 0x9
 848 0108 7D000000 		.4byte	0x7d
 849 010c 08       		.byte	0x8
 850 010d 00       		.byte	0
 851 010e 1C       		.uleb128 0x1c
 852 010f 3001     		.2byte	0x130
 853 0111 07       		.byte	0x7
 854 0112 CE04     		.2byte	0x4ce
ARM GAS  C:\Users\DEVELO~1\AppData\Local\Temp\ccab9Nj4.s 			page 16


 855 0114 09       		.byte	0x9
 856 0115 6F040000 		.4byte	0x46f
 857 0119 03       		.uleb128 0x3
 858 011a 435200   		.ascii	"CR\000"
 859 011d D004     		.2byte	0x4d0
 860 011f 10       		.byte	0x10
 861 0120 9C000000 		.4byte	0x9c
 862 0124 00       		.byte	0
 863 0125 01       		.uleb128 0x1
 864 0126 28020000 		.4byte	.LASF21
 865 012a D104     		.2byte	0x4d1
 866 012c 10       		.byte	0x10
 867 012d 9C000000 		.4byte	0x9c
 868 0131 04       		.byte	0x4
 869 0132 01       		.uleb128 0x1
 870 0133 88010000 		.4byte	.LASF22
 871 0137 D204     		.2byte	0x4d2
 872 0139 10       		.byte	0x10
 873 013a 9C000000 		.4byte	0x9c
 874 013e 08       		.byte	0x8
 875 013f 01       		.uleb128 0x1
 876 0140 BA040000 		.4byte	.LASF23
 877 0144 D304     		.2byte	0x4d3
 878 0146 10       		.byte	0x10
 879 0147 9C000000 		.4byte	0x9c
 880 014b 0C       		.byte	0xc
 881 014c 01       		.uleb128 0x1
 882 014d DB010000 		.4byte	.LASF24
 883 0151 D404     		.2byte	0x4d4
 884 0153 10       		.byte	0x10
 885 0154 9C000000 		.4byte	0x9c
 886 0158 10       		.byte	0x10
 887 0159 01       		.uleb128 0x1
 888 015a 8A030000 		.4byte	.LASF25
 889 015e D504     		.2byte	0x4d5
 890 0160 0F       		.byte	0xf
 891 0161 90000000 		.4byte	0x90
 892 0165 14       		.byte	0x14
 893 0166 01       		.uleb128 0x1
 894 0167 24050000 		.4byte	.LASF26
 895 016b D604     		.2byte	0x4d6
 896 016d 10       		.byte	0x10
 897 016e 9C000000 		.4byte	0x9c
 898 0172 18       		.byte	0x18
 899 0173 01       		.uleb128 0x1
 900 0174 A8030000 		.4byte	.LASF27
 901 0178 D704     		.2byte	0x4d7
 902 017a 10       		.byte	0x10
 903 017b 9C000000 		.4byte	0x9c
 904 017f 1C       		.byte	0x1c
 905 0180 01       		.uleb128 0x1
 906 0181 79010000 		.4byte	.LASF28
 907 0185 D804     		.2byte	0x4d8
 908 0187 10       		.byte	0x10
 909 0188 9C000000 		.4byte	0x9c
 910 018c 20       		.byte	0x20
 911 018d 01       		.uleb128 0x1
ARM GAS  C:\Users\DEVELO~1\AppData\Local\Temp\ccab9Nj4.s 			page 17


 912 018e 94030000 		.4byte	.LASF29
 913 0192 D904     		.2byte	0x4d9
 914 0194 0F       		.byte	0xf
 915 0195 90000000 		.4byte	0x90
 916 0199 24       		.byte	0x24
 917 019a 01       		.uleb128 0x1
 918 019b 1E020000 		.4byte	.LASF30
 919 019f DA04     		.2byte	0x4da
 920 01a1 10       		.byte	0x10
 921 01a2 9C000000 		.4byte	0x9c
 922 01a6 28       		.byte	0x28
 923 01a7 01       		.uleb128 0x1
 924 01a8 80010000 		.4byte	.LASF31
 925 01ac DB04     		.2byte	0x4db
 926 01ae 10       		.byte	0x10
 927 01af 9C000000 		.4byte	0x9c
 928 01b3 2C       		.byte	0x2c
 929 01b4 01       		.uleb128 0x1
 930 01b5 00000000 		.4byte	.LASF32
 931 01b9 DC04     		.2byte	0x4dc
 932 01bb 10       		.byte	0x10
 933 01bc 9C000000 		.4byte	0x9c
 934 01c0 30       		.byte	0x30
 935 01c1 01       		.uleb128 0x1
 936 01c2 41010000 		.4byte	.LASF33
 937 01c6 DD04     		.2byte	0x4dd
 938 01c8 10       		.byte	0x10
 939 01c9 9C000000 		.4byte	0x9c
 940 01cd 34       		.byte	0x34
 941 01ce 01       		.uleb128 0x1
 942 01cf C9030000 		.4byte	.LASF34
 943 01d3 DE04     		.2byte	0x4de
 944 01d5 10       		.byte	0x10
 945 01d6 9C000000 		.4byte	0x9c
 946 01da 38       		.byte	0x38
 947 01db 01       		.uleb128 0x1
 948 01dc C4010000 		.4byte	.LASF35
 949 01e0 DF04     		.2byte	0x4df
 950 01e2 10       		.byte	0x10
 951 01e3 9C000000 		.4byte	0x9c
 952 01e7 3C       		.byte	0x3c
 953 01e8 01       		.uleb128 0x1
 954 01e9 93010000 		.4byte	.LASF36
 955 01ed E004     		.2byte	0x4e0
 956 01ef 10       		.byte	0x10
 957 01f0 9C000000 		.4byte	0x9c
 958 01f4 40       		.byte	0x40
 959 01f5 01       		.uleb128 0x1
 960 01f6 FB020000 		.4byte	.LASF37
 961 01fa E104     		.2byte	0x4e1
 962 01fc 10       		.byte	0x10
 963 01fd 9C000000 		.4byte	0x9c
 964 0201 44       		.byte	0x44
 965 0202 01       		.uleb128 0x1
 966 0203 9E030000 		.4byte	.LASF38
 967 0207 E204     		.2byte	0x4e2
 968 0209 10       		.byte	0x10
ARM GAS  C:\Users\DEVELO~1\AppData\Local\Temp\ccab9Nj4.s 			page 18


 969 020a 90000000 		.4byte	0x90
 970 020e 48       		.byte	0x48
 971 020f 01       		.uleb128 0x1
 972 0210 62040000 		.4byte	.LASF39
 973 0214 E304     		.2byte	0x4e3
 974 0216 11       		.byte	0x11
 975 0217 9C000000 		.4byte	0x9c
 976 021b 4C       		.byte	0x4c
 977 021c 01       		.uleb128 0x1
 978 021d AC010000 		.4byte	.LASF40
 979 0221 E404     		.2byte	0x4e4
 980 0223 11       		.byte	0x11
 981 0224 9C000000 		.4byte	0x9c
 982 0228 50       		.byte	0x50
 983 0229 01       		.uleb128 0x1
 984 022a 42020000 		.4byte	.LASF41
 985 022e E504     		.2byte	0x4e5
 986 0230 11       		.byte	0x11
 987 0231 9C000000 		.4byte	0x9c
 988 0235 54       		.byte	0x54
 989 0236 01       		.uleb128 0x1
 990 0237 0E050000 		.4byte	.LASF42
 991 023b E604     		.2byte	0x4e6
 992 023d 11       		.byte	0x11
 993 023e 9C000000 		.4byte	0x9c
 994 0242 58       		.byte	0x58
 995 0243 01       		.uleb128 0x1
 996 0244 45040000 		.4byte	.LASF43
 997 0248 E704     		.2byte	0x4e7
 998 024a 10       		.byte	0x10
 999 024b 90000000 		.4byte	0x90
 1000 024f 5C       		.byte	0x5c
 1001 0250 01       		.uleb128 0x1
 1002 0251 CD000000 		.4byte	.LASF44
 1003 0255 E804     		.2byte	0x4e8
 1004 0257 11       		.byte	0x11
 1005 0258 9C000000 		.4byte	0x9c
 1006 025c 60       		.byte	0x60
 1007 025d 01       		.uleb128 0x1
 1008 025e 8E010000 		.4byte	.LASF45
 1009 0262 E904     		.2byte	0x4e9
 1010 0264 11       		.byte	0x11
 1011 0265 9C000000 		.4byte	0x9c
 1012 0269 64       		.byte	0x64
 1013 026a 01       		.uleb128 0x1
 1014 026b BF010000 		.4byte	.LASF46
 1015 026f EA04     		.2byte	0x4ea
 1016 0271 11       		.byte	0x11
 1017 0272 9C000000 		.4byte	0x9c
 1018 0276 68       		.byte	0x68
 1019 0277 01       		.uleb128 0x1
 1020 0278 4F040000 		.4byte	.LASF47
 1021 027c EB04     		.2byte	0x4eb
 1022 027e 0F       		.byte	0xf
 1023 027f 90000000 		.4byte	0x90
 1024 0283 6C       		.byte	0x6c
 1025 0284 01       		.uleb128 0x1
ARM GAS  C:\Users\DEVELO~1\AppData\Local\Temp\ccab9Nj4.s 			page 19


 1026 0285 01050000 		.4byte	.LASF48
 1027 0289 EC04     		.2byte	0x4ec
 1028 028b 11       		.byte	0x11
 1029 028c 9C000000 		.4byte	0x9c
 1030 0290 70       		.byte	0x70
 1031 0291 03       		.uleb128 0x3
 1032 0292 43535200 		.ascii	"CSR\000"
 1033 0296 ED04     		.2byte	0x4ed
 1034 0298 11       		.byte	0x11
 1035 0299 9C000000 		.4byte	0x9c
 1036 029d 74       		.byte	0x74
 1037 029e 01       		.uleb128 0x1
 1038 029f AF030000 		.4byte	.LASF49
 1039 02a3 EE04     		.2byte	0x4ee
 1040 02a5 0F       		.byte	0xf
 1041 02a6 90000000 		.4byte	0x90
 1042 02aa 78       		.byte	0x78
 1043 02ab 01       		.uleb128 0x1
 1044 02ac 30020000 		.4byte	.LASF50
 1045 02b0 EF04     		.2byte	0x4ef
 1046 02b2 10       		.byte	0x10
 1047 02b3 9C000000 		.4byte	0x9c
 1048 02b7 7C       		.byte	0x7c
 1049 02b8 01       		.uleb128 0x1
 1050 02b9 F9000000 		.4byte	.LASF51
 1051 02bd F004     		.2byte	0x4f0
 1052 02bf 10       		.byte	0x10
 1053 02c0 9C000000 		.4byte	0x9c
 1054 02c4 80       		.byte	0x80
 1055 02c5 01       		.uleb128 0x1
 1056 02c6 85040000 		.4byte	.LASF52
 1057 02ca F104     		.2byte	0x4f1
 1058 02cc 10       		.byte	0x10
 1059 02cd 9C000000 		.4byte	0x9c
 1060 02d1 84       		.byte	0x84
 1061 02d2 01       		.uleb128 0x1
 1062 02d3 70010000 		.4byte	.LASF53
 1063 02d7 F204     		.2byte	0x4f2
 1064 02d9 10       		.byte	0x10
 1065 02da 9C000000 		.4byte	0x9c
 1066 02de 88       		.byte	0x88
 1067 02df 01       		.uleb128 0x1
 1068 02e0 B1040000 		.4byte	.LASF54
 1069 02e4 F304     		.2byte	0x4f3
 1070 02e6 10       		.byte	0x10
 1071 02e7 9C000000 		.4byte	0x9c
 1072 02eb 8C       		.byte	0x8c
 1073 02ec 01       		.uleb128 0x1
 1074 02ed 53000000 		.4byte	.LASF55
 1075 02f1 F404     		.2byte	0x4f4
 1076 02f3 10       		.byte	0x10
 1077 02f4 9C000000 		.4byte	0x9c
 1078 02f8 90       		.byte	0x90
 1079 02f9 01       		.uleb128 0x1
 1080 02fa 38030000 		.4byte	.LASF56
 1081 02fe F504     		.2byte	0x4f5
 1082 0300 10       		.byte	0x10
ARM GAS  C:\Users\DEVELO~1\AppData\Local\Temp\ccab9Nj4.s 			page 20


 1083 0301 9C000000 		.4byte	0x9c
 1084 0305 94       		.byte	0x94
 1085 0306 01       		.uleb128 0x1
 1086 0307 54010000 		.4byte	.LASF57
 1087 030b F604     		.2byte	0x4f6
 1088 030d 10       		.byte	0x10
 1089 030e 9C000000 		.4byte	0x9c
 1090 0312 98       		.byte	0x98
 1091 0313 01       		.uleb128 0x1
 1092 0314 14030000 		.4byte	.LASF58
 1093 0318 F704     		.2byte	0x4f7
 1094 031a 10       		.byte	0x10
 1095 031b 9C000000 		.4byte	0x9c
 1096 031f 9C       		.byte	0x9c
 1097 0320 03       		.uleb128 0x3
 1098 0321 47435200 		.ascii	"GCR\000"
 1099 0325 F804     		.2byte	0x4f8
 1100 0327 10       		.byte	0x10
 1101 0328 9C000000 		.4byte	0x9c
 1102 032c A0       		.byte	0xa0
 1103 032d 01       		.uleb128 0x1
 1104 032e B9030000 		.4byte	.LASF59
 1105 0332 F904     		.2byte	0x4f9
 1106 0334 0F       		.byte	0xf
 1107 0335 90000000 		.4byte	0x90
 1108 0339 A4       		.byte	0xa4
 1109 033a 01       		.uleb128 0x1
 1110 033b B2000000 		.4byte	.LASF60
 1111 033f FA04     		.2byte	0x4fa
 1112 0341 10       		.byte	0x10
 1113 0342 9C000000 		.4byte	0x9c
 1114 0346 A8       		.byte	0xa8
 1115 0347 01       		.uleb128 0x1
 1116 0348 15010000 		.4byte	.LASF61
 1117 034c FB04     		.2byte	0x4fb
 1118 034e 0F       		.byte	0xf
 1119 034f FE000000 		.4byte	0xfe
 1120 0353 AC       		.byte	0xac
 1121 0354 03       		.uleb128 0x3
 1122 0355 52535200 		.ascii	"RSR\000"
 1123 0359 FC04     		.2byte	0x4fc
 1124 035b 10       		.byte	0x10
 1125 035c 9C000000 		.4byte	0x9c
 1126 0360 D0       		.byte	0xd0
 1127 0361 01       		.uleb128 0x1
 1128 0362 2C040000 		.4byte	.LASF62
 1129 0366 FD04     		.2byte	0x4fd
 1130 0368 10       		.byte	0x10
 1131 0369 9C000000 		.4byte	0x9c
 1132 036d D4       		.byte	0xd4
 1133 036e 01       		.uleb128 0x1
 1134 036f 06050000 		.4byte	.LASF63
 1135 0373 FE04     		.2byte	0x4fe
 1136 0375 10       		.byte	0x10
 1137 0376 9C000000 		.4byte	0x9c
 1138 037a D8       		.byte	0xd8
 1139 037b 01       		.uleb128 0x1
ARM GAS  C:\Users\DEVELO~1\AppData\Local\Temp\ccab9Nj4.s 			page 21


 1140 037c A9040000 		.4byte	.LASF64
 1141 0380 FF04     		.2byte	0x4ff
 1142 0382 10       		.byte	0x10
 1143 0383 9C000000 		.4byte	0x9c
 1144 0387 DC       		.byte	0xdc
 1145 0388 01       		.uleb128 0x1
 1146 0389 82030000 		.4byte	.LASF65
 1147 038d 0005     		.2byte	0x500
 1148 038f 10       		.byte	0x10
 1149 0390 9C000000 		.4byte	0x9c
 1150 0394 E0       		.byte	0xe0
 1151 0395 01       		.uleb128 0x1
 1152 0396 7A030000 		.4byte	.LASF66
 1153 039a 0105     		.2byte	0x501
 1154 039c 10       		.byte	0x10
 1155 039d 9C000000 		.4byte	0x9c
 1156 03a1 E4       		.byte	0xe4
 1157 03a2 01       		.uleb128 0x1
 1158 03a3 4B010000 		.4byte	.LASF67
 1159 03a7 0205     		.2byte	0x502
 1160 03a9 10       		.byte	0x10
 1161 03aa 9C000000 		.4byte	0x9c
 1162 03ae E8       		.byte	0xe8
 1163 03af 01       		.uleb128 0x1
 1164 03b0 39020000 		.4byte	.LASF68
 1165 03b4 0305     		.2byte	0x503
 1166 03b6 10       		.byte	0x10
 1167 03b7 9C000000 		.4byte	0x9c
 1168 03bb EC       		.byte	0xec
 1169 03bc 01       		.uleb128 0x1
 1170 03bd 24040000 		.4byte	.LASF69
 1171 03c1 0405     		.2byte	0x504
 1172 03c3 10       		.byte	0x10
 1173 03c4 9C000000 		.4byte	0x9c
 1174 03c8 F0       		.byte	0xf0
 1175 03c9 01       		.uleb128 0x1
 1176 03ca 30030000 		.4byte	.LASF70
 1177 03ce 0505     		.2byte	0x505
 1178 03d0 10       		.byte	0x10
 1179 03d1 9C000000 		.4byte	0x9c
 1180 03d5 F4       		.byte	0xf4
 1181 03d6 01       		.uleb128 0x1
 1182 03d7 20010000 		.4byte	.LASF71
 1183 03db 0605     		.2byte	0x506
 1184 03dd 10       		.byte	0x10
 1185 03de 90000000 		.4byte	0x90
 1186 03e2 F8       		.byte	0xf8
 1187 03e3 01       		.uleb128 0x1
 1188 03e4 01040000 		.4byte	.LASF72
 1189 03e8 0705     		.2byte	0x507
 1190 03ea 10       		.byte	0x10
 1191 03eb 9C000000 		.4byte	0x9c
 1192 03ef FC       		.byte	0xfc
 1193 03f0 05       		.uleb128 0x5
 1194 03f1 C3000000 		.4byte	.LASF73
 1195 03f5 0805     		.2byte	0x508
 1196 03f7 10       		.byte	0x10
ARM GAS  C:\Users\DEVELO~1\AppData\Local\Temp\ccab9Nj4.s 			page 22


 1197 03f8 9C000000 		.4byte	0x9c
 1198 03fc 0001     		.2byte	0x100
 1199 03fe 05       		.uleb128 0x5
 1200 03ff 42030000 		.4byte	.LASF74
 1201 0403 0905     		.2byte	0x509
 1202 0405 10       		.byte	0x10
 1203 0406 9C000000 		.4byte	0x9c
 1204 040a 0401     		.2byte	0x104
 1205 040c 05       		.uleb128 0x5
 1206 040d 8E040000 		.4byte	.LASF75
 1207 0411 0A05     		.2byte	0x50a
 1208 0413 10       		.byte	0x10
 1209 0414 9C000000 		.4byte	0x9c
 1210 0418 0801     		.2byte	0x108
 1211 041a 05       		.uleb128 0x5
 1212 041b 0B010000 		.4byte	.LASF76
 1213 041f 0B05     		.2byte	0x50b
 1214 0421 10       		.byte	0x10
 1215 0422 9C000000 		.4byte	0x9c
 1216 0426 0C01     		.2byte	0x10c
 1217 0428 05       		.uleb128 0x5
 1218 0429 D8040000 		.4byte	.LASF77
 1219 042d 0C05     		.2byte	0x50c
 1220 042f 10       		.byte	0x10
 1221 0430 9C000000 		.4byte	0x9c
 1222 0434 1001     		.2byte	0x110
 1223 0436 05       		.uleb128 0x5
 1224 0437 63000000 		.4byte	.LASF78
 1225 043b 0D05     		.2byte	0x50d
 1226 043d 10       		.byte	0x10
 1227 043e 9C000000 		.4byte	0x9c
 1228 0442 1401     		.2byte	0x114
 1229 0444 05       		.uleb128 0x5
 1230 0445 F1020000 		.4byte	.LASF79
 1231 0449 0E05     		.2byte	0x50e
 1232 044b 10       		.byte	0x10
 1233 044c 9C000000 		.4byte	0x9c
 1234 0450 1801     		.2byte	0x118
 1235 0452 05       		.uleb128 0x5
 1236 0453 0B040000 		.4byte	.LASF80
 1237 0457 0F05     		.2byte	0x50f
 1238 0459 10       		.byte	0x10
 1239 045a 9C000000 		.4byte	0x9c
 1240 045e 1C01     		.2byte	0x11c
 1241 0460 05       		.uleb128 0x5
 1242 0461 2B010000 		.4byte	.LASF81
 1243 0465 1005     		.2byte	0x510
 1244 0467 0F       		.byte	0xf
 1245 0468 EE000000 		.4byte	0xee
 1246 046c 2001     		.2byte	0x120
 1247 046e 00       		.byte	0
 1248 046f 11       		.uleb128 0x11
 1249 0470 FF010000 		.4byte	.LASF82
 1250 0474 1205     		.2byte	0x512
 1251 0476 0E010000 		.4byte	0x10e
 1252 047a 1D       		.uleb128 0x1d
 1253 047b 6C       		.byte	0x6c
ARM GAS  C:\Users\DEVELO~1\AppData\Local\Temp\ccab9Nj4.s 			page 23


 1254 047c 07       		.byte	0x7
 1255 047d F205     		.2byte	0x5f2
 1256 047f 09       		.byte	0x9
 1257 0480 E3050000 		.4byte	0x5e3
 1258 0484 03       		.uleb128 0x3
 1259 0485 43523100 		.ascii	"CR1\000"
 1260 0489 F405     		.2byte	0x5f4
 1261 048b 11       		.byte	0x11
 1262 048c 9C000000 		.4byte	0x9c
 1263 0490 00       		.byte	0
 1264 0491 03       		.uleb128 0x3
 1265 0492 43523200 		.ascii	"CR2\000"
 1266 0496 F505     		.2byte	0x5f5
 1267 0498 11       		.byte	0x11
 1268 0499 9C000000 		.4byte	0x9c
 1269 049d 04       		.byte	0x4
 1270 049e 01       		.uleb128 0x1
 1271 049f E8000000 		.4byte	.LASF83
 1272 04a3 F605     		.2byte	0x5f6
 1273 04a5 11       		.byte	0x11
 1274 04a6 9C000000 		.4byte	0x9c
 1275 04aa 08       		.byte	0x8
 1276 04ab 01       		.uleb128 0x1
 1277 04ac 47000000 		.4byte	.LASF84
 1278 04b0 F705     		.2byte	0x5f7
 1279 04b2 11       		.byte	0x11
 1280 04b3 9C000000 		.4byte	0x9c
 1281 04b7 0C       		.byte	0xc
 1282 04b8 03       		.uleb128 0x3
 1283 04b9 535200   		.ascii	"SR\000"
 1284 04bc F805     		.2byte	0x5f8
 1285 04be 11       		.byte	0x11
 1286 04bf 9C000000 		.4byte	0x9c
 1287 04c3 10       		.byte	0x10
 1288 04c4 03       		.uleb128 0x3
 1289 04c5 45475200 		.ascii	"EGR\000"
 1290 04c9 F905     		.2byte	0x5f9
 1291 04cb 11       		.byte	0x11
 1292 04cc 9C000000 		.4byte	0x9c
 1293 04d0 14       		.byte	0x14
 1294 04d1 01       		.uleb128 0x1
 1295 04d2 1E050000 		.4byte	.LASF85
 1296 04d6 FA05     		.2byte	0x5fa
 1297 04d8 11       		.byte	0x11
 1298 04d9 9C000000 		.4byte	0x9c
 1299 04dd 18       		.byte	0x18
 1300 04de 01       		.uleb128 0x1
 1301 04df E2000000 		.4byte	.LASF86
 1302 04e3 FB05     		.2byte	0x5fb
 1303 04e5 11       		.byte	0x11
 1304 04e6 9C000000 		.4byte	0x9c
 1305 04ea 1C       		.byte	0x1c
 1306 04eb 01       		.uleb128 0x1
 1307 04ec 5D010000 		.4byte	.LASF87
 1308 04f0 FC05     		.2byte	0x5fc
 1309 04f2 11       		.byte	0x11
 1310 04f3 9C000000 		.4byte	0x9c
ARM GAS  C:\Users\DEVELO~1\AppData\Local\Temp\ccab9Nj4.s 			page 24


 1311 04f7 20       		.byte	0x20
 1312 04f8 03       		.uleb128 0x3
 1313 04f9 434E5400 		.ascii	"CNT\000"
 1314 04fd FD05     		.2byte	0x5fd
 1315 04ff 11       		.byte	0x11
 1316 0500 9C000000 		.4byte	0x9c
 1317 0504 24       		.byte	0x24
 1318 0505 03       		.uleb128 0x3
 1319 0506 50534300 		.ascii	"PSC\000"
 1320 050a FE05     		.2byte	0x5fe
 1321 050c 11       		.byte	0x11
 1322 050d 9C000000 		.4byte	0x9c
 1323 0511 28       		.byte	0x28
 1324 0512 03       		.uleb128 0x3
 1325 0513 41525200 		.ascii	"ARR\000"
 1326 0517 FF05     		.2byte	0x5ff
 1327 0519 11       		.byte	0x11
 1328 051a 9C000000 		.4byte	0x9c
 1329 051e 2C       		.byte	0x2c
 1330 051f 03       		.uleb128 0x3
 1331 0520 52435200 		.ascii	"RCR\000"
 1332 0524 0006     		.2byte	0x600
 1333 0526 11       		.byte	0x11
 1334 0527 9C000000 		.4byte	0x9c
 1335 052b 30       		.byte	0x30
 1336 052c 01       		.uleb128 0x1
 1337 052d E3040000 		.4byte	.LASF88
 1338 0531 0106     		.2byte	0x601
 1339 0533 11       		.byte	0x11
 1340 0534 9C000000 		.4byte	0x9c
 1341 0538 34       		.byte	0x34
 1342 0539 01       		.uleb128 0x1
 1343 053a E8040000 		.4byte	.LASF89
 1344 053e 0206     		.2byte	0x602
 1345 0540 11       		.byte	0x11
 1346 0541 9C000000 		.4byte	0x9c
 1347 0545 38       		.byte	0x38
 1348 0546 01       		.uleb128 0x1
 1349 0547 ED040000 		.4byte	.LASF90
 1350 054b 0306     		.2byte	0x603
 1351 054d 11       		.byte	0x11
 1352 054e 9C000000 		.4byte	0x9c
 1353 0552 3C       		.byte	0x3c
 1354 0553 01       		.uleb128 0x1
 1355 0554 F2040000 		.4byte	.LASF91
 1356 0558 0406     		.2byte	0x604
 1357 055a 11       		.byte	0x11
 1358 055b 9C000000 		.4byte	0x9c
 1359 055f 40       		.byte	0x40
 1360 0560 01       		.uleb128 0x1
 1361 0561 BE000000 		.4byte	.LASF92
 1362 0565 0506     		.2byte	0x605
 1363 0567 11       		.byte	0x11
 1364 0568 9C000000 		.4byte	0x9c
 1365 056c 44       		.byte	0x44
 1366 056d 03       		.uleb128 0x3
 1367 056e 44435200 		.ascii	"DCR\000"
ARM GAS  C:\Users\DEVELO~1\AppData\Local\Temp\ccab9Nj4.s 			page 25


 1368 0572 0606     		.2byte	0x606
 1369 0574 11       		.byte	0x11
 1370 0575 9C000000 		.4byte	0x9c
 1371 0579 48       		.byte	0x48
 1372 057a 01       		.uleb128 0x1
 1373 057b 80040000 		.4byte	.LASF93
 1374 057f 0706     		.2byte	0x607
 1375 0581 11       		.byte	0x11
 1376 0582 9C000000 		.4byte	0x9c
 1377 0586 4C       		.byte	0x4c
 1378 0587 01       		.uleb128 0x1
 1379 0588 8A030000 		.4byte	.LASF25
 1380 058c 0806     		.2byte	0x608
 1381 058e 11       		.byte	0x11
 1382 058f 90000000 		.4byte	0x90
 1383 0593 50       		.byte	0x50
 1384 0594 01       		.uleb128 0x1
 1385 0595 5D000000 		.4byte	.LASF94
 1386 0599 0906     		.2byte	0x609
 1387 059b 11       		.byte	0x11
 1388 059c 9C000000 		.4byte	0x9c
 1389 05a0 54       		.byte	0x54
 1390 05a1 01       		.uleb128 0x1
 1391 05a2 F7040000 		.4byte	.LASF95
 1392 05a6 0A06     		.2byte	0x60a
 1393 05a8 11       		.byte	0x11
 1394 05a9 9C000000 		.4byte	0x9c
 1395 05ad 58       		.byte	0x58
 1396 05ae 01       		.uleb128 0x1
 1397 05af FC040000 		.4byte	.LASF96
 1398 05b3 0B06     		.2byte	0x60b
 1399 05b5 11       		.byte	0x11
 1400 05b6 9C000000 		.4byte	0x9c
 1401 05ba 5C       		.byte	0x5c
 1402 05bb 03       		.uleb128 0x3
 1403 05bc 41463100 		.ascii	"AF1\000"
 1404 05c0 0C06     		.2byte	0x60c
 1405 05c2 11       		.byte	0x11
 1406 05c3 9C000000 		.4byte	0x9c
 1407 05c7 60       		.byte	0x60
 1408 05c8 03       		.uleb128 0x3
 1409 05c9 41463200 		.ascii	"AF2\000"
 1410 05cd 0D06     		.2byte	0x60d
 1411 05cf 11       		.byte	0x11
 1412 05d0 9C000000 		.4byte	0x9c
 1413 05d4 64       		.byte	0x64
 1414 05d5 01       		.uleb128 0x1
 1415 05d6 4B020000 		.4byte	.LASF97
 1416 05da 0E06     		.2byte	0x60e
 1417 05dc 11       		.byte	0x11
 1418 05dd 9C000000 		.4byte	0x9c
 1419 05e1 68       		.byte	0x68
 1420 05e2 00       		.byte	0
 1421 05e3 11       		.uleb128 0x11
 1422 05e4 77000000 		.4byte	.LASF98
 1423 05e8 0F06     		.2byte	0x60f
 1424 05ea 7A040000 		.4byte	0x47a
ARM GAS  C:\Users\DEVELO~1\AppData\Local\Temp\ccab9Nj4.s 			page 26


 1425 05ee 04       		.uleb128 0x4
 1426 05ef 01       		.byte	0x1
 1427 05f0 02       		.byte	0x2
 1428 05f1 C3030000 		.4byte	.LASF99
 1429 05f5 08       		.uleb128 0x8
 1430 05f6 84000000 		.4byte	0x84
 1431 05fa 05060000 		.4byte	0x605
 1432 05fe 09       		.uleb128 0x9
 1433 05ff 7D000000 		.4byte	0x7d
 1434 0603 03       		.byte	0x3
 1435 0604 00       		.byte	0
 1436 0605 0F       		.uleb128 0xf
 1437 0606 02010000 		.4byte	.LASF100
 1438 060a 09       		.byte	0x9
 1439 060b 10       		.byte	0x10
 1440 060c F5050000 		.4byte	0x5f5
 1441 0610 05       		.uleb128 0x5
 1442 0611 03       		.byte	0x3
 1443 0612 00000000 		.4byte	last_val
 1444 0616 08       		.uleb128 0x8
 1445 0617 26060000 		.4byte	0x626
 1446 061b 26060000 		.4byte	0x626
 1447 061f 09       		.uleb128 0x9
 1448 0620 7D000000 		.4byte	0x7d
 1449 0624 03       		.byte	0x3
 1450 0625 00       		.byte	0
 1451 0626 1E       		.uleb128 0x1e
 1452 0627 04       		.byte	0x4
 1453 0628 E3050000 		.4byte	0x5e3
 1454 062c 0F       		.uleb128 0xf
 1455 062d 83000000 		.4byte	.LASF101
 1456 0631 0C       		.byte	0xc
 1457 0632 15       		.byte	0x15
 1458 0633 16060000 		.4byte	0x616
 1459 0637 05       		.uleb128 0x5
 1460 0638 03       		.byte	0x3
 1461 0639 00000000 		.4byte	timers
 1462 063d 0F       		.uleb128 0xf
 1463 063e 8A000000 		.4byte	.LASF102
 1464 0642 1B       		.byte	0x1b
 1465 0643 0D       		.byte	0xd
 1466 0644 EE050000 		.4byte	0x5ee
 1467 0648 05       		.uleb128 0x5
 1468 0649 03       		.byte	0x3
 1469 064a 00000000 		.4byte	encoders_started
 1470 064e 12       		.uleb128 0x12
 1471 064f 4C030000 		.4byte	.LASF104
 1472 0653 76       		.byte	0x76
 1473 0654 84000000 		.4byte	0x84
 1474 0658 00000000 		.4byte	.LFB455
 1475 065c 48000000 		.4byte	.LFE455-.LFB455
 1476 0660 01       		.uleb128 0x1
 1477 0661 9C       		.byte	0x9c
 1478 0662 F6060000 		.4byte	0x6f6
 1479 0666 13       		.uleb128 0x13
 1480 0667 696400   		.ascii	"id\000"
 1481 066a 76       		.byte	0x76
ARM GAS  C:\Users\DEVELO~1\AppData\Local\Temp\ccab9Nj4.s 			page 27


 1482 066b 32       		.byte	0x32
 1483 066c CF000000 		.4byte	0xcf
 1484 0670 14000000 		.4byte	.LLST25
 1485 0674 0C000000 		.4byte	.LVUS25
 1486 0678 14       		.uleb128 0x14
 1487 0679 6400     		.ascii	"d\000"
 1488 067b 77       		.byte	0x77
 1489 067c 0D       		.byte	0xd
 1490 067d 84000000 		.4byte	0x84
 1491 0681 36000000 		.4byte	.LLST26
 1492 0685 34000000 		.4byte	.LVUS26
 1493 0689 0A       		.uleb128 0xa
 1494 068a F6060000 		.4byte	0x6f6
 1495 068e 00000000 		.4byte	.LBI104
 1496 0692 02       		.byte	.LVU201
 1497 0693 7D000000 		.4byte	.LLRL27
 1498 0697 77       		.byte	0x77
 1499 0698 11       		.byte	0x11
 1500 0699 02       		.uleb128 0x2
 1501 069a 07070000 		.4byte	0x707
 1502 069e 45000000 		.4byte	.LLST28
 1503 06a2 3F000000 		.4byte	.LVUS28
 1504 06a6 15       		.uleb128 0x15
 1505 06a7 7D000000 		.4byte	.LLRL27
 1506 06ab 0B       		.uleb128 0xb
 1507 06ac 12070000 		.4byte	0x712
 1508 06b0 0B       		.uleb128 0xb
 1509 06b1 1E070000 		.4byte	0x71e
 1510 06b5 0A       		.uleb128 0xa
 1511 06b6 F6060000 		.4byte	0x6f6
 1512 06ba 04000000 		.4byte	.LBI106
 1513 06be 00       		.byte	.LVU204
 1514 06bf 8C000000 		.4byte	.LLRL29
 1515 06c3 6B       		.byte	0x6b
 1516 06c4 09       		.byte	0x9
 1517 06c5 02       		.uleb128 0x2
 1518 06c6 07070000 		.4byte	0x707
 1519 06ca 61000000 		.4byte	.LLST30
 1520 06ce 5D000000 		.4byte	.LVUS30
 1521 06d2 15       		.uleb128 0x15
 1522 06d3 8C000000 		.4byte	.LLRL29
 1523 06d7 0C       		.uleb128 0xc
 1524 06d8 12070000 		.4byte	0x712
 1525 06dc 79000000 		.4byte	.LLST31
 1526 06e0 75000000 		.4byte	.LVUS31
 1527 06e4 0C       		.uleb128 0xc
 1528 06e5 1E070000 		.4byte	0x71e
 1529 06e9 91000000 		.4byte	.LLST32
 1530 06ed 8F000000 		.4byte	.LVUS32
 1531 06f1 00       		.byte	0
 1532 06f2 00       		.byte	0
 1533 06f3 00       		.byte	0
 1534 06f4 00       		.byte	0
 1535 06f5 00       		.byte	0
 1536 06f6 1F       		.uleb128 0x1f
 1537 06f7 C2040000 		.4byte	.LASF114
 1538 06fb 01       		.byte	0x1
ARM GAS  C:\Users\DEVELO~1\AppData\Local\Temp\ccab9Nj4.s 			page 28


 1539 06fc 6B       		.byte	0x6b
 1540 06fd 09       		.byte	0x9
 1541 06fe 84000000 		.4byte	0x84
 1542 0702 01       		.byte	0x1
 1543 0703 2B070000 		.4byte	0x72b
 1544 0707 0D       		.uleb128 0xd
 1545 0708 696400   		.ascii	"id\000"
 1546 070b 01       		.byte	0x1
 1547 070c 6B       		.byte	0x6b
 1548 070d 2C       		.byte	0x2c
 1549 070e CF000000 		.4byte	0xcf
 1550 0712 20       		.uleb128 0x20
 1551 0713 6E6F7700 		.ascii	"now\000"
 1552 0717 01       		.byte	0x1
 1553 0718 6F       		.byte	0x6f
 1554 0719 0D       		.byte	0xd
 1555 071a 84000000 		.4byte	0x84
 1556 071e 21       		.uleb128 0x21
 1557 071f B8000000 		.4byte	.LASF103
 1558 0723 01       		.byte	0x1
 1559 0724 70       		.byte	0x70
 1560 0725 0D       		.byte	0xd
 1561 0726 84000000 		.4byte	0x84
 1562 072a 00       		.byte	0
 1563 072b 16       		.uleb128 0x16
 1564 072c 68030000 		.4byte	.LASF106
 1565 0730 63       		.byte	0x63
 1566 0731 00000000 		.4byte	.LFB453
 1567 0735 20000000 		.4byte	.LFE453-.LFB453
 1568 0739 01       		.uleb128 0x1
 1569 073a 9C       		.byte	0x9c
 1570 073b 4D070000 		.4byte	0x74d
 1571 073f 22       		.uleb128 0x22
 1572 0740 696400   		.ascii	"id\000"
 1573 0743 01       		.byte	0x1
 1574 0744 63       		.byte	0x63
 1575 0745 25       		.byte	0x25
 1576 0746 CF000000 		.4byte	0xcf
 1577 074a 01       		.uleb128 0x1
 1578 074b 50       		.byte	0x50
 1579 074c 00       		.byte	0
 1580 074d 12       		.uleb128 0x12
 1581 074e D2000000 		.4byte	.LASF105
 1582 0752 5C       		.byte	0x5c
 1583 0753 84000000 		.4byte	0x84
 1584 0757 00000000 		.4byte	.LFB452
 1585 075b 18000000 		.4byte	.LFE452-.LFB452
 1586 075f 01       		.uleb128 0x1
 1587 0760 9C       		.byte	0x9c
 1588 0761 78070000 		.4byte	0x778
 1589 0765 13       		.uleb128 0x13
 1590 0766 696400   		.ascii	"id\000"
 1591 0769 5C       		.byte	0x5c
 1592 076a 26       		.byte	0x26
 1593 076b CF000000 		.4byte	0xcf
 1594 076f A2000000 		.4byte	.LLST20
 1595 0773 9A000000 		.4byte	.LVUS20
ARM GAS  C:\Users\DEVELO~1\AppData\Local\Temp\ccab9Nj4.s 			page 29


 1596 0777 00       		.byte	0
 1597 0778 16       		.uleb128 0x16
 1598 0779 1D030000 		.4byte	.LASF107
 1599 077d 4A       		.byte	0x4a
 1600 077e 00000000 		.4byte	.LFB451
 1601 0782 24010000 		.4byte	.LFE451-.LFB451
 1602 0786 01       		.uleb128 0x1
 1603 0787 9C       		.byte	0x9c
 1604 0788 FE080000 		.4byte	0x8fe
 1605 078c 23       		.uleb128 0x23
 1606 078d 6B000000 		.4byte	.LLRL18
 1607 0791 A7070000 		.4byte	0x7a7
 1608 0795 14       		.uleb128 0x14
 1609 0796 6900     		.ascii	"i\000"
 1610 0798 56       		.byte	0x56
 1611 0799 0E       		.byte	0xe
 1612 079a 76000000 		.4byte	0x76
 1613 079e CC000000 		.4byte	.LLST19
 1614 07a2 C2000000 		.4byte	.LVUS19
 1615 07a6 00       		.byte	0
 1616 07a7 0E       		.uleb128 0xe
 1617 07a8 18090000 		.4byte	0x918
 1618 07ac 08000000 		.4byte	.LBI48
 1619 07b0 01       		.byte	.LVU5
 1620 07b1 0C000000 		.4byte	.LLRL0
 1621 07b5 4F       		.byte	0x4f
 1622 07b6 78080000 		.4byte	0x878
 1623 07ba 0E       		.uleb128 0xe
 1624 07bb 3E090000 		.4byte	0x93e
 1625 07bf 08000000 		.4byte	.LBI49
 1626 07c3 03       		.byte	.LVU7
 1627 07c4 1F000000 		.4byte	.LLRL1
 1628 07c8 22       		.byte	0x22
 1629 07c9 E8070000 		.4byte	0x7e8
 1630 07cd 02       		.uleb128 0x2
 1631 07ce 57090000 		.4byte	0x957
 1632 07d2 F2000000 		.4byte	.LLST2
 1633 07d6 F0000000 		.4byte	.LVUS2
 1634 07da 02       		.uleb128 0x2
 1635 07db 4B090000 		.4byte	0x94b
 1636 07df F2000000 		.4byte	.LLST2
 1637 07e3 F0000000 		.4byte	.LVUS2
 1638 07e7 00       		.byte	0
 1639 07e8 10       		.uleb128 0x10
 1640 07e9 3E090000 		.4byte	0x93e
 1641 07ed 32000000 		.4byte	.LBI55
 1642 07f1 02       		.byte	.LVU22
 1643 07f2 32000000 		.4byte	.LBB55
 1644 07f6 1C000000 		.4byte	.LBE55-.LBB55
 1645 07fa 23       		.byte	0x23
 1646 07fb 1A080000 		.4byte	0x81a
 1647 07ff 02       		.uleb128 0x2
 1648 0800 57090000 		.4byte	0x957
 1649 0804 FE000000 		.4byte	.LLST4
 1650 0808 FC000000 		.4byte	.LVUS4
 1651 080c 02       		.uleb128 0x2
 1652 080d 4B090000 		.4byte	0x94b
ARM GAS  C:\Users\DEVELO~1\AppData\Local\Temp\ccab9Nj4.s 			page 30


 1653 0811 0A010000 		.4byte	.LLST5
 1654 0815 08010000 		.4byte	.LVUS5
 1655 0819 00       		.byte	0
 1656 081a 10       		.uleb128 0x10
 1657 081b 3E090000 		.4byte	0x93e
 1658 081f 4E000000 		.4byte	.LBI57
 1659 0823 02       		.byte	.LVU31
 1660 0824 4E000000 		.4byte	.LBB57
 1661 0828 1C000000 		.4byte	.LBE57-.LBB57
 1662 082c 24       		.byte	0x24
 1663 082d 4C080000 		.4byte	0x84c
 1664 0831 02       		.uleb128 0x2
 1665 0832 57090000 		.4byte	0x957
 1666 0836 16010000 		.4byte	.LLST6
 1667 083a 14010000 		.4byte	.LVUS6
 1668 083e 02       		.uleb128 0x2
 1669 083f 4B090000 		.4byte	0x94b
 1670 0843 22010000 		.4byte	.LLST7
 1671 0847 20010000 		.4byte	.LVUS7
 1672 084b 00       		.byte	0
 1673 084c 0A       		.uleb128 0xa
 1674 084d 3E090000 		.4byte	0x93e
 1675 0851 6A000000 		.4byte	.LBI59
 1676 0855 02       		.byte	.LVU40
 1677 0856 2E000000 		.4byte	.LLRL8
 1678 085a 25       		.byte	0x25
 1679 085b 05       		.byte	0x5
 1680 085c 02       		.uleb128 0x2
 1681 085d 57090000 		.4byte	0x957
 1682 0861 2E010000 		.4byte	.LLST9
 1683 0865 2C010000 		.4byte	.LVUS9
 1684 0869 02       		.uleb128 0x2
 1685 086a 4B090000 		.4byte	0x94b
 1686 086e 3A010000 		.4byte	.LLST10
 1687 0872 38010000 		.4byte	.LVUS10
 1688 0876 00       		.byte	0
 1689 0877 00       		.byte	0
 1690 0878 0E       		.uleb128 0xe
 1691 0879 FE080000 		.4byte	0x8fe
 1692 087d 88000000 		.4byte	.LBI63
 1693 0881 02       		.byte	.LVU51
 1694 0882 3A000000 		.4byte	.LLRL11
 1695 0886 51       		.byte	0x51
 1696 0887 99080000 		.4byte	0x899
 1697 088b 02       		.uleb128 0x2
 1698 088c 0B090000 		.4byte	0x90b
 1699 0890 46010000 		.4byte	.LLST12
 1700 0894 44010000 		.4byte	.LVUS12
 1701 0898 00       		.byte	0
 1702 0899 10       		.uleb128 0x10
 1703 089a FE080000 		.4byte	0x8fe
 1704 089e A0000000 		.4byte	.LBI74
 1705 08a2 02       		.byte	.LVU72
 1706 08a3 A0000000 		.4byte	.LBB74
 1707 08a7 1C000000 		.4byte	.LBE74-.LBB74
 1708 08ab 52       		.byte	0x52
 1709 08ac BE080000 		.4byte	0x8be
ARM GAS  C:\Users\DEVELO~1\AppData\Local\Temp\ccab9Nj4.s 			page 31


 1710 08b0 02       		.uleb128 0x2
 1711 08b1 0B090000 		.4byte	0x90b
 1712 08b5 56010000 		.4byte	.LLST13
 1713 08b9 54010000 		.4byte	.LVUS13
 1714 08bd 00       		.byte	0
 1715 08be 0E       		.uleb128 0xe
 1716 08bf FE080000 		.4byte	0x8fe
 1717 08c3 BC000000 		.4byte	.LBI76
 1718 08c7 02       		.byte	.LVU93
 1719 08c8 4D000000 		.4byte	.LLRL14
 1720 08cc 53       		.byte	0x53
 1721 08cd DF080000 		.4byte	0x8df
 1722 08d1 02       		.uleb128 0x2
 1723 08d2 0B090000 		.4byte	0x90b
 1724 08d6 64010000 		.4byte	.LLST15
 1725 08da 62010000 		.4byte	.LVUS15
 1726 08de 00       		.byte	0
 1727 08df 0A       		.uleb128 0xa
 1728 08e0 FE080000 		.4byte	0x8fe
 1729 08e4 EC000000 		.4byte	.LBI79
 1730 08e8 02       		.byte	.LVU114
 1731 08e9 59000000 		.4byte	.LLRL16
 1732 08ed 54       		.byte	0x54
 1733 08ee 05       		.byte	0x5
 1734 08ef 02       		.uleb128 0x2
 1735 08f0 0B090000 		.4byte	0x90b
 1736 08f4 74010000 		.4byte	.LLST17
 1737 08f8 72010000 		.4byte	.LVUS17
 1738 08fc 00       		.byte	0
 1739 08fd 00       		.byte	0
 1740 08fe 17       		.uleb128 0x17
 1741 08ff 98040000 		.4byte	.LASF108
 1742 0903 01       		.byte	0x1
 1743 0904 2C       		.byte	0x2c
 1744 0905 0D       		.byte	0xd
 1745 0906 01       		.byte	0x1
 1746 0907 18090000 		.4byte	0x918
 1747 090b 0D       		.uleb128 0xd
 1748 090c 74696D00 		.ascii	"tim\000"
 1749 0910 01       		.byte	0x1
 1750 0911 2C       		.byte	0x2c
 1751 0912 2B       		.byte	0x2b
 1752 0913 26060000 		.4byte	0x626
 1753 0917 00       		.byte	0
 1754 0918 24       		.uleb128 0x24
 1755 0919 36010000 		.4byte	.LASF115
 1756 091d 01       		.byte	0x1
 1757 091e 21       		.byte	0x21
 1758 091f 0D       		.byte	0xd
 1759 0920 01       		.byte	0x1
 1760 0921 25       		.uleb128 0x25
 1761 0922 34040000 		.4byte	.LASF116
 1762 0926 01       		.byte	0x1
 1763 0927 17       		.byte	0x17
 1764 0928 0D       		.byte	0xd
 1765 0929 EE050000 		.4byte	0x5ee
 1766 092d 01       		.byte	0x1
ARM GAS  C:\Users\DEVELO~1\AppData\Local\Temp\ccab9Nj4.s 			page 32


 1767 092e 3E090000 		.4byte	0x93e
 1768 0932 0D       		.uleb128 0xd
 1769 0933 696400   		.ascii	"id\000"
 1770 0936 01       		.byte	0x1
 1771 0937 17       		.byte	0x17
 1772 0938 2B       		.byte	0x2b
 1773 0939 CF000000 		.4byte	0xcf
 1774 093d 00       		.byte	0
 1775 093e 17       		.uleb128 0x17
 1776 093f 05030000 		.4byte	.LASF109
 1777 0943 02       		.byte	0x2
 1778 0944 8D       		.byte	0x8d
 1779 0945 16       		.byte	0x16
 1780 0946 03       		.byte	0x3
 1781 0947 63090000 		.4byte	0x963
 1782 094b 26       		.uleb128 0x26
 1783 094c A7010000 		.4byte	.LASF110
 1784 0950 02       		.byte	0x2
 1785 0951 8D       		.byte	0x8d
 1786 0952 2E       		.byte	0x2e
 1787 0953 90000000 		.4byte	0x90
 1788 0957 0D       		.uleb128 0xd
 1789 0958 6C7000   		.ascii	"lp\000"
 1790 095b 02       		.byte	0x2
 1791 095c 8D       		.byte	0x8d
 1792 095d 39       		.byte	0x39
 1793 095e EE050000 		.4byte	0x5ee
 1794 0962 00       		.byte	0
 1795 0963 27       		.uleb128 0x27
 1796 0964 F6060000 		.4byte	0x6f6
 1797 0968 00000000 		.4byte	.LFB454
 1798 096c 28000000 		.4byte	.LFE454-.LFB454
 1799 0970 01       		.uleb128 0x1
 1800 0971 9C       		.byte	0x9c
 1801 0972 02       		.uleb128 0x2
 1802 0973 07070000 		.4byte	0x707
 1803 0977 8A010000 		.4byte	.LLST21
 1804 097b 82010000 		.4byte	.LVUS21
 1805 097f 0B       		.uleb128 0xb
 1806 0980 12070000 		.4byte	0x712
 1807 0984 0B       		.uleb128 0xb
 1808 0985 1E070000 		.4byte	0x71e
 1809 0989 28       		.uleb128 0x28
 1810 098a F6060000 		.4byte	0x6f6
 1811 098e 04000000 		.4byte	.LBI96
 1812 0992 00       		.byte	.LVU182
 1813 0993 04000000 		.4byte	.LBB96
 1814 0997 18000000 		.4byte	.LBE96-.LBB96
 1815 099b 01       		.byte	0x1
 1816 099c 6B       		.byte	0x6b
 1817 099d 09       		.byte	0x9
 1818 099e 02       		.uleb128 0x2
 1819 099f 07070000 		.4byte	0x707
 1820 09a3 AE010000 		.4byte	.LLST22
 1821 09a7 AA010000 		.4byte	.LVUS22
 1822 09ab 0C       		.uleb128 0xc
 1823 09ac 12070000 		.4byte	0x712
ARM GAS  C:\Users\DEVELO~1\AppData\Local\Temp\ccab9Nj4.s 			page 33


 1824 09b0 C4010000 		.4byte	.LLST23
 1825 09b4 C2010000 		.4byte	.LVUS23
 1826 09b8 0C       		.uleb128 0xc
 1827 09b9 1E070000 		.4byte	0x71e
 1828 09bd CF010000 		.4byte	.LLST24
 1829 09c1 CD010000 		.4byte	.LVUS24
 1830 09c5 00       		.byte	0
 1831 09c6 00       		.byte	0
 1832 09c7 00       		.byte	0
 1833              		.section	.debug_abbrev,"",%progbits
 1834              	.Ldebug_abbrev0:
 1835 0000 01       		.uleb128 0x1
 1836 0001 0D       		.uleb128 0xd
 1837 0002 00       		.byte	0
 1838 0003 03       		.uleb128 0x3
 1839 0004 0E       		.uleb128 0xe
 1840 0005 3A       		.uleb128 0x3a
 1841 0006 21       		.uleb128 0x21
 1842 0007 07       		.sleb128 7
 1843 0008 3B       		.uleb128 0x3b
 1844 0009 05       		.uleb128 0x5
 1845 000a 39       		.uleb128 0x39
 1846 000b 0B       		.uleb128 0xb
 1847 000c 49       		.uleb128 0x49
 1848 000d 13       		.uleb128 0x13
 1849 000e 38       		.uleb128 0x38
 1850 000f 0B       		.uleb128 0xb
 1851 0010 00       		.byte	0
 1852 0011 00       		.byte	0
 1853 0012 02       		.uleb128 0x2
 1854 0013 05       		.uleb128 0x5
 1855 0014 00       		.byte	0
 1856 0015 31       		.uleb128 0x31
 1857 0016 13       		.uleb128 0x13
 1858 0017 02       		.uleb128 0x2
 1859 0018 17       		.uleb128 0x17
 1860 0019 B742     		.uleb128 0x2137
 1861 001b 17       		.uleb128 0x17
 1862 001c 00       		.byte	0
 1863 001d 00       		.byte	0
 1864 001e 03       		.uleb128 0x3
 1865 001f 0D       		.uleb128 0xd
 1866 0020 00       		.byte	0
 1867 0021 03       		.uleb128 0x3
 1868 0022 08       		.uleb128 0x8
 1869 0023 3A       		.uleb128 0x3a
 1870 0024 21       		.uleb128 0x21
 1871 0025 07       		.sleb128 7
 1872 0026 3B       		.uleb128 0x3b
 1873 0027 05       		.uleb128 0x5
 1874 0028 39       		.uleb128 0x39
 1875 0029 0B       		.uleb128 0xb
 1876 002a 49       		.uleb128 0x49
 1877 002b 13       		.uleb128 0x13
 1878 002c 38       		.uleb128 0x38
 1879 002d 0B       		.uleb128 0xb
 1880 002e 00       		.byte	0
ARM GAS  C:\Users\DEVELO~1\AppData\Local\Temp\ccab9Nj4.s 			page 34


 1881 002f 00       		.byte	0
 1882 0030 04       		.uleb128 0x4
 1883 0031 24       		.uleb128 0x24
 1884 0032 00       		.byte	0
 1885 0033 0B       		.uleb128 0xb
 1886 0034 0B       		.uleb128 0xb
 1887 0035 3E       		.uleb128 0x3e
 1888 0036 0B       		.uleb128 0xb
 1889 0037 03       		.uleb128 0x3
 1890 0038 0E       		.uleb128 0xe
 1891 0039 00       		.byte	0
 1892 003a 00       		.byte	0
 1893 003b 05       		.uleb128 0x5
 1894 003c 0D       		.uleb128 0xd
 1895 003d 00       		.byte	0
 1896 003e 03       		.uleb128 0x3
 1897 003f 0E       		.uleb128 0xe
 1898 0040 3A       		.uleb128 0x3a
 1899 0041 21       		.uleb128 0x21
 1900 0042 07       		.sleb128 7
 1901 0043 3B       		.uleb128 0x3b
 1902 0044 05       		.uleb128 0x5
 1903 0045 39       		.uleb128 0x39
 1904 0046 0B       		.uleb128 0xb
 1905 0047 49       		.uleb128 0x49
 1906 0048 13       		.uleb128 0x13
 1907 0049 38       		.uleb128 0x38
 1908 004a 05       		.uleb128 0x5
 1909 004b 00       		.byte	0
 1910 004c 00       		.byte	0
 1911 004d 06       		.uleb128 0x6
 1912 004e 16       		.uleb128 0x16
 1913 004f 00       		.byte	0
 1914 0050 03       		.uleb128 0x3
 1915 0051 0E       		.uleb128 0xe
 1916 0052 3A       		.uleb128 0x3a
 1917 0053 0B       		.uleb128 0xb
 1918 0054 3B       		.uleb128 0x3b
 1919 0055 0B       		.uleb128 0xb
 1920 0056 39       		.uleb128 0x39
 1921 0057 0B       		.uleb128 0xb
 1922 0058 49       		.uleb128 0x49
 1923 0059 13       		.uleb128 0x13
 1924 005a 00       		.byte	0
 1925 005b 00       		.byte	0
 1926 005c 07       		.uleb128 0x7
 1927 005d 28       		.uleb128 0x28
 1928 005e 00       		.byte	0
 1929 005f 03       		.uleb128 0x3
 1930 0060 0E       		.uleb128 0xe
 1931 0061 1C       		.uleb128 0x1c
 1932 0062 0B       		.uleb128 0xb
 1933 0063 00       		.byte	0
 1934 0064 00       		.byte	0
 1935 0065 08       		.uleb128 0x8
 1936 0066 01       		.uleb128 0x1
 1937 0067 01       		.byte	0x1
ARM GAS  C:\Users\DEVELO~1\AppData\Local\Temp\ccab9Nj4.s 			page 35


 1938 0068 49       		.uleb128 0x49
 1939 0069 13       		.uleb128 0x13
 1940 006a 01       		.uleb128 0x1
 1941 006b 13       		.uleb128 0x13
 1942 006c 00       		.byte	0
 1943 006d 00       		.byte	0
 1944 006e 09       		.uleb128 0x9
 1945 006f 21       		.uleb128 0x21
 1946 0070 00       		.byte	0
 1947 0071 49       		.uleb128 0x49
 1948 0072 13       		.uleb128 0x13
 1949 0073 2F       		.uleb128 0x2f
 1950 0074 0B       		.uleb128 0xb
 1951 0075 00       		.byte	0
 1952 0076 00       		.byte	0
 1953 0077 0A       		.uleb128 0xa
 1954 0078 1D       		.uleb128 0x1d
 1955 0079 01       		.byte	0x1
 1956 007a 31       		.uleb128 0x31
 1957 007b 13       		.uleb128 0x13
 1958 007c 52       		.uleb128 0x52
 1959 007d 01       		.uleb128 0x1
 1960 007e B842     		.uleb128 0x2138
 1961 0080 0B       		.uleb128 0xb
 1962 0081 55       		.uleb128 0x55
 1963 0082 17       		.uleb128 0x17
 1964 0083 58       		.uleb128 0x58
 1965 0084 21       		.uleb128 0x21
 1966 0085 01       		.sleb128 1
 1967 0086 59       		.uleb128 0x59
 1968 0087 0B       		.uleb128 0xb
 1969 0088 57       		.uleb128 0x57
 1970 0089 0B       		.uleb128 0xb
 1971 008a 00       		.byte	0
 1972 008b 00       		.byte	0
 1973 008c 0B       		.uleb128 0xb
 1974 008d 34       		.uleb128 0x34
 1975 008e 00       		.byte	0
 1976 008f 31       		.uleb128 0x31
 1977 0090 13       		.uleb128 0x13
 1978 0091 00       		.byte	0
 1979 0092 00       		.byte	0
 1980 0093 0C       		.uleb128 0xc
 1981 0094 34       		.uleb128 0x34
 1982 0095 00       		.byte	0
 1983 0096 31       		.uleb128 0x31
 1984 0097 13       		.uleb128 0x13
 1985 0098 02       		.uleb128 0x2
 1986 0099 17       		.uleb128 0x17
 1987 009a B742     		.uleb128 0x2137
 1988 009c 17       		.uleb128 0x17
 1989 009d 00       		.byte	0
 1990 009e 00       		.byte	0
 1991 009f 0D       		.uleb128 0xd
 1992 00a0 05       		.uleb128 0x5
 1993 00a1 00       		.byte	0
 1994 00a2 03       		.uleb128 0x3
ARM GAS  C:\Users\DEVELO~1\AppData\Local\Temp\ccab9Nj4.s 			page 36


 1995 00a3 08       		.uleb128 0x8
 1996 00a4 3A       		.uleb128 0x3a
 1997 00a5 0B       		.uleb128 0xb
 1998 00a6 3B       		.uleb128 0x3b
 1999 00a7 0B       		.uleb128 0xb
 2000 00a8 39       		.uleb128 0x39
 2001 00a9 0B       		.uleb128 0xb
 2002 00aa 49       		.uleb128 0x49
 2003 00ab 13       		.uleb128 0x13
 2004 00ac 00       		.byte	0
 2005 00ad 00       		.byte	0
 2006 00ae 0E       		.uleb128 0xe
 2007 00af 1D       		.uleb128 0x1d
 2008 00b0 01       		.byte	0x1
 2009 00b1 31       		.uleb128 0x31
 2010 00b2 13       		.uleb128 0x13
 2011 00b3 52       		.uleb128 0x52
 2012 00b4 01       		.uleb128 0x1
 2013 00b5 B842     		.uleb128 0x2138
 2014 00b7 0B       		.uleb128 0xb
 2015 00b8 55       		.uleb128 0x55
 2016 00b9 17       		.uleb128 0x17
 2017 00ba 58       		.uleb128 0x58
 2018 00bb 21       		.uleb128 0x21
 2019 00bc 01       		.sleb128 1
 2020 00bd 59       		.uleb128 0x59
 2021 00be 0B       		.uleb128 0xb
 2022 00bf 57       		.uleb128 0x57
 2023 00c0 21       		.uleb128 0x21
 2024 00c1 05       		.sleb128 5
 2025 00c2 01       		.uleb128 0x1
 2026 00c3 13       		.uleb128 0x13
 2027 00c4 00       		.byte	0
 2028 00c5 00       		.byte	0
 2029 00c6 0F       		.uleb128 0xf
 2030 00c7 34       		.uleb128 0x34
 2031 00c8 00       		.byte	0
 2032 00c9 03       		.uleb128 0x3
 2033 00ca 0E       		.uleb128 0xe
 2034 00cb 3A       		.uleb128 0x3a
 2035 00cc 21       		.uleb128 0x21
 2036 00cd 01       		.sleb128 1
 2037 00ce 3B       		.uleb128 0x3b
 2038 00cf 0B       		.uleb128 0xb
 2039 00d0 39       		.uleb128 0x39
 2040 00d1 0B       		.uleb128 0xb
 2041 00d2 49       		.uleb128 0x49
 2042 00d3 13       		.uleb128 0x13
 2043 00d4 02       		.uleb128 0x2
 2044 00d5 18       		.uleb128 0x18
 2045 00d6 00       		.byte	0
 2046 00d7 00       		.byte	0
 2047 00d8 10       		.uleb128 0x10
 2048 00d9 1D       		.uleb128 0x1d
 2049 00da 01       		.byte	0x1
 2050 00db 31       		.uleb128 0x31
 2051 00dc 13       		.uleb128 0x13
ARM GAS  C:\Users\DEVELO~1\AppData\Local\Temp\ccab9Nj4.s 			page 37


 2052 00dd 52       		.uleb128 0x52
 2053 00de 01       		.uleb128 0x1
 2054 00df B842     		.uleb128 0x2138
 2055 00e1 0B       		.uleb128 0xb
 2056 00e2 11       		.uleb128 0x11
 2057 00e3 01       		.uleb128 0x1
 2058 00e4 12       		.uleb128 0x12
 2059 00e5 06       		.uleb128 0x6
 2060 00e6 58       		.uleb128 0x58
 2061 00e7 21       		.uleb128 0x21
 2062 00e8 01       		.sleb128 1
 2063 00e9 59       		.uleb128 0x59
 2064 00ea 0B       		.uleb128 0xb
 2065 00eb 57       		.uleb128 0x57
 2066 00ec 21       		.uleb128 0x21
 2067 00ed 05       		.sleb128 5
 2068 00ee 01       		.uleb128 0x1
 2069 00ef 13       		.uleb128 0x13
 2070 00f0 00       		.byte	0
 2071 00f1 00       		.byte	0
 2072 00f2 11       		.uleb128 0x11
 2073 00f3 16       		.uleb128 0x16
 2074 00f4 00       		.byte	0
 2075 00f5 03       		.uleb128 0x3
 2076 00f6 0E       		.uleb128 0xe
 2077 00f7 3A       		.uleb128 0x3a
 2078 00f8 21       		.uleb128 0x21
 2079 00f9 07       		.sleb128 7
 2080 00fa 3B       		.uleb128 0x3b
 2081 00fb 05       		.uleb128 0x5
 2082 00fc 39       		.uleb128 0x39
 2083 00fd 21       		.uleb128 0x21
 2084 00fe 03       		.sleb128 3
 2085 00ff 49       		.uleb128 0x49
 2086 0100 13       		.uleb128 0x13
 2087 0101 00       		.byte	0
 2088 0102 00       		.byte	0
 2089 0103 12       		.uleb128 0x12
 2090 0104 2E       		.uleb128 0x2e
 2091 0105 01       		.byte	0x1
 2092 0106 3F       		.uleb128 0x3f
 2093 0107 19       		.uleb128 0x19
 2094 0108 03       		.uleb128 0x3
 2095 0109 0E       		.uleb128 0xe
 2096 010a 3A       		.uleb128 0x3a
 2097 010b 21       		.uleb128 0x21
 2098 010c 01       		.sleb128 1
 2099 010d 3B       		.uleb128 0x3b
 2100 010e 0B       		.uleb128 0xb
 2101 010f 39       		.uleb128 0x39
 2102 0110 21       		.uleb128 0x21
 2103 0111 09       		.sleb128 9
 2104 0112 27       		.uleb128 0x27
 2105 0113 19       		.uleb128 0x19
 2106 0114 49       		.uleb128 0x49
 2107 0115 13       		.uleb128 0x13
 2108 0116 11       		.uleb128 0x11
ARM GAS  C:\Users\DEVELO~1\AppData\Local\Temp\ccab9Nj4.s 			page 38


 2109 0117 01       		.uleb128 0x1
 2110 0118 12       		.uleb128 0x12
 2111 0119 06       		.uleb128 0x6
 2112 011a 40       		.uleb128 0x40
 2113 011b 18       		.uleb128 0x18
 2114 011c 7A       		.uleb128 0x7a
 2115 011d 19       		.uleb128 0x19
 2116 011e 01       		.uleb128 0x1
 2117 011f 13       		.uleb128 0x13
 2118 0120 00       		.byte	0
 2119 0121 00       		.byte	0
 2120 0122 13       		.uleb128 0x13
 2121 0123 05       		.uleb128 0x5
 2122 0124 00       		.byte	0
 2123 0125 03       		.uleb128 0x3
 2124 0126 08       		.uleb128 0x8
 2125 0127 3A       		.uleb128 0x3a
 2126 0128 21       		.uleb128 0x21
 2127 0129 01       		.sleb128 1
 2128 012a 3B       		.uleb128 0x3b
 2129 012b 0B       		.uleb128 0xb
 2130 012c 39       		.uleb128 0x39
 2131 012d 0B       		.uleb128 0xb
 2132 012e 49       		.uleb128 0x49
 2133 012f 13       		.uleb128 0x13
 2134 0130 02       		.uleb128 0x2
 2135 0131 17       		.uleb128 0x17
 2136 0132 B742     		.uleb128 0x2137
 2137 0134 17       		.uleb128 0x17
 2138 0135 00       		.byte	0
 2139 0136 00       		.byte	0
 2140 0137 14       		.uleb128 0x14
 2141 0138 34       		.uleb128 0x34
 2142 0139 00       		.byte	0
 2143 013a 03       		.uleb128 0x3
 2144 013b 08       		.uleb128 0x8
 2145 013c 3A       		.uleb128 0x3a
 2146 013d 21       		.uleb128 0x21
 2147 013e 01       		.sleb128 1
 2148 013f 3B       		.uleb128 0x3b
 2149 0140 0B       		.uleb128 0xb
 2150 0141 39       		.uleb128 0x39
 2151 0142 0B       		.uleb128 0xb
 2152 0143 49       		.uleb128 0x49
 2153 0144 13       		.uleb128 0x13
 2154 0145 02       		.uleb128 0x2
 2155 0146 17       		.uleb128 0x17
 2156 0147 B742     		.uleb128 0x2137
 2157 0149 17       		.uleb128 0x17
 2158 014a 00       		.byte	0
 2159 014b 00       		.byte	0
 2160 014c 15       		.uleb128 0x15
 2161 014d 0B       		.uleb128 0xb
 2162 014e 01       		.byte	0x1
 2163 014f 55       		.uleb128 0x55
 2164 0150 17       		.uleb128 0x17
 2165 0151 00       		.byte	0
ARM GAS  C:\Users\DEVELO~1\AppData\Local\Temp\ccab9Nj4.s 			page 39


 2166 0152 00       		.byte	0
 2167 0153 16       		.uleb128 0x16
 2168 0154 2E       		.uleb128 0x2e
 2169 0155 01       		.byte	0x1
 2170 0156 3F       		.uleb128 0x3f
 2171 0157 19       		.uleb128 0x19
 2172 0158 03       		.uleb128 0x3
 2173 0159 0E       		.uleb128 0xe
 2174 015a 3A       		.uleb128 0x3a
 2175 015b 21       		.uleb128 0x21
 2176 015c 01       		.sleb128 1
 2177 015d 3B       		.uleb128 0x3b
 2178 015e 0B       		.uleb128 0xb
 2179 015f 39       		.uleb128 0x39
 2180 0160 21       		.uleb128 0x21
 2181 0161 06       		.sleb128 6
 2182 0162 27       		.uleb128 0x27
 2183 0163 19       		.uleb128 0x19
 2184 0164 11       		.uleb128 0x11
 2185 0165 01       		.uleb128 0x1
 2186 0166 12       		.uleb128 0x12
 2187 0167 06       		.uleb128 0x6
 2188 0168 40       		.uleb128 0x40
 2189 0169 18       		.uleb128 0x18
 2190 016a 7A       		.uleb128 0x7a
 2191 016b 19       		.uleb128 0x19
 2192 016c 01       		.uleb128 0x1
 2193 016d 13       		.uleb128 0x13
 2194 016e 00       		.byte	0
 2195 016f 00       		.byte	0
 2196 0170 17       		.uleb128 0x17
 2197 0171 2E       		.uleb128 0x2e
 2198 0172 01       		.byte	0x1
 2199 0173 03       		.uleb128 0x3
 2200 0174 0E       		.uleb128 0xe
 2201 0175 3A       		.uleb128 0x3a
 2202 0176 0B       		.uleb128 0xb
 2203 0177 3B       		.uleb128 0x3b
 2204 0178 0B       		.uleb128 0xb
 2205 0179 39       		.uleb128 0x39
 2206 017a 0B       		.uleb128 0xb
 2207 017b 27       		.uleb128 0x27
 2208 017c 19       		.uleb128 0x19
 2209 017d 20       		.uleb128 0x20
 2210 017e 0B       		.uleb128 0xb
 2211 017f 01       		.uleb128 0x1
 2212 0180 13       		.uleb128 0x13
 2213 0181 00       		.byte	0
 2214 0182 00       		.byte	0
 2215 0183 18       		.uleb128 0x18
 2216 0184 11       		.uleb128 0x11
 2217 0185 01       		.byte	0x1
 2218 0186 25       		.uleb128 0x25
 2219 0187 0E       		.uleb128 0xe
 2220 0188 13       		.uleb128 0x13
 2221 0189 0B       		.uleb128 0xb
 2222 018a 03       		.uleb128 0x3
ARM GAS  C:\Users\DEVELO~1\AppData\Local\Temp\ccab9Nj4.s 			page 40


 2223 018b 0E       		.uleb128 0xe
 2224 018c 1B       		.uleb128 0x1b
 2225 018d 0E       		.uleb128 0xe
 2226 018e 55       		.uleb128 0x55
 2227 018f 17       		.uleb128 0x17
 2228 0190 11       		.uleb128 0x11
 2229 0191 01       		.uleb128 0x1
 2230 0192 10       		.uleb128 0x10
 2231 0193 17       		.uleb128 0x17
 2232 0194 00       		.byte	0
 2233 0195 00       		.byte	0
 2234 0196 19       		.uleb128 0x19
 2235 0197 24       		.uleb128 0x24
 2236 0198 00       		.byte	0
 2237 0199 0B       		.uleb128 0xb
 2238 019a 0B       		.uleb128 0xb
 2239 019b 3E       		.uleb128 0x3e
 2240 019c 0B       		.uleb128 0xb
 2241 019d 03       		.uleb128 0x3
 2242 019e 08       		.uleb128 0x8
 2243 019f 00       		.byte	0
 2244 01a0 00       		.byte	0
 2245 01a1 1A       		.uleb128 0x1a
 2246 01a2 35       		.uleb128 0x35
 2247 01a3 00       		.byte	0
 2248 01a4 49       		.uleb128 0x49
 2249 01a5 13       		.uleb128 0x13
 2250 01a6 00       		.byte	0
 2251 01a7 00       		.byte	0
 2252 01a8 1B       		.uleb128 0x1b
 2253 01a9 04       		.uleb128 0x4
 2254 01aa 01       		.byte	0x1
 2255 01ab 3E       		.uleb128 0x3e
 2256 01ac 0B       		.uleb128 0xb
 2257 01ad 0B       		.uleb128 0xb
 2258 01ae 0B       		.uleb128 0xb
 2259 01af 49       		.uleb128 0x49
 2260 01b0 13       		.uleb128 0x13
 2261 01b1 3A       		.uleb128 0x3a
 2262 01b2 0B       		.uleb128 0xb
 2263 01b3 3B       		.uleb128 0x3b
 2264 01b4 0B       		.uleb128 0xb
 2265 01b5 39       		.uleb128 0x39
 2266 01b6 0B       		.uleb128 0xb
 2267 01b7 01       		.uleb128 0x1
 2268 01b8 13       		.uleb128 0x13
 2269 01b9 00       		.byte	0
 2270 01ba 00       		.byte	0
 2271 01bb 1C       		.uleb128 0x1c
 2272 01bc 13       		.uleb128 0x13
 2273 01bd 01       		.byte	0x1
 2274 01be 0B       		.uleb128 0xb
 2275 01bf 05       		.uleb128 0x5
 2276 01c0 3A       		.uleb128 0x3a
 2277 01c1 0B       		.uleb128 0xb
 2278 01c2 3B       		.uleb128 0x3b
 2279 01c3 05       		.uleb128 0x5
ARM GAS  C:\Users\DEVELO~1\AppData\Local\Temp\ccab9Nj4.s 			page 41


 2280 01c4 39       		.uleb128 0x39
 2281 01c5 0B       		.uleb128 0xb
 2282 01c6 01       		.uleb128 0x1
 2283 01c7 13       		.uleb128 0x13
 2284 01c8 00       		.byte	0
 2285 01c9 00       		.byte	0
 2286 01ca 1D       		.uleb128 0x1d
 2287 01cb 13       		.uleb128 0x13
 2288 01cc 01       		.byte	0x1
 2289 01cd 0B       		.uleb128 0xb
 2290 01ce 0B       		.uleb128 0xb
 2291 01cf 3A       		.uleb128 0x3a
 2292 01d0 0B       		.uleb128 0xb
 2293 01d1 3B       		.uleb128 0x3b
 2294 01d2 05       		.uleb128 0x5
 2295 01d3 39       		.uleb128 0x39
 2296 01d4 0B       		.uleb128 0xb
 2297 01d5 01       		.uleb128 0x1
 2298 01d6 13       		.uleb128 0x13
 2299 01d7 00       		.byte	0
 2300 01d8 00       		.byte	0
 2301 01d9 1E       		.uleb128 0x1e
 2302 01da 0F       		.uleb128 0xf
 2303 01db 00       		.byte	0
 2304 01dc 0B       		.uleb128 0xb
 2305 01dd 0B       		.uleb128 0xb
 2306 01de 49       		.uleb128 0x49
 2307 01df 13       		.uleb128 0x13
 2308 01e0 00       		.byte	0
 2309 01e1 00       		.byte	0
 2310 01e2 1F       		.uleb128 0x1f
 2311 01e3 2E       		.uleb128 0x2e
 2312 01e4 01       		.byte	0x1
 2313 01e5 3F       		.uleb128 0x3f
 2314 01e6 19       		.uleb128 0x19
 2315 01e7 03       		.uleb128 0x3
 2316 01e8 0E       		.uleb128 0xe
 2317 01e9 3A       		.uleb128 0x3a
 2318 01ea 0B       		.uleb128 0xb
 2319 01eb 3B       		.uleb128 0x3b
 2320 01ec 0B       		.uleb128 0xb
 2321 01ed 39       		.uleb128 0x39
 2322 01ee 0B       		.uleb128 0xb
 2323 01ef 27       		.uleb128 0x27
 2324 01f0 19       		.uleb128 0x19
 2325 01f1 49       		.uleb128 0x49
 2326 01f2 13       		.uleb128 0x13
 2327 01f3 20       		.uleb128 0x20
 2328 01f4 0B       		.uleb128 0xb
 2329 01f5 01       		.uleb128 0x1
 2330 01f6 13       		.uleb128 0x13
 2331 01f7 00       		.byte	0
 2332 01f8 00       		.byte	0
 2333 01f9 20       		.uleb128 0x20
 2334 01fa 34       		.uleb128 0x34
 2335 01fb 00       		.byte	0
 2336 01fc 03       		.uleb128 0x3
ARM GAS  C:\Users\DEVELO~1\AppData\Local\Temp\ccab9Nj4.s 			page 42


 2337 01fd 08       		.uleb128 0x8
 2338 01fe 3A       		.uleb128 0x3a
 2339 01ff 0B       		.uleb128 0xb
 2340 0200 3B       		.uleb128 0x3b
 2341 0201 0B       		.uleb128 0xb
 2342 0202 39       		.uleb128 0x39
 2343 0203 0B       		.uleb128 0xb
 2344 0204 49       		.uleb128 0x49
 2345 0205 13       		.uleb128 0x13
 2346 0206 00       		.byte	0
 2347 0207 00       		.byte	0
 2348 0208 21       		.uleb128 0x21
 2349 0209 34       		.uleb128 0x34
 2350 020a 00       		.byte	0
 2351 020b 03       		.uleb128 0x3
 2352 020c 0E       		.uleb128 0xe
 2353 020d 3A       		.uleb128 0x3a
 2354 020e 0B       		.uleb128 0xb
 2355 020f 3B       		.uleb128 0x3b
 2356 0210 0B       		.uleb128 0xb
 2357 0211 39       		.uleb128 0x39
 2358 0212 0B       		.uleb128 0xb
 2359 0213 49       		.uleb128 0x49
 2360 0214 13       		.uleb128 0x13
 2361 0215 00       		.byte	0
 2362 0216 00       		.byte	0
 2363 0217 22       		.uleb128 0x22
 2364 0218 05       		.uleb128 0x5
 2365 0219 00       		.byte	0
 2366 021a 03       		.uleb128 0x3
 2367 021b 08       		.uleb128 0x8
 2368 021c 3A       		.uleb128 0x3a
 2369 021d 0B       		.uleb128 0xb
 2370 021e 3B       		.uleb128 0x3b
 2371 021f 0B       		.uleb128 0xb
 2372 0220 39       		.uleb128 0x39
 2373 0221 0B       		.uleb128 0xb
 2374 0222 49       		.uleb128 0x49
 2375 0223 13       		.uleb128 0x13
 2376 0224 02       		.uleb128 0x2
 2377 0225 18       		.uleb128 0x18
 2378 0226 00       		.byte	0
 2379 0227 00       		.byte	0
 2380 0228 23       		.uleb128 0x23
 2381 0229 0B       		.uleb128 0xb
 2382 022a 01       		.byte	0x1
 2383 022b 55       		.uleb128 0x55
 2384 022c 17       		.uleb128 0x17
 2385 022d 01       		.uleb128 0x1
 2386 022e 13       		.uleb128 0x13
 2387 022f 00       		.byte	0
 2388 0230 00       		.byte	0
 2389 0231 24       		.uleb128 0x24
 2390 0232 2E       		.uleb128 0x2e
 2391 0233 00       		.byte	0
 2392 0234 03       		.uleb128 0x3
 2393 0235 0E       		.uleb128 0xe
ARM GAS  C:\Users\DEVELO~1\AppData\Local\Temp\ccab9Nj4.s 			page 43


 2394 0236 3A       		.uleb128 0x3a
 2395 0237 0B       		.uleb128 0xb
 2396 0238 3B       		.uleb128 0x3b
 2397 0239 0B       		.uleb128 0xb
 2398 023a 39       		.uleb128 0x39
 2399 023b 0B       		.uleb128 0xb
 2400 023c 27       		.uleb128 0x27
 2401 023d 19       		.uleb128 0x19
 2402 023e 20       		.uleb128 0x20
 2403 023f 0B       		.uleb128 0xb
 2404 0240 00       		.byte	0
 2405 0241 00       		.byte	0
 2406 0242 25       		.uleb128 0x25
 2407 0243 2E       		.uleb128 0x2e
 2408 0244 01       		.byte	0x1
 2409 0245 03       		.uleb128 0x3
 2410 0246 0E       		.uleb128 0xe
 2411 0247 3A       		.uleb128 0x3a
 2412 0248 0B       		.uleb128 0xb
 2413 0249 3B       		.uleb128 0x3b
 2414 024a 0B       		.uleb128 0xb
 2415 024b 39       		.uleb128 0x39
 2416 024c 0B       		.uleb128 0xb
 2417 024d 27       		.uleb128 0x27
 2418 024e 19       		.uleb128 0x19
 2419 024f 49       		.uleb128 0x49
 2420 0250 13       		.uleb128 0x13
 2421 0251 20       		.uleb128 0x20
 2422 0252 0B       		.uleb128 0xb
 2423 0253 01       		.uleb128 0x1
 2424 0254 13       		.uleb128 0x13
 2425 0255 00       		.byte	0
 2426 0256 00       		.byte	0
 2427 0257 26       		.uleb128 0x26
 2428 0258 05       		.uleb128 0x5
 2429 0259 00       		.byte	0
 2430 025a 03       		.uleb128 0x3
 2431 025b 0E       		.uleb128 0xe
 2432 025c 3A       		.uleb128 0x3a
 2433 025d 0B       		.uleb128 0xb
 2434 025e 3B       		.uleb128 0x3b
 2435 025f 0B       		.uleb128 0xb
 2436 0260 39       		.uleb128 0x39
 2437 0261 0B       		.uleb128 0xb
 2438 0262 49       		.uleb128 0x49
 2439 0263 13       		.uleb128 0x13
 2440 0264 00       		.byte	0
 2441 0265 00       		.byte	0
 2442 0266 27       		.uleb128 0x27
 2443 0267 2E       		.uleb128 0x2e
 2444 0268 01       		.byte	0x1
 2445 0269 31       		.uleb128 0x31
 2446 026a 13       		.uleb128 0x13
 2447 026b 11       		.uleb128 0x11
 2448 026c 01       		.uleb128 0x1
 2449 026d 12       		.uleb128 0x12
 2450 026e 06       		.uleb128 0x6
ARM GAS  C:\Users\DEVELO~1\AppData\Local\Temp\ccab9Nj4.s 			page 44


 2451 026f 40       		.uleb128 0x40
 2452 0270 18       		.uleb128 0x18
 2453 0271 7A       		.uleb128 0x7a
 2454 0272 19       		.uleb128 0x19
 2455 0273 00       		.byte	0
 2456 0274 00       		.byte	0
 2457 0275 28       		.uleb128 0x28
 2458 0276 1D       		.uleb128 0x1d
 2459 0277 01       		.byte	0x1
 2460 0278 31       		.uleb128 0x31
 2461 0279 13       		.uleb128 0x13
 2462 027a 52       		.uleb128 0x52
 2463 027b 01       		.uleb128 0x1
 2464 027c B842     		.uleb128 0x2138
 2465 027e 0B       		.uleb128 0xb
 2466 027f 11       		.uleb128 0x11
 2467 0280 01       		.uleb128 0x1
 2468 0281 12       		.uleb128 0x12
 2469 0282 06       		.uleb128 0x6
 2470 0283 58       		.uleb128 0x58
 2471 0284 0B       		.uleb128 0xb
 2472 0285 59       		.uleb128 0x59
 2473 0286 0B       		.uleb128 0xb
 2474 0287 57       		.uleb128 0x57
 2475 0288 0B       		.uleb128 0xb
 2476 0289 00       		.byte	0
 2477 028a 00       		.byte	0
 2478 028b 00       		.byte	0
 2479              		.section	.debug_loclists,"",%progbits
 2480 0000 D4010000 		.4byte	.Ldebug_loc3-.Ldebug_loc2
 2481              	.Ldebug_loc2:
 2482 0004 0500     		.2byte	0x5
 2483 0006 04       		.byte	0x4
 2484 0007 00       		.byte	0
 2485 0008 00000000 		.4byte	0
 2486              	.Ldebug_loc0:
 2487              	.LVUS25:
 2488 000c 00       		.uleb128 0
 2489 000d 00       		.uleb128 .LVU215
 2490 000e 00       		.uleb128 .LVU215
 2491 000f 00       		.uleb128 .LVU229
 2492 0010 00       		.uleb128 .LVU229
 2493 0011 00       		.uleb128 .LVU230
 2494 0012 00       		.uleb128 .LVU230
 2495 0013 00       		.uleb128 0
 2496              	.LLST25:
 2497 0014 06       		.byte	0x6
 2498 0015 00000000 		.4byte	.LVL20
 2499 0019 04       		.byte	0x4
 2500 001a 00       		.uleb128 .LVL20-.LVL20
 2501 001b 1A       		.uleb128 .LVL24-.LVL20
 2502 001c 01       		.uleb128 0x1
 2503 001d 50       		.byte	0x50
 2504 001e 04       		.byte	0x4
 2505 001f 1A       		.uleb128 .LVL24-.LVL20
 2506 0020 34       		.uleb128 .LVL26-.LVL20
 2507 0021 04       		.uleb128 0x4
ARM GAS  C:\Users\DEVELO~1\AppData\Local\Temp\ccab9Nj4.s 			page 45


 2508 0022 A3       		.byte	0xa3
 2509 0023 01       		.uleb128 0x1
 2510 0024 50       		.byte	0x50
 2511 0025 9F       		.byte	0x9f
 2512 0026 04       		.byte	0x4
 2513 0027 34       		.uleb128 .LVL26-.LVL20
 2514 0028 36       		.uleb128 .LVL27-.LVL20
 2515 0029 01       		.uleb128 0x1
 2516 002a 50       		.byte	0x50
 2517 002b 04       		.byte	0x4
 2518 002c 36       		.uleb128 .LVL27-.LVL20
 2519 002d 48       		.uleb128 .LFE455-.LVL20
 2520 002e 04       		.uleb128 0x4
 2521 002f A3       		.byte	0xa3
 2522 0030 01       		.uleb128 0x1
 2523 0031 50       		.byte	0x50
 2524 0032 9F       		.byte	0x9f
 2525 0033 00       		.byte	0
 2526              	.LVUS26:
 2527 0034 02       		.uleb128 .LVU217
 2528 0035 00       		.uleb128 .LVU221
 2529              	.LLST26:
 2530 0036 08       		.byte	0x8
 2531 0037 1A000000 		.4byte	.LVL24
 2532 003b 06       		.uleb128 .LVL25-.LVL24
 2533 003c 01       		.uleb128 0x1
 2534 003d 50       		.byte	0x50
 2535 003e 00       		.byte	0
 2536              	.LVUS28:
 2537 003f 02       		.uleb128 .LVU201
 2538 0040 00       		.uleb128 .LVU215
 2539 0041 00       		.uleb128 .LVU215
 2540 0042 02       		.uleb128 .LVU217
 2541 0043 00       		.uleb128 .LVU229
 2542 0044 00       		.uleb128 .LVU230
 2543              	.LLST28:
 2544 0045 06       		.byte	0x6
 2545 0046 00000000 		.4byte	.LVL20
 2546 004a 04       		.byte	0x4
 2547 004b 00       		.uleb128 .LVL20-.LVL20
 2548 004c 1A       		.uleb128 .LVL24-.LVL20
 2549 004d 01       		.uleb128 0x1
 2550 004e 50       		.byte	0x50
 2551 004f 04       		.byte	0x4
 2552 0050 1A       		.uleb128 .LVL24-.LVL20
 2553 0051 1A       		.uleb128 .LVL24-.LVL20
 2554 0052 04       		.uleb128 0x4
 2555 0053 A3       		.byte	0xa3
 2556 0054 01       		.uleb128 0x1
 2557 0055 50       		.byte	0x50
 2558 0056 9F       		.byte	0x9f
 2559 0057 04       		.byte	0x4
 2560 0058 34       		.uleb128 .LVL26-.LVL20
 2561 0059 36       		.uleb128 .LVL27-.LVL20
 2562 005a 01       		.uleb128 0x1
 2563 005b 50       		.byte	0x50
 2564 005c 00       		.byte	0
ARM GAS  C:\Users\DEVELO~1\AppData\Local\Temp\ccab9Nj4.s 			page 46


 2565              	.LVUS30:
 2566 005d 00       		.uleb128 .LVU204
 2567 005e 00       		.uleb128 .LVU215
 2568 005f 00       		.uleb128 .LVU215
 2569 0060 02       		.uleb128 .LVU217
 2570              	.LLST30:
 2571 0061 08       		.byte	0x8
 2572 0062 04000000 		.4byte	.LVL21
 2573 0066 16       		.uleb128 .LVL24-.LVL21
 2574 0067 01       		.uleb128 0x1
 2575 0068 50       		.byte	0x50
 2576 0069 08       		.byte	0x8
 2577 006a 1A000000 		.4byte	.LVL24
 2578 006e 00       		.uleb128 .LVL24-.LVL24
 2579 006f 04       		.uleb128 0x4
 2580 0070 A3       		.byte	0xa3
 2581 0071 01       		.uleb128 0x1
 2582 0072 50       		.byte	0x50
 2583 0073 9F       		.byte	0x9f
 2584 0074 00       		.byte	0
 2585              	.LVUS31:
 2586 0075 00       		.uleb128 .LVU211
 2587 0076 00       		.uleb128 .LVU214
 2588 0077 00       		.uleb128 .LVU214
 2589 0078 00       		.uleb128 .LVU215
 2590              	.LLST31:
 2591 0079 06       		.byte	0x6
 2592 007a 12000000 		.4byte	.LVL22
 2593 007e 04       		.byte	0x4
 2594 007f 00       		.uleb128 .LVL22-.LVL22
 2595 0080 06       		.uleb128 .LVL23-.LVL22
 2596 0081 01       		.uleb128 0x1
 2597 0082 53       		.byte	0x53
 2598 0083 04       		.byte	0x4
 2599 0084 06       		.uleb128 .LVL23-.LVL22
 2600 0085 08       		.uleb128 .LVL24-.LVL22
 2601 0086 07       		.uleb128 0x7
 2602 0087 70       		.byte	0x70
 2603 0088 00       		.sleb128 0
 2604 0089 31       		.byte	0x31
 2605 008a 24       		.byte	0x24
 2606 008b 72       		.byte	0x72
 2607 008c 00       		.sleb128 0
 2608 008d 22       		.byte	0x22
 2609 008e 00       		.byte	0
 2610              	.LVUS32:
 2611 008f 00       		.uleb128 .LVU215
 2612 0090 02       		.uleb128 .LVU217
 2613              	.LLST32:
 2614 0091 08       		.byte	0x8
 2615 0092 1A000000 		.4byte	.LVL24
 2616 0096 00       		.uleb128 .LVL24-.LVL24
 2617 0097 01       		.uleb128 0x1
 2618 0098 50       		.byte	0x50
 2619 0099 00       		.byte	0
 2620              	.LVUS20:
 2621 009a 00       		.uleb128 0
ARM GAS  C:\Users\DEVELO~1\AppData\Local\Temp\ccab9Nj4.s 			page 47


 2622 009b 00       		.uleb128 .LVU164
 2623 009c 00       		.uleb128 .LVU164
 2624 009d 00       		.uleb128 .LVU165
 2625 009e 00       		.uleb128 .LVU165
 2626 009f 00       		.uleb128 .LVU166
 2627 00a0 00       		.uleb128 .LVU166
 2628 00a1 00       		.uleb128 0
 2629              	.LLST20:
 2630 00a2 06       		.byte	0x6
 2631 00a3 00000000 		.4byte	.LVL9
 2632 00a7 04       		.byte	0x4
 2633 00a8 00       		.uleb128 .LVL9-.LVL9
 2634 00a9 0C       		.uleb128 .LVL10-.LVL9
 2635 00aa 01       		.uleb128 0x1
 2636 00ab 50       		.byte	0x50
 2637 00ac 04       		.byte	0x4
 2638 00ad 0C       		.uleb128 .LVL10-.LVL9
 2639 00ae 10       		.uleb128 .LVL11-.LVL9
 2640 00af 04       		.uleb128 0x4
 2641 00b0 A3       		.byte	0xa3
 2642 00b1 01       		.uleb128 0x1
 2643 00b2 50       		.byte	0x50
 2644 00b3 9F       		.byte	0x9f
 2645 00b4 04       		.byte	0x4
 2646 00b5 10       		.uleb128 .LVL11-.LVL9
 2647 00b6 12       		.uleb128 .LVL12-.LVL9
 2648 00b7 01       		.uleb128 0x1
 2649 00b8 50       		.byte	0x50
 2650 00b9 04       		.byte	0x4
 2651 00ba 12       		.uleb128 .LVL12-.LVL9
 2652 00bb 18       		.uleb128 .LFE452-.LVL9
 2653 00bc 04       		.uleb128 0x4
 2654 00bd A3       		.byte	0xa3
 2655 00be 01       		.uleb128 0x1
 2656 00bf 50       		.byte	0x50
 2657 00c0 9F       		.byte	0x9f
 2658 00c1 00       		.byte	0
 2659              	.LVUS19:
 2660 00c2 03       		.uleb128 .LVU140
 2661 00c3 06       		.uleb128 .LVU143
 2662 00c4 06       		.uleb128 .LVU143
 2663 00c5 09       		.uleb128 .LVU146
 2664 00c6 09       		.uleb128 .LVU146
 2665 00c7 0C       		.uleb128 .LVU149
 2666 00c8 0C       		.uleb128 .LVU149
 2667 00c9 0F       		.uleb128 .LVU152
 2668 00ca 0F       		.uleb128 .LVU152
 2669 00cb 00       		.uleb128 0
 2670              	.LLST19:
 2671 00cc 06       		.byte	0x6
 2672 00cd 08010000 		.4byte	.LVL8
 2673 00d1 04       		.byte	0x4
 2674 00d2 00       		.uleb128 .LVL8-.LVL8
 2675 00d3 00       		.uleb128 .LVL8-.LVL8
 2676 00d4 02       		.uleb128 0x2
 2677 00d5 30       		.byte	0x30
 2678 00d6 9F       		.byte	0x9f
ARM GAS  C:\Users\DEVELO~1\AppData\Local\Temp\ccab9Nj4.s 			page 48


 2679 00d7 04       		.byte	0x4
 2680 00d8 00       		.uleb128 .LVL8-.LVL8
 2681 00d9 00       		.uleb128 .LVL8-.LVL8
 2682 00da 02       		.uleb128 0x2
 2683 00db 31       		.byte	0x31
 2684 00dc 9F       		.byte	0x9f
 2685 00dd 04       		.byte	0x4
 2686 00de 00       		.uleb128 .LVL8-.LVL8
 2687 00df 00       		.uleb128 .LVL8-.LVL8
 2688 00e0 02       		.uleb128 0x2
 2689 00e1 32       		.byte	0x32
 2690 00e2 9F       		.byte	0x9f
 2691 00e3 04       		.byte	0x4
 2692 00e4 00       		.uleb128 .LVL8-.LVL8
 2693 00e5 00       		.uleb128 .LVL8-.LVL8
 2694 00e6 02       		.uleb128 0x2
 2695 00e7 33       		.byte	0x33
 2696 00e8 9F       		.byte	0x9f
 2697 00e9 04       		.byte	0x4
 2698 00ea 00       		.uleb128 .LVL8-.LVL8
 2699 00eb 1C       		.uleb128 .LFE451-.LVL8
 2700 00ec 02       		.uleb128 0x2
 2701 00ed 34       		.byte	0x34
 2702 00ee 9F       		.byte	0x9f
 2703 00ef 00       		.byte	0
 2704              	.LVUS2:
 2705 00f0 03       		.uleb128 .LVU7
 2706 00f1 00       		.uleb128 .LVU20
 2707              	.LLST2:
 2708 00f2 08       		.byte	0x8
 2709 00f3 08000000 		.4byte	.LVL0
 2710 00f7 2A       		.uleb128 .LVL1-.LVL0
 2711 00f8 02       		.uleb128 0x2
 2712 00f9 31       		.byte	0x31
 2713 00fa 9F       		.byte	0x9f
 2714 00fb 00       		.byte	0
 2715              	.LVUS4:
 2716 00fc 02       		.uleb128 .LVU22
 2717 00fd 00       		.uleb128 .LVU29
 2718              	.LLST4:
 2719 00fe 08       		.byte	0x8
 2720 00ff 32000000 		.4byte	.LVL1
 2721 0103 1C       		.uleb128 .LVL2-.LVL1
 2722 0104 02       		.uleb128 0x2
 2723 0105 31       		.byte	0x31
 2724 0106 9F       		.byte	0x9f
 2725 0107 00       		.byte	0
 2726              	.LVUS5:
 2727 0108 02       		.uleb128 .LVU22
 2728 0109 00       		.uleb128 .LVU29
 2729              	.LLST5:
 2730 010a 08       		.byte	0x8
 2731 010b 32000000 		.4byte	.LVL1
 2732 010f 1C       		.uleb128 .LVL2-.LVL1
 2733 0110 02       		.uleb128 0x2
 2734 0111 32       		.byte	0x32
 2735 0112 9F       		.byte	0x9f
ARM GAS  C:\Users\DEVELO~1\AppData\Local\Temp\ccab9Nj4.s 			page 49


 2736 0113 00       		.byte	0
 2737              	.LVUS6:
 2738 0114 02       		.uleb128 .LVU31
 2739 0115 00       		.uleb128 .LVU38
 2740              	.LLST6:
 2741 0116 08       		.byte	0x8
 2742 0117 4E000000 		.4byte	.LVL2
 2743 011b 1C       		.uleb128 .LVL3-.LVL2
 2744 011c 02       		.uleb128 0x2
 2745 011d 31       		.byte	0x31
 2746 011e 9F       		.byte	0x9f
 2747 011f 00       		.byte	0
 2748              	.LVUS7:
 2749 0120 02       		.uleb128 .LVU31
 2750 0121 00       		.uleb128 .LVU38
 2751              	.LLST7:
 2752 0122 08       		.byte	0x8
 2753 0123 4E000000 		.4byte	.LVL2
 2754 0127 1C       		.uleb128 .LVL3-.LVL2
 2755 0128 02       		.uleb128 0x2
 2756 0129 34       		.byte	0x34
 2757 012a 9F       		.byte	0x9f
 2758 012b 00       		.byte	0
 2759              	.LVUS9:
 2760 012c 02       		.uleb128 .LVU40
 2761 012d 00       		.uleb128 .LVU49
 2762              	.LLST9:
 2763 012e 08       		.byte	0x8
 2764 012f 6A000000 		.4byte	.LVL3
 2765 0133 1E       		.uleb128 .LVL4-.LVL3
 2766 0134 02       		.uleb128 0x2
 2767 0135 31       		.byte	0x31
 2768 0136 9F       		.byte	0x9f
 2769 0137 00       		.byte	0
 2770              	.LVUS10:
 2771 0138 02       		.uleb128 .LVU40
 2772 0139 00       		.uleb128 .LVU49
 2773              	.LLST10:
 2774 013a 08       		.byte	0x8
 2775 013b 6A000000 		.4byte	.LVL3
 2776 013f 1E       		.uleb128 .LVL4-.LVL3
 2777 0140 02       		.uleb128 0x2
 2778 0141 38       		.byte	0x38
 2779 0142 9F       		.byte	0x9f
 2780 0143 00       		.byte	0
 2781              	.LVUS12:
 2782 0144 02       		.uleb128 .LVU51
 2783 0145 00       		.uleb128 .LVU70
 2784              	.LLST12:
 2785 0146 08       		.byte	0x8
 2786 0147 88000000 		.4byte	.LVL4
 2787 014b 18       		.uleb128 .LVL5-.LVL4
 2788 014c 06       		.uleb128 0x6
 2789 014d 0C       		.byte	0xc
 2790 014e 00040040 		.4byte	0x40000400
 2791 0152 9F       		.byte	0x9f
 2792 0153 00       		.byte	0
ARM GAS  C:\Users\DEVELO~1\AppData\Local\Temp\ccab9Nj4.s 			page 50


 2793              	.LVUS13:
 2794 0154 02       		.uleb128 .LVU72
 2795 0155 00       		.uleb128 .LVU91
 2796              	.LLST13:
 2797 0156 08       		.byte	0x8
 2798 0157 A0000000 		.4byte	.LVL5
 2799 015b 1C       		.uleb128 .LVL6-.LVL5
 2800 015c 04       		.uleb128 0x4
 2801 015d 40       		.byte	0x40
 2802 015e 4A       		.byte	0x4a
 2803 015f 24       		.byte	0x24
 2804 0160 9F       		.byte	0x9f
 2805 0161 00       		.byte	0
 2806              	.LVUS15:
 2807 0162 02       		.uleb128 .LVU93
 2808 0163 00       		.uleb128 .LVU112
 2809              	.LLST15:
 2810 0164 08       		.byte	0x8
 2811 0165 BC000000 		.4byte	.LVL6
 2812 0169 30       		.uleb128 .LVL7-.LVL6
 2813 016a 06       		.uleb128 0x6
 2814 016b 0C       		.byte	0xc
 2815 016c 000C0040 		.4byte	0x40000c00
 2816 0170 9F       		.byte	0x9f
 2817 0171 00       		.byte	0
 2818              	.LVUS17:
 2819 0172 02       		.uleb128 .LVU114
 2820 0173 00       		.uleb128 .LVU137
 2821              	.LLST17:
 2822 0174 08       		.byte	0x8
 2823 0175 EC000000 		.4byte	.LVL7
 2824 0179 1C       		.uleb128 .LVL8-.LVL7
 2825 017a 06       		.uleb128 0x6
 2826 017b 0C       		.byte	0xc
 2827 017c 00080040 		.4byte	0x40000800
 2828 0180 9F       		.byte	0x9f
 2829 0181 00       		.byte	0
 2830              	.LVUS21:
 2831 0182 00       		.uleb128 0
 2832 0183 00       		.uleb128 .LVU193
 2833 0184 00       		.uleb128 .LVU193
 2834 0185 00       		.uleb128 .LVU196
 2835 0186 00       		.uleb128 .LVU196
 2836 0187 00       		.uleb128 .LVU198
 2837 0188 00       		.uleb128 .LVU198
 2838 0189 00       		.uleb128 0
 2839              	.LLST21:
 2840 018a 06       		.byte	0x6
 2841 018b 00000000 		.4byte	.LVL14
 2842 018f 04       		.byte	0x4
 2843 0190 00       		.uleb128 .LVL14-.LVL14
 2844 0191 1A       		.uleb128 .LVL17-.LVL14
 2845 0192 01       		.uleb128 0x1
 2846 0193 50       		.byte	0x50
 2847 0194 04       		.byte	0x4
 2848 0195 1A       		.uleb128 .LVL17-.LVL14
 2849 0196 1C       		.uleb128 .LVL18-.LVL14
ARM GAS  C:\Users\DEVELO~1\AppData\Local\Temp\ccab9Nj4.s 			page 51


 2850 0197 04       		.uleb128 0x4
 2851 0198 A3       		.byte	0xa3
 2852 0199 01       		.uleb128 0x1
 2853 019a 50       		.byte	0x50
 2854 019b 9F       		.byte	0x9f
 2855 019c 04       		.byte	0x4
 2856 019d 1C       		.uleb128 .LVL18-.LVL14
 2857 019e 1E       		.uleb128 .LVL19-.LVL14
 2858 019f 01       		.uleb128 0x1
 2859 01a0 50       		.byte	0x50
 2860 01a1 04       		.byte	0x4
 2861 01a2 1E       		.uleb128 .LVL19-.LVL14
 2862 01a3 28       		.uleb128 .LFE454-.LVL14
 2863 01a4 04       		.uleb128 0x4
 2864 01a5 A3       		.byte	0xa3
 2865 01a6 01       		.uleb128 0x1
 2866 01a7 50       		.byte	0x50
 2867 01a8 9F       		.byte	0x9f
 2868 01a9 00       		.byte	0
 2869              	.LVUS22:
 2870 01aa 00       		.uleb128 .LVU182
 2871 01ab 00       		.uleb128 .LVU193
 2872 01ac 00       		.uleb128 .LVU193
 2873 01ad 02       		.uleb128 .LVU195
 2874              	.LLST22:
 2875 01ae 08       		.byte	0x8
 2876 01af 04000000 		.4byte	.LVL15
 2877 01b3 16       		.uleb128 .LVL17-.LVL15
 2878 01b4 01       		.uleb128 0x1
 2879 01b5 50       		.byte	0x50
 2880 01b6 08       		.byte	0x8
 2881 01b7 1A000000 		.4byte	.LVL17
 2882 01bb 00       		.uleb128 .LVL17-.LVL17
 2883 01bc 04       		.uleb128 0x4
 2884 01bd A3       		.byte	0xa3
 2885 01be 01       		.uleb128 0x1
 2886 01bf 50       		.byte	0x50
 2887 01c0 9F       		.byte	0x9f
 2888 01c1 00       		.byte	0
 2889              	.LVUS23:
 2890 01c2 00       		.uleb128 .LVU189
 2891 01c3 02       		.uleb128 .LVU195
 2892              	.LLST23:
 2893 01c4 08       		.byte	0x8
 2894 01c5 12000000 		.4byte	.LVL16
 2895 01c9 08       		.uleb128 .LVL17-.LVL16
 2896 01ca 01       		.uleb128 0x1
 2897 01cb 51       		.byte	0x51
 2898 01cc 00       		.byte	0
 2899              	.LVUS24:
 2900 01cd 00       		.uleb128 .LVU193
 2901 01ce 02       		.uleb128 .LVU195
 2902              	.LLST24:
 2903 01cf 08       		.byte	0x8
 2904 01d0 1A000000 		.4byte	.LVL17
 2905 01d4 00       		.uleb128 .LVL17-.LVL17
 2906 01d5 01       		.uleb128 0x1
ARM GAS  C:\Users\DEVELO~1\AppData\Local\Temp\ccab9Nj4.s 			page 52


 2907 01d6 50       		.byte	0x50
 2908 01d7 00       		.byte	0
 2909              	.Ldebug_loc3:
 2910              		.section	.debug_aranges,"",%progbits
 2911 0000 3C000000 		.4byte	0x3c
 2912 0004 0200     		.2byte	0x2
 2913 0006 00000000 		.4byte	.Ldebug_info0
 2914 000a 04       		.byte	0x4
 2915 000b 00       		.byte	0
 2916 000c 0000     		.2byte	0
 2917 000e 0000     		.2byte	0
 2918 0010 00000000 		.4byte	.LFB451
 2919 0014 24010000 		.4byte	.LFE451-.LFB451
 2920 0018 00000000 		.4byte	.LFB452
 2921 001c 18000000 		.4byte	.LFE452-.LFB452
 2922 0020 00000000 		.4byte	.LFB453
 2923 0024 20000000 		.4byte	.LFE453-.LFB453
 2924 0028 00000000 		.4byte	.LFB454
 2925 002c 28000000 		.4byte	.LFE454-.LFB454
 2926 0030 00000000 		.4byte	.LFB455
 2927 0034 48000000 		.4byte	.LFE455-.LFB455
 2928 0038 00000000 		.4byte	0
 2929 003c 00000000 		.4byte	0
 2930              		.section	.debug_rnglists,"",%progbits
 2931              	.Ldebug_ranges0:
 2932 0000 B4000000 		.4byte	.Ldebug_ranges3-.Ldebug_ranges2
 2933              	.Ldebug_ranges2:
 2934 0004 0500     		.2byte	0x5
 2935 0006 04       		.byte	0x4
 2936 0007 00       		.byte	0
 2937 0008 00000000 		.4byte	0
 2938              	.LLRL0:
 2939 000c 05       		.byte	0x5
 2940 000d 08000000 		.4byte	.LBB48
 2941 0011 04       		.byte	0x4
 2942 0012 00       		.uleb128 .LBB48-.LBB48
 2943 0013 02       		.uleb128 .LBE48-.LBB48
 2944 0014 04       		.byte	0x4
 2945 0015 06       		.uleb128 .LBB68-.LBB48
 2946 0016 0A       		.uleb128 .LBE68-.LBB48
 2947 0017 04       		.byte	0x4
 2948 0018 12       		.uleb128 .LBB70-.LBB48
 2949 0019 7A       		.uleb128 .LBE70-.LBB48
 2950 001a 04       		.byte	0x4
 2951 001b 7C       		.uleb128 .LBB72-.LBB48
 2952 001c 8001     		.uleb128 .LBE72-.LBB48
 2953 001e 00       		.byte	0
 2954              	.LLRL1:
 2955 001f 05       		.byte	0x5
 2956 0020 08000000 		.4byte	.LBB49
 2957 0024 04       		.byte	0x4
 2958 0025 00       		.uleb128 .LBB49-.LBB49
 2959 0026 02       		.uleb128 .LBE49-.LBB49
 2960 0027 04       		.byte	0x4
 2961 0028 06       		.uleb128 .LBB53-.LBB49
 2962 0029 0A       		.uleb128 .LBE53-.LBB49
 2963 002a 04       		.byte	0x4
ARM GAS  C:\Users\DEVELO~1\AppData\Local\Temp\ccab9Nj4.s 			page 53


 2964 002b 12       		.uleb128 .LBB54-.LBB49
 2965 002c 2A       		.uleb128 .LBE54-.LBB49
 2966 002d 00       		.byte	0
 2967              	.LLRL8:
 2968 002e 05       		.byte	0x5
 2969 002f 6A000000 		.4byte	.LBB59
 2970 0033 04       		.byte	0x4
 2971 0034 00       		.uleb128 .LBB59-.LBB59
 2972 0035 18       		.uleb128 .LBE59-.LBB59
 2973 0036 04       		.byte	0x4
 2974 0037 1A       		.uleb128 .LBB62-.LBB59
 2975 0038 1E       		.uleb128 .LBE62-.LBB59
 2976 0039 00       		.byte	0
 2977              	.LLRL11:
 2978 003a 05       		.byte	0x5
 2979 003b 0A000000 		.4byte	.LBB63
 2980 003f 04       		.byte	0x4
 2981 0040 00       		.uleb128 .LBB63-.LBB63
 2982 0041 02       		.uleb128 .LBE63-.LBB63
 2983 0042 04       		.byte	0x4
 2984 0043 08       		.uleb128 .LBB69-.LBB63
 2985 0044 10       		.uleb128 .LBE69-.LBB63
 2986 0045 04       		.byte	0x4
 2987 0046 78       		.uleb128 .LBB71-.LBB63
 2988 0047 7A       		.uleb128 .LBE71-.LBB63
 2989 0048 04       		.byte	0x4
 2990 0049 7E       		.uleb128 .LBB73-.LBB63
 2991 004a 9601     		.uleb128 .LBE73-.LBB63
 2992 004c 00       		.byte	0
 2993              	.LLRL14:
 2994 004d 05       		.byte	0x5
 2995 004e BC000000 		.4byte	.LBB76
 2996 0052 04       		.byte	0x4
 2997 0053 00       		.uleb128 .LBB76-.LBB76
 2998 0054 00       		.uleb128 .LBE76-.LBB76
 2999 0055 04       		.byte	0x4
 3000 0056 04       		.uleb128 .LBB84-.LBB76
 3001 0057 30       		.uleb128 .LBE84-.LBB76
 3002 0058 00       		.byte	0
 3003              	.LLRL16:
 3004 0059 05       		.byte	0x5
 3005 005a BC000000 		.4byte	.LBB79
 3006 005e 04       		.byte	0x4
 3007 005f 00       		.uleb128 .LBB79-.LBB79
 3008 0060 04       		.uleb128 .LBE79-.LBB79
 3009 0061 04       		.byte	0x4
 3010 0062 30       		.uleb128 .LBB85-.LBB79
 3011 0063 42       		.uleb128 .LBE85-.LBB79
 3012 0064 04       		.byte	0x4
 3013 0065 44       		.uleb128 .LBB87-.LBB79
 3014 0066 48       		.uleb128 .LBE87-.LBB79
 3015 0067 04       		.byte	0x4
 3016 0068 4A       		.uleb128 .LBB89-.LBB79
 3017 0069 4C       		.uleb128 .LBE89-.LBB79
 3018 006a 00       		.byte	0
 3019              	.LLRL18:
 3020 006b 05       		.byte	0x5
ARM GAS  C:\Users\DEVELO~1\AppData\Local\Temp\ccab9Nj4.s 			page 54


 3021 006c FE000000 		.4byte	.LBB86
 3022 0070 04       		.byte	0x4
 3023 0071 00       		.uleb128 .LBB86-.LBB86
 3024 0072 02       		.uleb128 .LBE86-.LBB86
 3025 0073 04       		.byte	0x4
 3026 0074 06       		.uleb128 .LBB88-.LBB86
 3027 0075 08       		.uleb128 .LBE88-.LBB86
 3028 0076 04       		.byte	0x4
 3029 0077 0A       		.uleb128 .LBB90-.LBB86
 3030 0078 0A       		.uleb128 .LBE90-.LBB86
 3031 0079 04       		.byte	0x4
 3032 007a 0C       		.uleb128 .LBB91-.LBB86
 3033 007b 0E       		.uleb128 .LBE91-.LBB86
 3034 007c 00       		.byte	0
 3035              	.LLRL27:
 3036 007d 05       		.byte	0x5
 3037 007e 00000000 		.4byte	.LBB104
 3038 0082 04       		.byte	0x4
 3039 0083 00       		.uleb128 .LBB104-.LBB104
 3040 0084 1A       		.uleb128 .LBE104-.LBB104
 3041 0085 04       		.byte	0x4
 3042 0086 1A       		.uleb128 .LBB112-.LBB104
 3043 0087 1C       		.uleb128 .LBE112-.LBB104
 3044 0088 04       		.byte	0x4
 3045 0089 34       		.uleb128 .LBB113-.LBB104
 3046 008a 36       		.uleb128 .LBE113-.LBB104
 3047 008b 00       		.byte	0
 3048              	.LLRL29:
 3049 008c 05       		.byte	0x5
 3050 008d 04000000 		.4byte	.LBB106
 3051 0091 04       		.byte	0x4
 3052 0092 00       		.uleb128 .LBB106-.LBB106
 3053 0093 16       		.uleb128 .LBE106-.LBB106
 3054 0094 04       		.byte	0x4
 3055 0095 16       		.uleb128 .LBB109-.LBB106
 3056 0096 18       		.uleb128 .LBE109-.LBB106
 3057 0097 00       		.byte	0
 3058              	.LLRL33:
 3059 0098 07       		.byte	0x7
 3060 0099 00000000 		.4byte	.LFB451
 3061 009d A402     		.uleb128 .LFE451-.LFB451
 3062 009f 07       		.byte	0x7
 3063 00a0 00000000 		.4byte	.LFB452
 3064 00a4 18       		.uleb128 .LFE452-.LFB452
 3065 00a5 07       		.byte	0x7
 3066 00a6 00000000 		.4byte	.LFB453
 3067 00aa 20       		.uleb128 .LFE453-.LFB453
 3068 00ab 07       		.byte	0x7
 3069 00ac 00000000 		.4byte	.LFB454
 3070 00b0 28       		.uleb128 .LFE454-.LFB454
 3071 00b1 07       		.byte	0x7
 3072 00b2 00000000 		.4byte	.LFB455
 3073 00b6 48       		.uleb128 .LFE455-.LFB455
 3074 00b7 00       		.byte	0
 3075              	.Ldebug_ranges3:
 3076              		.section	.debug_line,"",%progbits
 3077              	.Ldebug_line0:
ARM GAS  C:\Users\DEVELO~1\AppData\Local\Temp\ccab9Nj4.s 			page 55


 3078 0000 DA050000 		.section	.debug_str,"MS",%progbits,1
 3078      0300EA01 
 3078      00000201 
 3078      FB0E0D00 
 3078      01010101 
 3079              	.LASF32:
 3080 0000 504C4C31 		.ascii	"PLL1DIVR\000"
 3080      44495652 
 3080      00
 3081              	.LASF113:
 3082 0009 433A5C43 		.ascii	"C:\\ChibiStudio\\ChibiOS-master\\demos\\STM32\\CUST"
 3082      68696269 
 3082      53747564 
 3082      696F5C43 
 3082      68696269 
 3083 0037 4F4D5F48 		.ascii	"OM_H743IIT6_maj\000"
 3083      37343349 
 3083      4954365F 
 3083      6D616A00 
 3084              	.LASF84:
 3085 0047 44494552 		.ascii	"DIER\000"
 3085      00
 3086              	.LASF19:
 3087 004c 73697A65 		.ascii	"size_t\000"
 3087      5F7400
 3088              	.LASF55:
 3089 0053 41504231 		.ascii	"APB1LRSTR\000"
 3089      4C525354 
 3089      5200
 3090              	.LASF94:
 3091 005d 43434D52 		.ascii	"CCMR3\000"
 3091      3300
 3092              	.LASF78:
 3093 0063 41504231 		.ascii	"APB1HLPENR\000"
 3093      484C5045 
 3093      4E5200
 3094              	.LASF4:
 3095 006e 6C6F6E67 		.ascii	"long int\000"
 3095      20696E74 
 3095      00
 3096              	.LASF98:
 3097 0077 54494D5F 		.ascii	"TIM_TypeDef\000"
 3097      54797065 
 3097      44656600 
 3098              	.LASF101:
 3099 0083 74696D65 		.ascii	"timers\000"
 3099      727300
 3100              	.LASF102:
 3101 008a 656E636F 		.ascii	"encoders_started\000"
 3101      64657273 
 3101      5F737461 
 3101      72746564 
 3101      00
 3102              	.LASF9:
 3103 009b 6C6F6E67 		.ascii	"long long unsigned int\000"
 3103      206C6F6E 
 3103      6720756E 
ARM GAS  C:\Users\DEVELO~1\AppData\Local\Temp\ccab9Nj4.s 			page 56


 3103      7369676E 
 3103      65642069 
 3104              	.LASF60:
 3105 00b2 4433414D 		.ascii	"D3AMR\000"
 3105      5200
 3106              	.LASF103:
 3107 00b8 64656C74 		.ascii	"delta\000"
 3107      6100
 3108              	.LASF92:
 3109 00be 42445452 		.ascii	"BDTR\000"
 3109      00
 3110              	.LASF73:
 3111 00c3 41484231 		.ascii	"AHB1LPENR\000"
 3111      4C50454E 
 3111      5200
 3112              	.LASF44:
 3113 00cd 43494552 		.ascii	"CIER\000"
 3113      00
 3114              	.LASF105:
 3115 00d2 6472765F 		.ascii	"drv_encoder_get\000"
 3115      656E636F 
 3115      6465725F 
 3115      67657400 
 3116              	.LASF86:
 3117 00e2 43434D52 		.ascii	"CCMR2\000"
 3117      3200
 3118              	.LASF83:
 3119 00e8 534D4352 		.ascii	"SMCR\000"
 3119      00
 3120              	.LASF0:
 3121 00ed 7369676E 		.ascii	"signed char\000"
 3121      65642063 
 3121      68617200 
 3122              	.LASF51:
 3123 00f9 41484231 		.ascii	"AHB1RSTR\000"
 3123      52535452 
 3123      00
 3124              	.LASF100:
 3125 0102 6C617374 		.ascii	"last_val\000"
 3125      5F76616C 
 3125      00
 3126              	.LASF76:
 3127 010b 41504233 		.ascii	"APB3LPENR\000"
 3127      4C50454E 
 3127      5200
 3128              	.LASF61:
 3129 0115 52455345 		.ascii	"RESERVED11\000"
 3129      52564544 
 3129      313100
 3130              	.LASF71:
 3131 0120 52455345 		.ascii	"RESERVED12\000"
 3131      52564544 
 3131      313200
 3132              	.LASF81:
 3133 012b 52455345 		.ascii	"RESERVED13\000"
 3133      52564544 
 3133      313300
ARM GAS  C:\Users\DEVELO~1\AppData\Local\Temp\ccab9Nj4.s 			page 57


 3134              	.LASF115:
 3135 0136 656E6162 		.ascii	"enable_rcc\000"
 3135      6C655F72 
 3135      636300
 3136              	.LASF33:
 3137 0141 504C4C31 		.ascii	"PLL1FRACR\000"
 3137      46524143 
 3137      5200
 3138              	.LASF67:
 3139 014b 41504231 		.ascii	"APB1LENR\000"
 3139      4C454E52 
 3139      00
 3140              	.LASF57:
 3141 0154 41504232 		.ascii	"APB2RSTR\000"
 3141      52535452 
 3141      00
 3142              	.LASF87:
 3143 015d 43434552 		.ascii	"CCER\000"
 3143      00
 3144              	.LASF8:
 3145 0162 6C6F6E67 		.ascii	"long long int\000"
 3145      206C6F6E 
 3145      6720696E 
 3145      7400
 3146              	.LASF53:
 3147 0170 41484234 		.ascii	"AHB4RSTR\000"
 3147      52535452 
 3147      00
 3148              	.LASF28:
 3149 0179 44334346 		.ascii	"D3CFGR\000"
 3149      475200
 3150              	.LASF31:
 3151 0180 504C4C43 		.ascii	"PLLCFGR\000"
 3151      46475200 
 3152              	.LASF22:
 3153 0188 43525243 		.ascii	"CRRCR\000"
 3153      5200
 3154              	.LASF45:
 3155 018e 43494652 		.ascii	"CIFR\000"
 3155      00
 3156              	.LASF36:
 3157 0193 504C4C33 		.ascii	"PLL3DIVR\000"
 3157      44495652 
 3157      00
 3158              	.LASF6:
 3159 019c 5F5F7569 		.ascii	"__uint32_t\000"
 3159      6E743332 
 3159      5F7400
 3160              	.LASF110:
 3161 01a7 6D61736B 		.ascii	"mask\000"
 3161      00
 3162              	.LASF40:
 3163 01ac 44324343 		.ascii	"D2CCIP1R\000"
 3163      49503152 
 3163      00
 3164              	.LASF5:
 3165 01b5 5F5F696E 		.ascii	"__int16_t\000"
ARM GAS  C:\Users\DEVELO~1\AppData\Local\Temp\ccab9Nj4.s 			page 58


 3165      7431365F 
 3165      7400
 3166              	.LASF46:
 3167 01bf 43494352 		.ascii	"CICR\000"
 3167      00
 3168              	.LASF35:
 3169 01c4 504C4C32 		.ascii	"PLL2FRACR\000"
 3169      46524143 
 3169      5200
 3170              	.LASF10:
 3171 01ce 756E7369 		.ascii	"unsigned int\000"
 3171      676E6564 
 3171      20696E74 
 3171      00
 3172              	.LASF24:
 3173 01db 43464752 		.ascii	"CFGR\000"
 3173      00
 3174              	.LASF18:
 3175 01e0 656E636F 		.ascii	"encoder_id_t\000"
 3175      6465725F 
 3175      69645F74 
 3175      00
 3176              	.LASF7:
 3177 01ed 6C6F6E67 		.ascii	"long unsigned int\000"
 3177      20756E73 
 3177      69676E65 
 3177      6420696E 
 3177      7400
 3178              	.LASF82:
 3179 01ff 5243435F 		.ascii	"RCC_TypeDef\000"
 3179      54797065 
 3179      44656600 
 3180              	.LASF3:
 3181 020b 73686F72 		.ascii	"short unsigned int\000"
 3181      7420756E 
 3181      7369676E 
 3181      65642069 
 3181      6E7400
 3182              	.LASF30:
 3183 021e 504C4C43 		.ascii	"PLLCKSELR\000"
 3183      4B53454C 
 3183      5200
 3184              	.LASF21:
 3185 0228 48534943 		.ascii	"HSICFGR\000"
 3185      46475200 
 3186              	.LASF50:
 3187 0230 41484233 		.ascii	"AHB3RSTR\000"
 3187      52535452 
 3187      00
 3188              	.LASF68:
 3189 0239 41504231 		.ascii	"APB1HENR\000"
 3189      48454E52 
 3189      00
 3190              	.LASF41:
 3191 0242 44324343 		.ascii	"D2CCIP2R\000"
 3191      49503252 
 3191      00
ARM GAS  C:\Users\DEVELO~1\AppData\Local\Temp\ccab9Nj4.s 			page 59


 3192              	.LASF97:
 3193 024b 54495345 		.ascii	"TISEL\000"
 3193      4C00
 3194              	.LASF111:
 3195 0251 474E5520 		.ascii	"GNU C17 11.3.1 20220712 -mcpu=cortex-m7 -mthumb -mf"
 3195      43313720 
 3195      31312E33 
 3195      2E312032 
 3195      30323230 
 3196 0284 6C6F6174 		.ascii	"loat-abi=hard -mfpu=fpv5-d16 -march=armv7e-m+fp.dp "
 3196      2D616269 
 3196      3D686172 
 3196      64202D6D 
 3196      6670753D 
 3197 02b7 2D676764 		.ascii	"-ggdb -O2 -ffunction-sections -fdata-sections -fno-"
 3197      62202D4F 
 3197      32202D66 
 3197      66756E63 
 3197      74696F6E 
 3198 02ea 636F6D6D 		.ascii	"common\000"
 3198      6F6E00
 3199              	.LASF79:
 3200 02f1 41504232 		.ascii	"APB2LPENR\000"
 3200      4C50454E 
 3200      5200
 3201              	.LASF37:
 3202 02fb 504C4C33 		.ascii	"PLL3FRACR\000"
 3202      46524143 
 3202      5200
 3203              	.LASF109:
 3204 0305 72636345 		.ascii	"rccEnableAPB1L\000"
 3204      6E61626C 
 3204      65415042 
 3204      314C00
 3205              	.LASF58:
 3206 0314 41504234 		.ascii	"APB4RSTR\000"
 3206      52535452 
 3206      00
 3207              	.LASF107:
 3208 031d 6472765F 		.ascii	"drv_encoders_start\000"
 3208      656E636F 
 3208      64657273 
 3208      5F737461 
 3208      727400
 3209              	.LASF70:
 3210 0330 41504234 		.ascii	"APB4ENR\000"
 3210      454E5200 
 3211              	.LASF56:
 3212 0338 41504231 		.ascii	"APB1HRSTR\000"
 3212      48525354 
 3212      5200
 3213              	.LASF74:
 3214 0342 41484232 		.ascii	"AHB2LPENR\000"
 3214      4C50454E 
 3214      5200
 3215              	.LASF104:
 3216 034c 6472765F 		.ascii	"drv_encoder_get_delta_accel\000"
ARM GAS  C:\Users\DEVELO~1\AppData\Local\Temp\ccab9Nj4.s 			page 60


 3216      656E636F 
 3216      6465725F 
 3216      6765745F 
 3216      64656C74 
 3217              	.LASF106:
 3218 0368 6472765F 		.ascii	"drv_encoder_reset\000"
 3218      656E636F 
 3218      6465725F 
 3218      72657365 
 3218      7400
 3219              	.LASF66:
 3220 037a 41504233 		.ascii	"APB3ENR\000"
 3220      454E5200 
 3221              	.LASF65:
 3222 0382 41484234 		.ascii	"AHB4ENR\000"
 3222      454E5200 
 3223              	.LASF25:
 3224 038a 52455345 		.ascii	"RESERVED1\000"
 3224      52564544 
 3224      3100
 3225              	.LASF29:
 3226 0394 52455345 		.ascii	"RESERVED2\000"
 3226      52564544 
 3226      3200
 3227              	.LASF38:
 3228 039e 52455345 		.ascii	"RESERVED3\000"
 3228      52564544 
 3228      3300
 3229              	.LASF27:
 3230 03a8 44324346 		.ascii	"D2CFGR\000"
 3230      475200
 3231              	.LASF49:
 3232 03af 52455345 		.ascii	"RESERVED6\000"
 3232      52564544 
 3232      3600
 3233              	.LASF59:
 3234 03b9 52455345 		.ascii	"RESERVED8\000"
 3234      52564544 
 3234      3800
 3235              	.LASF99:
 3236 03c3 5F426F6F 		.ascii	"_Bool\000"
 3236      6C00
 3237              	.LASF34:
 3238 03c9 504C4C32 		.ascii	"PLL2DIVR\000"
 3238      44495652 
 3238      00
 3239              	.LASF1:
 3240 03d2 756E7369 		.ascii	"unsigned char\000"
 3240      676E6564 
 3240      20636861 
 3240      7200
 3241              	.LASF2:
 3242 03e0 73686F72 		.ascii	"short int\000"
 3242      7420696E 
 3242      7400
 3243              	.LASF112:
 3244 03ea 64726976 		.ascii	"drivers/drv_encoders.c\000"
ARM GAS  C:\Users\DEVELO~1\AppData\Local\Temp\ccab9Nj4.s 			page 61


 3244      6572732F 
 3244      6472765F 
 3244      656E636F 
 3244      64657273 
 3245              	.LASF72:
 3246 0401 41484233 		.ascii	"AHB3LPENR\000"
 3246      4C50454E 
 3246      5200
 3247              	.LASF80:
 3248 040b 41504234 		.ascii	"APB4LPENR\000"
 3248      4C50454E 
 3248      5200
 3249              	.LASF14:
 3250 0415 454E4331 		.ascii	"ENC1\000"
 3250      00
 3251              	.LASF15:
 3252 041a 454E4332 		.ascii	"ENC2\000"
 3252      00
 3253              	.LASF17:
 3254 041f 454E4334 		.ascii	"ENC4\000"
 3254      00
 3255              	.LASF69:
 3256 0424 41504232 		.ascii	"APB2ENR\000"
 3256      454E5200 
 3257              	.LASF62:
 3258 042c 41484233 		.ascii	"AHB3ENR\000"
 3258      454E5200 
 3259              	.LASF116:
 3260 0434 656E636F 		.ascii	"encoder_id_valid\000"
 3260      6465725F 
 3260      69645F76 
 3260      616C6964 
 3260      00
 3261              	.LASF43:
 3262 0445 52455345 		.ascii	"RESERVED4\000"
 3262      52564544 
 3262      3400
 3263              	.LASF47:
 3264 044f 52455345 		.ascii	"RESERVED5\000"
 3264      52564544 
 3264      3500
 3265              	.LASF12:
 3266 0459 75696E74 		.ascii	"uint32_t\000"
 3266      33325F74 
 3266      00
 3267              	.LASF39:
 3268 0462 44314343 		.ascii	"D1CCIPR\000"
 3268      49505200 
 3269              	.LASF20:
 3270 046a 6C6F6E67 		.ascii	"long double\000"
 3270      20646F75 
 3270      626C6500 
 3271              	.LASF13:
 3272 0476 63686172 		.ascii	"char\000"
 3272      00
 3273              	.LASF16:
 3274 047b 454E4333 		.ascii	"ENC3\000"
ARM GAS  C:\Users\DEVELO~1\AppData\Local\Temp\ccab9Nj4.s 			page 62


 3274      00
 3275              	.LASF93:
 3276 0480 444D4152 		.ascii	"DMAR\000"
 3276      00
 3277              	.LASF52:
 3278 0485 41484232 		.ascii	"AHB2RSTR\000"
 3278      52535452 
 3278      00
 3279              	.LASF75:
 3280 048e 41484234 		.ascii	"AHB4LPENR\000"
 3280      4C50454E 
 3280      5200
 3281              	.LASF108:
 3282 0498 656E636F 		.ascii	"encoder_tim_init\000"
 3282      6465725F 
 3282      74696D5F 
 3282      696E6974 
 3282      00
 3283              	.LASF64:
 3284 04a9 41484232 		.ascii	"AHB2ENR\000"
 3284      454E5200 
 3285              	.LASF54:
 3286 04b1 41504233 		.ascii	"APB3RSTR\000"
 3286      52535452 
 3286      00
 3287              	.LASF23:
 3288 04ba 43534943 		.ascii	"CSICFGR\000"
 3288      46475200 
 3289              	.LASF114:
 3290 04c2 6472765F 		.ascii	"drv_encoder_get_delta\000"
 3290      656E636F 
 3290      6465725F 
 3290      6765745F 
 3290      64656C74 
 3291              	.LASF77:
 3292 04d8 41504231 		.ascii	"APB1LLPENR\000"
 3292      4C4C5045 
 3292      4E5200
 3293              	.LASF88:
 3294 04e3 43435231 		.ascii	"CCR1\000"
 3294      00
 3295              	.LASF89:
 3296 04e8 43435232 		.ascii	"CCR2\000"
 3296      00
 3297              	.LASF90:
 3298 04ed 43435233 		.ascii	"CCR3\000"
 3298      00
 3299              	.LASF91:
 3300 04f2 43435234 		.ascii	"CCR4\000"
 3300      00
 3301              	.LASF95:
 3302 04f7 43435235 		.ascii	"CCR5\000"
 3302      00
 3303              	.LASF96:
 3304 04fc 43435236 		.ascii	"CCR6\000"
 3304      00
 3305              	.LASF48:
ARM GAS  C:\Users\DEVELO~1\AppData\Local\Temp\ccab9Nj4.s 			page 63


 3306 0501 42444352 		.ascii	"BDCR\000"
 3306      00
 3307              	.LASF63:
 3308 0506 41484231 		.ascii	"AHB1ENR\000"
 3308      454E5200 
 3309              	.LASF42:
 3310 050e 44334343 		.ascii	"D3CCIPR\000"
 3310      49505200 
 3311              	.LASF11:
 3312 0516 696E7431 		.ascii	"int16_t\000"
 3312      365F7400 
 3313              	.LASF85:
 3314 051e 43434D52 		.ascii	"CCMR1\000"
 3314      3100
 3315              	.LASF26:
 3316 0524 44314346 		.ascii	"D1CFGR\000"
 3316      475200
 3317              		.ident	"GCC: (Arm GNU Toolchain 11.3.Rel1) 11.3.1 20220712"
ARM GAS  C:\Users\DEVELO~1\AppData\Local\Temp\ccab9Nj4.s 			page 64


DEFINED SYMBOLS
                            *ABS*:00000000 drv_encoders.c
C:\Users\DEVELO~1\AppData\Local\Temp\ccab9Nj4.s:19     .text.drv_encoders_start:00000000 $t
C:\Users\DEVELO~1\AppData\Local\Temp\ccab9Nj4.s:26     .text.drv_encoders_start:00000000 drv_encoders_start
C:\Users\DEVELO~1\AppData\Local\Temp\ccab9Nj4.s:401    .text.drv_encoders_start:00000114 $d
C:\Users\DEVELO~1\AppData\Local\Temp\ccab9Nj4.s:409    .text.drv_encoder_get:00000000 $t
C:\Users\DEVELO~1\AppData\Local\Temp\ccab9Nj4.s:416    .text.drv_encoder_get:00000000 drv_encoder_get
C:\Users\DEVELO~1\AppData\Local\Temp\ccab9Nj4.s:448    .text.drv_encoder_get:00000014 $d
C:\Users\DEVELO~1\AppData\Local\Temp\ccab9Nj4.s:453    .text.drv_encoder_reset:00000000 $t
C:\Users\DEVELO~1\AppData\Local\Temp\ccab9Nj4.s:460    .text.drv_encoder_reset:00000000 drv_encoder_reset
C:\Users\DEVELO~1\AppData\Local\Temp\ccab9Nj4.s:492    .text.drv_encoder_reset:00000018 $d
C:\Users\DEVELO~1\AppData\Local\Temp\ccab9Nj4.s:498    .text.drv_encoder_get_delta:00000000 $t
C:\Users\DEVELO~1\AppData\Local\Temp\ccab9Nj4.s:505    .text.drv_encoder_get_delta:00000000 drv_encoder_get_delta
C:\Users\DEVELO~1\AppData\Local\Temp\ccab9Nj4.s:559    .text.drv_encoder_get_delta:00000020 $d
C:\Users\DEVELO~1\AppData\Local\Temp\ccab9Nj4.s:565    .text.drv_encoder_get_delta_accel:00000000 $t
C:\Users\DEVELO~1\AppData\Local\Temp\ccab9Nj4.s:572    .text.drv_encoder_get_delta_accel:00000000 drv_encoder_get_delta_accel
C:\Users\DEVELO~1\AppData\Local\Temp\ccab9Nj4.s:680    .text.drv_encoder_get_delta_accel:00000040 $d
C:\Users\DEVELO~1\AppData\Local\Temp\ccab9Nj4.s:689    .bss.encoders_started:00000000 encoders_started
C:\Users\DEVELO~1\AppData\Local\Temp\ccab9Nj4.s:690    .bss.encoders_started:00000000 $d
C:\Users\DEVELO~1\AppData\Local\Temp\ccab9Nj4.s:692    .bss.last_val:00000000 $d
C:\Users\DEVELO~1\AppData\Local\Temp\ccab9Nj4.s:696    .bss.last_val:00000000 last_val
C:\Users\DEVELO~1\AppData\Local\Temp\ccab9Nj4.s:699    .rodata.timers:00000000 $d
C:\Users\DEVELO~1\AppData\Local\Temp\ccab9Nj4.s:703    .rodata.timers:00000000 timers

NO UNDEFINED SYMBOLS
