ARM GAS  C:\Users\DEVELO~1\AppData\Local\Temp\ccYfsuUi.s 			page 1


   1              		.cpu cortex-m7
   2              		.arch armv7e-m
   3              		.fpu fpv5-d16
   4              		.eabi_attribute 28, 1
   5              		.eabi_attribute 20, 1
   6              		.eabi_attribute 21, 1
   7              		.eabi_attribute 23, 3
   8              		.eabi_attribute 24, 1
   9              		.eabi_attribute 25, 1
  10              		.eabi_attribute 26, 1
  11              		.eabi_attribute 30, 2
  12              		.eabi_attribute 34, 1
  13              		.eabi_attribute 18, 4
  14              		.file	"drv_sd_hal.c"
  15              		.text
  16              	.Ltext0:
  17              		.cfi_sections	.debug_frame
  18              		.section	.text.drv_sd_hal_init,"ax",%progbits
  19              		.align	1
  20              		.p2align 2,,3
  21              		.global	drv_sd_hal_init
  22              		.syntax unified
  23              		.thumb
  24              		.thumb_func
  25              		.type	drv_sd_hal_init, %function
  26              	drv_sd_hal_init:
  27              	.LFB448:
  28              		.file 1 "drivers/sd/drv_sd_hal.c"
  29              		.loc 1 17 28 view -0
  30              		.cfi_startproc
  31              		@ args = 0, pretend = 0, frame = 0
  32              		@ frame_needed = 0, uses_anonymous_args = 0
  33              		.loc 1 18 5 view .LVU1
  34              		.loc 1 17 28 is_stmt 0 view .LVU2
  35 0000 10B5     		push	{r4, lr}
  36              		.cfi_def_cfa_offset 8
  37              		.cfi_offset 4, -8
  38              		.cfi_offset 14, -4
  39              		.loc 1 18 9 view .LVU3
  40 0002 074C     		ldr	r4, .L6
  41              		.loc 1 18 8 view .LVU4
  42 0004 2378     		ldrb	r3, [r4]	@ zero_extendqisi2
  43 0006 03B1     		cbz	r3, .L5
  44              		.loc 1 23 1 view .LVU5
  45 0008 10BD     		pop	{r4, pc}
  46              	.L5:
  47              		.loc 1 19 9 is_stmt 1 view .LVU6
  48 000a 0648     		ldr	r0, .L6+4
  49 000c FFF7FEFF 		bl	sdcObjectInit
  50              	.LVL0:
  51              		.loc 1 20 9 view .LVU7
  52 0010 0549     		ldr	r1, .L6+8
  53 0012 0448     		ldr	r0, .L6+4
  54 0014 FFF7FEFF 		bl	sdcStart
  55              	.LVL1:
  56              		.loc 1 21 9 view .LVU8
  57              		.loc 1 21 28 is_stmt 0 view .LVU9
ARM GAS  C:\Users\DEVELO~1\AppData\Local\Temp\ccYfsuUi.s 			page 2


  58 0018 0123     		movs	r3, #1
  59 001a 2370     		strb	r3, [r4]
  60              		.loc 1 23 1 view .LVU10
  61 001c 10BD     		pop	{r4, pc}
  62              	.L7:
  63 001e 00BF     		.align	2
  64              	.L6:
  65 0020 00000000 		.word	.LANCHOR0
  66 0024 00000000 		.word	SDCD1
  67 0028 00000000 		.word	.LANCHOR1
  68              		.cfi_endproc
  69              	.LFE448:
  70              		.size	drv_sd_hal_init, .-drv_sd_hal_init
  71              		.section	.text.drv_sd_hal_deinit,"ax",%progbits
  72              		.align	1
  73              		.p2align 2,,3
  74              		.global	drv_sd_hal_deinit
  75              		.syntax unified
  76              		.thumb
  77              		.thumb_func
  78              		.type	drv_sd_hal_deinit, %function
  79              	drv_sd_hal_deinit:
  80              	.LFB449:
  81              		.loc 1 25 30 is_stmt 1 view -0
  82              		.cfi_startproc
  83              		@ args = 0, pretend = 0, frame = 0
  84              		@ frame_needed = 0, uses_anonymous_args = 0
  85              		.loc 1 26 5 view .LVU12
  86              	.LBB16:
  87              	.LBI16:
  88              		.loc 1 96 6 view .LVU13
  89              	.LBB17:
  90              		.loc 1 97 5 view .LVU14
  91              	.LBE17:
  92              	.LBE16:
  93              		.loc 1 25 30 is_stmt 0 view .LVU15
  94 0000 10B5     		push	{r4, lr}
  95              		.cfi_def_cfa_offset 8
  96              		.cfi_offset 4, -8
  97              		.cfi_offset 14, -4
  98              	.LBB19:
  99              	.LBB18:
 100              		.loc 1 97 11 view .LVU16
 101 0002 044C     		ldr	r4, .L10
 102 0004 2046     		mov	r0, r4
 103 0006 FFF7FEFF 		bl	sdcSync
 104              	.LVL2:
 105              	.LBE18:
 106              	.LBE19:
 107              		.loc 1 27 5 is_stmt 1 view .LVU17
 108 000a 2046     		mov	r0, r4
 109              		.loc 1 28 1 is_stmt 0 view .LVU18
 110 000c BDE81040 		pop	{r4, lr}
 111              		.cfi_restore 14
 112              		.cfi_restore 4
 113              		.cfi_def_cfa_offset 0
 114              		.loc 1 27 5 view .LVU19
ARM GAS  C:\Users\DEVELO~1\AppData\Local\Temp\ccYfsuUi.s 			page 3


 115 0010 FFF7FEBF 		b	sdcStop
 116              	.LVL3:
 117              	.L11:
 118              		.align	2
 119              	.L10:
 120 0014 00000000 		.word	SDCD1
 121              		.cfi_endproc
 122              	.LFE449:
 123              		.size	drv_sd_hal_deinit, .-drv_sd_hal_deinit
 124              		.section	.text.drv_sd_hal_is_card_present,"ax",%progbits
 125              		.align	1
 126              		.p2align 2,,3
 127              		.global	drv_sd_hal_is_card_present
 128              		.syntax unified
 129              		.thumb
 130              		.thumb_func
 131              		.type	drv_sd_hal_is_card_present, %function
 132              	drv_sd_hal_is_card_present:
 133              	.LFB450:
 134              		.loc 1 30 39 is_stmt 1 view -0
 135              		.cfi_startproc
 136              		@ args = 0, pretend = 0, frame = 0
 137              		@ frame_needed = 0, uses_anonymous_args = 0
 138              		@ link register save eliminated.
 139              		.loc 1 31 5 view .LVU21
 140              		.loc 1 31 12 is_stmt 0 view .LVU22
 141 0000 0148     		ldr	r0, .L13
 142 0002 FFF7FEBF 		b	sdc_lld_is_card_inserted
 143              	.LVL4:
 144              	.L14:
 145 0006 00BF     		.align	2
 146              	.L13:
 147 0008 00000000 		.word	SDCD1
 148              		.cfi_endproc
 149              	.LFE450:
 150              		.size	drv_sd_hal_is_card_present, .-drv_sd_hal_is_card_present
 151              		.section	.text.drv_sd_hal_connect,"ax",%progbits
 152              		.align	1
 153              		.p2align 2,,3
 154              		.global	drv_sd_hal_connect
 155              		.syntax unified
 156              		.thumb
 157              		.thumb_func
 158              		.type	drv_sd_hal_connect, %function
 159              	drv_sd_hal_connect:
 160              	.LFB451:
 161              		.loc 1 34 42 is_stmt 1 view -0
 162              		.cfi_startproc
 163              		@ args = 0, pretend = 0, frame = 0
 164              		@ frame_needed = 0, uses_anonymous_args = 0
 165              		.loc 1 35 5 view .LVU24
 166              		.loc 1 34 42 is_stmt 0 view .LVU25
 167 0000 10B5     		push	{r4, lr}
 168              		.cfi_def_cfa_offset 8
 169              		.cfi_offset 4, -8
 170              		.cfi_offset 14, -4
 171              		.loc 1 35 9 view .LVU26
ARM GAS  C:\Users\DEVELO~1\AppData\Local\Temp\ccYfsuUi.s 			page 4


 172 0002 0A4C     		ldr	r4, .L22
 173              		.loc 1 35 8 view .LVU27
 174 0004 2378     		ldrb	r3, [r4]	@ zero_extendqisi2
 175 0006 0BB1     		cbz	r3, .L21
 176              		.loc 1 36 16 view .LVU28
 177 0008 0020     		movs	r0, #0
 178              		.loc 1 46 1 view .LVU29
 179 000a 10BD     		pop	{r4, pc}
 180              	.L21:
 181              		.loc 1 38 5 is_stmt 1 view .LVU30
 182              	.LBB20:
 183              	.LBI20:
 184              		.loc 1 30 6 view .LVU31
 185              	.LBB21:
 186              		.loc 1 31 5 view .LVU32
 187              		.loc 1 31 12 is_stmt 0 view .LVU33
 188 000c 0848     		ldr	r0, .L22+4
 189 000e FFF7FEFF 		bl	sdc_lld_is_card_inserted
 190              	.LVL5:
 191              	.LBE21:
 192              	.LBE20:
 193              		.loc 1 38 8 view .LVU34
 194 0012 30B1     		cbz	r0, .L18
 195              		.loc 1 41 5 is_stmt 1 view .LVU35
 196              		.loc 1 41 9 is_stmt 0 view .LVU36
 197 0014 0648     		ldr	r0, .L22+4
 198 0016 FFF7FEFF 		bl	sdcConnect
 199              	.LVL6:
 200              		.loc 1 41 8 view .LVU37
 201 001a 20B9     		cbnz	r0, .L19
 202              		.loc 1 44 5 is_stmt 1 view .LVU38
 203              		.loc 1 44 18 is_stmt 0 view .LVU39
 204 001c 0123     		movs	r3, #1
 205 001e 2370     		strb	r3, [r4]
 206              		.loc 1 45 5 is_stmt 1 view .LVU40
 207              		.loc 1 46 1 is_stmt 0 view .LVU41
 208 0020 10BD     		pop	{r4, pc}
 209              	.L18:
 210              		.loc 1 39 16 view .LVU42
 211 0022 0120     		movs	r0, #1
 212              		.loc 1 46 1 view .LVU43
 213 0024 10BD     		pop	{r4, pc}
 214              	.L19:
 215              		.loc 1 42 16 view .LVU44
 216 0026 0220     		movs	r0, #2
 217              		.loc 1 46 1 view .LVU45
 218 0028 10BD     		pop	{r4, pc}
 219              	.L23:
 220 002a 00BF     		.align	2
 221              	.L22:
 222 002c 00000000 		.word	.LANCHOR2
 223 0030 00000000 		.word	SDCD1
 224              		.cfi_endproc
 225              	.LFE451:
 226              		.size	drv_sd_hal_connect, .-drv_sd_hal_connect
 227              		.section	.text.drv_sd_hal_disconnect,"ax",%progbits
 228              		.align	1
ARM GAS  C:\Users\DEVELO~1\AppData\Local\Temp\ccYfsuUi.s 			page 5


 229              		.p2align 2,,3
 230              		.global	drv_sd_hal_disconnect
 231              		.syntax unified
 232              		.thumb
 233              		.thumb_func
 234              		.type	drv_sd_hal_disconnect, %function
 235              	drv_sd_hal_disconnect:
 236              	.LFB452:
 237              		.loc 1 48 34 is_stmt 1 view -0
 238              		.cfi_startproc
 239              		@ args = 0, pretend = 0, frame = 0
 240              		@ frame_needed = 0, uses_anonymous_args = 0
 241              		.loc 1 49 5 view .LVU47
 242              		.loc 1 48 34 is_stmt 0 view .LVU48
 243 0000 10B5     		push	{r4, lr}
 244              		.cfi_def_cfa_offset 8
 245              		.cfi_offset 4, -8
 246              		.cfi_offset 14, -4
 247              		.loc 1 49 9 view .LVU49
 248 0002 054C     		ldr	r4, .L31
 249              		.loc 1 49 8 view .LVU50
 250 0004 2378     		ldrb	r3, [r4]	@ zero_extendqisi2
 251 0006 03B9     		cbnz	r3, .L30
 252              		.loc 1 54 1 view .LVU51
 253 0008 10BD     		pop	{r4, pc}
 254              	.L30:
 255              		.loc 1 52 5 is_stmt 1 view .LVU52
 256 000a 0448     		ldr	r0, .L31+4
 257 000c FFF7FEFF 		bl	sdcDisconnect
 258              	.LVL7:
 259              		.loc 1 53 5 view .LVU53
 260              		.loc 1 53 18 is_stmt 0 view .LVU54
 261 0010 0023     		movs	r3, #0
 262 0012 2370     		strb	r3, [r4]
 263              		.loc 1 54 1 view .LVU55
 264 0014 10BD     		pop	{r4, pc}
 265              	.L32:
 266 0016 00BF     		.align	2
 267              	.L31:
 268 0018 00000000 		.word	.LANCHOR2
 269 001c 00000000 		.word	SDCD1
 270              		.cfi_endproc
 271              	.LFE452:
 272              		.size	drv_sd_hal_disconnect, .-drv_sd_hal_disconnect
 273              		.section	.text.drv_sd_hal_read_blocks,"ax",%progbits
 274              		.align	1
 275              		.p2align 2,,3
 276              		.global	drv_sd_hal_read_blocks
 277              		.syntax unified
 278              		.thumb
 279              		.thumb_func
 280              		.type	drv_sd_hal_read_blocks, %function
 281              	drv_sd_hal_read_blocks:
 282              	.LVL8:
 283              	.LFB454:
 284              		.loc 1 72 90 is_stmt 1 view -0
 285              		.cfi_startproc
ARM GAS  C:\Users\DEVELO~1\AppData\Local\Temp\ccYfsuUi.s 			page 6


 286              		@ args = 0, pretend = 0, frame = 0
 287              		@ frame_needed = 0, uses_anonymous_args = 0
 288              		.loc 1 73 5 view .LVU57
 289              	.LBB28:
 290              	.LBI28:
 291              		.loc 1 30 6 view .LVU58
 292              	.LBB29:
 293              		.loc 1 31 5 view .LVU59
 294              	.LBE29:
 295              	.LBE28:
 296              		.loc 1 72 90 is_stmt 0 view .LVU60
 297 0000 70B5     		push	{r4, r5, r6, lr}
 298              		.cfi_def_cfa_offset 16
 299              		.cfi_offset 4, -16
 300              		.cfi_offset 5, -12
 301              		.cfi_offset 6, -8
 302              		.cfi_offset 14, -4
 303              		.loc 1 72 90 view .LVU61
 304 0002 0546     		mov	r5, r0
 305              	.LBB32:
 306              	.LBB30:
 307              		.loc 1 31 12 view .LVU62
 308 0004 0F48     		ldr	r0, .L42
 309              	.LVL9:
 310              		.loc 1 31 12 view .LVU63
 311              	.LBE30:
 312              	.LBE32:
 313              		.loc 1 72 90 view .LVU64
 314 0006 0C46     		mov	r4, r1
 315 0008 1646     		mov	r6, r2
 316              	.LBB33:
 317              	.LBB31:
 318              		.loc 1 31 12 view .LVU65
 319 000a FFF7FEFF 		bl	sdc_lld_is_card_inserted
 320              	.LVL10:
 321              		.loc 1 31 12 view .LVU66
 322              	.LBE31:
 323              	.LBE33:
 324              		.loc 1 73 8 view .LVU67
 325 000e 10B1     		cbz	r0, .L36
 326              		.loc 1 73 42 discriminator 1 view .LVU68
 327 0010 0D4B     		ldr	r3, .L42+4
 328              		.loc 1 73 39 discriminator 1 view .LVU69
 329 0012 1B78     		ldrb	r3, [r3]	@ zero_extendqisi2
 330 0014 0BB9     		cbnz	r3, .L41
 331              	.L36:
 332              		.loc 1 74 16 view .LVU70
 333 0016 0120     		movs	r0, #1
 334              	.L34:
 335              		.loc 1 82 1 view .LVU71
 336 0018 70BD     		pop	{r4, r5, r6, pc}
 337              	.LVL11:
 338              	.L41:
 339              		.loc 1 76 5 is_stmt 1 view .LVU72
 340              		.loc 1 76 17 is_stmt 0 view .LVU73
 341 001a 3346     		mov	r3, r6
 342 001c 2A46     		mov	r2, r5
ARM GAS  C:\Users\DEVELO~1\AppData\Local\Temp\ccYfsuUi.s 			page 7


 343 001e 2146     		mov	r1, r4
 344 0020 0848     		ldr	r0, .L42
 345 0022 FFF7FEFF 		bl	sdcRead
 346              	.LVL12:
 347              		.loc 1 77 5 is_stmt 1 view .LVU74
 348              		.loc 1 77 25 is_stmt 0 view .LVU75
 349 0026 0748     		ldr	r0, .L42
 350 0028 FFF7FEFF 		bl	sdcGetAndClearErrors
 351              	.LVL13:
 352              		.loc 1 78 5 is_stmt 1 view .LVU76
 353              		.loc 1 81 5 view .LVU77
 354              	.LBB34:
 355              	.LBI34:
 356              		.loc 1 56 24 view .LVU78
 357              	.LBB35:
 358              		.loc 1 57 5 view .LVU79
 359              		.loc 1 57 8 is_stmt 0 view .LVU80
 360 002c 0028     		cmp	r0, #0
 361 002e F3D0     		beq	.L34
 362              	.LVL14:
 363              	.LBB36:
 364              	.LBI36:
 365              		.loc 1 56 24 is_stmt 1 view .LVU81
 366              	.LBB37:
 367              		.loc 1 60 5 view .LVU82
 368              		.loc 1 60 8 is_stmt 0 view .LVU83
 369 0030 8307     		lsls	r3, r0, #30
 370 0032 05D1     		bne	.L38
 371              		.loc 1 63 5 is_stmt 1 view .LVU84
 372              		.loc 1 67 16 is_stmt 0 view .LVU85
 373 0034 10F00C0F 		tst	r0, #12
 374 0038 14BF     		ite	ne
 375 003a 0420     		movne	r0, #4
 376              	.LVL15:
 377              		.loc 1 67 16 view .LVU86
 378 003c 0220     		moveq	r0, #2
 379              		.loc 1 67 16 view .LVU87
 380              	.LBE37:
 381              	.LBE36:
 382              	.LBE35:
 383              	.LBE34:
 384              		.loc 1 82 1 view .LVU88
 385 003e 70BD     		pop	{r4, r5, r6, pc}
 386              	.LVL16:
 387              	.L38:
 388              	.LBB41:
 389              	.LBB40:
 390              	.LBB39:
 391              	.LBB38:
 392              		.loc 1 61 16 view .LVU89
 393 0040 0320     		movs	r0, #3
 394              	.LVL17:
 395              		.loc 1 61 16 view .LVU90
 396              	.LBE38:
 397              	.LBE39:
 398              	.LBE40:
 399              	.LBE41:
ARM GAS  C:\Users\DEVELO~1\AppData\Local\Temp\ccYfsuUi.s 			page 8


 400              		.loc 1 82 1 view .LVU91
 401 0042 70BD     		pop	{r4, r5, r6, pc}
 402              	.LVL18:
 403              	.L43:
 404              		.loc 1 82 1 view .LVU92
 405              		.align	2
 406              	.L42:
 407 0044 00000000 		.word	SDCD1
 408 0048 00000000 		.word	.LANCHOR2
 409              		.cfi_endproc
 410              	.LFE454:
 411              		.size	drv_sd_hal_read_blocks, .-drv_sd_hal_read_blocks
 412              		.section	.text.drv_sd_hal_write_blocks,"ax",%progbits
 413              		.align	1
 414              		.p2align 2,,3
 415              		.global	drv_sd_hal_write_blocks
 416              		.syntax unified
 417              		.thumb
 418              		.thumb_func
 419              		.type	drv_sd_hal_write_blocks, %function
 420              	drv_sd_hal_write_blocks:
 421              	.LVL19:
 422              	.LFB455:
 423              		.loc 1 84 97 is_stmt 1 view -0
 424              		.cfi_startproc
 425              		@ args = 0, pretend = 0, frame = 0
 426              		@ frame_needed = 0, uses_anonymous_args = 0
 427              		.loc 1 85 5 view .LVU94
 428              	.LBB48:
 429              	.LBI48:
 430              		.loc 1 30 6 view .LVU95
 431              	.LBB49:
 432              		.loc 1 31 5 view .LVU96
 433              	.LBE49:
 434              	.LBE48:
 435              		.loc 1 84 97 is_stmt 0 view .LVU97
 436 0000 70B5     		push	{r4, r5, r6, lr}
 437              		.cfi_def_cfa_offset 16
 438              		.cfi_offset 4, -16
 439              		.cfi_offset 5, -12
 440              		.cfi_offset 6, -8
 441              		.cfi_offset 14, -4
 442              		.loc 1 84 97 view .LVU98
 443 0002 0546     		mov	r5, r0
 444              	.LBB52:
 445              	.LBB50:
 446              		.loc 1 31 12 view .LVU99
 447 0004 0F48     		ldr	r0, .L53
 448              	.LVL20:
 449              		.loc 1 31 12 view .LVU100
 450              	.LBE50:
 451              	.LBE52:
 452              		.loc 1 84 97 view .LVU101
 453 0006 0C46     		mov	r4, r1
 454 0008 1646     		mov	r6, r2
 455              	.LBB53:
 456              	.LBB51:
ARM GAS  C:\Users\DEVELO~1\AppData\Local\Temp\ccYfsuUi.s 			page 9


 457              		.loc 1 31 12 view .LVU102
 458 000a FFF7FEFF 		bl	sdc_lld_is_card_inserted
 459              	.LVL21:
 460              		.loc 1 31 12 view .LVU103
 461              	.LBE51:
 462              	.LBE53:
 463              		.loc 1 85 8 view .LVU104
 464 000e 10B1     		cbz	r0, .L47
 465              		.loc 1 85 42 discriminator 1 view .LVU105
 466 0010 0D4B     		ldr	r3, .L53+4
 467              		.loc 1 85 39 discriminator 1 view .LVU106
 468 0012 1B78     		ldrb	r3, [r3]	@ zero_extendqisi2
 469 0014 0BB9     		cbnz	r3, .L52
 470              	.L47:
 471              		.loc 1 86 16 view .LVU107
 472 0016 0120     		movs	r0, #1
 473              	.L45:
 474              		.loc 1 94 1 view .LVU108
 475 0018 70BD     		pop	{r4, r5, r6, pc}
 476              	.LVL22:
 477              	.L52:
 478              		.loc 1 88 5 is_stmt 1 view .LVU109
 479              		.loc 1 88 17 is_stmt 0 view .LVU110
 480 001a 3346     		mov	r3, r6
 481 001c 2A46     		mov	r2, r5
 482 001e 2146     		mov	r1, r4
 483 0020 0848     		ldr	r0, .L53
 484 0022 FFF7FEFF 		bl	sdcWrite
 485              	.LVL23:
 486              		.loc 1 89 5 is_stmt 1 view .LVU111
 487              		.loc 1 89 25 is_stmt 0 view .LVU112
 488 0026 0748     		ldr	r0, .L53
 489 0028 FFF7FEFF 		bl	sdcGetAndClearErrors
 490              	.LVL24:
 491              		.loc 1 90 5 is_stmt 1 view .LVU113
 492              		.loc 1 93 5 view .LVU114
 493              	.LBB54:
 494              	.LBI54:
 495              		.loc 1 56 24 view .LVU115
 496              	.LBB55:
 497              		.loc 1 57 5 view .LVU116
 498              		.loc 1 57 8 is_stmt 0 view .LVU117
 499 002c 0028     		cmp	r0, #0
 500 002e F3D0     		beq	.L45
 501              	.LVL25:
 502              	.LBB56:
 503              	.LBI56:
 504              		.loc 1 56 24 is_stmt 1 view .LVU118
 505              	.LBB57:
 506              		.loc 1 60 5 view .LVU119
 507              		.loc 1 60 8 is_stmt 0 view .LVU120
 508 0030 8307     		lsls	r3, r0, #30
 509 0032 05D1     		bne	.L49
 510              		.loc 1 63 5 is_stmt 1 view .LVU121
 511              		.loc 1 67 16 is_stmt 0 view .LVU122
 512 0034 10F00C0F 		tst	r0, #12
 513 0038 14BF     		ite	ne
ARM GAS  C:\Users\DEVELO~1\AppData\Local\Temp\ccYfsuUi.s 			page 10


 514 003a 0420     		movne	r0, #4
 515              	.LVL26:
 516              		.loc 1 67 16 view .LVU123
 517 003c 0220     		moveq	r0, #2
 518              		.loc 1 67 16 view .LVU124
 519              	.LBE57:
 520              	.LBE56:
 521              	.LBE55:
 522              	.LBE54:
 523              		.loc 1 94 1 view .LVU125
 524 003e 70BD     		pop	{r4, r5, r6, pc}
 525              	.LVL27:
 526              	.L49:
 527              	.LBB61:
 528              	.LBB60:
 529              	.LBB59:
 530              	.LBB58:
 531              		.loc 1 61 16 view .LVU126
 532 0040 0320     		movs	r0, #3
 533              	.LVL28:
 534              		.loc 1 61 16 view .LVU127
 535              	.LBE58:
 536              	.LBE59:
 537              	.LBE60:
 538              	.LBE61:
 539              		.loc 1 94 1 view .LVU128
 540 0042 70BD     		pop	{r4, r5, r6, pc}
 541              	.LVL29:
 542              	.L54:
 543              		.loc 1 94 1 view .LVU129
 544              		.align	2
 545              	.L53:
 546 0044 00000000 		.word	SDCD1
 547 0048 00000000 		.word	.LANCHOR2
 548              		.cfi_endproc
 549              	.LFE455:
 550              		.size	drv_sd_hal_write_blocks, .-drv_sd_hal_write_blocks
 551              		.section	.text.drv_sd_hal_sync,"ax",%progbits
 552              		.align	1
 553              		.p2align 2,,3
 554              		.global	drv_sd_hal_sync
 555              		.syntax unified
 556              		.thumb
 557              		.thumb_func
 558              		.type	drv_sd_hal_sync, %function
 559              	drv_sd_hal_sync:
 560              	.LFB456:
 561              		.loc 1 96 28 is_stmt 1 view -0
 562              		.cfi_startproc
 563              		@ args = 0, pretend = 0, frame = 0
 564              		@ frame_needed = 0, uses_anonymous_args = 0
 565              		@ link register save eliminated.
 566              		.loc 1 97 5 view .LVU131
 567              		.loc 1 97 11 is_stmt 0 view .LVU132
 568 0000 0148     		ldr	r0, .L56
 569 0002 FFF7FEBF 		b	sdcSync
 570              	.LVL30:
ARM GAS  C:\Users\DEVELO~1\AppData\Local\Temp\ccYfsuUi.s 			page 11


 571              	.L57:
 572 0006 00BF     		.align	2
 573              	.L56:
 574 0008 00000000 		.word	SDCD1
 575              		.cfi_endproc
 576              	.LFE456:
 577              		.size	drv_sd_hal_sync, .-drv_sd_hal_sync
 578              		.section	.text.drv_sd_hal_get_info,"ax",%progbits
 579              		.align	1
 580              		.p2align 2,,3
 581              		.global	drv_sd_hal_get_info
 582              		.syntax unified
 583              		.thumb
 584              		.thumb_func
 585              		.type	drv_sd_hal_get_info, %function
 586              	drv_sd_hal_get_info:
 587              	.LVL31:
 588              	.LFB457:
 589              		.loc 1 100 60 is_stmt 1 view -0
 590              		.cfi_startproc
 591              		@ args = 0, pretend = 0, frame = 0
 592              		@ frame_needed = 0, uses_anonymous_args = 0
 593              		.loc 1 101 5 view .LVU134
 594              		.loc 1 101 8 is_stmt 0 view .LVU135
 595 0000 88B1     		cbz	r0, .L60
 596              		.loc 1 104 5 is_stmt 1 view .LVU136
 597              	.LBB62:
 598              	.LBI62:
 599              		.loc 1 30 6 view .LVU137
 600              	.LBB63:
 601              		.loc 1 31 5 view .LVU138
 602              	.LBE63:
 603              	.LBE62:
 604              		.loc 1 100 60 is_stmt 0 view .LVU139
 605 0002 10B5     		push	{r4, lr}
 606              		.cfi_def_cfa_offset 8
 607              		.cfi_offset 4, -8
 608              		.cfi_offset 14, -4
 609 0004 0446     		mov	r4, r0
 610              	.LBB65:
 611              	.LBB64:
 612              		.loc 1 31 12 view .LVU140
 613 0006 0948     		ldr	r0, .L68
 614              	.LVL32:
 615              		.loc 1 31 12 view .LVU141
 616 0008 FFF7FEFF 		bl	sdc_lld_is_card_inserted
 617              	.LVL33:
 618              	.LBE64:
 619              	.LBE65:
 620              		.loc 1 104 8 view .LVU142
 621 000c 10B1     		cbz	r0, .L62
 622              		.loc 1 104 42 discriminator 1 view .LVU143
 623 000e 084B     		ldr	r3, .L68+4
 624              		.loc 1 104 39 discriminator 1 view .LVU144
 625 0010 1B78     		ldrb	r3, [r3]	@ zero_extendqisi2
 626 0012 0BB9     		cbnz	r3, .L67
 627              	.L62:
ARM GAS  C:\Users\DEVELO~1\AppData\Local\Temp\ccYfsuUi.s 			page 12


 628              		.loc 1 105 16 view .LVU145
 629 0014 0120     		movs	r0, #1
 630              		.loc 1 111 1 view .LVU146
 631 0016 10BD     		pop	{r4, pc}
 632              	.LVL34:
 633              	.L67:
 634              		.loc 1 107 5 is_stmt 1 view .LVU147
 635              		.loc 1 107 9 is_stmt 0 view .LVU148
 636 0018 2146     		mov	r1, r4
 637 001a 0448     		ldr	r0, .L68
 638 001c FFF7FEFF 		bl	sdcGetInfo
 639              	.LVL35:
 640              		.loc 1 107 8 view .LVU149
 641 0020 4000     		lsls	r0, r0, #1
 642 0022 C0B2     		uxtb	r0, r0
 643              		.loc 1 111 1 view .LVU150
 644 0024 10BD     		pop	{r4, pc}
 645              	.LVL36:
 646              	.L60:
 647              		.cfi_def_cfa_offset 0
 648              		.cfi_restore 4
 649              		.cfi_restore 14
 650              		.loc 1 102 16 view .LVU151
 651 0026 0220     		movs	r0, #2
 652              	.LVL37:
 653              		.loc 1 111 1 view .LVU152
 654 0028 7047     		bx	lr
 655              	.L69:
 656 002a 00BF     		.align	2
 657              	.L68:
 658 002c 00000000 		.word	SDCD1
 659 0030 00000000 		.word	.LANCHOR2
 660              		.cfi_endproc
 661              	.LFE457:
 662              		.size	drv_sd_hal_get_info, .-drv_sd_hal_get_info
 663              		.section	.bss.sd_connected,"aw",%nobits
 664              		.set	.LANCHOR2,. + 0
 665              		.type	sd_connected, %object
 666              		.size	sd_connected, 1
 667              	sd_connected:
 668 0000 00       		.space	1
 669              		.section	.bss.sd_hal_initialized,"aw",%nobits
 670              		.set	.LANCHOR0,. + 0
 671              		.type	sd_hal_initialized, %object
 672              		.size	sd_hal_initialized, 1
 673              	sd_hal_initialized:
 674 0000 00       		.space	1
 675              		.section	.rodata.sd_cfg,"a"
 676              		.align	2
 677              		.set	.LANCHOR1,. + 0
 678              		.type	sd_cfg, %object
 679              		.size	sd_cfg, 8
 680              	sd_cfg:
 681 0000 01       		.byte	1
 682 0001 000000   		.space	3
 683 0004 00000000 		.word	0
 684              		.text
ARM GAS  C:\Users\DEVELO~1\AppData\Local\Temp\ccYfsuUi.s 			page 13


 685              	.Letext0:
 686              		.file 2 "c:\\chibistudio\\tools\\gnu tools arm embedded\\11.3 2022.08\\lib\\gcc\\arm-none-eabi\\11
 687              		.file 3 "c:\\chibistudio\\tools\\gnu tools arm embedded\\11.3 2022.08\\arm-none-eabi\\include\\mac
 688              		.file 4 "c:\\chibistudio\\tools\\gnu tools arm embedded\\11.3 2022.08\\arm-none-eabi\\include\\sys
 689              		.file 5 "./docs/ChibiOS/os/common/ports/ARM-common/include/chtypes.h"
 690              		.file 6 "./docs/ChibiOS/os/rt/include/chearly.h"
 691              		.file 7 "./docs/ChibiOS/os/rt/include/chobjects.h"
 692              		.file 8 "./docs/ChibiOS/os/rt/include/chrfcu.h"
 693              		.file 9 "./docs/ChibiOS/os/rt/include/chdebug.h"
 694              		.file 10 "./docs/ChibiOS/os/rt/include/chtime.h"
 695              		.file 11 "./docs/ChibiOS/os/rt/include/chtrace.h"
 696              		.file 12 "./docs/ChibiOS/os/common/ext/ST/STM32H7xx/stm32h743xx.h"
 697              		.file 13 "./docs/ChibiOS/os/common/ports/ARMv7-M/chcore.h"
 698              		.file 14 "./docs/ChibiOS/os/rt/include/chlists.h"
 699              		.file 15 "./docs/ChibiOS/os/rt/include/chsem.h"
 700              		.file 16 "./docs/ChibiOS/os/rt/include/chmtx.h"
 701              		.file 17 "./docs/ChibiOS/os/hal/include/hal_ioblock.h"
 702              		.file 18 "./docs/ChibiOS/os/hal/include/hal_sdc.h"
 703              		.file 19 "./docs/ChibiOS/os/hal/ports/STM32/LLD/SDMMCv2/hal_sdc_lld.h"
 704              		.file 20 "drivers/sd/drv_sd_hal.h"