ARM GAS  C:\Users\DEVELO~1\AppData\Local\Temp\ccwonFef.s 			page 1


   1              		.cpu cortex-m7
   2              		.arch armv7e-m
   3              		.fpu fpv5-d16
   4              		.eabi_attribute 28, 1
   5              		.eabi_attribute 20, 1
   6              		.eabi_attribute 21, 1
   7              		.eabi_attribute 23, 3
   8              		.eabi_attribute 24, 1
   9              		.eabi_attribute 25, 1
  10              		.eabi_attribute 26, 1
  11              		.eabi_attribute 30, 2
  12              		.eabi_attribute 34, 1
  13              		.eabi_attribute 18, 4
  14              		.file	"font.c"
  15              		.text
  16              	.Ltext0:
  17              		.cfi_sections	.debug_frame
  18              		.section	.text.get_col_5x7,"ax",%progbits
  19              		.align	1
  20              		.p2align 2,,3
  21              		.syntax unified
  22              		.thumb
  23              		.thumb_func
  24              		.type	get_col_5x7, %function
  25              	get_col_5x7:
  26              	.LVL0:
  27              	.LFB0:
  28              		.file 1 "ui/font.c"
  29              		.loc 1 37 49 view -0
  30              		.cfi_startproc
  31              		@ args = 0, pretend = 0, frame = 0
  32              		@ frame_needed = 0, uses_anonymous_args = 0
  33              		@ link register save eliminated.
  34              		.loc 1 38 5 view .LVU1
  35              		.loc 1 39 5 view .LVU2
  36              		.loc 1 38 16 is_stmt 0 view .LVU3
  37 0000 2038     		subs	r0, r0, #32
  38              	.LVL1:
  39              		.loc 1 38 8 view .LVU4
  40 0002 C3B2     		uxtb	r3, r0
  41              		.loc 1 39 8 view .LVU5
  42 0004 5E2B     		cmp	r3, #94
  43 0006 07D8     		bhi	.L3
  44 0008 0429     		cmp	r1, #4
  45 000a 05D8     		bhi	.L3
  46              		.loc 1 40 5 is_stmt 1 view .LVU6
  47              		.loc 1 40 36 is_stmt 0 view .LVU7
  48 000c 00EB8000 		add	r0, r0, r0, lsl #2
  49 0010 024B     		ldr	r3, .L5
  50 0012 0344     		add	r3, r3, r0
  51 0014 585C     		ldrb	r0, [r3, r1]	@ zero_extendqisi2
  52 0016 7047     		bx	lr
  53              	.L3:
  54              		.loc 1 39 26 view .LVU8
  55 0018 0020     		movs	r0, #0
  56              		.loc 1 41 1 view .LVU9
  57 001a 7047     		bx	lr
ARM GAS  C:\Users\DEVELO~1\AppData\Local\Temp\ccwonFef.s 			page 2


  58              	.L6:
  59              		.align	2
  60              	.L5:
  61 001c 00000000 		.word	font5x7
  62              		.cfi_endproc
  63              	.LFE0:
  64              		.size	get_col_5x7, .-get_col_5x7
  65              		.section	.text.get_col_5x8_elektron,"ax",%progbits
  66              		.align	1
  67              		.p2align 2,,3
  68              		.syntax unified
  69              		.thumb
  70              		.thumb_func
  71              		.type	get_col_5x8_elektron, %function
  72              	get_col_5x8_elektron:
  73              	.LVL2:
  74              	.LFB1:
  75              		.loc 1 55 58 is_stmt 1 view -0
  76              		.cfi_startproc
  77              		@ args = 0, pretend = 0, frame = 0
  78              		@ frame_needed = 0, uses_anonymous_args = 0
  79              		@ link register save eliminated.
  80              		.loc 1 56 5 view .LVU11
  81              		.loc 1 57 5 view .LVU12
  82              		.loc 1 56 41 is_stmt 0 view .LVU13
  83 0000 2038     		subs	r0, r0, #32
  84              	.LVL3:
  85              		.loc 1 56 8 view .LVU14
  86 0002 C3B2     		uxtb	r3, r0
  87              		.loc 1 57 8 view .LVU15
  88 0004 5E2B     		cmp	r3, #94
  89 0006 08D8     		bhi	.L9
  90 0008 0429     		cmp	r1, #4
  91 000a 06D8     		bhi	.L9
  92              		.loc 1 58 5 is_stmt 1 view .LVU16
  93              		.loc 1 58 61 is_stmt 0 view .LVU17
  94 000c 00EB4000 		add	r0, r0, r0, lsl #1
  95 0010 034B     		ldr	r3, .L10
  96 0012 03EB4003 		add	r3, r3, r0, lsl #1
  97 0016 585C     		ldrb	r0, [r3, r1]	@ zero_extendqisi2
  98 0018 7047     		bx	lr
  99              	.L9:
 100              		.loc 1 57 26 view .LVU18
 101 001a 0020     		movs	r0, #0
 102              		.loc 1 59 1 view .LVU19
 103 001c 7047     		bx	lr
 104              	.L11:
 105 001e 00BF     		.align	2
 106              	.L10:
 107 0020 00000000 		.word	font5x8_elektron
 108              		.cfi_endproc
 109              	.LFE1:
 110              		.size	get_col_5x8_elektron, .-get_col_5x8_elektron
 111              		.section	.text.get_col_4x6,"ax",%progbits
 112              		.align	1
 113              		.p2align 2,,3
 114              		.syntax unified
ARM GAS  C:\Users\DEVELO~1\AppData\Local\Temp\ccwonFef.s 			page 3


 115              		.thumb
 116              		.thumb_func
 117              		.type	get_col_4x6, %function
 118              	get_col_4x6:
 119              	.LVL4:
 120              	.LFB3:
 121              		.loc 1 92 49 is_stmt 1 view -0
 122              		.cfi_startproc
 123              		@ args = 0, pretend = 0, frame = 0
 124              		@ frame_needed = 0, uses_anonymous_args = 0
 125              		.loc 1 93 5 view .LVU21
 126              		.loc 1 94 5 view .LVU22
 127              		.loc 1 92 49 is_stmt 0 view .LVU23
 128 0000 2DE9F04F 		push	{r4, r5, r6, r7, r8, r9, r10, fp, lr}
 129              		.cfi_def_cfa_offset 36
 130              		.cfi_offset 4, -36
 131              		.cfi_offset 5, -32
 132              		.cfi_offset 6, -28
 133              		.cfi_offset 7, -24
 134              		.cfi_offset 8, -20
 135              		.cfi_offset 9, -16
 136              		.cfi_offset 10, -12
 137              		.cfi_offset 11, -8
 138              		.cfi_offset 14, -4
 139              		.loc 1 93 16 view .LVU24
 140 0004 A0F12007 		sub	r7, r0, #32
 141              		.loc 1 93 8 view .LVU25
 142 0008 FBB2     		uxtb	r3, r7
 143              		.loc 1 94 8 view .LVU26
 144 000a 5E2B     		cmp	r3, #94
 145 000c 0FD8     		bhi	.L21
 146 000e 0329     		cmp	r1, #3
 147 0010 8846     		mov	r8, r1
 148 0012 0CD8     		bhi	.L21
 149              	.LVL5:
 150              	.LBB12:
 151              	.LBI12:
 152              		.loc 1 92 16 is_stmt 1 view .LVU27
 153              	.LBB13:
 154              		.loc 1 95 5 view .LVU28
 155              		.loc 1 95 9 is_stmt 0 view .LVU29
 156 0014 DFF888A0 		ldr	r10, .L31+4
 157 0018 DFF88890 		ldr	r9, .L31+8
 158              		.loc 1 95 8 view .LVU30
 159 001c 9AF80030 		ldrb	r3, [r10]	@ zero_extendqisi2
 160 0020 43B1     		cbz	r3, .L29
 161              	.LVL6:
 162              	.L14:
 163              		.loc 1 96 5 is_stmt 1 view .LVU31
 164              		.loc 1 96 45 is_stmt 0 view .LVU32
 165 0022 09EB8709 		add	r9, r9, r7, lsl #2
 166 0026 19F80800 		ldrb	r0, [r9, r8]	@ zero_extendqisi2
 167              	.LVL7:
 168              		.loc 1 96 45 view .LVU33
 169              	.LBE13:
 170              	.LBE12:
 171              		.loc 1 97 1 view .LVU34
ARM GAS  C:\Users\DEVELO~1\AppData\Local\Temp\ccwonFef.s 			page 4


 172 002a BDE8F08F 		pop	{r4, r5, r6, r7, r8, r9, r10, fp, pc}
 173              	.LVL8:
 174              	.L21:
 175              		.loc 1 94 26 view .LVU35
 176 002e 0020     		movs	r0, #0
 177              	.LVL9:
 178              		.loc 1 97 1 view .LVU36
 179 0030 BDE8F08F 		pop	{r4, r5, r6, r7, r8, r9, r10, fp, pc}
 180              	.LVL10:
 181              	.L29:
 182              		.loc 1 97 1 view .LVU37
 183 0034 4946     		mov	r1, r9
 184              	.LVL11:
 185              		.loc 1 97 1 view .LVU38
 186 0036 194C     		ldr	r4, .L31
 187 0038 09F5BE76 		add	r6, r9, #380
 188              	.LBB33:
 189              	.LBB32:
 190              	.LBB14:
 191              	.LBB15:
 192              	.LBB16:
 193              	.LBB17:
 194              	.LBB18:
 195              	.LBB19:
 196              	.LBB20:
 197              	.LBB21:
 198              		.loc 1 78 58 view .LVU39
 199 003c 0125     		movs	r5, #1
 200              	.LVL12:
 201              	.L20:
 202              		.loc 1 78 58 view .LVU40
 203              	.LBE21:
 204              	.LBE20:
 205              	.LBE19:
 206              	.LBE18:
 207              		.loc 1 68 9 is_stmt 1 view .LVU41
 208              		.loc 1 69 9 view .LVU42
 209              	.LBB30:
 210              		.loc 1 69 14 view .LVU43
 211              		.loc 1 69 35 view .LVU44
 212              	.LBE30:
 213              		.loc 1 68 24 is_stmt 0 view .LVU45
 214 003e 0023     		movs	r3, #0
 215              	.LVL13:
 216              	.L19:
 217              	.LBB31:
 218              	.LBB29:
 219              		.loc 1 70 13 is_stmt 1 view .LVU46
 220              		.loc 1 70 36 is_stmt 0 view .LVU47
 221 0040 C3F34602 		ubfx	r2, r3, #1, #7
 222              	.LBB26:
 223              	.LBB22:
 224              		.loc 1 76 39 view .LVU48
 225 0044 0846     		mov	r0, r1
 226 0046 4FF0000C 		mov	ip, #0
 227              	.LBE22:
 228              	.LBE26:
ARM GAS  C:\Users\DEVELO~1\AppData\Local\Temp\ccwonFef.s 			page 5


 229              		.loc 1 70 21 view .LVU49
 230 004a 14F802E0 		ldrb	lr, [r4, r2]	@ zero_extendqisi2
 231              	.LVL14:
 232              		.loc 1 71 13 is_stmt 1 view .LVU50
 233              		.loc 1 71 21 is_stmt 0 view .LVU51
 234 004e DA07     		lsls	r2, r3, #31
 235              	.LBB27:
 236              	.LBB23:
 237              		.loc 1 78 58 view .LVU52
 238 0050 05FA03F2 		lsl	r2, r5, r3
 239              	.LBE23:
 240              	.LBE27:
 241              		.loc 1 71 21 view .LVU53
 242 0054 4CBF     		ite	mi
 243 0056 0EF00F0E 		andmi	lr, lr, #15
 244              	.LVL15:
 245              		.loc 1 71 21 view .LVU54
 246 005a 4FEA1E1E 		lsrpl	lr, lr, #4
 247              	.LVL16:
 248              		.loc 1 75 13 is_stmt 1 view .LVU55
 249              	.LBB28:
 250              		.loc 1 75 18 view .LVU56
 251              		.loc 1 75 39 view .LVU57
 252              	.LBB24:
 253              		.loc 1 78 51 is_stmt 0 view .LVU58
 254 005e D2B2     		uxtb	r2, r2
 255              	.LVL17:
 256              	.L18:
 257              		.loc 1 76 17 is_stmt 1 view .LVU59
 258              		.loc 1 77 17 view .LVU60
 259              		.loc 1 78 21 view .LVU61
 260              	.LBE24:
 261              		.loc 1 75 47 view .LVU62
 262              		.loc 1 75 39 view .LVU63
 263              	.LBB25:
 264              		.loc 1 76 39 is_stmt 0 view .LVU64
 265 0060 4EFA0CFB 		asr	fp, lr, ip
 266              		.loc 1 77 20 view .LVU65
 267 0064 0CF1010C 		add	ip, ip, #1
 268              	.LVL18:
 269              		.loc 1 77 20 view .LVU66
 270 0068 1BF0010F 		tst	fp, #1
 271 006c 05D0     		beq	.L17
 272              		.loc 1 78 51 view .LVU67
 273 006e 90F800B0 		ldrb	fp, [r0]	@ zero_extendqisi2
 274 0072 42EA0B0B 		orr	fp, r2, fp
 275 0076 80F800B0 		strb	fp, [r0]
 276              	.L17:
 277              	.LBE25:
 278              		.loc 1 75 39 view .LVU68
 279 007a BCF1040F 		cmp	ip, #4
 280 007e 00F10100 		add	r0, r0, #1
 281 0082 EDD1     		bne	.L18
 282              	.LBE28:
 283              	.LBE29:
 284              		.loc 1 69 43 is_stmt 1 view .LVU69
 285              	.LVL19:
ARM GAS  C:\Users\DEVELO~1\AppData\Local\Temp\ccwonFef.s 			page 6


 286              		.loc 1 69 35 view .LVU70
 287 0084 0133     		adds	r3, r3, #1
 288              	.LVL20:
 289              		.loc 1 69 35 is_stmt 0 view .LVU71
 290 0086 062B     		cmp	r3, #6
 291 0088 DAD1     		bne	.L19
 292              	.LBE31:
 293              	.LBE17:
 294              		.loc 1 67 33 is_stmt 1 view .LVU72
 295              		.loc 1 67 24 view .LVU73
 296 008a 0431     		adds	r1, r1, #4
 297 008c 0334     		adds	r4, r4, #3
 298              	.LVL21:
 299              		.loc 1 67 24 is_stmt 0 view .LVU74
 300 008e B142     		cmp	r1, r6
 301 0090 D5D1     		bne	.L20
 302              	.LBE16:
 303              		.loc 1 82 5 is_stmt 1 view .LVU75
 304              		.loc 1 82 19 is_stmt 0 view .LVU76
 305 0092 0123     		movs	r3, #1
 306              	.LVL22:
 307              		.loc 1 82 19 view .LVU77
 308 0094 8AF80030 		strb	r3, [r10]
 309              		.loc 1 83 1 view .LVU78
 310 0098 C3E7     		b	.L14
 311              	.L32:
 312 009a 00BF     		.align	2
 313              	.L31:
 314 009c 60000000 		.word	font4x6+96
 315 00a0 00000000 		.word	.LANCHOR0
 316 00a4 00000000 		.word	.LANCHOR1
 317              	.LBE15:
 318              	.LBE14:
 319              	.LBE32:
 320              	.LBE33:
 321              		.cfi_endproc
 322              	.LFE3:
 323              		.size	get_col_4x6, .-get_col_4x6
 324              		.global	FONT_5X8_ELEKTRON
 325              		.section	.rodata.str1.4,"aMS",%progbits,1
 326              		.align	2
 327              	.LC0:
 328 0000 3578385F 		.ascii	"5x8_elektron\000"
 328      656C656B 
 328      74726F6E 
 328      00
 329              		.global	FONT_4X6
 330 000d 000000   		.align	2
 331              	.LC1:
 332 0010 34783600 		.ascii	"4x6\000"
 333              		.global	FONT_5X7
 334              		.align	2
 335              	.LC2:
 336 0014 35783700 		.ascii	"5x7\000"
 337              		.section	.bss.font4x6_expanded,"aw",%nobits
 338              		.align	2
 339              		.set	.LANCHOR1,. + 0
ARM GAS  C:\Users\DEVELO~1\AppData\Local\Temp\ccwonFef.s 			page 7


 340              		.type	font4x6_expanded, %object
 341              		.size	font4x6_expanded, 380
 342              	font4x6_expanded:
 343 0000 00000000 		.space	380
 343      00000000 
 343      00000000 
 343      00000000 
 343      00000000 
 344              		.section	.bss.font4x6_ready,"aw",%nobits
 345              		.set	.LANCHOR0,. + 0
 346              		.type	font4x6_ready, %object
 347              		.size	font4x6_ready, 1
 348              	font4x6_ready:
 349 0000 00       		.space	1
 350              		.section	.rodata.FONT_4X6,"a"
 351              		.align	2
 352              		.type	FONT_4X6, %object
 353              		.size	FONT_4X6, 16
 354              	FONT_4X6:
 355 0000 10000000 		.word	.LC1
 356 0004 04       		.byte	4
 357 0005 06       		.byte	6
 358 0006 20       		.byte	32
 359 0007 7E       		.byte	126
 360 0008 00       		.byte	0
 361 0009 000000   		.space	3
 362 000c 00000000 		.word	get_col_4x6
 363              		.section	.rodata.FONT_5X7,"a"
 364              		.align	2
 365              		.type	FONT_5X7, %object
 366              		.size	FONT_5X7, 16
 367              	FONT_5X7:
 368 0000 14000000 		.word	.LC2
 369 0004 05       		.byte	5
 370 0005 07       		.byte	7
 371 0006 20       		.byte	32
 372 0007 7E       		.byte	126
 373 0008 01       		.byte	1
 374 0009 000000   		.space	3
 375 000c 00000000 		.word	get_col_5x7
 376              		.section	.rodata.FONT_5X8_ELEKTRON,"a"
 377              		.align	2
 378              		.type	FONT_5X8_ELEKTRON, %object
 379              		.size	FONT_5X8_ELEKTRON, 16
 380              	FONT_5X8_ELEKTRON:
 381 0000 00000000 		.word	.LC0
 382 0004 05       		.byte	5
 383 0005 08       		.byte	8
 384 0006 20       		.byte	32
 385 0007 7F       		.byte	127
 386 0008 01       		.byte	1
 387 0009 000000   		.space	3
 388 000c 00000000 		.word	get_col_5x8_elektron
 389              		.text
 390              	.Letext0:
 391              		.file 2 "c:\\chibistudio\\tools\\gnu tools arm embedded\\11.3 2022.08\\arm-none-eabi\\include\\mac
 392              		.file 3 "c:\\chibistudio\\tools\\gnu tools arm embedded\\11.3 2022.08\\arm-none-eabi\\include\\sys
ARM GAS  C:\Users\DEVELO~1\AppData\Local\Temp\ccwonFef.s 			page 8


 393              		.file 4 "ui/font.h"
 394              		.file 5 "ui/font5x7.h"
 395              		.file 6 "ui/font4x6.h"
 396              		.file 7 "ui/font5x8_elektron.h"