ARM GAS  C:\Users\DEVELO~1\AppData\Local\Temp\cc5tfsrp.s 			page 1


   1              		.cpu cortex-m7
   2              		.arch armv7e-m
   3              		.fpu fpv5-d16
   4              		.eabi_attribute 28, 1
   5              		.eabi_attribute 20, 1
   6              		.eabi_attribute 21, 1
   7              		.eabi_attribute 23, 3
   8              		.eabi_attribute 24, 1
   9              		.eabi_attribute 25, 1
  10              		.eabi_attribute 26, 1
  11              		.eabi_attribute 30, 2
  12              		.eabi_attribute 34, 1
  13              		.eabi_attribute 18, 4
  14              		.file	"hal.c"
  15              		.text
  16              	.Ltext0:
  17              		.cfi_sections	.debug_frame
  18              		.section	.text.halInit,"ax",%progbits
  19              		.align	1
  20              		.p2align 2,,3
  21              		.global	halInit
  22              		.syntax unified
  23              		.thumb
  24              		.thumb_func
  25              		.type	halInit, %function
  26              	halInit:
  27              	.LFB448:
  28              		.file 1 "../../../os/hal/src/hal.c"
  29              		.loc 1 56 20 view -0
  30              		.cfi_startproc
  31              		@ args = 0, pretend = 0, frame = 0
  32              		@ frame_needed = 0, uses_anonymous_args = 0
  33              		.loc 1 59 3 view .LVU1
  34              		.loc 1 62 3 view .LVU2
  35              		.loc 1 56 20 is_stmt 0 view .LVU3
  36 0000 08B5     		push	{r3, lr}
  37              		.cfi_def_cfa_offset 8
  38              		.cfi_offset 3, -8
  39              		.cfi_offset 14, -4
  40              		.loc 1 62 3 view .LVU4
  41 0002 FFF7FEFF 		bl	hal_lld_init
  42              	.LVL0:
  43              		.loc 1 66 3 is_stmt 1 view .LVU5
  44 0006 FFF7FEFF 		bl	_pal_lld_init
  45              	.LVL1:
  46              		.loc 1 72 3 view .LVU6
  47 000a FFF7FEFF 		bl	adcInit
  48              	.LVL2:
  49              		.loc 1 102 3 view .LVU7
  50 000e FFF7FEFF 		bl	pwmInit
  51              	.LVL3:
  52              		.loc 1 105 3 view .LVU8
  53 0012 FFF7FEFF 		bl	sdInit
  54              	.LVL4:
  55              		.loc 1 108 3 view .LVU9
  56 0016 FFF7FEFF 		bl	sdcInit
  57              	.LVL5:
ARM GAS  C:\Users\DEVELO~1\AppData\Local\Temp\cc5tfsrp.s 			page 2


  58              		.loc 1 114 3 view .LVU10
  59 001a FFF7FEFF 		bl	spiInit
  60              	.LVL6:
  61              		.loc 1 149 3 view .LVU11
  62 001e FFF7FEFF 		bl	boardInit
  63              	.LVL7:
  64              		.loc 1 156 3 view .LVU12
  65              		.loc 1 158 1 is_stmt 0 view .LVU13
  66 0022 BDE80840 		pop	{r3, lr}
  67              		.cfi_restore 14
  68              		.cfi_restore 3
  69              		.cfi_def_cfa_offset 0
  70              		.loc 1 156 3 view .LVU14
  71 0026 FFF7FEBF 		b	stInit
  72              	.LVL8:
  73              		.cfi_endproc
  74              	.LFE448:
  75              		.size	halInit, .-halInit
  76 002a 00BF     		.text
  77              	.Letext0:
  78              		.file 2 "../../../os/hal/include/hal_st.h"
  79              		.file 3 "../../../os/hal/boards/CUSTOM_H743IIT6/board.h"
  80              		.file 4 "../../../os/hal/include/hal_spi_v2.h"
  81              		.file 5 "../../../os/hal/include/hal_sdc.h"
  82              		.file 6 "../../../os/hal/include/hal_serial.h"
  83              		.file 7 "../../../os/hal/include/hal_pwm.h"
  84              		.file 8 "../../../os/hal/include/hal_adc.h"
  85              		.file 9 "../../../os/hal/ports/STM32/LLD/GPIOv2/hal_pal_lld.h"
  86              		.file 10 "../../../os/hal/ports/STM32/STM32H7xx/hal_lld.h"
  87              		.file 11 "../../../os/hal/osal/rt-nil/osal.h"