ARM GAS  C:\Users\DEVELO~1\AppData\Local\Temp\ccxkKKM6.s 			page 1


   1              		.cpu cortex-m7
   2              		.arch armv7e-m
   3              		.fpu fpv5-d16
   4              		.eabi_attribute 28, 1
   5              		.eabi_attribute 20, 1
   6              		.eabi_attribute 21, 1
   7              		.eabi_attribute 23, 3
   8              		.eabi_attribute 24, 1
   9              		.eabi_attribute 25, 1
  10              		.eabi_attribute 26, 1
  11              		.eabi_attribute 30, 2
  12              		.eabi_attribute 34, 1
  13              		.eabi_attribute 18, 4
  14              		.file	"hal_i2c_lld.c"
  15              		.text
  16              	.Ltext0:
  17              		.cfi_sections	.debug_frame
  18              		.section	.text.Vector160,"ax",%progbits
  19              		.align	1
  20              		.p2align 2,,3
  21              		.global	Vector160
  22              		.syntax unified
  23              		.thumb
  24              		.thumb_func
  25              		.type	Vector160, %function
  26              	Vector160:
  27              	.LFB460:
  28              		.file 1 "../../../os/hal/ports/STM32/LLD/I2Cv3/hal_i2c_lld.c"
  29              		.loc 1 732 44 view -0
  30              		.cfi_startproc
  31              		@ args = 0, pretend = 0, frame = 0
  32              		@ frame_needed = 0, uses_anonymous_args = 0
  33              		.loc 1 733 3 view .LVU1
  34              		.loc 1 732 44 is_stmt 0 view .LVU2
  35 0000 70B5     		push	{r4, r5, r6, lr}
  36              		.cfi_def_cfa_offset 16
  37              		.cfi_offset 4, -16
  38              		.cfi_offset 5, -12
  39              		.cfi_offset 6, -8
  40              		.cfi_offset 14, -4
  41              		.loc 1 733 23 view .LVU3
  42 0002 704D     		ldr	r5, .L34
  43              		.loc 1 735 3 view .LVU4
  44 0004 7048     		ldr	r0, .L34+4
  45              		.loc 1 733 23 view .LVU5
  46 0006 AB6B     		ldr	r3, [r5, #56]
  47              		.loc 1 733 12 view .LVU6
  48 0008 9C69     		ldr	r4, [r3, #24]
  49              	.LVL0:
  50              		.loc 1 735 3 is_stmt 1 view .LVU7
  51              		.loc 1 735 3 view .LVU8
  52              		.loc 1 735 3 view .LVU9
  53              		.loc 1 735 3 view .LVU10
  54              		.loc 1 735 3 view .LVU11
  55 000a FFF7FEFF 		bl	__trace_isr_enter
  56              	.LVL1:
  57              		.loc 1 735 22 view .LVU12
ARM GAS  C:\Users\DEVELO~1\AppData\Local\Temp\ccxkKKM6.s 			page 2


  58              		.loc 1 738 3 view .LVU13
  59              		.loc 1 738 8 is_stmt 0 view .LVU14
  60 000e AA6B     		ldr	r2, [r5, #56]
  61              		.loc 1 738 24 view .LVU15
  62 0010 04F0FE03 		and	r3, r4, #254
  63              	.LBB306:
  64              	.LBB307:
  65              		.loc 1 354 6 view .LVU16
  66 0014 14F01001 		ands	r1, r4, #16
  67              	.LBE307:
  68              	.LBE306:
  69              		.loc 1 738 18 view .LVU17
  70 0018 D361     		str	r3, [r2, #28]
  71              		.loc 1 740 3 is_stmt 1 view .LVU18
  72              	.LVL2:
  73              	.LBB388:
  74              	.LBI306:
  75              		.loc 1 346 13 view .LVU19
  76              	.LBB383:
  77              		.loc 1 347 3 view .LVU20
  78              		.loc 1 354 3 view .LVU21
  79              		.loc 1 354 6 is_stmt 0 view .LVU22
  80 001a 4AD1     		bne	.L30
  81              		.loc 1 496 3 is_stmt 1 view .LVU23
  82              		.loc 1 496 6 is_stmt 0 view .LVU24
  83 001c 2006     		lsls	r0, r4, #24
  84 001e 2CD4     		bmi	.L31
  85              		.loc 1 507 3 is_stmt 1 view .LVU25
  86              		.loc 1 507 6 is_stmt 0 view .LVU26
  87 0020 6106     		lsls	r1, r4, #25
  88 0022 23D5     		bpl	.L5
  89              		.loc 1 508 5 is_stmt 1 view .LVU27
  90              		.loc 1 508 8 is_stmt 0 view .LVU28
  91 0024 2B78     		ldrb	r3, [r5]	@ zero_extendqisi2
  92 0026 032B     		cmp	r3, #3
  93 0028 00F08D80 		beq	.L32
  94              		.loc 1 543 7 is_stmt 1 view .LVU29
  95 002c 286B     		ldr	r0, [r5, #48]
  96              	.LBB308:
  97              	.LBI308:
  98              		.loc 1 191 20 view .LVU30
  99              	.LVL3:
 100              	.LBB309:
 101              		.loc 1 208 5 view .LVU31
 102 002e 0168     		ldr	r1, [r0]
 103 0030 0B68     		ldr	r3, [r1]
 104 0032 23F01F03 		bic	r3, r3, #31
 105 0036 0B60     		str	r3, [r1]
 106              		.loc 1 208 5 view .LVU32
 107              	.L14:
 108              		.loc 1 208 5 view .LVU33
 109 0038 0B68     		ldr	r3, [r1]
 110 003a DB07     		lsls	r3, r3, #31
 111 003c FCD4     		bmi	.L14
 112              		.loc 1 208 5 view .LVU34
 113 003e 047B     		ldrb	r4, [r0, #12]	@ zero_extendqisi2
 114              	.LVL4:
ARM GAS  C:\Users\DEVELO~1\AppData\Local\Temp\ccxkKKM6.s 			page 3


 115              		.loc 1 208 5 is_stmt 0 view .LVU35
 116 0040 3D23     		movs	r3, #61
 117 0042 4168     		ldr	r1, [r0, #4]
 118 0044 A340     		lsls	r3, r3, r4
 119 0046 0B60     		str	r3, [r1]
 120              		.loc 1 208 5 is_stmt 1 view .LVU36
 121              		.loc 1 208 35 view .LVU37
 122              	.LVL5:
 123              	.L12:
 124              		.loc 1 208 35 is_stmt 0 view .LVU38
 125              	.LBE309:
 126              	.LBE308:
 127              		.loc 1 548 5 is_stmt 1 view .LVU39
 128              		.loc 1 548 13 is_stmt 0 view .LVU40
 129 0048 5368     		ldr	r3, [r2, #4]
 130              	.LBB310:
 131              	.LBB311:
 132              	.LBB312:
 133              	.LBB313:
 134              	.LBB314:
 135              	.LBB315:
 136              		.file 2 "../../../os/common/ext/ARM/CMSIS/Core/Include/cmsis_gcc.h"
 137              		.loc 2 493 3 view .LVU41
 138 004a 3021     		movs	r1, #48
 139              	.LBE315:
 140              	.LBE314:
 141              	.LBE313:
 142              	.LBE312:
 143              	.LBE311:
 144              	.LBE310:
 145              		.loc 1 548 13 view .LVU42
 146 004c 43F48043 		orr	r3, r3, #16384
 147 0050 5360     		str	r3, [r2, #4]
 148              		.loc 1 551 5 is_stmt 1 view .LVU43
 149              		.loc 1 551 13 is_stmt 0 view .LVU44
 150 0052 1368     		ldr	r3, [r2]
 151 0054 23F04003 		bic	r3, r3, #64
 152 0058 1360     		str	r3, [r2]
 153              		.loc 1 554 5 is_stmt 1 view .LVU45
 154              		.loc 1 554 5 view .LVU46
 155              	.LBB321:
 156              	.LBI310:
 157              		.file 3 "../../../os/hal/osal/rt-nil/osal.h"
 158              		.loc 3 595 20 view .LVU47
 159              		.loc 3 597 3 view .LVU48
 160              	.LBB320:
 161              	.LBI311:
 162              		.file 4 "../../../os/rt/include/chsys.h"
 163              		.loc 4 416 20 view .LVU49
 164              		.loc 4 418 3 view .LVU50
 165              	.LBB319:
 166              	.LBI312:
 167              		.file 5 "../../../os/common/ports/ARMv7-M/chcore.h"
 168              		.loc 5 879 27 view .LVU51
 169              		.loc 5 881 3 view .LVU52
 170              	.LBB318:
 171              	.LBI313:
ARM GAS  C:\Users\DEVELO~1\AppData\Local\Temp\ccxkKKM6.s 			page 4


 172              		.loc 5 840 27 view .LVU53
 173              		.loc 5 848 3 view .LVU54
 174              	.LVL6:
 175              	.LBB317:
 176              	.LBI314:
 177              		.loc 2 491 27 view .LVU55
 178              	.LBB316:
 179              		.loc 2 493 3 view .LVU56
 180              		.syntax unified
 181              	@ 493 "../../../os/common/ext/ARM/CMSIS/Core/Include/cmsis_gcc.h" 1
 182 005a 81F31188 		MSR basepri, r1
 183              	@ 0 "" 2
 184              	.LVL7:
 185              		.loc 2 493 3 is_stmt 0 view .LVU57
 186              		.thumb
 187              		.syntax unified
 188              	.LBE316:
 189              	.LBE317:
 190              	.LBE318:
 191              	.LBE319:
 192              		.loc 4 419 35 is_stmt 1 view .LVU58
 193              		.loc 4 420 30 view .LVU59
 194              	.LBE320:
 195              	.LBE321:
 196              		.loc 1 554 5 view .LVU60
 197              	.LBB322:
 198              	.LBI322:
 199              		.loc 3 837 20 view .LVU61
 200              	.LBB323:
 201              		.loc 3 839 3 view .LVU62
 202 005e 0021     		movs	r1, #0
 203 0060 5A48     		ldr	r0, .L34+8
 204 0062 FFF7FEFF 		bl	chThdResumeI
 205              	.LVL8:
 206              		.loc 3 839 3 is_stmt 0 view .LVU63
 207              	.LBE323:
 208              	.LBE322:
 209              		.loc 1 554 5 is_stmt 1 view .LVU64
 210              	.LBB324:
 211              	.LBI324:
 212              		.loc 3 606 20 view .LVU65
 213              	.LBB325:
 214              		.loc 3 608 3 view .LVU66
 215              	.LBB326:
 216              	.LBI326:
 217              		.loc 4 438 20 view .LVU67
 218              		.loc 4 440 32 view .LVU68
 219              		.loc 4 441 34 view .LVU69
 220              		.loc 4 442 3 view .LVU70
 221              	.LBB327:
 222              	.LBI327:
 223              		.loc 5 890 27 view .LVU71
 224              		.loc 5 892 3 view .LVU72
 225              	.LBB328:
 226              	.LBI328:
 227              		.loc 5 864 27 view .LVU73
 228              		.loc 5 867 3 view .LVU74
ARM GAS  C:\Users\DEVELO~1\AppData\Local\Temp\ccxkKKM6.s 			page 5


 229              	.LBB329:
 230              	.LBI329:
 231              		.loc 2 491 27 view .LVU75
 232              	.LBB330:
 233              		.loc 2 493 3 view .LVU76
 234 0066 0023     		movs	r3, #0
 235              		.syntax unified
 236              	@ 493 "../../../os/common/ext/ARM/CMSIS/Core/Include/cmsis_gcc.h" 1
 237 0068 83F31188 		MSR basepri, r3
 238              	@ 0 "" 2
 239              	.LVL9:
 240              		.thumb
 241              		.syntax unified
 242              	.L5:
 243              		.loc 2 493 3 is_stmt 0 view .LVU77
 244              	.LBE330:
 245              	.LBE329:
 246              	.LBE328:
 247              	.LBE327:
 248              	.LBE326:
 249              	.LBE325:
 250              	.LBE324:
 251              		.loc 1 554 5 is_stmt 1 view .LVU78
 252              		.loc 1 554 5 is_stmt 0 view .LVU79
 253              	.LBE383:
 254              	.LBE388:
 255              		.loc 1 742 3 is_stmt 1 view .LVU80
 256              		.loc 1 742 3 view .LVU81
 257 006c 5648     		ldr	r0, .L34+4
 258 006e FFF7FEFF 		bl	__trace_isr_leave
 259              	.LVL10:
 260              		.loc 1 742 3 view .LVU82
 261              		.loc 1 742 3 view .LVU83
 262              		.loc 1 742 3 view .LVU84
 263              		.loc 1 743 1 is_stmt 0 view .LVU85
 264 0072 BDE87040 		pop	{r4, r5, r6, lr}
 265              		.cfi_remember_state
 266              		.cfi_restore 14
 267              		.cfi_restore 6
 268              		.cfi_restore 5
 269              		.cfi_restore 4
 270              		.cfi_def_cfa_offset 0
 271              		.loc 1 742 3 view .LVU86
 272 0076 FFF7FEBF 		b	__port_irq_epilogue
 273              	.LVL11:
 274              	.L31:
 275              		.cfi_restore_state
 276              	.LBB389:
 277              	.LBB384:
 278              		.loc 1 497 5 is_stmt 1 view .LVU87
 279              		.loc 1 497 8 is_stmt 0 view .LVU88
 280 007a 2B78     		ldrb	r3, [r5]	@ zero_extendqisi2
 281 007c 032B     		cmp	r3, #3
 282 007e 52D0     		beq	.L33
 283              		.loc 1 501 7 is_stmt 1 view .LVU89
 284              	.LVL12:
 285              	.LBB331:
ARM GAS  C:\Users\DEVELO~1\AppData\Local\Temp\ccxkKKM6.s 			page 6


 286              	.LBI331:
 287              		.loc 1 262 13 view .LVU90
 288              	.LBB332:
 289              		.loc 1 263 3 view .LVU91
 290              		.loc 1 264 3 view .LVU92
 291              		.loc 1 265 3 view .LVU93
 292              		.loc 1 268 3 view .LVU94
 293              	.LBB333:
 294              	.LBI333:
 295              		.loc 1 100 22 view .LVU95
 296              	.LBB334:
 297              		.loc 1 115 5 view .LVU96
 298              		.loc 1 115 12 is_stmt 0 view .LVU97
 299 0080 2B6B     		ldr	r3, [r5, #48]
 300 0082 1B68     		ldr	r3, [r3]
 301 0084 5B68     		ldr	r3, [r3, #4]
 302              	.LVL13:
 303              		.loc 1 115 12 view .LVU98
 304              	.LBE334:
 305              	.LBE333:
 306              		.loc 1 269 3 is_stmt 1 view .LVU99
 307              		.loc 1 269 6 is_stmt 0 view .LVU100
 308 0086 FF2B     		cmp	r3, #255
 309 0088 00F28C80 		bhi	.L16
 310              		.loc 1 280 33 view .LVU101
 311 008c 1B04     		lsls	r3, r3, #16
 312              	.LVL14:
 313              	.L9:
 314              		.loc 1 279 3 is_stmt 1 view .LVU102
 315              		.loc 1 279 74 is_stmt 0 view .LVU103
 316 008e 6868     		ldr	r0, [r5, #4]
 317              		.loc 1 279 16 view .LVU104
 318 0090 5468     		ldr	r4, [r2, #4]
 319              	.LVL15:
 320              		.loc 1 280 28 view .LVU105
 321 0092 8068     		ldr	r0, [r0, #8]
 322 0094 0343     		orrs	r3, r3, r0
 323              		.loc 1 279 22 view .LVU106
 324 0096 4E48     		ldr	r0, .L34+12
 325 0098 2040     		ands	r0, r0, r4
 326              		.loc 1 280 28 view .LVU107
 327 009a 0343     		orrs	r3, r3, r0
 328              	.LBE332:
 329              	.LBE331:
 330              	.LBE384:
 331              	.LBE389:
 332              		.loc 1 742 3 view .LVU108
 333 009c 4A48     		ldr	r0, .L34+4
 334              	.LBB390:
 335              	.LBB385:
 336              	.LBB337:
 337              	.LBB335:
 338              		.loc 1 280 41 view .LVU109
 339 009e 0B43     		orrs	r3, r3, r1
 340 00a0 43F48063 		orr	r3, r3, #1024
 341              		.loc 1 279 11 view .LVU110
 342 00a4 5360     		str	r3, [r2, #4]
ARM GAS  C:\Users\DEVELO~1\AppData\Local\Temp\ccxkKKM6.s 			page 7


 343              	.LVL16:
 344              		.loc 1 279 11 view .LVU111
 345              	.LBE335:
 346              	.LBE337:
 347              		.loc 1 554 5 is_stmt 1 view .LVU112
 348              		.loc 1 554 5 is_stmt 0 view .LVU113
 349              	.LBE385:
 350              	.LBE390:
 351              		.loc 1 742 3 is_stmt 1 view .LVU114
 352              		.loc 1 742 3 view .LVU115
 353 00a6 FFF7FEFF 		bl	__trace_isr_leave
 354              	.LVL17:
 355              		.loc 1 742 3 view .LVU116
 356              		.loc 1 742 3 view .LVU117
 357              		.loc 1 742 3 view .LVU118
 358              		.loc 1 743 1 is_stmt 0 view .LVU119
 359 00aa BDE87040 		pop	{r4, r5, r6, lr}
 360              		.cfi_remember_state
 361              		.cfi_restore 14
 362              		.cfi_restore 6
 363              		.cfi_restore 5
 364              		.cfi_restore 4
 365              		.cfi_def_cfa_offset 0
 366              		.loc 1 742 3 view .LVU120
 367 00ae FFF7FEBF 		b	__port_irq_epilogue
 368              	.LVL18:
 369              	.L30:
 370              		.cfi_restore_state
 371              	.LBB391:
 372              	.LBB386:
 373              		.loc 1 358 5 is_stmt 1 view .LVU121
 374 00b2 286B     		ldr	r0, [r5, #48]
 375              	.LBB338:
 376              	.LBI338:
 377              		.loc 1 191 20 view .LVU122
 378              	.LVL19:
 379              	.LBB339:
 380              		.loc 1 208 5 view .LVU123
 381 00b4 0168     		ldr	r1, [r0]
 382 00b6 0B68     		ldr	r3, [r1]
 383 00b8 23F01F03 		bic	r3, r3, #31
 384 00bc 0B60     		str	r3, [r1]
 385              		.loc 1 208 5 view .LVU124
 386              	.LVL20:
 387              	.L3:
 388              		.loc 1 208 5 view .LVU125
 389 00be 0B68     		ldr	r3, [r1]
 390 00c0 DC07     		lsls	r4, r3, #31
 391 00c2 FCD4     		bmi	.L3
 392              		.loc 1 208 5 view .LVU126
 393 00c4 047B     		ldrb	r4, [r0, #12]	@ zero_extendqisi2
 394 00c6 3D23     		movs	r3, #61
 395 00c8 4168     		ldr	r1, [r0, #4]
 396 00ca A340     		lsls	r3, r3, r4
 397 00cc 686B     		ldr	r0, [r5, #52]
 398 00ce 0B60     		str	r3, [r1]
 399              		.loc 1 208 5 view .LVU127
ARM GAS  C:\Users\DEVELO~1\AppData\Local\Temp\ccxkKKM6.s 			page 8


 400              		.loc 1 208 35 view .LVU128
 401              	.LVL21:
 402              		.loc 1 208 35 is_stmt 0 view .LVU129
 403              	.LBE339:
 404              	.LBE338:
 405              		.loc 1 359 5 is_stmt 1 view .LVU130
 406              	.LBB340:
 407              	.LBI340:
 408              		.loc 1 213 20 view .LVU131
 409              	.LBB341:
 410              		.loc 1 230 5 view .LVU132
 411 00d0 0168     		ldr	r1, [r0]
 412 00d2 0B68     		ldr	r3, [r1]
 413 00d4 23F01F03 		bic	r3, r3, #31
 414 00d8 0B60     		str	r3, [r1]
 415              		.loc 1 230 5 view .LVU133
 416              	.L4:
 417              		.loc 1 230 5 view .LVU134
 418 00da 0C68     		ldr	r4, [r1]
 419 00dc 14F00104 		ands	r4, r4, #1
 420 00e0 FBD1     		bne	.L4
 421              		.loc 1 230 5 view .LVU135
 422 00e2 4168     		ldr	r1, [r0, #4]
 423 00e4 3D23     		movs	r3, #61
 424 00e6 007B     		ldrb	r0, [r0, #12]	@ zero_extendqisi2
 425 00e8 8340     		lsls	r3, r3, r0
 426 00ea 0B60     		str	r3, [r1]
 427              		.loc 1 230 5 view .LVU136
 428              		.loc 1 230 35 view .LVU137
 429              	.LVL22:
 430              		.loc 1 230 35 is_stmt 0 view .LVU138
 431              	.LBE341:
 432              	.LBE340:
 433              		.loc 1 375 5 is_stmt 1 view .LVU139
 434              		.loc 1 378 13 is_stmt 0 view .LVU140
 435 00ec 5368     		ldr	r3, [r2, #4]
 436              		.loc 1 375 18 view .LVU141
 437 00ee A968     		ldr	r1, [r5, #8]
 438              		.loc 1 378 13 view .LVU142
 439 00f0 43F48043 		orr	r3, r3, #16384
 440              		.loc 1 375 18 view .LVU143
 441 00f4 41F00401 		orr	r1, r1, #4
 442 00f8 A960     		str	r1, [r5, #8]
 443              		.loc 1 378 5 is_stmt 1 view .LVU144
 444              	.LBB342:
 445              	.LBB343:
 446              	.LBB344:
 447              	.LBB345:
 448              	.LBB346:
 449              	.LBB347:
 450              		.loc 2 493 3 is_stmt 0 view .LVU145
 451 00fa 3021     		movs	r1, #48
 452              	.LBE347:
 453              	.LBE346:
 454              	.LBE345:
 455              	.LBE344:
 456              	.LBE343:
ARM GAS  C:\Users\DEVELO~1\AppData\Local\Temp\ccxkKKM6.s 			page 9


 457              	.LBE342:
 458              		.loc 1 378 13 view .LVU146
 459 00fc 5360     		str	r3, [r2, #4]
 460              		.loc 1 381 5 is_stmt 1 view .LVU147
 461              		.loc 1 381 13 is_stmt 0 view .LVU148
 462 00fe 1368     		ldr	r3, [r2]
 463 0100 23F04603 		bic	r3, r3, #70
 464 0104 1360     		str	r3, [r2]
 465              		.loc 1 384 5 is_stmt 1 view .LVU149
 466              		.loc 1 384 5 view .LVU150
 467              	.LBB353:
 468              	.LBI342:
 469              		.loc 3 595 20 view .LVU151
 470              		.loc 3 597 3 view .LVU152
 471              	.LBB352:
 472              	.LBI343:
 473              		.loc 4 416 20 view .LVU153
 474              		.loc 4 418 3 view .LVU154
 475              	.LBB351:
 476              	.LBI344:
 477              		.loc 5 879 27 view .LVU155
 478              		.loc 5 881 3 view .LVU156
 479              	.LBB350:
 480              	.LBI345:
 481              		.loc 5 840 27 view .LVU157
 482              		.loc 5 848 3 view .LVU158
 483              	.LVL23:
 484              	.LBB349:
 485              	.LBI346:
 486              		.loc 2 491 27 view .LVU159
 487              	.LBB348:
 488              		.loc 2 493 3 view .LVU160
 489              		.syntax unified
 490              	@ 493 "../../../os/common/ext/ARM/CMSIS/Core/Include/cmsis_gcc.h" 1
 491 0106 81F31188 		MSR basepri, r1
 492              	@ 0 "" 2
 493              	.LVL24:
 494              		.loc 2 493 3 is_stmt 0 view .LVU161
 495              		.thumb
 496              		.syntax unified
 497              	.LBE348:
 498              	.LBE349:
 499              	.LBE350:
 500              	.LBE351:
 501              		.loc 4 419 35 is_stmt 1 view .LVU162
 502              		.loc 4 420 30 view .LVU163
 503              	.LBE352:
 504              	.LBE353:
 505              		.loc 1 384 5 view .LVU164
 506              	.LBB354:
 507              	.LBI354:
 508              		.loc 3 837 20 view .LVU165
 509              	.LBB355:
 510              		.loc 3 839 3 view .LVU166
 511 010a 6FF00101 		mvn	r1, #1
 512 010e 2F48     		ldr	r0, .L34+8
 513 0110 FFF7FEFF 		bl	chThdResumeI
ARM GAS  C:\Users\DEVELO~1\AppData\Local\Temp\ccxkKKM6.s 			page 10


 514              	.LVL25:
 515              		.loc 3 839 3 is_stmt 0 view .LVU167
 516              	.LBE355:
 517              	.LBE354:
 518              		.loc 1 384 5 is_stmt 1 view .LVU168
 519              	.LBB356:
 520              	.LBI356:
 521              		.loc 3 606 20 view .LVU169
 522              		.loc 3 608 3 view .LVU170
 523              	.LBB357:
 524              	.LBI357:
 525              		.loc 4 438 20 view .LVU171
 526              		.loc 4 440 32 view .LVU172
 527              		.loc 4 441 34 view .LVU173
 528              		.loc 4 442 3 view .LVU174
 529              	.LBB358:
 530              	.LBI358:
 531              		.loc 5 890 27 view .LVU175
 532              		.loc 5 892 3 view .LVU176
 533              	.LBB359:
 534              	.LBI359:
 535              		.loc 5 864 27 view .LVU177
 536              		.loc 5 867 3 view .LVU178
 537              	.LBB360:
 538              	.LBI360:
 539              		.loc 2 491 27 view .LVU179
 540              	.LBB361:
 541              		.loc 2 493 3 view .LVU180
 542              		.syntax unified
 543              	@ 493 "../../../os/common/ext/ARM/CMSIS/Core/Include/cmsis_gcc.h" 1
 544 0114 84F31188 		MSR basepri, r4
 545              	@ 0 "" 2
 546              	.LVL26:
 547              		.loc 2 493 3 is_stmt 0 view .LVU181
 548              		.thumb
 549              		.syntax unified
 550              	.LBE361:
 551              	.LBE360:
 552              	.LBE359:
 553              	.LBE358:
 554              	.LBE357:
 555              	.LBE356:
 556              		.loc 1 384 5 is_stmt 1 view .LVU182
 557              		.loc 1 386 5 view .LVU183
 558              		.loc 1 554 5 view .LVU184
 559              		.loc 1 554 5 is_stmt 0 view .LVU185
 560              	.LBE386:
 561              	.LBE391:
 562              		.loc 1 742 3 is_stmt 1 view .LVU186
 563              		.loc 1 742 3 view .LVU187
 564 0118 2B48     		ldr	r0, .L34+4
 565 011a FFF7FEFF 		bl	__trace_isr_leave
 566              	.LVL27:
 567              		.loc 1 742 3 view .LVU188
 568              		.loc 1 742 3 view .LVU189
 569              		.loc 1 742 3 view .LVU190
 570              		.loc 1 743 1 is_stmt 0 view .LVU191
ARM GAS  C:\Users\DEVELO~1\AppData\Local\Temp\ccxkKKM6.s 			page 11


 571 011e BDE87040 		pop	{r4, r5, r6, lr}
 572              		.cfi_remember_state
 573              		.cfi_restore 14
 574              		.cfi_restore 6
 575              		.cfi_restore 5
 576              		.cfi_restore 4
 577              		.cfi_def_cfa_offset 0
 578              		.loc 1 742 3 view .LVU192
 579 0122 FFF7FEBF 		b	__port_irq_epilogue
 580              	.LVL28:
 581              	.L33:
 582              		.cfi_restore_state
 583              	.LBB392:
 584              	.LBB387:
 585              		.loc 1 498 7 is_stmt 1 view .LVU193
 586              	.LBB362:
 587              	.LBI362:
 588              		.loc 1 290 13 view .LVU194
 589              	.LBB363:
 590              		.loc 1 291 3 view .LVU195
 591              		.loc 1 292 3 view .LVU196
 592              		.loc 1 293 3 view .LVU197
 593              		.loc 1 296 3 view .LVU198
 594              	.LBB364:
 595              	.LBI364:
 596              		.loc 1 123 22 view .LVU199
 597              	.LBB365:
 598              		.loc 1 138 5 view .LVU200
 599              		.loc 1 138 12 is_stmt 0 view .LVU201
 600 0126 6B6B     		ldr	r3, [r5, #52]
 601 0128 1B68     		ldr	r3, [r3]
 602 012a 5868     		ldr	r0, [r3, #4]
 603              	.LVL29:
 604              		.loc 1 138 12 view .LVU202
 605              	.LBE365:
 606              	.LBE364:
 607              		.loc 1 297 3 is_stmt 1 view .LVU203
 608              		.loc 1 297 6 is_stmt 0 view .LVU204
 609 012c FF28     		cmp	r0, #255
 610 012e 3ED8     		bhi	.L15
 611              		.loc 1 308 16 view .LVU205
 612 0130 0004     		lsls	r0, r0, #16
 613              	.LVL30:
 614              	.L8:
 615              		.loc 1 307 3 is_stmt 1 view .LVU206
 616              		.loc 1 307 74 is_stmt 0 view .LVU207
 617 0132 6B68     		ldr	r3, [r5, #4]
 618              		.loc 1 307 16 view .LVU208
 619 0134 5668     		ldr	r6, [r2, #4]
 620              		.loc 1 307 60 view .LVU209
 621 0136 9C68     		ldr	r4, [r3, #8]
 622              	.LVL31:
 623              		.loc 1 307 22 view .LVU210
 624 0138 254B     		ldr	r3, .L34+12
 625 013a 3340     		ands	r3, r3, r6
 626              		.loc 1 307 60 view .LVU211
 627 013c 2343     		orrs	r3, r3, r4
ARM GAS  C:\Users\DEVELO~1\AppData\Local\Temp\ccxkKKM6.s 			page 12


 628              		.loc 1 308 24 view .LVU212
 629 013e 0343     		orrs	r3, r3, r0
 630 0140 0B43     		orrs	r3, r3, r1
 631              		.loc 1 307 11 view .LVU213
 632 0142 5360     		str	r3, [r2, #4]
 633              		.loc 1 309 1 view .LVU214
 634 0144 92E7     		b	.L5
 635              	.LVL32:
 636              	.L32:
 637              		.loc 1 309 1 view .LVU215
 638              	.LBE363:
 639              	.LBE362:
 640              		.loc 1 513 7 is_stmt 1 view .LVU216
 641 0146 686B     		ldr	r0, [r5, #52]
 642              	.LBB367:
 643              	.LBI367:
 644              		.loc 1 213 20 view .LVU217
 645              	.LVL33:
 646              	.LBB368:
 647              		.loc 1 230 5 view .LVU218
 648 0148 0168     		ldr	r1, [r0]
 649 014a 0B68     		ldr	r3, [r1]
 650 014c 23F01F03 		bic	r3, r3, #31
 651 0150 0B60     		str	r3, [r1]
 652              		.loc 1 230 5 view .LVU219
 653              	.L11:
 654              		.loc 1 230 5 view .LVU220
 655 0152 0B68     		ldr	r3, [r1]
 656 0154 13F00103 		ands	r3, r3, #1
 657 0158 FBD1     		bne	.L11
 658              		.loc 1 230 5 view .LVU221
 659 015a 4468     		ldr	r4, [r0, #4]
 660              	.LVL34:
 661              		.loc 1 230 5 is_stmt 0 view .LVU222
 662 015c 3D21     		movs	r1, #61
 663 015e 007B     		ldrb	r0, [r0, #12]	@ zero_extendqisi2
 664 0160 8140     		lsls	r1, r1, r0
 665 0162 2160     		str	r1, [r4]
 666              		.loc 1 230 5 is_stmt 1 view .LVU223
 667              		.loc 1 230 35 view .LVU224
 668              	.LVL35:
 669              		.loc 1 230 35 is_stmt 0 view .LVU225
 670              	.LBE368:
 671              	.LBE367:
 672              		.loc 1 517 7 is_stmt 1 view .LVU226
 673              	.LBB369:
 674              	.LBI369:
 675              		.loc 1 100 22 view .LVU227
 676              	.LBB370:
 677              		.loc 1 115 5 view .LVU228
 678              		.loc 1 115 12 is_stmt 0 view .LVU229
 679 0164 296B     		ldr	r1, [r5, #48]
 680 0166 0968     		ldr	r1, [r1]
 681 0168 4868     		ldr	r0, [r1, #4]
 682              	.LVL36:
 683              		.loc 1 115 12 view .LVU230
 684              	.LBE370:
ARM GAS  C:\Users\DEVELO~1\AppData\Local\Temp\ccxkKKM6.s 			page 13


 685              	.LBE369:
 686              		.loc 1 517 10 view .LVU231
 687 016a 0028     		cmp	r0, #0
 688 016c 3FF46CAF 		beq	.L12
 689              		.loc 1 519 9 is_stmt 1 view .LVU232
 690              	.LVL37:
 691              	.LBB371:
 692              	.LBI371:
 693              		.loc 1 262 13 view .LVU233
 694              	.LBB372:
 695              		.loc 1 263 3 view .LVU234
 696              		.loc 1 264 3 view .LVU235
 697              		.loc 1 265 3 view .LVU236
 698              		.loc 1 268 3 view .LVU237
 699              	.LBB373:
 700              	.LBI373:
 701              		.loc 1 100 22 view .LVU238
 702              	.LBB374:
 703              		.loc 1 115 5 view .LVU239
 704              		.loc 1 115 12 is_stmt 0 view .LVU240
 705 0170 4868     		ldr	r0, [r1, #4]
 706              	.LVL38:
 707              		.loc 1 115 12 view .LVU241
 708              	.LBE374:
 709              	.LBE373:
 710              		.loc 1 269 3 is_stmt 1 view .LVU242
 711              		.loc 1 269 6 is_stmt 0 view .LVU243
 712 0172 FF28     		cmp	r0, #255
 713 0174 20D8     		bhi	.L17
 714              		.loc 1 280 33 view .LVU244
 715 0176 0004     		lsls	r0, r0, #16
 716              	.LVL39:
 717              	.L13:
 718              		.loc 1 279 3 is_stmt 1 view .LVU245
 719              		.loc 1 279 74 is_stmt 0 view .LVU246
 720 0178 6C68     		ldr	r4, [r5, #4]
 721              		.loc 1 279 16 view .LVU247
 722 017a 5668     		ldr	r6, [r2, #4]
 723              		.loc 1 280 28 view .LVU248
 724 017c A468     		ldr	r4, [r4, #8]
 725 017e 2043     		orrs	r0, r0, r4
 726              		.loc 1 279 22 view .LVU249
 727 0180 134C     		ldr	r4, .L34+12
 728 0182 3440     		ands	r4, r4, r6
 729              		.loc 1 280 28 view .LVU250
 730 0184 2043     		orrs	r0, r0, r4
 731              		.loc 1 280 41 view .LVU251
 732 0186 0343     		orrs	r3, r3, r0
 733              	.LVL40:
 734              		.loc 1 280 41 view .LVU252
 735              	.LBE372:
 736              	.LBE371:
 737              		.loc 1 533 21 view .LVU253
 738 0188 0420     		movs	r0, #4
 739              	.LBB377:
 740              	.LBB375:
 741              		.loc 1 280 41 view .LVU254
ARM GAS  C:\Users\DEVELO~1\AppData\Local\Temp\ccxkKKM6.s 			page 14


 742 018a 43F48063 		orr	r3, r3, #1024
 743              		.loc 1 279 11 view .LVU255
 744 018e 5360     		str	r3, [r2, #4]
 745              	.LVL41:
 746              		.loc 1 279 11 view .LVU256
 747              	.LBE375:
 748              	.LBE377:
 749              		.loc 1 523 9 is_stmt 1 view .LVU257
 750              	.LBB378:
 751              	.LBI378:
 752              		.loc 1 147 20 view .LVU258
 753              	.LBB379:
 754              		.loc 1 164 5 view .LVU259
 755 0190 0B68     		ldr	r3, [r1]
 756 0192 43F00103 		orr	r3, r3, #1
 757 0196 0B60     		str	r3, [r1]
 758              		.loc 1 164 34 view .LVU260
 759              	.LVL42:
 760              		.loc 1 164 34 is_stmt 0 view .LVU261
 761              	.LBE379:
 762              	.LBE378:
 763              		.loc 1 530 9 is_stmt 1 view .LVU262
 764              		.loc 1 530 17 is_stmt 0 view .LVU263
 765 0198 5368     		ldr	r3, [r2, #4]
 766              		.loc 1 533 21 view .LVU264
 767 019a 2870     		strb	r0, [r5]
 768              		.loc 1 530 17 view .LVU265
 769 019c 43F40053 		orr	r3, r3, #8192
 770 01a0 5360     		str	r3, [r2, #4]
 771              		.loc 1 533 9 is_stmt 1 view .LVU266
 772              		.loc 1 536 9 view .LVU267
 773 01a2 63E7     		b	.L5
 774              	.LVL43:
 775              	.L16:
 776              	.LBB380:
 777              	.LBB336:
 778              		.loc 1 536 9 is_stmt 0 view .LVU268
 779 01a4 4FF47F03 		mov	r3, #16711680
 780              	.LVL44:
 781              		.loc 1 271 12 view .LVU269
 782 01a8 4FF08071 		mov	r1, #16777216
 783 01ac 6FE7     		b	.L9
 784              	.LVL45:
 785              	.L15:
 786              		.loc 1 271 12 view .LVU270
 787              	.LBE336:
 788              	.LBE380:
 789              	.LBB381:
 790              	.LBB366:
 791 01ae 4FF47F00 		mov	r0, #16711680
 792              	.LVL46:
 793              		.loc 1 299 12 view .LVU271
 794 01b2 4FF08071 		mov	r1, #16777216
 795 01b6 BCE7     		b	.L8
 796              	.LVL47:
 797              	.L17:
 798              		.loc 1 299 12 view .LVU272
ARM GAS  C:\Users\DEVELO~1\AppData\Local\Temp\ccxkKKM6.s 			page 15


 799              	.LBE366:
 800              	.LBE381:
 801              	.LBB382:
 802              	.LBB376:
 803 01b8 4FF47F00 		mov	r0, #16711680
 804              	.LVL48:
 805              		.loc 1 271 12 view .LVU273
 806 01bc 4FF08073 		mov	r3, #16777216
 807 01c0 DAE7     		b	.L13
 808              	.L35:
 809 01c2 00BF     		.align	2
 810              	.L34:
 811 01c4 00000000 		.word	.LANCHOR0
 812 01c8 00000000 		.word	.LANCHOR1
 813 01cc 1C000000 		.word	.LANCHOR0+28
 814 01d0 FFFF00FE 		.word	-33488897
 815              	.LBE376:
 816              	.LBE382:
 817              	.LBE387:
 818              	.LBE392:
 819              		.cfi_endproc
 820              	.LFE460:
 821              		.size	Vector160, .-Vector160
 822              		.section	.text.Vector164,"ax",%progbits
 823              		.align	1
 824              		.p2align 2,,3
 825              		.global	Vector164
 826              		.syntax unified
 827              		.thumb
 828              		.thumb_func
 829              		.type	Vector164, %function
 830              	Vector164:
 831              	.LFB461:
 832              		.loc 1 745 44 is_stmt 1 view -0
 833              		.cfi_startproc
 834              		@ args = 0, pretend = 0, frame = 0
 835              		@ frame_needed = 0, uses_anonymous_args = 0
 836              		.loc 1 746 3 view .LVU275
 837              		.loc 1 745 44 is_stmt 0 view .LVU276
 838 0000 38B5     		push	{r3, r4, r5, lr}
 839              		.cfi_def_cfa_offset 16
 840              		.cfi_offset 3, -16
 841              		.cfi_offset 4, -12
 842              		.cfi_offset 5, -8
 843              		.cfi_offset 14, -4
 844              		.loc 1 746 23 view .LVU277
 845 0002 2C4C     		ldr	r4, .L55
 846              		.loc 1 748 3 view .LVU278
 847 0004 2C48     		ldr	r0, .L55+4
 848              		.loc 1 746 23 view .LVU279
 849 0006 A36B     		ldr	r3, [r4, #56]
 850              		.loc 1 746 12 view .LVU280
 851 0008 9D69     		ldr	r5, [r3, #24]
 852              	.LVL49:
 853              		.loc 1 748 3 is_stmt 1 view .LVU281
 854              		.loc 1 748 3 view .LVU282
 855              		.loc 1 748 3 view .LVU283
ARM GAS  C:\Users\DEVELO~1\AppData\Local\Temp\ccxkKKM6.s 			page 16


 856              		.loc 1 748 3 view .LVU284
 857              		.loc 1 748 3 view .LVU285
 858 000a FFF7FEFF 		bl	__trace_isr_enter
 859              	.LVL50:
 860              		.loc 1 748 22 view .LVU286
 861              		.loc 1 751 3 view .LVU287
 862 000e 216B     		ldr	r1, [r4, #48]
 863              		.loc 1 751 8 is_stmt 0 view .LVU288
 864 0010 A36B     		ldr	r3, [r4, #56]
 865              		.loc 1 751 24 view .LVU289
 866 0012 05F47C52 		and	r2, r5, #16128
 867              		.loc 1 751 18 view .LVU290
 868 0016 DA61     		str	r2, [r3, #28]
 869              		.loc 1 753 3 is_stmt 1 view .LVU291
 870              	.LVL51:
 871              	.LBB429:
 872              	.LBI429:
 873              		.loc 1 566 13 view .LVU292
 874              	.LBB430:
 875              		.loc 1 570 3 view .LVU293
 876              	.LBB431:
 877              	.LBI431:
 878              		.loc 1 191 20 view .LVU294
 879              	.LBB432:
 880              		.loc 1 208 5 view .LVU295
 881 0018 0A68     		ldr	r2, [r1]
 882 001a 1368     		ldr	r3, [r2]
 883 001c 23F01F03 		bic	r3, r3, #31
 884 0020 1360     		str	r3, [r2]
 885              		.loc 1 208 5 view .LVU296
 886              	.L37:
 887              		.loc 1 208 5 view .LVU297
 888 0022 1368     		ldr	r3, [r2]
 889 0024 DB07     		lsls	r3, r3, #31
 890 0026 FCD4     		bmi	.L37
 891              		.loc 1 208 5 view .LVU298
 892 0028 087B     		ldrb	r0, [r1, #12]	@ zero_extendqisi2
 893 002a 3D23     		movs	r3, #61
 894 002c 4A68     		ldr	r2, [r1, #4]
 895 002e 8340     		lsls	r3, r3, r0
 896 0030 616B     		ldr	r1, [r4, #52]
 897 0032 1360     		str	r3, [r2]
 898              		.loc 1 208 5 view .LVU299
 899              		.loc 1 208 35 view .LVU300
 900              	.LVL52:
 901              		.loc 1 208 35 is_stmt 0 view .LVU301
 902              	.LBE432:
 903              	.LBE431:
 904              		.loc 1 571 3 is_stmt 1 view .LVU302
 905              	.LBB433:
 906              	.LBI433:
 907              		.loc 1 213 20 view .LVU303
 908              	.LBB434:
 909              		.loc 1 230 5 view .LVU304
 910 0034 0A68     		ldr	r2, [r1]
 911 0036 1368     		ldr	r3, [r2]
 912 0038 23F01F03 		bic	r3, r3, #31
ARM GAS  C:\Users\DEVELO~1\AppData\Local\Temp\ccxkKKM6.s 			page 17


 913 003c 1360     		str	r3, [r2]
 914              		.loc 1 230 5 view .LVU305
 915              	.L38:
 916              		.loc 1 230 5 view .LVU306
 917 003e 1368     		ldr	r3, [r2]
 918 0040 D807     		lsls	r0, r3, #31
 919 0042 FCD4     		bmi	.L38
 920              		.loc 1 230 5 view .LVU307
 921 0044 087B     		ldrb	r0, [r1, #12]	@ zero_extendqisi2
 922 0046 3D23     		movs	r3, #61
 923 0048 4A68     		ldr	r2, [r1, #4]
 924              	.LBE434:
 925              	.LBE433:
 926              		.loc 1 577 6 is_stmt 0 view .LVU308
 927 004a E905     		lsls	r1, r5, #23
 928              	.LBB436:
 929              	.LBB435:
 930              		.loc 1 230 5 view .LVU309
 931 004c 03FA00F3 		lsl	r3, r3, r0
 932 0050 1360     		str	r3, [r2]
 933              		.loc 1 230 5 is_stmt 1 view .LVU310
 934              		.loc 1 230 35 view .LVU311
 935              	.LVL53:
 936              		.loc 1 230 35 is_stmt 0 view .LVU312
 937              	.LBE435:
 938              	.LBE436:
 939              		.loc 1 577 3 is_stmt 1 view .LVU313
 940              		.loc 1 578 5 view .LVU314
 941              		.loc 1 580 3 view .LVU315
 942              		.loc 1 578 18 is_stmt 0 view .LVU316
 943 0052 A368     		ldr	r3, [r4, #8]
 944 0054 44BF     		itt	mi
 945 0056 43F00103 		orrmi	r3, r3, #1
 946 005a A360     		strmi	r3, [r4, #8]
 947              		.loc 1 580 6 view .LVU317
 948 005c AA05     		lsls	r2, r5, #22
 949 005e 02D5     		bpl	.L41
 950              		.loc 1 581 5 is_stmt 1 view .LVU318
 951              		.loc 1 581 18 is_stmt 0 view .LVU319
 952 0060 43F00203 		orr	r3, r3, #2
 953 0064 A360     		str	r3, [r4, #8]
 954              	.L41:
 955              		.loc 1 583 3 is_stmt 1 view .LVU320
 956              		.loc 1 583 6 is_stmt 0 view .LVU321
 957 0066 6805     		lsls	r0, r5, #21
 958 0068 19D5     		bpl	.L42
 959              		.loc 1 584 5 is_stmt 1 view .LVU322
 960              		.loc 1 584 18 is_stmt 0 view .LVU323
 961 006a 43F00803 		orr	r3, r3, #8
 962              		.loc 1 586 6 view .LVU324
 963 006e E904     		lsls	r1, r5, #19
 964              		.loc 1 584 18 view .LVU325
 965 0070 A360     		str	r3, [r4, #8]
 966              		.loc 1 586 3 is_stmt 1 view .LVU326
 967              		.loc 1 586 6 is_stmt 0 view .LVU327
 968 0072 02D5     		bpl	.L44
 969              	.L43:
ARM GAS  C:\Users\DEVELO~1\AppData\Local\Temp\ccxkKKM6.s 			page 18


 970              		.loc 1 587 5 is_stmt 1 view .LVU328
 971              		.loc 1 587 18 is_stmt 0 view .LVU329
 972 0074 43F02003 		orr	r3, r3, #32
 973 0078 A360     		str	r3, [r4, #8]
 974              		.loc 1 590 3 is_stmt 1 view .LVU330
 975              	.L44:
 976              		.loc 1 591 5 view .LVU331
 977              		.loc 1 591 5 view .LVU332
 978              	.LBB437:
 979              	.LBI437:
 980              		.loc 3 595 20 view .LVU333
 981              		.loc 3 597 3 view .LVU334
 982              	.LBB438:
 983              	.LBI438:
 984              		.loc 4 416 20 view .LVU335
 985              		.loc 4 418 3 view .LVU336
 986              	.LBB439:
 987              	.LBI439:
 988              		.loc 5 879 27 view .LVU337
 989              		.loc 5 881 3 view .LVU338
 990              	.LBB440:
 991              	.LBI440:
 992              		.loc 5 840 27 view .LVU339
 993              		.loc 5 848 3 view .LVU340
 994              	.LVL54:
 995              	.LBB441:
 996              	.LBI441:
 997              		.loc 2 491 27 view .LVU341
 998              	.LBB442:
 999              		.loc 2 493 3 view .LVU342
 1000 007a 3023     		movs	r3, #48
 1001              		.syntax unified
 1002              	@ 493 "../../../os/common/ext/ARM/CMSIS/Core/Include/cmsis_gcc.h" 1
 1003 007c 83F31188 		MSR basepri, r3
 1004              	@ 0 "" 2
 1005              	.LVL55:
 1006              		.loc 2 493 3 is_stmt 0 view .LVU343
 1007              		.thumb
 1008              		.syntax unified
 1009              	.LBE442:
 1010              	.LBE441:
 1011              	.LBE440:
 1012              	.LBE439:
 1013              		.loc 4 419 35 is_stmt 1 view .LVU344
 1014              		.loc 4 420 30 view .LVU345
 1015              	.LBE438:
 1016              	.LBE437:
 1017              		.loc 1 591 5 view .LVU346
 1018              	.LBB443:
 1019              	.LBI443:
 1020              		.loc 3 837 20 view .LVU347
 1021              	.LBB444:
 1022              		.loc 3 839 3 view .LVU348
 1023 0080 6FF00101 		mvn	r1, #1
 1024 0084 0D48     		ldr	r0, .L55+8
 1025 0086 FFF7FEFF 		bl	chThdResumeI
 1026              	.LVL56:
ARM GAS  C:\Users\DEVELO~1\AppData\Local\Temp\ccxkKKM6.s 			page 19


 1027              		.loc 3 839 3 is_stmt 0 view .LVU349
 1028              	.LBE444:
 1029              	.LBE443:
 1030              		.loc 1 591 5 is_stmt 1 view .LVU350
 1031              	.LBB445:
 1032              	.LBI445:
 1033              		.loc 3 606 20 view .LVU351
 1034              	.LBB446:
 1035              		.loc 3 608 3 view .LVU352
 1036              	.LBB447:
 1037              	.LBI447:
 1038              		.loc 4 438 20 view .LVU353
 1039              		.loc 4 440 32 view .LVU354
 1040              		.loc 4 441 34 view .LVU355
 1041              		.loc 4 442 3 view .LVU356
 1042              	.LBB448:
 1043              	.LBI448:
 1044              		.loc 5 890 27 view .LVU357
 1045              		.loc 5 892 3 view .LVU358
 1046              	.LBB449:
 1047              	.LBI449:
 1048              		.loc 5 864 27 view .LVU359
 1049              		.loc 5 867 3 view .LVU360
 1050              	.LBB450:
 1051              	.LBI450:
 1052              		.loc 2 491 27 view .LVU361
 1053              	.LBB451:
 1054              		.loc 2 493 3 view .LVU362
 1055 008a 0023     		movs	r3, #0
 1056              		.syntax unified
 1057              	@ 493 "../../../os/common/ext/ARM/CMSIS/Core/Include/cmsis_gcc.h" 1
 1058 008c 83F31188 		MSR basepri, r3
 1059              	@ 0 "" 2
 1060              	.LVL57:
 1061              		.loc 2 493 3 is_stmt 0 view .LVU363
 1062              		.thumb
 1063              		.syntax unified
 1064              	.LBE451:
 1065              	.LBE450:
 1066              	.LBE449:
 1067              	.LBE448:
 1068              	.LBE447:
 1069              	.LBE446:
 1070              	.LBE445:
 1071              		.loc 1 591 5 is_stmt 1 view .LVU364
 1072              		.loc 1 591 5 is_stmt 0 view .LVU365
 1073              	.LBE430:
 1074              	.LBE429:
 1075              		.loc 1 755 3 is_stmt 1 view .LVU366
 1076              		.loc 1 755 3 view .LVU367
 1077 0090 0948     		ldr	r0, .L55+4
 1078 0092 FFF7FEFF 		bl	__trace_isr_leave
 1079              	.LVL58:
 1080              		.loc 1 755 3 view .LVU368
 1081              		.loc 1 755 3 view .LVU369
 1082              		.loc 1 755 3 view .LVU370
 1083              		.loc 1 756 1 is_stmt 0 view .LVU371
ARM GAS  C:\Users\DEVELO~1\AppData\Local\Temp\ccxkKKM6.s 			page 20


 1084 0096 BDE83840 		pop	{r3, r4, r5, lr}
 1085              		.cfi_remember_state
 1086              		.cfi_restore 14
 1087              		.cfi_restore 5
 1088              		.cfi_restore 4
 1089              		.cfi_restore 3
 1090              		.cfi_def_cfa_offset 0
 1091              	.LVL59:
 1092              		.loc 1 755 3 view .LVU372
 1093 009a FFF7FEBF 		b	__port_irq_epilogue
 1094              	.LVL60:
 1095              	.L42:
 1096              		.cfi_restore_state
 1097              	.LBB453:
 1098              	.LBB452:
 1099              		.loc 1 586 3 is_stmt 1 view .LVU373
 1100              		.loc 1 586 6 is_stmt 0 view .LVU374
 1101 009e EA04     		lsls	r2, r5, #19
 1102 00a0 E8D4     		bmi	.L43
 1103              		.loc 1 590 3 is_stmt 1 view .LVU375
 1104              		.loc 1 590 6 is_stmt 0 view .LVU376
 1105 00a2 002B     		cmp	r3, #0
 1106 00a4 E9D1     		bne	.L44
 1107              		.loc 1 591 5 is_stmt 1 view .LVU377
 1108              	.LVL61:
 1109              		.loc 1 591 5 is_stmt 0 view .LVU378
 1110              	.LBE452:
 1111              	.LBE453:
 1112              		.loc 1 755 3 is_stmt 1 view .LVU379
 1113              		.loc 1 755 3 view .LVU380
 1114 00a6 0448     		ldr	r0, .L55+4
 1115 00a8 FFF7FEFF 		bl	__trace_isr_leave
 1116              	.LVL62:
 1117              		.loc 1 755 3 view .LVU381
 1118              		.loc 1 755 3 view .LVU382
 1119              		.loc 1 755 3 view .LVU383
 1120              		.loc 1 756 1 is_stmt 0 view .LVU384
 1121 00ac BDE83840 		pop	{r3, r4, r5, lr}
 1122              		.cfi_restore 14
 1123              		.cfi_restore 5
 1124              		.cfi_restore 4
 1125              		.cfi_restore 3
 1126              		.cfi_def_cfa_offset 0
 1127              	.LVL63:
 1128              		.loc 1 755 3 view .LVU385
 1129 00b0 FFF7FEBF 		b	__port_irq_epilogue
 1130              	.LVL64:
 1131              	.L56:
 1132              		.align	2
 1133              	.L55:
 1134 00b4 00000000 		.word	.LANCHOR0
 1135 00b8 00000000 		.word	.LANCHOR2
 1136 00bc 1C000000 		.word	.LANCHOR0+28
 1137              		.cfi_endproc
 1138              	.LFE461:
 1139              		.size	Vector164, .-Vector164
 1140              		.section	.text.i2c_lld_init,"ax",%progbits
ARM GAS  C:\Users\DEVELO~1\AppData\Local\Temp\ccxkKKM6.s 			page 21


 1141              		.align	1
 1142              		.p2align 2,,3
 1143              		.global	i2c_lld_init
 1144              		.syntax unified
 1145              		.thumb
 1146              		.thumb_func
 1147              		.type	i2c_lld_init, %function
 1148              	i2c_lld_init:
 1149              	.LFB462:
 1150              		.loc 1 882 25 is_stmt 1 view -0
 1151              		.cfi_startproc
 1152              		@ args = 0, pretend = 0, frame = 0
 1153              		@ frame_needed = 0, uses_anonymous_args = 0
 1154              		.loc 1 927 3 view .LVU387
 1155              		.loc 1 882 25 is_stmt 0 view .LVU388
 1156 0000 10B5     		push	{r4, lr}
 1157              		.cfi_def_cfa_offset 8
 1158              		.cfi_offset 4, -8
 1159              		.cfi_offset 14, -4
 1160              		.loc 1 927 3 view .LVU389
 1161 0002 0A4C     		ldr	r4, .L59
 1162 0004 2046     		mov	r0, r4
 1163 0006 FFF7FEFF 		bl	i2cObjectInit
 1164              	.LVL65:
 1165              		.loc 1 928 3 is_stmt 1 view .LVU390
 1166              		.loc 1 928 17 is_stmt 0 view .LVU391
 1167 000a 0023     		movs	r3, #0
 1168              		.loc 1 929 17 view .LVU392
 1169 000c 084A     		ldr	r2, .L59+4
 1170              		.loc 1 940 7 view .LVU393
 1171 000e 0521     		movs	r1, #5
 1172 0010 4820     		movs	r0, #72
 1173              		.loc 1 928 17 view .LVU394
 1174 0012 E361     		str	r3, [r4, #28]
 1175              		.loc 1 929 3 is_stmt 1 view .LVU395
 1176              		.loc 1 929 17 is_stmt 0 view .LVU396
 1177 0014 A263     		str	r2, [r4, #56]
 1178              		.loc 1 934 3 is_stmt 1 view .LVU397
 1179              		.loc 1 935 17 is_stmt 0 view .LVU398
 1180 0016 C4E90C33 		strd	r3, r3, [r4, #48]
 1181              		.loc 1 940 7 is_stmt 1 view .LVU399
 1182 001a FFF7FEFF 		bl	nvicEnableVector
 1183              	.LVL66:
 1184              		.loc 1 941 7 view .LVU400
 1185 001e 0521     		movs	r1, #5
 1186 0020 4920     		movs	r0, #73
 1187              		.loc 1 994 1 is_stmt 0 view .LVU401
 1188 0022 BDE81040 		pop	{r4, lr}
 1189              		.cfi_restore 14
 1190              		.cfi_restore 4
 1191              		.cfi_def_cfa_offset 0
 1192              		.loc 1 941 7 view .LVU402
 1193 0026 FFF7FEBF 		b	nvicEnableVector
 1194              	.LVL67:
 1195              	.L60:
 1196 002a 00BF     		.align	2
 1197              	.L59:
ARM GAS  C:\Users\DEVELO~1\AppData\Local\Temp\ccxkKKM6.s 			page 22


 1198 002c 00000000 		.word	.LANCHOR0
 1199 0030 005C0040 		.word	1073765376
 1200              		.cfi_endproc
 1201              	.LFE462:
 1202              		.size	i2c_lld_init, .-i2c_lld_init
 1203              		.section	.text.i2c_lld_start,"ax",%progbits
 1204              		.align	1
 1205              		.p2align 2,,3
 1206              		.global	i2c_lld_start
 1207              		.syntax unified
 1208              		.thumb
 1209              		.thumb_func
 1210              		.type	i2c_lld_start, %function
 1211              	i2c_lld_start:
 1212              	.LVL68:
 1213              	.LFB463:
 1214              		.loc 1 1003 37 is_stmt 1 view -0
 1215              		.cfi_startproc
 1216              		@ args = 0, pretend = 0, frame = 0
 1217              		@ frame_needed = 0, uses_anonymous_args = 0
 1218              		.loc 1 1004 3 view .LVU404
 1219              		.loc 1 1003 37 is_stmt 0 view .LVU405
 1220 0000 38B5     		push	{r3, r4, r5, lr}
 1221              		.cfi_def_cfa_offset 16
 1222              		.cfi_offset 3, -16
 1223              		.cfi_offset 4, -12
 1224              		.cfi_offset 5, -8
 1225              		.cfi_offset 14, -4
 1226              		.loc 1 1004 16 view .LVU406
 1227 0002 856B     		ldr	r5, [r0, #56]
 1228              	.LVL69:
 1229              		.loc 1 1007 3 is_stmt 1 view .LVU407
 1230              		.loc 1 1003 37 is_stmt 0 view .LVU408
 1231 0004 0446     		mov	r4, r0
 1232              		.loc 1 1007 11 view .LVU409
 1233 0006 2B68     		ldr	r3, [r5]
 1234 0008 23F00103 		bic	r3, r3, #1
 1235 000c 2B60     		str	r3, [r5]
 1236              		.loc 1 1010 3 is_stmt 1 view .LVU410
 1237              		.loc 1 1010 6 is_stmt 0 view .LVU411
 1238 000e 0378     		ldrb	r3, [r0]	@ zero_extendqisi2
 1239 0010 012B     		cmp	r3, #1
 1240 0012 16D0     		beq	.L66
 1241              	.LVL70:
 1242              	.L63:
 1243              		.loc 1 1204 5 is_stmt 1 view .LVU412
 1244              		.loc 1 1211 17 is_stmt 0 view .LVU413
 1245 0014 6268     		ldr	r2, [r4, #4]
 1246              		.loc 1 1204 5 view .LVU414
 1247 0016 05F12400 		add	r0, r5, #36
 1248              		.loc 1 1205 5 view .LVU415
 1249 001a D4E90C31 		ldrd	r3, r1, [r4, #48]
 1250              		.loc 1 1215 27 view .LVU416
 1251 001e 5468     		ldr	r4, [r2, #4]
 1252              	.LVL71:
 1253              		.loc 1 1204 5 view .LVU417
 1254 0020 1B68     		ldr	r3, [r3]
ARM GAS  C:\Users\DEVELO~1\AppData\Local\Temp\ccxkKKM6.s 			page 23


 1255              		.loc 1 1205 5 view .LVU418
 1256 0022 0968     		ldr	r1, [r1]
 1257              		.loc 1 1204 5 view .LVU419
 1258 0024 9860     		str	r0, [r3, #8]
 1259              		.loc 1 1204 52 is_stmt 1 view .LVU420
 1260              		.loc 1 1205 5 view .LVU421
 1261              		.loc 1 1215 27 is_stmt 0 view .LVU422
 1262 0026 4CF29003 		movw	r3, #49296
 1263              		.loc 1 1218 29 view .LVU423
 1264 002a 1268     		ldr	r2, [r2]
 1265              		.loc 1 1205 5 view .LVU424
 1266 002c 05F12800 		add	r0, r5, #40
 1267              		.loc 1 1215 27 view .LVU425
 1268 0030 2343     		orrs	r3, r3, r4
 1269              		.loc 1 1205 5 view .LVU426
 1270 0032 8860     		str	r0, [r1, #8]
 1271              		.loc 1 1205 52 is_stmt 1 view .LVU427
 1272              		.loc 1 1211 3 view .LVU428
 1273              		.loc 1 1211 11 is_stmt 0 view .LVU429
 1274 0034 2B60     		str	r3, [r5]
 1275              		.loc 1 1218 3 is_stmt 1 view .LVU430
 1276              		.loc 1 1218 15 is_stmt 0 view .LVU431
 1277 0036 2A61     		str	r2, [r5, #16]
 1278              		.loc 1 1221 3 is_stmt 1 view .LVU432
 1279              		.loc 1 1221 11 is_stmt 0 view .LVU433
 1280 0038 2B68     		ldr	r3, [r5]
 1281 003a 43F00103 		orr	r3, r3, #1
 1282 003e 2B60     		str	r3, [r5]
 1283              		.loc 1 1222 1 view .LVU434
 1284 0040 38BD     		pop	{r3, r4, r5, pc}
 1285              	.LVL72:
 1286              	.L66:
 1287              		.loc 1 1028 5 is_stmt 1 view .LVU435
 1288              		.loc 1 1089 8 is_stmt 0 view .LVU436
 1289 0042 224B     		ldr	r3, .L67
 1290              		.loc 1 1028 21 view .LVU437
 1291 0044 40F25641 		movw	r1, #1110
 1292              		.loc 1 1029 21 view .LVU438
 1293 0048 40F21642 		movw	r2, #1046
 1294              		.loc 1 1089 8 view .LVU439
 1295 004c 9842     		cmp	r0, r3
 1296              		.loc 1 1029 21 view .LVU440
 1297 004e C0E90A21 		strd	r2, r1, [r0, #40]
 1298              		.loc 1 1089 5 is_stmt 1 view .LVU441
 1299              		.loc 1 1089 8 is_stmt 0 view .LVU442
 1300 0052 DFD1     		bne	.L63
 1301              		.loc 1 1091 7 is_stmt 1 view .LVU443
 1302              	.LVL73:
 1303              	.LBB454:
 1304              	.LBI454:
 1305              		.file 6 "../../../os/hal/ports/STM32/STM32H7xx/stm32_rcc.h"
 1306              		.loc 6 207 22 view .LVU444
 1307              		.loc 6 219 3 view .LVU445
 1308              	.LBB455:
 1309              	.LBI455:
 1310              		.loc 6 57 22 view .LVU446
 1311              	.LBB456:
ARM GAS  C:\Users\DEVELO~1\AppData\Local\Temp\ccxkKKM6.s 			page 24


 1312              		.loc 6 60 3 view .LVU447
 1313              		.loc 6 60 18 is_stmt 0 view .LVU448
 1314 0054 1E49     		ldr	r1, .L67+4
 1315              	.LBE456:
 1316              	.LBE455:
 1317              	.LBE454:
 1318              		.loc 1 1095 24 view .LVU449
 1319 0056 0023     		movs	r3, #0
 1320 0058 1020     		movs	r0, #16
 1321              	.LVL74:
 1322              	.LBB459:
 1323              	.LBB458:
 1324              	.LBB457:
 1325              		.loc 6 60 18 view .LVU450
 1326 005a D1F89020 		ldr	r2, [r1, #144]
 1327 005e 42F40002 		orr	r2, r2, #8388608
 1328 0062 C1F89020 		str	r2, [r1, #144]
 1329              		.loc 6 61 3 is_stmt 1 view .LVU451
 1330              		.loc 6 61 18 is_stmt 0 view .LVU452
 1331 0066 D1F89020 		ldr	r2, [r1, #144]
 1332 006a 22F40002 		bic	r2, r2, #8388608
 1333 006e C1F89020 		str	r2, [r1, #144]
 1334              		.loc 6 62 3 is_stmt 1 view .LVU453
 1335 0072 D1F89020 		ldr	r2, [r1, #144]
 1336              	.LVL75:
 1337              		.loc 6 62 3 is_stmt 0 view .LVU454
 1338              	.LBE457:
 1339              	.LBE458:
 1340              	.LBE459:
 1341              		.loc 1 1092 7 is_stmt 1 view .LVU455
 1342              	.LBB460:
 1343              	.LBI460:
 1344              		.loc 6 141 22 view .LVU456
 1345              	.LBB461:
 1346              		.loc 6 145 3 view .LVU457
 1347              		.loc 6 145 20 is_stmt 0 view .LVU458
 1348 0076 D1F8E820 		ldr	r2, [r1, #232]
 1349 007a 42F40002 		orr	r2, r2, #8388608
 1350 007e C1F8E820 		str	r2, [r1, #232]
 1351              		.loc 6 146 3 is_stmt 1 view .LVU459
 1352              		.loc 6 147 5 view .LVU460
 1353              		.loc 6 147 24 is_stmt 0 view .LVU461
 1354 0082 D1F81021 		ldr	r2, [r1, #272]
 1355 0086 42F40002 		orr	r2, r2, #8388608
 1356 008a C1F81021 		str	r2, [r1, #272]
 1357              		.loc 6 152 3 is_stmt 1 view .LVU462
 1358              	.LBE461:
 1359              	.LBE460:
 1360              		.loc 1 1095 24 is_stmt 0 view .LVU463
 1361 008e 1A46     		mov	r2, r3
 1362              	.LBB463:
 1363              	.LBB462:
 1364              		.loc 6 152 3 view .LVU464
 1365 0090 D1F81011 		ldr	r1, [r1, #272]
 1366              	.LVL76:
 1367              		.loc 6 152 3 view .LVU465
 1368              	.LBE462:
ARM GAS  C:\Users\DEVELO~1\AppData\Local\Temp\ccxkKKM6.s 			page 25


 1369              	.LBE463:
 1370              		.loc 1 1095 9 is_stmt 1 view .LVU466
 1371              		.loc 1 1095 24 is_stmt 0 view .LVU467
 1372 0094 0521     		movs	r1, #5
 1373 0096 FFF7FEFF 		bl	dmaStreamAllocI
 1374              	.LVL77:
 1375              		.loc 1 1100 24 view .LVU468
 1376 009a 0023     		movs	r3, #0
 1377              		.loc 1 1095 22 view .LVU469
 1378 009c 2063     		str	r0, [r4, #48]
 1379              		.loc 1 1099 9 is_stmt 1 view .LVU470
 1380              		.loc 1 1099 9 view .LVU471
 1381              		.loc 1 1099 9 view .LVU472
 1382              		.loc 1 1100 9 view .LVU473
 1383              		.loc 1 1100 24 is_stmt 0 view .LVU474
 1384 009e 0521     		movs	r1, #5
 1385 00a0 1A46     		mov	r2, r3
 1386 00a2 1020     		movs	r0, #16
 1387 00a4 FFF7FEFF 		bl	dmaStreamAllocI
 1388              	.LVL78:
 1389              		.loc 1 1108 9 view .LVU475
 1390 00a8 4921     		movs	r1, #73
 1391              		.loc 1 1100 22 view .LVU476
 1392 00aa 6063     		str	r0, [r4, #52]
 1393              		.loc 1 1104 9 is_stmt 1 view .LVU477
 1394              		.loc 1 1104 9 view .LVU478
 1395              		.loc 1 1104 9 view .LVU479
 1396              		.loc 1 1106 9 view .LVU480
 1397              		.loc 1 1108 9 is_stmt 0 view .LVU481
 1398 00ac 206B     		ldr	r0, [r4, #48]
 1399              		.loc 1 1107 25 view .LVU482
 1400 00ae D4E90A23 		ldrd	r2, r3, [r4, #40]
 1401              		.loc 1 1106 25 view .LVU483
 1402 00b2 42F44032 		orr	r2, r2, #196608
 1403              		.loc 1 1107 25 view .LVU484
 1404 00b6 43F44033 		orr	r3, r3, #196608
 1405              		.loc 1 1106 25 view .LVU485
 1406 00ba A262     		str	r2, [r4, #40]
 1407              		.loc 1 1107 9 is_stmt 1 view .LVU486
 1408              		.loc 1 1107 25 is_stmt 0 view .LVU487
 1409 00bc E362     		str	r3, [r4, #44]
 1410              		.loc 1 1108 9 is_stmt 1 view .LVU488
 1411 00be FFF7FEFF 		bl	dmaSetRequestSource
 1412              	.LVL79:
 1413              		.loc 1 1109 9 view .LVU489
 1414 00c2 4A21     		movs	r1, #74
 1415 00c4 606B     		ldr	r0, [r4, #52]
 1416 00c6 FFF7FEFF 		bl	dmaSetRequestSource
 1417              	.LVL80:
 1418 00ca A3E7     		b	.L63
 1419              	.L68:
 1420              		.align	2
 1421              	.L67:
 1422 00cc 00000000 		.word	.LANCHOR0
 1423 00d0 00440258 		.word	1476543488
 1424              		.cfi_endproc
 1425              	.LFE463:
ARM GAS  C:\Users\DEVELO~1\AppData\Local\Temp\ccxkKKM6.s 			page 26


 1426              		.size	i2c_lld_start, .-i2c_lld_start
 1427              		.section	.text.i2c_lld_stop,"ax",%progbits
 1428              		.align	1
 1429              		.p2align 2,,3
 1430              		.global	i2c_lld_stop
 1431              		.syntax unified
 1432              		.thumb
 1433              		.thumb_func
 1434              		.type	i2c_lld_stop, %function
 1435              	i2c_lld_stop:
 1436              	.LVL81:
 1437              	.LFB464:
 1438              		.loc 1 1231 36 view -0
 1439              		.cfi_startproc
 1440              		@ args = 0, pretend = 0, frame = 0
 1441              		@ frame_needed = 0, uses_anonymous_args = 0
 1442              		.loc 1 1234 3 view .LVU491
 1443              		.loc 1 1234 6 is_stmt 0 view .LVU492
 1444 0000 0378     		ldrb	r3, [r0]	@ zero_extendqisi2
 1445 0002 012B     		cmp	r3, #1
 1446 0004 00D1     		bne	.L92
 1447 0006 7047     		bx	lr
 1448              	.L92:
 1449              		.loc 1 1237 5 is_stmt 1 view .LVU493
 1450              	.LVL82:
 1451              	.LBB472:
 1452              	.LBI472:
 1453              		.loc 1 318 13 view .LVU494
 1454              	.LBB473:
 1455              		.loc 1 319 3 view .LVU495
 1456              		.loc 1 319 16 is_stmt 0 view .LVU496
 1457 0008 836B     		ldr	r3, [r0, #56]
 1458              	.LVL83:
 1459              		.loc 1 321 3 is_stmt 1 view .LVU497
 1460              		.loc 1 321 9 is_stmt 0 view .LVU498
 1461 000a 1A68     		ldr	r2, [r3]
 1462              		.loc 1 321 6 view .LVU499
 1463 000c D207     		lsls	r2, r2, #31
 1464              	.LBE473:
 1465              	.LBE472:
 1466              		.loc 1 1231 36 view .LVU500
 1467 000e 10B5     		push	{r4, lr}
 1468              		.cfi_def_cfa_offset 8
 1469              		.cfi_offset 4, -8
 1470              		.cfi_offset 14, -4
 1471 0010 0446     		mov	r4, r0
 1472              	.LBB480:
 1473              	.LBB478:
 1474              		.loc 1 321 6 view .LVU501
 1475 0012 28D4     		bmi	.L91
 1476              	.LVL84:
 1477              	.L72:
 1478              		.loc 1 331 3 is_stmt 1 view .LVU502
 1479 0014 206B     		ldr	r0, [r4, #48]
 1480              	.LBB474:
 1481              	.LBI474:
 1482              		.loc 1 191 20 view .LVU503
ARM GAS  C:\Users\DEVELO~1\AppData\Local\Temp\ccxkKKM6.s 			page 27


 1483              	.LVL85:
 1484              	.LBB475:
 1485              		.loc 1 208 5 view .LVU504
 1486 0016 0268     		ldr	r2, [r0]
 1487 0018 1368     		ldr	r3, [r2]
 1488              	.LVL86:
 1489              		.loc 1 208 5 is_stmt 0 view .LVU505
 1490 001a 23F01F03 		bic	r3, r3, #31
 1491 001e 1360     		str	r3, [r2]
 1492              		.loc 1 208 5 is_stmt 1 view .LVU506
 1493              	.L75:
 1494              		.loc 1 208 5 view .LVU507
 1495 0020 1368     		ldr	r3, [r2]
 1496 0022 D907     		lsls	r1, r3, #31
 1497 0024 FCD4     		bmi	.L75
 1498              		.loc 1 208 5 view .LVU508
 1499 0026 90F80CC0 		ldrb	ip, [r0, #12]	@ zero_extendqisi2
 1500 002a 3D23     		movs	r3, #61
 1501 002c 616B     		ldr	r1, [r4, #52]
 1502 002e 4268     		ldr	r2, [r0, #4]
 1503 0030 03FA0CF3 		lsl	r3, r3, ip
 1504 0034 1360     		str	r3, [r2]
 1505              		.loc 1 208 5 view .LVU509
 1506              		.loc 1 208 35 view .LVU510
 1507              	.LVL87:
 1508              		.loc 1 208 35 is_stmt 0 view .LVU511
 1509              	.LBE475:
 1510              	.LBE474:
 1511              		.loc 1 332 3 is_stmt 1 view .LVU512
 1512              	.LBB476:
 1513              	.LBI476:
 1514              		.loc 1 213 20 view .LVU513
 1515              	.LBB477:
 1516              		.loc 1 230 5 view .LVU514
 1517 0036 0A68     		ldr	r2, [r1]
 1518 0038 1368     		ldr	r3, [r2]
 1519 003a 23F01F03 		bic	r3, r3, #31
 1520 003e 1360     		str	r3, [r2]
 1521              		.loc 1 230 5 view .LVU515
 1522              	.L76:
 1523              		.loc 1 230 5 view .LVU516
 1524 0040 1368     		ldr	r3, [r2]
 1525 0042 DB07     		lsls	r3, r3, #31
 1526 0044 FCD4     		bmi	.L76
 1527              		.loc 1 230 5 view .LVU517
 1528 0046 91F80CC0 		ldrb	ip, [r1, #12]	@ zero_extendqisi2
 1529 004a 3D23     		movs	r3, #61
 1530 004c 4A68     		ldr	r2, [r1, #4]
 1531 004e 03FA0CF3 		lsl	r3, r3, ip
 1532 0052 1360     		str	r3, [r2]
 1533              		.loc 1 230 5 view .LVU518
 1534              		.loc 1 230 35 view .LVU519
 1535              	.LVL88:
 1536              		.loc 1 230 35 is_stmt 0 view .LVU520
 1537              	.LBE477:
 1538              	.LBE476:
 1539              	.LBE478:
ARM GAS  C:\Users\DEVELO~1\AppData\Local\Temp\ccxkKKM6.s 			page 28


 1540              	.LBE480:
 1541              		.loc 1 1253 7 is_stmt 1 view .LVU521
 1542 0054 FFF7FEFF 		bl	dmaStreamFreeI
 1543              	.LVL89:
 1544              		.loc 1 1254 7 view .LVU522
 1545 0058 606B     		ldr	r0, [r4, #52]
 1546 005a FFF7FEFF 		bl	dmaStreamFreeI
 1547              	.LVL90:
 1548              		.loc 1 1271 5 view .LVU523
 1549              		.loc 1 1271 8 is_stmt 0 view .LVU524
 1550 005e 104B     		ldr	r3, .L94
 1551 0060 9C42     		cmp	r4, r3
 1552 0062 0CD0     		beq	.L93
 1553              		.loc 1 1288 1 view .LVU525
 1554 0064 10BD     		pop	{r4, pc}
 1555              	.LVL91:
 1556              	.L91:
 1557              	.LBB481:
 1558              	.LBB479:
 1559              		.loc 1 323 5 is_stmt 1 view .LVU526
 1560              		.loc 1 323 13 is_stmt 0 view .LVU527
 1561 0066 1A68     		ldr	r2, [r3]
 1562 0068 22F00102 		bic	r2, r2, #1
 1563 006c 1A60     		str	r2, [r3]
 1564              		.loc 1 324 5 is_stmt 1 view .LVU528
 1565              		.loc 1 324 12 view .LVU529
 1566              		.loc 1 324 14 is_stmt 0 view .LVU530
 1567 006e 1A68     		ldr	r2, [r3]
 1568              		.loc 1 324 12 view .LVU531
 1569 0070 D007     		lsls	r0, r2, #31
 1570 0072 F8D4     		bmi	.L91
 1571              		.loc 1 326 5 is_stmt 1 view .LVU532
 1572              		.loc 1 326 13 is_stmt 0 view .LVU533
 1573 0074 1A68     		ldr	r2, [r3]
 1574 0076 42F00102 		orr	r2, r2, #1
 1575 007a 1A60     		str	r2, [r3]
 1576 007c CAE7     		b	.L72
 1577              	.LVL92:
 1578              	.L93:
 1579              		.loc 1 326 13 view .LVU534
 1580              	.LBE479:
 1581              	.LBE481:
 1582              		.loc 1 1272 7 is_stmt 1 view .LVU535
 1583              	.LBB482:
 1584              	.LBI482:
 1585              		.loc 6 173 22 view .LVU536
 1586              	.LBB483:
 1587              		.loc 6 183 3 view .LVU537
 1588              		.loc 6 183 20 is_stmt 0 view .LVU538
 1589 007e 094B     		ldr	r3, .L94+4
 1590 0080 D3F8E820 		ldr	r2, [r3, #232]
 1591 0084 22F40002 		bic	r2, r2, #8388608
 1592 0088 C3F8E820 		str	r2, [r3, #232]
 1593              		.loc 6 184 3 is_stmt 1 view .LVU539
 1594              		.loc 6 184 22 is_stmt 0 view .LVU540
 1595 008c D3F81021 		ldr	r2, [r3, #272]
 1596 0090 22F40002 		bic	r2, r2, #8388608
ARM GAS  C:\Users\DEVELO~1\AppData\Local\Temp\ccxkKKM6.s 			page 29


 1597 0094 C3F81021 		str	r2, [r3, #272]
 1598              		.loc 6 185 3 is_stmt 1 view .LVU541
 1599 0098 D3F81031 		ldr	r3, [r3, #272]
 1600              	.LVL93:
 1601              		.loc 6 185 3 is_stmt 0 view .LVU542
 1602              	.LBE483:
 1603              	.LBE482:
 1604              		.loc 1 1288 1 view .LVU543
 1605 009c 10BD     		pop	{r4, pc}
 1606              	.LVL94:
 1607              	.L95:
 1608              		.loc 1 1288 1 view .LVU544
 1609 009e 00BF     		.align	2
 1610              	.L94:
 1611 00a0 00000000 		.word	.LANCHOR0
 1612 00a4 00440258 		.word	1476543488
 1613              		.cfi_endproc
 1614              	.LFE464:
 1615              		.size	i2c_lld_stop, .-i2c_lld_stop
 1616              		.section	.text.i2c_lld_master_receive_timeout,"ax",%progbits
 1617              		.align	1
 1618              		.p2align 2,,3
 1619              		.global	i2c_lld_master_receive_timeout
 1620              		.syntax unified
 1621              		.thumb
 1622              		.thumb_func
 1623              		.type	i2c_lld_master_receive_timeout, %function
 1624              	i2c_lld_master_receive_timeout:
 1625              	.LVL95:
 1626              	.LFB465:
 1627              		.loc 1 1313 61 is_stmt 1 view -0
 1628              		.cfi_startproc
 1629              		@ args = 4, pretend = 0, frame = 0
 1630              		@ frame_needed = 0, uses_anonymous_args = 0
 1631              		.loc 1 1314 3 view .LVU546
 1632              		.loc 1 1315 3 view .LVU547
 1633              		.loc 1 1313 61 is_stmt 0 view .LVU548
 1634 0000 2DE9F843 		push	{r3, r4, r5, r6, r7, r8, r9, lr}
 1635              		.cfi_def_cfa_offset 32
 1636              		.cfi_offset 3, -32
 1637              		.cfi_offset 4, -28
 1638              		.cfi_offset 5, -24
 1639              		.cfi_offset 6, -20
 1640              		.cfi_offset 7, -16
 1641              		.cfi_offset 8, -12
 1642              		.cfi_offset 9, -8
 1643              		.cfi_offset 14, -4
 1644              		.loc 1 1323 16 view .LVU549
 1645 0004 0024     		movs	r4, #0
 1646              		.loc 1 1313 61 view .LVU550
 1647 0006 8046     		mov	r8, r0
 1648 0008 8946     		mov	r9, r1
 1649              		.loc 1 1315 16 view .LVU551
 1650 000a 856B     		ldr	r5, [r0, #56]
 1651              	.LVL96:
 1652              		.loc 1 1316 3 is_stmt 1 view .LVU552
 1653              		.loc 1 1323 3 view .LVU553
ARM GAS  C:\Users\DEVELO~1\AppData\Local\Temp\ccxkKKM6.s 			page 30


 1654              		.loc 1 1323 16 is_stmt 0 view .LVU554
 1655 000c 8460     		str	r4, [r0, #8]
 1656              		.loc 1 1326 3 is_stmt 1 view .LVU555
 1657              	.LBB525:
 1658              	.LBI525:
 1659              		.loc 3 584 20 view .LVU556
 1660              		.loc 3 586 3 view .LVU557
 1661              	.LBB526:
 1662              	.LBI526:
 1663              		.loc 4 386 20 view .LVU558
 1664              	.LBB527:
 1665              		.loc 4 388 23 view .LVU559
 1666              		.loc 4 389 34 view .LVU560
 1667              		.loc 4 395 3 view .LVU561
 1668              		.loc 4 395 3 view .LVU562
 1669              		.loc 4 395 3 view .LVU563
 1670              		.loc 4 399 3 view .LVU564
 1671              	.LBB528:
 1672              	.LBI528:
 1673              		.loc 5 864 27 view .LVU565
 1674              		.loc 5 867 3 view .LVU566
 1675              	.LVL97:
 1676              	.LBB529:
 1677              	.LBI529:
 1678              		.loc 2 491 27 view .LVU567
 1679              	.LBB530:
 1680              		.loc 2 493 3 view .LVU568
 1681              		.syntax unified
 1682              	@ 493 "../../../os/common/ext/ARM/CMSIS/Core/Include/cmsis_gcc.h" 1
 1683 000e 84F31188 		MSR basepri, r4
 1684              	@ 0 "" 2
 1685              	.LVL98:
 1686              		.loc 2 493 3 is_stmt 0 view .LVU569
 1687              		.thumb
 1688              		.syntax unified
 1689              	.LBE530:
 1690              	.LBE529:
 1691              	.LBE528:
 1692              	.LBE527:
 1693              	.LBE526:
 1694              	.LBE525:
 1695              		.loc 1 1345 5 is_stmt 1 view .LVU570
 1696 0012 016B     		ldr	r1, [r0, #48]
 1697              	.LVL99:
 1698              	.LBB531:
 1699              	.LBB532:
 1700              	.LBB533:
 1701              	.LBB534:
 1702              	.LBB535:
 1703              		.loc 2 493 3 is_stmt 0 view .LVU571
 1704 0014 3026     		movs	r6, #48
 1705              	.LBE535:
 1706              	.LBE534:
 1707              	.LBE533:
 1708              	.LBE532:
 1709              	.LBE531:
 1710              		.loc 1 1345 5 view .LVU572
ARM GAS  C:\Users\DEVELO~1\AppData\Local\Temp\ccxkKKM6.s 			page 31


 1711 0016 806A     		ldr	r0, [r0, #40]
 1712              	.LVL100:
 1713              		.loc 1 1345 5 view .LVU573
 1714 0018 0968     		ldr	r1, [r1]
 1715 001a 0860     		str	r0, [r1]
 1716              		.loc 1 1345 52 is_stmt 1 view .LVU574
 1717              		.loc 1 1346 5 view .LVU575
 1718 001c CA60     		str	r2, [r1, #12]
 1719              		.loc 1 1346 45 view .LVU576
 1720              		.loc 1 1347 5 view .LVU577
 1721 001e 4B60     		str	r3, [r1, #4]
 1722              		.loc 1 1347 55 view .LVU578
 1723              		.loc 1 1358 3 view .LVU579
 1724              	.LBB544:
 1725              	.LBI544:
 1726              		.loc 3 698 25 view .LVU580
 1727              		.loc 3 700 3 view .LVU581
 1728              	.LBB545:
 1729              	.LBI545:
 1730              		.file 7 "../../../os/rt/include/chvt.h"
 1731              		.loc 7 135 25 view .LVU582
 1732              		.loc 7 140 3 view .LVU583
 1733              	.LBB546:
 1734              	.LBI546:
 1735              		.file 8 "../../../os/hal/osal/rt-nil/chcore_timer.h"
 1736              		.loc 8 111 25 view .LVU584
 1737              	.LBB547:
 1738              		.loc 8 113 3 view .LVU585
 1739              		.loc 8 113 10 is_stmt 0 view .LVU586
 1740 0020 FFF7FEFF 		bl	stGetCounter
 1741              	.LVL101:
 1742              		.loc 8 113 10 view .LVU587
 1743              	.LBE547:
 1744              	.LBE546:
 1745              	.LBE545:
 1746              	.LBE544:
 1747              		.loc 1 1359 3 is_stmt 1 view .LVU588
 1748              		.loc 1 1363 3 view .LVU589
 1749              		.loc 1 1364 5 view .LVU590
 1750              	.LBB548:
 1751              	.LBI531:
 1752              		.loc 3 573 20 view .LVU591
 1753              		.loc 3 575 3 view .LVU592
 1754              	.LBB542:
 1755              	.LBI532:
 1756              		.loc 4 372 20 view .LVU593
 1757              		.loc 4 374 3 view .LVU594
 1758              	.LBB540:
 1759              	.LBI533:
 1760              		.loc 5 840 27 view .LVU595
 1761              		.loc 5 848 3 view .LVU596
 1762              	.LBB538:
 1763              	.LBI534:
 1764              		.loc 2 491 27 view .LVU597
 1765              	.LBB536:
 1766              		.loc 2 493 3 view .LVU598
 1767              		.syntax unified
ARM GAS  C:\Users\DEVELO~1\AppData\Local\Temp\ccxkKKM6.s 			page 32


 1768              	@ 493 "../../../os/common/ext/ARM/CMSIS/Core/Include/cmsis_gcc.h" 1
 1769 0024 86F31188 		MSR basepri, r6
 1770              	@ 0 "" 2
 1771              	.LVL102:
 1772              		.loc 2 493 3 is_stmt 0 view .LVU599
 1773              		.thumb
 1774              		.syntax unified
 1775              	.LBE536:
 1776              	.LBE538:
 1777              	.LBE540:
 1778              		.loc 4 375 35 is_stmt 1 view .LVU600
 1779              		.loc 4 376 21 view .LVU601
 1780              	.LBE542:
 1781              	.LBE548:
 1782              		.loc 1 1368 5 view .LVU602
 1783              		.loc 1 1368 12 is_stmt 0 view .LVU603
 1784 0028 AB69     		ldr	r3, [r5, #24]
 1785              		.loc 1 1368 8 view .LVU604
 1786 002a 1F04     		lsls	r7, r3, #16
 1787 002c 12D5     		bpl	.L101
 1788 002e 0746     		mov	r7, r0
 1789 0030 06E0     		b	.L97
 1790              	.LVL103:
 1791              	.L115:
 1792              	.LBB549:
 1793              	.LBB550:
 1794              	.LBB551:
 1795              	.LBB552:
 1796              	.LBB553:
 1797              	.LBB554:
 1798              		.loc 2 493 3 view .LVU605
 1799              		.syntax unified
 1800              	@ 493 "../../../os/common/ext/ARM/CMSIS/Core/Include/cmsis_gcc.h" 1
 1801 0032 84F31188 		MSR basepri, r4
 1802              	@ 0 "" 2
 1803              	.LVL104:
 1804              		.loc 2 493 3 view .LVU606
 1805              		.thumb
 1806              		.syntax unified
 1807              	.LBE554:
 1808              	.LBE553:
 1809              	.LBE552:
 1810              	.LBE551:
 1811              	.LBE550:
 1812              	.LBE549:
 1813              		.loc 1 1363 3 is_stmt 1 view .LVU607
 1814              		.loc 1 1364 5 view .LVU608
 1815              	.LBB560:
 1816              		.loc 3 573 20 view .LVU609
 1817              		.loc 3 575 3 view .LVU610
 1818              	.LBB543:
 1819              		.loc 4 372 20 view .LVU611
 1820              		.loc 4 374 3 view .LVU612
 1821              	.LBB541:
 1822              		.loc 5 840 27 view .LVU613
 1823              		.loc 5 848 3 view .LVU614
 1824              	.LBB539:
ARM GAS  C:\Users\DEVELO~1\AppData\Local\Temp\ccxkKKM6.s 			page 33


 1825              		.loc 2 491 27 view .LVU615
 1826              	.LBB537:
 1827              		.loc 2 493 3 view .LVU616
 1828              		.syntax unified
 1829              	@ 493 "../../../os/common/ext/ARM/CMSIS/Core/Include/cmsis_gcc.h" 1
 1830 0036 86F31188 		MSR basepri, r6
 1831              	@ 0 "" 2
 1832              	.LVL105:
 1833              		.loc 2 493 3 is_stmt 0 view .LVU617
 1834              		.thumb
 1835              		.syntax unified
 1836              	.LBE537:
 1837              	.LBE539:
 1838              	.LBE541:
 1839              		.loc 4 375 35 is_stmt 1 view .LVU618
 1840              		.loc 4 376 21 view .LVU619
 1841              	.LBE543:
 1842              	.LBE560:
 1843              		.loc 1 1368 5 view .LVU620
 1844              		.loc 1 1368 12 is_stmt 0 view .LVU621
 1845 003a AB69     		ldr	r3, [r5, #24]
 1846              		.loc 1 1368 8 view .LVU622
 1847 003c 1904     		lsls	r1, r3, #16
 1848 003e 09D5     		bpl	.L101
 1849              	.L97:
 1850              		.loc 1 1373 5 is_stmt 1 view .LVU623
 1851              	.LBB561:
 1852              	.LBI561:
 1853              		.loc 3 698 25 view .LVU624
 1854              		.loc 3 700 3 view .LVU625
 1855              	.LBB562:
 1856              	.LBI562:
 1857              		.loc 7 135 25 view .LVU626
 1858              		.loc 7 140 3 view .LVU627
 1859              	.LBB563:
 1860              	.LBI563:
 1861              		.loc 8 111 25 view .LVU628
 1862              	.LBB564:
 1863              		.loc 8 113 3 view .LVU629
 1864              		.loc 8 113 10 is_stmt 0 view .LVU630
 1865 0040 FFF7FEFF 		bl	stGetCounter
 1866              	.LVL106:
 1867              	.LBE564:
 1868              	.LBE563:
 1869              	.LBE562:
 1870              	.LBE561:
 1871              		.loc 1 1377 5 is_stmt 1 view .LVU631
 1872              	.LBB565:
 1873              	.LBI549:
 1874              		.loc 3 584 20 view .LVU632
 1875              		.loc 3 586 3 view .LVU633
 1876              	.LBB559:
 1877              	.LBI550:
 1878              		.loc 4 386 20 view .LVU634
 1879              	.LBB558:
 1880              		.loc 4 388 23 view .LVU635
 1881              		.loc 4 389 34 view .LVU636
ARM GAS  C:\Users\DEVELO~1\AppData\Local\Temp\ccxkKKM6.s 			page 34


 1882              		.loc 4 395 3 view .LVU637
 1883              		.loc 4 395 3 view .LVU638
 1884              		.loc 4 395 3 view .LVU639
 1885              		.loc 4 399 3 view .LVU640
 1886              	.LBB557:
 1887              	.LBI552:
 1888              		.loc 5 864 27 view .LVU641
 1889              		.loc 5 867 3 view .LVU642
 1890              	.LBB556:
 1891              	.LBI553:
 1892              		.loc 2 491 27 view .LVU643
 1893              	.LBB555:
 1894              		.loc 2 493 3 view .LVU644
 1895              		.loc 2 493 3 is_stmt 0 view .LVU645
 1896              	.LBE555:
 1897              	.LBE556:
 1898              	.LBE557:
 1899              	.LBE558:
 1900              	.LBE559:
 1901              	.LBE565:
 1902              	.LBB566:
 1903              	.LBI566:
 1904              		.loc 3 746 20 is_stmt 1 view .LVU646
 1905              		.loc 3 750 3 view .LVU647
 1906              	.LBB567:
 1907              	.LBI567:
 1908              		.file 9 "../../../os/rt/include/chtime.h"
 1909              		.loc 9 484 20 view .LVU648
 1910              	.LBB568:
 1911              		.loc 9 488 3 view .LVU649
 1912              		.loc 9 488 17 is_stmt 0 view .LVU650
 1913 0044 C31B     		subs	r3, r0, r7
 1914              	.LBE568:
 1915              	.LBE567:
 1916              	.LBE566:
 1917              		.loc 1 1373 8 view .LVU651
 1918 0046 B3F5FA7F 		cmp	r3, #500
 1919 004a F2D3     		bcc	.L115
 1920              		.loc 1 1374 14 view .LVU652
 1921 004c 4FF0FF30 		mov	r0, #-1
 1922              	.LVL107:
 1923              	.L96:
 1924              		.loc 1 1414 1 view .LVU653
 1925 0050 BDE8F883 		pop	{r3, r4, r5, r6, r7, r8, r9, pc}
 1926              	.LVL108:
 1927              	.L101:
 1928              		.loc 1 1381 3 is_stmt 1 view .LVU654
 1929              	.LBB569:
 1930              	.LBI569:
 1931              		.loc 1 245 13 view .LVU655
 1932              	.LBB570:
 1933              		.loc 1 246 3 view .LVU656
 1934              		.loc 1 249 20 is_stmt 0 view .LVU657
 1935 0054 D8F80430 		ldr	r3, [r8, #4]
 1936              		.loc 1 246 16 view .LVU658
 1937 0058 D8F83840 		ldr	r4, [r8, #56]
 1938              	.LVL109:
ARM GAS  C:\Users\DEVELO~1\AppData\Local\Temp\ccxkKKM6.s 			page 35


 1939              		.loc 1 249 3 is_stmt 1 view .LVU659
 1940              		.loc 1 249 20 is_stmt 0 view .LVU660
 1941 005c 9B68     		ldr	r3, [r3, #8]
 1942              		.loc 1 249 6 view .LVU661
 1943 005e 1805     		lsls	r0, r3, #20
 1944 0060 3AD5     		bpl	.L98
 1945              		.loc 1 252 5 is_stmt 1 view .LVU662
 1946              	.LBE570:
 1947              	.LBE569:
 1948              	.LBB573:
 1949              	.LBB574:
 1950              	.LBB575:
 1951              	.LBB576:
 1952              		.loc 1 115 12 is_stmt 0 view .LVU663
 1953 0062 D8F83020 		ldr	r2, [r8, #48]
 1954              	.LBE576:
 1955              	.LBE575:
 1956              	.LBE574:
 1957              	.LBE573:
 1958              	.LBB584:
 1959              	.LBB571:
 1960              		.loc 1 252 13 view .LVU664
 1961 0066 C4F80490 		str	r9, [r4, #4]
 1962              	.LVL110:
 1963              		.loc 1 252 13 view .LVU665
 1964              	.LBE571:
 1965              	.LBE584:
 1966              		.loc 1 1384 3 is_stmt 1 view .LVU666
 1967              	.LBB585:
 1968              	.LBI573:
 1969              		.loc 1 262 13 view .LVU667
 1970              	.LBB581:
 1971              		.loc 1 263 3 view .LVU668
 1972              		.loc 1 264 3 view .LVU669
 1973              		.loc 1 265 3 view .LVU670
 1974              		.loc 1 268 3 view .LVU671
 1975              	.LBB579:
 1976              	.LBI575:
 1977              		.loc 1 100 22 view .LVU672
 1978              	.LBB577:
 1979              		.loc 1 115 5 view .LVU673
 1980              		.loc 1 115 12 is_stmt 0 view .LVU674
 1981 006a 1068     		ldr	r0, [r2]
 1982 006c 4168     		ldr	r1, [r0, #4]
 1983              	.LVL111:
 1984              		.loc 1 115 12 view .LVU675
 1985              	.LBE577:
 1986              	.LBE579:
 1987              		.loc 1 269 3 is_stmt 1 view .LVU676
 1988              		.loc 1 269 6 is_stmt 0 view .LVU677
 1989 006e FF29     		cmp	r1, #255
 1990 0070 3BD8     		bhi	.L106
 1991              	.L116:
 1992              		.loc 1 280 33 view .LVU678
 1993 0072 0904     		lsls	r1, r1, #16
 1994              	.LVL112:
 1995              		.loc 1 274 12 view .LVU679
ARM GAS  C:\Users\DEVELO~1\AppData\Local\Temp\ccxkKKM6.s 			page 36


 1996 0074 0022     		movs	r2, #0
 1997              	.L103:
 1998              	.LVL113:
 1999              		.loc 1 279 3 is_stmt 1 view .LVU680
 2000              		.loc 1 279 16 is_stmt 0 view .LVU681
 2001 0076 6668     		ldr	r6, [r4, #4]
 2002              		.loc 1 280 41 view .LVU682
 2003 0078 1A43     		orrs	r2, r2, r3
 2004              	.LVL114:
 2005              		.loc 1 279 22 view .LVU683
 2006 007a 1E4B     		ldr	r3, .L117
 2007 007c 3340     		ands	r3, r3, r6
 2008              		.loc 1 280 41 view .LVU684
 2009 007e 1343     		orrs	r3, r3, r2
 2010 0080 0B43     		orrs	r3, r3, r1
 2011              	.LBE581:
 2012              	.LBE585:
 2013              	.LBB586:
 2014              	.LBB587:
 2015              		.loc 3 824 10 view .LVU685
 2016 0082 0899     		ldr	r1, [sp, #32]
 2017              	.LBE587:
 2018              	.LBE586:
 2019              	.LBB590:
 2020              	.LBB582:
 2021              		.loc 1 280 41 view .LVU686
 2022 0084 43F48063 		orr	r3, r3, #1024
 2023              		.loc 1 279 11 view .LVU687
 2024 0088 6360     		str	r3, [r4, #4]
 2025              	.LVL115:
 2026              		.loc 1 279 11 view .LVU688
 2027              	.LBE582:
 2028              	.LBE590:
 2029              		.loc 1 1388 3 is_stmt 1 view .LVU689
 2030              	.LBB591:
 2031              	.LBI591:
 2032              		.loc 1 147 20 view .LVU690
 2033              	.LBB592:
 2034              		.loc 1 164 5 view .LVU691
 2035 008a 0368     		ldr	r3, [r0]
 2036 008c 43F00103 		orr	r3, r3, #1
 2037 0090 0360     		str	r3, [r0]
 2038              		.loc 1 164 34 view .LVU692
 2039              	.LVL116:
 2040              		.loc 1 164 34 is_stmt 0 view .LVU693
 2041              	.LBE592:
 2042              	.LBE591:
 2043              		.loc 1 1391 3 is_stmt 1 view .LVU694
 2044              	.LBB593:
 2045              	.LBB588:
 2046              		.loc 3 824 10 is_stmt 0 view .LVU695
 2047 0092 08F11C00 		add	r0, r8, #28
 2048              	.LBE588:
 2049              	.LBE593:
 2050              		.loc 1 1391 11 view .LVU696
 2051 0096 2B68     		ldr	r3, [r5]
 2052 0098 43F04003 		orr	r3, r3, #64
ARM GAS  C:\Users\DEVELO~1\AppData\Local\Temp\ccxkKKM6.s 			page 37


 2053 009c 2B60     		str	r3, [r5]
 2054              		.loc 1 1399 3 is_stmt 1 view .LVU697
 2055              		.loc 1 1399 11 is_stmt 0 view .LVU698
 2056 009e 6B68     		ldr	r3, [r5, #4]
 2057 00a0 43F40053 		orr	r3, r3, #8192
 2058 00a4 6B60     		str	r3, [r5, #4]
 2059              		.loc 1 1402 3 is_stmt 1 view .LVU699
 2060              	.LVL117:
 2061              	.LBB594:
 2062              	.LBI586:
 2063              		.loc 3 821 21 view .LVU700
 2064              	.LBB589:
 2065              		.loc 3 824 3 view .LVU701
 2066              		.loc 3 824 10 is_stmt 0 view .LVU702
 2067 00a6 FFF7FEFF 		bl	chThdSuspendTimeoutS
 2068              	.LVL118:
 2069              		.loc 3 824 10 view .LVU703
 2070              	.LBE589:
 2071              	.LBE594:
 2072              		.loc 1 1406 3 is_stmt 1 view .LVU704
 2073              		.loc 1 1406 6 is_stmt 0 view .LVU705
 2074 00aa 421C     		adds	r2, r0, #1
 2075 00ac D0D1     		bne	.L96
 2076              		.loc 1 1407 5 is_stmt 1 view .LVU706
 2077              		.loc 1 1407 13 is_stmt 0 view .LVU707
 2078 00ae 6B68     		ldr	r3, [r5, #4]
 2079 00b0 D8F83010 		ldr	r1, [r8, #48]
 2080 00b4 43F48043 		orr	r3, r3, #16384
 2081              	.LBB595:
 2082              	.LBB596:
 2083              		.loc 1 208 5 view .LVU708
 2084 00b8 0A68     		ldr	r2, [r1]
 2085              	.LBE596:
 2086              	.LBE595:
 2087              		.loc 1 1407 13 view .LVU709
 2088 00ba 6B60     		str	r3, [r5, #4]
 2089              		.loc 1 1409 5 is_stmt 1 view .LVU710
 2090              	.LBB598:
 2091              	.LBI595:
 2092              		.loc 1 191 20 view .LVU711
 2093              	.LVL119:
 2094              	.LBB597:
 2095              		.loc 1 208 5 view .LVU712
 2096 00bc 1368     		ldr	r3, [r2]
 2097 00be 23F01F03 		bic	r3, r3, #31
 2098 00c2 1360     		str	r3, [r2]
 2099              		.loc 1 208 5 view .LVU713
 2100              	.L104:
 2101              		.loc 1 208 5 view .LVU714
 2102 00c4 1368     		ldr	r3, [r2]
 2103 00c6 DB07     		lsls	r3, r3, #31
 2104 00c8 FCD4     		bmi	.L104
 2105              		.loc 1 208 5 view .LVU715
 2106 00ca 0C7B     		ldrb	r4, [r1, #12]	@ zero_extendqisi2
 2107 00cc 3D23     		movs	r3, #61
 2108 00ce 4A68     		ldr	r2, [r1, #4]
 2109 00d0 A340     		lsls	r3, r3, r4
ARM GAS  C:\Users\DEVELO~1\AppData\Local\Temp\ccxkKKM6.s 			page 38


 2110 00d2 1360     		str	r3, [r2]
 2111              		.loc 1 208 5 view .LVU716
 2112              		.loc 1 208 35 view .LVU717
 2113              	.LBE597:
 2114              	.LBE598:
 2115              		.loc 1 1414 1 is_stmt 0 view .LVU718
 2116 00d4 BDE8F883 		pop	{r3, r4, r5, r6, r7, r8, r9, pc}
 2117              	.LVL120:
 2118              	.L98:
 2119              	.LBB599:
 2120              	.LBB572:
 2121              		.loc 1 250 5 is_stmt 1 view .LVU719
 2122              		.loc 1 250 30 is_stmt 0 view .LVU720
 2123 00d8 4FEA4902 		lsl	r2, r9, #1
 2124              		.loc 1 250 13 view .LVU721
 2125 00dc 6260     		str	r2, [r4, #4]
 2126              	.LVL121:
 2127              		.loc 1 250 13 view .LVU722
 2128              	.LBE572:
 2129              	.LBE599:
 2130              		.loc 1 1384 3 is_stmt 1 view .LVU723
 2131              	.LBB600:
 2132              		.loc 1 262 13 view .LVU724
 2133              	.LBB583:
 2134              		.loc 1 263 3 view .LVU725
 2135              		.loc 1 264 3 view .LVU726
 2136              		.loc 1 265 3 view .LVU727
 2137              		.loc 1 268 3 view .LVU728
 2138              	.LBB580:
 2139              		.loc 1 100 22 view .LVU729
 2140              	.LBB578:
 2141              		.loc 1 115 5 view .LVU730
 2142              		.loc 1 115 12 is_stmt 0 view .LVU731
 2143 00de D8F83020 		ldr	r2, [r8, #48]
 2144 00e2 1068     		ldr	r0, [r2]
 2145 00e4 4168     		ldr	r1, [r0, #4]
 2146              	.LVL122:
 2147              		.loc 1 115 12 view .LVU732
 2148              	.LBE578:
 2149              	.LBE580:
 2150              		.loc 1 269 3 is_stmt 1 view .LVU733
 2151              		.loc 1 269 6 is_stmt 0 view .LVU734
 2152 00e6 FF29     		cmp	r1, #255
 2153 00e8 C3D9     		bls	.L116
 2154              	.L106:
 2155              		.loc 1 269 6 view .LVU735
 2156 00ea 4FF47F01 		mov	r1, #16711680
 2157              	.LVL123:
 2158              		.loc 1 271 12 view .LVU736
 2159 00ee 4FF08072 		mov	r2, #16777216
 2160 00f2 C0E7     		b	.L103
 2161              	.L118:
 2162              		.align	2
 2163              	.L117:
 2164 00f4 FFFF00FE 		.word	-33488897
 2165              	.LBE583:
 2166              	.LBE600:
ARM GAS  C:\Users\DEVELO~1\AppData\Local\Temp\ccxkKKM6.s 			page 39


 2167              		.cfi_endproc
 2168              	.LFE465:
 2169              		.size	i2c_lld_master_receive_timeout, .-i2c_lld_master_receive_timeout
 2170              		.section	.text.i2c_lld_master_transmit_timeout,"ax",%progbits
 2171              		.align	1
 2172              		.p2align 2,,3
 2173              		.global	i2c_lld_master_transmit_timeout
 2174              		.syntax unified
 2175              		.thumb
 2176              		.thumb_func
 2177              		.type	i2c_lld_master_transmit_timeout, %function
 2178              	i2c_lld_master_transmit_timeout:
 2179              	.LVL124:
 2180              	.LFB466:
 2181              		.loc 1 1442 62 is_stmt 1 view -0
 2182              		.cfi_startproc
 2183              		@ args = 12, pretend = 0, frame = 0
 2184              		@ frame_needed = 0, uses_anonymous_args = 0
 2185              		.loc 1 1443 3 view .LVU738
 2186              		.loc 1 1444 3 view .LVU739
 2187              		.loc 1 1442 62 is_stmt 0 view .LVU740
 2188 0000 2DE9F843 		push	{r3, r4, r5, r6, r7, r8, r9, lr}
 2189              		.cfi_def_cfa_offset 32
 2190              		.cfi_offset 3, -32
 2191              		.cfi_offset 4, -28
 2192              		.cfi_offset 5, -24
 2193              		.cfi_offset 6, -20
 2194              		.cfi_offset 7, -16
 2195              		.cfi_offset 8, -12
 2196              		.cfi_offset 9, -8
 2197              		.cfi_offset 14, -4
 2198              		.loc 1 1452 16 view .LVU741
 2199 0004 0024     		movs	r4, #0
 2200              		.loc 1 1442 62 view .LVU742
 2201 0006 8046     		mov	r8, r0
 2202 0008 8946     		mov	r9, r1
 2203 000a 089F     		ldr	r7, [sp, #32]
 2204              		.loc 1 1444 16 view .LVU743
 2205 000c 856B     		ldr	r5, [r0, #56]
 2206              	.LVL125:
 2207              		.loc 1 1445 3 is_stmt 1 view .LVU744
 2208              		.loc 1 1452 3 view .LVU745
 2209              		.loc 1 1455 3 view .LVU746
 2210              	.LBB644:
 2211              	.LBI644:
 2212              		.loc 3 584 20 view .LVU747
 2213              		.loc 3 586 3 view .LVU748
 2214              	.LBB645:
 2215              	.LBI645:
 2216              		.loc 4 386 20 view .LVU749
 2217              	.LBB646:
 2218              		.loc 4 388 23 view .LVU750
 2219              		.loc 4 389 34 view .LVU751
 2220              		.loc 4 395 3 view .LVU752
 2221              		.loc 4 395 3 view .LVU753
 2222              		.loc 4 395 3 view .LVU754
 2223              		.loc 4 399 3 view .LVU755
ARM GAS  C:\Users\DEVELO~1\AppData\Local\Temp\ccxkKKM6.s 			page 40


 2224              	.LBB647:
 2225              	.LBI647:
 2226              		.loc 5 864 27 view .LVU756
 2227              		.loc 5 867 3 view .LVU757
 2228              	.LBB648:
 2229              	.LBI648:
 2230              		.loc 2 491 27 view .LVU758
 2231              	.LBB649:
 2232              		.loc 2 493 3 view .LVU759
 2233              	.LBE649:
 2234              	.LBE648:
 2235              	.LBE647:
 2236              	.LBE646:
 2237              	.LBE645:
 2238              	.LBE644:
 2239              		.loc 1 1452 16 is_stmt 0 view .LVU760
 2240 000e 8460     		str	r4, [r0, #8]
 2241              	.LBB655:
 2242              	.LBB654:
 2243              	.LBB653:
 2244              	.LBB652:
 2245              	.LBB651:
 2246              	.LBB650:
 2247              		.loc 2 493 3 view .LVU761
 2248              		.syntax unified
 2249              	@ 493 "../../../os/common/ext/ARM/CMSIS/Core/Include/cmsis_gcc.h" 1
 2250 0010 84F31188 		MSR basepri, r4
 2251              	@ 0 "" 2
 2252              	.LVL126:
 2253              		.loc 2 493 3 view .LVU762
 2254              		.thumb
 2255              		.syntax unified
 2256              	.LBE650:
 2257              	.LBE651:
 2258              	.LBE652:
 2259              	.LBE653:
 2260              	.LBE654:
 2261              	.LBE655:
 2262              		.loc 1 1478 5 is_stmt 1 view .LVU763
 2263 0014 416B     		ldr	r1, [r0, #52]
 2264              	.LVL127:
 2265              		.loc 1 1478 5 is_stmt 0 view .LVU764
 2266 0016 D8F82C60 		ldr	r6, [r8, #44]
 2267 001a 0868     		ldr	r0, [r1]
 2268              	.LVL128:
 2269              		.loc 1 1482 5 view .LVU765
 2270 001c D8F83010 		ldr	r1, [r8, #48]
 2271 0020 0968     		ldr	r1, [r1]
 2272              		.loc 1 1478 5 view .LVU766
 2273 0022 0660     		str	r6, [r0]
 2274              		.loc 1 1478 52 is_stmt 1 view .LVU767
 2275              		.loc 1 1479 5 view .LVU768
 2276              	.LBB656:
 2277              	.LBB657:
 2278              	.LBB658:
 2279              	.LBB659:
 2280              	.LBB660:
ARM GAS  C:\Users\DEVELO~1\AppData\Local\Temp\ccxkKKM6.s 			page 41


 2281              		.loc 2 493 3 is_stmt 0 view .LVU769
 2282 0024 3026     		movs	r6, #48
 2283              	.LBE660:
 2284              	.LBE659:
 2285              	.LBE658:
 2286              	.LBE657:
 2287              	.LBE656:
 2288              		.loc 1 1479 5 view .LVU770
 2289 0026 C260     		str	r2, [r0, #12]
 2290              		.loc 1 1479 45 is_stmt 1 view .LVU771
 2291              		.loc 1 1480 5 view .LVU772
 2292 0028 4360     		str	r3, [r0, #4]
 2293              		.loc 1 1480 55 view .LVU773
 2294              		.loc 1 1482 5 view .LVU774
 2295 002a D8F82830 		ldr	r3, [r8, #40]
 2296              	.LVL129:
 2297              		.loc 1 1482 5 is_stmt 0 view .LVU775
 2298 002e 0B60     		str	r3, [r1]
 2299              	.LVL130:
 2300              		.loc 1 1482 52 is_stmt 1 view .LVU776
 2301              		.loc 1 1483 5 view .LVU777
 2302              		.loc 1 1484 5 is_stmt 0 view .LVU778
 2303 0030 099B     		ldr	r3, [sp, #36]
 2304              		.loc 1 1483 5 view .LVU779
 2305 0032 CF60     		str	r7, [r1, #12]
 2306              		.loc 1 1483 45 is_stmt 1 view .LVU780
 2307              		.loc 1 1484 5 view .LVU781
 2308 0034 4B60     		str	r3, [r1, #4]
 2309              		.loc 1 1484 55 view .LVU782
 2310              		.loc 1 1496 3 view .LVU783
 2311              	.LBB669:
 2312              	.LBI669:
 2313              		.loc 3 698 25 view .LVU784
 2314              		.loc 3 700 3 view .LVU785
 2315              	.LBB670:
 2316              	.LBI670:
 2317              		.loc 7 135 25 view .LVU786
 2318              		.loc 7 140 3 view .LVU787
 2319              	.LBB671:
 2320              	.LBI671:
 2321              		.loc 8 111 25 view .LVU788
 2322              	.LBB672:
 2323              		.loc 8 113 3 view .LVU789
 2324              		.loc 8 113 10 is_stmt 0 view .LVU790
 2325 0036 FFF7FEFF 		bl	stGetCounter
 2326              	.LVL131:
 2327              		.loc 8 113 10 view .LVU791
 2328              	.LBE672:
 2329              	.LBE671:
 2330              	.LBE670:
 2331              	.LBE669:
 2332              		.loc 1 1497 3 is_stmt 1 view .LVU792
 2333              		.loc 1 1501 3 view .LVU793
 2334              		.loc 1 1502 5 view .LVU794
 2335              	.LBB673:
 2336              	.LBI656:
 2337              		.loc 3 573 20 view .LVU795
ARM GAS  C:\Users\DEVELO~1\AppData\Local\Temp\ccxkKKM6.s 			page 42


 2338              		.loc 3 575 3 view .LVU796
 2339              	.LBB667:
 2340              	.LBI657:
 2341              		.loc 4 372 20 view .LVU797
 2342              		.loc 4 374 3 view .LVU798
 2343              	.LBB665:
 2344              	.LBI658:
 2345              		.loc 5 840 27 view .LVU799
 2346              		.loc 5 848 3 view .LVU800
 2347              	.LBB663:
 2348              	.LBI659:
 2349              		.loc 2 491 27 view .LVU801
 2350              	.LBB661:
 2351              		.loc 2 493 3 view .LVU802
 2352              		.syntax unified
 2353              	@ 493 "../../../os/common/ext/ARM/CMSIS/Core/Include/cmsis_gcc.h" 1
 2354 003a 86F31188 		MSR basepri, r6
 2355              	@ 0 "" 2
 2356              	.LVL132:
 2357              		.loc 2 493 3 is_stmt 0 view .LVU803
 2358              		.thumb
 2359              		.syntax unified
 2360              	.LBE661:
 2361              	.LBE663:
 2362              	.LBE665:
 2363              		.loc 4 375 35 is_stmt 1 view .LVU804
 2364              		.loc 4 376 21 view .LVU805
 2365              	.LBE667:
 2366              	.LBE673:
 2367              		.loc 1 1506 5 view .LVU806
 2368              		.loc 1 1506 12 is_stmt 0 view .LVU807
 2369 003e AB69     		ldr	r3, [r5, #24]
 2370              		.loc 1 1506 8 view .LVU808
 2371 0040 1904     		lsls	r1, r3, #16
 2372 0042 12D5     		bpl	.L124
 2373 0044 0746     		mov	r7, r0
 2374 0046 06E0     		b	.L120
 2375              	.LVL133:
 2376              	.L140:
 2377              	.LBB674:
 2378              	.LBB675:
 2379              	.LBB676:
 2380              	.LBB677:
 2381              	.LBB678:
 2382              	.LBB679:
 2383              		.loc 2 493 3 view .LVU809
 2384              		.syntax unified
 2385              	@ 493 "../../../os/common/ext/ARM/CMSIS/Core/Include/cmsis_gcc.h" 1
 2386 0048 84F31188 		MSR basepri, r4
 2387              	@ 0 "" 2
 2388              	.LVL134:
 2389              		.loc 2 493 3 view .LVU810
 2390              		.thumb
 2391              		.syntax unified
 2392              	.LBE679:
 2393              	.LBE678:
 2394              	.LBE677:
ARM GAS  C:\Users\DEVELO~1\AppData\Local\Temp\ccxkKKM6.s 			page 43


 2395              	.LBE676:
 2396              	.LBE675:
 2397              	.LBE674:
 2398              		.loc 1 1501 3 is_stmt 1 view .LVU811
 2399              		.loc 1 1502 5 view .LVU812
 2400              	.LBB685:
 2401              		.loc 3 573 20 view .LVU813
 2402              		.loc 3 575 3 view .LVU814
 2403              	.LBB668:
 2404              		.loc 4 372 20 view .LVU815
 2405              		.loc 4 374 3 view .LVU816
 2406              	.LBB666:
 2407              		.loc 5 840 27 view .LVU817
 2408              		.loc 5 848 3 view .LVU818
 2409              	.LBB664:
 2410              		.loc 2 491 27 view .LVU819
 2411              	.LBB662:
 2412              		.loc 2 493 3 view .LVU820
 2413              		.syntax unified
 2414              	@ 493 "../../../os/common/ext/ARM/CMSIS/Core/Include/cmsis_gcc.h" 1
 2415 004c 86F31188 		MSR basepri, r6
 2416              	@ 0 "" 2
 2417              	.LVL135:
 2418              		.loc 2 493 3 is_stmt 0 view .LVU821
 2419              		.thumb
 2420              		.syntax unified
 2421              	.LBE662:
 2422              	.LBE664:
 2423              	.LBE666:
 2424              		.loc 4 375 35 is_stmt 1 view .LVU822
 2425              		.loc 4 376 21 view .LVU823
 2426              	.LBE668:
 2427              	.LBE685:
 2428              		.loc 1 1506 5 view .LVU824
 2429              		.loc 1 1506 12 is_stmt 0 view .LVU825
 2430 0050 AB69     		ldr	r3, [r5, #24]
 2431              		.loc 1 1506 8 view .LVU826
 2432 0052 1B04     		lsls	r3, r3, #16
 2433 0054 09D5     		bpl	.L124
 2434              	.L120:
 2435              		.loc 1 1511 5 is_stmt 1 view .LVU827
 2436              	.LBB686:
 2437              	.LBI686:
 2438              		.loc 3 698 25 view .LVU828
 2439              		.loc 3 700 3 view .LVU829
 2440              	.LBB687:
 2441              	.LBI687:
 2442              		.loc 7 135 25 view .LVU830
 2443              		.loc 7 140 3 view .LVU831
 2444              	.LBB688:
 2445              	.LBI688:
 2446              		.loc 8 111 25 view .LVU832
 2447              	.LBB689:
 2448              		.loc 8 113 3 view .LVU833
 2449              		.loc 8 113 10 is_stmt 0 view .LVU834
 2450 0056 FFF7FEFF 		bl	stGetCounter
 2451              	.LVL136:
ARM GAS  C:\Users\DEVELO~1\AppData\Local\Temp\ccxkKKM6.s 			page 44


 2452              	.LBE689:
 2453              	.LBE688:
 2454              	.LBE687:
 2455              	.LBE686:
 2456              		.loc 1 1515 5 is_stmt 1 view .LVU835
 2457              	.LBB690:
 2458              	.LBI674:
 2459              		.loc 3 584 20 view .LVU836
 2460              		.loc 3 586 3 view .LVU837
 2461              	.LBB684:
 2462              	.LBI675:
 2463              		.loc 4 386 20 view .LVU838
 2464              	.LBB683:
 2465              		.loc 4 388 23 view .LVU839
 2466              		.loc 4 389 34 view .LVU840
 2467              		.loc 4 395 3 view .LVU841
 2468              		.loc 4 395 3 view .LVU842
 2469              		.loc 4 395 3 view .LVU843
 2470              		.loc 4 399 3 view .LVU844
 2471              	.LBB682:
 2472              	.LBI677:
 2473              		.loc 5 864 27 view .LVU845
 2474              		.loc 5 867 3 view .LVU846
 2475              	.LBB681:
 2476              	.LBI678:
 2477              		.loc 2 491 27 view .LVU847
 2478              	.LBB680:
 2479              		.loc 2 493 3 view .LVU848
 2480              		.loc 2 493 3 is_stmt 0 view .LVU849
 2481              	.LBE680:
 2482              	.LBE681:
 2483              	.LBE682:
 2484              	.LBE683:
 2485              	.LBE684:
 2486              	.LBE690:
 2487              	.LBB691:
 2488              	.LBI691:
 2489              		.loc 3 746 20 is_stmt 1 view .LVU850
 2490              		.loc 3 750 3 view .LVU851
 2491              	.LBB692:
 2492              	.LBI692:
 2493              		.loc 9 484 20 view .LVU852
 2494              	.LBB693:
 2495              		.loc 9 488 3 view .LVU853
 2496              		.loc 9 488 17 is_stmt 0 view .LVU854
 2497 005a C31B     		subs	r3, r0, r7
 2498              	.LBE693:
 2499              	.LBE692:
 2500              	.LBE691:
 2501              		.loc 1 1511 8 view .LVU855
 2502 005c B3F5FA7F 		cmp	r3, #500
 2503 0060 F2D3     		bcc	.L140
 2504              		.loc 1 1512 14 view .LVU856
 2505 0062 4FF0FF30 		mov	r0, #-1
 2506              	.LVL137:
 2507              	.L119:
 2508              		.loc 1 1552 1 view .LVU857
ARM GAS  C:\Users\DEVELO~1\AppData\Local\Temp\ccxkKKM6.s 			page 45


 2509 0066 BDE8F883 		pop	{r3, r4, r5, r6, r7, r8, r9, pc}
 2510              	.LVL138:
 2511              	.L124:
 2512              		.loc 1 1519 3 is_stmt 1 view .LVU858
 2513              	.LBB694:
 2514              	.LBI694:
 2515              		.loc 1 245 13 view .LVU859
 2516              	.LBB695:
 2517              		.loc 1 246 3 view .LVU860
 2518              		.loc 1 249 20 is_stmt 0 view .LVU861
 2519 006a D8F80430 		ldr	r3, [r8, #4]
 2520              		.loc 1 246 16 view .LVU862
 2521 006e D8F83840 		ldr	r4, [r8, #56]
 2522              	.LVL139:
 2523              		.loc 1 249 3 is_stmt 1 view .LVU863
 2524              		.loc 1 249 20 is_stmt 0 view .LVU864
 2525 0072 9968     		ldr	r1, [r3, #8]
 2526              		.loc 1 249 6 view .LVU865
 2527 0074 0A05     		lsls	r2, r1, #20
 2528 0076 47D5     		bpl	.L121
 2529              		.loc 1 252 5 is_stmt 1 view .LVU866
 2530              	.LBE695:
 2531              	.LBE694:
 2532              	.LBB698:
 2533              	.LBB699:
 2534              	.LBB700:
 2535              	.LBB701:
 2536              		.loc 1 138 12 is_stmt 0 view .LVU867
 2537 0078 D8F83430 		ldr	r3, [r8, #52]
 2538              	.LBE701:
 2539              	.LBE700:
 2540              	.LBE699:
 2541              	.LBE698:
 2542              	.LBB709:
 2543              	.LBB696:
 2544              		.loc 1 252 13 view .LVU868
 2545 007c C4F80490 		str	r9, [r4, #4]
 2546              	.LVL140:
 2547              		.loc 1 252 13 view .LVU869
 2548              	.LBE696:
 2549              	.LBE709:
 2550              		.loc 1 1522 3 is_stmt 1 view .LVU870
 2551              	.LBB710:
 2552              	.LBI698:
 2553              		.loc 1 290 13 view .LVU871
 2554              	.LBB706:
 2555              		.loc 1 291 3 view .LVU872
 2556              		.loc 1 292 3 view .LVU873
 2557              		.loc 1 293 3 view .LVU874
 2558              		.loc 1 296 3 view .LVU875
 2559              	.LBB704:
 2560              	.LBI700:
 2561              		.loc 1 123 22 view .LVU876
 2562              	.LBB702:
 2563              		.loc 1 138 5 view .LVU877
 2564              		.loc 1 138 12 is_stmt 0 view .LVU878
 2565 0080 1868     		ldr	r0, [r3]
ARM GAS  C:\Users\DEVELO~1\AppData\Local\Temp\ccxkKKM6.s 			page 46


 2566 0082 4268     		ldr	r2, [r0, #4]
 2567              	.LVL141:
 2568              		.loc 1 138 12 view .LVU879
 2569              	.LBE702:
 2570              	.LBE704:
 2571              		.loc 1 297 3 is_stmt 1 view .LVU880
 2572              		.loc 1 297 6 is_stmt 0 view .LVU881
 2573 0084 FF2A     		cmp	r2, #255
 2574 0086 48D8     		bhi	.L130
 2575              	.L141:
 2576              		.loc 1 308 16 view .LVU882
 2577 0088 1204     		lsls	r2, r2, #16
 2578              	.LVL142:
 2579              		.loc 1 302 12 view .LVU883
 2580 008a 0027     		movs	r7, #0
 2581              	.L126:
 2582              	.LVL143:
 2583              		.loc 1 307 3 is_stmt 1 view .LVU884
 2584              		.loc 1 307 16 is_stmt 0 view .LVU885
 2585 008c 6668     		ldr	r6, [r4, #4]
 2586              		.loc 1 307 22 view .LVU886
 2587 008e 254B     		ldr	r3, .L142
 2588 0090 3340     		ands	r3, r3, r6
 2589              		.loc 1 308 24 view .LVU887
 2590 0092 0B43     		orrs	r3, r3, r1
 2591              	.LBE706:
 2592              	.LBE710:
 2593              	.LBB711:
 2594              	.LBB712:
 2595              		.loc 3 824 10 view .LVU888
 2596 0094 0A99     		ldr	r1, [sp, #40]
 2597              	.LBE712:
 2598              	.LBE711:
 2599              	.LBB715:
 2600              	.LBB707:
 2601              		.loc 1 308 24 view .LVU889
 2602 0096 3B43     		orrs	r3, r3, r7
 2603 0098 1343     		orrs	r3, r3, r2
 2604              		.loc 1 307 11 view .LVU890
 2605 009a 6360     		str	r3, [r4, #4]
 2606              	.LVL144:
 2607              		.loc 1 307 11 view .LVU891
 2608              	.LBE707:
 2609              	.LBE715:
 2610              		.loc 1 1526 3 is_stmt 1 view .LVU892
 2611              	.LBB716:
 2612              	.LBI716:
 2613              		.loc 1 169 20 view .LVU893
 2614              	.LBB717:
 2615              		.loc 1 186 5 view .LVU894
 2616 009c 0368     		ldr	r3, [r0]
 2617 009e 43F00103 		orr	r3, r3, #1
 2618 00a2 0360     		str	r3, [r0]
 2619              		.loc 1 186 34 view .LVU895
 2620              	.LVL145:
 2621              		.loc 1 186 34 is_stmt 0 view .LVU896
 2622              	.LBE717:
ARM GAS  C:\Users\DEVELO~1\AppData\Local\Temp\ccxkKKM6.s 			page 47


 2623              	.LBE716:
 2624              		.loc 1 1529 3 is_stmt 1 view .LVU897
 2625              	.LBB718:
 2626              	.LBB713:
 2627              		.loc 3 824 10 is_stmt 0 view .LVU898
 2628 00a4 08F11C00 		add	r0, r8, #28
 2629              	.LBE713:
 2630              	.LBE718:
 2631              		.loc 1 1529 11 view .LVU899
 2632 00a8 2B68     		ldr	r3, [r5]
 2633 00aa 43F04003 		orr	r3, r3, #64
 2634 00ae 2B60     		str	r3, [r5]
 2635              		.loc 1 1536 3 is_stmt 1 view .LVU900
 2636              		.loc 1 1536 11 is_stmt 0 view .LVU901
 2637 00b0 6B68     		ldr	r3, [r5, #4]
 2638 00b2 43F40053 		orr	r3, r3, #8192
 2639 00b6 6B60     		str	r3, [r5, #4]
 2640              		.loc 1 1539 3 is_stmt 1 view .LVU902
 2641              	.LVL146:
 2642              	.LBB719:
 2643              	.LBI711:
 2644              		.loc 3 821 21 view .LVU903
 2645              	.LBB714:
 2646              		.loc 3 824 3 view .LVU904
 2647              		.loc 3 824 10 is_stmt 0 view .LVU905
 2648 00b8 FFF7FEFF 		bl	chThdSuspendTimeoutS
 2649              	.LVL147:
 2650              		.loc 3 824 10 view .LVU906
 2651              	.LBE714:
 2652              	.LBE719:
 2653              		.loc 1 1543 3 is_stmt 1 view .LVU907
 2654              		.loc 1 1543 6 is_stmt 0 view .LVU908
 2655 00bc 441C     		adds	r4, r0, #1
 2656 00be D2D1     		bne	.L119
 2657              		.loc 1 1544 5 is_stmt 1 view .LVU909
 2658              		.loc 1 1544 13 is_stmt 0 view .LVU910
 2659 00c0 6B68     		ldr	r3, [r5, #4]
 2660 00c2 D8F83040 		ldr	r4, [r8, #48]
 2661 00c6 43F48043 		orr	r3, r3, #16384
 2662              	.LBB720:
 2663              	.LBB721:
 2664              		.loc 1 208 5 view .LVU911
 2665 00ca 2268     		ldr	r2, [r4]
 2666              	.LBE721:
 2667              	.LBE720:
 2668              		.loc 1 1544 13 view .LVU912
 2669 00cc 6B60     		str	r3, [r5, #4]
 2670              		.loc 1 1546 5 is_stmt 1 view .LVU913
 2671              	.LBB724:
 2672              	.LBI720:
 2673              		.loc 1 191 20 view .LVU914
 2674              	.LVL148:
 2675              	.LBB722:
 2676              		.loc 1 208 5 view .LVU915
 2677 00ce 1368     		ldr	r3, [r2]
 2678 00d0 23F01F03 		bic	r3, r3, #31
 2679 00d4 1360     		str	r3, [r2]
ARM GAS  C:\Users\DEVELO~1\AppData\Local\Temp\ccxkKKM6.s 			page 48


 2680              		.loc 1 208 5 view .LVU916
 2681              	.L127:
 2682              		.loc 1 208 5 view .LVU917
 2683 00d6 1368     		ldr	r3, [r2]
 2684 00d8 D907     		lsls	r1, r3, #31
 2685 00da FCD4     		bmi	.L127
 2686              		.loc 1 208 5 view .LVU918
 2687 00dc 227B     		ldrb	r2, [r4, #12]	@ zero_extendqisi2
 2688 00de 3D23     		movs	r3, #61
 2689 00e0 D8F83410 		ldr	r1, [r8, #52]
 2690 00e4 9340     		lsls	r3, r3, r2
 2691 00e6 6468     		ldr	r4, [r4, #4]
 2692              	.LBE722:
 2693              	.LBE724:
 2694              	.LBB725:
 2695              	.LBB726:
 2696              		.loc 1 230 5 is_stmt 0 view .LVU919
 2697 00e8 0A68     		ldr	r2, [r1]
 2698              	.LBE726:
 2699              	.LBE725:
 2700              	.LBB728:
 2701              	.LBB723:
 2702              		.loc 1 208 5 view .LVU920
 2703 00ea 2360     		str	r3, [r4]
 2704              		.loc 1 208 5 is_stmt 1 view .LVU921
 2705              		.loc 1 208 35 view .LVU922
 2706              	.LVL149:
 2707              		.loc 1 208 35 is_stmt 0 view .LVU923
 2708              	.LBE723:
 2709              	.LBE728:
 2710              		.loc 1 1547 5 is_stmt 1 view .LVU924
 2711              	.LBB729:
 2712              	.LBI725:
 2713              		.loc 1 213 20 view .LVU925
 2714              	.LBB727:
 2715              		.loc 1 230 5 view .LVU926
 2716 00ec 1368     		ldr	r3, [r2]
 2717 00ee 23F01F03 		bic	r3, r3, #31
 2718 00f2 1360     		str	r3, [r2]
 2719              		.loc 1 230 5 view .LVU927
 2720              	.L128:
 2721              		.loc 1 230 5 view .LVU928
 2722 00f4 1368     		ldr	r3, [r2]
 2723 00f6 DB07     		lsls	r3, r3, #31
 2724 00f8 FCD4     		bmi	.L128
 2725              		.loc 1 230 5 view .LVU929
 2726 00fa 0C7B     		ldrb	r4, [r1, #12]	@ zero_extendqisi2
 2727 00fc 3D23     		movs	r3, #61
 2728 00fe 4A68     		ldr	r2, [r1, #4]
 2729 0100 A340     		lsls	r3, r3, r4
 2730 0102 1360     		str	r3, [r2]
 2731              		.loc 1 230 5 view .LVU930
 2732              		.loc 1 230 35 view .LVU931
 2733              	.LBE727:
 2734              	.LBE729:
 2735              		.loc 1 1552 1 is_stmt 0 view .LVU932
 2736 0104 BDE8F883 		pop	{r3, r4, r5, r6, r7, r8, r9, pc}
ARM GAS  C:\Users\DEVELO~1\AppData\Local\Temp\ccxkKKM6.s 			page 49


 2737              	.LVL150:
 2738              	.L121:
 2739              	.LBB730:
 2740              	.LBB697:
 2741              		.loc 1 250 5 is_stmt 1 view .LVU933
 2742              		.loc 1 250 30 is_stmt 0 view .LVU934
 2743 0108 4FEA4903 		lsl	r3, r9, #1
 2744              		.loc 1 250 13 view .LVU935
 2745 010c 6360     		str	r3, [r4, #4]
 2746              	.LVL151:
 2747              		.loc 1 250 13 view .LVU936
 2748              	.LBE697:
 2749              	.LBE730:
 2750              		.loc 1 1522 3 is_stmt 1 view .LVU937
 2751              	.LBB731:
 2752              		.loc 1 290 13 view .LVU938
 2753              	.LBB708:
 2754              		.loc 1 291 3 view .LVU939
 2755              		.loc 1 292 3 view .LVU940
 2756              		.loc 1 293 3 view .LVU941
 2757              		.loc 1 296 3 view .LVU942
 2758              	.LBB705:
 2759              		.loc 1 123 22 view .LVU943
 2760              	.LBB703:
 2761              		.loc 1 138 5 view .LVU944
 2762              		.loc 1 138 12 is_stmt 0 view .LVU945
 2763 010e D8F83430 		ldr	r3, [r8, #52]
 2764 0112 1868     		ldr	r0, [r3]
 2765 0114 4268     		ldr	r2, [r0, #4]
 2766              	.LVL152:
 2767              		.loc 1 138 12 view .LVU946
 2768              	.LBE703:
 2769              	.LBE705:
 2770              		.loc 1 297 3 is_stmt 1 view .LVU947
 2771              		.loc 1 297 6 is_stmt 0 view .LVU948
 2772 0116 FF2A     		cmp	r2, #255
 2773 0118 B6D9     		bls	.L141
 2774              	.L130:
 2775              		.loc 1 297 6 view .LVU949
 2776 011a 4FF47F02 		mov	r2, #16711680
 2777              	.LVL153:
 2778              		.loc 1 299 12 view .LVU950
 2779 011e 4FF08077 		mov	r7, #16777216
 2780 0122 B3E7     		b	.L126
 2781              	.L143:
 2782              		.align	2
 2783              	.L142:
 2784 0124 FFFF00FE 		.word	-33488897
 2785              	.LBE708:
 2786              	.LBE731:
 2787              		.cfi_endproc
 2788              	.LFE466:
 2789              		.size	i2c_lld_master_transmit_timeout, .-i2c_lld_master_transmit_timeout
 2790              		.global	I2CD3
 2791              		.section	.bss.I2CD3,"aw",%nobits
 2792              		.align	2
 2793              		.set	.LANCHOR0,. + 0
ARM GAS  C:\Users\DEVELO~1\AppData\Local\Temp\ccxkKKM6.s 			page 50


 2794              		.type	I2CD3, %object
 2795              		.size	I2CD3, 60
 2796              	I2CD3:
 2797 0000 00000000 		.space	60
 2797      00000000 
 2797      00000000 
 2797      00000000 
 2797      00000000 
 2798              		.section	.rodata.__func__.0,"a"
 2799              		.align	2
 2800              		.set	.LANCHOR2,. + 0
 2801              		.type	__func__.0, %object
 2802              		.size	__func__.0, 10
 2803              	__func__.0:
 2804 0000 56656374 		.ascii	"Vector164\000"
 2804      6F723136 
 2804      3400
 2805              		.section	.rodata.__func__.1,"a"
 2806              		.align	2
 2807              		.set	.LANCHOR1,. + 0
 2808              		.type	__func__.1, %object
 2809              		.size	__func__.1, 10
 2810              	__func__.1:
 2811 0000 56656374 		.ascii	"Vector160\000"
 2811      6F723136 
 2811      3000
 2812              		.text
 2813              	.Letext0:
 2814              		.file 10 "c:\\chibistudio\\tools\\gnu tools arm embedded\\11.3 2022.08\\lib\\gcc\\arm-none-eabi\\1
 2815              		.file 11 "c:\\chibistudio\\tools\\gnu tools arm embedded\\11.3 2022.08\\arm-none-eabi\\include\\ma
 2816              		.file 12 "c:\\chibistudio\\tools\\gnu tools arm embedded\\11.3 2022.08\\arm-none-eabi\\include\\sy
 2817              		.file 13 "../../../os/common/ports/ARM-common/include/chtypes.h"
 2818              		.file 14 "../../../os/rt/include/chearly.h"
 2819              		.file 15 "../../../os/rt/include/chobjects.h"
 2820              		.file 16 "../../../os/rt/include/chrfcu.h"
 2821              		.file 17 "../../../os/rt/include/chdebug.h"
 2822              		.file 18 "../../../os/rt/include/chtrace.h"
 2823              		.file 19 "../../../os/common/ext/ST/STM32H7xx/stm32h743xx.h"
 2824              		.file 20 "../../../os/rt/include/chlists.h"
 2825              		.file 21 "../../../os/rt/include/chsem.h"
 2826              		.file 22 "../../../os/rt/include/chmtx.h"
 2827              		.file 23 "../../../os/hal/ports/STM32/LLD/DMAv2/stm32_dma.h"
 2828              		.file 24 "../../../os/hal/include/hal_i2c.h"
 2829              		.file 25 "../../../os/hal/ports/STM32/LLD/I2Cv3/hal_i2c_lld.h"
 2830              		.file 26 "../../../os/rt/include/chthreads.h"
 2831              		.file 27 "../../../os/hal/ports/common/ARMCMx/nvic.h"
 2832              		.file 28 "../../../os/hal/include/hal_st.h"