ARM GAS  C:\Users\DEVELO~1\AppData\Local\Temp\cc6jhEjd.s 			page 1


   1              		.cpu cortex-m7
   2              		.arch armv7e-m
   3              		.fpu fpv5-d16
   4              		.eabi_attribute 28, 1
   5              		.eabi_attribute 20, 1
   6              		.eabi_attribute 21, 1
   7              		.eabi_attribute 23, 3
   8              		.eabi_attribute 24, 1
   9              		.eabi_attribute 25, 1
  10              		.eabi_attribute 26, 1
  11              		.eabi_attribute 30, 2
  12              		.eabi_attribute 34, 1
  13              		.eabi_attribute 18, 4
  14              		.file	"hal_lld.c"
  15              		.text
  16              	.Ltext0:
  17              		.cfi_sections	.debug_frame
  18              		.section	.text.hal_lld_init,"ax",%progbits
  19              		.align	1
  20              		.p2align 2,,3
  21              		.global	hal_lld_init
  22              		.syntax unified
  23              		.thumb
  24              		.thumb_func
  25              		.type	hal_lld_init, %function
  26              	hal_lld_init:
  27              	.LFB450:
  28              		.file 1 "../../../os/hal/ports/STM32/STM32H7xx/hal_lld.c"
  29              		.loc 1 150 25 view -0
  30              		.cfi_startproc
  31              		@ args = 0, pretend = 0, frame = 0
  32              		@ frame_needed = 0, uses_anonymous_args = 0
  33              		.loc 1 160 3 view .LVU1
  34              	.LVL0:
  35              	.LBB29:
  36              	.LBI29:
  37              		.file 2 "../../../os/hal/ports/STM32/STM32H7xx/stm32_rcc.h"
  38              		.loc 2 97 22 view .LVU2
  39              	.LBB30:
  40              		.loc 2 100 3 view .LVU3
  41              	.LBE30:
  42              	.LBE29:
  43              		.loc 1 150 25 is_stmt 0 view .LVU4
  44 0000 38B5     		push	{r3, r4, r5, lr}
  45              		.cfi_def_cfa_offset 16
  46              		.cfi_offset 3, -16
  47              		.cfi_offset 4, -12
  48              		.cfi_offset 5, -8
  49              		.cfi_offset 14, -4
  50              	.LBB34:
  51              	.LBB31:
  52              		.loc 2 100 17 view .LVU5
  53 0002 364B     		ldr	r3, .L4
  54              	.LBE31:
  55              	.LBE34:
  56              	.LBB35:
  57              	.LBB36:
ARM GAS  C:\Users\DEVELO~1\AppData\Local\Temp\cc6jhEjd.s 			page 2


  58              		.loc 2 109 17 view .LVU6
  59 0004 0022     		movs	r2, #0
  60              		.loc 2 108 17 view .LVU7
  61 0006 4FF0FF31 		mov	r1, #-1
  62              	.LBE36:
  63              	.LBE35:
  64              	.LBB38:
  65              	.LBB39:
  66              		.loc 2 116 17 view .LVU8
  67 000a 354C     		ldr	r4, .L4+4
  68              	.LBE39:
  69              	.LBE38:
  70              	.LBB43:
  71              	.LBB32:
  72              		.loc 2 100 17 view .LVU9
  73 000c D3F88000 		ldr	r0, [r3, #128]
  74              	.LBE32:
  75              	.LBE43:
  76              	.LBB44:
  77              	.LBB40:
  78              		.loc 2 117 17 view .LVU10
  79 0010 344D     		ldr	r5, .L4+8
  80              	.LBE40:
  81              	.LBE44:
  82              	.LBB45:
  83              	.LBB33:
  84              		.loc 2 100 17 view .LVU11
  85 0012 60F00040 		orn	r0, r0, #-2147483648
  86 0016 C3F88000 		str	r0, [r3, #128]
  87              		.loc 2 101 3 is_stmt 1 view .LVU12
  88              		.loc 2 101 17 is_stmt 0 view .LVU13
  89 001a D3F88000 		ldr	r0, [r3, #128]
  90 001e 00F00040 		and	r0, r0, #-2147483648
  91 0022 C3F88000 		str	r0, [r3, #128]
  92              		.loc 2 102 3 is_stmt 1 view .LVU14
  93 0026 D3F88000 		ldr	r0, [r3, #128]
  94              	.LVL1:
  95              		.loc 2 102 3 is_stmt 0 view .LVU15
  96              	.LBE33:
  97              	.LBE45:
  98              		.loc 1 161 3 is_stmt 1 view .LVU16
  99              	.LBB46:
 100              	.LBI35:
 101              		.loc 2 105 22 view .LVU17
 102              	.LBB37:
 103              		.loc 2 108 3 view .LVU18
 104              		.loc 2 108 17 is_stmt 0 view .LVU19
 105 002a D3F88400 		ldr	r0, [r3, #132]
 106 002e C3F88410 		str	r1, [r3, #132]
 107              		.loc 2 109 3 is_stmt 1 view .LVU20
 108              		.loc 2 109 17 is_stmt 0 view .LVU21
 109 0032 D3F88400 		ldr	r0, [r3, #132]
 110 0036 C3F88420 		str	r2, [r3, #132]
 111              		.loc 2 110 3 is_stmt 1 view .LVU22
 112 003a D3F88400 		ldr	r0, [r3, #132]
 113              	.LVL2:
 114              		.loc 2 110 3 is_stmt 0 view .LVU23
ARM GAS  C:\Users\DEVELO~1\AppData\Local\Temp\cc6jhEjd.s 			page 3


 115              	.LBE37:
 116              	.LBE46:
 117              		.loc 1 162 3 is_stmt 1 view .LVU24
 118              	.LBB47:
 119              	.LBI38:
 120              		.loc 2 113 22 view .LVU25
 121              	.LBB41:
 122              		.loc 2 116 3 view .LVU26
 123              		.loc 2 116 17 is_stmt 0 view .LVU27
 124 003e D86F     		ldr	r0, [r3, #124]
 125 0040 2043     		orrs	r0, r0, r4
 126 0042 D867     		str	r0, [r3, #124]
 127              		.loc 2 117 3 is_stmt 1 view .LVU28
 128              		.loc 2 117 17 is_stmt 0 view .LVU29
 129 0044 DC6F     		ldr	r4, [r3, #124]
 130              	.LBE41:
 131              	.LBE47:
 132              	.LBB48:
 133              	.LBB49:
 134              		.loc 2 124 17 view .LVU30
 135 0046 2848     		ldr	r0, .L4+12
 136              	.LBE49:
 137              	.LBE48:
 138              	.LBB51:
 139              	.LBB42:
 140              		.loc 2 117 17 view .LVU31
 141 0048 2C40     		ands	r4, r4, r5
 142 004a DC67     		str	r4, [r3, #124]
 143              		.loc 2 118 3 is_stmt 1 view .LVU32
 144 004c DC6F     		ldr	r4, [r3, #124]
 145              	.LVL3:
 146              		.loc 2 118 3 is_stmt 0 view .LVU33
 147              	.LBE42:
 148              	.LBE51:
 149              		.loc 1 177 3 is_stmt 1 view .LVU34
 150              	.LBB52:
 151              	.LBI48:
 152              		.loc 2 121 22 view .LVU35
 153              	.LBB50:
 154              		.loc 2 124 3 view .LVU36
 155              		.loc 2 124 17 is_stmt 0 view .LVU37
 156 004e D3F88840 		ldr	r4, [r3, #136]
 157 0052 2043     		orrs	r0, r0, r4
 158 0054 C3F88800 		str	r0, [r3, #136]
 159              		.loc 2 125 3 is_stmt 1 view .LVU38
 160              		.loc 2 125 17 is_stmt 0 view .LVU39
 161 0058 D3F88800 		ldr	r0, [r3, #136]
 162 005c C0F30A00 		ubfx	r0, r0, #0, #11
 163 0060 C3F88800 		str	r0, [r3, #136]
 164              		.loc 2 126 3 is_stmt 1 view .LVU40
 165 0064 D3F88800 		ldr	r0, [r3, #136]
 166              	.LVL4:
 167              		.loc 2 126 3 is_stmt 0 view .LVU41
 168              	.LBE50:
 169              	.LBE52:
 170              		.loc 1 178 3 is_stmt 1 view .LVU42
 171              	.LBB53:
ARM GAS  C:\Users\DEVELO~1\AppData\Local\Temp\cc6jhEjd.s 			page 4


 172              	.LBI53:
 173              		.loc 2 57 22 view .LVU43
 174              	.LBB54:
 175              		.loc 2 60 3 view .LVU44
 176              		.loc 2 60 18 is_stmt 0 view .LVU45
 177 0068 D3F89000 		ldr	r0, [r3, #144]
 178 006c C3F89010 		str	r1, [r3, #144]
 179              		.loc 2 61 3 is_stmt 1 view .LVU46
 180              		.loc 2 61 18 is_stmt 0 view .LVU47
 181 0070 D3F89000 		ldr	r0, [r3, #144]
 182 0074 C3F89020 		str	r2, [r3, #144]
 183              		.loc 2 62 3 is_stmt 1 view .LVU48
 184 0078 D3F89000 		ldr	r0, [r3, #144]
 185              	.LVL5:
 186              		.loc 2 62 3 is_stmt 0 view .LVU49
 187              	.LBE54:
 188              	.LBE53:
 189              		.loc 1 179 3 is_stmt 1 view .LVU50
 190              	.LBB55:
 191              	.LBI55:
 192              		.loc 2 65 22 view .LVU51
 193              	.LBB56:
 194              		.loc 2 68 3 view .LVU52
 195              		.loc 2 68 18 is_stmt 0 view .LVU53
 196 007c D3F89400 		ldr	r0, [r3, #148]
 197 0080 C3F89410 		str	r1, [r3, #148]
 198              		.loc 2 69 3 is_stmt 1 view .LVU54
 199              		.loc 2 69 18 is_stmt 0 view .LVU55
 200 0084 D3F89400 		ldr	r0, [r3, #148]
 201 0088 C3F89420 		str	r2, [r3, #148]
 202              		.loc 2 70 3 is_stmt 1 view .LVU56
 203 008c D3F89400 		ldr	r0, [r3, #148]
 204              	.LVL6:
 205              		.loc 2 70 3 is_stmt 0 view .LVU57
 206              	.LBE56:
 207              	.LBE55:
 208              		.loc 1 180 3 is_stmt 1 view .LVU58
 209              	.LBB57:
 210              	.LBI57:
 211              		.loc 2 73 22 view .LVU59
 212              	.LBB58:
 213              		.loc 2 76 3 view .LVU60
 214              		.loc 2 76 17 is_stmt 0 view .LVU61
 215 0090 D3F89800 		ldr	r0, [r3, #152]
 216 0094 C3F89810 		str	r1, [r3, #152]
 217              		.loc 2 77 3 is_stmt 1 view .LVU62
 218              		.loc 2 77 17 is_stmt 0 view .LVU63
 219 0098 D3F89800 		ldr	r0, [r3, #152]
 220 009c C3F89820 		str	r2, [r3, #152]
 221              		.loc 2 78 3 is_stmt 1 view .LVU64
 222 00a0 D3F89800 		ldr	r0, [r3, #152]
 223              	.LVL7:
 224              		.loc 2 78 3 is_stmt 0 view .LVU65
 225              	.LBE58:
 226              	.LBE57:
 227              		.loc 1 181 3 is_stmt 1 view .LVU66
 228              	.LBB59:
ARM GAS  C:\Users\DEVELO~1\AppData\Local\Temp\cc6jhEjd.s 			page 5


 229              	.LBI59:
 230              		.loc 2 81 22 view .LVU67
 231              	.LBB60:
 232              		.loc 2 84 3 view .LVU68
 233              		.loc 2 84 17 is_stmt 0 view .LVU69
 234 00a4 D3F88C00 		ldr	r0, [r3, #140]
 235 00a8 C3F88C10 		str	r1, [r3, #140]
 236              		.loc 2 85 3 is_stmt 1 view .LVU70
 237              		.loc 2 85 17 is_stmt 0 view .LVU71
 238 00ac D3F88C00 		ldr	r0, [r3, #140]
 239 00b0 C3F88C20 		str	r2, [r3, #140]
 240              		.loc 2 86 3 is_stmt 1 view .LVU72
 241 00b4 D3F88C00 		ldr	r0, [r3, #140]
 242              	.LVL8:
 243              		.loc 2 86 3 is_stmt 0 view .LVU73
 244              	.LBE60:
 245              	.LBE59:
 246              		.loc 1 182 3 is_stmt 1 view .LVU74
 247              	.LBB61:
 248              	.LBI61:
 249              		.loc 2 89 22 view .LVU75
 250              	.LBB62:
 251              		.loc 2 92 3 view .LVU76
 252              		.loc 2 92 17 is_stmt 0 view .LVU77
 253 00b8 D3F89C00 		ldr	r0, [r3, #156]
 254 00bc C3F89C10 		str	r1, [r3, #156]
 255              		.loc 2 93 3 is_stmt 1 view .LVU78
 256              		.loc 2 93 17 is_stmt 0 view .LVU79
 257 00c0 D3F89C10 		ldr	r1, [r3, #156]
 258 00c4 C3F89C20 		str	r2, [r3, #156]
 259              		.loc 2 94 3 is_stmt 1 view .LVU80
 260 00c8 D3F89C30 		ldr	r3, [r3, #156]
 261              	.LVL9:
 262              		.loc 2 94 3 is_stmt 0 view .LVU81
 263              	.LBE62:
 264              	.LBE61:
 265              		.loc 1 187 3 is_stmt 1 view .LVU82
 266 00cc FFF7FEFF 		bl	bdmaInit
 267              	.LVL10:
 268              		.loc 1 190 3 view .LVU83
 269 00d0 FFF7FEFF 		bl	dmaInit
 270              	.LVL11:
 271              		.loc 1 197 3 view .LVU84
 272              		.loc 1 218 1 is_stmt 0 view .LVU85
 273 00d4 BDE83840 		pop	{r3, r4, r5, lr}
 274              		.cfi_restore 14
 275              		.cfi_restore 5
 276              		.cfi_restore 4
 277              		.cfi_restore 3
 278              		.cfi_def_cfa_offset 0
 279              		.loc 1 197 3 view .LVU86
 280 00d8 FFF7FEBF 		b	irqInit
 281              	.LVL12:
 282              	.L5:
 283              		.align	2
 284              	.L4:
 285 00dc 00440258 		.word	1476543488
ARM GAS  C:\Users\DEVELO~1\AppData\Local\Temp\cc6jhEjd.s 			page 6


 286 00e0 FFEFFF7F 		.word	2147479551
 287 00e4 00100080 		.word	-2147479552
 288 00e8 00F8FFFF 		.word	-2048
 289              		.cfi_endproc
 290              	.LFE450:
 291              		.size	hal_lld_init, .-hal_lld_init
 292              		.section	.text.stm32_clock_init,"ax",%progbits
 293              		.align	1
 294              		.p2align 2,,3
 295              		.global	stm32_clock_init
 296              		.syntax unified
 297              		.thumb
 298              		.thumb_func
 299              		.type	stm32_clock_init, %function
 300              	stm32_clock_init:
 301              	.LFB451:
 302              		.loc 1 227 29 is_stmt 1 view -0
 303              		.cfi_startproc
 304              		@ args = 0, pretend = 0, frame = 0
 305              		@ frame_needed = 0, uses_anonymous_args = 0
 306              		@ link register save eliminated.
 307              		.loc 1 229 3 view .LVU88
 308              		.loc 1 245 3 view .LVU89
 309              	.LVL13:
 310              	.LBB76:
 311              	.LBI76:
 312              		.loc 2 497 22 view .LVU90
 313              	.LBB77:
 314              		.loc 2 501 3 view .LVU91
 315              		.loc 2 501 19 is_stmt 0 view .LVU92
 316 0000 6F4B     		ldr	r3, .L41
 317              	.LBE77:
 318              	.LBE76:
 319              	.LBB80:
 320              	.LBB81:
 321              		.loc 1 106 14 view .LVU93
 322 0002 0220     		movs	r0, #2
 323 0004 6F4A     		ldr	r2, .L41+4
 324              	.LBE81:
 325              	.LBE80:
 326              	.LBB83:
 327              	.LBB78:
 328              		.loc 2 501 19 view .LVU94
 329 0006 D3F8F410 		ldr	r1, [r3, #244]
 330 000a 0143     		orrs	r1, r1, r0
 331              	.LBE78:
 332              	.LBE83:
 333              		.loc 1 227 29 view .LVU95
 334 000c 10B4     		push	{r4}
 335              		.cfi_def_cfa_offset 4
 336              		.cfi_offset 4, -4
 337              	.LBB84:
 338              	.LBB79:
 339              		.loc 2 501 19 view .LVU96
 340 000e C3F8F410 		str	r1, [r3, #244]
 341              		.loc 2 502 3 is_stmt 1 view .LVU97
 342              		.loc 2 503 5 view .LVU98
ARM GAS  C:\Users\DEVELO~1\AppData\Local\Temp\cc6jhEjd.s 			page 7


 343              		.loc 2 503 23 is_stmt 0 view .LVU99
 344 0012 D3F81C11 		ldr	r1, [r3, #284]
 345 0016 0143     		orrs	r1, r1, r0
 346 0018 C3F81C11 		str	r1, [r3, #284]
 347              		.loc 2 508 3 is_stmt 1 view .LVU100
 348 001c D3F81C31 		ldr	r3, [r3, #284]
 349              	.LVL14:
 350              		.loc 2 508 3 is_stmt 0 view .LVU101
 351              	.LBE79:
 352              	.LBE84:
 353              		.loc 1 248 3 is_stmt 1 view .LVU102
 354              	.LBB85:
 355              	.LBI80:
 356              		.loc 1 98 20 view .LVU103
 357              	.LBB82:
 358              		.loc 1 106 3 view .LVU104
 359              		.loc 1 106 14 is_stmt 0 view .LVU105
 360 0020 D060     		str	r0, [r2, #12]
 361              		.loc 1 107 3 is_stmt 1 view .LVU106
 362              	.L7:
 363              		.loc 1 107 43 view .LVU107
 364              		.loc 1 107 14 is_stmt 0 view .LVU108
 365 0022 5368     		ldr	r3, [r2, #4]
 366              		.loc 1 107 43 view .LVU109
 367 0024 9804     		lsls	r0, r3, #18
 368 0026 FCD5     		bpl	.L7
 369              		.loc 1 110 3 is_stmt 1 view .LVU110
 370              		.loc 1 110 14 is_stmt 0 view .LVU111
 371 0028 6748     		ldr	r0, .L41+8
 372              		.loc 1 113 14 view .LVU112
 373 002a 0023     		movs	r3, #0
 374              		.loc 1 111 14 view .LVU113
 375 002c 0121     		movs	r1, #1
 376              		.loc 1 112 14 view .LVU114
 377 002e 674C     		ldr	r4, .L41+12
 378              		.loc 1 110 14 view .LVU115
 379 0030 1060     		str	r0, [r2]
 380              		.loc 1 111 3 is_stmt 1 view .LVU116
 381              		.loc 1 117 14 is_stmt 0 view .LVU117
 382 0032 4FF44040 		mov	r0, #49152
 383              		.loc 1 111 14 view .LVU118
 384 0036 9160     		str	r1, [r2, #8]
 385              		.loc 1 112 3 is_stmt 1 view .LVU119
 386              		.loc 1 112 14 is_stmt 0 view .LVU120
 387 0038 D460     		str	r4, [r2, #12]
 388              		.loc 1 113 3 is_stmt 1 view .LVU121
 389              		.loc 1 121 17 is_stmt 0 view .LVU122
 390 003a 6549     		ldr	r1, .L41+16
 391              		.loc 1 113 14 view .LVU123
 392 003c 1361     		str	r3, [r2, #16]
 393              		.loc 1 117 3 is_stmt 1 view .LVU124
 394              		.loc 1 117 14 is_stmt 0 view .LVU125
 395 003e 9061     		str	r0, [r2, #24]
 396              		.loc 1 121 3 is_stmt 1 view .LVU126
 397              		.loc 1 127 14 is_stmt 0 view .LVU127
 398 0040 604A     		ldr	r2, .L41+4
 399              		.loc 1 121 17 view .LVU128
ARM GAS  C:\Users\DEVELO~1\AppData\Local\Temp\cc6jhEjd.s 			page 8


 400 0042 CB62     		str	r3, [r1, #44]
 401              		.loc 1 127 3 is_stmt 1 view .LVU129
 402              	.L8:
 403              		.loc 1 127 40 view .LVU130
 404              		.loc 1 127 14 is_stmt 0 view .LVU131
 405 0044 9369     		ldr	r3, [r2, #24]
 406              		.loc 1 127 40 view .LVU132
 407 0046 9904     		lsls	r1, r3, #18
 408 0048 FCD5     		bpl	.L8
 409              	.LBE82:
 410              	.LBE85:
 411              		.loc 1 251 3 is_stmt 1 view .LVU133
 412              	.LBB86:
 413              	.LBI86:
 414              		.loc 1 58 20 view .LVU134
 415              	.LBB87:
 416              		.loc 1 61 3 view .LVU135
 417              		.loc 1 61 12 is_stmt 0 view .LVU136
 418 004a 1368     		ldr	r3, [r2]
 419              		.loc 1 64 11 view .LVU137
 420 004c 5C49     		ldr	r1, .L41
 421              		.loc 1 61 12 view .LVU138
 422 004e 43F48073 		orr	r3, r3, #256
 423 0052 1360     		str	r3, [r2]
 424              		.loc 1 64 3 is_stmt 1 view .LVU139
 425              		.loc 1 64 11 is_stmt 0 view .LVU140
 426 0054 0B6F     		ldr	r3, [r1, #112]
 427              		.loc 1 64 18 view .LVU141
 428 0056 03F44073 		and	r3, r3, #768
 429              		.loc 1 64 6 view .LVU142
 430 005a B3F5007F 		cmp	r3, #512
 431 005e 04D0     		beq	.L9
 432              		.loc 1 66 5 is_stmt 1 view .LVU143
 433              		.loc 1 66 15 is_stmt 0 view .LVU144
 434 0060 4FF48032 		mov	r2, #65536
 435              		.loc 1 67 15 view .LVU145
 436 0064 0023     		movs	r3, #0
 437              		.loc 1 66 15 view .LVU146
 438 0066 0A67     		str	r2, [r1, #112]
 439              		.loc 1 67 5 is_stmt 1 view .LVU147
 440              		.loc 1 67 15 is_stmt 0 view .LVU148
 441 0068 0B67     		str	r3, [r1, #112]
 442              	.L9:
 443              	.LBE87:
 444              	.LBE86:
 445              		.loc 1 255 3 is_stmt 1 view .LVU149
 446              		.loc 1 255 11 is_stmt 0 view .LVU150
 447 006a 5549     		ldr	r1, .L41
 448 006c 0B68     		ldr	r3, [r1]
 449 006e 43F00103 		orr	r3, r3, #1
 450 0072 0B60     		str	r3, [r1]
 451              		.loc 1 256 3 is_stmt 1 view .LVU151
 452              	.L10:
 453              		.loc 1 256 10 discriminator 1 view .LVU152
 454              		.loc 1 256 15 is_stmt 0 discriminator 1 view .LVU153
 455 0074 0B68     		ldr	r3, [r1]
 456              		.loc 1 256 10 discriminator 1 view .LVU154
ARM GAS  C:\Users\DEVELO~1\AppData\Local\Temp\cc6jhEjd.s 			page 9


 457 0076 5B07     		lsls	r3, r3, #29
 458 0078 FCD5     		bpl	.L10
 459              		.loc 1 262 3 is_stmt 1 view .LVU155
 460              		.loc 1 262 16 is_stmt 0 view .LVU156
 461 007a 0023     		movs	r3, #0
 462              		.loc 1 263 14 view .LVU157
 463 007c 504A     		ldr	r2, .L41
 464              		.loc 1 262 16 view .LVU158
 465 007e 0B61     		str	r3, [r1, #16]
 466              		.loc 1 263 3 is_stmt 1 view .LVU159
 467              	.L11:
 468              		.loc 1 263 37 discriminator 1 view .LVU160
 469              		.loc 1 263 14 is_stmt 0 discriminator 1 view .LVU161
 470 0080 1369     		ldr	r3, [r2, #16]
 471              		.loc 1 263 37 discriminator 1 view .LVU162
 472 0082 13F03803 		ands	r3, r3, #56
 473 0086 FBD1     		bne	.L11
 474              		.loc 1 267 3 is_stmt 1 view .LVU163
 475              		.loc 1 267 16 is_stmt 0 view .LVU164
 476 0088 0120     		movs	r0, #1
 477              		.loc 1 268 16 view .LVU165
 478 008a 4FF08041 		mov	r1, #1073741824
 479              		.loc 1 270 16 view .LVU166
 480 008e 4FF00054 		mov	r4, #536870912
 481              		.loc 1 267 16 view .LVU167
 482 0092 1060     		str	r0, [r2]
 483              		.loc 1 268 3 is_stmt 1 view .LVU168
 484              		.loc 1 268 16 is_stmt 0 view .LVU169
 485 0094 5160     		str	r1, [r2, #4]
 486              		.loc 1 270 3 is_stmt 1 view .LVU170
 487              		.loc 1 273 16 is_stmt 0 view .LVU171
 488 0096 4F48     		ldr	r0, .L41+20
 489              		.loc 1 287 13 view .LVU172
 490 0098 4F49     		ldr	r1, .L41+24
 491              		.loc 1 270 16 view .LVU173
 492 009a D460     		str	r4, [r2, #12]
 493              		.loc 1 272 3 is_stmt 1 view .LVU174
 494              		.loc 1 272 16 is_stmt 0 view .LVU175
 495 009c 5367     		str	r3, [r2, #116]
 496              		.loc 1 273 3 is_stmt 1 view .LVU176
 497              		.loc 1 273 16 is_stmt 0 view .LVU177
 498 009e D062     		str	r0, [r2, #44]
 499              		.loc 1 277 3 is_stmt 1 view .LVU178
 500              	.LVL15:
 501              		.loc 1 282 3 view .LVU179
 502              		.loc 1 285 3 view .LVU180
 503              		.loc 1 287 3 view .LVU181
 504              		.loc 1 287 13 is_stmt 0 view .LVU182
 505 00a0 1161     		str	r1, [r2, #16]
 506              		.loc 1 292 3 is_stmt 1 view .LVU183
 507              		.loc 1 292 11 is_stmt 0 view .LVU184
 508 00a2 1368     		ldr	r3, [r2]
 509              		.loc 1 296 14 view .LVU185
 510 00a4 4648     		ldr	r0, .L41
 511              		.loc 1 292 11 view .LVU186
 512 00a6 43F4A023 		orr	r3, r3, #327680
 513 00aa 1360     		str	r3, [r2]
ARM GAS  C:\Users\DEVELO~1\AppData\Local\Temp\cc6jhEjd.s 			page 10


 514              		.loc 1 296 3 is_stmt 1 view .LVU187
 515              	.L12:
 516              		.loc 1 296 36 discriminator 1 view .LVU188
 517              		.loc 1 296 14 is_stmt 0 discriminator 1 view .LVU189
 518 00ac 0368     		ldr	r3, [r0]
 519              		.loc 1 296 36 discriminator 1 view .LVU190
 520 00ae 9C03     		lsls	r4, r3, #14
 521 00b0 FCD5     		bpl	.L12
 522              		.loc 1 302 3 is_stmt 1 view .LVU191
 523              		.loc 1 302 11 is_stmt 0 view .LVU192
 524 00b2 0368     		ldr	r3, [r0]
 525              		.loc 1 303 14 view .LVU193
 526 00b4 4249     		ldr	r1, .L41
 527              		.loc 1 302 11 view .LVU194
 528 00b6 43F48053 		orr	r3, r3, #4096
 529 00ba 0360     		str	r3, [r0]
 530              		.loc 1 303 3 is_stmt 1 view .LVU195
 531              	.L13:
 532              		.loc 1 303 38 discriminator 1 view .LVU196
 533              		.loc 1 303 14 is_stmt 0 discriminator 1 view .LVU197
 534 00bc 0B68     		ldr	r3, [r1]
 535              		.loc 1 303 38 discriminator 1 view .LVU198
 536 00be 9804     		lsls	r0, r3, #18
 537 00c0 FCD5     		bpl	.L13
 538              		.loc 1 310 3 is_stmt 1 view .LVU199
 539              		.loc 1 310 11 is_stmt 0 view .LVU200
 540 00c2 0B68     		ldr	r3, [r1]
 541              		.loc 1 311 14 view .LVU201
 542 00c4 3E4A     		ldr	r2, .L41
 543              		.loc 1 310 11 view .LVU202
 544 00c6 43F08003 		orr	r3, r3, #128
 545 00ca 0B60     		str	r3, [r1]
 546              		.loc 1 311 3 is_stmt 1 view .LVU203
 547              	.L14:
 548              		.loc 1 311 36 discriminator 1 view .LVU204
 549              		.loc 1 311 14 is_stmt 0 discriminator 1 view .LVU205
 550 00cc 1368     		ldr	r3, [r2]
 551              		.loc 1 311 36 discriminator 1 view .LVU206
 552 00ce D905     		lsls	r1, r3, #23
 553 00d0 FCD5     		bpl	.L14
 554              		.loc 1 317 3 is_stmt 1 view .LVU207
 555              		.loc 1 317 12 is_stmt 0 view .LVU208
 556 00d2 516F     		ldr	r1, [r2, #116]
 557              		.loc 1 318 14 view .LVU209
 558 00d4 3A4B     		ldr	r3, .L41
 559              		.loc 1 317 12 view .LVU210
 560 00d6 41F00101 		orr	r1, r1, #1
 561 00da 5167     		str	r1, [r2, #116]
 562              		.loc 1 318 3 is_stmt 1 view .LVU211
 563              	.L15:
 564              		.loc 1 318 38 discriminator 1 view .LVU212
 565              		.loc 1 318 14 is_stmt 0 discriminator 1 view .LVU213
 566 00dc 5A6F     		ldr	r2, [r3, #116]
 567              		.loc 1 318 38 discriminator 1 view .LVU214
 568 00de 9207     		lsls	r2, r2, #30
 569 00e0 FCD5     		bpl	.L15
 570              	.LBB88:
ARM GAS  C:\Users\DEVELO~1\AppData\Local\Temp\cc6jhEjd.s 			page 11


 571              		.loc 1 328 5 is_stmt 1 view .LVU215
 572              	.LVL16:
 573              		.loc 1 329 5 view .LVU216
 574              		.loc 1 330 5 view .LVU217
 575              		.loc 1 332 5 view .LVU218
 576              		.loc 1 342 20 is_stmt 0 view .LVU219
 577 00e2 0022     		movs	r2, #0
 578              		.loc 1 332 20 view .LVU220
 579 00e4 3D48     		ldr	r0, .L41+28
 580              		.loc 1 343 20 view .LVU221
 581 00e6 3E49     		ldr	r1, .L41+32
 582              		.loc 1 332 20 view .LVU222
 583 00e8 9862     		str	r0, [r3, #40]
 584              		.loc 1 337 5 is_stmt 1 view .LVU223
 585              	.LVL17:
 586              		.loc 1 342 5 view .LVU224
 587              		.loc 1 376 20 is_stmt 0 view .LVU225
 588 00ea 42F2E860 		movw	r0, #9960
 589              		.loc 1 342 20 view .LVU226
 590 00ee 5A63     		str	r2, [r3, #52]
 591              		.loc 1 343 5 is_stmt 1 view .LVU227
 592              		.loc 1 343 20 is_stmt 0 view .LVU228
 593 00f0 1963     		str	r1, [r3, #48]
 594              		.loc 1 345 5 is_stmt 1 view .LVU229
 595              	.LVL18:
 596              		.loc 1 346 5 view .LVU230
 597              		.loc 1 348 5 view .LVU231
 598              		.loc 1 351 5 view .LVU232
 599              		.loc 1 354 5 view .LVU233
 600              		.loc 1 359 5 view .LVU234
 601              		.loc 1 377 20 is_stmt 0 view .LVU235
 602 00f2 A1F57F31 		sub	r1, r1, #261120
 603              		.loc 1 359 20 view .LVU236
 604 00f6 DA63     		str	r2, [r3, #60]
 605              		.loc 1 360 5 is_stmt 1 view .LVU237
 606              		.loc 1 377 20 is_stmt 0 view .LVU238
 607 00f8 2F39     		subs	r1, r1, #47
 608              		.loc 1 393 18 view .LVU239
 609 00fa 3A4A     		ldr	r2, .L41+36
 610              		.loc 1 360 20 view .LVU240
 611 00fc 3A4C     		ldr	r4, .L41+40
 612 00fe 9C63     		str	r4, [r3, #56]
 613              		.loc 1 362 5 is_stmt 1 view .LVU241
 614              	.LVL19:
 615              		.loc 1 363 5 view .LVU242
 616              		.loc 1 365 5 view .LVU243
 617              		.loc 1 368 5 view .LVU244
 618              		.loc 1 371 5 view .LVU245
 619              		.loc 1 376 5 view .LVU246
 620              		.loc 1 376 20 is_stmt 0 view .LVU247
 621 0100 5864     		str	r0, [r3, #68]
 622              		.loc 1 377 5 is_stmt 1 view .LVU248
 623              		.loc 1 377 20 is_stmt 0 view .LVU249
 624 0102 1964     		str	r1, [r3, #64]
 625              		.loc 1 379 5 is_stmt 1 view .LVU250
 626              	.LVL20:
 627              		.loc 1 380 5 view .LVU251
ARM GAS  C:\Users\DEVELO~1\AppData\Local\Temp\cc6jhEjd.s 			page 12


 628              		.loc 1 382 5 view .LVU252
 629              		.loc 1 385 5 view .LVU253
 630              		.loc 1 388 5 view .LVU254
 631              		.loc 1 393 5 view .LVU255
 632              		.loc 1 393 18 is_stmt 0 view .LVU256
 633 0104 DA62     		str	r2, [r3, #44]
 634              		.loc 1 394 5 is_stmt 1 view .LVU257
 635              		.loc 1 394 17 is_stmt 0 view .LVU258
 636 0106 1968     		ldr	r1, [r3]
 637              		.loc 1 395 16 view .LVU259
 638 0108 2D4A     		ldr	r2, .L41
 639              		.loc 1 394 17 view .LVU260
 640 010a 41F0A851 		orr	r1, r1, #352321536
 641 010e 1960     		str	r1, [r3]
 642              		.loc 1 395 5 is_stmt 1 view .LVU261
 643              	.L16:
 644              		.loc 1 395 32 discriminator 1 view .LVU262
 645              		.loc 1 395 16 is_stmt 0 discriminator 1 view .LVU263
 646 0110 1368     		ldr	r3, [r2]
 647              		.loc 1 395 21 discriminator 1 view .LVU264
 648 0112 03F02853 		and	r3, r3, #704643072
 649              		.loc 1 395 32 discriminator 1 view .LVU265
 650 0116 B3F1285F 		cmp	r3, #704643072
 651 011a F9D1     		bne	.L16
 652              	.LBE88:
 653              		.loc 1 406 3 is_stmt 1 view .LVU266
 654              		.loc 1 406 15 is_stmt 0 view .LVU267
 655 011c 4824     		movs	r4, #72
 656              		.loc 1 407 15 view .LVU268
 657 011e 4FF48863 		mov	r3, #1088
 658              		.loc 1 408 15 view .LVU269
 659 0122 4020     		movs	r0, #64
 660              		.loc 1 413 17 view .LVU270
 661 0124 4FF00051 		mov	r1, #536870912
 662              		.loc 1 406 15 view .LVU271
 663 0128 9461     		str	r4, [r2, #24]
 664              		.loc 1 407 3 is_stmt 1 view .LVU272
 665              		.loc 1 415 17 is_stmt 0 view .LVU273
 666 012a 8224     		movs	r4, #130
 667              		.loc 1 407 15 view .LVU274
 668 012c D361     		str	r3, [r2, #28]
 669              		.loc 1 408 3 is_stmt 1 view .LVU275
 670              		.loc 1 418 17 is_stmt 0 view .LVU276
 671 012e 4FF48013 		mov	r3, #1048576
 672              		.loc 1 408 15 view .LVU277
 673 0132 1062     		str	r0, [r2, #32]
 674              		.loc 1 413 3 is_stmt 1 view .LVU278
 675              		.loc 1 421 17 is_stmt 0 view .LVU279
 676 0134 4FF01070 		mov	r0, #37748736
 677              		.loc 1 413 17 view .LVU280
 678 0138 D164     		str	r1, [r2, #76]
 679              		.loc 1 415 3 is_stmt 1 view .LVU281
 680              		.loc 1 415 17 is_stmt 0 view .LVU282
 681 013a 1465     		str	r4, [r2, #80]
 682              		.loc 1 418 3 is_stmt 1 view .LVU283
 683              		.loc 1 452 14 is_stmt 0 view .LVU284
 684 013c 2B49     		ldr	r1, .L41+44
ARM GAS  C:\Users\DEVELO~1\AppData\Local\Temp\cc6jhEjd.s 			page 13


 685              		.loc 1 418 17 view .LVU285
 686 013e 5365     		str	r3, [r2, #84]
 687              		.loc 1 421 3 is_stmt 1 view .LVU286
 688              		.loc 1 452 14 is_stmt 0 view .LVU287
 689 0140 3123     		movs	r3, #49
 690              		.loc 1 421 17 view .LVU288
 691 0142 9065     		str	r0, [r2, #88]
 692              		.loc 1 452 3 is_stmt 1 view .LVU289
 693              		.loc 1 452 14 is_stmt 0 view .LVU290
 694 0144 0B60     		str	r3, [r1]
 695              		.loc 1 454 3 is_stmt 1 view .LVU291
 696              	.L17:
 697              		.loc 1 456 3 discriminator 1 view .LVU292
 698              		.loc 1 454 43 discriminator 1 view .LVU293
 699              		.loc 1 454 16 is_stmt 0 discriminator 1 view .LVU294
 700 0146 0B68     		ldr	r3, [r1]
 701              		.loc 1 454 22 discriminator 1 view .LVU295
 702 0148 03F00F03 		and	r3, r3, #15
 703              		.loc 1 454 43 discriminator 1 view .LVU296
 704 014c 012B     		cmp	r3, #1
 705 014e FAD1     		bne	.L17
 706              		.loc 1 461 3 is_stmt 1 view .LVU297
 707              		.loc 1 461 13 is_stmt 0 view .LVU298
 708 0150 1B4A     		ldr	r2, .L41
 709 0152 1369     		ldr	r3, [r2, #16]
 710 0154 43F00303 		orr	r3, r3, #3
 711 0158 1361     		str	r3, [r2, #16]
 712              		.loc 1 462 3 is_stmt 1 view .LVU299
 713              	.L18:
 714              		.loc 1 462 41 discriminator 1 view .LVU300
 715              		.loc 1 462 14 is_stmt 0 discriminator 1 view .LVU301
 716 015a 1369     		ldr	r3, [r2, #16]
 717              		.loc 1 462 21 discriminator 1 view .LVU302
 718 015c 03F03803 		and	r3, r3, #56
 719              		.loc 1 462 41 discriminator 1 view .LVU303
 720 0160 182B     		cmp	r3, #24
 721 0162 FAD1     		bne	.L18
 722              		.loc 1 477 3 is_stmt 1 view .LVU304
 723              	.LVL21:
 724              	.LBB89:
 725              	.LBI89:
 726              		.loc 2 675 22 view .LVU305
 727              	.LBB90:
 728              		.loc 2 679 3 view .LVU306
 729              		.loc 2 679 19 is_stmt 0 view .LVU307
 730 0164 D2F8DC30 		ldr	r3, [r2, #220]
 731              	.LBE90:
 732              	.LBE89:
 733              		.loc 1 483 1 view .LVU308
 734 0168 5DF8044B 		ldr	r4, [sp], #4
 735              		.cfi_restore 4
 736              		.cfi_def_cfa_offset 0
 737              	.LBB92:
 738              	.LBB91:
 739              		.loc 2 679 19 view .LVU309
 740 016c 43F00053 		orr	r3, r3, #536870912
 741 0170 C2F8DC30 		str	r3, [r2, #220]
ARM GAS  C:\Users\DEVELO~1\AppData\Local\Temp\cc6jhEjd.s 			page 14


 742              		.loc 2 680 3 is_stmt 1 view .LVU310
 743              		.loc 2 681 5 view .LVU311
 744              		.loc 2 681 23 is_stmt 0 view .LVU312
 745 0174 D2F80431 		ldr	r3, [r2, #260]
 746 0178 43F00053 		orr	r3, r3, #536870912
 747 017c C2F80431 		str	r3, [r2, #260]
 748              		.loc 2 686 3 is_stmt 1 view .LVU313
 749 0180 D2F80431 		ldr	r3, [r2, #260]
 750              	.LVL22:
 751              		.loc 2 686 3 is_stmt 0 view .LVU314
 752              	.LBE91:
 753              	.LBE92:
 754              		.loc 1 478 3 is_stmt 1 view .LVU315
 755              	.LBB93:
 756              	.LBI93:
 757              		.loc 2 675 22 view .LVU316
 758              	.LBB94:
 759              		.loc 2 679 3 view .LVU317
 760              		.loc 2 679 19 is_stmt 0 view .LVU318
 761 0184 D2F8DC30 		ldr	r3, [r2, #220]
 762 0188 43F08043 		orr	r3, r3, #1073741824
 763 018c C2F8DC30 		str	r3, [r2, #220]
 764              		.loc 2 680 3 is_stmt 1 view .LVU319
 765              		.loc 2 681 5 view .LVU320
 766              		.loc 2 681 23 is_stmt 0 view .LVU321
 767 0190 D2F80431 		ldr	r3, [r2, #260]
 768 0194 43F08043 		orr	r3, r3, #1073741824
 769 0198 C2F80431 		str	r3, [r2, #260]
 770              		.loc 2 686 3 is_stmt 1 view .LVU322
 771 019c D2F80431 		ldr	r3, [r2, #260]
 772              	.LVL23:
 773              		.loc 2 686 3 is_stmt 0 view .LVU323
 774              	.LBE94:
 775              	.LBE93:
 776              		.loc 1 480 3 is_stmt 1 view .LVU324
 777              	.LBB95:
 778              	.LBI95:
 779              		.loc 2 675 22 view .LVU325
 780              	.LBB96:
 781              		.loc 2 679 3 view .LVU326
 782              		.loc 2 679 19 is_stmt 0 view .LVU327
 783 01a0 D2F8DC30 		ldr	r3, [r2, #220]
 784 01a4 43F00043 		orr	r3, r3, #-2147483648
 785 01a8 C2F8DC30 		str	r3, [r2, #220]
 786              		.loc 2 680 3 is_stmt 1 view .LVU328
 787              		.loc 2 681 5 view .LVU329
 788              		.loc 2 681 23 is_stmt 0 view .LVU330
 789 01ac D2F80431 		ldr	r3, [r2, #260]
 790 01b0 43F00043 		orr	r3, r3, #-2147483648
 791 01b4 C2F80431 		str	r3, [r2, #260]
 792              		.loc 2 686 3 is_stmt 1 view .LVU331
 793 01b8 D2F80431 		ldr	r3, [r2, #260]
 794              	.LVL24:
 795              		.loc 2 686 3 is_stmt 0 view .LVU332
 796              	.LBE96:
 797              	.LBE95:
 798              		.loc 1 483 1 view .LVU333
ARM GAS  C:\Users\DEVELO~1\AppData\Local\Temp\cc6jhEjd.s 			page 15


 799 01bc 7047     		bx	lr
 800              	.L42:
 801 01be 00BF     		.align	2
 802              	.L41:
 803 01c0 00440258 		.word	1476543488
 804 01c4 00480258 		.word	1476544512
 805 01c8 00C000F0 		.word	-268386304
 806 01cc 02000001 		.word	16777218
 807 01d0 00040058 		.word	1476396032
 808 01d4 0000FF01 		.word	33488896
 809 01d8 00881008 		.word	135301120
 810 01dc 22202000 		.word	2105378
 811 01e0 5F020703 		.word	50791007
 812 01e4 9B0BFF01 		.word	33491867
 813 01e8 8F1E0303 		.word	50536079
 814 01ec 00200052 		.word	1375739904
 815              		.cfi_endproc
 816              	.LFE451:
 817              		.size	stm32_clock_init, .-stm32_clock_init
 818              		.global	SystemCoreClock
 819              		.section	.data.SystemCoreClock,"aw"
 820              		.align	2
 821              		.type	SystemCoreClock, %object
 822              		.size	SystemCoreClock, 4
 823              	SystemCoreClock:
 824 0000 00B0710B 		.word	192000000
 825              		.text
 826              	.Letext0:
 827              		.file 3 "c:\\chibistudio\\tools\\gnu tools arm embedded\\11.3 2022.08\\arm-none-eabi\\include\\mac
 828              		.file 4 "c:\\chibistudio\\tools\\gnu tools arm embedded\\11.3 2022.08\\arm-none-eabi\\include\\sys
 829              		.file 5 "../../../os/common/ext/ST/STM32H7xx/stm32h743xx.h"
 830              		.file 6 "../../../os/hal/ports/STM32/STM32H7xx/stm32_isr.h"
 831              		.file 7 "../../../os/hal/ports/STM32/LLD/DMAv2/stm32_dma.h"
 832              		.file 8 "../../../os/hal/ports/STM32/LLD/BDMAv1/stm32_bdma.h"
 833              		.file 9 "../../../os/common/ext/ST/STM32H7xx/system_stm32h7xx.h"