ARM GAS  C:\Users\DEVELO~1\AppData\Local\Temp\ccSISJ8X.s 			page 1


   1              		.cpu cortex-m7
   2              		.arch armv7e-m
   3              		.fpu fpv5-d16
   4              		.eabi_attribute 28, 1
   5              		.eabi_attribute 20, 1
   6              		.eabi_attribute 21, 1
   7              		.eabi_attribute 23, 3
   8              		.eabi_attribute 24, 1
   9              		.eabi_attribute 25, 1
  10              		.eabi_attribute 26, 1
  11              		.eabi_attribute 30, 2
  12              		.eabi_attribute 34, 1
  13              		.eabi_attribute 18, 4
  14              		.file	"hal_pwm_lld.c"
  15              		.text
  16              	.Ltext0:
  17              		.cfi_sections	.debug_frame
  18              		.section	.text.pwm_lld_init,"ax",%progbits
  19              		.align	1
  20              		.p2align 2,,3
  21              		.global	pwm_lld_init
  22              		.syntax unified
  23              		.thumb
  24              		.thumb_func
  25              		.type	pwm_lld_init, %function
  26              	pwm_lld_init:
  27              	.LFB448:
  28              		.file 1 "../../../os/hal/ports/STM32/LLD/TIMv1/hal_pwm_lld.c"
  29              		.loc 1 446 25 view -0
  30              		.cfi_startproc
  31              		@ args = 0, pretend = 0, frame = 0
  32              		@ frame_needed = 0, uses_anonymous_args = 0
  33              		.loc 1 490 3 view .LVU1
  34              		.loc 1 446 25 is_stmt 0 view .LVU2
  35 0000 10B5     		push	{r4, lr}
  36              		.cfi_def_cfa_offset 8
  37              		.cfi_offset 4, -8
  38              		.cfi_offset 14, -4
  39              		.loc 1 490 3 view .LVU3
  40 0002 054C     		ldr	r4, .L4
  41 0004 2046     		mov	r0, r4
  42 0006 FFF7FEFF 		bl	pwmObjectInit
  43              	.LVL0:
  44              		.loc 1 491 3 is_stmt 1 view .LVU4
  45              		.loc 1 491 18 is_stmt 0 view .LVU5
  46 000a 0621     		movs	r1, #6
  47              		.loc 1 492 13 view .LVU6
  48 000c 034A     		ldr	r2, .L4+4
  49              		.loc 1 493 18 view .LVU7
  50 000e 0123     		movs	r3, #1
  51              		.loc 1 491 18 view .LVU8
  52 0010 2174     		strb	r1, [r4, #16]
  53              		.loc 1 492 3 is_stmt 1 view .LVU9
  54              		.loc 1 492 13 is_stmt 0 view .LVU10
  55 0012 E261     		str	r2, [r4, #28]
  56              		.loc 1 493 3 is_stmt 1 view .LVU11
  57              		.loc 1 493 18 is_stmt 0 view .LVU12
ARM GAS  C:\Users\DEVELO~1\AppData\Local\Temp\ccSISJ8X.s 			page 2


  58 0014 2376     		strb	r3, [r4, #24]
  59              		.loc 1 591 1 view .LVU13
  60 0016 10BD     		pop	{r4, pc}
  61              	.L5:
  62              		.align	2
  63              	.L4:
  64 0018 00000000 		.word	.LANCHOR0
  65 001c 00040140 		.word	1073808384
  66              		.cfi_endproc
  67              	.LFE448:
  68              		.size	pwm_lld_init, .-pwm_lld_init
  69              		.section	.text.pwm_lld_start,"ax",%progbits
  70              		.align	1
  71              		.p2align 2,,3
  72              		.global	pwm_lld_start
  73              		.syntax unified
  74              		.thumb
  75              		.thumb_func
  76              		.type	pwm_lld_start, %function
  77              	pwm_lld_start:
  78              	.LVL1:
  79              	.LFB449:
  80              		.loc 1 602 37 is_stmt 1 view -0
  81              		.cfi_startproc
  82              		@ args = 0, pretend = 0, frame = 0
  83              		@ frame_needed = 0, uses_anonymous_args = 0
  84              		@ link register save eliminated.
  85              		.loc 1 603 3 view .LVU15
  86              		.loc 1 604 3 view .LVU16
  87              		.loc 1 606 3 view .LVU17
  88              		.loc 1 602 37 is_stmt 0 view .LVU18
  89 0000 F0B4     		push	{r4, r5, r6, r7}
  90              		.cfi_def_cfa_offset 16
  91              		.cfi_offset 4, -16
  92              		.cfi_offset 5, -12
  93              		.cfi_offset 6, -8
  94              		.cfi_offset 7, -4
  95              		.loc 1 606 6 view .LVU19
  96 0002 0378     		ldrb	r3, [r0]	@ zero_extendqisi2
  97 0004 012B     		cmp	r3, #1
  98 0006 00F09D80 		beq	.L68
  99              		.loc 1 857 5 is_stmt 1 view .LVU20
 100              		.loc 1 857 9 is_stmt 0 view .LVU21
 101 000a C369     		ldr	r3, [r0, #28]
 102              		.loc 1 857 23 view .LVU22
 103 000c 0022     		movs	r2, #0
 104 000e 1A60     		str	r2, [r3]
 105              		.loc 1 858 5 is_stmt 1 view .LVU23
 106              		.loc 1 858 23 is_stmt 0 view .LVU24
 107 0010 5A63     		str	r2, [r3, #52]
 108              		.loc 1 859 5 is_stmt 1 view .LVU25
 109              		.loc 1 859 23 is_stmt 0 view .LVU26
 110 0012 9A63     		str	r2, [r3, #56]
 111              		.loc 1 860 5 is_stmt 1 view .LVU27
 112              		.loc 1 860 23 is_stmt 0 view .LVU28
 113 0014 DA63     		str	r2, [r3, #60]
 114              		.loc 1 861 5 is_stmt 1 view .LVU29
ARM GAS  C:\Users\DEVELO~1\AppData\Local\Temp\ccSISJ8X.s 			page 3


 115              		.loc 1 861 23 is_stmt 0 view .LVU30
 116 0016 1A64     		str	r2, [r3, #64]
 117              		.loc 1 863 5 is_stmt 1 view .LVU31
 118              		.loc 1 863 8 is_stmt 0 view .LVU32
 119 0018 017C     		ldrb	r1, [r0, #16]	@ zero_extendqisi2
 120 001a 0429     		cmp	r1, #4
 121 001c 70D8     		bhi	.L69
 122              	.L10:
 123              		.loc 1 868 5 is_stmt 1 view .LVU33
 124              		.loc 1 868 21 is_stmt 0 view .LVU34
 125 001e 0022     		movs	r2, #0
 126 0020 5A62     		str	r2, [r3, #36]
 127              	.L9:
 128              		.loc 1 872 3 is_stmt 1 view .LVU35
 129              		.loc 1 872 28 is_stmt 0 view .LVU36
 130 0022 4168     		ldr	r1, [r0, #4]
 131              		.loc 1 872 22 view .LVU37
 132 0024 4269     		ldr	r2, [r0, #20]
 133 0026 0C68     		ldr	r4, [r1]
 134              		.loc 1 882 36 view .LVU38
 135 0028 CE68     		ldr	r6, [r1, #12]
 136              		.loc 1 872 22 view .LVU39
 137 002a B2FBF4F2 		udiv	r2, r2, r4
 138              		.loc 1 877 34 view .LVU40
 139 002e 8468     		ldr	r4, [r0, #8]
 140              		.loc 1 872 7 view .LVU41
 141 0030 013A     		subs	r2, r2, #1
 142              	.LVL2:
 143              		.loc 1 873 3 is_stmt 1 view .LVU42
 144              		.loc 1 873 3 view .LVU43
 145              		.loc 1 873 3 view .LVU44
 146              		.loc 1 876 3 view .LVU45
 147              		.loc 1 877 34 is_stmt 0 view .LVU46
 148 0032 013C     		subs	r4, r4, #1
 149              		.loc 1 876 19 view .LVU47
 150 0034 9A62     		str	r2, [r3, #40]
 151              		.loc 1 877 3 is_stmt 1 view .LVU48
 152              		.loc 1 878 33 is_stmt 0 view .LVU49
 153 0036 CA6B     		ldr	r2, [r1, #60]
 154              	.LVL3:
 155              		.loc 1 877 19 view .LVU50
 156 0038 DC62     		str	r4, [r3, #44]
 157              	.LVL4:
 158              		.loc 1 878 3 is_stmt 1 view .LVU51
 159              		.loc 1 878 19 is_stmt 0 view .LVU52
 160 003a 5A60     		str	r2, [r3, #4]
 161              		.loc 1 881 3 is_stmt 1 view .LVU53
 162              	.LVL5:
 163              		.loc 1 882 3 view .LVU54
 164              		.loc 1 882 42 is_stmt 0 view .LVU55
 165 003c 06F00F02 		and	r2, r6, #15
 166              		.loc 1 882 3 view .LVU56
 167 0040 012A     		cmp	r2, #1
 168 0042 03D0     		beq	.L12
 169 0044 022A     		cmp	r2, #2
 170 0046 14BF     		ite	ne
 171 0048 0022     		movne	r2, #0
ARM GAS  C:\Users\DEVELO~1\AppData\Local\Temp\ccSISJ8X.s 			page 4


 172 004a 0322     		moveq	r2, #3
 173              	.L12:
 174              	.LVL6:
 175              		.loc 1 890 5 is_stmt 1 view .LVU57
 176              		.loc 1 892 3 view .LVU58
 177              		.loc 1 892 36 is_stmt 0 view .LVU59
 178 004c 4D69     		ldr	r5, [r1, #20]
 179              		.loc 1 892 42 view .LVU60
 180 004e 05F00F04 		and	r4, r5, #15
 181              		.loc 1 892 3 view .LVU61
 182 0052 012C     		cmp	r4, #1
 183 0054 03D0     		beq	.L13
 184 0056 022C     		cmp	r4, #2
 185 0058 03D1     		bne	.L14
 186              		.loc 1 894 5 is_stmt 1 view .LVU62
 187              		.loc 1 894 10 is_stmt 0 view .LVU63
 188 005a 42F02002 		orr	r2, r2, #32
 189              	.LVL7:
 190              	.L13:
 191              		.loc 1 897 5 is_stmt 1 view .LVU64
 192              		.loc 1 897 10 is_stmt 0 view .LVU65
 193 005e 42F01002 		orr	r2, r2, #16
 194              	.LVL8:
 195              	.L14:
 196              		.loc 1 900 5 is_stmt 1 view .LVU66
 197              		.loc 1 902 3 view .LVU67
 198              		.loc 1 902 36 is_stmt 0 view .LVU68
 199 0062 CC69     		ldr	r4, [r1, #28]
 200              		.loc 1 902 42 view .LVU69
 201 0064 04F00F07 		and	r7, r4, #15
 202              		.loc 1 902 3 view .LVU70
 203 0068 012F     		cmp	r7, #1
 204 006a 03D0     		beq	.L15
 205              		.loc 1 902 3 view .LVU71
 206 006c 022F     		cmp	r7, #2
 207 006e 03D1     		bne	.L16
 208              		.loc 1 904 5 is_stmt 1 view .LVU72
 209              		.loc 1 904 10 is_stmt 0 view .LVU73
 210 0070 42F40072 		orr	r2, r2, #512
 211              	.LVL9:
 212              	.L15:
 213              		.loc 1 907 5 is_stmt 1 view .LVU74
 214              		.loc 1 907 10 is_stmt 0 view .LVU75
 215 0074 42F48072 		orr	r2, r2, #256
 216              	.LVL10:
 217              	.L16:
 218              		.loc 1 910 5 is_stmt 1 view .LVU76
 219              		.loc 1 912 3 view .LVU77
 220              		.loc 1 912 36 is_stmt 0 view .LVU78
 221 0078 4F6A     		ldr	r7, [r1, #36]
 222              		.loc 1 912 42 view .LVU79
 223 007a 07F00F0C 		and	ip, r7, #15
 224              		.loc 1 912 3 view .LVU80
 225 007e BCF1010F 		cmp	ip, #1
 226 0082 04D0     		beq	.L17
 227              		.loc 1 912 3 view .LVU81
 228 0084 BCF1020F 		cmp	ip, #2
ARM GAS  C:\Users\DEVELO~1\AppData\Local\Temp\ccSISJ8X.s 			page 5


 229 0088 03D1     		bne	.L18
 230              		.loc 1 914 5 is_stmt 1 view .LVU82
 231              		.loc 1 914 10 is_stmt 0 view .LVU83
 232 008a 42F40052 		orr	r2, r2, #8192
 233              	.LVL11:
 234              	.L17:
 235              		.loc 1 917 5 is_stmt 1 view .LVU84
 236              		.loc 1 917 10 is_stmt 0 view .LVU85
 237 008e 42F48052 		orr	r2, r2, #4096
 238              	.LVL12:
 239              	.L18:
 240              		.loc 1 920 5 is_stmt 1 view .LVU86
 241              		.loc 1 922 3 view .LVU87
 242              		.loc 1 922 6 is_stmt 0 view .LVU88
 243 0092 007E     		ldrb	r0, [r0, #24]	@ zero_extendqisi2
 244              	.LVL13:
 245              		.loc 1 922 6 view .LVU89
 246 0094 40B3     		cbz	r0, .L19
 247              		.loc 1 923 5 is_stmt 1 view .LVU90
 248              		.loc 1 923 44 is_stmt 0 view .LVU91
 249 0096 06F0F006 		and	r6, r6, #240
 250              		.loc 1 923 5 view .LVU92
 251 009a 102E     		cmp	r6, #16
 252 009c 3ED0     		beq	.L20
 253 009e 202E     		cmp	r6, #32
 254 00a0 3AD0     		beq	.L70
 255              		.loc 1 931 7 is_stmt 1 view .LVU93
 256              		.loc 1 933 5 view .LVU94
 257              		.loc 1 933 44 is_stmt 0 view .LVU95
 258 00a2 05F0F005 		and	r5, r5, #240
 259              		.loc 1 933 5 view .LVU96
 260 00a6 102D     		cmp	r5, #16
 261 00a8 2FD0     		beq	.L22
 262              	.L74:
 263              		.loc 1 933 5 view .LVU97
 264 00aa 202D     		cmp	r5, #32
 265 00ac 2BD0     		beq	.L71
 266              		.loc 1 941 7 is_stmt 1 view .LVU98
 267              		.loc 1 943 5 view .LVU99
 268              		.loc 1 943 44 is_stmt 0 view .LVU100
 269 00ae 04F0F004 		and	r4, r4, #240
 270              		.loc 1 943 5 view .LVU101
 271 00b2 102C     		cmp	r4, #16
 272 00b4 3BD0     		beq	.L24
 273              	.L73:
 274              		.loc 1 943 5 view .LVU102
 275 00b6 202C     		cmp	r4, #32
 276 00b8 37D0     		beq	.L72
 277              		.loc 1 951 7 is_stmt 1 view .LVU103
 278              		.loc 1 953 5 view .LVU104
 279              		.loc 1 953 44 is_stmt 0 view .LVU105
 280 00ba 07F0F007 		and	r7, r7, #240
 281              		.loc 1 953 5 view .LVU106
 282 00be 102F     		cmp	r7, #16
 283 00c0 3BD1     		bne	.L67
 284              	.L26:
 285              		.loc 1 958 7 is_stmt 1 view .LVU107
ARM GAS  C:\Users\DEVELO~1\AppData\Local\Temp\ccSISJ8X.s 			page 6


 286              		.loc 1 968 41 is_stmt 0 view .LVU108
 287 00c2 486C     		ldr	r0, [r1, #68]
 288              		.loc 1 958 12 view .LVU109
 289 00c4 42F48042 		orr	r2, r2, #16384
 290              	.LVL14:
 291              		.loc 1 961 7 is_stmt 1 view .LVU110
 292              		.loc 1 965 3 view .LVU111
 293              		.loc 1 966 20 is_stmt 0 view .LVU112
 294 00c8 0124     		movs	r4, #1
 295              		.loc 1 965 20 view .LVU113
 296 00ca 1A62     		str	r2, [r3, #32]
 297              		.loc 1 966 3 is_stmt 1 view .LVU114
 298              		.loc 1 968 41 is_stmt 0 view .LVU115
 299 00cc 20F0FF00 		bic	r0, r0, #255
 300              		.loc 1 967 20 view .LVU116
 301 00d0 0022     		movs	r2, #0
 302              	.LVL15:
 303              		.loc 1 966 20 view .LVU117
 304 00d2 5C61     		str	r4, [r3, #20]
 305              	.LVL16:
 306              		.loc 1 967 3 is_stmt 1 view .LVU118
 307              		.loc 1 967 20 is_stmt 0 view .LVU119
 308 00d4 1A61     		str	r2, [r3, #16]
 309              		.loc 1 968 3 is_stmt 1 view .LVU120
 310              		.loc 1 968 20 is_stmt 0 view .LVU121
 311 00d6 D860     		str	r0, [r3, #12]
 312              	.LVL17:
 313              		.loc 1 970 3 is_stmt 1 view .LVU122
 314              	.L30:
 315              		.loc 1 971 5 view .LVU123
 316              		.loc 1 971 43 is_stmt 0 view .LVU124
 317 00d8 0A6C     		ldr	r2, [r1, #64]
 318 00da 42F40042 		orr	r2, r2, #32768
 319              		.loc 1 971 22 view .LVU125
 320 00de 5A64     		str	r2, [r3, #68]
 321              		.loc 1 974 3 is_stmt 1 view .LVU126
 322              		.loc 1 974 20 is_stmt 0 view .LVU127
 323 00e0 8522     		movs	r2, #133
 324              		.loc 1 976 1 view .LVU128
 325 00e2 F0BC     		pop	{r4, r5, r6, r7}
 326              		.cfi_remember_state
 327              		.cfi_restore 7
 328              		.cfi_restore 6
 329              		.cfi_restore 5
 330              		.cfi_restore 4
 331              		.cfi_def_cfa_offset 0
 332              		.loc 1 974 20 view .LVU129
 333 00e4 1A60     		str	r2, [r3]
 334              		.loc 1 976 1 view .LVU130
 335 00e6 7047     		bx	lr
 336              	.LVL18:
 337              	.L19:
 338              		.cfi_restore_state
 339              		.loc 1 961 7 is_stmt 1 view .LVU131
 340              		.loc 1 965 3 view .LVU132
 341              		.loc 1 968 41 is_stmt 0 view .LVU133
 342 00e8 496C     		ldr	r1, [r1, #68]
ARM GAS  C:\Users\DEVELO~1\AppData\Local\Temp\ccSISJ8X.s 			page 7


 343              	.LVL19:
 344              		.loc 1 966 20 view .LVU134
 345 00ea 0124     		movs	r4, #1
 346              		.loc 1 965 20 view .LVU135
 347 00ec 1A62     		str	r2, [r3, #32]
 348              		.loc 1 966 3 is_stmt 1 view .LVU136
 349              		.loc 1 974 20 is_stmt 0 view .LVU137
 350 00ee 8522     		movs	r2, #133
 351              	.LVL20:
 352              		.loc 1 968 41 view .LVU138
 353 00f0 21F0FF01 		bic	r1, r1, #255
 354              		.loc 1 966 20 view .LVU139
 355 00f4 5C61     		str	r4, [r3, #20]
 356              	.LVL21:
 357              		.loc 1 967 3 is_stmt 1 view .LVU140
 358              		.loc 1 967 20 is_stmt 0 view .LVU141
 359 00f6 1861     		str	r0, [r3, #16]
 360              		.loc 1 968 3 is_stmt 1 view .LVU142
 361              		.loc 1 968 20 is_stmt 0 view .LVU143
 362 00f8 D960     		str	r1, [r3, #12]
 363              		.loc 1 970 3 is_stmt 1 view .LVU144
 364              		.loc 1 974 3 view .LVU145
 365              		.loc 1 974 20 is_stmt 0 view .LVU146
 366 00fa 1A60     		str	r2, [r3]
 367              		.loc 1 976 1 view .LVU147
 368 00fc F0BC     		pop	{r4, r5, r6, r7}
 369              		.cfi_remember_state
 370              		.cfi_restore 7
 371              		.cfi_restore 6
 372              		.cfi_restore 5
 373              		.cfi_restore 4
 374              		.cfi_def_cfa_offset 0
 375 00fe 7047     		bx	lr
 376              	.LVL22:
 377              	.L69:
 378              		.cfi_restore_state
 379              		.loc 1 864 7 is_stmt 1 view .LVU148
 380              		.loc 1 864 26 is_stmt 0 view .LVU149
 381 0100 9A65     		str	r2, [r3, #88]
 382              		.loc 1 865 7 is_stmt 1 view .LVU150
 383              		.loc 1 865 26 is_stmt 0 view .LVU151
 384 0102 DA65     		str	r2, [r3, #92]
 385 0104 8BE7     		b	.L10
 386              	.LVL23:
 387              	.L71:
 388              		.loc 1 935 7 is_stmt 1 view .LVU152
 389              		.loc 1 935 12 is_stmt 0 view .LVU153
 390 0106 42F08002 		orr	r2, r2, #128
 391              	.LVL24:
 392              	.L22:
 393              		.loc 1 938 7 is_stmt 1 view .LVU154
 394              		.loc 1 943 44 is_stmt 0 view .LVU155
 395 010a 04F0F004 		and	r4, r4, #240
 396              		.loc 1 938 12 view .LVU156
 397 010e 42F04002 		orr	r2, r2, #64
 398              	.LVL25:
 399              		.loc 1 941 7 is_stmt 1 view .LVU157
ARM GAS  C:\Users\DEVELO~1\AppData\Local\Temp\ccSISJ8X.s 			page 8


 400              		.loc 1 943 5 view .LVU158
 401 0112 102C     		cmp	r4, #16
 402 0114 CFD1     		bne	.L73
 403 0116 0AE0     		b	.L24
 404              	.L70:
 405              		.loc 1 925 7 view .LVU159
 406              		.loc 1 925 12 is_stmt 0 view .LVU160
 407 0118 42F00802 		orr	r2, r2, #8
 408              	.LVL26:
 409              	.L20:
 410              		.loc 1 928 7 is_stmt 1 view .LVU161
 411              		.loc 1 933 44 is_stmt 0 view .LVU162
 412 011c 05F0F005 		and	r5, r5, #240
 413              		.loc 1 928 12 view .LVU163
 414 0120 42F00402 		orr	r2, r2, #4
 415              	.LVL27:
 416              		.loc 1 931 7 is_stmt 1 view .LVU164
 417              		.loc 1 933 5 view .LVU165
 418 0124 102D     		cmp	r5, #16
 419 0126 C0D1     		bne	.L74
 420 0128 EFE7     		b	.L22
 421              	.L72:
 422              		.loc 1 945 7 view .LVU166
 423              		.loc 1 945 12 is_stmt 0 view .LVU167
 424 012a 42F40062 		orr	r2, r2, #2048
 425              	.LVL28:
 426              	.L24:
 427              		.loc 1 948 7 is_stmt 1 view .LVU168
 428              		.loc 1 953 44 is_stmt 0 view .LVU169
 429 012e 07F0F007 		and	r7, r7, #240
 430              		.loc 1 948 12 view .LVU170
 431 0132 42F48062 		orr	r2, r2, #1024
 432              	.LVL29:
 433              		.loc 1 951 7 is_stmt 1 view .LVU171
 434              		.loc 1 953 5 view .LVU172
 435 0136 102F     		cmp	r7, #16
 436 0138 C3D0     		beq	.L26
 437              	.L67:
 438              		.loc 1 953 5 is_stmt 0 view .LVU173
 439 013a 202F     		cmp	r7, #32
 440 013c 0DD1     		bne	.L29
 441              		.loc 1 955 7 is_stmt 1 view .LVU174
 442              		.loc 1 955 12 is_stmt 0 view .LVU175
 443 013e 42F40042 		orr	r2, r2, #32768
 444              	.LVL30:
 445              		.loc 1 955 12 view .LVU176
 446 0142 BEE7     		b	.L26
 447              	.LVL31:
 448              	.L68:
 449              		.loc 1 685 5 is_stmt 1 view .LVU177
 450              		.loc 1 685 8 is_stmt 0 view .LVU178
 451 0144 1A4B     		ldr	r3, .L76
 452 0146 9842     		cmp	r0, r3
 453 0148 11D0     		beq	.L75
 454              	.L8:
 455              		.loc 1 846 5 is_stmt 1 view .LVU179
 456              		.loc 1 846 9 is_stmt 0 view .LVU180
ARM GAS  C:\Users\DEVELO~1\AppData\Local\Temp\ccSISJ8X.s 			page 9


 457 014a C369     		ldr	r3, [r0, #28]
 458              		.loc 1 846 22 view .LVU181
 459 014c 46F66802 		movw	r2, #26728
 460              		.loc 1 851 22 view .LVU182
 461 0150 1849     		ldr	r1, .L76+4
 462              		.loc 1 846 22 view .LVU183
 463 0152 9A61     		str	r2, [r3, #24]
 464              		.loc 1 848 5 is_stmt 1 view .LVU184
 465              		.loc 1 848 22 is_stmt 0 view .LVU185
 466 0154 DA61     		str	r2, [r3, #28]
 467              		.loc 1 851 5 is_stmt 1 view .LVU186
 468              		.loc 1 851 22 is_stmt 0 view .LVU187
 469 0156 5965     		str	r1, [r3, #84]
 470 0158 63E7     		b	.L9
 471              	.LVL32:
 472              	.L29:
 473              		.loc 1 961 7 is_stmt 1 view .LVU188
 474              		.loc 1 965 3 view .LVU189
 475              		.loc 1 968 41 is_stmt 0 view .LVU190
 476 015a 486C     		ldr	r0, [r1, #68]
 477              		.loc 1 966 20 view .LVU191
 478 015c 0125     		movs	r5, #1
 479              		.loc 1 967 20 view .LVU192
 480 015e 0024     		movs	r4, #0
 481              		.loc 1 965 20 view .LVU193
 482 0160 1A62     		str	r2, [r3, #32]
 483              	.LVL33:
 484              		.loc 1 966 3 is_stmt 1 view .LVU194
 485              		.loc 1 968 41 is_stmt 0 view .LVU195
 486 0162 20F0FF00 		bic	r0, r0, #255
 487              		.loc 1 966 20 view .LVU196
 488 0166 5D61     		str	r5, [r3, #20]
 489              		.loc 1 967 3 is_stmt 1 view .LVU197
 490              		.loc 1 967 20 is_stmt 0 view .LVU198
 491 0168 1C61     		str	r4, [r3, #16]
 492              		.loc 1 968 3 is_stmt 1 view .LVU199
 493              		.loc 1 968 20 is_stmt 0 view .LVU200
 494 016a D860     		str	r0, [r3, #12]
 495              		.loc 1 970 3 is_stmt 1 view .LVU201
 496 016c B4E7     		b	.L30
 497              	.LVL34:
 498              	.L75:
 499              		.loc 1 686 7 view .LVU202
 500              	.LBB12:
 501              	.LBI12:
 502              		.file 2 "../../../os/hal/ports/STM32/STM32H7xx/stm32_rcc.h"
 503              		.loc 2 319 22 view .LVU203
 504              	.LBB13:
 505              		.loc 2 323 3 view .LVU204
 506              		.loc 2 323 19 is_stmt 0 view .LVU205
 507 016e 124B     		ldr	r3, .L76+8
 508              	.LBE13:
 509              	.LBE12:
 510              		.loc 1 695 19 view .LVU206
 511 0170 1249     		ldr	r1, .L76+12
 512              	.LBB15:
 513              	.LBB14:
ARM GAS  C:\Users\DEVELO~1\AppData\Local\Temp\ccSISJ8X.s 			page 10


 514              		.loc 2 323 19 view .LVU207
 515 0172 D3F8F020 		ldr	r2, [r3, #240]
 516 0176 42F00202 		orr	r2, r2, #2
 517 017a C3F8F020 		str	r2, [r3, #240]
 518              		.loc 2 324 3 is_stmt 1 view .LVU208
 519              		.loc 2 325 5 view .LVU209
 520              		.loc 2 325 23 is_stmt 0 view .LVU210
 521 017e D3F81821 		ldr	r2, [r3, #280]
 522 0182 42F00202 		orr	r2, r2, #2
 523 0186 C3F81821 		str	r2, [r3, #280]
 524              		.loc 2 330 3 is_stmt 1 view .LVU211
 525 018a D3F81821 		ldr	r2, [r3, #280]
 526              	.LVL35:
 527              		.loc 2 330 3 is_stmt 0 view .LVU212
 528              	.LBE14:
 529              	.LBE15:
 530              		.loc 1 687 7 is_stmt 1 view .LVU213
 531              	.LBB16:
 532              	.LBI16:
 533              		.loc 2 385 22 view .LVU214
 534              		.loc 2 397 3 view .LVU215
 535              	.LBB17:
 536              	.LBI17:
 537              		.loc 2 73 22 view .LVU216
 538              	.LBB18:
 539              		.loc 2 76 3 view .LVU217
 540              		.loc 2 76 17 is_stmt 0 view .LVU218
 541 018e D3F89820 		ldr	r2, [r3, #152]
 542 0192 42F00202 		orr	r2, r2, #2
 543 0196 C3F89820 		str	r2, [r3, #152]
 544              		.loc 2 77 3 is_stmt 1 view .LVU219
 545              		.loc 2 77 17 is_stmt 0 view .LVU220
 546 019a D3F89820 		ldr	r2, [r3, #152]
 547 019e 22F00202 		bic	r2, r2, #2
 548 01a2 C3F89820 		str	r2, [r3, #152]
 549              		.loc 2 78 3 is_stmt 1 view .LVU221
 550 01a6 D3F89830 		ldr	r3, [r3, #152]
 551              	.LVL36:
 552              		.loc 2 78 3 is_stmt 0 view .LVU222
 553              	.LBE18:
 554              	.LBE17:
 555              	.LBE16:
 556              		.loc 1 695 7 is_stmt 1 view .LVU223
 557              		.loc 1 695 19 is_stmt 0 view .LVU224
 558 01aa 4161     		str	r1, [r0, #20]
 559 01ac CDE7     		b	.L8
 560              	.L77:
 561 01ae 00BF     		.align	2
 562              	.L76:
 563 01b0 00000000 		.word	.LANCHOR0
 564 01b4 68680101 		.word	16869480
 565 01b8 00440258 		.word	1476543488
 566 01bc 00D8B805 		.word	96000000
 567              		.cfi_endproc
 568              	.LFE449:
 569              		.size	pwm_lld_start, .-pwm_lld_start
 570              		.section	.text.pwm_lld_stop,"ax",%progbits
ARM GAS  C:\Users\DEVELO~1\AppData\Local\Temp\ccSISJ8X.s 			page 11


 571              		.align	1
 572              		.p2align 2,,3
 573              		.global	pwm_lld_stop
 574              		.syntax unified
 575              		.thumb
 576              		.thumb_func
 577              		.type	pwm_lld_stop, %function
 578              	pwm_lld_stop:
 579              	.LVL37:
 580              	.LFB450:
 581              		.loc 1 985 36 is_stmt 1 view -0
 582              		.cfi_startproc
 583              		@ args = 0, pretend = 0, frame = 0
 584              		@ frame_needed = 0, uses_anonymous_args = 0
 585              		@ link register save eliminated.
 586              		.loc 1 988 3 view .LVU226
 587              		.loc 1 988 6 is_stmt 0 view .LVU227
 588 0000 0378     		ldrb	r3, [r0]	@ zero_extendqisi2
 589 0002 022B     		cmp	r3, #2
 590 0004 00D0     		beq	.L86
 591              	.L78:
 592              		.loc 1 1124 1 view .LVU228
 593 0006 7047     		bx	lr
 594              	.L86:
 595              		.loc 1 989 5 is_stmt 1 view .LVU229
 596              		.loc 1 989 9 is_stmt 0 view .LVU230
 597 0008 C369     		ldr	r3, [r0, #28]
 598              		.loc 1 989 21 view .LVU231
 599 000a 0022     		movs	r2, #0
 600              		.loc 1 992 8 view .LVU232
 601 000c 017E     		ldrb	r1, [r0, #24]	@ zero_extendqisi2
 602              		.loc 1 989 21 view .LVU233
 603 000e 1A60     		str	r2, [r3]
 604              		.loc 1 990 5 is_stmt 1 view .LVU234
 605              		.loc 1 990 21 is_stmt 0 view .LVU235
 606 0010 DA60     		str	r2, [r3, #12]
 607              		.loc 1 991 5 is_stmt 1 view .LVU236
 608              		.loc 1 991 21 is_stmt 0 view .LVU237
 609 0012 1A61     		str	r2, [r3, #16]
 610              		.loc 1 992 5 is_stmt 1 view .LVU238
 611              		.loc 1 992 8 is_stmt 0 view .LVU239
 612 0014 01B1     		cbz	r1, .L81
 613              		.loc 1 993 7 is_stmt 1 view .LVU240
 614              		.loc 1 993 24 is_stmt 0 view .LVU241
 615 0016 5A64     		str	r2, [r3, #68]
 616              	.L81:
 617              		.loc 1 1043 5 is_stmt 1 view .LVU242
 618              		.loc 1 1043 8 is_stmt 0 view .LVU243
 619 0018 094B     		ldr	r3, .L87
 620 001a 9842     		cmp	r0, r3
 621 001c F3D1     		bne	.L78
 622              		.loc 1 1048 7 is_stmt 1 view .LVU244
 623              	.LVL38:
 624              	.LBB19:
 625              	.LBI19:
 626              		.loc 2 351 22 view .LVU245
 627              	.LBB20:
ARM GAS  C:\Users\DEVELO~1\AppData\Local\Temp\ccSISJ8X.s 			page 12


 628              		.loc 2 361 3 view .LVU246
 629              		.loc 2 361 19 is_stmt 0 view .LVU247
 630 001e 094B     		ldr	r3, .L87+4
 631 0020 D3F8F020 		ldr	r2, [r3, #240]
 632 0024 22F00202 		bic	r2, r2, #2
 633 0028 C3F8F020 		str	r2, [r3, #240]
 634              		.loc 2 362 3 is_stmt 1 view .LVU248
 635              		.loc 2 362 21 is_stmt 0 view .LVU249
 636 002c D3F81821 		ldr	r2, [r3, #280]
 637 0030 22F00202 		bic	r2, r2, #2
 638 0034 C3F81821 		str	r2, [r3, #280]
 639              		.loc 2 363 3 is_stmt 1 view .LVU250
 640 0038 D3F81831 		ldr	r3, [r3, #280]
 641              	.LVL39:
 642              		.loc 2 363 3 is_stmt 0 view .LVU251
 643              	.LBE20:
 644              	.LBE19:
 645              		.loc 1 1124 1 view .LVU252
 646 003c 7047     		bx	lr
 647              	.L88:
 648 003e 00BF     		.align	2
 649              	.L87:
 650 0040 00000000 		.word	.LANCHOR0
 651 0044 00440258 		.word	1476543488
 652              		.cfi_endproc
 653              	.LFE450:
 654              		.size	pwm_lld_stop, .-pwm_lld_stop
 655              		.section	.text.pwm_lld_enable_channel,"ax",%progbits
 656              		.align	1
 657              		.p2align 2,,3
 658              		.global	pwm_lld_enable_channel
 659              		.syntax unified
 660              		.thumb
 661              		.thumb_func
 662              		.type	pwm_lld_enable_channel, %function
 663              	pwm_lld_enable_channel:
 664              	.LVL40:
 665              	.LFB451:
 666              		.loc 1 1141 45 is_stmt 1 view -0
 667              		.cfi_startproc
 668              		@ args = 0, pretend = 0, frame = 0
 669              		@ frame_needed = 0, uses_anonymous_args = 0
 670              		@ link register save eliminated.
 671              		.loc 1 1147 3 view .LVU254
 672              		.loc 1 1147 6 is_stmt 0 view .LVU255
 673 0000 0329     		cmp	r1, #3
 674              		.loc 1 1148 9 view .LVU256
 675 0002 C369     		ldr	r3, [r0, #28]
 676              		.loc 1 1147 6 view .LVU257
 677 0004 04D8     		bhi	.L90
 678              		.loc 1 1148 5 is_stmt 1 view .LVU258
 679              		.loc 1 1148 29 is_stmt 0 view .LVU259
 680 0006 0C31     		adds	r1, r1, #12
 681              	.LVL41:
 682              		.loc 1 1148 29 view .LVU260
 683 0008 03EB8103 		add	r3, r3, r1, lsl #2
 684 000c 5A60     		str	r2, [r3, #4]
ARM GAS  C:\Users\DEVELO~1\AppData\Local\Temp\ccSISJ8X.s 			page 13


 685 000e 7047     		bx	lr
 686              	.LVL42:
 687              	.L90:
 688              		.loc 1 1150 5 is_stmt 1 view .LVU261
 689              		.loc 1 1150 34 is_stmt 0 view .LVU262
 690 0010 1231     		adds	r1, r1, #18
 691              	.LVL43:
 692              		.loc 1 1150 34 view .LVU263
 693 0012 43F82120 		str	r2, [r3, r1, lsl #2]
 694              		.loc 1 1152 1 view .LVU264
 695 0016 7047     		bx	lr
 696              		.cfi_endproc
 697              	.LFE451:
 698              		.size	pwm_lld_enable_channel, .-pwm_lld_enable_channel
 699              		.section	.text.pwm_lld_disable_channel,"ax",%progbits
 700              		.align	1
 701              		.p2align 2,,3
 702              		.global	pwm_lld_disable_channel
 703              		.syntax unified
 704              		.thumb
 705              		.thumb_func
 706              		.type	pwm_lld_disable_channel, %function
 707              	pwm_lld_disable_channel:
 708              	.LVL44:
 709              	.LFB452:
 710              		.loc 1 1166 69 is_stmt 1 view -0
 711              		.cfi_startproc
 712              		@ args = 0, pretend = 0, frame = 0
 713              		@ frame_needed = 0, uses_anonymous_args = 0
 714              		@ link register save eliminated.
 715              		.loc 1 1172 3 view .LVU266
 716              		.loc 1 1172 6 is_stmt 0 view .LVU267
 717 0000 0329     		cmp	r1, #3
 718 0002 11D8     		bhi	.L93
 719              		.loc 1 1173 5 is_stmt 1 view .LVU268
 720              		.loc 1 1173 9 is_stmt 0 view .LVU269
 721 0004 C369     		ldr	r3, [r0, #28]
 722              		.loc 1 1173 29 view .LVU270
 723 0006 01F10C00 		add	r0, r1, #12
 724              	.LVL45:
 725              		.loc 1 1174 28 view .LVU271
 726 000a 0222     		movs	r2, #2
 727              		.loc 1 1173 29 view .LVU272
 728 000c 03EB8000 		add	r0, r3, r0, lsl #2
 729              		.loc 1 1174 28 view .LVU273
 730 0010 02FA01F1 		lsl	r1, r2, r1
 731              	.LVL46:
 732              		.loc 1 1166 69 view .LVU274
 733 0014 10B4     		push	{r4}
 734              		.cfi_def_cfa_offset 4
 735              		.cfi_offset 4, -4
 736              		.loc 1 1173 29 view .LVU275
 737 0016 0024     		movs	r4, #0
 738 0018 4460     		str	r4, [r0, #4]
 739              		.loc 1 1174 5 is_stmt 1 view .LVU276
 740              		.loc 1 1174 21 is_stmt 0 view .LVU277
 741 001a DA68     		ldr	r2, [r3, #12]
ARM GAS  C:\Users\DEVELO~1\AppData\Local\Temp\ccSISJ8X.s 			page 14


 742              		.loc 1 1179 1 view .LVU278
 743 001c 5DF8044B 		ldr	r4, [sp], #4
 744              		.cfi_restore 4
 745              		.cfi_def_cfa_offset 0
 746              		.loc 1 1174 21 view .LVU279
 747 0020 22EA0102 		bic	r2, r2, r1
 748 0024 DA60     		str	r2, [r3, #12]
 749              		.loc 1 1179 1 view .LVU280
 750 0026 7047     		bx	lr
 751              	.LVL47:
 752              	.L93:
 753              		.loc 1 1177 5 is_stmt 1 view .LVU281
 754              		.loc 1 1177 9 is_stmt 0 view .LVU282
 755 0028 C369     		ldr	r3, [r0, #28]
 756              		.loc 1 1177 34 view .LVU283
 757 002a 1231     		adds	r1, r1, #18
 758              	.LVL48:
 759              		.loc 1 1177 34 view .LVU284
 760 002c 0022     		movs	r2, #0
 761 002e 43F82120 		str	r2, [r3, r1, lsl #2]
 762 0032 7047     		bx	lr
 763              		.cfi_endproc
 764              	.LFE452:
 765              		.size	pwm_lld_disable_channel, .-pwm_lld_disable_channel
 766              		.section	.text.pwm_lld_enable_periodic_notification,"ax",%progbits
 767              		.align	1
 768              		.p2align 2,,3
 769              		.global	pwm_lld_enable_periodic_notification
 770              		.syntax unified
 771              		.thumb
 772              		.thumb_func
 773              		.type	pwm_lld_enable_periodic_notification, %function
 774              	pwm_lld_enable_periodic_notification:
 775              	.LVL49:
 776              	.LFB453:
 777              		.loc 1 1190 60 is_stmt 1 view -0
 778              		.cfi_startproc
 779              		@ args = 0, pretend = 0, frame = 0
 780              		@ frame_needed = 0, uses_anonymous_args = 0
 781              		@ link register save eliminated.
 782              		.loc 1 1191 3 view .LVU286
 783              		.loc 1 1191 23 is_stmt 0 view .LVU287
 784 0000 C269     		ldr	r2, [r0, #28]
 785              		.loc 1 1191 12 view .LVU288
 786 0002 D368     		ldr	r3, [r2, #12]
 787              	.LVL50:
 788              		.loc 1 1195 3 is_stmt 1 view .LVU289
 789              		.loc 1 1195 6 is_stmt 0 view .LVU290
 790 0004 D907     		lsls	r1, r3, #31
 791 0006 05D4     		bmi	.L99
 792              		.loc 1 1196 5 is_stmt 1 view .LVU291
 793              		.loc 1 1196 21 is_stmt 0 view .LVU292
 794 0008 6FF00101 		mvn	r1, #1
 795              		.loc 1 1197 28 view .LVU293
 796 000c 43F00103 		orr	r3, r3, #1
 797              	.LVL51:
 798              		.loc 1 1196 21 view .LVU294
ARM GAS  C:\Users\DEVELO~1\AppData\Local\Temp\ccSISJ8X.s 			page 15


 799 0010 1161     		str	r1, [r2, #16]
 800              		.loc 1 1197 5 is_stmt 1 view .LVU295
 801              		.loc 1 1197 21 is_stmt 0 view .LVU296
 802 0012 D360     		str	r3, [r2, #12]
 803              	.L99:
 804              		.loc 1 1199 1 view .LVU297
 805 0014 7047     		bx	lr
 806              		.cfi_endproc
 807              	.LFE453:
 808              		.size	pwm_lld_enable_periodic_notification, .-pwm_lld_enable_periodic_notification
 809 0016 00BF     		.section	.text.pwm_lld_disable_periodic_notification,"ax",%progbits
 810              		.align	1
 811              		.p2align 2,,3
 812              		.global	pwm_lld_disable_periodic_notification
 813              		.syntax unified
 814              		.thumb
 815              		.thumb_func
 816              		.type	pwm_lld_disable_periodic_notification, %function
 817              	pwm_lld_disable_periodic_notification:
 818              	.LVL52:
 819              	.LFB454:
 820              		.loc 1 1210 61 is_stmt 1 view -0
 821              		.cfi_startproc
 822              		@ args = 0, pretend = 0, frame = 0
 823              		@ frame_needed = 0, uses_anonymous_args = 0
 824              		@ link register save eliminated.
 825              		.loc 1 1212 3 view .LVU299
 826              		.loc 1 1212 7 is_stmt 0 view .LVU300
 827 0000 C269     		ldr	r2, [r0, #28]
 828              		.loc 1 1212 19 view .LVU301
 829 0002 D368     		ldr	r3, [r2, #12]
 830 0004 23F00103 		bic	r3, r3, #1
 831 0008 D360     		str	r3, [r2, #12]
 832              		.loc 1 1213 1 view .LVU302
 833 000a 7047     		bx	lr
 834              		.cfi_endproc
 835              	.LFE454:
 836              		.size	pwm_lld_disable_periodic_notification, .-pwm_lld_disable_periodic_notification
 837              		.section	.text.pwm_lld_enable_channel_notification,"ax",%progbits
 838              		.align	1
 839              		.p2align 2,,3
 840              		.global	pwm_lld_enable_channel_notification
 841              		.syntax unified
 842              		.thumb
 843              		.thumb_func
 844              		.type	pwm_lld_enable_channel_notification, %function
 845              	pwm_lld_enable_channel_notification:
 846              	.LVL53:
 847              	.LFB455:
 848              		.loc 1 1227 64 is_stmt 1 view -0
 849              		.cfi_startproc
 850              		@ args = 0, pretend = 0, frame = 0
 851              		@ frame_needed = 0, uses_anonymous_args = 0
 852              		@ link register save eliminated.
 853              		.loc 1 1228 3 view .LVU304
 854              		.loc 1 1237 18 is_stmt 0 view .LVU305
 855 0000 0223     		movs	r3, #2
ARM GAS  C:\Users\DEVELO~1\AppData\Local\Temp\ccSISJ8X.s 			page 16


 856              		.loc 1 1228 23 view .LVU306
 857 0002 C269     		ldr	r2, [r0, #28]
 858              		.loc 1 1237 18 view .LVU307
 859 0004 03FA01F1 		lsl	r1, r3, r1
 860              	.LVL54:
 861              		.loc 1 1228 12 view .LVU308
 862 0008 D368     		ldr	r3, [r2, #12]
 863              	.LVL55:
 864              		.loc 1 1232 3 is_stmt 1 view .LVU309
 865              		.loc 1 1232 3 view .LVU310
 866              		.loc 1 1232 3 view .LVU311
 867              		.loc 1 1237 3 view .LVU312
 868              		.loc 1 1237 6 is_stmt 0 view .LVU313
 869 000a 1942     		tst	r1, r3
 870 000c 03D1     		bne	.L102
 871              		.loc 1 1238 5 is_stmt 1 view .LVU314
 872              		.loc 1 1238 23 is_stmt 0 view .LVU315
 873 000e C843     		mvns	r0, r1
 874              	.LVL56:
 875              		.loc 1 1239 28 view .LVU316
 876 0010 1943     		orrs	r1, r1, r3
 877              		.loc 1 1238 21 view .LVU317
 878 0012 1061     		str	r0, [r2, #16]
 879              		.loc 1 1239 5 is_stmt 1 view .LVU318
 880              		.loc 1 1239 21 is_stmt 0 view .LVU319
 881 0014 D160     		str	r1, [r2, #12]
 882              	.L102:
 883              		.loc 1 1241 1 view .LVU320
 884 0016 7047     		bx	lr
 885              		.cfi_endproc
 886              	.LFE455:
 887              		.size	pwm_lld_enable_channel_notification, .-pwm_lld_enable_channel_notification
 888              		.section	.text.pwm_lld_disable_channel_notification,"ax",%progbits
 889              		.align	1
 890              		.p2align 2,,3
 891              		.global	pwm_lld_disable_channel_notification
 892              		.syntax unified
 893              		.thumb
 894              		.thumb_func
 895              		.type	pwm_lld_disable_channel_notification, %function
 896              	pwm_lld_disable_channel_notification:
 897              	.LVL57:
 898              	.LFB456:
 899              		.loc 1 1255 65 is_stmt 1 view -0
 900              		.cfi_startproc
 901              		@ args = 0, pretend = 0, frame = 0
 902              		@ frame_needed = 0, uses_anonymous_args = 0
 903              		@ link register save eliminated.
 904              		.loc 1 1257 3 view .LVU322
 905              		.loc 1 1257 26 is_stmt 0 view .LVU323
 906 0000 0223     		movs	r3, #2
 907              		.loc 1 1257 7 view .LVU324
 908 0002 C269     		ldr	r2, [r0, #28]
 909              		.loc 1 1257 26 view .LVU325
 910 0004 03FA01F1 		lsl	r1, r3, r1
 911              	.LVL58:
 912              		.loc 1 1257 19 view .LVU326
ARM GAS  C:\Users\DEVELO~1\AppData\Local\Temp\ccSISJ8X.s 			page 17


 913 0008 D368     		ldr	r3, [r2, #12]
 914 000a 23EA0101 		bic	r1, r3, r1
 915 000e D160     		str	r1, [r2, #12]
 916              		.loc 1 1258 1 view .LVU327
 917 0010 7047     		bx	lr
 918              		.cfi_endproc
 919              	.LFE456:
 920              		.size	pwm_lld_disable_channel_notification, .-pwm_lld_disable_channel_notification
 921 0012 00BF     		.section	.text.pwm_lld_serve_interrupt,"ax",%progbits
 922              		.align	1
 923              		.p2align 2,,3
 924              		.global	pwm_lld_serve_interrupt
 925              		.syntax unified
 926              		.thumb
 927              		.thumb_func
 928              		.type	pwm_lld_serve_interrupt, %function
 929              	pwm_lld_serve_interrupt:
 930              	.LVL59:
 931              	.LFB457:
 932              		.loc 1 1270 47 is_stmt 1 view -0
 933              		.cfi_startproc
 934              		@ args = 0, pretend = 0, frame = 0
 935              		@ frame_needed = 0, uses_anonymous_args = 0
 936              		.loc 1 1271 3 view .LVU329
 937              		.loc 1 1273 3 view .LVU330
 938              		.loc 1 1273 13 is_stmt 0 view .LVU331
 939 0000 C369     		ldr	r3, [r0, #28]
 940              		.loc 1 1270 47 view .LVU332
 941 0002 70B5     		push	{r4, r5, r6, lr}
 942              		.cfi_def_cfa_offset 16
 943              		.cfi_offset 4, -16
 944              		.cfi_offset 5, -12
 945              		.cfi_offset 6, -8
 946              		.cfi_offset 14, -4
 947              		.loc 1 1273 7 view .LVU333
 948 0004 1A69     		ldr	r2, [r3, #16]
 949              	.LVL60:
 950              		.loc 1 1274 3 is_stmt 1 view .LVU334
 951              		.loc 1 1270 47 is_stmt 0 view .LVU335
 952 0006 0546     		mov	r5, r0
 953              		.loc 1 1274 18 view .LVU336
 954 0008 DC68     		ldr	r4, [r3, #12]
 955 000a 1440     		ands	r4, r4, r2
 956              	.LVL61:
 957              		.loc 1 1275 3 is_stmt 1 view .LVU337
 958              		.loc 1 1274 6 is_stmt 0 view .LVU338
 959 000c E2B2     		uxtb	r2, r4
 960              		.loc 1 1276 6 view .LVU339
 961 000e A607     		lsls	r6, r4, #30
 962              		.loc 1 1275 19 view .LVU340
 963 0010 6FEA0202 		mvn	r2, r2
 964              		.loc 1 1275 17 view .LVU341
 965 0014 1A61     		str	r2, [r3, #16]
 966              		.loc 1 1276 3 is_stmt 1 view .LVU342
 967              		.loc 1 1276 6 is_stmt 0 view .LVU343
 968 0016 03D5     		bpl	.L106
 969              		.loc 1 1277 33 discriminator 1 view .LVU344
ARM GAS  C:\Users\DEVELO~1\AppData\Local\Temp\ccSISJ8X.s 			page 18


 970 0018 4368     		ldr	r3, [r0, #4]
 971 001a 1B69     		ldr	r3, [r3, #16]
 972              		.loc 1 1276 40 discriminator 1 view .LVU345
 973 001c 03B1     		cbz	r3, .L106
 974              		.loc 1 1278 5 is_stmt 1 view .LVU346
 975 001e 9847     		blx	r3
 976              	.LVL62:
 977              	.L106:
 978              		.loc 1 1279 3 view .LVU347
 979              		.loc 1 1279 6 is_stmt 0 view .LVU348
 980 0020 6007     		lsls	r0, r4, #29
 981 0022 04D5     		bpl	.L107
 982              		.loc 1 1280 33 discriminator 1 view .LVU349
 983 0024 6B68     		ldr	r3, [r5, #4]
 984 0026 9B69     		ldr	r3, [r3, #24]
 985              		.loc 1 1279 40 discriminator 1 view .LVU350
 986 0028 0BB1     		cbz	r3, .L107
 987              		.loc 1 1281 5 is_stmt 1 view .LVU351
 988 002a 2846     		mov	r0, r5
 989 002c 9847     		blx	r3
 990              	.LVL63:
 991              	.L107:
 992              		.loc 1 1282 3 view .LVU352
 993              		.loc 1 1282 6 is_stmt 0 view .LVU353
 994 002e 2107     		lsls	r1, r4, #28
 995 0030 04D5     		bpl	.L108
 996              		.loc 1 1283 33 discriminator 1 view .LVU354
 997 0032 6B68     		ldr	r3, [r5, #4]
 998 0034 1B6A     		ldr	r3, [r3, #32]
 999              		.loc 1 1282 40 discriminator 1 view .LVU355
 1000 0036 0BB1     		cbz	r3, .L108
 1001              		.loc 1 1284 5 is_stmt 1 view .LVU356
 1002 0038 2846     		mov	r0, r5
 1003 003a 9847     		blx	r3
 1004              	.LVL64:
 1005              	.L108:
 1006              		.loc 1 1285 3 view .LVU357
 1007              		.loc 1 1285 6 is_stmt 0 view .LVU358
 1008 003c E206     		lsls	r2, r4, #27
 1009 003e 04D5     		bpl	.L109
 1010              		.loc 1 1286 33 discriminator 1 view .LVU359
 1011 0040 6B68     		ldr	r3, [r5, #4]
 1012 0042 9B6A     		ldr	r3, [r3, #40]
 1013              		.loc 1 1285 40 discriminator 1 view .LVU360
 1014 0044 0BB1     		cbz	r3, .L109
 1015              		.loc 1 1287 5 is_stmt 1 view .LVU361
 1016 0046 2846     		mov	r0, r5
 1017 0048 9847     		blx	r3
 1018              	.LVL65:
 1019              	.L109:
 1020              		.loc 1 1288 3 view .LVU362
 1021              		.loc 1 1288 6 is_stmt 0 view .LVU363
 1022 004a E307     		lsls	r3, r4, #31
 1023 004c 06D5     		bpl	.L105
 1024              		.loc 1 1288 54 discriminator 1 view .LVU364
 1025 004e 6B68     		ldr	r3, [r5, #4]
 1026 0050 9B68     		ldr	r3, [r3, #8]
ARM GAS  C:\Users\DEVELO~1\AppData\Local\Temp\ccSISJ8X.s 			page 19


 1027              		.loc 1 1288 38 discriminator 1 view .LVU365
 1028 0052 1BB1     		cbz	r3, .L105
 1029              		.loc 1 1289 5 is_stmt 1 view .LVU366
 1030 0054 2846     		mov	r0, r5
 1031              		.loc 1 1290 1 is_stmt 0 view .LVU367
 1032 0056 BDE87040 		pop	{r4, r5, r6, lr}
 1033              		.cfi_remember_state
 1034              		.cfi_restore 14
 1035              		.cfi_restore 6
 1036              		.cfi_restore 5
 1037              		.cfi_restore 4
 1038              		.cfi_def_cfa_offset 0
 1039              	.LVL66:
 1040              		.loc 1 1289 5 view .LVU368
 1041 005a 1847     		bx	r3	@ indirect register sibling call
 1042              	.LVL67:
 1043              	.L105:
 1044              		.cfi_restore_state
 1045              		.loc 1 1290 1 view .LVU369
 1046 005c 70BD     		pop	{r4, r5, r6, pc}
 1047              		.loc 1 1290 1 view .LVU370
 1048              		.cfi_endproc
 1049              	.LFE457:
 1050              		.size	pwm_lld_serve_interrupt, .-pwm_lld_serve_interrupt
 1051              		.global	PWMD8
 1052 005e 00BF     		.section	.bss.PWMD8,"aw",%nobits
 1053              		.align	2
 1054              		.set	.LANCHOR0,. + 0
 1055              		.type	PWMD8, %object
 1056              		.size	PWMD8, 32
 1057              	PWMD8:
 1058 0000 00000000 		.space	32
 1058      00000000 
 1058      00000000 
 1058      00000000 
 1058      00000000 
 1059              		.text
 1060              	.Letext0:
 1061              		.file 3 "c:\\chibistudio\\tools\\gnu tools arm embedded\\11.3 2022.08\\arm-none-eabi\\include\\mac
 1062              		.file 4 "c:\\chibistudio\\tools\\gnu tools arm embedded\\11.3 2022.08\\arm-none-eabi\\include\\sys
 1063              		.file 5 "../../../os/common/ext/ST/STM32H7xx/stm32h743xx.h"
 1064              		.file 6 "../../../os/hal/ports/STM32/LLD/TIMv1/stm32_tim.h"
 1065              		.file 7 "../../../os/hal/include/hal_pwm.h"
 1066              		.file 8 "../../../os/hal/ports/STM32/LLD/TIMv1/hal_pwm_lld.h"
 1067              		.section	.debug_info,"",%progbits
 1068              	.Ldebug_info0:
 1069 0000 A90B0000 		.4byte	0xba9
 1070 0004 0500     		.2byte	0x5
 1071 0006 01       		.byte	0x1
 1072 0007 04       		.byte	0x4
 1073 0008 00000000 		.4byte	.Ldebug_abbrev0
 1074 000c 1B       		.uleb128 0x1b
 1075 000d E5020000 		.4byte	.LASF132
 1076 0011 1D       		.byte	0x1d
 1077 0012 C5010000 		.4byte	.LASF133
 1078 0016 16000000 		.4byte	.LASF134
 1079 001a 18000000 		.4byte	.LLRL19
ARM GAS  C:\Users\DEVELO~1\AppData\Local\Temp\ccSISJ8X.s 			page 20


 1080 001e 00000000 		.4byte	0
 1081 0022 00000000 		.4byte	.Ldebug_line0
 1082 0026 03       		.uleb128 0x3
 1083 0027 04       		.byte	0x4
 1084 0028 07       		.byte	0x7
 1085 0029 59020000 		.4byte	.LASF0
 1086 002d 1C       		.uleb128 0x1c
 1087 002e 04       		.byte	0x4
 1088 002f 05       		.byte	0x5
 1089 0030 696E7400 		.ascii	"int\000"
 1090 0034 03       		.uleb128 0x3
 1091 0035 08       		.byte	0x8
 1092 0036 05       		.byte	0x5
 1093 0037 10010000 		.4byte	.LASF1
 1094 003b 03       		.uleb128 0x3
 1095 003c 08       		.byte	0x8
 1096 003d 04       		.byte	0x4
 1097 003e 4F050000 		.4byte	.LASF2
 1098 0042 03       		.uleb128 0x3
 1099 0043 01       		.byte	0x1
 1100 0044 06       		.byte	0x6
 1101 0045 1E010000 		.4byte	.LASF3
 1102 0049 08       		.uleb128 0x8
 1103 004a 63000000 		.4byte	.LASF8
 1104 004e 03       		.byte	0x3
 1105 004f 2B       		.byte	0x2b
 1106 0050 18       		.byte	0x18
 1107 0051 55000000 		.4byte	0x55
 1108 0055 03       		.uleb128 0x3
 1109 0056 01       		.byte	0x1
 1110 0057 08       		.byte	0x8
 1111 0058 A0040000 		.4byte	.LASF4
 1112 005c 03       		.uleb128 0x3
 1113 005d 02       		.byte	0x2
 1114 005e 05       		.byte	0x5
 1115 005f B6040000 		.4byte	.LASF5
 1116 0063 03       		.uleb128 0x3
 1117 0064 02       		.byte	0x2
 1118 0065 07       		.byte	0x7
 1119 0066 8A020000 		.4byte	.LASF6
 1120 006a 03       		.uleb128 0x3
 1121 006b 04       		.byte	0x4
 1122 006c 05       		.byte	0x5
 1123 006d 84000000 		.4byte	.LASF7
 1124 0071 08       		.uleb128 0x8
 1125 0072 16020000 		.4byte	.LASF9
 1126 0076 03       		.byte	0x3
 1127 0077 4F       		.byte	0x4f
 1128 0078 19       		.byte	0x19
 1129 0079 7D000000 		.4byte	0x7d
 1130 007d 03       		.uleb128 0x3
 1131 007e 04       		.byte	0x4
 1132 007f 07       		.byte	0x7
 1133 0080 66020000 		.4byte	.LASF10
 1134 0084 03       		.uleb128 0x3
 1135 0085 08       		.byte	0x8
 1136 0086 07       		.byte	0x7
ARM GAS  C:\Users\DEVELO~1\AppData\Local\Temp\ccSISJ8X.s 			page 21


 1137 0087 94000000 		.4byte	.LASF11
 1138 008b 08       		.uleb128 0x8
 1139 008c 0B060000 		.4byte	.LASF12
 1140 0090 04       		.byte	0x4
 1141 0091 18       		.byte	0x18
 1142 0092 13       		.byte	0x13
 1143 0093 49000000 		.4byte	0x49
 1144 0097 08       		.uleb128 0x8
 1145 0098 34050000 		.4byte	.LASF13
 1146 009c 04       		.byte	0x4
 1147 009d 30       		.byte	0x30
 1148 009e 14       		.byte	0x14
 1149 009f 71000000 		.4byte	0x71
 1150 00a3 11       		.uleb128 0x11
 1151 00a4 97000000 		.4byte	0x97
 1152 00a8 03       		.uleb128 0x3
 1153 00a9 01       		.byte	0x1
 1154 00aa 08       		.byte	0x8
 1155 00ab 7B050000 		.4byte	.LASF14
 1156 00af 0E       		.uleb128 0xe
 1157 00b0 A8000000 		.4byte	0xa8
 1158 00b4 09       		.uleb128 0x9
 1159 00b5 97000000 		.4byte	0x97
 1160 00b9 C4000000 		.4byte	0xc4
 1161 00bd 0A       		.uleb128 0xa
 1162 00be 26000000 		.4byte	0x26
 1163 00c2 03       		.byte	0x3
 1164 00c3 00       		.byte	0
 1165 00c4 09       		.uleb128 0x9
 1166 00c5 A3000000 		.4byte	0xa3
 1167 00c9 D4000000 		.4byte	0xd4
 1168 00cd 0A       		.uleb128 0xa
 1169 00ce 26000000 		.4byte	0x26
 1170 00d2 03       		.byte	0x3
 1171 00d3 00       		.byte	0
 1172 00d4 11       		.uleb128 0x11
 1173 00d5 C4000000 		.4byte	0xc4
 1174 00d9 09       		.uleb128 0x9
 1175 00da A3000000 		.4byte	0xa3
 1176 00de E9000000 		.4byte	0xe9
 1177 00e2 0A       		.uleb128 0xa
 1178 00e3 26000000 		.4byte	0x26
 1179 00e7 01       		.byte	0x1
 1180 00e8 00       		.byte	0
 1181 00e9 11       		.uleb128 0x11
 1182 00ea D9000000 		.4byte	0xd9
 1183 00ee 09       		.uleb128 0x9
 1184 00ef 97000000 		.4byte	0x97
 1185 00f3 FE000000 		.4byte	0xfe
 1186 00f7 0A       		.uleb128 0xa
 1187 00f8 26000000 		.4byte	0x26
 1188 00fc 08       		.byte	0x8
 1189 00fd 00       		.byte	0
 1190 00fe 1D       		.uleb128 0x1d
 1191 00ff 3001     		.2byte	0x130
 1192 0101 05       		.byte	0x5
 1193 0102 CE04     		.2byte	0x4ce
ARM GAS  C:\Users\DEVELO~1\AppData\Local\Temp\ccSISJ8X.s 			page 22


 1194 0104 09       		.byte	0x9
 1195 0105 97040000 		.4byte	0x497
 1196 0109 02       		.uleb128 0x2
 1197 010a 435200   		.ascii	"CR\000"
 1198 010d 05       		.byte	0x5
 1199 010e D004     		.2byte	0x4d0
 1200 0110 10       		.byte	0x10
 1201 0111 A3000000 		.4byte	0xa3
 1202 0115 00       		.byte	0
 1203 0116 01       		.uleb128 0x1
 1204 0117 A7020000 		.4byte	.LASF15
 1205 011b 05       		.byte	0x5
 1206 011c D104     		.2byte	0x4d1
 1207 011e 10       		.byte	0x10
 1208 011f A3000000 		.4byte	0xa3
 1209 0123 04       		.byte	0x4
 1210 0124 01       		.uleb128 0x1
 1211 0125 E2050000 		.4byte	.LASF16
 1212 0129 05       		.byte	0x5
 1213 012a D204     		.2byte	0x4d2
 1214 012c 10       		.byte	0x10
 1215 012d A3000000 		.4byte	0xa3
 1216 0131 08       		.byte	0x8
 1217 0132 01       		.uleb128 0x1
 1218 0133 C9050000 		.4byte	.LASF17
 1219 0137 05       		.byte	0x5
 1220 0138 D304     		.2byte	0x4d3
 1221 013a 10       		.byte	0x10
 1222 013b A3000000 		.4byte	0xa3
 1223 013f 0C       		.byte	0xc
 1224 0140 01       		.uleb128 0x1
 1225 0141 48060000 		.4byte	.LASF18
 1226 0145 05       		.byte	0x5
 1227 0146 D404     		.2byte	0x4d4
 1228 0148 10       		.byte	0x10
 1229 0149 A3000000 		.4byte	0xa3
 1230 014d 10       		.byte	0x10
 1231 014e 01       		.uleb128 0x1
 1232 014f 4D040000 		.4byte	.LASF19
 1233 0153 05       		.byte	0x5
 1234 0154 D504     		.2byte	0x4d5
 1235 0156 0F       		.byte	0xf
 1236 0157 97000000 		.4byte	0x97
 1237 015b 14       		.byte	0x14
 1238 015c 01       		.uleb128 0x1
 1239 015d 7A060000 		.4byte	.LASF20
 1240 0161 05       		.byte	0x5
 1241 0162 D604     		.2byte	0x4d6
 1242 0164 10       		.byte	0x10
 1243 0165 A3000000 		.4byte	0xa3
 1244 0169 18       		.byte	0x18
 1245 016a 01       		.uleb128 0x1
 1246 016b 6B040000 		.4byte	.LASF21
 1247 016f 05       		.byte	0x5
 1248 0170 D704     		.2byte	0x4d7
 1249 0172 10       		.byte	0x10
 1250 0173 A3000000 		.4byte	0xa3
ARM GAS  C:\Users\DEVELO~1\AppData\Local\Temp\ccSISJ8X.s 			page 23


 1251 0177 1C       		.byte	0x1c
 1252 0178 01       		.uleb128 0x1
 1253 0179 F9010000 		.4byte	.LASF22
 1254 017d 05       		.byte	0x5
 1255 017e D804     		.2byte	0x4d8
 1256 0180 10       		.byte	0x10
 1257 0181 A3000000 		.4byte	0xa3
 1258 0185 20       		.byte	0x20
 1259 0186 01       		.uleb128 0x1
 1260 0187 57040000 		.4byte	.LASF23
 1261 018b 05       		.byte	0x5
 1262 018c D904     		.2byte	0x4d9
 1263 018e 0F       		.byte	0xf
 1264 018f 97000000 		.4byte	0x97
 1265 0193 24       		.byte	0x24
 1266 0194 01       		.uleb128 0x1
 1267 0195 9D020000 		.4byte	.LASF24
 1268 0199 05       		.byte	0x5
 1269 019a DA04     		.2byte	0x4da
 1270 019c 10       		.byte	0x10
 1271 019d A3000000 		.4byte	0xa3
 1272 01a1 28       		.byte	0x28
 1273 01a2 01       		.uleb128 0x1
 1274 01a3 00020000 		.4byte	.LASF25
 1275 01a7 05       		.byte	0x5
 1276 01a8 DB04     		.2byte	0x4db
 1277 01aa 10       		.byte	0x10
 1278 01ab A3000000 		.4byte	0xa3
 1279 01af 2C       		.byte	0x2c
 1280 01b0 01       		.uleb128 0x1
 1281 01b1 0D000000 		.4byte	.LASF26
 1282 01b5 05       		.byte	0x5
 1283 01b6 DC04     		.2byte	0x4dc
 1284 01b8 10       		.byte	0x10
 1285 01b9 A3000000 		.4byte	0xa3
 1286 01bd 30       		.byte	0x30
 1287 01be 01       		.uleb128 0x1
 1288 01bf 72010000 		.4byte	.LASF27
 1289 01c3 05       		.byte	0x5
 1290 01c4 DD04     		.2byte	0x4dd
 1291 01c6 10       		.byte	0x10
 1292 01c7 A3000000 		.4byte	0xa3
 1293 01cb 34       		.byte	0x34
 1294 01cc 01       		.uleb128 0x1
 1295 01cd 91050000 		.4byte	.LASF28
 1296 01d1 05       		.byte	0x5
 1297 01d2 DE04     		.2byte	0x4de
 1298 01d4 10       		.byte	0x10
 1299 01d5 A3000000 		.4byte	0xa3
 1300 01d9 38       		.byte	0x38
 1301 01da 01       		.uleb128 0x1
 1302 01db DB030000 		.4byte	.LASF29
 1303 01df 05       		.byte	0x5
 1304 01e0 DF04     		.2byte	0x4df
 1305 01e2 10       		.byte	0x10
 1306 01e3 A3000000 		.4byte	0xa3
 1307 01e7 3C       		.byte	0x3c
ARM GAS  C:\Users\DEVELO~1\AppData\Local\Temp\ccSISJ8X.s 			page 24


 1308 01e8 01       		.uleb128 0x1
 1309 01e9 0D020000 		.4byte	.LASF30
 1310 01ed 05       		.byte	0x5
 1311 01ee E004     		.2byte	0x4e0
 1312 01f0 10       		.byte	0x10
 1313 01f1 A3000000 		.4byte	0xa3
 1314 01f5 40       		.byte	0x40
 1315 01f6 01       		.uleb128 0x1
 1316 01f7 9B030000 		.4byte	.LASF31
 1317 01fb 05       		.byte	0x5
 1318 01fc E104     		.2byte	0x4e1
 1319 01fe 10       		.byte	0x10
 1320 01ff A3000000 		.4byte	0xa3
 1321 0203 44       		.byte	0x44
 1322 0204 01       		.uleb128 0x1
 1323 0205 61040000 		.4byte	.LASF32
 1324 0209 05       		.byte	0x5
 1325 020a E204     		.2byte	0x4e2
 1326 020c 10       		.byte	0x10
 1327 020d 97000000 		.4byte	0x97
 1328 0211 48       		.byte	0x48
 1329 0212 01       		.uleb128 0x1
 1330 0213 47050000 		.4byte	.LASF33
 1331 0217 05       		.byte	0x5
 1332 0218 E304     		.2byte	0x4e3
 1333 021a 11       		.byte	0x11
 1334 021b A3000000 		.4byte	0xa3
 1335 021f 4C       		.byte	0x4c
 1336 0220 01       		.uleb128 0x1
 1337 0221 07010000 		.4byte	.LASF34
 1338 0225 05       		.byte	0x5
 1339 0226 E404     		.2byte	0x4e4
 1340 0228 11       		.byte	0x11
 1341 0229 A3000000 		.4byte	0xa3
 1342 022d 50       		.byte	0x50
 1343 022e 01       		.uleb128 0x1
 1344 022f CB020000 		.4byte	.LASF35
 1345 0233 05       		.byte	0x5
 1346 0234 E504     		.2byte	0x4e5
 1347 0236 11       		.byte	0x11
 1348 0237 A3000000 		.4byte	0xa3
 1349 023b 54       		.byte	0x54
 1350 023c 01       		.uleb128 0x1
 1351 023d 2C020000 		.4byte	.LASF36
 1352 0241 05       		.byte	0x5
 1353 0242 E604     		.2byte	0x4e6
 1354 0244 11       		.byte	0x11
 1355 0245 A3000000 		.4byte	0xa3
 1356 0249 58       		.byte	0x58
 1357 024a 01       		.uleb128 0x1
 1358 024b 2A050000 		.4byte	.LASF37
 1359 024f 05       		.byte	0x5
 1360 0250 E704     		.2byte	0x4e7
 1361 0252 10       		.byte	0x10
 1362 0253 97000000 		.4byte	0x97
 1363 0257 5C       		.byte	0x5c
 1364 0258 01       		.uleb128 0x1
ARM GAS  C:\Users\DEVELO~1\AppData\Local\Temp\ccSISJ8X.s 			page 25


 1365 0259 F9000000 		.4byte	.LASF38
 1366 025d 05       		.byte	0x5
 1367 025e E804     		.2byte	0x4e8
 1368 0260 11       		.byte	0x11
 1369 0261 A3000000 		.4byte	0xa3
 1370 0265 60       		.byte	0x60
 1371 0266 01       		.uleb128 0x1
 1372 0267 08020000 		.4byte	.LASF39
 1373 026b 05       		.byte	0x5
 1374 026c E904     		.2byte	0x4e9
 1375 026e 11       		.byte	0x11
 1376 026f A3000000 		.4byte	0xa3
 1377 0273 64       		.byte	0x64
 1378 0274 01       		.uleb128 0x1
 1379 0275 F3050000 		.4byte	.LASF40
 1380 0279 05       		.byte	0x5
 1381 027a EA04     		.2byte	0x4ea
 1382 027c 11       		.byte	0x11
 1383 027d A3000000 		.4byte	0xa3
 1384 0281 68       		.byte	0x68
 1385 0282 01       		.uleb128 0x1
 1386 0283 72040000 		.4byte	.LASF41
 1387 0287 05       		.byte	0x5
 1388 0288 EB04     		.2byte	0x4eb
 1389 028a 0F       		.byte	0xf
 1390 028b 97000000 		.4byte	0x97
 1391 028f 6C       		.byte	0x6c
 1392 0290 01       		.uleb128 0x1
 1393 0291 06060000 		.4byte	.LASF42
 1394 0295 05       		.byte	0x5
 1395 0296 EC04     		.2byte	0x4ec
 1396 0298 11       		.byte	0x11
 1397 0299 A3000000 		.4byte	0xa3
 1398 029d 70       		.byte	0x70
 1399 029e 02       		.uleb128 0x2
 1400 029f 43535200 		.ascii	"CSR\000"
 1401 02a3 05       		.byte	0x5
 1402 02a4 ED04     		.2byte	0x4ed
 1403 02a6 11       		.byte	0x11
 1404 02a7 A3000000 		.4byte	0xa3
 1405 02ab 74       		.byte	0x74
 1406 02ac 01       		.uleb128 0x1
 1407 02ad 7C040000 		.4byte	.LASF43
 1408 02b1 05       		.byte	0x5
 1409 02b2 EE04     		.2byte	0x4ee
 1410 02b4 0F       		.byte	0xf
 1411 02b5 97000000 		.4byte	0x97
 1412 02b9 78       		.byte	0x78
 1413 02ba 01       		.uleb128 0x1
 1414 02bb AF020000 		.4byte	.LASF44
 1415 02bf 05       		.byte	0x5
 1416 02c0 EF04     		.2byte	0x4ef
 1417 02c2 10       		.byte	0x10
 1418 02c3 A3000000 		.4byte	0xa3
 1419 02c7 7C       		.byte	0x7c
 1420 02c8 01       		.uleb128 0x1
 1421 02c9 2A010000 		.4byte	.LASF45
ARM GAS  C:\Users\DEVELO~1\AppData\Local\Temp\ccSISJ8X.s 			page 26


 1422 02cd 05       		.byte	0x5
 1423 02ce F004     		.2byte	0x4f0
 1424 02d0 10       		.byte	0x10
 1425 02d1 A3000000 		.4byte	0xa3
 1426 02d5 80       		.byte	0x80
 1427 02d6 01       		.uleb128 0x1
 1428 02d7 9F050000 		.4byte	.LASF46
 1429 02db 05       		.byte	0x5
 1430 02dc F104     		.2byte	0x4f1
 1431 02de 10       		.byte	0x10
 1432 02df A3000000 		.4byte	0xa3
 1433 02e3 84       		.byte	0x84
 1434 02e4 01       		.uleb128 0x1
 1435 02e5 FE000000 		.4byte	.LASF47
 1436 02e9 05       		.byte	0x5
 1437 02ea F204     		.2byte	0x4f2
 1438 02ec 10       		.byte	0x10
 1439 02ed A3000000 		.4byte	0xa3
 1440 02f1 88       		.byte	0x88
 1441 02f2 01       		.uleb128 0x1
 1442 02f3 C0050000 		.4byte	.LASF48
 1443 02f7 05       		.byte	0x5
 1444 02f8 F304     		.2byte	0x4f3
 1445 02fa 10       		.byte	0x10
 1446 02fb A3000000 		.4byte	0xa3
 1447 02ff 8C       		.byte	0x8c
 1448 0300 01       		.uleb128 0x1
 1449 0301 59000000 		.4byte	.LASF49
 1450 0305 05       		.byte	0x5
 1451 0306 F404     		.2byte	0x4f4
 1452 0308 10       		.byte	0x10
 1453 0309 A3000000 		.4byte	0xa3
 1454 030d 90       		.byte	0x90
 1455 030e 01       		.uleb128 0x1
 1456 030f 0E050000 		.4byte	.LASF50
 1457 0313 05       		.byte	0x5
 1458 0314 F504     		.2byte	0x4f5
 1459 0316 10       		.byte	0x10
 1460 0317 A3000000 		.4byte	0xa3
 1461 031b 94       		.byte	0x94
 1462 031c 01       		.uleb128 0x1
 1463 031d 8A010000 		.4byte	.LASF51
 1464 0321 05       		.byte	0x5
 1465 0322 F604     		.2byte	0x4f6
 1466 0324 10       		.byte	0x10
 1467 0325 A3000000 		.4byte	0xa3
 1468 0329 98       		.byte	0x98
 1469 032a 01       		.uleb128 0x1
 1470 032b CA030000 		.4byte	.LASF52
 1471 032f 05       		.byte	0x5
 1472 0330 F704     		.2byte	0x4f7
 1473 0332 10       		.byte	0x10
 1474 0333 A3000000 		.4byte	0xa3
 1475 0337 9C       		.byte	0x9c
 1476 0338 02       		.uleb128 0x2
 1477 0339 47435200 		.ascii	"GCR\000"
 1478 033d 05       		.byte	0x5
ARM GAS  C:\Users\DEVELO~1\AppData\Local\Temp\ccSISJ8X.s 			page 27


 1479 033e F804     		.2byte	0x4f8
 1480 0340 10       		.byte	0x10
 1481 0341 A3000000 		.4byte	0xa3
 1482 0345 A0       		.byte	0xa0
 1483 0346 01       		.uleb128 0x1
 1484 0347 86040000 		.4byte	.LASF53
 1485 034b 05       		.byte	0x5
 1486 034c F904     		.2byte	0x4f9
 1487 034e 0F       		.byte	0xf
 1488 034f 97000000 		.4byte	0x97
 1489 0353 A4       		.byte	0xa4
 1490 0354 01       		.uleb128 0x1
 1491 0355 BF000000 		.4byte	.LASF54
 1492 0359 05       		.byte	0x5
 1493 035a FA04     		.2byte	0x4fa
 1494 035c 10       		.byte	0x10
 1495 035d A3000000 		.4byte	0xa3
 1496 0361 A8       		.byte	0xa8
 1497 0362 01       		.uleb128 0x1
 1498 0363 43010000 		.4byte	.LASF55
 1499 0367 05       		.byte	0x5
 1500 0368 FB04     		.2byte	0x4fb
 1501 036a 0F       		.byte	0xf
 1502 036b EE000000 		.4byte	0xee
 1503 036f AC       		.byte	0xac
 1504 0370 02       		.uleb128 0x2
 1505 0371 52535200 		.ascii	"RSR\000"
 1506 0375 05       		.byte	0x5
 1507 0376 FC04     		.2byte	0x4fc
 1508 0378 10       		.byte	0x10
 1509 0379 A3000000 		.4byte	0xa3
 1510 037d D0       		.byte	0xd0
 1511 037e 01       		.uleb128 0x1
 1512 037f 06050000 		.4byte	.LASF56
 1513 0383 05       		.byte	0x5
 1514 0384 FD04     		.2byte	0x4fd
 1515 0386 10       		.byte	0x10
 1516 0387 A3000000 		.4byte	0xa3
 1517 038b D4       		.byte	0xd4
 1518 038c 01       		.uleb128 0x1
 1519 038d 40060000 		.4byte	.LASF57
 1520 0391 05       		.byte	0x5
 1521 0392 FE04     		.2byte	0x4fe
 1522 0394 10       		.byte	0x10
 1523 0395 A3000000 		.4byte	0xa3
 1524 0399 D8       		.byte	0xd8
 1525 039a 01       		.uleb128 0x1
 1526 039b DD020000 		.4byte	.LASF58
 1527 039f 05       		.byte	0x5
 1528 03a0 FF04     		.2byte	0x4ff
 1529 03a2 10       		.byte	0x10
 1530 03a3 A3000000 		.4byte	0xa3
 1531 03a7 DC       		.byte	0xdc
 1532 03a8 01       		.uleb128 0x1
 1533 03a9 AE040000 		.4byte	.LASF59
 1534 03ad 05       		.byte	0x5
 1535 03ae 0005     		.2byte	0x500
ARM GAS  C:\Users\DEVELO~1\AppData\Local\Temp\ccSISJ8X.s 			page 28


 1536 03b0 10       		.byte	0x10
 1537 03b1 A3000000 		.4byte	0xa3
 1538 03b5 E0       		.byte	0xe0
 1539 03b6 01       		.uleb128 0x1
 1540 03b7 07040000 		.4byte	.LASF60
 1541 03bb 05       		.byte	0x5
 1542 03bc 0105     		.2byte	0x501
 1543 03be 10       		.byte	0x10
 1544 03bf A3000000 		.4byte	0xa3
 1545 03c3 E4       		.byte	0xe4
 1546 03c4 01       		.uleb128 0x1
 1547 03c5 53060000 		.4byte	.LASF61
 1548 03c9 05       		.byte	0x5
 1549 03ca 0205     		.2byte	0x502
 1550 03cc 10       		.byte	0x10
 1551 03cd A3000000 		.4byte	0xa3
 1552 03d1 E8       		.byte	0xe8
 1553 03d2 01       		.uleb128 0x1
 1554 03d3 C2020000 		.4byte	.LASF62
 1555 03d7 05       		.byte	0x5
 1556 03d8 0305     		.2byte	0x503
 1557 03da 10       		.byte	0x10
 1558 03db A3000000 		.4byte	0xa3
 1559 03df EC       		.byte	0xec
 1560 03e0 01       		.uleb128 0x1
 1561 03e1 E9040000 		.4byte	.LASF63
 1562 03e5 05       		.byte	0x5
 1563 03e6 0405     		.2byte	0x504
 1564 03e8 10       		.byte	0x10
 1565 03e9 A3000000 		.4byte	0xa3
 1566 03ed F0       		.byte	0xf0
 1567 03ee 01       		.uleb128 0x1
 1568 03ef D3030000 		.4byte	.LASF64
 1569 03f3 05       		.byte	0x5
 1570 03f4 0505     		.2byte	0x505
 1571 03f6 10       		.byte	0x10
 1572 03f7 A3000000 		.4byte	0xa3
 1573 03fb F4       		.byte	0xf4
 1574 03fc 01       		.uleb128 0x1
 1575 03fd 4E010000 		.4byte	.LASF65
 1576 0401 05       		.byte	0x5
 1577 0402 0605     		.2byte	0x506
 1578 0404 10       		.byte	0x10
 1579 0405 97000000 		.4byte	0x97
 1580 0409 F8       		.byte	0xf8
 1581 040a 01       		.uleb128 0x1
 1582 040b C0040000 		.4byte	.LASF66
 1583 040f 05       		.byte	0x5
 1584 0410 0705     		.2byte	0x507
 1585 0412 10       		.byte	0x10
 1586 0413 A3000000 		.4byte	0xa3
 1587 0417 FC       		.byte	0xfc
 1588 0418 05       		.uleb128 0x5
 1589 0419 EF000000 		.4byte	.LASF67
 1590 041d 0805     		.2byte	0x508
 1591 041f 10       		.byte	0x10
 1592 0420 A3000000 		.4byte	0xa3
ARM GAS  C:\Users\DEVELO~1\AppData\Local\Temp\ccSISJ8X.s 			page 29


 1593 0424 0001     		.2byte	0x100
 1594 0426 05       		.uleb128 0x5
 1595 0427 F3030000 		.4byte	.LASF68
 1596 042b 0905     		.2byte	0x509
 1597 042d 10       		.byte	0x10
 1598 042e A3000000 		.4byte	0xa3
 1599 0432 0401     		.2byte	0x104
 1600 0434 05       		.uleb128 0x5
 1601 0435 A8050000 		.4byte	.LASF69
 1602 0439 0A05     		.2byte	0x50a
 1603 043b 10       		.byte	0x10
 1604 043c A3000000 		.4byte	0xa3
 1605 0440 0801     		.2byte	0x108
 1606 0442 05       		.uleb128 0x5
 1607 0443 FD030000 		.4byte	.LASF70
 1608 0447 0B05     		.2byte	0x50b
 1609 0449 10       		.byte	0x10
 1610 044a A3000000 		.4byte	0xa3
 1611 044e 0C01     		.2byte	0x10c
 1612 0450 05       		.uleb128 0x5
 1613 0451 E8050000 		.4byte	.LASF71
 1614 0455 0C05     		.2byte	0x50c
 1615 0457 10       		.byte	0x10
 1616 0458 A3000000 		.4byte	0xa3
 1617 045c 1001     		.2byte	0x110
 1618 045e 05       		.uleb128 0x5
 1619 045f 79000000 		.4byte	.LASF72
 1620 0463 0D05     		.2byte	0x50d
 1621 0465 10       		.byte	0x10
 1622 0466 A3000000 		.4byte	0xa3
 1623 046a 1401     		.2byte	0x114
 1624 046c 05       		.uleb128 0x5
 1625 046d 91030000 		.4byte	.LASF73
 1626 0471 0E05     		.2byte	0x50e
 1627 0473 10       		.byte	0x10
 1628 0474 A3000000 		.4byte	0xa3
 1629 0478 1801     		.2byte	0x118
 1630 047a 05       		.uleb128 0x5
 1631 047b CA040000 		.4byte	.LASF74
 1632 047f 0F05     		.2byte	0x50f
 1633 0481 10       		.byte	0x10
 1634 0482 A3000000 		.4byte	0xa3
 1635 0486 1C01     		.2byte	0x11c
 1636 0488 05       		.uleb128 0x5
 1637 0489 59010000 		.4byte	.LASF75
 1638 048d 1005     		.2byte	0x510
 1639 048f 0F       		.byte	0xf
 1640 0490 B4000000 		.4byte	0xb4
 1641 0494 2001     		.2byte	0x120
 1642 0496 00       		.byte	0
 1643 0497 06       		.uleb128 0x6
 1644 0498 78020000 		.4byte	.LASF76
 1645 049c 05       		.byte	0x5
 1646 049d 1205     		.2byte	0x512
 1647 049f 03       		.byte	0x3
 1648 04a0 FE000000 		.4byte	0xfe
 1649 04a4 03       		.uleb128 0x3
ARM GAS  C:\Users\DEVELO~1\AppData\Local\Temp\ccSISJ8X.s 			page 30


 1650 04a5 01       		.byte	0x1
 1651 04a6 02       		.byte	0x2
 1652 04a7 90040000 		.4byte	.LASF77
 1653 04ab 12       		.uleb128 0x12
 1654 04ac 60       		.byte	0x60
 1655 04ad 06       		.byte	0x6
 1656 04ae F601     		.2byte	0x1f6
 1657 04b0 CB050000 		.4byte	0x5cb
 1658 04b4 02       		.uleb128 0x2
 1659 04b5 43523100 		.ascii	"CR1\000"
 1660 04b9 06       		.byte	0x6
 1661 04ba F701     		.2byte	0x1f7
 1662 04bc 19       		.byte	0x19
 1663 04bd A3000000 		.4byte	0xa3
 1664 04c1 00       		.byte	0
 1665 04c2 02       		.uleb128 0x2
 1666 04c3 43523200 		.ascii	"CR2\000"
 1667 04c7 06       		.byte	0x6
 1668 04c8 F801     		.2byte	0x1f8
 1669 04ca 19       		.byte	0x19
 1670 04cb A3000000 		.4byte	0xa3
 1671 04cf 04       		.byte	0x4
 1672 04d0 01       		.uleb128 0x1
 1673 04d1 85050000 		.4byte	.LASF78
 1674 04d5 06       		.byte	0x6
 1675 04d6 F901     		.2byte	0x1f9
 1676 04d8 19       		.byte	0x19
 1677 04d9 A3000000 		.4byte	0xa3
 1678 04dd 08       		.byte	0x8
 1679 04de 01       		.uleb128 0x1
 1680 04df 54000000 		.4byte	.LASF79
 1681 04e3 06       		.byte	0x6
 1682 04e4 FA01     		.2byte	0x1fa
 1683 04e6 19       		.byte	0x19
 1684 04e7 A3000000 		.4byte	0xa3
 1685 04eb 0C       		.byte	0xc
 1686 04ec 02       		.uleb128 0x2
 1687 04ed 535200   		.ascii	"SR\000"
 1688 04f0 06       		.byte	0x6
 1689 04f1 FB01     		.2byte	0x1fb
 1690 04f3 19       		.byte	0x19
 1691 04f4 A3000000 		.4byte	0xa3
 1692 04f8 10       		.byte	0x10
 1693 04f9 02       		.uleb128 0x2
 1694 04fa 45475200 		.ascii	"EGR\000"
 1695 04fe 06       		.byte	0x6
 1696 04ff FC01     		.2byte	0x1fc
 1697 0501 19       		.byte	0x19
 1698 0502 A3000000 		.4byte	0xa3
 1699 0506 14       		.byte	0x14
 1700 0507 01       		.uleb128 0x1
 1701 0508 BA050000 		.4byte	.LASF80
 1702 050c 06       		.byte	0x6
 1703 050d FD01     		.2byte	0x1fd
 1704 050f 19       		.byte	0x19
 1705 0510 A3000000 		.4byte	0xa3
 1706 0514 18       		.byte	0x18
ARM GAS  C:\Users\DEVELO~1\AppData\Local\Temp\ccSISJ8X.s 			page 31


 1707 0515 01       		.uleb128 0x1
 1708 0516 6D000000 		.4byte	.LASF81
 1709 051a 06       		.byte	0x6
 1710 051b FE01     		.2byte	0x1fe
 1711 051d 19       		.byte	0x19
 1712 051e A3000000 		.4byte	0xa3
 1713 0522 1C       		.byte	0x1c
 1714 0523 01       		.uleb128 0x1
 1715 0524 C0010000 		.4byte	.LASF82
 1716 0528 06       		.byte	0x6
 1717 0529 FF01     		.2byte	0x1ff
 1718 052b 19       		.byte	0x19
 1719 052c A3000000 		.4byte	0xa3
 1720 0530 20       		.byte	0x20
 1721 0531 02       		.uleb128 0x2
 1722 0532 434E5400 		.ascii	"CNT\000"
 1723 0536 06       		.byte	0x6
 1724 0537 0002     		.2byte	0x200
 1725 0539 19       		.byte	0x19
 1726 053a A3000000 		.4byte	0xa3
 1727 053e 24       		.byte	0x24
 1728 053f 02       		.uleb128 0x2
 1729 0540 50534300 		.ascii	"PSC\000"
 1730 0544 06       		.byte	0x6
 1731 0545 0102     		.2byte	0x201
 1732 0547 19       		.byte	0x19
 1733 0548 A3000000 		.4byte	0xa3
 1734 054c 28       		.byte	0x28
 1735 054d 02       		.uleb128 0x2
 1736 054e 41525200 		.ascii	"ARR\000"
 1737 0552 06       		.byte	0x6
 1738 0553 0202     		.2byte	0x202
 1739 0555 19       		.byte	0x19
 1740 0556 A3000000 		.4byte	0xa3
 1741 055a 2C       		.byte	0x2c
 1742 055b 02       		.uleb128 0x2
 1743 055c 52435200 		.ascii	"RCR\000"
 1744 0560 06       		.byte	0x6
 1745 0561 0302     		.2byte	0x203
 1746 0563 19       		.byte	0x19
 1747 0564 A3000000 		.4byte	0xa3
 1748 0568 30       		.byte	0x30
 1749 0569 02       		.uleb128 0x2
 1750 056a 43435200 		.ascii	"CCR\000"
 1751 056e 06       		.byte	0x6
 1752 056f 0402     		.2byte	0x204
 1753 0571 19       		.byte	0x19
 1754 0572 D4000000 		.4byte	0xd4
 1755 0576 34       		.byte	0x34
 1756 0577 01       		.uleb128 0x1
 1757 0578 DD000000 		.4byte	.LASF83
 1758 057c 06       		.byte	0x6
 1759 057d 0502     		.2byte	0x205
 1760 057f 19       		.byte	0x19
 1761 0580 A3000000 		.4byte	0xa3
 1762 0584 44       		.byte	0x44
 1763 0585 02       		.uleb128 0x2
ARM GAS  C:\Users\DEVELO~1\AppData\Local\Temp\ccSISJ8X.s 			page 32


 1764 0586 44435200 		.ascii	"DCR\000"
 1765 058a 06       		.byte	0x6
 1766 058b 1302     		.2byte	0x213
 1767 058d 19       		.byte	0x19
 1768 058e A3000000 		.4byte	0xa3
 1769 0592 48       		.byte	0x48
 1770 0593 01       		.uleb128 0x1
 1771 0594 9A050000 		.4byte	.LASF84
 1772 0598 06       		.byte	0x6
 1773 0599 1402     		.2byte	0x214
 1774 059b 19       		.byte	0x19
 1775 059c A3000000 		.4byte	0xa3
 1776 05a0 4C       		.byte	0x4c
 1777 05a1 02       		.uleb128 0x2
 1778 05a2 4F5200   		.ascii	"OR\000"
 1779 05a5 06       		.byte	0x6
 1780 05a6 1502     		.2byte	0x215
 1781 05a8 19       		.byte	0x19
 1782 05a9 A3000000 		.4byte	0xa3
 1783 05ad 50       		.byte	0x50
 1784 05ae 01       		.uleb128 0x1
 1785 05af 73000000 		.4byte	.LASF85
 1786 05b3 06       		.byte	0x6
 1787 05b4 1602     		.2byte	0x216
 1788 05b6 19       		.byte	0x19
 1789 05b7 A3000000 		.4byte	0xa3
 1790 05bb 54       		.byte	0x54
 1791 05bc 01       		.uleb128 0x1
 1792 05bd 18050000 		.4byte	.LASF86
 1793 05c1 06       		.byte	0x6
 1794 05c2 1702     		.2byte	0x217
 1795 05c4 19       		.byte	0x19
 1796 05c5 E9000000 		.4byte	0xe9
 1797 05c9 58       		.byte	0x58
 1798 05ca 00       		.byte	0
 1799 05cb 06       		.uleb128 0x6
 1800 05cc 85030000 		.4byte	.LASF87
 1801 05d0 06       		.byte	0x6
 1802 05d1 1902     		.2byte	0x219
 1803 05d3 03       		.byte	0x3
 1804 05d4 AB040000 		.4byte	0x4ab
 1805 05d8 1E       		.uleb128 0x1e
 1806 05d9 07       		.byte	0x7
 1807 05da 01       		.byte	0x1
 1808 05db 55000000 		.4byte	0x55
 1809 05df 07       		.byte	0x7
 1810 05e0 4A       		.byte	0x4a
 1811 05e1 0E       		.byte	0xe
 1812 05e2 F9050000 		.4byte	0x5f9
 1813 05e6 13       		.uleb128 0x13
 1814 05e7 5C060000 		.4byte	.LASF88
 1815 05eb 00       		.byte	0
 1816 05ec 13       		.uleb128 0x13
 1817 05ed 72050000 		.4byte	.LASF89
 1818 05f1 01       		.byte	0x1
 1819 05f2 13       		.uleb128 0x13
 1820 05f3 96040000 		.4byte	.LASF90
ARM GAS  C:\Users\DEVELO~1\AppData\Local\Temp\ccSISJ8X.s 			page 33


 1821 05f7 02       		.byte	0x2
 1822 05f8 00       		.byte	0
 1823 05f9 08       		.uleb128 0x8
 1824 05fa 1D060000 		.4byte	.LASF91
 1825 05fe 07       		.byte	0x7
 1826 05ff 4E       		.byte	0x4e
 1827 0600 03       		.byte	0x3
 1828 0601 D8050000 		.4byte	0x5d8
 1829 0605 08       		.uleb128 0x8
 1830 0606 13060000 		.4byte	.LASF92
 1831 060a 07       		.byte	0x7
 1832 060b 53       		.byte	0x53
 1833 060c 1A       		.byte	0x1a
 1834 060d 11060000 		.4byte	0x611
 1835 0611 1F       		.uleb128 0x1f
 1836 0612 13060000 		.4byte	.LASF92
 1837 0616 20       		.byte	0x20
 1838 0617 08       		.byte	0x8
 1839 0618 5803     		.2byte	0x358
 1840 061a 08       		.byte	0x8
 1841 061b 90060000 		.4byte	0x690
 1842 061f 01       		.uleb128 0x1
 1843 0620 33010000 		.4byte	.LASF93
 1844 0624 08       		.byte	0x8
 1845 0625 5C03     		.2byte	0x35c
 1846 0627 1D       		.byte	0x1d
 1847 0628 F9050000 		.4byte	0x5f9
 1848 062c 00       		.byte	0
 1849 062d 01       		.uleb128 0x1
 1850 062e 8A050000 		.4byte	.LASF94
 1851 0632 08       		.byte	0x8
 1852 0633 6003     		.2byte	0x360
 1853 0635 1E       		.byte	0x1e
 1854 0636 A6070000 		.4byte	0x7a6
 1855 063a 04       		.byte	0x4
 1856 063b 01       		.uleb128 0x1
 1857 063c 8D000000 		.4byte	.LASF95
 1858 0640 08       		.byte	0x8
 1859 0641 6403     		.2byte	0x364
 1860 0643 1D       		.byte	0x1d
 1861 0644 D8060000 		.4byte	0x6d8
 1862 0648 08       		.byte	0x8
 1863 0649 01       		.uleb128 0x1
 1864 064a B2050000 		.4byte	.LASF96
 1865 064e 08       		.byte	0x8
 1866 064f 6803     		.2byte	0x368
 1867 0651 1D       		.byte	0x1d
 1868 0652 CB060000 		.4byte	0x6cb
 1869 0656 0C       		.byte	0xc
 1870 0657 01       		.uleb128 0x1
 1871 0658 69010000 		.4byte	.LASF97
 1872 065c 08       		.byte	0x8
 1873 065d 6C03     		.2byte	0x36c
 1874 065f 1D       		.byte	0x1d
 1875 0660 BE060000 		.4byte	0x6be
 1876 0664 10       		.byte	0x10
 1877 0665 01       		.uleb128 0x1
ARM GAS  C:\Users\DEVELO~1\AppData\Local\Temp\ccSISJ8X.s 			page 34


 1878 0666 4D060000 		.4byte	.LASF98
 1879 066a 08       		.byte	0x8
 1880 066b 7403     		.2byte	0x374
 1881 066d 1D       		.byte	0x1d
 1882 066e 97000000 		.4byte	0x97
 1883 0672 14       		.byte	0x14
 1884 0673 01       		.uleb128 0x1
 1885 0674 B7010000 		.4byte	.LASF99
 1886 0678 08       		.byte	0x8
 1887 0679 7803     		.2byte	0x378
 1888 067b 1D       		.byte	0x1d
 1889 067c A4040000 		.4byte	0x4a4
 1890 0680 18       		.byte	0x18
 1891 0681 02       		.uleb128 0x2
 1892 0682 74696D00 		.ascii	"tim\000"
 1893 0686 08       		.byte	0x8
 1894 0687 7C03     		.2byte	0x37c
 1895 0689 1E       		.byte	0x1e
 1896 068a AB070000 		.4byte	0x7ab
 1897 068e 1C       		.byte	0x1c
 1898 068f 00       		.byte	0
 1899 0690 08       		.uleb128 0x8
 1900 0691 F8050000 		.4byte	.LASF100
 1901 0695 07       		.byte	0x7
 1902 0696 5A       		.byte	0x5a
 1903 0697 10       		.byte	0x10
 1904 0698 9C060000 		.4byte	0x69c
 1905 069c 0F       		.uleb128 0xf
 1906 069d A1060000 		.4byte	0x6a1
 1907 06a1 20       		.uleb128 0x20
 1908 06a2 AC060000 		.4byte	0x6ac
 1909 06a6 18       		.uleb128 0x18
 1910 06a7 AC060000 		.4byte	0x6ac
 1911 06ab 00       		.byte	0
 1912 06ac 0F       		.uleb128 0xf
 1913 06ad 05060000 		.4byte	0x605
 1914 06b1 06       		.uleb128 0x6
 1915 06b2 39010000 		.4byte	.LASF101
 1916 06b6 08       		.byte	0x8
 1917 06b7 0603     		.2byte	0x306
 1918 06b9 12       		.byte	0x12
 1919 06ba 97000000 		.4byte	0x97
 1920 06be 06       		.uleb128 0x6
 1921 06bf 00000000 		.4byte	.LASF102
 1922 06c3 08       		.byte	0x8
 1923 06c4 0B03     		.2byte	0x30b
 1924 06c6 11       		.byte	0x11
 1925 06c7 8B000000 		.4byte	0x8b
 1926 06cb 06       		.uleb128 0x6
 1927 06cc D4040000 		.4byte	.LASF103
 1928 06d0 08       		.byte	0x8
 1929 06d1 1003     		.2byte	0x310
 1930 06d3 12       		.byte	0x12
 1931 06d4 97000000 		.4byte	0x97
 1932 06d8 06       		.uleb128 0x6
 1933 06d9 28060000 		.4byte	.LASF104
 1934 06dd 08       		.byte	0x8
ARM GAS  C:\Users\DEVELO~1\AppData\Local\Temp\ccSISJ8X.s 			page 35


 1935 06de 1503     		.2byte	0x315
 1936 06e0 12       		.byte	0x12
 1937 06e1 97000000 		.4byte	0x97
 1938 06e5 12       		.uleb128 0x12
 1939 06e6 08       		.byte	0x8
 1940 06e7 08       		.byte	0x8
 1941 06e8 1A03     		.2byte	0x31a
 1942 06ea 0B070000 		.4byte	0x70b
 1943 06ee 01       		.uleb128 0x1
 1944 06ef 80050000 		.4byte	.LASF105
 1945 06f3 08       		.byte	0x8
 1946 06f4 1E03     		.2byte	0x31e
 1947 06f6 1D       		.byte	0x1d
 1948 06f7 B1060000 		.4byte	0x6b1
 1949 06fb 00       		.byte	0
 1950 06fc 01       		.uleb128 0x1
 1951 06fd D4020000 		.4byte	.LASF106
 1952 0701 08       		.byte	0x8
 1953 0702 2403     		.2byte	0x324
 1954 0704 1D       		.byte	0x1d
 1955 0705 90060000 		.4byte	0x690
 1956 0709 04       		.byte	0x4
 1957 070a 00       		.byte	0
 1958 070b 06       		.uleb128 0x6
 1959 070c D1050000 		.4byte	.LASF107
 1960 0710 08       		.byte	0x8
 1961 0711 2603     		.2byte	0x326
 1962 0713 03       		.byte	0x3
 1963 0714 E5060000 		.4byte	0x6e5
 1964 0718 12       		.uleb128 0x12
 1965 0719 48       		.byte	0x48
 1966 071a 08       		.byte	0x8
 1967 071b 2B03     		.2byte	0x32b
 1968 071d 84070000 		.4byte	0x784
 1969 0721 01       		.uleb128 0x1
 1970 0722 B8020000 		.4byte	.LASF108
 1971 0726 08       		.byte	0x8
 1972 0727 3103     		.2byte	0x331
 1973 0729 1D       		.byte	0x1d
 1974 072a 97000000 		.4byte	0x97
 1975 072e 00       		.byte	0
 1976 072f 01       		.uleb128 0x1
 1977 0730 8D000000 		.4byte	.LASF95
 1978 0734 08       		.byte	0x8
 1979 0735 3703     		.2byte	0x337
 1980 0737 1D       		.byte	0x1d
 1981 0738 D8060000 		.4byte	0x6d8
 1982 073c 04       		.byte	0x4
 1983 073d 01       		.uleb128 0x1
 1984 073e D4020000 		.4byte	.LASF106
 1985 0742 08       		.byte	0x8
 1986 0743 3D03     		.2byte	0x33d
 1987 0745 1D       		.byte	0x1d
 1988 0746 90060000 		.4byte	0x690
 1989 074a 08       		.byte	0x8
 1990 074b 01       		.uleb128 0x1
 1991 074c 69010000 		.4byte	.LASF97
ARM GAS  C:\Users\DEVELO~1\AppData\Local\Temp\ccSISJ8X.s 			page 36


 1992 0750 08       		.byte	0x8
 1993 0751 4103     		.2byte	0x341
 1994 0753 1D       		.byte	0x1d
 1995 0754 84070000 		.4byte	0x784
 1996 0758 0C       		.byte	0xc
 1997 0759 02       		.uleb128 0x2
 1998 075a 63723200 		.ascii	"cr2\000"
 1999 075e 08       		.byte	0x8
 2000 075f 4703     		.2byte	0x347
 2001 0761 1D       		.byte	0x1d
 2002 0762 97000000 		.4byte	0x97
 2003 0766 3C       		.byte	0x3c
 2004 0767 01       		.uleb128 0x1
 2005 0768 AB000000 		.4byte	.LASF109
 2006 076c 08       		.byte	0x8
 2007 076d 4C03     		.2byte	0x34c
 2008 076f 1D       		.byte	0x1d
 2009 0770 97000000 		.4byte	0x97
 2010 0774 40       		.byte	0x40
 2011 0775 01       		.uleb128 0x1
 2012 0776 81060000 		.4byte	.LASF110
 2013 077a 08       		.byte	0x8
 2014 077b 5203     		.2byte	0x352
 2015 077d 1D       		.byte	0x1d
 2016 077e 97000000 		.4byte	0x97
 2017 0782 44       		.byte	0x44
 2018 0783 00       		.byte	0
 2019 0784 09       		.uleb128 0x9
 2020 0785 0B070000 		.4byte	0x70b
 2021 0789 94070000 		.4byte	0x794
 2022 078d 0A       		.uleb128 0xa
 2023 078e 26000000 		.4byte	0x26
 2024 0792 05       		.byte	0x5
 2025 0793 00       		.byte	0
 2026 0794 06       		.uleb128 0x6
 2027 0795 3D050000 		.4byte	.LASF111
 2028 0799 08       		.byte	0x8
 2029 079a 5303     		.2byte	0x353
 2030 079c 03       		.byte	0x3
 2031 079d 18070000 		.4byte	0x718
 2032 07a1 0E       		.uleb128 0xe
 2033 07a2 94070000 		.4byte	0x794
 2034 07a6 0F       		.uleb128 0xf
 2035 07a7 A1070000 		.4byte	0x7a1
 2036 07ab 0F       		.uleb128 0xf
 2037 07ac CB050000 		.4byte	0x5cb
 2038 07b0 21       		.uleb128 0x21
 2039 07b1 26020000 		.4byte	.LASF112
 2040 07b5 08       		.byte	0x8
 2041 07b6 AF03     		.2byte	0x3af
 2042 07b8 12       		.byte	0x12
 2043 07b9 05060000 		.4byte	0x605
 2044 07bd 22       		.uleb128 0x22
 2045 07be B0070000 		.4byte	0x7b0
 2046 07c2 01       		.byte	0x1
 2047 07c3 52       		.byte	0x52
 2048 07c4 0B       		.byte	0xb
ARM GAS  C:\Users\DEVELO~1\AppData\Local\Temp\ccSISJ8X.s 			page 37


 2049 07c5 05       		.uleb128 0x5
 2050 07c6 03       		.byte	0x3
 2051 07c7 00000000 		.4byte	PWMD8
 2052 07cb 23       		.uleb128 0x23
 2053 07cc 67060000 		.4byte	.LASF135
 2054 07d0 07       		.byte	0x7
 2055 07d1 2001     		.2byte	0x120
 2056 07d3 08       		.byte	0x8
 2057 07d4 DE070000 		.4byte	0x7de
 2058 07d8 18       		.uleb128 0x18
 2059 07d9 AC060000 		.4byte	0x6ac
 2060 07dd 00       		.byte	0
 2061 07de 04       		.uleb128 0x4
 2062 07df 35040000 		.4byte	.LASF113
 2063 07e3 F604     		.2byte	0x4f6
 2064 07e5 00000000 		.4byte	.LFB457
 2065 07e9 5E000000 		.4byte	.LFE457-.LFB457
 2066 07ed 01       		.uleb128 0x1
 2067 07ee 9C       		.byte	0x9c
 2068 07ef 67080000 		.4byte	0x867
 2069 07f3 07       		.uleb128 0x7
 2070 07f4 75060000 		.4byte	.LASF115
 2071 07f8 F604     		.2byte	0x4f6
 2072 07fa 29       		.byte	0x29
 2073 07fb AC060000 		.4byte	0x6ac
 2074 07ff 16000000 		.4byte	.LLST17
 2075 0803 0C000000 		.4byte	.LVUS17
 2076 0807 19       		.uleb128 0x19
 2077 0808 737200   		.ascii	"sr\000"
 2078 080b F704     		.2byte	0x4f7
 2079 080d 97000000 		.4byte	0x97
 2080 0811 3E000000 		.4byte	.LLST18
 2081 0815 38000000 		.4byte	.LVUS18
 2082 0819 10       		.uleb128 0x10
 2083 081a 20000000 		.4byte	.LVL62
 2084 081e 29080000 		.4byte	0x829
 2085 0822 0B       		.uleb128 0xb
 2086 0823 01       		.uleb128 0x1
 2087 0824 50       		.byte	0x50
 2088 0825 02       		.uleb128 0x2
 2089 0826 75       		.byte	0x75
 2090 0827 00       		.sleb128 0
 2091 0828 00       		.byte	0
 2092 0829 10       		.uleb128 0x10
 2093 082a 2E000000 		.4byte	.LVL63
 2094 082e 39080000 		.4byte	0x839
 2095 0832 0B       		.uleb128 0xb
 2096 0833 01       		.uleb128 0x1
 2097 0834 50       		.byte	0x50
 2098 0835 02       		.uleb128 0x2
 2099 0836 75       		.byte	0x75
 2100 0837 00       		.sleb128 0
 2101 0838 00       		.byte	0
 2102 0839 10       		.uleb128 0x10
 2103 083a 3C000000 		.4byte	.LVL64
 2104 083e 49080000 		.4byte	0x849
 2105 0842 0B       		.uleb128 0xb
ARM GAS  C:\Users\DEVELO~1\AppData\Local\Temp\ccSISJ8X.s 			page 38


 2106 0843 01       		.uleb128 0x1
 2107 0844 50       		.byte	0x50
 2108 0845 02       		.uleb128 0x2
 2109 0846 75       		.byte	0x75
 2110 0847 00       		.sleb128 0
 2111 0848 00       		.byte	0
 2112 0849 10       		.uleb128 0x10
 2113 084a 4A000000 		.4byte	.LVL65
 2114 084e 59080000 		.4byte	0x859
 2115 0852 0B       		.uleb128 0xb
 2116 0853 01       		.uleb128 0x1
 2117 0854 50       		.byte	0x50
 2118 0855 02       		.uleb128 0x2
 2119 0856 75       		.byte	0x75
 2120 0857 00       		.sleb128 0
 2121 0858 00       		.byte	0
 2122 0859 24       		.uleb128 0x24
 2123 085a 5C000000 		.4byte	.LVL67
 2124 085e 0B       		.uleb128 0xb
 2125 085f 01       		.uleb128 0x1
 2126 0860 50       		.byte	0x50
 2127 0861 03       		.uleb128 0x3
 2128 0862 A3       		.byte	0xa3
 2129 0863 01       		.uleb128 0x1
 2130 0864 50       		.byte	0x50
 2131 0865 00       		.byte	0
 2132 0866 00       		.byte	0
 2133 0867 04       		.uleb128 0x4
 2134 0868 A5030000 		.4byte	.LASF114
 2135 086c E604     		.2byte	0x4e6
 2136 086e 00000000 		.4byte	.LFB456
 2137 0872 12000000 		.4byte	.LFE456-.LFB456
 2138 0876 01       		.uleb128 0x1
 2139 0877 9C       		.byte	0x9c
 2140 0878 9F080000 		.4byte	0x89f
 2141 087c 0C       		.uleb128 0xc
 2142 087d 75060000 		.4byte	.LASF115
 2143 0881 E604     		.2byte	0x4e6
 2144 0883 36       		.byte	0x36
 2145 0884 AC060000 		.4byte	0x6ac
 2146 0888 01       		.uleb128 0x1
 2147 0889 50       		.byte	0x50
 2148 088a 07       		.uleb128 0x7
 2149 088b FE040000 		.4byte	.LASF116
 2150 088f E704     		.2byte	0x4e7
 2151 0891 38       		.byte	0x38
 2152 0892 BE060000 		.4byte	0x6be
 2153 0896 61000000 		.4byte	.LLST16
 2154 089a 5D000000 		.4byte	.LVUS16
 2155 089e 00       		.byte	0
 2156 089f 04       		.uleb128 0x4
 2157 08a0 93010000 		.4byte	.LASF117
 2158 08a4 CA04     		.2byte	0x4ca
 2159 08a6 00000000 		.4byte	.LFB455
 2160 08aa 18000000 		.4byte	.LFE455-.LFB455
 2161 08ae 01       		.uleb128 0x1
 2162 08af 9C       		.byte	0x9c
ARM GAS  C:\Users\DEVELO~1\AppData\Local\Temp\ccSISJ8X.s 			page 39


 2163 08b0 F9080000 		.4byte	0x8f9
 2164 08b4 07       		.uleb128 0x7
 2165 08b5 75060000 		.4byte	.LASF115
 2166 08b9 CA04     		.2byte	0x4ca
 2167 08bb 35       		.byte	0x35
 2168 08bc AC060000 		.4byte	0x6ac
 2169 08c0 78000000 		.4byte	.LLST13
 2170 08c4 74000000 		.4byte	.LVUS13
 2171 08c8 07       		.uleb128 0x7
 2172 08c9 FE040000 		.4byte	.LASF116
 2173 08cd CB04     		.2byte	0x4cb
 2174 08cf 37       		.byte	0x37
 2175 08d0 BE060000 		.4byte	0x6be
 2176 08d4 8F000000 		.4byte	.LLST14
 2177 08d8 8B000000 		.4byte	.LVUS14
 2178 08dc 14       		.uleb128 0x14
 2179 08dd 81060000 		.4byte	.LASF110
 2180 08e1 CC04     		.2byte	0x4cc
 2181 08e3 97000000 		.4byte	0x97
 2182 08e7 A4000000 		.4byte	.LLST15
 2183 08eb A2000000 		.4byte	.LVUS15
 2184 08ef 1A       		.uleb128 0x1a
 2185 08f0 E0040000 		.4byte	.LASF126
 2186 08f4 09090000 		.4byte	0x909
 2187 08f8 00       		.byte	0
 2188 08f9 09       		.uleb128 0x9
 2189 08fa AF000000 		.4byte	0xaf
 2190 08fe 09090000 		.4byte	0x909
 2191 0902 0A       		.uleb128 0xa
 2192 0903 26000000 		.4byte	0x26
 2193 0907 23       		.byte	0x23
 2194 0908 00       		.byte	0
 2195 0909 0E       		.uleb128 0xe
 2196 090a F9080000 		.4byte	0x8f9
 2197 090e 04       		.uleb128 0x4
 2198 090f 0F040000 		.4byte	.LASF118
 2199 0913 BA04     		.2byte	0x4ba
 2200 0915 00000000 		.4byte	.LFB454
 2201 0919 0C000000 		.4byte	.LFE454-.LFB454
 2202 091d 01       		.uleb128 0x1
 2203 091e 9C       		.byte	0x9c
 2204 091f 32090000 		.4byte	0x932
 2205 0923 0C       		.uleb128 0xc
 2206 0924 75060000 		.4byte	.LASF115
 2207 0928 BA04     		.2byte	0x4ba
 2208 092a 37       		.byte	0x37
 2209 092b AC060000 		.4byte	0x6ac
 2210 092f 01       		.uleb128 0x1
 2211 0930 50       		.byte	0x50
 2212 0931 00       		.byte	0
 2213 0932 04       		.uleb128 0x4
 2214 0933 34020000 		.4byte	.LASF119
 2215 0937 A604     		.2byte	0x4a6
 2216 0939 00000000 		.4byte	.LFB453
 2217 093d 16000000 		.4byte	.LFE453-.LFB453
 2218 0941 01       		.uleb128 0x1
 2219 0942 9C       		.byte	0x9c
ARM GAS  C:\Users\DEVELO~1\AppData\Local\Temp\ccSISJ8X.s 			page 40


 2220 0943 69090000 		.4byte	0x969
 2221 0947 0C       		.uleb128 0xc
 2222 0948 75060000 		.4byte	.LASF115
 2223 094c A604     		.2byte	0x4a6
 2224 094e 36       		.byte	0x36
 2225 094f AC060000 		.4byte	0x6ac
 2226 0953 01       		.uleb128 0x1
 2227 0954 50       		.byte	0x50
 2228 0955 14       		.uleb128 0x14
 2229 0956 81060000 		.4byte	.LASF110
 2230 095a A704     		.2byte	0x4a7
 2231 095c 97000000 		.4byte	0x97
 2232 0960 AF000000 		.4byte	.LLST12
 2233 0964 AD000000 		.4byte	.LVUS12
 2234 0968 00       		.byte	0
 2235 0969 04       		.uleb128 0x4
 2236 096a C5000000 		.4byte	.LASF120
 2237 096e 8E04     		.2byte	0x48e
 2238 0970 00000000 		.4byte	.LFB452
 2239 0974 34000000 		.4byte	.LFE452-.LFB452
 2240 0978 01       		.uleb128 0x1
 2241 0979 9C       		.byte	0x9c
 2242 097a A7090000 		.4byte	0x9a7
 2243 097e 07       		.uleb128 0x7
 2244 097f 75060000 		.4byte	.LASF115
 2245 0983 8E04     		.2byte	0x48e
 2246 0985 29       		.byte	0x29
 2247 0986 AC060000 		.4byte	0x6ac
 2248 098a BE000000 		.4byte	.LLST10
 2249 098e B8000000 		.4byte	.LVUS10
 2250 0992 07       		.uleb128 0x7
 2251 0993 FE040000 		.4byte	.LASF116
 2252 0997 8E04     		.2byte	0x48e
 2253 0999 3C       		.byte	0x3c
 2254 099a BE060000 		.4byte	0x6be
 2255 099e DE000000 		.4byte	.LLST11
 2256 09a2 D6000000 		.4byte	.LVUS11
 2257 09a6 00       		.byte	0
 2258 09a7 04       		.uleb128 0x4
 2259 09a8 5B050000 		.4byte	.LASF121
 2260 09ac 7304     		.2byte	0x473
 2261 09ae 00000000 		.4byte	.LFB451
 2262 09b2 18000000 		.4byte	.LFE451-.LFB451
 2263 09b6 01       		.uleb128 0x1
 2264 09b7 9C       		.byte	0x9c
 2265 09b8 ED090000 		.4byte	0x9ed
 2266 09bc 0C       		.uleb128 0xc
 2267 09bd 75060000 		.4byte	.LASF115
 2268 09c1 7304     		.2byte	0x473
 2269 09c3 28       		.byte	0x28
 2270 09c4 AC060000 		.4byte	0x6ac
 2271 09c8 01       		.uleb128 0x1
 2272 09c9 50       		.byte	0x50
 2273 09ca 07       		.uleb128 0x7
 2274 09cb FE040000 		.4byte	.LASF116
 2275 09cf 7404     		.2byte	0x474
 2276 09d1 2A       		.byte	0x2a
ARM GAS  C:\Users\DEVELO~1\AppData\Local\Temp\ccSISJ8X.s 			page 41


 2277 09d2 BE060000 		.4byte	0x6be
 2278 09d6 06010000 		.4byte	.LLST9
 2279 09da FE000000 		.4byte	.LVUS9
 2280 09de 0C       		.uleb128 0xc
 2281 09df 84020000 		.4byte	.LASF122
 2282 09e3 7504     		.2byte	0x475
 2283 09e5 26       		.byte	0x26
 2284 09e6 D8060000 		.4byte	0x6d8
 2285 09ea 01       		.uleb128 0x1
 2286 09eb 52       		.byte	0x52
 2287 09ec 00       		.byte	0
 2288 09ed 04       		.uleb128 0x4
 2289 09ee 1D050000 		.4byte	.LASF123
 2290 09f2 D903     		.2byte	0x3d9
 2291 09f4 00000000 		.4byte	.LFB450
 2292 09f8 48000000 		.4byte	.LFE450-.LFB450
 2293 09fc 01       		.uleb128 0x1
 2294 09fd 9C       		.byte	0x9c
 2295 09fe 350A0000 		.4byte	0xa35
 2296 0a02 0C       		.uleb128 0xc
 2297 0a03 75060000 		.4byte	.LASF115
 2298 0a07 D903     		.2byte	0x3d9
 2299 0a09 1E       		.byte	0x1e
 2300 0a0a AC060000 		.4byte	0x6ac
 2301 0a0e 01       		.uleb128 0x1
 2302 0a0f 50       		.byte	0x50
 2303 0a10 15       		.uleb128 0x15
 2304 0a11 5A0B0000 		.4byte	0xb5a
 2305 0a15 1E000000 		.4byte	.LBI19
 2306 0a19 01       		.byte	.LVU245
 2307 0a1a 1E000000 		.4byte	.LBB19
 2308 0a1e 1E000000 		.4byte	.LBE19-.LBB19
 2309 0a22 01       		.byte	0x1
 2310 0a23 1804     		.2byte	0x418
 2311 0a25 07       		.byte	0x7
 2312 0a26 0D       		.uleb128 0xd
 2313 0a27 650B0000 		.4byte	0xb65
 2314 0a2b 28010000 		.4byte	.LLST8
 2315 0a2f 26010000 		.4byte	.LVUS8
 2316 0a33 00       		.byte	0
 2317 0a34 00       		.byte	0
 2318 0a35 04       		.uleb128 0x4
 2319 0a36 7C010000 		.4byte	.LASF124
 2320 0a3a 5A02     		.2byte	0x25a
 2321 0a3c 00000000 		.4byte	.LFB449
 2322 0a40 C0010000 		.4byte	.LFE449-.LFB449
 2323 0a44 01       		.uleb128 0x1
 2324 0a45 9C       		.byte	0x9c
 2325 0a46 070B0000 		.4byte	0xb07
 2326 0a4a 07       		.uleb128 0x7
 2327 0a4b 75060000 		.4byte	.LASF115
 2328 0a4f 5A02     		.2byte	0x25a
 2329 0a51 1F       		.byte	0x1f
 2330 0a52 AC060000 		.4byte	0x6ac
 2331 0a56 40010000 		.4byte	.LLST0
 2332 0a5a 32010000 		.4byte	.LVUS0
 2333 0a5e 19       		.uleb128 0x19
ARM GAS  C:\Users\DEVELO~1\AppData\Local\Temp\ccSISJ8X.s 			page 42


 2334 0a5f 70736300 		.ascii	"psc\000"
 2335 0a63 5B02     		.2byte	0x25b
 2336 0a65 97000000 		.4byte	0x97
 2337 0a69 8F010000 		.4byte	.LLST1
 2338 0a6d 7F010000 		.4byte	.LVUS1
 2339 0a71 14       		.uleb128 0x14
 2340 0a72 64010000 		.4byte	.LASF125
 2341 0a76 5C02     		.2byte	0x25c
 2342 0a78 97000000 		.4byte	0x97
 2343 0a7c 42020000 		.4byte	.LLST2
 2344 0a80 34020000 		.4byte	.LVUS2
 2345 0a84 1A       		.uleb128 0x1a
 2346 0a85 E0040000 		.4byte	.LASF126
 2347 0a89 170B0000 		.4byte	0xb17
 2348 0a8d 25       		.uleb128 0x25
 2349 0a8e 720B0000 		.4byte	0xb72
 2350 0a92 6E010000 		.4byte	.LBI12
 2351 0a96 01       		.byte	.LVU203
 2352 0a97 0C000000 		.4byte	.LLRL3
 2353 0a9b 01       		.byte	0x1
 2354 0a9c AE02     		.2byte	0x2ae
 2355 0a9e 07       		.byte	0x7
 2356 0a9f BE0A0000 		.4byte	0xabe
 2357 0aa3 0D       		.uleb128 0xd
 2358 0aa4 890B0000 		.4byte	0xb89
 2359 0aa8 7B020000 		.4byte	.LLST4
 2360 0aac 79020000 		.4byte	.LVUS4
 2361 0ab0 0D       		.uleb128 0xd
 2362 0ab1 7D0B0000 		.4byte	0xb7d
 2363 0ab5 87020000 		.4byte	.LLST5
 2364 0ab9 85020000 		.4byte	.LVUS5
 2365 0abd 00       		.byte	0
 2366 0abe 15       		.uleb128 0x15
 2367 0abf 420B0000 		.4byte	0xb42
 2368 0ac3 8E010000 		.4byte	.LBI16
 2369 0ac7 02       		.byte	.LVU214
 2370 0ac8 8E010000 		.4byte	.LBB16
 2371 0acc 1C000000 		.4byte	.LBE16-.LBB16
 2372 0ad0 01       		.byte	0x1
 2373 0ad1 AF02     		.2byte	0x2af
 2374 0ad3 07       		.byte	0x7
 2375 0ad4 0D       		.uleb128 0xd
 2376 0ad5 4D0B0000 		.4byte	0xb4d
 2377 0ad9 93020000 		.4byte	.LLST6
 2378 0add 91020000 		.4byte	.LVUS6
 2379 0ae1 15       		.uleb128 0x15
 2380 0ae2 960B0000 		.4byte	0xb96
 2381 0ae6 8E010000 		.4byte	.LBI17
 2382 0aea 04       		.byte	.LVU216
 2383 0aeb 8E010000 		.4byte	.LBB17
 2384 0aef 1C000000 		.4byte	.LBE17-.LBB17
 2385 0af3 02       		.byte	0x2
 2386 0af4 8D01     		.2byte	0x18d
 2387 0af6 03       		.byte	0x3
 2388 0af7 0D       		.uleb128 0xd
 2389 0af8 9F0B0000 		.4byte	0xb9f
 2390 0afc 9F020000 		.4byte	.LLST7
ARM GAS  C:\Users\DEVELO~1\AppData\Local\Temp\ccSISJ8X.s 			page 43


 2391 0b00 9D020000 		.4byte	.LVUS7
 2392 0b04 00       		.byte	0
 2393 0b05 00       		.byte	0
 2394 0b06 00       		.byte	0
 2395 0b07 09       		.uleb128 0x9
 2396 0b08 AF000000 		.4byte	0xaf
 2397 0b0c 170B0000 		.4byte	0xb17
 2398 0b10 0A       		.uleb128 0xa
 2399 0b11 26000000 		.4byte	0x26
 2400 0b15 0D       		.byte	0xd
 2401 0b16 00       		.byte	0
 2402 0b17 0E       		.uleb128 0xe
 2403 0b18 070B0000 		.4byte	0xb07
 2404 0b1c 04       		.uleb128 0x4
 2405 0b1d E2000000 		.4byte	.LASF127
 2406 0b21 BE01     		.2byte	0x1be
 2407 0b23 00000000 		.4byte	.LFB448
 2408 0b27 20000000 		.4byte	.LFE448-.LFB448
 2409 0b2b 01       		.uleb128 0x1
 2410 0b2c 9C       		.byte	0x9c
 2411 0b2d 420B0000 		.4byte	0xb42
 2412 0b31 26       		.uleb128 0x26
 2413 0b32 0A000000 		.4byte	.LVL0
 2414 0b36 CB070000 		.4byte	0x7cb
 2415 0b3a 0B       		.uleb128 0xb
 2416 0b3b 01       		.uleb128 0x1
 2417 0b3c 50       		.byte	0x50
 2418 0b3d 02       		.uleb128 0x2
 2419 0b3e 74       		.byte	0x74
 2420 0b3f 00       		.sleb128 0
 2421 0b40 00       		.byte	0
 2422 0b41 00       		.byte	0
 2423 0b42 16       		.uleb128 0x16
 2424 0b43 F1040000 		.4byte	.LASF128
 2425 0b47 8101     		.2byte	0x181
 2426 0b49 5A0B0000 		.4byte	0xb5a
 2427 0b4d 17       		.uleb128 0x17
 2428 0b4e 21020000 		.4byte	.LASF130
 2429 0b52 8101     		.2byte	0x181
 2430 0b54 2C       		.byte	0x2c
 2431 0b55 97000000 		.4byte	0x97
 2432 0b59 00       		.byte	0
 2433 0b5a 16       		.uleb128 0x16
 2434 0b5b 31060000 		.4byte	.LASF129
 2435 0b5f 5F01     		.2byte	0x15f
 2436 0b61 720B0000 		.4byte	0xb72
 2437 0b65 17       		.uleb128 0x17
 2438 0b66 21020000 		.4byte	.LASF130
 2439 0b6a 5F01     		.2byte	0x15f
 2440 0b6c 2E       		.byte	0x2e
 2441 0b6d 97000000 		.4byte	0x97
 2442 0b71 00       		.byte	0
 2443 0b72 16       		.uleb128 0x16
 2444 0b73 E5030000 		.4byte	.LASF131
 2445 0b77 3F01     		.2byte	0x13f
 2446 0b79 960B0000 		.4byte	0xb96
 2447 0b7d 17       		.uleb128 0x17
ARM GAS  C:\Users\DEVELO~1\AppData\Local\Temp\ccSISJ8X.s 			page 44


 2448 0b7e 21020000 		.4byte	.LASF130
 2449 0b82 3F01     		.2byte	0x13f
 2450 0b84 2D       		.byte	0x2d
 2451 0b85 97000000 		.4byte	0x97
 2452 0b89 27       		.uleb128 0x27
 2453 0b8a 6C7000   		.ascii	"lp\000"
 2454 0b8d 02       		.byte	0x2
 2455 0b8e 3F01     		.2byte	0x13f
 2456 0b90 38       		.byte	0x38
 2457 0b91 A4040000 		.4byte	0x4a4
 2458 0b95 00       		.byte	0
 2459 0b96 28       		.uleb128 0x28
 2460 0b97 B0000000 		.4byte	.LASF136
 2461 0b9b 02       		.byte	0x2
 2462 0b9c 49       		.byte	0x49
 2463 0b9d 16       		.byte	0x16
 2464 0b9e 03       		.byte	0x3
 2465 0b9f 29       		.uleb128 0x29
 2466 0ba0 21020000 		.4byte	.LASF130
 2467 0ba4 02       		.byte	0x2
 2468 0ba5 49       		.byte	0x49
 2469 0ba6 2E       		.byte	0x2e
 2470 0ba7 97000000 		.4byte	0x97
 2471 0bab 00       		.byte	0
 2472 0bac 00       		.byte	0
 2473              		.section	.debug_abbrev,"",%progbits
 2474              	.Ldebug_abbrev0:
 2475 0000 01       		.uleb128 0x1
 2476 0001 0D       		.uleb128 0xd
 2477 0002 00       		.byte	0
 2478 0003 03       		.uleb128 0x3
 2479 0004 0E       		.uleb128 0xe
 2480 0005 3A       		.uleb128 0x3a
 2481 0006 0B       		.uleb128 0xb
 2482 0007 3B       		.uleb128 0x3b
 2483 0008 05       		.uleb128 0x5
 2484 0009 39       		.uleb128 0x39
 2485 000a 0B       		.uleb128 0xb
 2486 000b 49       		.uleb128 0x49
 2487 000c 13       		.uleb128 0x13
 2488 000d 38       		.uleb128 0x38
 2489 000e 0B       		.uleb128 0xb
 2490 000f 00       		.byte	0
 2491 0010 00       		.byte	0
 2492 0011 02       		.uleb128 0x2
 2493 0012 0D       		.uleb128 0xd
 2494 0013 00       		.byte	0
 2495 0014 03       		.uleb128 0x3
 2496 0015 08       		.uleb128 0x8
 2497 0016 3A       		.uleb128 0x3a
 2498 0017 0B       		.uleb128 0xb
 2499 0018 3B       		.uleb128 0x3b
 2500 0019 05       		.uleb128 0x5
 2501 001a 39       		.uleb128 0x39
 2502 001b 0B       		.uleb128 0xb
 2503 001c 49       		.uleb128 0x49
 2504 001d 13       		.uleb128 0x13
ARM GAS  C:\Users\DEVELO~1\AppData\Local\Temp\ccSISJ8X.s 			page 45


 2505 001e 38       		.uleb128 0x38
 2506 001f 0B       		.uleb128 0xb
 2507 0020 00       		.byte	0
 2508 0021 00       		.byte	0
 2509 0022 03       		.uleb128 0x3
 2510 0023 24       		.uleb128 0x24
 2511 0024 00       		.byte	0
 2512 0025 0B       		.uleb128 0xb
 2513 0026 0B       		.uleb128 0xb
 2514 0027 3E       		.uleb128 0x3e
 2515 0028 0B       		.uleb128 0xb
 2516 0029 03       		.uleb128 0x3
 2517 002a 0E       		.uleb128 0xe
 2518 002b 00       		.byte	0
 2519 002c 00       		.byte	0
 2520 002d 04       		.uleb128 0x4
 2521 002e 2E       		.uleb128 0x2e
 2522 002f 01       		.byte	0x1
 2523 0030 3F       		.uleb128 0x3f
 2524 0031 19       		.uleb128 0x19
 2525 0032 03       		.uleb128 0x3
 2526 0033 0E       		.uleb128 0xe
 2527 0034 3A       		.uleb128 0x3a
 2528 0035 21       		.uleb128 0x21
 2529 0036 01       		.sleb128 1
 2530 0037 3B       		.uleb128 0x3b
 2531 0038 05       		.uleb128 0x5
 2532 0039 39       		.uleb128 0x39
 2533 003a 21       		.uleb128 0x21
 2534 003b 06       		.sleb128 6
 2535 003c 27       		.uleb128 0x27
 2536 003d 19       		.uleb128 0x19
 2537 003e 11       		.uleb128 0x11
 2538 003f 01       		.uleb128 0x1
 2539 0040 12       		.uleb128 0x12
 2540 0041 06       		.uleb128 0x6
 2541 0042 40       		.uleb128 0x40
 2542 0043 18       		.uleb128 0x18
 2543 0044 7A       		.uleb128 0x7a
 2544 0045 19       		.uleb128 0x19
 2545 0046 01       		.uleb128 0x1
 2546 0047 13       		.uleb128 0x13
 2547 0048 00       		.byte	0
 2548 0049 00       		.byte	0
 2549 004a 05       		.uleb128 0x5
 2550 004b 0D       		.uleb128 0xd
 2551 004c 00       		.byte	0
 2552 004d 03       		.uleb128 0x3
 2553 004e 0E       		.uleb128 0xe
 2554 004f 3A       		.uleb128 0x3a
 2555 0050 21       		.uleb128 0x21
 2556 0051 05       		.sleb128 5
 2557 0052 3B       		.uleb128 0x3b
 2558 0053 05       		.uleb128 0x5
 2559 0054 39       		.uleb128 0x39
 2560 0055 0B       		.uleb128 0xb
 2561 0056 49       		.uleb128 0x49
ARM GAS  C:\Users\DEVELO~1\AppData\Local\Temp\ccSISJ8X.s 			page 46


 2562 0057 13       		.uleb128 0x13
 2563 0058 38       		.uleb128 0x38
 2564 0059 05       		.uleb128 0x5
 2565 005a 00       		.byte	0
 2566 005b 00       		.byte	0
 2567 005c 06       		.uleb128 0x6
 2568 005d 16       		.uleb128 0x16
 2569 005e 00       		.byte	0
 2570 005f 03       		.uleb128 0x3
 2571 0060 0E       		.uleb128 0xe
 2572 0061 3A       		.uleb128 0x3a
 2573 0062 0B       		.uleb128 0xb
 2574 0063 3B       		.uleb128 0x3b
 2575 0064 05       		.uleb128 0x5
 2576 0065 39       		.uleb128 0x39
 2577 0066 0B       		.uleb128 0xb
 2578 0067 49       		.uleb128 0x49
 2579 0068 13       		.uleb128 0x13
 2580 0069 00       		.byte	0
 2581 006a 00       		.byte	0
 2582 006b 07       		.uleb128 0x7
 2583 006c 05       		.uleb128 0x5
 2584 006d 00       		.byte	0
 2585 006e 03       		.uleb128 0x3
 2586 006f 0E       		.uleb128 0xe
 2587 0070 3A       		.uleb128 0x3a
 2588 0071 21       		.uleb128 0x21
 2589 0072 01       		.sleb128 1
 2590 0073 3B       		.uleb128 0x3b
 2591 0074 05       		.uleb128 0x5
 2592 0075 39       		.uleb128 0x39
 2593 0076 0B       		.uleb128 0xb
 2594 0077 49       		.uleb128 0x49
 2595 0078 13       		.uleb128 0x13
 2596 0079 02       		.uleb128 0x2
 2597 007a 17       		.uleb128 0x17
 2598 007b B742     		.uleb128 0x2137
 2599 007d 17       		.uleb128 0x17
 2600 007e 00       		.byte	0
 2601 007f 00       		.byte	0
 2602 0080 08       		.uleb128 0x8
 2603 0081 16       		.uleb128 0x16
 2604 0082 00       		.byte	0
 2605 0083 03       		.uleb128 0x3
 2606 0084 0E       		.uleb128 0xe
 2607 0085 3A       		.uleb128 0x3a
 2608 0086 0B       		.uleb128 0xb
 2609 0087 3B       		.uleb128 0x3b
 2610 0088 0B       		.uleb128 0xb
 2611 0089 39       		.uleb128 0x39
 2612 008a 0B       		.uleb128 0xb
 2613 008b 49       		.uleb128 0x49
 2614 008c 13       		.uleb128 0x13
 2615 008d 00       		.byte	0
 2616 008e 00       		.byte	0
 2617 008f 09       		.uleb128 0x9
 2618 0090 01       		.uleb128 0x1
ARM GAS  C:\Users\DEVELO~1\AppData\Local\Temp\ccSISJ8X.s 			page 47


 2619 0091 01       		.byte	0x1
 2620 0092 49       		.uleb128 0x49
 2621 0093 13       		.uleb128 0x13
 2622 0094 01       		.uleb128 0x1
 2623 0095 13       		.uleb128 0x13
 2624 0096 00       		.byte	0
 2625 0097 00       		.byte	0
 2626 0098 0A       		.uleb128 0xa
 2627 0099 21       		.uleb128 0x21
 2628 009a 00       		.byte	0
 2629 009b 49       		.uleb128 0x49
 2630 009c 13       		.uleb128 0x13
 2631 009d 2F       		.uleb128 0x2f
 2632 009e 0B       		.uleb128 0xb
 2633 009f 00       		.byte	0
 2634 00a0 00       		.byte	0
 2635 00a1 0B       		.uleb128 0xb
 2636 00a2 49       		.uleb128 0x49
 2637 00a3 00       		.byte	0
 2638 00a4 02       		.uleb128 0x2
 2639 00a5 18       		.uleb128 0x18
 2640 00a6 7E       		.uleb128 0x7e
 2641 00a7 18       		.uleb128 0x18
 2642 00a8 00       		.byte	0
 2643 00a9 00       		.byte	0
 2644 00aa 0C       		.uleb128 0xc
 2645 00ab 05       		.uleb128 0x5
 2646 00ac 00       		.byte	0
 2647 00ad 03       		.uleb128 0x3
 2648 00ae 0E       		.uleb128 0xe
 2649 00af 3A       		.uleb128 0x3a
 2650 00b0 21       		.uleb128 0x21
 2651 00b1 01       		.sleb128 1
 2652 00b2 3B       		.uleb128 0x3b
 2653 00b3 05       		.uleb128 0x5
 2654 00b4 39       		.uleb128 0x39
 2655 00b5 0B       		.uleb128 0xb
 2656 00b6 49       		.uleb128 0x49
 2657 00b7 13       		.uleb128 0x13
 2658 00b8 02       		.uleb128 0x2
 2659 00b9 18       		.uleb128 0x18
 2660 00ba 00       		.byte	0
 2661 00bb 00       		.byte	0
 2662 00bc 0D       		.uleb128 0xd
 2663 00bd 05       		.uleb128 0x5
 2664 00be 00       		.byte	0
 2665 00bf 31       		.uleb128 0x31
 2666 00c0 13       		.uleb128 0x13
 2667 00c1 02       		.uleb128 0x2
 2668 00c2 17       		.uleb128 0x17
 2669 00c3 B742     		.uleb128 0x2137
 2670 00c5 17       		.uleb128 0x17
 2671 00c6 00       		.byte	0
 2672 00c7 00       		.byte	0
 2673 00c8 0E       		.uleb128 0xe
 2674 00c9 26       		.uleb128 0x26
 2675 00ca 00       		.byte	0
ARM GAS  C:\Users\DEVELO~1\AppData\Local\Temp\ccSISJ8X.s 			page 48


 2676 00cb 49       		.uleb128 0x49
 2677 00cc 13       		.uleb128 0x13
 2678 00cd 00       		.byte	0
 2679 00ce 00       		.byte	0
 2680 00cf 0F       		.uleb128 0xf
 2681 00d0 0F       		.uleb128 0xf
 2682 00d1 00       		.byte	0
 2683 00d2 0B       		.uleb128 0xb
 2684 00d3 21       		.uleb128 0x21
 2685 00d4 04       		.sleb128 4
 2686 00d5 49       		.uleb128 0x49
 2687 00d6 13       		.uleb128 0x13
 2688 00d7 00       		.byte	0
 2689 00d8 00       		.byte	0
 2690 00d9 10       		.uleb128 0x10
 2691 00da 48       		.uleb128 0x48
 2692 00db 01       		.byte	0x1
 2693 00dc 7D       		.uleb128 0x7d
 2694 00dd 01       		.uleb128 0x1
 2695 00de 01       		.uleb128 0x1
 2696 00df 13       		.uleb128 0x13
 2697 00e0 00       		.byte	0
 2698 00e1 00       		.byte	0
 2699 00e2 11       		.uleb128 0x11
 2700 00e3 35       		.uleb128 0x35
 2701 00e4 00       		.byte	0
 2702 00e5 49       		.uleb128 0x49
 2703 00e6 13       		.uleb128 0x13
 2704 00e7 00       		.byte	0
 2705 00e8 00       		.byte	0
 2706 00e9 12       		.uleb128 0x12
 2707 00ea 13       		.uleb128 0x13
 2708 00eb 01       		.byte	0x1
 2709 00ec 0B       		.uleb128 0xb
 2710 00ed 0B       		.uleb128 0xb
 2711 00ee 3A       		.uleb128 0x3a
 2712 00ef 0B       		.uleb128 0xb
 2713 00f0 3B       		.uleb128 0x3b
 2714 00f1 05       		.uleb128 0x5
 2715 00f2 39       		.uleb128 0x39
 2716 00f3 21       		.uleb128 0x21
 2717 00f4 09       		.sleb128 9
 2718 00f5 01       		.uleb128 0x1
 2719 00f6 13       		.uleb128 0x13
 2720 00f7 00       		.byte	0
 2721 00f8 00       		.byte	0
 2722 00f9 13       		.uleb128 0x13
 2723 00fa 28       		.uleb128 0x28
 2724 00fb 00       		.byte	0
 2725 00fc 03       		.uleb128 0x3
 2726 00fd 0E       		.uleb128 0xe
 2727 00fe 1C       		.uleb128 0x1c
 2728 00ff 0B       		.uleb128 0xb
 2729 0100 00       		.byte	0
 2730 0101 00       		.byte	0
 2731 0102 14       		.uleb128 0x14
 2732 0103 34       		.uleb128 0x34
ARM GAS  C:\Users\DEVELO~1\AppData\Local\Temp\ccSISJ8X.s 			page 49


 2733 0104 00       		.byte	0
 2734 0105 03       		.uleb128 0x3
 2735 0106 0E       		.uleb128 0xe
 2736 0107 3A       		.uleb128 0x3a
 2737 0108 21       		.uleb128 0x21
 2738 0109 01       		.sleb128 1
 2739 010a 3B       		.uleb128 0x3b
 2740 010b 05       		.uleb128 0x5
 2741 010c 39       		.uleb128 0x39
 2742 010d 21       		.uleb128 0x21
 2743 010e 0C       		.sleb128 12
 2744 010f 49       		.uleb128 0x49
 2745 0110 13       		.uleb128 0x13
 2746 0111 02       		.uleb128 0x2
 2747 0112 17       		.uleb128 0x17
 2748 0113 B742     		.uleb128 0x2137
 2749 0115 17       		.uleb128 0x17
 2750 0116 00       		.byte	0
 2751 0117 00       		.byte	0
 2752 0118 15       		.uleb128 0x15
 2753 0119 1D       		.uleb128 0x1d
 2754 011a 01       		.byte	0x1
 2755 011b 31       		.uleb128 0x31
 2756 011c 13       		.uleb128 0x13
 2757 011d 52       		.uleb128 0x52
 2758 011e 01       		.uleb128 0x1
 2759 011f B842     		.uleb128 0x2138
 2760 0121 0B       		.uleb128 0xb
 2761 0122 11       		.uleb128 0x11
 2762 0123 01       		.uleb128 0x1
 2763 0124 12       		.uleb128 0x12
 2764 0125 06       		.uleb128 0x6
 2765 0126 58       		.uleb128 0x58
 2766 0127 0B       		.uleb128 0xb
 2767 0128 59       		.uleb128 0x59
 2768 0129 05       		.uleb128 0x5
 2769 012a 57       		.uleb128 0x57
 2770 012b 0B       		.uleb128 0xb
 2771 012c 00       		.byte	0
 2772 012d 00       		.byte	0
 2773 012e 16       		.uleb128 0x16
 2774 012f 2E       		.uleb128 0x2e
 2775 0130 01       		.byte	0x1
 2776 0131 03       		.uleb128 0x3
 2777 0132 0E       		.uleb128 0xe
 2778 0133 3A       		.uleb128 0x3a
 2779 0134 21       		.uleb128 0x21
 2780 0135 02       		.sleb128 2
 2781 0136 3B       		.uleb128 0x3b
 2782 0137 05       		.uleb128 0x5
 2783 0138 39       		.uleb128 0x39
 2784 0139 21       		.uleb128 0x21
 2785 013a 16       		.sleb128 22
 2786 013b 27       		.uleb128 0x27
 2787 013c 19       		.uleb128 0x19
 2788 013d 20       		.uleb128 0x20
 2789 013e 21       		.uleb128 0x21
ARM GAS  C:\Users\DEVELO~1\AppData\Local\Temp\ccSISJ8X.s 			page 50


 2790 013f 03       		.sleb128 3
 2791 0140 01       		.uleb128 0x1
 2792 0141 13       		.uleb128 0x13
 2793 0142 00       		.byte	0
 2794 0143 00       		.byte	0
 2795 0144 17       		.uleb128 0x17
 2796 0145 05       		.uleb128 0x5
 2797 0146 00       		.byte	0
 2798 0147 03       		.uleb128 0x3
 2799 0148 0E       		.uleb128 0xe
 2800 0149 3A       		.uleb128 0x3a
 2801 014a 21       		.uleb128 0x21
 2802 014b 02       		.sleb128 2
 2803 014c 3B       		.uleb128 0x3b
 2804 014d 05       		.uleb128 0x5
 2805 014e 39       		.uleb128 0x39
 2806 014f 0B       		.uleb128 0xb
 2807 0150 49       		.uleb128 0x49
 2808 0151 13       		.uleb128 0x13
 2809 0152 00       		.byte	0
 2810 0153 00       		.byte	0
 2811 0154 18       		.uleb128 0x18
 2812 0155 05       		.uleb128 0x5
 2813 0156 00       		.byte	0
 2814 0157 49       		.uleb128 0x49
 2815 0158 13       		.uleb128 0x13
 2816 0159 00       		.byte	0
 2817 015a 00       		.byte	0
 2818 015b 19       		.uleb128 0x19
 2819 015c 34       		.uleb128 0x34
 2820 015d 00       		.byte	0
 2821 015e 03       		.uleb128 0x3
 2822 015f 08       		.uleb128 0x8
 2823 0160 3A       		.uleb128 0x3a
 2824 0161 21       		.uleb128 0x21
 2825 0162 01       		.sleb128 1
 2826 0163 3B       		.uleb128 0x3b
 2827 0164 05       		.uleb128 0x5
 2828 0165 39       		.uleb128 0x39
 2829 0166 21       		.uleb128 0x21
 2830 0167 0C       		.sleb128 12
 2831 0168 49       		.uleb128 0x49
 2832 0169 13       		.uleb128 0x13
 2833 016a 02       		.uleb128 0x2
 2834 016b 17       		.uleb128 0x17
 2835 016c B742     		.uleb128 0x2137
 2836 016e 17       		.uleb128 0x17
 2837 016f 00       		.byte	0
 2838 0170 00       		.byte	0
 2839 0171 1A       		.uleb128 0x1a
 2840 0172 34       		.uleb128 0x34
 2841 0173 00       		.byte	0
 2842 0174 03       		.uleb128 0x3
 2843 0175 0E       		.uleb128 0xe
 2844 0176 49       		.uleb128 0x49
 2845 0177 13       		.uleb128 0x13
 2846 0178 34       		.uleb128 0x34
ARM GAS  C:\Users\DEVELO~1\AppData\Local\Temp\ccSISJ8X.s 			page 51


 2847 0179 19       		.uleb128 0x19
 2848 017a 00       		.byte	0
 2849 017b 00       		.byte	0
 2850 017c 1B       		.uleb128 0x1b
 2851 017d 11       		.uleb128 0x11
 2852 017e 01       		.byte	0x1
 2853 017f 25       		.uleb128 0x25
 2854 0180 0E       		.uleb128 0xe
 2855 0181 13       		.uleb128 0x13
 2856 0182 0B       		.uleb128 0xb
 2857 0183 03       		.uleb128 0x3
 2858 0184 0E       		.uleb128 0xe
 2859 0185 1B       		.uleb128 0x1b
 2860 0186 0E       		.uleb128 0xe
 2861 0187 55       		.uleb128 0x55
 2862 0188 17       		.uleb128 0x17
 2863 0189 11       		.uleb128 0x11
 2864 018a 01       		.uleb128 0x1
 2865 018b 10       		.uleb128 0x10
 2866 018c 17       		.uleb128 0x17
 2867 018d 00       		.byte	0
 2868 018e 00       		.byte	0
 2869 018f 1C       		.uleb128 0x1c
 2870 0190 24       		.uleb128 0x24
 2871 0191 00       		.byte	0
 2872 0192 0B       		.uleb128 0xb
 2873 0193 0B       		.uleb128 0xb
 2874 0194 3E       		.uleb128 0x3e
 2875 0195 0B       		.uleb128 0xb
 2876 0196 03       		.uleb128 0x3
 2877 0197 08       		.uleb128 0x8
 2878 0198 00       		.byte	0
 2879 0199 00       		.byte	0
 2880 019a 1D       		.uleb128 0x1d
 2881 019b 13       		.uleb128 0x13
 2882 019c 01       		.byte	0x1
 2883 019d 0B       		.uleb128 0xb
 2884 019e 05       		.uleb128 0x5
 2885 019f 3A       		.uleb128 0x3a
 2886 01a0 0B       		.uleb128 0xb
 2887 01a1 3B       		.uleb128 0x3b
 2888 01a2 05       		.uleb128 0x5
 2889 01a3 39       		.uleb128 0x39
 2890 01a4 0B       		.uleb128 0xb
 2891 01a5 01       		.uleb128 0x1
 2892 01a6 13       		.uleb128 0x13
 2893 01a7 00       		.byte	0
 2894 01a8 00       		.byte	0
 2895 01a9 1E       		.uleb128 0x1e
 2896 01aa 04       		.uleb128 0x4
 2897 01ab 01       		.byte	0x1
 2898 01ac 3E       		.uleb128 0x3e
 2899 01ad 0B       		.uleb128 0xb
 2900 01ae 0B       		.uleb128 0xb
 2901 01af 0B       		.uleb128 0xb
 2902 01b0 49       		.uleb128 0x49
 2903 01b1 13       		.uleb128 0x13
ARM GAS  C:\Users\DEVELO~1\AppData\Local\Temp\ccSISJ8X.s 			page 52


 2904 01b2 3A       		.uleb128 0x3a
 2905 01b3 0B       		.uleb128 0xb
 2906 01b4 3B       		.uleb128 0x3b
 2907 01b5 0B       		.uleb128 0xb
 2908 01b6 39       		.uleb128 0x39
 2909 01b7 0B       		.uleb128 0xb
 2910 01b8 01       		.uleb128 0x1
 2911 01b9 13       		.uleb128 0x13
 2912 01ba 00       		.byte	0
 2913 01bb 00       		.byte	0
 2914 01bc 1F       		.uleb128 0x1f
 2915 01bd 13       		.uleb128 0x13
 2916 01be 01       		.byte	0x1
 2917 01bf 03       		.uleb128 0x3
 2918 01c0 0E       		.uleb128 0xe
 2919 01c1 0B       		.uleb128 0xb
 2920 01c2 0B       		.uleb128 0xb
 2921 01c3 3A       		.uleb128 0x3a
 2922 01c4 0B       		.uleb128 0xb
 2923 01c5 3B       		.uleb128 0x3b
 2924 01c6 05       		.uleb128 0x5
 2925 01c7 39       		.uleb128 0x39
 2926 01c8 0B       		.uleb128 0xb
 2927 01c9 01       		.uleb128 0x1
 2928 01ca 13       		.uleb128 0x13
 2929 01cb 00       		.byte	0
 2930 01cc 00       		.byte	0
 2931 01cd 20       		.uleb128 0x20
 2932 01ce 15       		.uleb128 0x15
 2933 01cf 01       		.byte	0x1
 2934 01d0 27       		.uleb128 0x27
 2935 01d1 19       		.uleb128 0x19
 2936 01d2 01       		.uleb128 0x1
 2937 01d3 13       		.uleb128 0x13
 2938 01d4 00       		.byte	0
 2939 01d5 00       		.byte	0
 2940 01d6 21       		.uleb128 0x21
 2941 01d7 34       		.uleb128 0x34
 2942 01d8 00       		.byte	0
 2943 01d9 03       		.uleb128 0x3
 2944 01da 0E       		.uleb128 0xe
 2945 01db 3A       		.uleb128 0x3a
 2946 01dc 0B       		.uleb128 0xb
 2947 01dd 3B       		.uleb128 0x3b
 2948 01de 05       		.uleb128 0x5
 2949 01df 39       		.uleb128 0x39
 2950 01e0 0B       		.uleb128 0xb
 2951 01e1 49       		.uleb128 0x49
 2952 01e2 13       		.uleb128 0x13
 2953 01e3 3F       		.uleb128 0x3f
 2954 01e4 19       		.uleb128 0x19
 2955 01e5 3C       		.uleb128 0x3c
 2956 01e6 19       		.uleb128 0x19
 2957 01e7 00       		.byte	0
 2958 01e8 00       		.byte	0
 2959 01e9 22       		.uleb128 0x22
 2960 01ea 34       		.uleb128 0x34
ARM GAS  C:\Users\DEVELO~1\AppData\Local\Temp\ccSISJ8X.s 			page 53


 2961 01eb 00       		.byte	0
 2962 01ec 47       		.uleb128 0x47
 2963 01ed 13       		.uleb128 0x13
 2964 01ee 3A       		.uleb128 0x3a
 2965 01ef 0B       		.uleb128 0xb
 2966 01f0 3B       		.uleb128 0x3b
 2967 01f1 0B       		.uleb128 0xb
 2968 01f2 39       		.uleb128 0x39
 2969 01f3 0B       		.uleb128 0xb
 2970 01f4 02       		.uleb128 0x2
 2971 01f5 18       		.uleb128 0x18
 2972 01f6 00       		.byte	0
 2973 01f7 00       		.byte	0
 2974 01f8 23       		.uleb128 0x23
 2975 01f9 2E       		.uleb128 0x2e
 2976 01fa 01       		.byte	0x1
 2977 01fb 3F       		.uleb128 0x3f
 2978 01fc 19       		.uleb128 0x19
 2979 01fd 03       		.uleb128 0x3
 2980 01fe 0E       		.uleb128 0xe
 2981 01ff 3A       		.uleb128 0x3a
 2982 0200 0B       		.uleb128 0xb
 2983 0201 3B       		.uleb128 0x3b
 2984 0202 05       		.uleb128 0x5
 2985 0203 39       		.uleb128 0x39
 2986 0204 0B       		.uleb128 0xb
 2987 0205 27       		.uleb128 0x27
 2988 0206 19       		.uleb128 0x19
 2989 0207 3C       		.uleb128 0x3c
 2990 0208 19       		.uleb128 0x19
 2991 0209 01       		.uleb128 0x1
 2992 020a 13       		.uleb128 0x13
 2993 020b 00       		.byte	0
 2994 020c 00       		.byte	0
 2995 020d 24       		.uleb128 0x24
 2996 020e 48       		.uleb128 0x48
 2997 020f 01       		.byte	0x1
 2998 0210 7D       		.uleb128 0x7d
 2999 0211 01       		.uleb128 0x1
 3000 0212 8201     		.uleb128 0x82
 3001 0214 19       		.uleb128 0x19
 3002 0215 00       		.byte	0
 3003 0216 00       		.byte	0
 3004 0217 25       		.uleb128 0x25
 3005 0218 1D       		.uleb128 0x1d
 3006 0219 01       		.byte	0x1
 3007 021a 31       		.uleb128 0x31
 3008 021b 13       		.uleb128 0x13
 3009 021c 52       		.uleb128 0x52
 3010 021d 01       		.uleb128 0x1
 3011 021e B842     		.uleb128 0x2138
 3012 0220 0B       		.uleb128 0xb
 3013 0221 55       		.uleb128 0x55
 3014 0222 17       		.uleb128 0x17
 3015 0223 58       		.uleb128 0x58
 3016 0224 0B       		.uleb128 0xb
 3017 0225 59       		.uleb128 0x59
ARM GAS  C:\Users\DEVELO~1\AppData\Local\Temp\ccSISJ8X.s 			page 54


 3018 0226 05       		.uleb128 0x5
 3019 0227 57       		.uleb128 0x57
 3020 0228 0B       		.uleb128 0xb
 3021 0229 01       		.uleb128 0x1
 3022 022a 13       		.uleb128 0x13
 3023 022b 00       		.byte	0
 3024 022c 00       		.byte	0
 3025 022d 26       		.uleb128 0x26
 3026 022e 48       		.uleb128 0x48
 3027 022f 01       		.byte	0x1
 3028 0230 7D       		.uleb128 0x7d
 3029 0231 01       		.uleb128 0x1
 3030 0232 7F       		.uleb128 0x7f
 3031 0233 13       		.uleb128 0x13
 3032 0234 00       		.byte	0
 3033 0235 00       		.byte	0
 3034 0236 27       		.uleb128 0x27
 3035 0237 05       		.uleb128 0x5
 3036 0238 00       		.byte	0
 3037 0239 03       		.uleb128 0x3
 3038 023a 08       		.uleb128 0x8
 3039 023b 3A       		.uleb128 0x3a
 3040 023c 0B       		.uleb128 0xb
 3041 023d 3B       		.uleb128 0x3b
 3042 023e 05       		.uleb128 0x5
 3043 023f 39       		.uleb128 0x39
 3044 0240 0B       		.uleb128 0xb
 3045 0241 49       		.uleb128 0x49
 3046 0242 13       		.uleb128 0x13
 3047 0243 00       		.byte	0
 3048 0244 00       		.byte	0
 3049 0245 28       		.uleb128 0x28
 3050 0246 2E       		.uleb128 0x2e
 3051 0247 01       		.byte	0x1
 3052 0248 03       		.uleb128 0x3
 3053 0249 0E       		.uleb128 0xe
 3054 024a 3A       		.uleb128 0x3a
 3055 024b 0B       		.uleb128 0xb
 3056 024c 3B       		.uleb128 0x3b
 3057 024d 0B       		.uleb128 0xb
 3058 024e 39       		.uleb128 0x39
 3059 024f 0B       		.uleb128 0xb
 3060 0250 27       		.uleb128 0x27
 3061 0251 19       		.uleb128 0x19
 3062 0252 20       		.uleb128 0x20
 3063 0253 0B       		.uleb128 0xb
 3064 0254 00       		.byte	0
 3065 0255 00       		.byte	0
 3066 0256 29       		.uleb128 0x29
 3067 0257 05       		.uleb128 0x5
 3068 0258 00       		.byte	0
 3069 0259 03       		.uleb128 0x3
 3070 025a 0E       		.uleb128 0xe
 3071 025b 3A       		.uleb128 0x3a
 3072 025c 0B       		.uleb128 0xb
 3073 025d 3B       		.uleb128 0x3b
 3074 025e 0B       		.uleb128 0xb
ARM GAS  C:\Users\DEVELO~1\AppData\Local\Temp\ccSISJ8X.s 			page 55


 3075 025f 39       		.uleb128 0x39
 3076 0260 0B       		.uleb128 0xb
 3077 0261 49       		.uleb128 0x49
 3078 0262 13       		.uleb128 0x13
 3079 0263 00       		.byte	0
 3080 0264 00       		.byte	0
 3081 0265 00       		.byte	0
 3082              		.section	.debug_loclists,"",%progbits
 3083 0000 A5020000 		.4byte	.Ldebug_loc3-.Ldebug_loc2
 3084              	.Ldebug_loc2:
 3085 0004 0500     		.2byte	0x5
 3086 0006 04       		.byte	0x4
 3087 0007 00       		.byte	0
 3088 0008 00000000 		.4byte	0
 3089              	.Ldebug_loc0:
 3090              	.LVUS17:
 3091 000c 00       		.uleb128 0
 3092 000d 00       		.uleb128 .LVU347
 3093 000e 00       		.uleb128 .LVU347
 3094 000f 00       		.uleb128 .LVU368
 3095 0010 00       		.uleb128 .LVU368
 3096 0011 00       		.uleb128 .LVU369
 3097 0012 00       		.uleb128 .LVU369
 3098 0013 00       		.uleb128 .LVU369
 3099 0014 00       		.uleb128 .LVU369
 3100 0015 00       		.uleb128 0
 3101              	.LLST17:
 3102 0016 06       		.byte	0x6
 3103 0017 00000000 		.4byte	.LVL59
 3104 001b 04       		.byte	0x4
 3105 001c 00       		.uleb128 .LVL59-.LVL59
 3106 001d 1F       		.uleb128 .LVL62-1-.LVL59
 3107 001e 01       		.uleb128 0x1
 3108 001f 50       		.byte	0x50
 3109 0020 04       		.byte	0x4
 3110 0021 1F       		.uleb128 .LVL62-1-.LVL59
 3111 0022 5A       		.uleb128 .LVL66-.LVL59
 3112 0023 01       		.uleb128 0x1
 3113 0024 55       		.byte	0x55
 3114 0025 04       		.byte	0x4
 3115 0026 5A       		.uleb128 .LVL66-.LVL59
 3116 0027 5B       		.uleb128 .LVL67-1-.LVL59
 3117 0028 01       		.uleb128 0x1
 3118 0029 50       		.byte	0x50
 3119 002a 04       		.byte	0x4
 3120 002b 5B       		.uleb128 .LVL67-1-.LVL59
 3121 002c 5C       		.uleb128 .LVL67-.LVL59
 3122 002d 04       		.uleb128 0x4
 3123 002e A3       		.byte	0xa3
 3124 002f 01       		.uleb128 0x1
 3125 0030 50       		.byte	0x50
 3126 0031 9F       		.byte	0x9f
 3127 0032 04       		.byte	0x4
 3128 0033 5C       		.uleb128 .LVL67-.LVL59
 3129 0034 5E       		.uleb128 .LFE457-.LVL59
 3130 0035 01       		.uleb128 0x1
 3131 0036 55       		.byte	0x55
ARM GAS  C:\Users\DEVELO~1\AppData\Local\Temp\ccSISJ8X.s 			page 56


 3132 0037 00       		.byte	0
 3133              	.LVUS18:
 3134 0038 00       		.uleb128 .LVU334
 3135 0039 00       		.uleb128 .LVU337
 3136 003a 00       		.uleb128 .LVU337
 3137 003b 00       		.uleb128 .LVU368
 3138 003c 00       		.uleb128 .LVU369
 3139 003d 00       		.uleb128 0
 3140              	.LLST18:
 3141 003e 06       		.byte	0x6
 3142 003f 06000000 		.4byte	.LVL60
 3143 0043 04       		.byte	0x4
 3144 0044 00       		.uleb128 .LVL60-.LVL60
 3145 0045 06       		.uleb128 .LVL61-.LVL60
 3146 0046 01       		.uleb128 0x1
 3147 0047 52       		.byte	0x52
 3148 0048 04       		.byte	0x4
 3149 0049 06       		.uleb128 .LVL61-.LVL60
 3150 004a 54       		.uleb128 .LVL66-.LVL60
 3151 004b 06       		.uleb128 0x6
 3152 004c 74       		.byte	0x74
 3153 004d 00       		.sleb128 0
 3154 004e 08       		.byte	0x8
 3155 004f FF       		.byte	0xff
 3156 0050 1A       		.byte	0x1a
 3157 0051 9F       		.byte	0x9f
 3158 0052 04       		.byte	0x4
 3159 0053 56       		.uleb128 .LVL67-.LVL60
 3160 0054 58       		.uleb128 .LFE457-.LVL60
 3161 0055 06       		.uleb128 0x6
 3162 0056 74       		.byte	0x74
 3163 0057 00       		.sleb128 0
 3164 0058 08       		.byte	0x8
 3165 0059 FF       		.byte	0xff
 3166 005a 1A       		.byte	0x1a
 3167 005b 9F       		.byte	0x9f
 3168 005c 00       		.byte	0
 3169              	.LVUS16:
 3170 005d 00       		.uleb128 0
 3171 005e 00       		.uleb128 .LVU326
 3172 005f 00       		.uleb128 .LVU326
 3173 0060 00       		.uleb128 0
 3174              	.LLST16:
 3175 0061 06       		.byte	0x6
 3176 0062 00000000 		.4byte	.LVL57
 3177 0066 04       		.byte	0x4
 3178 0067 00       		.uleb128 .LVL57-.LVL57
 3179 0068 08       		.uleb128 .LVL58-.LVL57
 3180 0069 01       		.uleb128 0x1
 3181 006a 51       		.byte	0x51
 3182 006b 04       		.byte	0x4
 3183 006c 08       		.uleb128 .LVL58-.LVL57
 3184 006d 12       		.uleb128 .LFE456-.LVL57
 3185 006e 04       		.uleb128 0x4
 3186 006f A3       		.byte	0xa3
 3187 0070 01       		.uleb128 0x1
 3188 0071 51       		.byte	0x51
ARM GAS  C:\Users\DEVELO~1\AppData\Local\Temp\ccSISJ8X.s 			page 57


 3189 0072 9F       		.byte	0x9f
 3190 0073 00       		.byte	0
 3191              	.LVUS13:
 3192 0074 00       		.uleb128 0
 3193 0075 00       		.uleb128 .LVU316
 3194 0076 00       		.uleb128 .LVU316
 3195 0077 00       		.uleb128 0
 3196              	.LLST13:
 3197 0078 06       		.byte	0x6
 3198 0079 00000000 		.4byte	.LVL53
 3199 007d 04       		.byte	0x4
 3200 007e 00       		.uleb128 .LVL53-.LVL53
 3201 007f 10       		.uleb128 .LVL56-.LVL53
 3202 0080 01       		.uleb128 0x1
 3203 0081 50       		.byte	0x50
 3204 0082 04       		.byte	0x4
 3205 0083 10       		.uleb128 .LVL56-.LVL53
 3206 0084 18       		.uleb128 .LFE455-.LVL53
 3207 0085 04       		.uleb128 0x4
 3208 0086 A3       		.byte	0xa3
 3209 0087 01       		.uleb128 0x1
 3210 0088 50       		.byte	0x50
 3211 0089 9F       		.byte	0x9f
 3212 008a 00       		.byte	0
 3213              	.LVUS14:
 3214 008b 00       		.uleb128 0
 3215 008c 00       		.uleb128 .LVU308
 3216 008d 00       		.uleb128 .LVU308
 3217 008e 00       		.uleb128 0
 3218              	.LLST14:
 3219 008f 06       		.byte	0x6
 3220 0090 00000000 		.4byte	.LVL53
 3221 0094 04       		.byte	0x4
 3222 0095 00       		.uleb128 .LVL53-.LVL53
 3223 0096 08       		.uleb128 .LVL54-.LVL53
 3224 0097 01       		.uleb128 0x1
 3225 0098 51       		.byte	0x51
 3226 0099 04       		.byte	0x4
 3227 009a 08       		.uleb128 .LVL54-.LVL53
 3228 009b 18       		.uleb128 .LFE455-.LVL53
 3229 009c 04       		.uleb128 0x4
 3230 009d A3       		.byte	0xa3
 3231 009e 01       		.uleb128 0x1
 3232 009f 51       		.byte	0x51
 3233 00a0 9F       		.byte	0x9f
 3234 00a1 00       		.byte	0
 3235              	.LVUS15:
 3236 00a2 00       		.uleb128 .LVU309
 3237 00a3 00       		.uleb128 0
 3238              	.LLST15:
 3239 00a4 08       		.byte	0x8
 3240 00a5 0A000000 		.4byte	.LVL55
 3241 00a9 0E       		.uleb128 .LFE455-.LVL55
 3242 00aa 01       		.uleb128 0x1
 3243 00ab 53       		.byte	0x53
 3244 00ac 00       		.byte	0
 3245              	.LVUS12:
ARM GAS  C:\Users\DEVELO~1\AppData\Local\Temp\ccSISJ8X.s 			page 58


 3246 00ad 00       		.uleb128 .LVU289
 3247 00ae 00       		.uleb128 .LVU294
 3248              	.LLST12:
 3249 00af 08       		.byte	0x8
 3250 00b0 04000000 		.4byte	.LVL50
 3251 00b4 0C       		.uleb128 .LVL51-.LVL50
 3252 00b5 01       		.uleb128 0x1
 3253 00b6 53       		.byte	0x53
 3254 00b7 00       		.byte	0
 3255              	.LVUS10:
 3256 00b8 00       		.uleb128 0
 3257 00b9 00       		.uleb128 .LVU271
 3258 00ba 00       		.uleb128 .LVU271
 3259 00bb 00       		.uleb128 .LVU281
 3260 00bc 00       		.uleb128 .LVU281
 3261 00bd 00       		.uleb128 0
 3262              	.LLST10:
 3263 00be 06       		.byte	0x6
 3264 00bf 00000000 		.4byte	.LVL44
 3265 00c3 04       		.byte	0x4
 3266 00c4 00       		.uleb128 .LVL44-.LVL44
 3267 00c5 0A       		.uleb128 .LVL45-.LVL44
 3268 00c6 01       		.uleb128 0x1
 3269 00c7 50       		.byte	0x50
 3270 00c8 04       		.byte	0x4
 3271 00c9 0A       		.uleb128 .LVL45-.LVL44
 3272 00ca 28       		.uleb128 .LVL47-.LVL44
 3273 00cb 04       		.uleb128 0x4
 3274 00cc A3       		.byte	0xa3
 3275 00cd 01       		.uleb128 0x1
 3276 00ce 50       		.byte	0x50
 3277 00cf 9F       		.byte	0x9f
 3278 00d0 04       		.byte	0x4
 3279 00d1 28       		.uleb128 .LVL47-.LVL44
 3280 00d2 34       		.uleb128 .LFE452-.LVL44
 3281 00d3 01       		.uleb128 0x1
 3282 00d4 50       		.byte	0x50
 3283 00d5 00       		.byte	0
 3284              	.LVUS11:
 3285 00d6 00       		.uleb128 0
 3286 00d7 00       		.uleb128 .LVU274
 3287 00d8 00       		.uleb128 .LVU274
 3288 00d9 00       		.uleb128 .LVU281
 3289 00da 00       		.uleb128 .LVU281
 3290 00db 00       		.uleb128 .LVU284
 3291 00dc 00       		.uleb128 .LVU284
 3292 00dd 00       		.uleb128 0
 3293              	.LLST11:
 3294 00de 06       		.byte	0x6
 3295 00df 00000000 		.4byte	.LVL44
 3296 00e3 04       		.byte	0x4
 3297 00e4 00       		.uleb128 .LVL44-.LVL44
 3298 00e5 14       		.uleb128 .LVL46-.LVL44
 3299 00e6 01       		.uleb128 0x1
 3300 00e7 51       		.byte	0x51
 3301 00e8 04       		.byte	0x4
 3302 00e9 14       		.uleb128 .LVL46-.LVL44
ARM GAS  C:\Users\DEVELO~1\AppData\Local\Temp\ccSISJ8X.s 			page 59


 3303 00ea 28       		.uleb128 .LVL47-.LVL44
 3304 00eb 04       		.uleb128 0x4
 3305 00ec A3       		.byte	0xa3
 3306 00ed 01       		.uleb128 0x1
 3307 00ee 51       		.byte	0x51
 3308 00ef 9F       		.byte	0x9f
 3309 00f0 04       		.byte	0x4
 3310 00f1 28       		.uleb128 .LVL47-.LVL44
 3311 00f2 2C       		.uleb128 .LVL48-.LVL44
 3312 00f3 01       		.uleb128 0x1
 3313 00f4 51       		.byte	0x51
 3314 00f5 04       		.byte	0x4
 3315 00f6 2C       		.uleb128 .LVL48-.LVL44
 3316 00f7 34       		.uleb128 .LFE452-.LVL44
 3317 00f8 04       		.uleb128 0x4
 3318 00f9 A3       		.byte	0xa3
 3319 00fa 01       		.uleb128 0x1
 3320 00fb 51       		.byte	0x51
 3321 00fc 9F       		.byte	0x9f
 3322 00fd 00       		.byte	0
 3323              	.LVUS9:
 3324 00fe 00       		.uleb128 0
 3325 00ff 00       		.uleb128 .LVU260
 3326 0100 00       		.uleb128 .LVU260
 3327 0101 00       		.uleb128 .LVU261
 3328 0102 00       		.uleb128 .LVU261
 3329 0103 00       		.uleb128 .LVU263
 3330 0104 00       		.uleb128 .LVU263
 3331 0105 00       		.uleb128 0
 3332              	.LLST9:
 3333 0106 06       		.byte	0x6
 3334 0107 00000000 		.4byte	.LVL40
 3335 010b 04       		.byte	0x4
 3336 010c 00       		.uleb128 .LVL40-.LVL40
 3337 010d 08       		.uleb128 .LVL41-.LVL40
 3338 010e 01       		.uleb128 0x1
 3339 010f 51       		.byte	0x51
 3340 0110 04       		.byte	0x4
 3341 0111 08       		.uleb128 .LVL41-.LVL40
 3342 0112 10       		.uleb128 .LVL42-.LVL40
 3343 0113 04       		.uleb128 0x4
 3344 0114 A3       		.byte	0xa3
 3345 0115 01       		.uleb128 0x1
 3346 0116 51       		.byte	0x51
 3347 0117 9F       		.byte	0x9f
 3348 0118 04       		.byte	0x4
 3349 0119 10       		.uleb128 .LVL42-.LVL40
 3350 011a 12       		.uleb128 .LVL43-.LVL40
 3351 011b 01       		.uleb128 0x1
 3352 011c 51       		.byte	0x51
 3353 011d 04       		.byte	0x4
 3354 011e 12       		.uleb128 .LVL43-.LVL40
 3355 011f 18       		.uleb128 .LFE451-.LVL40
 3356 0120 04       		.uleb128 0x4
 3357 0121 A3       		.byte	0xa3
 3358 0122 01       		.uleb128 0x1
 3359 0123 51       		.byte	0x51
ARM GAS  C:\Users\DEVELO~1\AppData\Local\Temp\ccSISJ8X.s 			page 60


 3360 0124 9F       		.byte	0x9f
 3361 0125 00       		.byte	0
 3362              	.LVUS8:
 3363 0126 01       		.uleb128 .LVU245
 3364 0127 00       		.uleb128 .LVU251
 3365              	.LLST8:
 3366 0128 08       		.byte	0x8
 3367 0129 1E000000 		.4byte	.LVL38
 3368 012d 1E       		.uleb128 .LVL39-.LVL38
 3369 012e 02       		.uleb128 0x2
 3370 012f 32       		.byte	0x32
 3371 0130 9F       		.byte	0x9f
 3372 0131 00       		.byte	0
 3373              	.LVUS0:
 3374 0132 00       		.uleb128 0
 3375 0133 00       		.uleb128 .LVU89
 3376 0134 00       		.uleb128 .LVU89
 3377 0135 00       		.uleb128 .LVU148
 3378 0136 00       		.uleb128 .LVU148
 3379 0137 00       		.uleb128 .LVU152
 3380 0138 00       		.uleb128 .LVU152
 3381 0139 00       		.uleb128 .LVU177
 3382 013a 00       		.uleb128 .LVU177
 3383 013b 00       		.uleb128 .LVU188
 3384 013c 00       		.uleb128 .LVU188
 3385 013d 00       		.uleb128 .LVU202
 3386 013e 00       		.uleb128 .LVU202
 3387 013f 00       		.uleb128 0
 3388              	.LLST0:
 3389 0140 06       		.byte	0x6
 3390 0141 00000000 		.4byte	.LVL1
 3391 0145 04       		.byte	0x4
 3392 0146 00       		.uleb128 .LVL1-.LVL1
 3393 0147 9401     		.uleb128 .LVL13-.LVL1
 3394 0149 01       		.uleb128 0x1
 3395 014a 50       		.byte	0x50
 3396 014b 04       		.byte	0x4
 3397 014c 9401     		.uleb128 .LVL13-.LVL1
 3398 014e 8002     		.uleb128 .LVL22-.LVL1
 3399 0150 04       		.uleb128 0x4
 3400 0151 A3       		.byte	0xa3
 3401 0152 01       		.uleb128 0x1
 3402 0153 50       		.byte	0x50
 3403 0154 9F       		.byte	0x9f
 3404 0155 04       		.byte	0x4
 3405 0156 8002     		.uleb128 .LVL22-.LVL1
 3406 0158 8602     		.uleb128 .LVL23-.LVL1
 3407 015a 01       		.uleb128 0x1
 3408 015b 50       		.byte	0x50
 3409 015c 04       		.byte	0x4
 3410 015d 8602     		.uleb128 .LVL23-.LVL1
 3411 015f C402     		.uleb128 .LVL31-.LVL1
 3412 0161 04       		.uleb128 0x4
 3413 0162 A3       		.byte	0xa3
 3414 0163 01       		.uleb128 0x1
 3415 0164 50       		.byte	0x50
 3416 0165 9F       		.byte	0x9f
ARM GAS  C:\Users\DEVELO~1\AppData\Local\Temp\ccSISJ8X.s 			page 61


 3417 0166 04       		.byte	0x4
 3418 0167 C402     		.uleb128 .LVL31-.LVL1
 3419 0169 DA02     		.uleb128 .LVL32-.LVL1
 3420 016b 01       		.uleb128 0x1
 3421 016c 50       		.byte	0x50
 3422 016d 04       		.byte	0x4
 3423 016e DA02     		.uleb128 .LVL32-.LVL1
 3424 0170 EE02     		.uleb128 .LVL34-.LVL1
 3425 0172 04       		.uleb128 0x4
 3426 0173 A3       		.byte	0xa3
 3427 0174 01       		.uleb128 0x1
 3428 0175 50       		.byte	0x50
 3429 0176 9F       		.byte	0x9f
 3430 0177 04       		.byte	0x4
 3431 0178 EE02     		.uleb128 .LVL34-.LVL1
 3432 017a C003     		.uleb128 .LFE449-.LVL1
 3433 017c 01       		.uleb128 0x1
 3434 017d 50       		.byte	0x50
 3435 017e 00       		.byte	0
 3436              	.LVUS1:
 3437 017f 00       		.uleb128 .LVU42
 3438 0180 00       		.uleb128 .LVU50
 3439 0181 00       		.uleb128 .LVU50
 3440 0182 00       		.uleb128 .LVU51
 3441 0183 00       		.uleb128 .LVU51
 3442 0184 00       		.uleb128 .LVU89
 3443 0185 00       		.uleb128 .LVU89
 3444 0186 00       		.uleb128 .LVU122
 3445 0187 00       		.uleb128 .LVU131
 3446 0188 00       		.uleb128 .LVU134
 3447 0189 00       		.uleb128 .LVU134
 3448 018a 00       		.uleb128 .LVU148
 3449 018b 00       		.uleb128 .LVU152
 3450 018c 00       		.uleb128 .LVU177
 3451 018d 00       		.uleb128 .LVU188
 3452 018e 00       		.uleb128 .LVU194
 3453              	.LLST1:
 3454 018f 06       		.byte	0x6
 3455 0190 32000000 		.4byte	.LVL2
 3456 0194 04       		.byte	0x4
 3457 0195 00       		.uleb128 .LVL2-.LVL2
 3458 0196 06       		.uleb128 .LVL3-.LVL2
 3459 0197 01       		.uleb128 0x1
 3460 0198 52       		.byte	0x52
 3461 0199 04       		.byte	0x4
 3462 019a 06       		.uleb128 .LVL3-.LVL2
 3463 019b 08       		.uleb128 .LVL4-.LVL2
 3464 019c 02       		.uleb128 0x2
 3465 019d 73       		.byte	0x73
 3466 019e 28       		.sleb128 40
 3467 019f 04       		.byte	0x4
 3468 01a0 08       		.uleb128 .LVL4-.LVL2
 3469 01a1 62       		.uleb128 .LVL13-.LVL2
 3470 01a2 10       		.uleb128 0x10
 3471 01a3 70       		.byte	0x70
 3472 01a4 14       		.sleb128 20
 3473 01a5 06       		.byte	0x6
ARM GAS  C:\Users\DEVELO~1\AppData\Local\Temp\ccSISJ8X.s 			page 62


 3474 01a6 A8       		.byte	0xa8
 3475 01a7 26       		.uleb128 0x26
 3476 01a8 71       		.byte	0x71
 3477 01a9 00       		.sleb128 0
 3478 01aa 06       		.byte	0x6
 3479 01ab A8       		.byte	0xa8
 3480 01ac 26       		.uleb128 0x26
 3481 01ad 1B       		.byte	0x1b
 3482 01ae A8       		.byte	0xa8
 3483 01af 00       		.uleb128 0
 3484 01b0 31       		.byte	0x31
 3485 01b1 1C       		.byte	0x1c
 3486 01b2 9F       		.byte	0x9f
 3487 01b3 04       		.byte	0x4
 3488 01b4 62       		.uleb128 .LVL13-.LVL2
 3489 01b5 A601     		.uleb128 .LVL17-.LVL2
 3490 01b7 13       		.uleb128 0x13
 3491 01b8 A3       		.byte	0xa3
 3492 01b9 01       		.uleb128 0x1
 3493 01ba 50       		.byte	0x50
 3494 01bb 23       		.byte	0x23
 3495 01bc 14       		.uleb128 0x14
 3496 01bd 06       		.byte	0x6
 3497 01be A8       		.byte	0xa8
 3498 01bf 26       		.uleb128 0x26
 3499 01c0 71       		.byte	0x71
 3500 01c1 00       		.sleb128 0
 3501 01c2 06       		.byte	0x6
 3502 01c3 A8       		.byte	0xa8
 3503 01c4 26       		.uleb128 0x26
 3504 01c5 1B       		.byte	0x1b
 3505 01c6 A8       		.byte	0xa8
 3506 01c7 00       		.uleb128 0
 3507 01c8 31       		.byte	0x31
 3508 01c9 1C       		.byte	0x1c
 3509 01ca 9F       		.byte	0x9f
 3510 01cb 04       		.byte	0x4
 3511 01cc B601     		.uleb128 .LVL18-.LVL2
 3512 01ce B801     		.uleb128 .LVL19-.LVL2
 3513 01d0 13       		.uleb128 0x13
 3514 01d1 A3       		.byte	0xa3
 3515 01d2 01       		.uleb128 0x1
 3516 01d3 50       		.byte	0x50
 3517 01d4 23       		.byte	0x23
 3518 01d5 14       		.uleb128 0x14
 3519 01d6 06       		.byte	0x6
 3520 01d7 A8       		.byte	0xa8
 3521 01d8 26       		.uleb128 0x26
 3522 01d9 71       		.byte	0x71
 3523 01da 00       		.sleb128 0
 3524 01db 06       		.byte	0x6
 3525 01dc A8       		.byte	0xa8
 3526 01dd 26       		.uleb128 0x26
 3527 01de 1B       		.byte	0x1b
 3528 01df A8       		.byte	0xa8
 3529 01e0 00       		.uleb128 0
 3530 01e1 31       		.byte	0x31
ARM GAS  C:\Users\DEVELO~1\AppData\Local\Temp\ccSISJ8X.s 			page 63


 3531 01e2 1C       		.byte	0x1c
 3532 01e3 9F       		.byte	0x9f
 3533 01e4 04       		.byte	0x4
 3534 01e5 B801     		.uleb128 .LVL19-.LVL2
 3535 01e7 CE01     		.uleb128 .LVL22-.LVL2
 3536 01e9 17       		.uleb128 0x17
 3537 01ea A3       		.byte	0xa3
 3538 01eb 01       		.uleb128 0x1
 3539 01ec 50       		.byte	0x50
 3540 01ed 23       		.byte	0x23
 3541 01ee 14       		.uleb128 0x14
 3542 01ef 06       		.byte	0x6
 3543 01f0 A8       		.byte	0xa8
 3544 01f1 26       		.uleb128 0x26
 3545 01f2 A3       		.byte	0xa3
 3546 01f3 01       		.uleb128 0x1
 3547 01f4 50       		.byte	0x50
 3548 01f5 23       		.byte	0x23
 3549 01f6 04       		.uleb128 0x4
 3550 01f7 06       		.byte	0x6
 3551 01f8 06       		.byte	0x6
 3552 01f9 A8       		.byte	0xa8
 3553 01fa 26       		.uleb128 0x26
 3554 01fb 1B       		.byte	0x1b
 3555 01fc A8       		.byte	0xa8
 3556 01fd 00       		.uleb128 0
 3557 01fe 31       		.byte	0x31
 3558 01ff 1C       		.byte	0x1c
 3559 0200 9F       		.byte	0x9f
 3560 0201 04       		.byte	0x4
 3561 0202 D401     		.uleb128 .LVL23-.LVL2
 3562 0204 9202     		.uleb128 .LVL31-.LVL2
 3563 0206 13       		.uleb128 0x13
 3564 0207 A3       		.byte	0xa3
 3565 0208 01       		.uleb128 0x1
 3566 0209 50       		.byte	0x50
 3567 020a 23       		.byte	0x23
 3568 020b 14       		.uleb128 0x14
 3569 020c 06       		.byte	0x6
 3570 020d A8       		.byte	0xa8
 3571 020e 26       		.uleb128 0x26
 3572 020f 71       		.byte	0x71
 3573 0210 00       		.sleb128 0
 3574 0211 06       		.byte	0x6
 3575 0212 A8       		.byte	0xa8
 3576 0213 26       		.uleb128 0x26
 3577 0214 1B       		.byte	0x1b
 3578 0215 A8       		.byte	0xa8
 3579 0216 00       		.uleb128 0
 3580 0217 31       		.byte	0x31
 3581 0218 1C       		.byte	0x1c
 3582 0219 9F       		.byte	0x9f
 3583 021a 04       		.byte	0x4
 3584 021b A802     		.uleb128 .LVL32-.LVL2
 3585 021d B002     		.uleb128 .LVL33-.LVL2
 3586 021f 13       		.uleb128 0x13
 3587 0220 A3       		.byte	0xa3
ARM GAS  C:\Users\DEVELO~1\AppData\Local\Temp\ccSISJ8X.s 			page 64


 3588 0221 01       		.uleb128 0x1
 3589 0222 50       		.byte	0x50
 3590 0223 23       		.byte	0x23
 3591 0224 14       		.uleb128 0x14
 3592 0225 06       		.byte	0x6
 3593 0226 A8       		.byte	0xa8
 3594 0227 26       		.uleb128 0x26
 3595 0228 71       		.byte	0x71
 3596 0229 00       		.sleb128 0
 3597 022a 06       		.byte	0x6
 3598 022b A8       		.byte	0xa8
 3599 022c 26       		.uleb128 0x26
 3600 022d 1B       		.byte	0x1b
 3601 022e A8       		.byte	0xa8
 3602 022f 00       		.uleb128 0
 3603 0230 31       		.byte	0x31
 3604 0231 1C       		.byte	0x1c
 3605 0232 9F       		.byte	0x9f
 3606 0233 00       		.byte	0
 3607              	.LVUS2:
 3608 0234 01       		.uleb128 .LVU54
 3609 0235 00       		.uleb128 .LVU57
 3610 0236 00       		.uleb128 .LVU57
 3611 0237 00       		.uleb128 .LVU117
 3612 0238 00       		.uleb128 .LVU117
 3613 0239 00       		.uleb128 .LVU118
 3614 023a 00       		.uleb128 .LVU131
 3615 023b 00       		.uleb128 .LVU138
 3616 023c 00       		.uleb128 .LVU138
 3617 023d 00       		.uleb128 .LVU140
 3618 023e 00       		.uleb128 .LVU152
 3619 023f 00       		.uleb128 .LVU177
 3620 0240 00       		.uleb128 .LVU188
 3621 0241 00       		.uleb128 .LVU202
 3622              	.LLST2:
 3623 0242 06       		.byte	0x6
 3624 0243 3C000000 		.4byte	.LVL5
 3625 0247 04       		.byte	0x4
 3626 0248 00       		.uleb128 .LVL5-.LVL5
 3627 0249 10       		.uleb128 .LVL6-.LVL5
 3628 024a 02       		.uleb128 0x2
 3629 024b 30       		.byte	0x30
 3630 024c 9F       		.byte	0x9f
 3631 024d 04       		.byte	0x4
 3632 024e 10       		.uleb128 .LVL6-.LVL5
 3633 024f 9601     		.uleb128 .LVL15-.LVL5
 3634 0251 01       		.uleb128 0x1
 3635 0252 52       		.byte	0x52
 3636 0253 04       		.byte	0x4
 3637 0254 9601     		.uleb128 .LVL15-.LVL5
 3638 0256 9801     		.uleb128 .LVL16-.LVL5
 3639 0258 02       		.uleb128 0x2
 3640 0259 73       		.byte	0x73
 3641 025a 20       		.sleb128 32
 3642 025b 04       		.byte	0x4
 3643 025c AC01     		.uleb128 .LVL18-.LVL5
 3644 025e B401     		.uleb128 .LVL20-.LVL5
ARM GAS  C:\Users\DEVELO~1\AppData\Local\Temp\ccSISJ8X.s 			page 65


 3645 0260 01       		.uleb128 0x1
 3646 0261 52       		.byte	0x52
 3647 0262 04       		.byte	0x4
 3648 0263 B401     		.uleb128 .LVL20-.LVL5
 3649 0265 BA01     		.uleb128 .LVL21-.LVL5
 3650 0267 02       		.uleb128 0x2
 3651 0268 73       		.byte	0x73
 3652 0269 20       		.sleb128 32
 3653 026a 04       		.byte	0x4
 3654 026b CA01     		.uleb128 .LVL23-.LVL5
 3655 026d 8802     		.uleb128 .LVL31-.LVL5
 3656 026f 01       		.uleb128 0x1
 3657 0270 52       		.byte	0x52
 3658 0271 04       		.byte	0x4
 3659 0272 9E02     		.uleb128 .LVL32-.LVL5
 3660 0274 B202     		.uleb128 .LVL34-.LVL5
 3661 0276 01       		.uleb128 0x1
 3662 0277 52       		.byte	0x52
 3663 0278 00       		.byte	0
 3664              	.LVUS4:
 3665 0279 01       		.uleb128 .LVU203
 3666 027a 00       		.uleb128 .LVU212
 3667              	.LLST4:
 3668 027b 08       		.byte	0x8
 3669 027c 6E010000 		.4byte	.LVL34
 3670 0280 20       		.uleb128 .LVL35-.LVL34
 3671 0281 02       		.uleb128 0x2
 3672 0282 31       		.byte	0x31
 3673 0283 9F       		.byte	0x9f
 3674 0284 00       		.byte	0
 3675              	.LVUS5:
 3676 0285 01       		.uleb128 .LVU203
 3677 0286 00       		.uleb128 .LVU212
 3678              	.LLST5:
 3679 0287 08       		.byte	0x8
 3680 0288 6E010000 		.4byte	.LVL34
 3681 028c 20       		.uleb128 .LVL35-.LVL34
 3682 028d 02       		.uleb128 0x2
 3683 028e 32       		.byte	0x32
 3684 028f 9F       		.byte	0x9f
 3685 0290 00       		.byte	0
 3686              	.LVUS6:
 3687 0291 02       		.uleb128 .LVU214
 3688 0292 00       		.uleb128 .LVU222
 3689              	.LLST6:
 3690 0293 08       		.byte	0x8
 3691 0294 8E010000 		.4byte	.LVL35
 3692 0298 1C       		.uleb128 .LVL36-.LVL35
 3693 0299 02       		.uleb128 0x2
 3694 029a 32       		.byte	0x32
 3695 029b 9F       		.byte	0x9f
 3696 029c 00       		.byte	0
 3697              	.LVUS7:
 3698 029d 04       		.uleb128 .LVU216
 3699 029e 00       		.uleb128 .LVU222
 3700              	.LLST7:
 3701 029f 08       		.byte	0x8
ARM GAS  C:\Users\DEVELO~1\AppData\Local\Temp\ccSISJ8X.s 			page 66


 3702 02a0 8E010000 		.4byte	.LVL35
 3703 02a4 1C       		.uleb128 .LVL36-.LVL35
 3704 02a5 02       		.uleb128 0x2
 3705 02a6 32       		.byte	0x32
 3706 02a7 9F       		.byte	0x9f
 3707 02a8 00       		.byte	0
 3708              	.Ldebug_loc3:
 3709              		.section	.debug_aranges,"",%progbits
 3710 0000 64000000 		.4byte	0x64
 3711 0004 0200     		.2byte	0x2
 3712 0006 00000000 		.4byte	.Ldebug_info0
 3713 000a 04       		.byte	0x4
 3714 000b 00       		.byte	0
 3715 000c 0000     		.2byte	0
 3716 000e 0000     		.2byte	0
 3717 0010 00000000 		.4byte	.LFB448
 3718 0014 20000000 		.4byte	.LFE448-.LFB448
 3719 0018 00000000 		.4byte	.LFB449
 3720 001c C0010000 		.4byte	.LFE449-.LFB449
 3721 0020 00000000 		.4byte	.LFB450
 3722 0024 48000000 		.4byte	.LFE450-.LFB450
 3723 0028 00000000 		.4byte	.LFB451
 3724 002c 18000000 		.4byte	.LFE451-.LFB451
 3725 0030 00000000 		.4byte	.LFB452
 3726 0034 34000000 		.4byte	.LFE452-.LFB452
 3727 0038 00000000 		.4byte	.LFB453
 3728 003c 16000000 		.4byte	.LFE453-.LFB453
 3729 0040 00000000 		.4byte	.LFB454
 3730 0044 0C000000 		.4byte	.LFE454-.LFB454
 3731 0048 00000000 		.4byte	.LFB455
 3732 004c 18000000 		.4byte	.LFE455-.LFB455
 3733 0050 00000000 		.4byte	.LFB456
 3734 0054 12000000 		.4byte	.LFE456-.LFB456
 3735 0058 00000000 		.4byte	.LFB457
 3736 005c 5E000000 		.4byte	.LFE457-.LFB457
 3737 0060 00000000 		.4byte	0
 3738 0064 00000000 		.4byte	0
 3739              		.section	.debug_rnglists,"",%progbits
 3740              	.Ldebug_ranges0:
 3741 0000 52000000 		.4byte	.Ldebug_ranges3-.Ldebug_ranges2
 3742              	.Ldebug_ranges2:
 3743 0004 0500     		.2byte	0x5
 3744 0006 04       		.byte	0x4
 3745 0007 00       		.byte	0
 3746 0008 00000000 		.4byte	0
 3747              	.LLRL3:
 3748 000c 05       		.byte	0x5
 3749 000d 6E010000 		.4byte	.LBB12
 3750 0011 04       		.byte	0x4
 3751 0012 00       		.uleb128 .LBB12-.LBB12
 3752 0013 02       		.uleb128 .LBE12-.LBB12
 3753 0014 04       		.byte	0x4
 3754 0015 04       		.uleb128 .LBB15-.LBB12
 3755 0016 20       		.uleb128 .LBE15-.LBB12
 3756 0017 00       		.byte	0
 3757              	.LLRL19:
 3758 0018 07       		.byte	0x7
ARM GAS  C:\Users\DEVELO~1\AppData\Local\Temp\ccSISJ8X.s 			page 67


 3759 0019 00000000 		.4byte	.LFB448
 3760 001d 20       		.uleb128 .LFE448-.LFB448
 3761 001e 07       		.byte	0x7
 3762 001f 00000000 		.4byte	.LFB449
 3763 0023 C003     		.uleb128 .LFE449-.LFB449
 3764 0025 07       		.byte	0x7
 3765 0026 00000000 		.4byte	.LFB450
 3766 002a 48       		.uleb128 .LFE450-.LFB450
 3767 002b 07       		.byte	0x7
 3768 002c 00000000 		.4byte	.LFB451
 3769 0030 18       		.uleb128 .LFE451-.LFB451
 3770 0031 07       		.byte	0x7
 3771 0032 00000000 		.4byte	.LFB452
 3772 0036 34       		.uleb128 .LFE452-.LFB452
 3773 0037 07       		.byte	0x7
 3774 0038 00000000 		.4byte	.LFB453
 3775 003c 16       		.uleb128 .LFE453-.LFB453
 3776 003d 07       		.byte	0x7
 3777 003e 00000000 		.4byte	.LFB454
 3778 0042 0C       		.uleb128 .LFE454-.LFB454
 3779 0043 07       		.byte	0x7
 3780 0044 00000000 		.4byte	.LFB455
 3781 0048 18       		.uleb128 .LFE455-.LFB455
 3782 0049 07       		.byte	0x7
 3783 004a 00000000 		.4byte	.LFB456
 3784 004e 12       		.uleb128 .LFE456-.LFB456
 3785 004f 07       		.byte	0x7
 3786 0050 00000000 		.4byte	.LFB457
 3787 0054 5E       		.uleb128 .LFE457-.LFB457
 3788 0055 00       		.byte	0
 3789              	.Ldebug_ranges3:
 3790              		.section	.debug_line,"",%progbits
 3791              	.Ldebug_line0:
 3792 0000 CA070000 		.section	.debug_str,"MS",%progbits,1
 3792      0300C401 
 3792      00000201 
 3792      FB0E0D00 
 3792      01010101 
 3793              	.LASF102:
 3794 0000 70776D63 		.ascii	"pwmchannel_t\000"
 3794      68616E6E 
 3794      656C5F74 
 3794      00
 3795              	.LASF26:
 3796 000d 504C4C31 		.ascii	"PLL1DIVR\000"
 3796      44495652 
 3796      00
 3797              	.LASF134:
 3798 0016 433A5C43 		.ascii	"C:\\ChibiStudio\\ChibiOS-master\\demos\\STM32\\CUST"
 3798      68696269 
 3798      53747564 
 3798      696F5C43 
 3798      68696269 
 3799 0044 4F4D5F48 		.ascii	"OM_H743IIT6_maj\000"
 3799      37343349 
 3799      4954365F 
 3799      6D616A00 
ARM GAS  C:\Users\DEVELO~1\AppData\Local\Temp\ccSISJ8X.s 			page 68


 3800              	.LASF79:
 3801 0054 44494552 		.ascii	"DIER\000"
 3801      00
 3802              	.LASF49:
 3803 0059 41504231 		.ascii	"APB1LRSTR\000"
 3803      4C525354 
 3803      5200
 3804              	.LASF8:
 3805 0063 5F5F7569 		.ascii	"__uint8_t\000"
 3805      6E74385F 
 3805      7400
 3806              	.LASF81:
 3807 006d 43434D52 		.ascii	"CCMR2\000"
 3807      3200
 3808              	.LASF85:
 3809 0073 43434D52 		.ascii	"CCMR3\000"
 3809      3300
 3810              	.LASF72:
 3811 0079 41504231 		.ascii	"APB1HLPENR\000"
 3811      484C5045 
 3811      4E5200
 3812              	.LASF7:
 3813 0084 6C6F6E67 		.ascii	"long int\000"
 3813      20696E74 
 3813      00
 3814              	.LASF95:
 3815 008d 70657269 		.ascii	"period\000"
 3815      6F6400
 3816              	.LASF11:
 3817 0094 6C6F6E67 		.ascii	"long long unsigned int\000"
 3817      206C6F6E 
 3817      6720756E 
 3817      7369676E 
 3817      65642069 
 3818              	.LASF109:
 3819 00ab 62647472 		.ascii	"bdtr\000"
 3819      00
 3820              	.LASF136:
 3821 00b0 5F5F7263 		.ascii	"__rccResetAPB2\000"
 3821      63526573 
 3821      65744150 
 3821      423200
 3822              	.LASF54:
 3823 00bf 4433414D 		.ascii	"D3AMR\000"
 3823      5200
 3824              	.LASF120:
 3825 00c5 70776D5F 		.ascii	"pwm_lld_disable_channel\000"
 3825      6C6C645F 
 3825      64697361 
 3825      626C655F 
 3825      6368616E 
 3826              	.LASF83:
 3827 00dd 42445452 		.ascii	"BDTR\000"
 3827      00
 3828              	.LASF127:
 3829 00e2 70776D5F 		.ascii	"pwm_lld_init\000"
 3829      6C6C645F 
ARM GAS  C:\Users\DEVELO~1\AppData\Local\Temp\ccSISJ8X.s 			page 69


 3829      696E6974 
 3829      00
 3830              	.LASF67:
 3831 00ef 41484231 		.ascii	"AHB1LPENR\000"
 3831      4C50454E 
 3831      5200
 3832              	.LASF38:
 3833 00f9 43494552 		.ascii	"CIER\000"
 3833      00
 3834              	.LASF47:
 3835 00fe 41484234 		.ascii	"AHB4RSTR\000"
 3835      52535452 
 3835      00
 3836              	.LASF34:
 3837 0107 44324343 		.ascii	"D2CCIP1R\000"
 3837      49503152 
 3837      00
 3838              	.LASF1:
 3839 0110 6C6F6E67 		.ascii	"long long int\000"
 3839      206C6F6E 
 3839      6720696E 
 3839      7400
 3840              	.LASF3:
 3841 011e 7369676E 		.ascii	"signed char\000"
 3841      65642063 
 3841      68617200 
 3842              	.LASF45:
 3843 012a 41484231 		.ascii	"AHB1RSTR\000"
 3843      52535452 
 3843      00
 3844              	.LASF93:
 3845 0133 73746174 		.ascii	"state\000"
 3845      6500
 3846              	.LASF101:
 3847 0139 70776D6D 		.ascii	"pwmmode_t\000"
 3847      6F64655F 
 3847      7400
 3848              	.LASF55:
 3849 0143 52455345 		.ascii	"RESERVED11\000"
 3849      52564544 
 3849      313100
 3850              	.LASF65:
 3851 014e 52455345 		.ascii	"RESERVED12\000"
 3851      52564544 
 3851      313200
 3852              	.LASF75:
 3853 0159 52455345 		.ascii	"RESERVED13\000"
 3853      52564544 
 3853      313300
 3854              	.LASF125:
 3855 0164 63636572 		.ascii	"ccer\000"
 3855      00
 3856              	.LASF97:
 3857 0169 6368616E 		.ascii	"channels\000"
 3857      6E656C73 
 3857      00
 3858              	.LASF27:
ARM GAS  C:\Users\DEVELO~1\AppData\Local\Temp\ccSISJ8X.s 			page 70


 3859 0172 504C4C31 		.ascii	"PLL1FRACR\000"
 3859      46524143 
 3859      5200
 3860              	.LASF124:
 3861 017c 70776D5F 		.ascii	"pwm_lld_start\000"
 3861      6C6C645F 
 3861      73746172 
 3861      7400
 3862              	.LASF51:
 3863 018a 41504232 		.ascii	"APB2RSTR\000"
 3863      52535452 
 3863      00
 3864              	.LASF117:
 3865 0193 70776D5F 		.ascii	"pwm_lld_enable_channel_notification\000"
 3865      6C6C645F 
 3865      656E6162 
 3865      6C655F63 
 3865      68616E6E 
 3866              	.LASF99:
 3867 01b7 6861735F 		.ascii	"has_bdtr\000"
 3867      62647472 
 3867      00
 3868              	.LASF82:
 3869 01c0 43434552 		.ascii	"CCER\000"
 3869      00
 3870              	.LASF133:
 3871 01c5 2E2E2F2E 		.ascii	"../../../os/hal/ports/STM32/LLD/TIMv1/hal_pwm_lld.c"
 3871      2E2F2E2E 
 3871      2F6F732F 
 3871      68616C2F 
 3871      706F7274 
 3872 01f8 00       		.ascii	"\000"
 3873              	.LASF22:
 3874 01f9 44334346 		.ascii	"D3CFGR\000"
 3874      475200
 3875              	.LASF25:
 3876 0200 504C4C43 		.ascii	"PLLCFGR\000"
 3876      46475200 
 3877              	.LASF39:
 3878 0208 43494652 		.ascii	"CIFR\000"
 3878      00
 3879              	.LASF30:
 3880 020d 504C4C33 		.ascii	"PLL3DIVR\000"
 3880      44495652 
 3880      00
 3881              	.LASF9:
 3882 0216 5F5F7569 		.ascii	"__uint32_t\000"
 3882      6E743332 
 3882      5F7400
 3883              	.LASF130:
 3884 0221 6D61736B 		.ascii	"mask\000"
 3884      00
 3885              	.LASF112:
 3886 0226 50574D44 		.ascii	"PWMD8\000"
 3886      3800
 3887              	.LASF36:
 3888 022c 44334343 		.ascii	"D3CCIPR\000"
ARM GAS  C:\Users\DEVELO~1\AppData\Local\Temp\ccSISJ8X.s 			page 71


 3888      49505200 
 3889              	.LASF119:
 3890 0234 70776D5F 		.ascii	"pwm_lld_enable_periodic_notification\000"
 3890      6C6C645F 
 3890      656E6162 
 3890      6C655F70 
 3890      6572696F 
 3891              	.LASF0:
 3892 0259 756E7369 		.ascii	"unsigned int\000"
 3892      676E6564 
 3892      20696E74 
 3892      00
 3893              	.LASF10:
 3894 0266 6C6F6E67 		.ascii	"long unsigned int\000"
 3894      20756E73 
 3894      69676E65 
 3894      6420696E 
 3894      7400
 3895              	.LASF76:
 3896 0278 5243435F 		.ascii	"RCC_TypeDef\000"
 3896      54797065 
 3896      44656600 
 3897              	.LASF122:
 3898 0284 77696474 		.ascii	"width\000"
 3898      6800
 3899              	.LASF6:
 3900 028a 73686F72 		.ascii	"short unsigned int\000"
 3900      7420756E 
 3900      7369676E 
 3900      65642069 
 3900      6E7400
 3901              	.LASF24:
 3902 029d 504C4C43 		.ascii	"PLLCKSELR\000"
 3902      4B53454C 
 3902      5200
 3903              	.LASF15:
 3904 02a7 48534943 		.ascii	"HSICFGR\000"
 3904      46475200 
 3905              	.LASF44:
 3906 02af 41484233 		.ascii	"AHB3RSTR\000"
 3906      52535452 
 3906      00
 3907              	.LASF108:
 3908 02b8 66726571 		.ascii	"frequency\000"
 3908      75656E63 
 3908      7900
 3909              	.LASF62:
 3910 02c2 41504231 		.ascii	"APB1HENR\000"
 3910      48454E52 
 3910      00
 3911              	.LASF35:
 3912 02cb 44324343 		.ascii	"D2CCIP2R\000"
 3912      49503252 
 3912      00
 3913              	.LASF106:
 3914 02d4 63616C6C 		.ascii	"callback\000"
 3914      6261636B 
ARM GAS  C:\Users\DEVELO~1\AppData\Local\Temp\ccSISJ8X.s 			page 72


 3914      00
 3915              	.LASF58:
 3916 02dd 41484232 		.ascii	"AHB2ENR\000"
 3916      454E5200 
 3917              	.LASF132:
 3918 02e5 474E5520 		.ascii	"GNU C17 11.3.1 20220712 -mcpu=cortex-m7 -mthumb -mf"
 3918      43313720 
 3918      31312E33 
 3918      2E312032 
 3918      30323230 
 3919 0318 6C6F6174 		.ascii	"loat-abi=hard -mfpu=fpv5-d16 -march=armv7e-m+fp.dp "
 3919      2D616269 
 3919      3D686172 
 3919      64202D6D 
 3919      6670753D 
 3920 034b 2D676764 		.ascii	"-ggdb -O2 -ffunction-sections -fdata-sections -fno-"
 3920      62202D4F 
 3920      32202D66 
 3920      66756E63 
 3920      74696F6E 
 3921 037e 636F6D6D 		.ascii	"common\000"
 3921      6F6E00
 3922              	.LASF87:
 3923 0385 73746D33 		.ascii	"stm32_tim_t\000"
 3923      325F7469 
 3923      6D5F7400 
 3924              	.LASF73:
 3925 0391 41504232 		.ascii	"APB2LPENR\000"
 3925      4C50454E 
 3925      5200
 3926              	.LASF31:
 3927 039b 504C4C33 		.ascii	"PLL3FRACR\000"
 3927      46524143 
 3927      5200
 3928              	.LASF114:
 3929 03a5 70776D5F 		.ascii	"pwm_lld_disable_channel_notification\000"
 3929      6C6C645F 
 3929      64697361 
 3929      626C655F 
 3929      6368616E 
 3930              	.LASF52:
 3931 03ca 41504234 		.ascii	"APB4RSTR\000"
 3931      52535452 
 3931      00
 3932              	.LASF64:
 3933 03d3 41504234 		.ascii	"APB4ENR\000"
 3933      454E5200 
 3934              	.LASF29:
 3935 03db 504C4C32 		.ascii	"PLL2FRACR\000"
 3935      46524143 
 3935      5200
 3936              	.LASF131:
 3937 03e5 72636345 		.ascii	"rccEnableAPB2\000"
 3937      6E61626C 
 3937      65415042 
 3937      3200
 3938              	.LASF68:
ARM GAS  C:\Users\DEVELO~1\AppData\Local\Temp\ccSISJ8X.s 			page 73


 3939 03f3 41484232 		.ascii	"AHB2LPENR\000"
 3939      4C50454E 
 3939      5200
 3940              	.LASF70:
 3941 03fd 41504233 		.ascii	"APB3LPENR\000"
 3941      4C50454E 
 3941      5200
 3942              	.LASF60:
 3943 0407 41504233 		.ascii	"APB3ENR\000"
 3943      454E5200 
 3944              	.LASF118:
 3945 040f 70776D5F 		.ascii	"pwm_lld_disable_periodic_notification\000"
 3945      6C6C645F 
 3945      64697361 
 3945      626C655F 
 3945      70657269 
 3946              	.LASF113:
 3947 0435 70776D5F 		.ascii	"pwm_lld_serve_interrupt\000"
 3947      6C6C645F 
 3947      73657276 
 3947      655F696E 
 3947      74657272 
 3948              	.LASF19:
 3949 044d 52455345 		.ascii	"RESERVED1\000"
 3949      52564544 
 3949      3100
 3950              	.LASF23:
 3951 0457 52455345 		.ascii	"RESERVED2\000"
 3951      52564544 
 3951      3200
 3952              	.LASF32:
 3953 0461 52455345 		.ascii	"RESERVED3\000"
 3953      52564544 
 3953      3300
 3954              	.LASF21:
 3955 046b 44324346 		.ascii	"D2CFGR\000"
 3955      475200
 3956              	.LASF41:
 3957 0472 52455345 		.ascii	"RESERVED5\000"
 3957      52564544 
 3957      3500
 3958              	.LASF43:
 3959 047c 52455345 		.ascii	"RESERVED6\000"
 3959      52564544 
 3959      3600
 3960              	.LASF53:
 3961 0486 52455345 		.ascii	"RESERVED8\000"
 3961      52564544 
 3961      3800
 3962              	.LASF77:
 3963 0490 5F426F6F 		.ascii	"_Bool\000"
 3963      6C00
 3964              	.LASF90:
 3965 0496 50574D5F 		.ascii	"PWM_READY\000"
 3965      52454144 
 3965      5900
 3966              	.LASF4:
ARM GAS  C:\Users\DEVELO~1\AppData\Local\Temp\ccSISJ8X.s 			page 74


 3967 04a0 756E7369 		.ascii	"unsigned char\000"
 3967      676E6564 
 3967      20636861 
 3967      7200
 3968              	.LASF59:
 3969 04ae 41484234 		.ascii	"AHB4ENR\000"
 3969      454E5200 
 3970              	.LASF5:
 3971 04b6 73686F72 		.ascii	"short int\000"
 3971      7420696E 
 3971      7400
 3972              	.LASF66:
 3973 04c0 41484233 		.ascii	"AHB3LPENR\000"
 3973      4C50454E 
 3973      5200
 3974              	.LASF74:
 3975 04ca 41504234 		.ascii	"APB4LPENR\000"
 3975      4C50454E 
 3975      5200
 3976              	.LASF103:
 3977 04d4 70776D63 		.ascii	"pwmchnmsk_t\000"
 3977      686E6D73 
 3977      6B5F7400 
 3978              	.LASF126:
 3979 04e0 5F5F6675 		.ascii	"__func__\000"
 3979      6E635F5F 
 3979      00
 3980              	.LASF63:
 3981 04e9 41504232 		.ascii	"APB2ENR\000"
 3981      454E5200 
 3982              	.LASF128:
 3983 04f1 72636352 		.ascii	"rccResetAPB2\000"
 3983      65736574 
 3983      41504232 
 3983      00
 3984              	.LASF116:
 3985 04fe 6368616E 		.ascii	"channel\000"
 3985      6E656C00 
 3986              	.LASF56:
 3987 0506 41484233 		.ascii	"AHB3ENR\000"
 3987      454E5200 
 3988              	.LASF50:
 3989 050e 41504231 		.ascii	"APB1HRSTR\000"
 3989      48525354 
 3989      5200
 3990              	.LASF86:
 3991 0518 43435852 		.ascii	"CCXR\000"
 3991      00
 3992              	.LASF123:
 3993 051d 70776D5F 		.ascii	"pwm_lld_stop\000"
 3993      6C6C645F 
 3993      73746F70 
 3993      00
 3994              	.LASF37:
 3995 052a 52455345 		.ascii	"RESERVED4\000"
 3995      52564544 
 3995      3400
ARM GAS  C:\Users\DEVELO~1\AppData\Local\Temp\ccSISJ8X.s 			page 75


 3996              	.LASF13:
 3997 0534 75696E74 		.ascii	"uint32_t\000"
 3997      33325F74 
 3997      00
 3998              	.LASF111:
 3999 053d 50574D43 		.ascii	"PWMConfig\000"
 3999      6F6E6669 
 3999      6700
 4000              	.LASF33:
 4001 0547 44314343 		.ascii	"D1CCIPR\000"
 4001      49505200 
 4002              	.LASF2:
 4003 054f 6C6F6E67 		.ascii	"long double\000"
 4003      20646F75 
 4003      626C6500 
 4004              	.LASF121:
 4005 055b 70776D5F 		.ascii	"pwm_lld_enable_channel\000"
 4005      6C6C645F 
 4005      656E6162 
 4005      6C655F63 
 4005      68616E6E 
 4006              	.LASF89:
 4007 0572 50574D5F 		.ascii	"PWM_STOP\000"
 4007      53544F50 
 4007      00
 4008              	.LASF14:
 4009 057b 63686172 		.ascii	"char\000"
 4009      00
 4010              	.LASF105:
 4011 0580 6D6F6465 		.ascii	"mode\000"
 4011      00
 4012              	.LASF78:
 4013 0585 534D4352 		.ascii	"SMCR\000"
 4013      00
 4014              	.LASF94:
 4015 058a 636F6E66 		.ascii	"config\000"
 4015      696700
 4016              	.LASF28:
 4017 0591 504C4C32 		.ascii	"PLL2DIVR\000"
 4017      44495652 
 4017      00
 4018              	.LASF84:
 4019 059a 444D4152 		.ascii	"DMAR\000"
 4019      00
 4020              	.LASF46:
 4021 059f 41484232 		.ascii	"AHB2RSTR\000"
 4021      52535452 
 4021      00
 4022              	.LASF69:
 4023 05a8 41484234 		.ascii	"AHB4LPENR\000"
 4023      4C50454E 
 4023      5200
 4024              	.LASF96:
 4025 05b2 656E6162 		.ascii	"enabled\000"
 4025      6C656400 
 4026              	.LASF80:
 4027 05ba 43434D52 		.ascii	"CCMR1\000"
ARM GAS  C:\Users\DEVELO~1\AppData\Local\Temp\ccSISJ8X.s 			page 76


 4027      3100
 4028              	.LASF48:
 4029 05c0 41504233 		.ascii	"APB3RSTR\000"
 4029      52535452 
 4029      00
 4030              	.LASF17:
 4031 05c9 43534943 		.ascii	"CSICFGR\000"
 4031      46475200 
 4032              	.LASF107:
 4033 05d1 50574D43 		.ascii	"PWMChannelConfig\000"
 4033      68616E6E 
 4033      656C436F 
 4033      6E666967 
 4033      00
 4034              	.LASF16:
 4035 05e2 43525243 		.ascii	"CRRCR\000"
 4035      5200
 4036              	.LASF71:
 4037 05e8 41504231 		.ascii	"APB1LLPENR\000"
 4037      4C4C5045 
 4037      4E5200
 4038              	.LASF40:
 4039 05f3 43494352 		.ascii	"CICR\000"
 4039      00
 4040              	.LASF100:
 4041 05f8 70776D63 		.ascii	"pwmcallback_t\000"
 4041      616C6C62 
 4041      61636B5F 
 4041      7400
 4042              	.LASF42:
 4043 0606 42444352 		.ascii	"BDCR\000"
 4043      00
 4044              	.LASF12:
 4045 060b 75696E74 		.ascii	"uint8_t\000"
 4045      385F7400 
 4046              	.LASF92:
 4047 0613 50574D44 		.ascii	"PWMDriver\000"
 4047      72697665 
 4047      7200
 4048              	.LASF91:
 4049 061d 70776D73 		.ascii	"pwmstate_t\000"
 4049      74617465 
 4049      5F7400
 4050              	.LASF104:
 4051 0628 70776D63 		.ascii	"pwmcnt_t\000"
 4051      6E745F74 
 4051      00
 4052              	.LASF129:
 4053 0631 72636344 		.ascii	"rccDisableAPB2\000"
 4053      69736162 
 4053      6C654150 
 4053      423200
 4054              	.LASF57:
 4055 0640 41484231 		.ascii	"AHB1ENR\000"
 4055      454E5200 
 4056              	.LASF18:
 4057 0648 43464752 		.ascii	"CFGR\000"
ARM GAS  C:\Users\DEVELO~1\AppData\Local\Temp\ccSISJ8X.s 			page 77


 4057      00
 4058              	.LASF98:
 4059 064d 636C6F63 		.ascii	"clock\000"
 4059      6B00
 4060              	.LASF61:
 4061 0653 41504231 		.ascii	"APB1LENR\000"
 4061      4C454E52 
 4061      00
 4062              	.LASF88:
 4063 065c 50574D5F 		.ascii	"PWM_UNINIT\000"
 4063      554E494E 
 4063      495400
 4064              	.LASF135:
 4065 0667 70776D4F 		.ascii	"pwmObjectInit\000"
 4065      626A6563 
 4065      74496E69 
 4065      7400
 4066              	.LASF115:
 4067 0675 70776D70 		.ascii	"pwmp\000"
 4067      00
 4068              	.LASF20:
 4069 067a 44314346 		.ascii	"D1CFGR\000"
 4069      475200
 4070              	.LASF110:
 4071 0681 64696572 		.ascii	"dier\000"
 4071      00
 4072              		.ident	"GCC: (Arm GNU Toolchain 11.3.Rel1) 11.3.1 20220712"
ARM GAS  C:\Users\DEVELO~1\AppData\Local\Temp\ccSISJ8X.s 			page 78


DEFINED SYMBOLS
                            *ABS*:00000000 hal_pwm_lld.c
C:\Users\DEVELO~1\AppData\Local\Temp\ccSISJ8X.s:19     .text.pwm_lld_init:00000000 $t
C:\Users\DEVELO~1\AppData\Local\Temp\ccSISJ8X.s:26     .text.pwm_lld_init:00000000 pwm_lld_init
C:\Users\DEVELO~1\AppData\Local\Temp\ccSISJ8X.s:64     .text.pwm_lld_init:00000018 $d
C:\Users\DEVELO~1\AppData\Local\Temp\ccSISJ8X.s:70     .text.pwm_lld_start:00000000 $t
C:\Users\DEVELO~1\AppData\Local\Temp\ccSISJ8X.s:77     .text.pwm_lld_start:00000000 pwm_lld_start
C:\Users\DEVELO~1\AppData\Local\Temp\ccSISJ8X.s:563    .text.pwm_lld_start:000001b0 $d
C:\Users\DEVELO~1\AppData\Local\Temp\ccSISJ8X.s:571    .text.pwm_lld_stop:00000000 $t
C:\Users\DEVELO~1\AppData\Local\Temp\ccSISJ8X.s:578    .text.pwm_lld_stop:00000000 pwm_lld_stop
C:\Users\DEVELO~1\AppData\Local\Temp\ccSISJ8X.s:650    .text.pwm_lld_stop:00000040 $d
C:\Users\DEVELO~1\AppData\Local\Temp\ccSISJ8X.s:656    .text.pwm_lld_enable_channel:00000000 $t
C:\Users\DEVELO~1\AppData\Local\Temp\ccSISJ8X.s:663    .text.pwm_lld_enable_channel:00000000 pwm_lld_enable_channel
C:\Users\DEVELO~1\AppData\Local\Temp\ccSISJ8X.s:700    .text.pwm_lld_disable_channel:00000000 $t
C:\Users\DEVELO~1\AppData\Local\Temp\ccSISJ8X.s:707    .text.pwm_lld_disable_channel:00000000 pwm_lld_disable_channel
C:\Users\DEVELO~1\AppData\Local\Temp\ccSISJ8X.s:767    .text.pwm_lld_enable_periodic_notification:00000000 $t
C:\Users\DEVELO~1\AppData\Local\Temp\ccSISJ8X.s:774    .text.pwm_lld_enable_periodic_notification:00000000 pwm_lld_enable_periodic_notification
C:\Users\DEVELO~1\AppData\Local\Temp\ccSISJ8X.s:810    .text.pwm_lld_disable_periodic_notification:00000000 $t
C:\Users\DEVELO~1\AppData\Local\Temp\ccSISJ8X.s:817    .text.pwm_lld_disable_periodic_notification:00000000 pwm_lld_disable_periodic_notification
C:\Users\DEVELO~1\AppData\Local\Temp\ccSISJ8X.s:838    .text.pwm_lld_enable_channel_notification:00000000 $t
C:\Users\DEVELO~1\AppData\Local\Temp\ccSISJ8X.s:845    .text.pwm_lld_enable_channel_notification:00000000 pwm_lld_enable_channel_notification
C:\Users\DEVELO~1\AppData\Local\Temp\ccSISJ8X.s:889    .text.pwm_lld_disable_channel_notification:00000000 $t
C:\Users\DEVELO~1\AppData\Local\Temp\ccSISJ8X.s:896    .text.pwm_lld_disable_channel_notification:00000000 pwm_lld_disable_channel_notification
C:\Users\DEVELO~1\AppData\Local\Temp\ccSISJ8X.s:922    .text.pwm_lld_serve_interrupt:00000000 $t
C:\Users\DEVELO~1\AppData\Local\Temp\ccSISJ8X.s:929    .text.pwm_lld_serve_interrupt:00000000 pwm_lld_serve_interrupt
C:\Users\DEVELO~1\AppData\Local\Temp\ccSISJ8X.s:1057   .bss.PWMD8:00000000 PWMD8
C:\Users\DEVELO~1\AppData\Local\Temp\ccSISJ8X.s:1053   .bss.PWMD8:00000000 $d

UNDEFINED SYMBOLS
pwmObjectInit
