ARM GAS  C:\Users\DEVELO~1\AppData\Local\Temp\ccYymk6T.s 			page 1


   1              		.cpu cortex-m7
   2              		.arch armv7e-m
   3              		.fpu fpv5-d16
   4              		.eabi_attribute 28, 1
   5              		.eabi_attribute 20, 1
   6              		.eabi_attribute 21, 1
   7              		.eabi_attribute 23, 3
   8              		.eabi_attribute 24, 1
   9              		.eabi_attribute 25, 1
  10              		.eabi_attribute 26, 1
  11              		.eabi_attribute 30, 2
  12              		.eabi_attribute 34, 1
  13              		.eabi_attribute 18, 4
  14              		.file	"hal_st.c"
  15              		.text
  16              	.Ltext0:
  17              		.cfi_sections	.debug_frame
  18              		.section	.text.stInit,"ax",%progbits
  19              		.align	1
  20              		.p2align 2,,3
  21              		.global	stInit
  22              		.syntax unified
  23              		.thumb
  24              		.thumb_func
  25              		.type	stInit, %function
  26              	stInit:
  27              	.LFB448:
  28              		.file 1 "./docs/ChibiOS/os/hal/src/hal_st.c"
  29              		.loc 1 69 19 view -0
  30              		.cfi_startproc
  31              		@ args = 0, pretend = 0, frame = 0
  32              		@ frame_needed = 0, uses_anonymous_args = 0
  33              		@ link register save eliminated.
  34              		.loc 1 77 3 view .LVU1
  35 0000 FFF7FEBF 		b	st_lld_init
  36              	.LVL0:
  37              		.cfi_endproc
  38              	.LFE448:
  39              		.size	stInit, .-stInit
  40              		.section	.text.stGetCounter,"ax",%progbits
  41              		.align	1
  42              		.p2align 2,,3
  43              		.global	stGetCounter
  44              		.syntax unified
  45              		.thumb
  46              		.thumb_func
  47              		.type	stGetCounter, %function
  48              	stGetCounter:
  49              	.LFB449:
  50              		.loc 1 103 30 view -0
  51              		.cfi_startproc
  52              		@ args = 0, pretend = 0, frame = 0
  53              		@ frame_needed = 0, uses_anonymous_args = 0
  54              		@ link register save eliminated.
  55              		.loc 1 105 3 view .LVU3
  56              	.LBB14:
  57              	.LBI14:
ARM GAS  C:\Users\DEVELO~1\AppData\Local\Temp\ccYymk6T.s 			page 2


  58              		.file 2 "./docs/ChibiOS/os/hal/ports/STM32/LLD/SYSTICKv1/hal_st_lld.h"
  59              		.loc 2 804 25 view .LVU4
  60              	.LBB15:
  61              		.loc 2 806 3 view .LVU5
  62              		.loc 2 806 10 is_stmt 0 view .LVU6
  63 0000 4FF08043 		mov	r3, #1073741824
  64 0004 586A     		ldr	r0, [r3, #36]
  65              	.LBE15:
  66              	.LBE14:
  67              		.loc 1 106 1 view .LVU7
  68 0006 7047     		bx	lr
  69              		.cfi_endproc
  70              	.LFE449:
  71              		.size	stGetCounter, .-stGetCounter
  72              		.section	.text.stStartAlarm,"ax",%progbits
  73              		.align	1
  74              		.p2align 2,,3
  75              		.global	stStartAlarm
  76              		.syntax unified
  77              		.thumb
  78              		.thumb_func
  79              		.type	stStartAlarm, %function
  80              	stStartAlarm:
  81              	.LVL1:
  82              	.LFB450:
  83              		.loc 1 119 38 is_stmt 1 view -0
  84              		.cfi_startproc
  85              		@ args = 0, pretend = 0, frame = 0
  86              		@ frame_needed = 0, uses_anonymous_args = 0
  87              		@ link register save eliminated.
  88              		.loc 1 121 3 view .LVU9
  89              		.loc 1 121 3 view .LVU10
  90              		.loc 1 121 3 view .LVU11
  91              		.loc 1 123 3 view .LVU12
  92              	.LBB16:
  93              	.LBB17:
  94              		.loc 2 820 24 is_stmt 0 view .LVU13
  95 0000 4FF08043 		mov	r3, #1073741824
  96              		.loc 2 821 24 view .LVU14
  97 0004 0021     		movs	r1, #0
  98              		.loc 2 823 24 view .LVU15
  99 0006 0222     		movs	r2, #2
 100              	.LVL2:
 101              		.loc 2 823 24 view .LVU16
 102              	.LBE17:
 103              	.LBI16:
 104              		.loc 2 818 20 is_stmt 1 view .LVU17
 105              	.LBB18:
 106              		.loc 2 820 3 view .LVU18
 107              		.loc 2 820 24 is_stmt 0 view .LVU19
 108 0008 5863     		str	r0, [r3, #52]
 109              		.loc 2 821 3 is_stmt 1 view .LVU20
 110              		.loc 2 821 24 is_stmt 0 view .LVU21
 111 000a 1961     		str	r1, [r3, #16]
 112              		.loc 2 823 3 is_stmt 1 view .LVU22
 113              		.loc 2 823 24 is_stmt 0 view .LVU23
 114 000c DA60     		str	r2, [r3, #12]
ARM GAS  C:\Users\DEVELO~1\AppData\Local\Temp\ccYymk6T.s 			page 3


 115              	.LVL3:
 116              		.loc 2 823 24 view .LVU24
 117              	.LBE18:
 118              	.LBE16:
 119              		.loc 1 124 1 view .LVU25
 120 000e 7047     		bx	lr
 121              		.cfi_endproc
 122              	.LFE450:
 123              		.size	stStartAlarm, .-stStartAlarm
 124              		.section	.text.stStopAlarm,"ax",%progbits
 125              		.align	1
 126              		.p2align 2,,3
 127              		.global	stStopAlarm
 128              		.syntax unified
 129              		.thumb
 130              		.thumb_func
 131              		.type	stStopAlarm, %function
 132              	stStopAlarm:
 133              	.LFB451:
 134              		.loc 1 133 24 is_stmt 1 view -0
 135              		.cfi_startproc
 136              		@ args = 0, pretend = 0, frame = 0
 137              		@ frame_needed = 0, uses_anonymous_args = 0
 138              		@ link register save eliminated.
 139              		.loc 1 135 3 view .LVU27
 140              	.LBB19:
 141              	.LBI19:
 142              		.loc 2 834 20 view .LVU28
 143              	.LBB20:
 144              		.loc 2 837 3 view .LVU29
 145              		.loc 2 837 22 is_stmt 0 view .LVU30
 146 0000 4FF08043 		mov	r3, #1073741824
 147 0004 0022     		movs	r2, #0
 148 0006 DA60     		str	r2, [r3, #12]
 149              	.LBE20:
 150              	.LBE19:
 151              		.loc 1 136 1 view .LVU31
 152 0008 7047     		bx	lr
 153              		.cfi_endproc
 154              	.LFE451:
 155              		.size	stStopAlarm, .-stStopAlarm
 156 000a 00BF     		.section	.text.stSetAlarm,"ax",%progbits
 157              		.align	1
 158              		.p2align 2,,3
 159              		.global	stSetAlarm
 160              		.syntax unified
 161              		.thumb
 162              		.thumb_func
 163              		.type	stSetAlarm, %function
 164              	stSetAlarm:
 165              	.LVL4:
 166              	.LFB452:
 167              		.loc 1 147 36 is_stmt 1 view -0
 168              		.cfi_startproc
 169              		@ args = 0, pretend = 0, frame = 0
 170              		@ frame_needed = 0, uses_anonymous_args = 0
 171              		@ link register save eliminated.
ARM GAS  C:\Users\DEVELO~1\AppData\Local\Temp\ccYymk6T.s 			page 4


 172              		.loc 1 149 3 view .LVU33
 173              		.loc 1 149 3 view .LVU34
 174              		.loc 1 149 3 view .LVU35
 175              		.loc 1 151 3 view .LVU36
 176              	.LBB21:
 177              	.LBB22:
 178              		.loc 2 852 24 is_stmt 0 view .LVU37
 179 0000 4FF08043 		mov	r3, #1073741824
 180              	.LVL5:
 181              		.loc 2 852 24 view .LVU38
 182              	.LBE22:
 183              	.LBI21:
 184              		.loc 2 850 20 is_stmt 1 view .LVU39
 185              	.LBB23:
 186              		.loc 2 852 3 view .LVU40
 187              		.loc 2 852 24 is_stmt 0 view .LVU41
 188 0004 5863     		str	r0, [r3, #52]
 189              	.LVL6:
 190              		.loc 2 852 24 view .LVU42
 191              	.LBE23:
 192              	.LBE21:
 193              		.loc 1 152 1 view .LVU43
 194 0006 7047     		bx	lr
 195              		.cfi_endproc
 196              	.LFE452:
 197              		.size	stSetAlarm, .-stSetAlarm
 198              		.section	.text.stGetAlarm,"ax",%progbits
 199              		.align	1
 200              		.p2align 2,,3
 201              		.global	stGetAlarm
 202              		.syntax unified
 203              		.thumb
 204              		.thumb_func
 205              		.type	stGetAlarm, %function
 206              	stGetAlarm:
 207              	.LFB453:
 208              		.loc 1 163 28 is_stmt 1 view -0
 209              		.cfi_startproc
 210              		@ args = 0, pretend = 0, frame = 0
 211              		@ frame_needed = 0, uses_anonymous_args = 0
 212              		@ link register save eliminated.
 213              		.loc 1 165 3 view .LVU45
 214              		.loc 1 165 3 view .LVU46
 215              		.loc 1 165 3 view .LVU47
 216              		.loc 1 167 3 view .LVU48
 217              	.LBB24:
 218              	.LBI24:
 219              		.loc 2 862 25 view .LVU49
 220              	.LBB25:
 221              		.loc 2 864 3 view .LVU50
 222              		.loc 2 864 10 is_stmt 0 view .LVU51
 223 0000 4FF08043 		mov	r3, #1073741824
 224 0004 586B     		ldr	r0, [r3, #52]
 225              	.LBE25:
 226              	.LBE24:
 227              		.loc 1 168 1 view .LVU52
 228 0006 7047     		bx	lr
ARM GAS  C:\Users\DEVELO~1\AppData\Local\Temp\ccYymk6T.s 			page 5


 229              		.cfi_endproc
 230              	.LFE453:
 231              		.size	stGetAlarm, .-stGetAlarm
 232              		.section	.text.stIsAlarmActive,"ax",%progbits
 233              		.align	1
 234              		.p2align 2,,3
 235              		.global	stIsAlarmActive
 236              		.syntax unified
 237              		.thumb
 238              		.thumb_func
 239              		.type	stIsAlarmActive, %function
 240              	stIsAlarmActive:
 241              	.LFB454:
 242              		.loc 1 179 28 is_stmt 1 view -0
 243              		.cfi_startproc
 244              		@ args = 0, pretend = 0, frame = 0
 245              		@ frame_needed = 0, uses_anonymous_args = 0
 246              		@ link register save eliminated.
 247              		.loc 1 181 3 view .LVU54
 248              	.LBB26:
 249              	.LBI26:
 250              		.loc 2 876 20 view .LVU55
 251              	.LBB27:
 252              		.loc 2 878 3 view .LVU56
 253              		.loc 2 878 30 is_stmt 0 view .LVU57
 254 0000 4FF08043 		mov	r3, #1073741824
 255 0004 D868     		ldr	r0, [r3, #12]
 256              	.LBE27:
 257              	.LBE26:
 258              		.loc 1 182 1 view .LVU58
 259 0006 C0F34000 		ubfx	r0, r0, #1, #1
 260 000a 7047     		bx	lr
 261              		.cfi_endproc
 262              	.LFE454:
 263              		.size	stIsAlarmActive, .-stIsAlarmActive
 264              		.text
 265              	.Letext0:
 266              		.file 3 "c:\\chibistudio\\tools\\gnu tools arm embedded\\11.3 2022.08\\arm-none-eabi\\include\\mac
 267              		.file 4 "c:\\chibistudio\\tools\\gnu tools arm embedded\\11.3 2022.08\\arm-none-eabi\\include\\sys
 268              		.file 5 "./docs/ChibiOS/os/rt/include/chtime.h"
 269              		.file 6 "./docs/ChibiOS/os/hal/ports/STM32/LLD/TIMv1/stm32_tim.h"