ARM GAS  C:\Users\DEVELO~1\AppData\Local\Temp\cc6jhEjd.s 			page 1


   1              		.cpu cortex-m7
   2              		.arch armv7e-m
   3              		.fpu fpv5-d16
   4              		.eabi_attribute 28, 1
   5              		.eabi_attribute 20, 1
   6              		.eabi_attribute 21, 1
   7              		.eabi_attribute 23, 3
   8              		.eabi_attribute 24, 1
   9              		.eabi_attribute 25, 1
  10              		.eabi_attribute 26, 1
  11              		.eabi_attribute 30, 2
  12              		.eabi_attribute 34, 1
  13              		.eabi_attribute 18, 4
  14              		.file	"hal_lld.c"
  15              		.text
  16              	.Ltext0:
  17              		.cfi_sections	.debug_frame
  18              		.section	.text.hal_lld_init,"ax",%progbits
  19              		.align	1
  20              		.p2align 2,,3
  21              		.global	hal_lld_init
  22              		.syntax unified
  23              		.thumb
  24              		.thumb_func
  25              		.type	hal_lld_init, %function
  26              	hal_lld_init:
  27              	.LFB450:
  28              		.file 1 "../../../os/hal/ports/STM32/STM32H7xx/hal_lld.c"
  29              		.loc 1 150 25 view -0
  30              		.cfi_startproc
  31              		@ args = 0, pretend = 0, frame = 0
  32              		@ frame_needed = 0, uses_anonymous_args = 0
  33              		.loc 1 160 3 view .LVU1
  34              	.LVL0:
  35              	.LBB29:
  36              	.LBI29:
  37              		.file 2 "../../../os/hal/ports/STM32/STM32H7xx/stm32_rcc.h"
  38              		.loc 2 97 22 view .LVU2
  39              	.LBB30:
  40              		.loc 2 100 3 view .LVU3
  41              	.LBE30:
  42              	.LBE29:
  43              		.loc 1 150 25 is_stmt 0 view .LVU4
  44 0000 38B5     		push	{r3, r4, r5, lr}
  45              		.cfi_def_cfa_offset 16
  46              		.cfi_offset 3, -16
  47              		.cfi_offset 4, -12
  48              		.cfi_offset 5, -8
  49              		.cfi_offset 14, -4
  50              	.LBB34:
  51              	.LBB31:
  52              		.loc 2 100 17 view .LVU5
  53 0002 364B     		ldr	r3, .L4
  54              	.LBE31:
  55              	.LBE34:
  56              	.LBB35:
  57              	.LBB36:
ARM GAS  C:\Users\DEVELO~1\AppData\Local\Temp\cc6jhEjd.s 			page 2


  58              		.loc 2 109 17 view .LVU6
  59 0004 0022     		movs	r2, #0
  60              		.loc 2 108 17 view .LVU7
  61 0006 4FF0FF31 		mov	r1, #-1
  62              	.LBE36:
  63              	.LBE35:
  64              	.LBB38:
  65              	.LBB39:
  66              		.loc 2 116 17 view .LVU8
  67 000a 354C     		ldr	r4, .L4+4
  68              	.LBE39:
  69              	.LBE38:
  70              	.LBB43:
  71              	.LBB32:
  72              		.loc 2 100 17 view .LVU9
  73 000c D3F88000 		ldr	r0, [r3, #128]
  74              	.LBE32:
  75              	.LBE43:
  76              	.LBB44:
  77              	.LBB40:
  78              		.loc 2 117 17 view .LVU10
  79 0010 344D     		ldr	r5, .L4+8
  80              	.LBE40:
  81              	.LBE44:
  82              	.LBB45:
  83              	.LBB33:
  84              		.loc 2 100 17 view .LVU11
  85 0012 60F00040 		orn	r0, r0, #-2147483648
  86 0016 C3F88000 		str	r0, [r3, #128]
  87              		.loc 2 101 3 is_stmt 1 view .LVU12
  88              		.loc 2 101 17 is_stmt 0 view .LVU13
  89 001a D3F88000 		ldr	r0, [r3, #128]
  90 001e 00F00040 		and	r0, r0, #-2147483648
  91 0022 C3F88000 		str	r0, [r3, #128]
  92              		.loc 2 102 3 is_stmt 1 view .LVU14
  93 0026 D3F88000 		ldr	r0, [r3, #128]
  94              	.LVL1:
  95              		.loc 2 102 3 is_stmt 0 view .LVU15
  96              	.LBE33:
  97              	.LBE45:
  98              		.loc 1 161 3 is_stmt 1 view .LVU16
  99              	.LBB46:
 100              	.LBI35:
 101              		.loc 2 105 22 view .LVU17
 102              	.LBB37:
 103              		.loc 2 108 3 view .LVU18
 104              		.loc 2 108 17 is_stmt 0 view .LVU19
 105 002a D3F88400 		ldr	r0, [r3, #132]
 106 002e C3F88410 		str	r1, [r3, #132]
 107              		.loc 2 109 3 is_stmt 1 view .LVU20
 108              		.loc 2 109 17 is_stmt 0 view .LVU21
 109 0032 D3F88400 		ldr	r0, [r3, #132]
 110 0036 C3F88420 		str	r2, [r3, #132]
 111              		.loc 2 110 3 is_stmt 1 view .LVU22
 112 003a D3F88400 		ldr	r0, [r3, #132]
 113              	.LVL2:
 114              		.loc 2 110 3 is_stmt 0 view .LVU23
ARM GAS  C:\Users\DEVELO~1\AppData\Local\Temp\cc6jhEjd.s 			page 3


 115              	.LBE37:
 116              	.LBE46:
 117              		.loc 1 162 3 is_stmt 1 view .LVU24
 118              	.LBB47:
 119              	.LBI38:
 120              		.loc 2 113 22 view .LVU25
 121              	.LBB41:
 122              		.loc 2 116 3 view .LVU26
 123              		.loc 2 116 17 is_stmt 0 view .LVU27
 124 003e D86F     		ldr	r0, [r3, #124]
 125 0040 2043     		orrs	r0, r0, r4
 126 0042 D867     		str	r0, [r3, #124]
 127              		.loc 2 117 3 is_stmt 1 view .LVU28
 128              		.loc 2 117 17 is_stmt 0 view .LVU29
 129 0044 DC6F     		ldr	r4, [r3, #124]
 130              	.LBE41:
 131              	.LBE47:
 132              	.LBB48:
 133              	.LBB49:
 134              		.loc 2 124 17 view .LVU30
 135 0046 2848     		ldr	r0, .L4+12
 136              	.LBE49:
 137              	.LBE48:
 138              	.LBB51:
 139              	.LBB42:
 140              		.loc 2 117 17 view .LVU31
 141 0048 2C40     		ands	r4, r4, r5
 142 004a DC67     		str	r4, [r3, #124]
 143              		.loc 2 118 3 is_stmt 1 view .LVU32
 144 004c DC6F     		ldr	r4, [r3, #124]
 145              	.LVL3:
 146              		.loc 2 118 3 is_stmt 0 view .LVU33
 147              	.LBE42:
 148              	.LBE51:
 149              		.loc 1 177 3 is_stmt 1 view .LVU34
 150              	.LBB52:
 151              	.LBI48:
 152              		.loc 2 121 22 view .LVU35
 153              	.LBB50:
 154              		.loc 2 124 3 view .LVU36
 155              		.loc 2 124 17 is_stmt 0 view .LVU37
 156 004e D3F88840 		ldr	r4, [r3, #136]
 157 0052 2043     		orrs	r0, r0, r4
 158 0054 C3F88800 		str	r0, [r3, #136]
 159              		.loc 2 125 3 is_stmt 1 view .LVU38
 160              		.loc 2 125 17 is_stmt 0 view .LVU39
 161 0058 D3F88800 		ldr	r0, [r3, #136]
 162 005c C0F30A00 		ubfx	r0, r0, #0, #11
 163 0060 C3F88800 		str	r0, [r3, #136]
 164              		.loc 2 126 3 is_stmt 1 view .LVU40
 165 0064 D3F88800 		ldr	r0, [r3, #136]
 166              	.LVL4:
 167              		.loc 2 126 3 is_stmt 0 view .LVU41
 168              	.LBE50:
 169              	.LBE52:
 170              		.loc 1 178 3 is_stmt 1 view .LVU42
 171              	.LBB53:
ARM GAS  C:\Users\DEVELO~1\AppData\Local\Temp\cc6jhEjd.s 			page 4


 172              	.LBI53:
 173              		.loc 2 57 22 view .LVU43
 174              	.LBB54:
 175              		.loc 2 60 3 view .LVU44
 176              		.loc 2 60 18 is_stmt 0 view .LVU45
 177 0068 D3F89000 		ldr	r0, [r3, #144]
 178 006c C3F89010 		str	r1, [r3, #144]
 179              		.loc 2 61 3 is_stmt 1 view .LVU46
 180              		.loc 2 61 18 is_stmt 0 view .LVU47
 181 0070 D3F89000 		ldr	r0, [r3, #144]
 182 0074 C3F89020 		str	r2, [r3, #144]
 183              		.loc 2 62 3 is_stmt 1 view .LVU48
 184 0078 D3F89000 		ldr	r0, [r3, #144]
 185              	.LVL5:
 186              		.loc 2 62 3 is_stmt 0 view .LVU49
 187              	.LBE54:
 188              	.LBE53:
 189              		.loc 1 179 3 is_stmt 1 view .LVU50
 190              	.LBB55:
 191              	.LBI55:
 192              		.loc 2 65 22 view .LVU51
 193              	.LBB56:
 194              		.loc 2 68 3 view .LVU52
 195              		.loc 2 68 18 is_stmt 0 view .LVU53
 196 007c D3F89400 		ldr	r0, [r3, #148]
 197 0080 C3F89410 		str	r1, [r3, #148]
 198              		.loc 2 69 3 is_stmt 1 view .LVU54
 199              		.loc 2 69 18 is_stmt 0 view .LVU55
 200 0084 D3F89400 		ldr	r0, [r3, #148]
 201 0088 C3F89420 		str	r2, [r3, #148]
 202              		.loc 2 70 3 is_stmt 1 view .LVU56
 203 008c D3F89400 		ldr	r0, [r3, #148]
 204              	.LVL6:
 205              		.loc 2 70 3 is_stmt 0 view .LVU57
 206              	.LBE56:
 207              	.LBE55:
 208              		.loc 1 180 3 is_stmt 1 view .LVU58
 209              	.LBB57:
 210              	.LBI57:
 211              		.loc 2 73 22 view .LVU59
 212              	.LBB58:
 213              		.loc 2 76 3 view .LVU60
 214              		.loc 2 76 17 is_stmt 0 view .LVU61
 215 0090 D3F89800 		ldr	r0, [r3, #152]
 216 0094 C3F89810 		str	r1, [r3, #152]
 217              		.loc 2 77 3 is_stmt 1 view .LVU62
 218              		.loc 2 77 17 is_stmt 0 view .LVU63
 219 0098 D3F89800 		ldr	r0, [r3, #152]
 220 009c C3F89820 		str	r2, [r3, #152]
 221              		.loc 2 78 3 is_stmt 1 view .LVU64
 222 00a0 D3F89800 		ldr	r0, [r3, #152]
 223              	.LVL7:
 224              		.loc 2 78 3 is_stmt 0 view .LVU65
 225              	.LBE58:
 226              	.LBE57:
 227              		.loc 1 181 3 is_stmt 1 view .LVU66
 228              	.LBB59:
ARM GAS  C:\Users\DEVELO~1\AppData\Local\Temp\cc6jhEjd.s 			page 5


 229              	.LBI59:
 230              		.loc 2 81 22 view .LVU67
 231              	.LBB60:
 232              		.loc 2 84 3 view .LVU68
 233              		.loc 2 84 17 is_stmt 0 view .LVU69
 234 00a4 D3F88C00 		ldr	r0, [r3, #140]
 235 00a8 C3F88C10 		str	r1, [r3, #140]
 236              		.loc 2 85 3 is_stmt 1 view .LVU70
 237              		.loc 2 85 17 is_stmt 0 view .LVU71
 238 00ac D3F88C00 		ldr	r0, [r3, #140]
 239 00b0 C3F88C20 		str	r2, [r3, #140]
 240              		.loc 2 86 3 is_stmt 1 view .LVU72
 241 00b4 D3F88C00 		ldr	r0, [r3, #140]
 242              	.LVL8:
 243              		.loc 2 86 3 is_stmt 0 view .LVU73
 244              	.LBE60:
 245              	.LBE59:
 246              		.loc 1 182 3 is_stmt 1 view .LVU74
 247              	.LBB61:
 248              	.LBI61:
 249              		.loc 2 89 22 view .LVU75
 250              	.LBB62:
 251              		.loc 2 92 3 view .LVU76
 252              		.loc 2 92 17 is_stmt 0 view .LVU77
 253 00b8 D3F89C00 		ldr	r0, [r3, #156]
 254 00bc C3F89C10 		str	r1, [r3, #156]
 255              		.loc 2 93 3 is_stmt 1 view .LVU78
 256              		.loc 2 93 17 is_stmt 0 view .LVU79
 257 00c0 D3F89C10 		ldr	r1, [r3, #156]
 258 00c4 C3F89C20 		str	r2, [r3, #156]
 259              		.loc 2 94 3 is_stmt 1 view .LVU80
 260 00c8 D3F89C30 		ldr	r3, [r3, #156]
 261              	.LVL9:
 262              		.loc 2 94 3 is_stmt 0 view .LVU81
 263              	.LBE62:
 264              	.LBE61:
 265              		.loc 1 187 3 is_stmt 1 view .LVU82
 266 00cc FFF7FEFF 		bl	bdmaInit
 267              	.LVL10:
 268              		.loc 1 190 3 view .LVU83
 269 00d0 FFF7FEFF 		bl	dmaInit
 270              	.LVL11:
 271              		.loc 1 197 3 view .LVU84
 272              		.loc 1 218 1 is_stmt 0 view .LVU85
 273 00d4 BDE83840 		pop	{r3, r4, r5, lr}
 274              		.cfi_restore 14
 275              		.cfi_restore 5
 276              		.cfi_restore 4
 277              		.cfi_restore 3
 278              		.cfi_def_cfa_offset 0
 279              		.loc 1 197 3 view .LVU86
 280 00d8 FFF7FEBF 		b	irqInit
 281              	.LVL12:
 282              	.L5:
 283              		.align	2
 284              	.L4:
 285 00dc 00440258 		.word	1476543488
ARM GAS  C:\Users\DEVELO~1\AppData\Local\Temp\cc6jhEjd.s 			page 6


 286 00e0 FFEFFF7F 		.word	2147479551
 287 00e4 00100080 		.word	-2147479552
 288 00e8 00F8FFFF 		.word	-2048
 289              		.cfi_endproc
 290              	.LFE450:
 291              		.size	hal_lld_init, .-hal_lld_init
 292              		.section	.text.stm32_clock_init,"ax",%progbits
 293              		.align	1
 294              		.p2align 2,,3
 295              		.global	stm32_clock_init
 296              		.syntax unified
 297              		.thumb
 298              		.thumb_func
 299              		.type	stm32_clock_init, %function
 300              	stm32_clock_init:
 301              	.LFB451:
 302              		.loc 1 227 29 is_stmt 1 view -0
 303              		.cfi_startproc
 304              		@ args = 0, pretend = 0, frame = 0
 305              		@ frame_needed = 0, uses_anonymous_args = 0
 306              		@ link register save eliminated.
 307              		.loc 1 229 3 view .LVU88
 308              		.loc 1 245 3 view .LVU89
 309              	.LVL13:
 310              	.LBB76:
 311              	.LBI76:
 312              		.loc 2 497 22 view .LVU90
 313              	.LBB77:
 314              		.loc 2 501 3 view .LVU91
 315              		.loc 2 501 19 is_stmt 0 view .LVU92
 316 0000 6F4B     		ldr	r3, .L41
 317              	.LBE77:
 318              	.LBE76:
 319              	.LBB80:
 320              	.LBB81:
 321              		.loc 1 106 14 view .LVU93
 322 0002 0220     		movs	r0, #2
 323 0004 6F4A     		ldr	r2, .L41+4
 324              	.LBE81:
 325              	.LBE80:
 326              	.LBB83:
 327              	.LBB78:
 328              		.loc 2 501 19 view .LVU94
 329 0006 D3F8F410 		ldr	r1, [r3, #244]
 330 000a 0143     		orrs	r1, r1, r0
 331              	.LBE78:
 332              	.LBE83:
 333              		.loc 1 227 29 view .LVU95
 334 000c 10B4     		push	{r4}
 335              		.cfi_def_cfa_offset 4
 336              		.cfi_offset 4, -4
 337              	.LBB84:
 338              	.LBB79:
 339              		.loc 2 501 19 view .LVU96
 340 000e C3F8F410 		str	r1, [r3, #244]
 341              		.loc 2 502 3 is_stmt 1 view .LVU97
 342              		.loc 2 503 5 view .LVU98
ARM GAS  C:\Users\DEVELO~1\AppData\Local\Temp\cc6jhEjd.s 			page 7


 343              		.loc 2 503 23 is_stmt 0 view .LVU99
 344 0012 D3F81C11 		ldr	r1, [r3, #284]
 345 0016 0143     		orrs	r1, r1, r0
 346 0018 C3F81C11 		str	r1, [r3, #284]
 347              		.loc 2 508 3 is_stmt 1 view .LVU100
 348 001c D3F81C31 		ldr	r3, [r3, #284]
 349              	.LVL14:
 350              		.loc 2 508 3 is_stmt 0 view .LVU101
 351              	.LBE79:
 352              	.LBE84:
 353              		.loc 1 248 3 is_stmt 1 view .LVU102
 354              	.LBB85:
 355              	.LBI80:
 356              		.loc 1 98 20 view .LVU103
 357              	.LBB82:
 358              		.loc 1 106 3 view .LVU104
 359              		.loc 1 106 14 is_stmt 0 view .LVU105
 360 0020 D060     		str	r0, [r2, #12]
 361              		.loc 1 107 3 is_stmt 1 view .LVU106
 362              	.L7:
 363              		.loc 1 107 43 view .LVU107
 364              		.loc 1 107 14 is_stmt 0 view .LVU108
 365 0022 5368     		ldr	r3, [r2, #4]
 366              		.loc 1 107 43 view .LVU109
 367 0024 9804     		lsls	r0, r3, #18
 368 0026 FCD5     		bpl	.L7
 369              		.loc 1 110 3 is_stmt 1 view .LVU110
 370              		.loc 1 110 14 is_stmt 0 view .LVU111
 371 0028 6748     		ldr	r0, .L41+8
 372              		.loc 1 113 14 view .LVU112
 373 002a 0023     		movs	r3, #0
 374              		.loc 1 111 14 view .LVU113
 375 002c 0121     		movs	r1, #1
 376              		.loc 1 112 14 view .LVU114
 377 002e 674C     		ldr	r4, .L41+12
 378              		.loc 1 110 14 view .LVU115
 379 0030 1060     		str	r0, [r2]
 380              		.loc 1 111 3 is_stmt 1 view .LVU116
 381              		.loc 1 117 14 is_stmt 0 view .LVU117
 382 0032 4FF44040 		mov	r0, #49152
 383              		.loc 1 111 14 view .LVU118
 384 0036 9160     		str	r1, [r2, #8]
 385              		.loc 1 112 3 is_stmt 1 view .LVU119
 386              		.loc 1 112 14 is_stmt 0 view .LVU120
 387 0038 D460     		str	r4, [r2, #12]
 388              		.loc 1 113 3 is_stmt 1 view .LVU121
 389              		.loc 1 121 17 is_stmt 0 view .LVU122
 390 003a 6549     		ldr	r1, .L41+16
 391              		.loc 1 113 14 view .LVU123
 392 003c 1361     		str	r3, [r2, #16]
 393              		.loc 1 117 3 is_stmt 1 view .LVU124
 394              		.loc 1 117 14 is_stmt 0 view .LVU125
 395 003e 9061     		str	r0, [r2, #24]
 396              		.loc 1 121 3 is_stmt 1 view .LVU126
 397              		.loc 1 127 14 is_stmt 0 view .LVU127
 398 0040 604A     		ldr	r2, .L41+4
 399              		.loc 1 121 17 view .LVU128
ARM GAS  C:\Users\DEVELO~1\AppData\Local\Temp\cc6jhEjd.s 			page 8


 400 0042 CB62     		str	r3, [r1, #44]
 401              		.loc 1 127 3 is_stmt 1 view .LVU129
 402              	.L8:
 403              		.loc 1 127 40 view .LVU130
 404              		.loc 1 127 14 is_stmt 0 view .LVU131
 405 0044 9369     		ldr	r3, [r2, #24]
 406              		.loc 1 127 40 view .LVU132
 407 0046 9904     		lsls	r1, r3, #18
 408 0048 FCD5     		bpl	.L8
 409              	.LBE82:
 410              	.LBE85:
 411              		.loc 1 251 3 is_stmt 1 view .LVU133
 412              	.LBB86:
 413              	.LBI86:
 414              		.loc 1 58 20 view .LVU134
 415              	.LBB87:
 416              		.loc 1 61 3 view .LVU135
 417              		.loc 1 61 12 is_stmt 0 view .LVU136
 418 004a 1368     		ldr	r3, [r2]
 419              		.loc 1 64 11 view .LVU137
 420 004c 5C49     		ldr	r1, .L41
 421              		.loc 1 61 12 view .LVU138
 422 004e 43F48073 		orr	r3, r3, #256
 423 0052 1360     		str	r3, [r2]
 424              		.loc 1 64 3 is_stmt 1 view .LVU139
 425              		.loc 1 64 11 is_stmt 0 view .LVU140
 426 0054 0B6F     		ldr	r3, [r1, #112]
 427              		.loc 1 64 18 view .LVU141
 428 0056 03F44073 		and	r3, r3, #768
 429              		.loc 1 64 6 view .LVU142
 430 005a B3F5007F 		cmp	r3, #512
 431 005e 04D0     		beq	.L9
 432              		.loc 1 66 5 is_stmt 1 view .LVU143
 433              		.loc 1 66 15 is_stmt 0 view .LVU144
 434 0060 4FF48032 		mov	r2, #65536
 435              		.loc 1 67 15 view .LVU145
 436 0064 0023     		movs	r3, #0
 437              		.loc 1 66 15 view .LVU146
 438 0066 0A67     		str	r2, [r1, #112]
 439              		.loc 1 67 5 is_stmt 1 view .LVU147
 440              		.loc 1 67 15 is_stmt 0 view .LVU148
 441 0068 0B67     		str	r3, [r1, #112]
 442              	.L9:
 443              	.LBE87:
 444              	.LBE86:
 445              		.loc 1 255 3 is_stmt 1 view .LVU149
 446              		.loc 1 255 11 is_stmt 0 view .LVU150
 447 006a 5549     		ldr	r1, .L41
 448 006c 0B68     		ldr	r3, [r1]
 449 006e 43F00103 		orr	r3, r3, #1
 450 0072 0B60     		str	r3, [r1]
 451              		.loc 1 256 3 is_stmt 1 view .LVU151
 452              	.L10:
 453              		.loc 1 256 10 discriminator 1 view .LVU152
 454              		.loc 1 256 15 is_stmt 0 discriminator 1 view .LVU153
 455 0074 0B68     		ldr	r3, [r1]
 456              		.loc 1 256 10 discriminator 1 view .LVU154
ARM GAS  C:\Users\DEVELO~1\AppData\Local\Temp\cc6jhEjd.s 			page 9


 457 0076 5B07     		lsls	r3, r3, #29
 458 0078 FCD5     		bpl	.L10
 459              		.loc 1 262 3 is_stmt 1 view .LVU155
 460              		.loc 1 262 16 is_stmt 0 view .LVU156
 461 007a 0023     		movs	r3, #0
 462              		.loc 1 263 14 view .LVU157
 463 007c 504A     		ldr	r2, .L41
 464              		.loc 1 262 16 view .LVU158
 465 007e 0B61     		str	r3, [r1, #16]
 466              		.loc 1 263 3 is_stmt 1 view .LVU159
 467              	.L11:
 468              		.loc 1 263 37 discriminator 1 view .LVU160
 469              		.loc 1 263 14 is_stmt 0 discriminator 1 view .LVU161
 470 0080 1369     		ldr	r3, [r2, #16]
 471              		.loc 1 263 37 discriminator 1 view .LVU162
 472 0082 13F03803 		ands	r3, r3, #56
 473 0086 FBD1     		bne	.L11
 474              		.loc 1 267 3 is_stmt 1 view .LVU163
 475              		.loc 1 267 16 is_stmt 0 view .LVU164
 476 0088 0120     		movs	r0, #1
 477              		.loc 1 268 16 view .LVU165
 478 008a 4FF08041 		mov	r1, #1073741824
 479              		.loc 1 270 16 view .LVU166
 480 008e 4FF00054 		mov	r4, #536870912
 481              		.loc 1 267 16 view .LVU167
 482 0092 1060     		str	r0, [r2]
 483              		.loc 1 268 3 is_stmt 1 view .LVU168
 484              		.loc 1 268 16 is_stmt 0 view .LVU169
 485 0094 5160     		str	r1, [r2, #4]
 486              		.loc 1 270 3 is_stmt 1 view .LVU170
 487              		.loc 1 273 16 is_stmt 0 view .LVU171
 488 0096 4F48     		ldr	r0, .L41+20
 489              		.loc 1 287 13 view .LVU172
 490 0098 4F49     		ldr	r1, .L41+24
 491              		.loc 1 270 16 view .LVU173
 492 009a D460     		str	r4, [r2, #12]
 493              		.loc 1 272 3 is_stmt 1 view .LVU174
 494              		.loc 1 272 16 is_stmt 0 view .LVU175
 495 009c 5367     		str	r3, [r2, #116]
 496              		.loc 1 273 3 is_stmt 1 view .LVU176
 497              		.loc 1 273 16 is_stmt 0 view .LVU177
 498 009e D062     		str	r0, [r2, #44]
 499              		.loc 1 277 3 is_stmt 1 view .LVU178
 500              	.LVL15:
 501              		.loc 1 282 3 view .LVU179
 502              		.loc 1 285 3 view .LVU180
 503              		.loc 1 287 3 view .LVU181
 504              		.loc 1 287 13 is_stmt 0 view .LVU182
 505 00a0 1161     		str	r1, [r2, #16]
 506              		.loc 1 292 3 is_stmt 1 view .LVU183
 507              		.loc 1 292 11 is_stmt 0 view .LVU184
 508 00a2 1368     		ldr	r3, [r2]
 509              		.loc 1 296 14 view .LVU185
 510 00a4 4648     		ldr	r0, .L41
 511              		.loc 1 292 11 view .LVU186
 512 00a6 43F4A023 		orr	r3, r3, #327680
 513 00aa 1360     		str	r3, [r2]
ARM GAS  C:\Users\DEVELO~1\AppData\Local\Temp\cc6jhEjd.s 			page 10


 514              		.loc 1 296 3 is_stmt 1 view .LVU187
 515              	.L12:
 516              		.loc 1 296 36 discriminator 1 view .LVU188
 517              		.loc 1 296 14 is_stmt 0 discriminator 1 view .LVU189
 518 00ac 0368     		ldr	r3, [r0]
 519              		.loc 1 296 36 discriminator 1 view .LVU190
 520 00ae 9C03     		lsls	r4, r3, #14
 521 00b0 FCD5     		bpl	.L12
 522              		.loc 1 302 3 is_stmt 1 view .LVU191
 523              		.loc 1 302 11 is_stmt 0 view .LVU192
 524 00b2 0368     		ldr	r3, [r0]
 525              		.loc 1 303 14 view .LVU193
 526 00b4 4249     		ldr	r1, .L41
 527              		.loc 1 302 11 view .LVU194
 528 00b6 43F48053 		orr	r3, r3, #4096
 529 00ba 0360     		str	r3, [r0]
 530              		.loc 1 303 3 is_stmt 1 view .LVU195
 531              	.L13:
 532              		.loc 1 303 38 discriminator 1 view .LVU196
 533              		.loc 1 303 14 is_stmt 0 discriminator 1 view .LVU197
 534 00bc 0B68     		ldr	r3, [r1]
 535              		.loc 1 303 38 discriminator 1 view .LVU198
 536 00be 9804     		lsls	r0, r3, #18
 537 00c0 FCD5     		bpl	.L13
 538              		.loc 1 310 3 is_stmt 1 view .LVU199
 539              		.loc 1 310 11 is_stmt 0 view .LVU200
 540 00c2 0B68     		ldr	r3, [r1]
 541              		.loc 1 311 14 view .LVU201
 542 00c4 3E4A     		ldr	r2, .L41
 543              		.loc 1 310 11 view .LVU202
 544 00c6 43F08003 		orr	r3, r3, #128
 545 00ca 0B60     		str	r3, [r1]
 546              		.loc 1 311 3 is_stmt 1 view .LVU203
 547              	.L14:
 548              		.loc 1 311 36 discriminator 1 view .LVU204
 549              		.loc 1 311 14 is_stmt 0 discriminator 1 view .LVU205
 550 00cc 1368     		ldr	r3, [r2]
 551              		.loc 1 311 36 discriminator 1 view .LVU206
 552 00ce D905     		lsls	r1, r3, #23
 553 00d0 FCD5     		bpl	.L14
 554              		.loc 1 317 3 is_stmt 1 view .LVU207
 555              		.loc 1 317 12 is_stmt 0 view .LVU208
 556 00d2 516F     		ldr	r1, [r2, #116]
 557              		.loc 1 318 14 view .LVU209
 558 00d4 3A4B     		ldr	r3, .L41
 559              		.loc 1 317 12 view .LVU210
 560 00d6 41F00101 		orr	r1, r1, #1
 561 00da 5167     		str	r1, [r2, #116]
 562              		.loc 1 318 3 is_stmt 1 view .LVU211
 563              	.L15:
 564              		.loc 1 318 38 discriminator 1 view .LVU212
 565              		.loc 1 318 14 is_stmt 0 discriminator 1 view .LVU213
 566 00dc 5A6F     		ldr	r2, [r3, #116]
 567              		.loc 1 318 38 discriminator 1 view .LVU214
 568 00de 9207     		lsls	r2, r2, #30
 569 00e0 FCD5     		bpl	.L15
 570              	.LBB88:
ARM GAS  C:\Users\DEVELO~1\AppData\Local\Temp\cc6jhEjd.s 			page 11


 571              		.loc 1 328 5 is_stmt 1 view .LVU215
 572              	.LVL16:
 573              		.loc 1 329 5 view .LVU216
 574              		.loc 1 330 5 view .LVU217
 575              		.loc 1 332 5 view .LVU218
 576              		.loc 1 342 20 is_stmt 0 view .LVU219
 577 00e2 0022     		movs	r2, #0
 578              		.loc 1 332 20 view .LVU220
 579 00e4 3D48     		ldr	r0, .L41+28
 580              		.loc 1 343 20 view .LVU221
 581 00e6 3E49     		ldr	r1, .L41+32
 582              		.loc 1 332 20 view .LVU222
 583 00e8 9862     		str	r0, [r3, #40]
 584              		.loc 1 337 5 is_stmt 1 view .LVU223
 585              	.LVL17:
 586              		.loc 1 342 5 view .LVU224
 587              		.loc 1 376 20 is_stmt 0 view .LVU225
 588 00ea 42F2E860 		movw	r0, #9960
 589              		.loc 1 342 20 view .LVU226
 590 00ee 5A63     		str	r2, [r3, #52]
 591              		.loc 1 343 5 is_stmt 1 view .LVU227
 592              		.loc 1 343 20 is_stmt 0 view .LVU228
 593 00f0 1963     		str	r1, [r3, #48]
 594              		.loc 1 345 5 is_stmt 1 view .LVU229
 595              	.LVL18:
 596              		.loc 1 346 5 view .LVU230
 597              		.loc 1 348 5 view .LVU231
 598              		.loc 1 351 5 view .LVU232
 599              		.loc 1 354 5 view .LVU233
 600              		.loc 1 359 5 view .LVU234
 601              		.loc 1 377 20 is_stmt 0 view .LVU235
 602 00f2 A1F57F31 		sub	r1, r1, #261120
 603              		.loc 1 359 20 view .LVU236
 604 00f6 DA63     		str	r2, [r3, #60]
 605              		.loc 1 360 5 is_stmt 1 view .LVU237
 606              		.loc 1 377 20 is_stmt 0 view .LVU238
 607 00f8 2F39     		subs	r1, r1, #47
 608              		.loc 1 393 18 view .LVU239
 609 00fa 3A4A     		ldr	r2, .L41+36
 610              		.loc 1 360 20 view .LVU240
 611 00fc 3A4C     		ldr	r4, .L41+40
 612 00fe 9C63     		str	r4, [r3, #56]
 613              		.loc 1 362 5 is_stmt 1 view .LVU241
 614              	.LVL19:
 615              		.loc 1 363 5 view .LVU242
 616              		.loc 1 365 5 view .LVU243
 617              		.loc 1 368 5 view .LVU244
 618              		.loc 1 371 5 view .LVU245
 619              		.loc 1 376 5 view .LVU246
 620              		.loc 1 376 20 is_stmt 0 view .LVU247
 621 0100 5864     		str	r0, [r3, #68]
 622              		.loc 1 377 5 is_stmt 1 view .LVU248
 623              		.loc 1 377 20 is_stmt 0 view .LVU249
 624 0102 1964     		str	r1, [r3, #64]
 625              		.loc 1 379 5 is_stmt 1 view .LVU250
 626              	.LVL20:
 627              		.loc 1 380 5 view .LVU251
ARM GAS  C:\Users\DEVELO~1\AppData\Local\Temp\cc6jhEjd.s 			page 12


 628              		.loc 1 382 5 view .LVU252
 629              		.loc 1 385 5 view .LVU253
 630              		.loc 1 388 5 view .LVU254
 631              		.loc 1 393 5 view .LVU255
 632              		.loc 1 393 18 is_stmt 0 view .LVU256
 633 0104 DA62     		str	r2, [r3, #44]
 634              		.loc 1 394 5 is_stmt 1 view .LVU257
 635              		.loc 1 394 17 is_stmt 0 view .LVU258
 636 0106 1968     		ldr	r1, [r3]
 637              		.loc 1 395 16 view .LVU259
 638 0108 2D4A     		ldr	r2, .L41
 639              		.loc 1 394 17 view .LVU260
 640 010a 41F0A851 		orr	r1, r1, #352321536
 641 010e 1960     		str	r1, [r3]
 642              		.loc 1 395 5 is_stmt 1 view .LVU261
 643              	.L16:
 644              		.loc 1 395 32 discriminator 1 view .LVU262
 645              		.loc 1 395 16 is_stmt 0 discriminator 1 view .LVU263
 646 0110 1368     		ldr	r3, [r2]
 647              		.loc 1 395 21 discriminator 1 view .LVU264
 648 0112 03F02853 		and	r3, r3, #704643072
 649              		.loc 1 395 32 discriminator 1 view .LVU265
 650 0116 B3F1285F 		cmp	r3, #704643072
 651 011a F9D1     		bne	.L16
 652              	.LBE88:
 653              		.loc 1 406 3 is_stmt 1 view .LVU266
 654              		.loc 1 406 15 is_stmt 0 view .LVU267
 655 011c 4824     		movs	r4, #72
 656              		.loc 1 407 15 view .LVU268
 657 011e 4FF48863 		mov	r3, #1088
 658              		.loc 1 408 15 view .LVU269
 659 0122 4020     		movs	r0, #64
 660              		.loc 1 413 17 view .LVU270
 661 0124 4FF00051 		mov	r1, #536870912
 662              		.loc 1 406 15 view .LVU271
 663 0128 9461     		str	r4, [r2, #24]
 664              		.loc 1 407 3 is_stmt 1 view .LVU272
 665              		.loc 1 415 17 is_stmt 0 view .LVU273
 666 012a 8224     		movs	r4, #130
 667              		.loc 1 407 15 view .LVU274
 668 012c D361     		str	r3, [r2, #28]
 669              		.loc 1 408 3 is_stmt 1 view .LVU275
 670              		.loc 1 418 17 is_stmt 0 view .LVU276
 671 012e 4FF48013 		mov	r3, #1048576
 672              		.loc 1 408 15 view .LVU277
 673 0132 1062     		str	r0, [r2, #32]
 674              		.loc 1 413 3 is_stmt 1 view .LVU278
 675              		.loc 1 421 17 is_stmt 0 view .LVU279
 676 0134 4FF01070 		mov	r0, #37748736
 677              		.loc 1 413 17 view .LVU280
 678 0138 D164     		str	r1, [r2, #76]
 679              		.loc 1 415 3 is_stmt 1 view .LVU281
 680              		.loc 1 415 17 is_stmt 0 view .LVU282
 681 013a 1465     		str	r4, [r2, #80]
 682              		.loc 1 418 3 is_stmt 1 view .LVU283
 683              		.loc 1 452 14 is_stmt 0 view .LVU284
 684 013c 2B49     		ldr	r1, .L41+44
ARM GAS  C:\Users\DEVELO~1\AppData\Local\Temp\cc6jhEjd.s 			page 13


 685              		.loc 1 418 17 view .LVU285
 686 013e 5365     		str	r3, [r2, #84]
 687              		.loc 1 421 3 is_stmt 1 view .LVU286
 688              		.loc 1 452 14 is_stmt 0 view .LVU287
 689 0140 3123     		movs	r3, #49
 690              		.loc 1 421 17 view .LVU288
 691 0142 9065     		str	r0, [r2, #88]
 692              		.loc 1 452 3 is_stmt 1 view .LVU289
 693              		.loc 1 452 14 is_stmt 0 view .LVU290
 694 0144 0B60     		str	r3, [r1]
 695              		.loc 1 454 3 is_stmt 1 view .LVU291
 696              	.L17:
 697              		.loc 1 456 3 discriminator 1 view .LVU292
 698              		.loc 1 454 43 discriminator 1 view .LVU293
 699              		.loc 1 454 16 is_stmt 0 discriminator 1 view .LVU294
 700 0146 0B68     		ldr	r3, [r1]
 701              		.loc 1 454 22 discriminator 1 view .LVU295
 702 0148 03F00F03 		and	r3, r3, #15
 703              		.loc 1 454 43 discriminator 1 view .LVU296
 704 014c 012B     		cmp	r3, #1
 705 014e FAD1     		bne	.L17
 706              		.loc 1 461 3 is_stmt 1 view .LVU297
 707              		.loc 1 461 13 is_stmt 0 view .LVU298
 708 0150 1B4A     		ldr	r2, .L41
 709 0152 1369     		ldr	r3, [r2, #16]
 710 0154 43F00303 		orr	r3, r3, #3
 711 0158 1361     		str	r3, [r2, #16]
 712              		.loc 1 462 3 is_stmt 1 view .LVU299
 713              	.L18:
 714              		.loc 1 462 41 discriminator 1 view .LVU300
 715              		.loc 1 462 14 is_stmt 0 discriminator 1 view .LVU301
 716 015a 1369     		ldr	r3, [r2, #16]
 717              		.loc 1 462 21 discriminator 1 view .LVU302
 718 015c 03F03803 		and	r3, r3, #56
 719              		.loc 1 462 41 discriminator 1 view .LVU303
 720 0160 182B     		cmp	r3, #24
 721 0162 FAD1     		bne	.L18
 722              		.loc 1 477 3 is_stmt 1 view .LVU304
 723              	.LVL21:
 724              	.LBB89:
 725              	.LBI89:
 726              		.loc 2 675 22 view .LVU305
 727              	.LBB90:
 728              		.loc 2 679 3 view .LVU306
 729              		.loc 2 679 19 is_stmt 0 view .LVU307
 730 0164 D2F8DC30 		ldr	r3, [r2, #220]
 731              	.LBE90:
 732              	.LBE89:
 733              		.loc 1 483 1 view .LVU308
 734 0168 5DF8044B 		ldr	r4, [sp], #4
 735              		.cfi_restore 4
 736              		.cfi_def_cfa_offset 0
 737              	.LBB92:
 738              	.LBB91:
 739              		.loc 2 679 19 view .LVU309
 740 016c 43F00053 		orr	r3, r3, #536870912
 741 0170 C2F8DC30 		str	r3, [r2, #220]
ARM GAS  C:\Users\DEVELO~1\AppData\Local\Temp\cc6jhEjd.s 			page 14


 742              		.loc 2 680 3 is_stmt 1 view .LVU310
 743              		.loc 2 681 5 view .LVU311
 744              		.loc 2 681 23 is_stmt 0 view .LVU312
 745 0174 D2F80431 		ldr	r3, [r2, #260]
 746 0178 43F00053 		orr	r3, r3, #536870912
 747 017c C2F80431 		str	r3, [r2, #260]
 748              		.loc 2 686 3 is_stmt 1 view .LVU313
 749 0180 D2F80431 		ldr	r3, [r2, #260]
 750              	.LVL22:
 751              		.loc 2 686 3 is_stmt 0 view .LVU314
 752              	.LBE91:
 753              	.LBE92:
 754              		.loc 1 478 3 is_stmt 1 view .LVU315
 755              	.LBB93:
 756              	.LBI93:
 757              		.loc 2 675 22 view .LVU316
 758              	.LBB94:
 759              		.loc 2 679 3 view .LVU317
 760              		.loc 2 679 19 is_stmt 0 view .LVU318
 761 0184 D2F8DC30 		ldr	r3, [r2, #220]
 762 0188 43F08043 		orr	r3, r3, #1073741824
 763 018c C2F8DC30 		str	r3, [r2, #220]
 764              		.loc 2 680 3 is_stmt 1 view .LVU319
 765              		.loc 2 681 5 view .LVU320
 766              		.loc 2 681 23 is_stmt 0 view .LVU321
 767 0190 D2F80431 		ldr	r3, [r2, #260]
 768 0194 43F08043 		orr	r3, r3, #1073741824
 769 0198 C2F80431 		str	r3, [r2, #260]
 770              		.loc 2 686 3 is_stmt 1 view .LVU322
 771 019c D2F80431 		ldr	r3, [r2, #260]
 772              	.LVL23:
 773              		.loc 2 686 3 is_stmt 0 view .LVU323
 774              	.LBE94:
 775              	.LBE93:
 776              		.loc 1 480 3 is_stmt 1 view .LVU324
 777              	.LBB95:
 778              	.LBI95:
 779              		.loc 2 675 22 view .LVU325
 780              	.LBB96:
 781              		.loc 2 679 3 view .LVU326
 782              		.loc 2 679 19 is_stmt 0 view .LVU327
 783 01a0 D2F8DC30 		ldr	r3, [r2, #220]
 784 01a4 43F00043 		orr	r3, r3, #-2147483648
 785 01a8 C2F8DC30 		str	r3, [r2, #220]
 786              		.loc 2 680 3 is_stmt 1 view .LVU328
 787              		.loc 2 681 5 view .LVU329
 788              		.loc 2 681 23 is_stmt 0 view .LVU330
 789 01ac D2F80431 		ldr	r3, [r2, #260]
 790 01b0 43F00043 		orr	r3, r3, #-2147483648
 791 01b4 C2F80431 		str	r3, [r2, #260]
 792              		.loc 2 686 3 is_stmt 1 view .LVU331
 793 01b8 D2F80431 		ldr	r3, [r2, #260]
 794              	.LVL24:
 795              		.loc 2 686 3 is_stmt 0 view .LVU332
 796              	.LBE96:
 797              	.LBE95:
 798              		.loc 1 483 1 view .LVU333
ARM GAS  C:\Users\DEVELO~1\AppData\Local\Temp\cc6jhEjd.s 			page 15


 799 01bc 7047     		bx	lr
 800              	.L42:
 801 01be 00BF     		.align	2
 802              	.L41:
 803 01c0 00440258 		.word	1476543488
 804 01c4 00480258 		.word	1476544512
 805 01c8 00C000F0 		.word	-268386304
 806 01cc 02000001 		.word	16777218
 807 01d0 00040058 		.word	1476396032
 808 01d4 0000FF01 		.word	33488896
 809 01d8 00881008 		.word	135301120
 810 01dc 22202000 		.word	2105378
 811 01e0 5F020703 		.word	50791007
 812 01e4 9B0BFF01 		.word	33491867
 813 01e8 8F1E0303 		.word	50536079
 814 01ec 00200052 		.word	1375739904
 815              		.cfi_endproc
 816              	.LFE451:
 817              		.size	stm32_clock_init, .-stm32_clock_init
 818              		.global	SystemCoreClock
 819              		.section	.data.SystemCoreClock,"aw"
 820              		.align	2
 821              		.type	SystemCoreClock, %object
 822              		.size	SystemCoreClock, 4
 823              	SystemCoreClock:
 824 0000 00B0710B 		.word	192000000
 825              		.text
 826              	.Letext0:
 827              		.file 3 "c:\\chibistudio\\tools\\gnu tools arm embedded\\11.3 2022.08\\arm-none-eabi\\include\\mac
 828              		.file 4 "c:\\chibistudio\\tools\\gnu tools arm embedded\\11.3 2022.08\\arm-none-eabi\\include\\sys
 829              		.file 5 "../../../os/common/ext/ST/STM32H7xx/stm32h743xx.h"
 830              		.file 6 "../../../os/hal/ports/STM32/STM32H7xx/stm32_isr.h"
 831              		.file 7 "../../../os/hal/ports/STM32/LLD/DMAv2/stm32_dma.h"
 832              		.file 8 "../../../os/hal/ports/STM32/LLD/BDMAv1/stm32_bdma.h"
 833              		.file 9 "../../../os/common/ext/ST/STM32H7xx/system_stm32h7xx.h"
 834              		.section	.debug_info,"",%progbits
 835              	.Ldebug_info0:
 836 0000 310D0000 		.4byte	0xd31
 837 0004 0500     		.2byte	0x5
 838 0006 01       		.byte	0x1
 839 0007 04       		.byte	0x4
 840 0008 00000000 		.4byte	.Ldebug_abbrev0
 841 000c 19       		.uleb128 0x19
 842 000d 67000000 		.4byte	.LASF157
 843 0011 1D       		.byte	0x1d
 844 0012 35010000 		.4byte	.LASF158
 845 0016 16000000 		.4byte	.LASF159
 846 001a 6F000000 		.4byte	.LLRL28
 847 001e 00000000 		.4byte	0
 848 0022 00000000 		.4byte	.Ldebug_line0
 849 0026 1A       		.uleb128 0x1a
 850 0027 04       		.byte	0x4
 851 0028 05       		.byte	0x5
 852 0029 696E7400 		.ascii	"int\000"
 853 002d 04       		.uleb128 0x4
 854 002e 04       		.byte	0x4
 855 002f 07       		.byte	0x7
ARM GAS  C:\Users\DEVELO~1\AppData\Local\Temp\cc6jhEjd.s 			page 16


 856 0030 EA020000 		.4byte	.LASF0
 857 0034 04       		.uleb128 0x4
 858 0035 08       		.byte	0x8
 859 0036 05       		.byte	0x5
 860 0037 4E020000 		.4byte	.LASF1
 861 003b 04       		.uleb128 0x4
 862 003c 08       		.byte	0x8
 863 003d 04       		.byte	0x4
 864 003e 98050000 		.4byte	.LASF2
 865 0042 04       		.uleb128 0x4
 866 0043 01       		.byte	0x1
 867 0044 06       		.byte	0x6
 868 0045 5B000000 		.4byte	.LASF3
 869 0049 04       		.uleb128 0x4
 870 004a 01       		.byte	0x1
 871 004b 08       		.byte	0x8
 872 004c FE040000 		.4byte	.LASF4
 873 0050 04       		.uleb128 0x4
 874 0051 02       		.byte	0x2
 875 0052 05       		.byte	0x5
 876 0053 0C050000 		.4byte	.LASF5
 877 0057 04       		.uleb128 0x4
 878 0058 02       		.byte	0x2
 879 0059 07       		.byte	0x7
 880 005a 3C030000 		.4byte	.LASF6
 881 005e 04       		.uleb128 0x4
 882 005f 04       		.byte	0x4
 883 0060 05       		.byte	0x5
 884 0061 12010000 		.4byte	.LASF7
 885 0065 11       		.uleb128 0x11
 886 0066 A8020000 		.4byte	.LASF10
 887 006a 03       		.byte	0x3
 888 006b 4F       		.byte	0x4f
 889 006c 19       		.byte	0x19
 890 006d 71000000 		.4byte	0x71
 891 0071 04       		.uleb128 0x4
 892 0072 04       		.byte	0x4
 893 0073 07       		.byte	0x7
 894 0074 0F030000 		.4byte	.LASF8
 895 0078 04       		.uleb128 0x4
 896 0079 08       		.byte	0x8
 897 007a 07       		.byte	0x7
 898 007b D1010000 		.4byte	.LASF9
 899 007f 11       		.uleb128 0x11
 900 0080 71050000 		.4byte	.LASF11
 901 0084 04       		.byte	0x4
 902 0085 30       		.byte	0x30
 903 0086 14       		.byte	0x14
 904 0087 65000000 		.4byte	0x65
 905 008b 12       		.uleb128 0x12
 906 008c 7F000000 		.4byte	0x7f
 907 0090 04       		.uleb128 0x4
 908 0091 01       		.byte	0x1
 909 0092 08       		.byte	0x8
 910 0093 A4050000 		.4byte	.LASF12
 911 0097 09       		.uleb128 0x9
 912 0098 7F000000 		.4byte	0x7f
ARM GAS  C:\Users\DEVELO~1\AppData\Local\Temp\cc6jhEjd.s 			page 17


 913 009c A7000000 		.4byte	0xa7
 914 00a0 0A       		.uleb128 0xa
 915 00a1 2D000000 		.4byte	0x2d
 916 00a5 01       		.byte	0x1
 917 00a6 00       		.byte	0
 918 00a7 1B       		.uleb128 0x1b
 919 00a8 FF020000 		.4byte	.LASF137
 920 00ac 09       		.byte	0x9
 921 00ad 39       		.byte	0x39
 922 00ae 11       		.byte	0x11
 923 00af 7F000000 		.4byte	0x7f
 924 00b3 09       		.uleb128 0x9
 925 00b4 7F000000 		.4byte	0x7f
 926 00b8 C3000000 		.4byte	0xc3
 927 00bc 0A       		.uleb128 0xa
 928 00bd 2D000000 		.4byte	0x2d
 929 00c1 03       		.byte	0x3
 930 00c2 00       		.byte	0
 931 00c3 09       		.uleb128 0x9
 932 00c4 8B000000 		.4byte	0x8b
 933 00c8 D3000000 		.4byte	0xd3
 934 00cc 0A       		.uleb128 0xa
 935 00cd 2D000000 		.4byte	0x2d
 936 00d1 03       		.byte	0x3
 937 00d2 00       		.byte	0
 938 00d3 12       		.uleb128 0x12
 939 00d4 C3000000 		.4byte	0xc3
 940 00d8 09       		.uleb128 0x9
 941 00d9 7F000000 		.4byte	0x7f
 942 00dd E8000000 		.4byte	0xe8
 943 00e1 0A       		.uleb128 0xa
 944 00e2 2D000000 		.4byte	0x2d
 945 00e6 08       		.byte	0x8
 946 00e7 00       		.byte	0
 947 00e8 0E       		.uleb128 0xe
 948 00e9 6401     		.2byte	0x164
 949 00eb 9303     		.2byte	0x393
 950 00ed 33030000 		.4byte	0x333
 951 00f1 06       		.uleb128 0x6
 952 00f2 41435200 		.ascii	"ACR\000"
 953 00f6 9503     		.2byte	0x395
 954 00f8 11       		.byte	0x11
 955 00f9 8B000000 		.4byte	0x8b
 956 00fd 00       		.byte	0
 957 00fe 01       		.uleb128 0x1
 958 00ff CC050000 		.4byte	.LASF13
 959 0103 9603     		.2byte	0x396
 960 0105 11       		.byte	0x11
 961 0106 8B000000 		.4byte	0x8b
 962 010a 04       		.byte	0x4
 963 010b 01       		.uleb128 0x1
 964 010c 5C020000 		.4byte	.LASF14
 965 0110 9703     		.2byte	0x397
 966 0112 11       		.byte	0x11
 967 0113 8B000000 		.4byte	0x8b
 968 0117 08       		.byte	0x8
 969 0118 06       		.uleb128 0x6
ARM GAS  C:\Users\DEVELO~1\AppData\Local\Temp\cc6jhEjd.s 			page 18


 970 0119 43523100 		.ascii	"CR1\000"
 971 011d 9803     		.2byte	0x398
 972 011f 11       		.byte	0x11
 973 0120 8B000000 		.4byte	0x8b
 974 0124 0C       		.byte	0xc
 975 0125 06       		.uleb128 0x6
 976 0126 53523100 		.ascii	"SR1\000"
 977 012a 9903     		.2byte	0x399
 978 012c 11       		.byte	0x11
 979 012d 8B000000 		.4byte	0x8b
 980 0131 10       		.byte	0x10
 981 0132 01       		.uleb128 0x1
 982 0133 36060000 		.4byte	.LASF15
 983 0137 9A03     		.2byte	0x39a
 984 0139 11       		.byte	0x11
 985 013a 8B000000 		.4byte	0x8b
 986 013e 14       		.byte	0x14
 987 013f 01       		.uleb128 0x1
 988 0140 1B010000 		.4byte	.LASF16
 989 0144 9B03     		.2byte	0x39b
 990 0146 11       		.byte	0x11
 991 0147 8B000000 		.4byte	0x8b
 992 014b 18       		.byte	0x18
 993 014c 01       		.uleb128 0x1
 994 014d 45040000 		.4byte	.LASF17
 995 0151 9C03     		.2byte	0x39c
 996 0153 11       		.byte	0x11
 997 0154 8B000000 		.4byte	0x8b
 998 0158 1C       		.byte	0x1c
 999 0159 01       		.uleb128 0x1
 1000 015a A9050000 		.4byte	.LASF18
 1001 015e 9D03     		.2byte	0x39d
 1002 0160 11       		.byte	0x11
 1003 0161 8B000000 		.4byte	0x8b
 1004 0165 20       		.byte	0x20
 1005 0166 01       		.uleb128 0x1
 1006 0167 F2010000 		.4byte	.LASF19
 1007 016b 9E03     		.2byte	0x39e
 1008 016d 11       		.byte	0x11
 1009 016e 8B000000 		.4byte	0x8b
 1010 0172 24       		.byte	0x24
 1011 0173 01       		.uleb128 0x1
 1012 0174 7C030000 		.4byte	.LASF20
 1013 0178 9F03     		.2byte	0x39f
 1014 017a 11       		.byte	0x11
 1015 017b 8B000000 		.4byte	0x8b
 1016 017f 28       		.byte	0x28
 1017 0180 01       		.uleb128 0x1
 1018 0181 21010000 		.4byte	.LASF21
 1019 0185 A003     		.2byte	0x3a0
 1020 0187 11       		.byte	0x11
 1021 0188 8B000000 		.4byte	0x8b
 1022 018c 2C       		.byte	0x2c
 1023 018d 01       		.uleb128 0x1
 1024 018e 64020000 		.4byte	.LASF22
 1025 0192 A103     		.2byte	0x3a1
 1026 0194 11       		.byte	0x11
ARM GAS  C:\Users\DEVELO~1\AppData\Local\Temp\cc6jhEjd.s 			page 19


 1027 0195 8B000000 		.4byte	0x8b
 1028 0199 30       		.byte	0x30
 1029 019a 01       		.uleb128 0x1
 1030 019b C3030000 		.4byte	.LASF23
 1031 019f A203     		.2byte	0x3a2
 1032 01a1 11       		.byte	0x11
 1033 01a2 8B000000 		.4byte	0x8b
 1034 01a6 34       		.byte	0x34
 1035 01a7 01       		.uleb128 0x1
 1036 01a8 17060000 		.4byte	.LASF24
 1037 01ac A303     		.2byte	0x3a3
 1038 01ae 11       		.byte	0x11
 1039 01af 8B000000 		.4byte	0x8b
 1040 01b3 38       		.byte	0x38
 1041 01b4 01       		.uleb128 0x1
 1042 01b5 F2030000 		.4byte	.LASF25
 1043 01b9 A403     		.2byte	0x3a4
 1044 01bb 11       		.byte	0x11
 1045 01bc 8B000000 		.4byte	0x8b
 1046 01c0 3C       		.byte	0x3c
 1047 01c1 01       		.uleb128 0x1
 1048 01c2 AC010000 		.4byte	.LASF26
 1049 01c6 A503     		.2byte	0x3a5
 1050 01c8 11       		.byte	0x11
 1051 01c9 8B000000 		.4byte	0x8b
 1052 01cd 40       		.byte	0x40
 1053 01ce 01       		.uleb128 0x1
 1054 01cf 33030000 		.4byte	.LASF27
 1055 01d3 A603     		.2byte	0x3a6
 1056 01d5 11       		.byte	0x11
 1057 01d6 8B000000 		.4byte	0x8b
 1058 01da 44       		.byte	0x44
 1059 01db 01       		.uleb128 0x1
 1060 01dc 9C040000 		.4byte	.LASF28
 1061 01e0 A703     		.2byte	0x3a7
 1062 01e2 11       		.byte	0x11
 1063 01e3 97000000 		.4byte	0x97
 1064 01e7 48       		.byte	0x48
 1065 01e8 01       		.uleb128 0x1
 1066 01e9 37040000 		.4byte	.LASF29
 1067 01ed A803     		.2byte	0x3a8
 1068 01ef 11       		.byte	0x11
 1069 01f0 8B000000 		.4byte	0x8b
 1070 01f4 50       		.byte	0x50
 1071 01f5 01       		.uleb128 0x1
 1072 01f6 65060000 		.4byte	.LASF30
 1073 01fa A903     		.2byte	0x3a9
 1074 01fc 11       		.byte	0x11
 1075 01fd 8B000000 		.4byte	0x8b
 1076 0201 54       		.byte	0x54
 1077 0202 01       		.uleb128 0x1
 1078 0203 06040000 		.4byte	.LASF31
 1079 0207 AA03     		.2byte	0x3aa
 1080 0209 11       		.byte	0x11
 1081 020a 8B000000 		.4byte	0x8b
 1082 020e 58       		.byte	0x58
 1083 020f 01       		.uleb128 0x1
ARM GAS  C:\Users\DEVELO~1\AppData\Local\Temp\cc6jhEjd.s 			page 20


 1084 0210 46020000 		.4byte	.LASF32
 1085 0214 AB03     		.2byte	0x3ab
 1086 0216 11       		.byte	0x11
 1087 0217 8B000000 		.4byte	0x8b
 1088 021b 5C       		.byte	0x5c
 1089 021c 01       		.uleb128 0x1
 1090 021d 2A050000 		.4byte	.LASF33
 1091 0221 AC03     		.2byte	0x3ac
 1092 0223 11       		.byte	0x11
 1093 0224 8B000000 		.4byte	0x8b
 1094 0228 60       		.byte	0x60
 1095 0229 01       		.uleb128 0x1
 1096 022a A6040000 		.4byte	.LASF34
 1097 022e AD03     		.2byte	0x3ad
 1098 0230 11       		.byte	0x11
 1099 0231 33030000 		.4byte	0x333
 1100 0235 64       		.byte	0x64
 1101 0236 02       		.uleb128 0x2
 1102 0237 BC050000 		.4byte	.LASF35
 1103 023b AE03     		.2byte	0x3ae
 1104 023d 11       		.byte	0x11
 1105 023e 8B000000 		.4byte	0x8b
 1106 0242 0401     		.2byte	0x104
 1107 0244 02       		.uleb128 0x2
 1108 0245 B0040000 		.4byte	.LASF36
 1109 0249 AF03     		.2byte	0x3af
 1110 024b 11       		.byte	0x11
 1111 024c 7F000000 		.4byte	0x7f
 1112 0250 0801     		.2byte	0x108
 1113 0252 05       		.uleb128 0x5
 1114 0253 43523200 		.ascii	"CR2\000"
 1115 0257 B003     		.2byte	0x3b0
 1116 0259 11       		.byte	0x11
 1117 025a 8B000000 		.4byte	0x8b
 1118 025e 0C01     		.2byte	0x10c
 1119 0260 05       		.uleb128 0x5
 1120 0261 53523200 		.ascii	"SR2\000"
 1121 0265 B103     		.2byte	0x3b1
 1122 0267 11       		.byte	0x11
 1123 0268 8B000000 		.4byte	0x8b
 1124 026c 1001     		.2byte	0x110
 1125 026e 02       		.uleb128 0x2
 1126 026f 3B060000 		.4byte	.LASF37
 1127 0273 B203     		.2byte	0x3b2
 1128 0275 11       		.byte	0x11
 1129 0276 8B000000 		.4byte	0x8b
 1130 027a 1401     		.2byte	0x114
 1131 027c 02       		.uleb128 0x2
 1132 027d BA040000 		.4byte	.LASF38
 1133 0281 B303     		.2byte	0x3b3
 1134 0283 11       		.byte	0x11
 1135 0284 B3000000 		.4byte	0xb3
 1136 0288 1801     		.2byte	0x118
 1137 028a 02       		.uleb128 0x2
 1138 028b 86030000 		.4byte	.LASF39
 1139 028f B403     		.2byte	0x3b4
 1140 0291 11       		.byte	0x11
ARM GAS  C:\Users\DEVELO~1\AppData\Local\Temp\cc6jhEjd.s 			page 21


 1141 0292 8B000000 		.4byte	0x8b
 1142 0296 2801     		.2byte	0x128
 1143 0298 02       		.uleb128 0x2
 1144 0299 2B010000 		.4byte	.LASF40
 1145 029d B503     		.2byte	0x3b5
 1146 029f 11       		.byte	0x11
 1147 02a0 8B000000 		.4byte	0x8b
 1148 02a4 2C01     		.2byte	0x12c
 1149 02a6 02       		.uleb128 0x2
 1150 02a7 76020000 		.4byte	.LASF41
 1151 02ab B603     		.2byte	0x3b6
 1152 02ad 11       		.byte	0x11
 1153 02ae 8B000000 		.4byte	0x8b
 1154 02b2 3001     		.2byte	0x130
 1155 02b4 02       		.uleb128 0x2
 1156 02b5 CD030000 		.4byte	.LASF42
 1157 02b9 B703     		.2byte	0x3b7
 1158 02bb 11       		.byte	0x11
 1159 02bc 8B000000 		.4byte	0x8b
 1160 02c0 3401     		.2byte	0x134
 1161 02c2 02       		.uleb128 0x2
 1162 02c3 21060000 		.4byte	.LASF43
 1163 02c7 B803     		.2byte	0x3b8
 1164 02c9 11       		.byte	0x11
 1165 02ca 8B000000 		.4byte	0x8b
 1166 02ce 3801     		.2byte	0x138
 1167 02d0 02       		.uleb128 0x2
 1168 02d1 FC030000 		.4byte	.LASF44
 1169 02d5 B903     		.2byte	0x3b9
 1170 02d7 11       		.byte	0x11
 1171 02d8 8B000000 		.4byte	0x8b
 1172 02dc 3C01     		.2byte	0x13c
 1173 02de 02       		.uleb128 0x2
 1174 02df 67050000 		.4byte	.LASF45
 1175 02e3 BA03     		.2byte	0x3ba
 1176 02e5 11       		.byte	0x11
 1177 02e6 B3000000 		.4byte	0xb3
 1178 02ea 4001     		.2byte	0x140
 1179 02ec 02       		.uleb128 0x2
 1180 02ed 3E040000 		.4byte	.LASF46
 1181 02f1 BB03     		.2byte	0x3bb
 1182 02f3 11       		.byte	0x11
 1183 02f4 8B000000 		.4byte	0x8b
 1184 02f8 5001     		.2byte	0x150
 1185 02fa 02       		.uleb128 0x2
 1186 02fb 6E060000 		.4byte	.LASF47
 1187 02ff BC03     		.2byte	0x3bc
 1188 0301 11       		.byte	0x11
 1189 0302 8B000000 		.4byte	0x8b
 1190 0306 5401     		.2byte	0x154
 1191 0308 02       		.uleb128 0x2
 1192 0309 89060000 		.4byte	.LASF48
 1193 030d BD03     		.2byte	0x3bd
 1194 030f 11       		.byte	0x11
 1195 0310 8B000000 		.4byte	0x8b
 1196 0314 5801     		.2byte	0x158
 1197 0316 02       		.uleb128 0x2
ARM GAS  C:\Users\DEVELO~1\AppData\Local\Temp\cc6jhEjd.s 			page 22


 1198 0317 1A020000 		.4byte	.LASF49
 1199 031b BE03     		.2byte	0x3be
 1200 031d 11       		.byte	0x11
 1201 031e 8B000000 		.4byte	0x8b
 1202 0322 5C01     		.2byte	0x15c
 1203 0324 02       		.uleb128 0x2
 1204 0325 32050000 		.4byte	.LASF50
 1205 0329 BF03     		.2byte	0x3bf
 1206 032b 11       		.byte	0x11
 1207 032c 8B000000 		.4byte	0x8b
 1208 0330 6001     		.2byte	0x160
 1209 0332 00       		.byte	0
 1210 0333 09       		.uleb128 0x9
 1211 0334 7F000000 		.4byte	0x7f
 1212 0338 43030000 		.4byte	0x343
 1213 033c 0A       		.uleb128 0xa
 1214 033d 2D000000 		.4byte	0x2d
 1215 0341 27       		.byte	0x27
 1216 0342 00       		.byte	0
 1217 0343 0D       		.uleb128 0xd
 1218 0344 C3010000 		.4byte	.LASF51
 1219 0348 C003     		.2byte	0x3c0
 1220 034a E8000000 		.4byte	0xe8
 1221 034e 0E       		.uleb128 0xe
 1222 034f 4803     		.2byte	0x348
 1223 0351 1E04     		.2byte	0x41e
 1224 0353 F2040000 		.4byte	0x4f2
 1225 0357 01       		.uleb128 0x1
 1226 0358 A6040000 		.4byte	.LASF34
 1227 035c 2004     		.2byte	0x420
 1228 035e 0B       		.byte	0xb
 1229 035f 7F000000 		.4byte	0x7f
 1230 0363 00       		.byte	0
 1231 0364 01       		.uleb128 0x1
 1232 0365 53050000 		.4byte	.LASF52
 1233 0369 2104     		.2byte	0x421
 1234 036b 10       		.byte	0x10
 1235 036c 8B000000 		.4byte	0x8b
 1236 0370 04       		.byte	0x4
 1237 0371 01       		.uleb128 0x1
 1238 0372 C3060000 		.4byte	.LASF53
 1239 0376 2204     		.2byte	0x422
 1240 0378 10       		.byte	0x10
 1241 0379 D3000000 		.4byte	0xd3
 1242 037d 08       		.byte	0x8
 1243 037e 01       		.uleb128 0x1
 1244 037f 84060000 		.4byte	.LASF54
 1245 0383 2304     		.2byte	0x423
 1246 0385 10       		.byte	0x10
 1247 0386 8B000000 		.4byte	0x8b
 1248 038a 18       		.byte	0x18
 1249 038b 01       		.uleb128 0x1
 1250 038c B0040000 		.4byte	.LASF36
 1251 0390 2404     		.2byte	0x424
 1252 0392 0B       		.byte	0xb
 1253 0393 7F000000 		.4byte	0x7f
 1254 0397 1C       		.byte	0x1c
ARM GAS  C:\Users\DEVELO~1\AppData\Local\Temp\cc6jhEjd.s 			page 23


 1255 0398 01       		.uleb128 0x1
 1256 0399 A6010000 		.4byte	.LASF55
 1257 039d 2504     		.2byte	0x425
 1258 039f 10       		.byte	0x10
 1259 03a0 8B000000 		.4byte	0x8b
 1260 03a4 20       		.byte	0x20
 1261 03a5 01       		.uleb128 0x1
 1262 03a6 9A020000 		.4byte	.LASF56
 1263 03aa 2604     		.2byte	0x426
 1264 03ac 10       		.byte	0x10
 1265 03ad 8B000000 		.4byte	0x8b
 1266 03b1 24       		.byte	0x24
 1267 03b2 01       		.uleb128 0x1
 1268 03b3 92060000 		.4byte	.LASF57
 1269 03b7 2704     		.2byte	0x427
 1270 03b9 10       		.byte	0x10
 1271 03ba 8B000000 		.4byte	0x8b
 1272 03be 28       		.byte	0x28
 1273 03bf 01       		.uleb128 0x1
 1274 03c0 C9020000 		.4byte	.LASF58
 1275 03c4 2804     		.2byte	0x428
 1276 03c6 10       		.byte	0x10
 1277 03c7 8B000000 		.4byte	0x8b
 1278 03cb 2C       		.byte	0x2c
 1279 03cc 01       		.uleb128 0x1
 1280 03cd BA040000 		.4byte	.LASF38
 1281 03d1 2904     		.2byte	0x429
 1282 03d3 10       		.byte	0x10
 1283 03d4 F2040000 		.4byte	0x4f2
 1284 03d8 30       		.byte	0x30
 1285 03d9 02       		.uleb128 0x2
 1286 03da 97040000 		.4byte	.LASF59
 1287 03de 2A04     		.2byte	0x42a
 1288 03e0 11       		.byte	0x11
 1289 03e1 8B000000 		.4byte	0x8b
 1290 03e5 2401     		.2byte	0x124
 1291 03e7 02       		.uleb128 0x2
 1292 03e8 67050000 		.4byte	.LASF45
 1293 03ec 2B04     		.2byte	0x42b
 1294 03ee 10       		.byte	0x10
 1295 03ef 02050000 		.4byte	0x502
 1296 03f3 2801     		.2byte	0x128
 1297 03f5 05       		.uleb128 0x5
 1298 03f6 55523000 		.ascii	"UR0\000"
 1299 03fa 2C04     		.2byte	0x42c
 1300 03fc 10       		.byte	0x10
 1301 03fd 8B000000 		.4byte	0x8b
 1302 0401 0003     		.2byte	0x300
 1303 0403 05       		.uleb128 0x5
 1304 0404 55523100 		.ascii	"UR1\000"
 1305 0408 2D04     		.2byte	0x42d
 1306 040a 10       		.byte	0x10
 1307 040b 8B000000 		.4byte	0x8b
 1308 040f 0403     		.2byte	0x304
 1309 0411 05       		.uleb128 0x5
 1310 0412 55523200 		.ascii	"UR2\000"
 1311 0416 2E04     		.2byte	0x42e
ARM GAS  C:\Users\DEVELO~1\AppData\Local\Temp\cc6jhEjd.s 			page 24


 1312 0418 10       		.byte	0x10
 1313 0419 8B000000 		.4byte	0x8b
 1314 041d 0803     		.2byte	0x308
 1315 041f 05       		.uleb128 0x5
 1316 0420 55523300 		.ascii	"UR3\000"
 1317 0424 2F04     		.2byte	0x42f
 1318 0426 10       		.byte	0x10
 1319 0427 8B000000 		.4byte	0x8b
 1320 042b 0C03     		.2byte	0x30c
 1321 042d 05       		.uleb128 0x5
 1322 042e 55523400 		.ascii	"UR4\000"
 1323 0432 3004     		.2byte	0x430
 1324 0434 10       		.byte	0x10
 1325 0435 8B000000 		.4byte	0x8b
 1326 0439 1003     		.2byte	0x310
 1327 043b 05       		.uleb128 0x5
 1328 043c 55523500 		.ascii	"UR5\000"
 1329 0440 3104     		.2byte	0x431
 1330 0442 10       		.byte	0x10
 1331 0443 8B000000 		.4byte	0x8b
 1332 0447 1403     		.2byte	0x314
 1333 0449 05       		.uleb128 0x5
 1334 044a 55523600 		.ascii	"UR6\000"
 1335 044e 3204     		.2byte	0x432
 1336 0450 10       		.byte	0x10
 1337 0451 8B000000 		.4byte	0x8b
 1338 0455 1803     		.2byte	0x318
 1339 0457 05       		.uleb128 0x5
 1340 0458 55523700 		.ascii	"UR7\000"
 1341 045c 3304     		.2byte	0x433
 1342 045e 10       		.byte	0x10
 1343 045f 8B000000 		.4byte	0x8b
 1344 0463 1C03     		.2byte	0x31c
 1345 0465 05       		.uleb128 0x5
 1346 0466 55523800 		.ascii	"UR8\000"
 1347 046a 3404     		.2byte	0x434
 1348 046c 10       		.byte	0x10
 1349 046d 8B000000 		.4byte	0x8b
 1350 0471 2003     		.2byte	0x320
 1351 0473 05       		.uleb128 0x5
 1352 0474 55523900 		.ascii	"UR9\000"
 1353 0478 3504     		.2byte	0x435
 1354 047a 10       		.byte	0x10
 1355 047b 8B000000 		.4byte	0x8b
 1356 047f 2403     		.2byte	0x324
 1357 0481 02       		.uleb128 0x2
 1358 0482 89010000 		.4byte	.LASF60
 1359 0486 3604     		.2byte	0x436
 1360 0488 10       		.byte	0x10
 1361 0489 8B000000 		.4byte	0x8b
 1362 048d 2803     		.2byte	0x328
 1363 048f 02       		.uleb128 0x2
 1364 0490 D7030000 		.4byte	.LASF61
 1365 0494 3704     		.2byte	0x437
 1366 0496 10       		.byte	0x10
 1367 0497 8B000000 		.4byte	0x8b
 1368 049b 2C03     		.2byte	0x32c
ARM GAS  C:\Users\DEVELO~1\AppData\Local\Temp\cc6jhEjd.s 			page 25


 1369 049d 02       		.uleb128 0x2
 1370 049e F0050000 		.4byte	.LASF62
 1371 04a2 3804     		.2byte	0x438
 1372 04a4 10       		.byte	0x10
 1373 04a5 8B000000 		.4byte	0x8b
 1374 04a9 3003     		.2byte	0x330
 1375 04ab 02       		.uleb128 0x2
 1376 04ac F5050000 		.4byte	.LASF63
 1377 04b0 3904     		.2byte	0x439
 1378 04b2 10       		.byte	0x10
 1379 04b3 8B000000 		.4byte	0x8b
 1380 04b7 3403     		.2byte	0x334
 1381 04b9 02       		.uleb128 0x2
 1382 04ba FA050000 		.4byte	.LASF64
 1383 04be 3A04     		.2byte	0x43a
 1384 04c0 10       		.byte	0x10
 1385 04c1 8B000000 		.4byte	0x8b
 1386 04c5 3803     		.2byte	0x338
 1387 04c7 02       		.uleb128 0x2
 1388 04c8 FF050000 		.4byte	.LASF65
 1389 04cc 3B04     		.2byte	0x43b
 1390 04ce 10       		.byte	0x10
 1391 04cf 8B000000 		.4byte	0x8b
 1392 04d3 3C03     		.2byte	0x33c
 1393 04d5 02       		.uleb128 0x2
 1394 04d6 04060000 		.4byte	.LASF66
 1395 04da 3C04     		.2byte	0x43c
 1396 04dc 10       		.byte	0x10
 1397 04dd 8B000000 		.4byte	0x8b
 1398 04e1 4003     		.2byte	0x340
 1399 04e3 02       		.uleb128 0x2
 1400 04e4 09060000 		.4byte	.LASF67
 1401 04e8 3D04     		.2byte	0x43d
 1402 04ea 10       		.byte	0x10
 1403 04eb 8B000000 		.4byte	0x8b
 1404 04ef 4403     		.2byte	0x344
 1405 04f1 00       		.byte	0
 1406 04f2 09       		.uleb128 0x9
 1407 04f3 7F000000 		.4byte	0x7f
 1408 04f7 02050000 		.4byte	0x502
 1409 04fb 0A       		.uleb128 0xa
 1410 04fc 2D000000 		.4byte	0x2d
 1411 0500 3C       		.byte	0x3c
 1412 0501 00       		.byte	0
 1413 0502 09       		.uleb128 0x9
 1414 0503 7F000000 		.4byte	0x7f
 1415 0507 12050000 		.4byte	0x512
 1416 050b 0A       		.uleb128 0xa
 1417 050c 2D000000 		.4byte	0x2d
 1418 0510 75       		.byte	0x75
 1419 0511 00       		.byte	0
 1420 0512 0D       		.uleb128 0xd
 1421 0513 EF040000 		.4byte	.LASF68
 1422 0517 3F04     		.2byte	0x43f
 1423 0519 4E030000 		.4byte	0x34e
 1424 051d 1C       		.uleb128 0x1c
 1425 051e 2C       		.byte	0x2c
ARM GAS  C:\Users\DEVELO~1\AppData\Local\Temp\cc6jhEjd.s 			page 26


 1426 051f 05       		.byte	0x5
 1427 0520 BB04     		.2byte	0x4bb
 1428 0522 09       		.byte	0x9
 1429 0523 B7050000 		.4byte	0x5b7
 1430 0527 06       		.uleb128 0x6
 1431 0528 43523100 		.ascii	"CR1\000"
 1432 052c BD04     		.2byte	0x4bd
 1433 052e 11       		.byte	0x11
 1434 052f 8B000000 		.4byte	0x8b
 1435 0533 00       		.byte	0
 1436 0534 01       		.uleb128 0x1
 1437 0535 A0060000 		.4byte	.LASF69
 1438 0539 BE04     		.2byte	0x4be
 1439 053b 11       		.byte	0x11
 1440 053c 8B000000 		.4byte	0x8b
 1441 0540 04       		.byte	0x4
 1442 0541 06       		.uleb128 0x6
 1443 0542 43523200 		.ascii	"CR2\000"
 1444 0546 BF04     		.2byte	0x4bf
 1445 0548 11       		.byte	0x11
 1446 0549 8B000000 		.4byte	0x8b
 1447 054d 08       		.byte	0x8
 1448 054e 06       		.uleb128 0x6
 1449 054f 43523300 		.ascii	"CR3\000"
 1450 0553 C004     		.2byte	0x4c0
 1451 0555 11       		.byte	0x11
 1452 0556 8B000000 		.4byte	0x8b
 1453 055a 0C       		.byte	0xc
 1454 055b 01       		.uleb128 0x1
 1455 055c 21030000 		.4byte	.LASF70
 1456 0560 C104     		.2byte	0x4c1
 1457 0562 11       		.byte	0x11
 1458 0563 8B000000 		.4byte	0x8b
 1459 0567 10       		.byte	0x10
 1460 0568 01       		.uleb128 0x1
 1461 0569 9C040000 		.4byte	.LASF28
 1462 056d C204     		.2byte	0x4c2
 1463 056f 11       		.byte	0x11
 1464 0570 7F000000 		.4byte	0x7f
 1465 0574 14       		.byte	0x14
 1466 0575 01       		.uleb128 0x1
 1467 0576 7A050000 		.4byte	.LASF71
 1468 057a C304     		.2byte	0x4c3
 1469 057c 11       		.byte	0x11
 1470 057d 8B000000 		.4byte	0x8b
 1471 0581 18       		.byte	0x18
 1472 0582 01       		.uleb128 0x1
 1473 0583 A6040000 		.4byte	.LASF34
 1474 0587 C404     		.2byte	0x4c4
 1475 0589 11       		.byte	0x11
 1476 058a 7F000000 		.4byte	0x7f
 1477 058e 1C       		.byte	0x1c
 1478 058f 01       		.uleb128 0x1
 1479 0590 B5010000 		.4byte	.LASF72
 1480 0594 C504     		.2byte	0x4c5
 1481 0596 11       		.byte	0x11
 1482 0597 8B000000 		.4byte	0x8b
ARM GAS  C:\Users\DEVELO~1\AppData\Local\Temp\cc6jhEjd.s 			page 27


 1483 059b 20       		.byte	0x20
 1484 059c 01       		.uleb128 0x1
 1485 059d 54000000 		.4byte	.LASF73
 1486 05a1 C604     		.2byte	0x4c6
 1487 05a3 11       		.byte	0x11
 1488 05a4 8B000000 		.4byte	0x8b
 1489 05a8 24       		.byte	0x24
 1490 05a9 01       		.uleb128 0x1
 1491 05aa F7020000 		.4byte	.LASF74
 1492 05ae C704     		.2byte	0x4c7
 1493 05b0 11       		.byte	0x11
 1494 05b1 8B000000 		.4byte	0x8b
 1495 05b5 28       		.byte	0x28
 1496 05b6 00       		.byte	0
 1497 05b7 0D       		.uleb128 0xd
 1498 05b8 B7030000 		.4byte	.LASF75
 1499 05bc C804     		.2byte	0x4c8
 1500 05be 1D050000 		.4byte	0x51d
 1501 05c2 0E       		.uleb128 0xe
 1502 05c3 3001     		.2byte	0x130
 1503 05c5 CE04     		.2byte	0x4ce
 1504 05c7 21090000 		.4byte	0x921
 1505 05cb 06       		.uleb128 0x6
 1506 05cc 435200   		.ascii	"CR\000"
 1507 05cf D004     		.2byte	0x4d0
 1508 05d1 10       		.byte	0x10
 1509 05d2 8B000000 		.4byte	0x8b
 1510 05d6 00       		.byte	0
 1511 05d7 01       		.uleb128 0x1
 1512 05d8 59030000 		.4byte	.LASF76
 1513 05dc D104     		.2byte	0x4d1
 1514 05de 10       		.byte	0x10
 1515 05df 8B000000 		.4byte	0x8b
 1516 05e3 04       		.byte	0x4
 1517 05e4 01       		.uleb128 0x1
 1518 05e5 8F020000 		.4byte	.LASF77
 1519 05e9 D204     		.2byte	0x4d2
 1520 05eb 10       		.byte	0x10
 1521 05ec 8B000000 		.4byte	0x8b
 1522 05f0 08       		.byte	0x8
 1523 05f1 01       		.uleb128 0x1
 1524 05f2 E8050000 		.4byte	.LASF78
 1525 05f6 D304     		.2byte	0x4d3
 1526 05f8 10       		.byte	0x10
 1527 05f9 8B000000 		.4byte	0x8b
 1528 05fd 0C       		.byte	0xc
 1529 05fe 01       		.uleb128 0x1
 1530 05ff 84060000 		.4byte	.LASF54
 1531 0603 D404     		.2byte	0x4d4
 1532 0605 10       		.byte	0x10
 1533 0606 8B000000 		.4byte	0x8b
 1534 060a 10       		.byte	0x10
 1535 060b 01       		.uleb128 0x1
 1536 060c A6040000 		.4byte	.LASF34
 1537 0610 D504     		.2byte	0x4d5
 1538 0612 0F       		.byte	0xf
 1539 0613 7F000000 		.4byte	0x7f
ARM GAS  C:\Users\DEVELO~1\AppData\Local\Temp\cc6jhEjd.s 			page 28


 1540 0617 14       		.byte	0x14
 1541 0618 01       		.uleb128 0x1
 1542 0619 BC060000 		.4byte	.LASF79
 1543 061d D604     		.2byte	0x4d6
 1544 061f 10       		.byte	0x10
 1545 0620 8B000000 		.4byte	0x8b
 1546 0624 18       		.byte	0x18
 1547 0625 01       		.uleb128 0x1
 1548 0626 C4040000 		.4byte	.LASF80
 1549 062a D704     		.2byte	0x4d7
 1550 062c 10       		.byte	0x10
 1551 062d 8B000000 		.4byte	0x8b
 1552 0631 1C       		.byte	0x1c
 1553 0632 01       		.uleb128 0x1
 1554 0633 80020000 		.4byte	.LASF81
 1555 0637 D804     		.2byte	0x4d8
 1556 0639 10       		.byte	0x10
 1557 063a 8B000000 		.4byte	0x8b
 1558 063e 20       		.byte	0x20
 1559 063f 01       		.uleb128 0x1
 1560 0640 B0040000 		.4byte	.LASF36
 1561 0644 D904     		.2byte	0x4d9
 1562 0646 0F       		.byte	0xf
 1563 0647 7F000000 		.4byte	0x7f
 1564 064b 24       		.byte	0x24
 1565 064c 01       		.uleb128 0x1
 1566 064d 4F030000 		.4byte	.LASF82
 1567 0651 DA04     		.2byte	0x4da
 1568 0653 10       		.byte	0x10
 1569 0654 8B000000 		.4byte	0x8b
 1570 0658 28       		.byte	0x28
 1571 0659 01       		.uleb128 0x1
 1572 065a 87020000 		.4byte	.LASF83
 1573 065e DB04     		.2byte	0x4db
 1574 0660 10       		.byte	0x10
 1575 0661 8B000000 		.4byte	0x8b
 1576 0665 2C       		.byte	0x2c
 1577 0666 01       		.uleb128 0x1
 1578 0667 0D000000 		.4byte	.LASF84
 1579 066b DC04     		.2byte	0x4dc
 1580 066d 10       		.byte	0x10
 1581 066e 8B000000 		.4byte	0x8b
 1582 0672 30       		.byte	0x30
 1583 0673 01       		.uleb128 0x1
 1584 0674 23020000 		.4byte	.LASF85
 1585 0678 DD04     		.2byte	0x4dd
 1586 067a 10       		.byte	0x10
 1587 067b 8B000000 		.4byte	0x8b
 1588 067f 34       		.byte	0x34
 1589 0680 01       		.uleb128 0x1
 1590 0681 42050000 		.4byte	.LASF86
 1591 0685 DE04     		.2byte	0x4de
 1592 0687 10       		.byte	0x10
 1593 0688 8B000000 		.4byte	0x8b
 1594 068c 38       		.byte	0x38
 1595 068d 01       		.uleb128 0x1
 1596 068e E0020000 		.4byte	.LASF87
ARM GAS  C:\Users\DEVELO~1\AppData\Local\Temp\cc6jhEjd.s 			page 29


 1597 0692 DF04     		.2byte	0x4df
 1598 0694 10       		.byte	0x10
 1599 0695 8B000000 		.4byte	0x8b
 1600 0699 3C       		.byte	0x3c
 1601 069a 01       		.uleb128 0x1
 1602 069b 9F020000 		.4byte	.LASF88
 1603 069f E004     		.2byte	0x4e0
 1604 06a1 10       		.byte	0x10
 1605 06a2 8B000000 		.4byte	0x8b
 1606 06a6 40       		.byte	0x40
 1607 06a7 01       		.uleb128 0x1
 1608 06a8 A4030000 		.4byte	.LASF89
 1609 06ac E104     		.2byte	0x4e1
 1610 06ae 10       		.byte	0x10
 1611 06af 8B000000 		.4byte	0x8b
 1612 06b3 44       		.byte	0x44
 1613 06b4 01       		.uleb128 0x1
 1614 06b5 BA040000 		.4byte	.LASF38
 1615 06b9 E204     		.2byte	0x4e2
 1616 06bb 10       		.byte	0x10
 1617 06bc 7F000000 		.4byte	0x7f
 1618 06c0 48       		.byte	0x48
 1619 06c1 01       		.uleb128 0x1
 1620 06c2 88050000 		.4byte	.LASF90
 1621 06c6 E304     		.2byte	0x4e3
 1622 06c8 11       		.byte	0x11
 1623 06c9 8B000000 		.4byte	0x8b
 1624 06cd 4C       		.byte	0x4c
 1625 06ce 01       		.uleb128 0x1
 1626 06cf B8020000 		.4byte	.LASF91
 1627 06d3 E404     		.2byte	0x4e4
 1628 06d5 11       		.byte	0x11
 1629 06d6 8B000000 		.4byte	0x8b
 1630 06da 50       		.byte	0x50
 1631 06db 01       		.uleb128 0x1
 1632 06dc 73030000 		.4byte	.LASF92
 1633 06e0 E504     		.2byte	0x4e5
 1634 06e2 11       		.byte	0x11
 1635 06e3 8B000000 		.4byte	0x8b
 1636 06e7 54       		.byte	0x54
 1637 06e8 01       		.uleb128 0x1
 1638 06e9 C1020000 		.4byte	.LASF93
 1639 06ed E604     		.2byte	0x4e6
 1640 06ef 11       		.byte	0x11
 1641 06f0 8B000000 		.4byte	0x8b
 1642 06f4 58       		.byte	0x58
 1643 06f5 01       		.uleb128 0x1
 1644 06f6 67050000 		.4byte	.LASF45
 1645 06fa E704     		.2byte	0x4e7
 1646 06fc 10       		.byte	0x10
 1647 06fd 7F000000 		.4byte	0x7f
 1648 0701 5C       		.byte	0x5c
 1649 0702 01       		.uleb128 0x1
 1650 0703 98010000 		.4byte	.LASF94
 1651 0707 E804     		.2byte	0x4e8
 1652 0709 11       		.byte	0x11
 1653 070a 8B000000 		.4byte	0x8b
ARM GAS  C:\Users\DEVELO~1\AppData\Local\Temp\cc6jhEjd.s 			page 30


 1654 070e 60       		.byte	0x60
 1655 070f 01       		.uleb128 0x1
 1656 0710 95020000 		.4byte	.LASF95
 1657 0714 E904     		.2byte	0x4e9
 1658 0716 11       		.byte	0x11
 1659 0717 8B000000 		.4byte	0x8b
 1660 071b 64       		.byte	0x64
 1661 071c 01       		.uleb128 0x1
 1662 071d 40060000 		.4byte	.LASF96
 1663 0721 EA04     		.2byte	0x4ea
 1664 0723 11       		.byte	0x11
 1665 0724 8B000000 		.4byte	0x8b
 1666 0728 68       		.byte	0x68
 1667 0729 01       		.uleb128 0x1
 1668 072a CB040000 		.4byte	.LASF97
 1669 072e EB04     		.2byte	0x4eb
 1670 0730 0F       		.byte	0xf
 1671 0731 7F000000 		.4byte	0x7f
 1672 0735 6C       		.byte	0x6c
 1673 0736 01       		.uleb128 0x1
 1674 0737 D2050000 		.4byte	.LASF98
 1675 073b EC04     		.2byte	0x4ec
 1676 073d 11       		.byte	0x11
 1677 073e 8B000000 		.4byte	0x8b
 1678 0742 70       		.byte	0x70
 1679 0743 06       		.uleb128 0x6
 1680 0744 43535200 		.ascii	"CSR\000"
 1681 0748 ED04     		.2byte	0x4ed
 1682 074a 11       		.byte	0x11
 1683 074b 8B000000 		.4byte	0x8b
 1684 074f 74       		.byte	0x74
 1685 0750 01       		.uleb128 0x1
 1686 0751 D5040000 		.4byte	.LASF99
 1687 0755 EE04     		.2byte	0x4ee
 1688 0757 0F       		.byte	0xf
 1689 0758 7F000000 		.4byte	0x7f
 1690 075c 78       		.byte	0x78
 1691 075d 01       		.uleb128 0x1
 1692 075e 61030000 		.4byte	.LASF100
 1693 0762 EF04     		.2byte	0x4ef
 1694 0764 10       		.byte	0x10
 1695 0765 8B000000 		.4byte	0x8b
 1696 0769 7C       		.byte	0x7c
 1697 076a 01       		.uleb128 0x1
 1698 076b 0E060000 		.4byte	.LASF101
 1699 076f F004     		.2byte	0x4f0
 1700 0771 10       		.byte	0x10
 1701 0772 8B000000 		.4byte	0x8b
 1702 0776 80       		.byte	0x80
 1703 0777 01       		.uleb128 0x1
 1704 0778 B3050000 		.4byte	.LASF102
 1705 077c F104     		.2byte	0x4f1
 1706 077e 10       		.byte	0x10
 1707 077f 8B000000 		.4byte	0x8b
 1708 0783 84       		.byte	0x84
 1709 0784 01       		.uleb128 0x1
 1710 0785 9D010000 		.4byte	.LASF103
ARM GAS  C:\Users\DEVELO~1\AppData\Local\Temp\cc6jhEjd.s 			page 31


 1711 0789 F204     		.2byte	0x4f2
 1712 078b 10       		.byte	0x10
 1713 078c 8B000000 		.4byte	0x8b
 1714 0790 88       		.byte	0x88
 1715 0791 01       		.uleb128 0x1
 1716 0792 DF050000 		.4byte	.LASF104
 1717 0796 F304     		.2byte	0x4f3
 1718 0798 10       		.byte	0x10
 1719 0799 8B000000 		.4byte	0x8b
 1720 079d 8C       		.byte	0x8c
 1721 079e 01       		.uleb128 0x1
 1722 079f 90030000 		.4byte	.LASF105
 1723 07a3 F404     		.2byte	0x4f4
 1724 07a5 10       		.byte	0x10
 1725 07a6 8B000000 		.4byte	0x8b
 1726 07aa 90       		.byte	0x90
 1727 07ab 01       		.uleb128 0x1
 1728 07ac 2D040000 		.4byte	.LASF106
 1729 07b0 F504     		.2byte	0x4f5
 1730 07b2 10       		.byte	0x10
 1731 07b3 8B000000 		.4byte	0x8b
 1732 07b7 94       		.byte	0x94
 1733 07b8 01       		.uleb128 0x1
 1734 07b9 2D020000 		.4byte	.LASF107
 1735 07bd F604     		.2byte	0x4f6
 1736 07bf 10       		.byte	0x10
 1737 07c0 8B000000 		.4byte	0x8b
 1738 07c4 98       		.byte	0x98
 1739 07c5 01       		.uleb128 0x1
 1740 07c6 AE030000 		.4byte	.LASF108
 1741 07ca F704     		.2byte	0x4f7
 1742 07cc 10       		.byte	0x10
 1743 07cd 8B000000 		.4byte	0x8b
 1744 07d1 9C       		.byte	0x9c
 1745 07d2 06       		.uleb128 0x6
 1746 07d3 47435200 		.ascii	"GCR\000"
 1747 07d7 F804     		.2byte	0x4f8
 1748 07d9 10       		.byte	0x10
 1749 07da 8B000000 		.4byte	0x8b
 1750 07de A0       		.byte	0xa0
 1751 07df 01       		.uleb128 0x1
 1752 07e0 DF040000 		.4byte	.LASF109
 1753 07e4 F904     		.2byte	0x4f9
 1754 07e6 0F       		.byte	0xf
 1755 07e7 7F000000 		.4byte	0x7f
 1756 07eb A4       		.byte	0xa4
 1757 07ec 01       		.uleb128 0x1
 1758 07ed 74010000 		.4byte	.LASF110
 1759 07f1 FA04     		.2byte	0x4fa
 1760 07f3 10       		.byte	0x10
 1761 07f4 8B000000 		.4byte	0x8b
 1762 07f8 A8       		.byte	0xa8
 1763 07f9 01       		.uleb128 0x1
 1764 07fa F9010000 		.4byte	.LASF111
 1765 07fe FB04     		.2byte	0x4fb
 1766 0800 0F       		.byte	0xf
 1767 0801 D8000000 		.4byte	0xd8
ARM GAS  C:\Users\DEVELO~1\AppData\Local\Temp\cc6jhEjd.s 			page 32


 1768 0805 AC       		.byte	0xac
 1769 0806 06       		.uleb128 0x6
 1770 0807 52535200 		.ascii	"RSR\000"
 1771 080b FC04     		.2byte	0x4fc
 1772 080d 10       		.byte	0x10
 1773 080e 8B000000 		.4byte	0x8b
 1774 0812 D0       		.byte	0xd0
 1775 0813 01       		.uleb128 0x1
 1776 0814 4B050000 		.4byte	.LASF112
 1777 0818 FD04     		.2byte	0x4fd
 1778 081a 10       		.byte	0x10
 1779 081b 8B000000 		.4byte	0x8b
 1780 081f D4       		.byte	0xd4
 1781 0820 01       		.uleb128 0x1
 1782 0821 7C060000 		.4byte	.LASF113
 1783 0825 FE04     		.2byte	0x4fe
 1784 0827 10       		.byte	0x10
 1785 0828 8B000000 		.4byte	0x8b
 1786 082c D8       		.byte	0xd8
 1787 082d 01       		.uleb128 0x1
 1788 082e D7050000 		.4byte	.LASF114
 1789 0832 FF04     		.2byte	0x4ff
 1790 0834 10       		.byte	0x10
 1791 0835 8B000000 		.4byte	0x8b
 1792 0839 DC       		.byte	0xdc
 1793 083a 01       		.uleb128 0x1
 1794 083b 8F040000 		.4byte	.LASF115
 1795 083f 0005     		.2byte	0x500
 1796 0841 10       		.byte	0x10
 1797 0842 8B000000 		.4byte	0x8b
 1798 0846 E0       		.byte	0xe0
 1799 0847 01       		.uleb128 0x1
 1800 0848 7F040000 		.4byte	.LASF116
 1801 084c 0105     		.2byte	0x501
 1802 084e 10       		.byte	0x10
 1803 084f 8B000000 		.4byte	0x8b
 1804 0853 E4       		.byte	0xe4
 1805 0854 01       		.uleb128 0x1
 1806 0855 97060000 		.4byte	.LASF117
 1807 0859 0205     		.2byte	0x502
 1808 085b 10       		.byte	0x10
 1809 085c 8B000000 		.4byte	0x8b
 1810 0860 E8       		.byte	0xe8
 1811 0861 01       		.uleb128 0x1
 1812 0862 6A030000 		.4byte	.LASF118
 1813 0866 0305     		.2byte	0x503
 1814 0868 10       		.byte	0x10
 1815 0869 8B000000 		.4byte	0x8b
 1816 086d EC       		.byte	0xec
 1817 086e 01       		.uleb128 0x1
 1818 086f 3A050000 		.4byte	.LASF119
 1819 0873 0405     		.2byte	0x504
 1820 0875 10       		.byte	0x10
 1821 0876 8B000000 		.4byte	0x8b
 1822 087a F0       		.byte	0xf0
 1823 087b 01       		.uleb128 0x1
 1824 087c DC030000 		.4byte	.LASF120
ARM GAS  C:\Users\DEVELO~1\AppData\Local\Temp\cc6jhEjd.s 			page 33


 1825 0880 0505     		.2byte	0x505
 1826 0882 10       		.byte	0x10
 1827 0883 8B000000 		.4byte	0x8b
 1828 0887 F4       		.byte	0xf4
 1829 0888 01       		.uleb128 0x1
 1830 0889 04020000 		.4byte	.LASF121
 1831 088d 0605     		.2byte	0x506
 1832 088f 10       		.byte	0x10
 1833 0890 7F000000 		.4byte	0x7f
 1834 0894 F8       		.byte	0xf8
 1835 0895 01       		.uleb128 0x1
 1836 0896 16050000 		.4byte	.LASF122
 1837 089a 0705     		.2byte	0x507
 1838 089c 10       		.byte	0x10
 1839 089d 8B000000 		.4byte	0x8b
 1840 08a1 FC       		.byte	0xfc
 1841 08a2 02       		.uleb128 0x2
 1842 08a3 8E010000 		.4byte	.LASF123
 1843 08a7 0805     		.2byte	0x508
 1844 08a9 10       		.byte	0x10
 1845 08aa 8B000000 		.4byte	0x8b
 1846 08ae 0001     		.2byte	0x100
 1847 08b0 02       		.uleb128 0x2
 1848 08b1 6D040000 		.4byte	.LASF124
 1849 08b5 0905     		.2byte	0x509
 1850 08b7 10       		.byte	0x10
 1851 08b8 8B000000 		.4byte	0x8b
 1852 08bc 0401     		.2byte	0x104
 1853 08be 02       		.uleb128 0x2
 1854 08bf C2050000 		.4byte	.LASF125
 1855 08c3 0A05     		.2byte	0x50a
 1856 08c5 10       		.byte	0x10
 1857 08c6 8B000000 		.4byte	0x8b
 1858 08ca 0801     		.2byte	0x108
 1859 08cc 02       		.uleb128 0x2
 1860 08cd E8010000 		.4byte	.LASF126
 1861 08d1 0B05     		.2byte	0x50b
 1862 08d3 10       		.byte	0x10
 1863 08d4 8B000000 		.4byte	0x8b
 1864 08d8 0C01     		.2byte	0x10c
 1865 08da 02       		.uleb128 0x2
 1866 08db 2B060000 		.4byte	.LASF127
 1867 08df 0C05     		.2byte	0x50c
 1868 08e1 10       		.byte	0x10
 1869 08e2 8B000000 		.4byte	0x8b
 1870 08e6 1001     		.2byte	0x110
 1871 08e8 02       		.uleb128 0x2
 1872 08e9 07010000 		.4byte	.LASF128
 1873 08ed 0D05     		.2byte	0x50d
 1874 08ef 10       		.byte	0x10
 1875 08f0 8B000000 		.4byte	0x8b
 1876 08f4 1401     		.2byte	0x114
 1877 08f6 02       		.uleb128 0x2
 1878 08f7 9A030000 		.4byte	.LASF129
 1879 08fb 0E05     		.2byte	0x50e
 1880 08fd 10       		.byte	0x10
 1881 08fe 8B000000 		.4byte	0x8b
ARM GAS  C:\Users\DEVELO~1\AppData\Local\Temp\cc6jhEjd.s 			page 34


 1882 0902 1801     		.2byte	0x118
 1883 0904 02       		.uleb128 0x2
 1884 0905 20050000 		.4byte	.LASF130
 1885 0909 0F05     		.2byte	0x50f
 1886 090b 10       		.byte	0x10
 1887 090c 8B000000 		.4byte	0x8b
 1888 0910 1C01     		.2byte	0x11c
 1889 0912 02       		.uleb128 0x2
 1890 0913 0F020000 		.4byte	.LASF131
 1891 0917 1005     		.2byte	0x510
 1892 0919 0F       		.byte	0xf
 1893 091a B3000000 		.4byte	0xb3
 1894 091e 2001     		.2byte	0x120
 1895 0920 00       		.byte	0
 1896 0921 0D       		.uleb128 0xd
 1897 0922 27030000 		.4byte	.LASF132
 1898 0926 1205     		.2byte	0x512
 1899 0928 C2050000 		.4byte	0x5c2
 1900 092c 04       		.uleb128 0x4
 1901 092d 01       		.byte	0x1
 1902 092e 02       		.byte	0x2
 1903 092f E9040000 		.4byte	.LASF133
 1904 0933 1D       		.uleb128 0x1d
 1905 0934 A7000000 		.4byte	0xa7
 1906 0938 01       		.byte	0x1
 1907 0939 2B       		.byte	0x2b
 1908 093a 0A       		.byte	0xa
 1909 093b 05       		.uleb128 0x5
 1910 093c 03       		.byte	0x3
 1911 093d 00000000 		.4byte	SystemCoreClock
 1912 0941 0F       		.uleb128 0xf
 1913 0942 87040000 		.4byte	.LASF134
 1914 0946 06       		.byte	0x6
 1915 0947 8F01     		.2byte	0x18f
 1916 0949 0F       		.uleb128 0xf
 1917 094a 90050000 		.4byte	.LASF135
 1918 094e 07       		.byte	0x7
 1919 094f 9B02     		.2byte	0x29b
 1920 0951 0F       		.uleb128 0xf
 1921 0952 B3060000 		.4byte	.LASF136
 1922 0956 08       		.byte	0x8
 1923 0957 CC01     		.2byte	0x1cc
 1924 0959 13       		.uleb128 0x13
 1925 095a CF020000 		.4byte	.LASF142
 1926 095e E3       		.byte	0xe3
 1927 095f 00000000 		.4byte	.LFB451
 1928 0963 F0010000 		.4byte	.LFE451-.LFB451
 1929 0967 01       		.uleb128 0x1
 1930 0968 9C       		.byte	0x9c
 1931 0969 B40A0000 		.4byte	0xab4
 1932 096d 1E       		.uleb128 0x1e
 1933 096e 77060000 		.4byte	.LASF138
 1934 0972 01       		.byte	0x1
 1935 0973 E5       		.byte	0xe5
 1936 0974 0C       		.byte	0xc
 1937 0975 7F000000 		.4byte	0x7f
 1938 0979 10000000 		.4byte	.LLST13
ARM GAS  C:\Users\DEVELO~1\AppData\Local\Temp\cc6jhEjd.s 			page 35


 1939 097d 0C000000 		.4byte	.LVUS13
 1940 0981 1F       		.uleb128 0x1f
 1941 0982 E2000000 		.4byte	.LBB88
 1942 0986 3A000000 		.4byte	.LBE88-.LBB88
 1943 098a C8090000 		.4byte	0x9c8
 1944 098e 10       		.uleb128 0x10
 1945 098f BC010000 		.4byte	.LASF139
 1946 0993 4801     		.2byte	0x148
 1947 0995 7F000000 		.4byte	0x7f
 1948 0999 33000000 		.4byte	.LLST18
 1949 099d 2B000000 		.4byte	.LVUS18
 1950 09a1 10       		.uleb128 0x10
 1951 09a2 77040000 		.4byte	.LASF140
 1952 09a6 4901     		.2byte	0x149
 1953 09a8 7F000000 		.4byte	0x7f
 1954 09ac 60000000 		.4byte	.LLST19
 1955 09b0 58000000 		.4byte	.LVUS19
 1956 09b4 10       		.uleb128 0x10
 1957 09b5 6E020000 		.4byte	.LASF141
 1958 09b9 4A01     		.2byte	0x14a
 1959 09bb 7F000000 		.4byte	0x7f
 1960 09bf 9B000000 		.4byte	.LLST20
 1961 09c3 85000000 		.4byte	.LVUS20
 1962 09c7 00       		.byte	0
 1963 09c8 0B       		.uleb128 0xb
 1964 09c9 4E0C0000 		.4byte	0xc4e
 1965 09cd 00000000 		.4byte	.LBI76
 1966 09d1 03       		.byte	.LVU90
 1967 09d2 48000000 		.4byte	.LLRL14
 1968 09d6 F5       		.byte	0xf5
 1969 09d7 F6090000 		.4byte	0x9f6
 1970 09db 03       		.uleb128 0x3
 1971 09dc 640C0000 		.4byte	0xc64
 1972 09e0 0C010000 		.4byte	.LLST15
 1973 09e4 0A010000 		.4byte	.LVUS15
 1974 09e8 03       		.uleb128 0x3
 1975 09e9 590C0000 		.4byte	0xc59
 1976 09ed 18010000 		.4byte	.LLST16
 1977 09f1 16010000 		.4byte	.LVUS16
 1978 09f5 00       		.byte	0
 1979 09f6 20       		.uleb128 0x20
 1980 09f7 210C0000 		.4byte	0xc21
 1981 09fb 20000000 		.4byte	.LBI80
 1982 09ff 02       		.byte	.LVU103
 1983 0a00 57000000 		.4byte	.LLRL17
 1984 0a04 01       		.byte	0x1
 1985 0a05 F8       		.byte	0xf8
 1986 0a06 03       		.byte	0x3
 1987 0a07 21       		.uleb128 0x21
 1988 0a08 270C0000 		.4byte	0xc27
 1989 0a0c 4A000000 		.4byte	.LBI86
 1990 0a10 01       		.byte	.LVU134
 1991 0a11 4A000000 		.4byte	.LBB86
 1992 0a15 20000000 		.4byte	.LBE86-.LBB86
 1993 0a19 01       		.byte	0x1
 1994 0a1a FB       		.byte	0xfb
 1995 0a1b 03       		.byte	0x3
ARM GAS  C:\Users\DEVELO~1\AppData\Local\Temp\cc6jhEjd.s 			page 36


 1996 0a1c 22       		.uleb128 0x22
 1997 0a1d 2D0C0000 		.4byte	0xc2d
 1998 0a21 64010000 		.4byte	.LBI89
 1999 0a25 01       		.byte	.LVU305
 2000 0a26 63000000 		.4byte	.LLRL21
 2001 0a2a 01       		.byte	0x1
 2002 0a2b DD01     		.2byte	0x1dd
 2003 0a2d 03       		.byte	0x3
 2004 0a2e 4D0A0000 		.4byte	0xa4d
 2005 0a32 03       		.uleb128 0x3
 2006 0a33 430C0000 		.4byte	0xc43
 2007 0a37 24010000 		.4byte	.LLST22
 2008 0a3b 22010000 		.4byte	.LVUS22
 2009 0a3f 03       		.uleb128 0x3
 2010 0a40 380C0000 		.4byte	0xc38
 2011 0a44 30010000 		.4byte	.LLST23
 2012 0a48 2E010000 		.4byte	.LVUS23
 2013 0a4c 00       		.byte	0
 2014 0a4d 23       		.uleb128 0x23
 2015 0a4e 2D0C0000 		.4byte	0xc2d
 2016 0a52 84010000 		.4byte	.LBI93
 2017 0a56 02       		.byte	.LVU316
 2018 0a57 84010000 		.4byte	.LBB93
 2019 0a5b 1C000000 		.4byte	.LBE93-.LBB93
 2020 0a5f 01       		.byte	0x1
 2021 0a60 DE01     		.2byte	0x1de
 2022 0a62 03       		.byte	0x3
 2023 0a63 820A0000 		.4byte	0xa82
 2024 0a67 03       		.uleb128 0x3
 2025 0a68 430C0000 		.4byte	0xc43
 2026 0a6c 3E010000 		.4byte	.LLST24
 2027 0a70 3C010000 		.4byte	.LVUS24
 2028 0a74 03       		.uleb128 0x3
 2029 0a75 380C0000 		.4byte	0xc38
 2030 0a79 4A010000 		.4byte	.LLST25
 2031 0a7d 48010000 		.4byte	.LVUS25
 2032 0a81 00       		.byte	0
 2033 0a82 24       		.uleb128 0x24
 2034 0a83 2D0C0000 		.4byte	0xc2d
 2035 0a87 A0010000 		.4byte	.LBI95
 2036 0a8b 02       		.byte	.LVU325
 2037 0a8c A0010000 		.4byte	.LBB95
 2038 0a90 1C000000 		.4byte	.LBE95-.LBB95
 2039 0a94 01       		.byte	0x1
 2040 0a95 E001     		.2byte	0x1e0
 2041 0a97 03       		.byte	0x3
 2042 0a98 03       		.uleb128 0x3
 2043 0a99 430C0000 		.4byte	0xc43
 2044 0a9d 58010000 		.4byte	.LLST26
 2045 0aa1 56010000 		.4byte	.LVUS26
 2046 0aa5 03       		.uleb128 0x3
 2047 0aa6 380C0000 		.4byte	0xc38
 2048 0aaa 64010000 		.4byte	.LLST27
 2049 0aae 62010000 		.4byte	.LVUS27
 2050 0ab2 00       		.byte	0
 2051 0ab3 00       		.byte	0
 2052 0ab4 13       		.uleb128 0x13
ARM GAS  C:\Users\DEVELO~1\AppData\Local\Temp\cc6jhEjd.s 			page 37


 2053 0ab5 00000000 		.4byte	.LASF143
 2054 0ab9 96       		.byte	0x96
 2055 0aba 00000000 		.4byte	.LFB450
 2056 0abe EC000000 		.4byte	.LFE450-.LFB450
 2057 0ac2 01       		.uleb128 0x1
 2058 0ac3 9C       		.byte	0x9c
 2059 0ac4 210C0000 		.4byte	0xc21
 2060 0ac8 0B       		.uleb128 0xb
 2061 0ac9 B10C0000 		.4byte	0xcb1
 2062 0acd 00000000 		.4byte	.LBI29
 2063 0ad1 02       		.byte	.LVU2
 2064 0ad2 0C000000 		.4byte	.LLRL0
 2065 0ad6 A0       		.byte	0xa0
 2066 0ad7 E90A0000 		.4byte	0xae9
 2067 0adb 03       		.uleb128 0x3
 2068 0adc BB0C0000 		.4byte	0xcbb
 2069 0ae0 73010000 		.4byte	.LLST1
 2070 0ae4 71010000 		.4byte	.LVUS1
 2071 0ae8 00       		.byte	0
 2072 0ae9 0B       		.uleb128 0xb
 2073 0aea 9B0C0000 		.4byte	0xc9b
 2074 0aee 2A000000 		.4byte	.LBI35
 2075 0af2 02       		.byte	.LVU17
 2076 0af3 1E000000 		.4byte	.LLRL2
 2077 0af7 A1       		.byte	0xa1
 2078 0af8 0A0B0000 		.4byte	0xb0a
 2079 0afc 03       		.uleb128 0x3
 2080 0afd A50C0000 		.4byte	0xca5
 2081 0b01 83010000 		.4byte	.LLST3
 2082 0b05 81010000 		.4byte	.LVUS3
 2083 0b09 00       		.byte	0
 2084 0b0a 0B       		.uleb128 0xb
 2085 0b0b 850C0000 		.4byte	0xc85
 2086 0b0f 3E000000 		.4byte	.LBI38
 2087 0b13 02       		.byte	.LVU25
 2088 0b14 2A000000 		.4byte	.LLRL4
 2089 0b18 A2       		.byte	0xa2
 2090 0b19 2B0B0000 		.4byte	0xb2b
 2091 0b1d 03       		.uleb128 0x3
 2092 0b1e 8F0C0000 		.4byte	0xc8f
 2093 0b22 90010000 		.4byte	.LLST5
 2094 0b26 8E010000 		.4byte	.LVUS5
 2095 0b2a 00       		.byte	0
 2096 0b2b 0B       		.uleb128 0xb
 2097 0b2c 6F0C0000 		.4byte	0xc6f
 2098 0b30 4E000000 		.4byte	.LBI48
 2099 0b34 02       		.byte	.LVU35
 2100 0b35 3C000000 		.4byte	.LLRL6
 2101 0b39 B1       		.byte	0xb1
 2102 0b3a 4C0B0000 		.4byte	0xb4c
 2103 0b3e 03       		.uleb128 0x3
 2104 0b3f 790C0000 		.4byte	0xc79
 2105 0b43 A0010000 		.4byte	.LLST7
 2106 0b47 9E010000 		.4byte	.LVUS7
 2107 0b4b 00       		.byte	0
 2108 0b4c 0C       		.uleb128 0xc
 2109 0b4d 1F0D0000 		.4byte	0xd1f
ARM GAS  C:\Users\DEVELO~1\AppData\Local\Temp\cc6jhEjd.s 			page 38


 2110 0b51 68000000 		.4byte	.LBI53
 2111 0b55 02       		.byte	.LVU43
 2112 0b56 68000000 		.4byte	.LBB53
 2113 0b5a 14000000 		.4byte	.LBE53-.LBB53
 2114 0b5e B2       		.byte	0xb2
 2115 0b5f 710B0000 		.4byte	0xb71
 2116 0b63 03       		.uleb128 0x3
 2117 0b64 280D0000 		.4byte	0xd28
 2118 0b68 AE010000 		.4byte	.LLST8
 2119 0b6c AC010000 		.4byte	.LVUS8
 2120 0b70 00       		.byte	0
 2121 0b71 0C       		.uleb128 0xc
 2122 0b72 090D0000 		.4byte	0xd09
 2123 0b76 7C000000 		.4byte	.LBI55
 2124 0b7a 02       		.byte	.LVU51
 2125 0b7b 7C000000 		.4byte	.LBB55
 2126 0b7f 14000000 		.4byte	.LBE55-.LBB55
 2127 0b83 B3       		.byte	0xb3
 2128 0b84 960B0000 		.4byte	0xb96
 2129 0b88 03       		.uleb128 0x3
 2130 0b89 130D0000 		.4byte	0xd13
 2131 0b8d BB010000 		.4byte	.LLST9
 2132 0b91 B9010000 		.4byte	.LVUS9
 2133 0b95 00       		.byte	0
 2134 0b96 0C       		.uleb128 0xc
 2135 0b97 F30C0000 		.4byte	0xcf3
 2136 0b9b 90000000 		.4byte	.LBI57
 2137 0b9f 02       		.byte	.LVU59
 2138 0ba0 90000000 		.4byte	.LBB57
 2139 0ba4 14000000 		.4byte	.LBE57-.LBB57
 2140 0ba8 B4       		.byte	0xb4
 2141 0ba9 BB0B0000 		.4byte	0xbbb
 2142 0bad 03       		.uleb128 0x3
 2143 0bae FD0C0000 		.4byte	0xcfd
 2144 0bb2 C8010000 		.4byte	.LLST10
 2145 0bb6 C6010000 		.4byte	.LVUS10
 2146 0bba 00       		.byte	0
 2147 0bbb 0C       		.uleb128 0xc
 2148 0bbc DD0C0000 		.4byte	0xcdd
 2149 0bc0 A4000000 		.4byte	.LBI59
 2150 0bc4 02       		.byte	.LVU67
 2151 0bc5 A4000000 		.4byte	.LBB59
 2152 0bc9 14000000 		.4byte	.LBE59-.LBB59
 2153 0bcd B5       		.byte	0xb5
 2154 0bce E00B0000 		.4byte	0xbe0
 2155 0bd2 03       		.uleb128 0x3
 2156 0bd3 E70C0000 		.4byte	0xce7
 2157 0bd7 D5010000 		.4byte	.LLST11
 2158 0bdb D3010000 		.4byte	.LVUS11
 2159 0bdf 00       		.byte	0
 2160 0be0 0C       		.uleb128 0xc
 2161 0be1 C70C0000 		.4byte	0xcc7
 2162 0be5 B8000000 		.4byte	.LBI61
 2163 0be9 02       		.byte	.LVU75
 2164 0bea B8000000 		.4byte	.LBB61
 2165 0bee 14000000 		.4byte	.LBE61-.LBB61
 2166 0bf2 B6       		.byte	0xb6
ARM GAS  C:\Users\DEVELO~1\AppData\Local\Temp\cc6jhEjd.s 			page 39


 2167 0bf3 050C0000 		.4byte	0xc05
 2168 0bf7 03       		.uleb128 0x3
 2169 0bf8 D10C0000 		.4byte	0xcd1
 2170 0bfc E2010000 		.4byte	.LLST12
 2171 0c00 E0010000 		.4byte	.LVUS12
 2172 0c04 00       		.byte	0
 2173 0c05 14       		.uleb128 0x14
 2174 0c06 D0000000 		.4byte	.LVL10
 2175 0c0a 51090000 		.4byte	0x951
 2176 0c0e 14       		.uleb128 0x14
 2177 0c0f D4000000 		.4byte	.LVL11
 2178 0c13 49090000 		.4byte	0x949
 2179 0c17 25       		.uleb128 0x25
 2180 0c18 DC000000 		.4byte	.LVL12
 2181 0c1c 41090000 		.4byte	0x941
 2182 0c20 00       		.byte	0
 2183 0c21 15       		.uleb128 0x15
 2184 0c22 7F050000 		.4byte	.LASF144
 2185 0c26 62       		.byte	0x62
 2186 0c27 15       		.uleb128 0x15
 2187 0c28 36020000 		.4byte	.LASF145
 2188 0c2c 3A       		.byte	0x3a
 2189 0c2d 16       		.uleb128 0x16
 2190 0c2e A5060000 		.4byte	.LASF147
 2191 0c32 A302     		.2byte	0x2a3
 2192 0c34 4E0C0000 		.4byte	0xc4e
 2193 0c38 17       		.uleb128 0x17
 2194 0c39 B3020000 		.4byte	.LASF146
 2195 0c3d A302     		.2byte	0x2a3
 2196 0c3f 7F000000 		.4byte	0x7f
 2197 0c43 18       		.uleb128 0x18
 2198 0c44 6C7000   		.ascii	"lp\000"
 2199 0c47 A302     		.2byte	0x2a3
 2200 0c49 2C090000 		.4byte	0x92c
 2201 0c4d 00       		.byte	0
 2202 0c4e 16       		.uleb128 0x16
 2203 0c4f E4030000 		.4byte	.LASF148
 2204 0c53 F101     		.2byte	0x1f1
 2205 0c55 6F0C0000 		.4byte	0xc6f
 2206 0c59 17       		.uleb128 0x17
 2207 0c5a B3020000 		.4byte	.LASF146
 2208 0c5e F101     		.2byte	0x1f1
 2209 0c60 7F000000 		.4byte	0x7f
 2210 0c64 18       		.uleb128 0x18
 2211 0c65 6C7000   		.ascii	"lp\000"
 2212 0c68 F101     		.2byte	0x1f1
 2213 0c6a 2C090000 		.4byte	0x92c
 2214 0c6e 00       		.byte	0
 2215 0c6f 08       		.uleb128 0x8
 2216 0c70 1E040000 		.4byte	.LASF149
 2217 0c74 79       		.byte	0x79
 2218 0c75 850C0000 		.4byte	0xc85
 2219 0c79 07       		.uleb128 0x7
 2220 0c7a B3020000 		.4byte	.LASF146
 2221 0c7e 79       		.byte	0x79
 2222 0c7f 2E       		.byte	0x2e
 2223 0c80 7F000000 		.4byte	0x7f
ARM GAS  C:\Users\DEVELO~1\AppData\Local\Temp\cc6jhEjd.s 			page 40


 2224 0c84 00       		.byte	0
 2225 0c85 08       		.uleb128 0x8
 2226 0c86 0F040000 		.4byte	.LASF150
 2227 0c8a 71       		.byte	0x71
 2228 0c8b 9B0C0000 		.4byte	0xc9b
 2229 0c8f 07       		.uleb128 0x7
 2230 0c90 B3020000 		.4byte	.LASF146
 2231 0c94 71       		.byte	0x71
 2232 0c95 2E       		.byte	0x2e
 2233 0c96 7F000000 		.4byte	0x7f
 2234 0c9a 00       		.byte	0
 2235 0c9b 08       		.uleb128 0x8
 2236 0c9c 5E040000 		.4byte	.LASF151
 2237 0ca0 69       		.byte	0x69
 2238 0ca1 B10C0000 		.4byte	0xcb1
 2239 0ca5 07       		.uleb128 0x7
 2240 0ca6 B3020000 		.4byte	.LASF146
 2241 0caa 69       		.byte	0x69
 2242 0cab 2E       		.byte	0x2e
 2243 0cac 7F000000 		.4byte	0x7f
 2244 0cb0 00       		.byte	0
 2245 0cb1 08       		.uleb128 0x8
 2246 0cb2 4F040000 		.4byte	.LASF152
 2247 0cb6 61       		.byte	0x61
 2248 0cb7 C70C0000 		.4byte	0xcc7
 2249 0cbb 07       		.uleb128 0x7
 2250 0cbc B3020000 		.4byte	.LASF146
 2251 0cc0 61       		.byte	0x61
 2252 0cc1 2E       		.byte	0x2e
 2253 0cc2 7F000000 		.4byte	0x7f
 2254 0cc6 00       		.byte	0
 2255 0cc7 08       		.uleb128 0x8
 2256 0cc8 7A010000 		.4byte	.LASF153
 2257 0ccc 59       		.byte	0x59
 2258 0ccd DD0C0000 		.4byte	0xcdd
 2259 0cd1 07       		.uleb128 0x7
 2260 0cd2 B3020000 		.4byte	.LASF146
 2261 0cd6 59       		.byte	0x59
 2262 0cd7 2E       		.byte	0x2e
 2263 0cd8 7F000000 		.4byte	0x7f
 2264 0cdc 00       		.byte	0
 2265 0cdd 08       		.uleb128 0x8
 2266 0cde 58050000 		.4byte	.LASF154
 2267 0ce2 51       		.byte	0x51
 2268 0ce3 F30C0000 		.4byte	0xcf3
 2269 0ce7 07       		.uleb128 0x7
 2270 0ce8 B3020000 		.4byte	.LASF146
 2271 0cec 51       		.byte	0x51
 2272 0ced 2E       		.byte	0x2e
 2273 0cee 7F000000 		.4byte	0x7f
 2274 0cf2 00       		.byte	0
 2275 0cf3 08       		.uleb128 0x8
 2276 0cf4 65010000 		.4byte	.LASF155
 2277 0cf8 49       		.byte	0x49
 2278 0cf9 090D0000 		.4byte	0xd09
 2279 0cfd 07       		.uleb128 0x7
 2280 0cfe B3020000 		.4byte	.LASF146
ARM GAS  C:\Users\DEVELO~1\AppData\Local\Temp\cc6jhEjd.s 			page 41


 2281 0d02 49       		.byte	0x49
 2282 0d03 2E       		.byte	0x2e
 2283 0d04 7F000000 		.4byte	0x7f
 2284 0d08 00       		.byte	0
 2285 0d09 08       		.uleb128 0x8
 2286 0d0a 45060000 		.4byte	.LASF156
 2287 0d0e 41       		.byte	0x41
 2288 0d0f 1F0D0000 		.4byte	0xd1f
 2289 0d13 07       		.uleb128 0x7
 2290 0d14 B3020000 		.4byte	.LASF146
 2291 0d18 41       		.byte	0x41
 2292 0d19 2F       		.byte	0x2f
 2293 0d1a 7F000000 		.4byte	0x7f
 2294 0d1e 00       		.byte	0
 2295 0d1f 26       		.uleb128 0x26
 2296 0d20 55060000 		.4byte	.LASF160
 2297 0d24 02       		.byte	0x2
 2298 0d25 39       		.byte	0x39
 2299 0d26 16       		.byte	0x16
 2300 0d27 03       		.byte	0x3
 2301 0d28 07       		.uleb128 0x7
 2302 0d29 B3020000 		.4byte	.LASF146
 2303 0d2d 39       		.byte	0x39
 2304 0d2e 2F       		.byte	0x2f
 2305 0d2f 7F000000 		.4byte	0x7f
 2306 0d33 00       		.byte	0
 2307 0d34 00       		.byte	0
 2308              		.section	.debug_abbrev,"",%progbits
 2309              	.Ldebug_abbrev0:
 2310 0000 01       		.uleb128 0x1
 2311 0001 0D       		.uleb128 0xd
 2312 0002 00       		.byte	0
 2313 0003 03       		.uleb128 0x3
 2314 0004 0E       		.uleb128 0xe
 2315 0005 3A       		.uleb128 0x3a
 2316 0006 21       		.uleb128 0x21
 2317 0007 05       		.sleb128 5
 2318 0008 3B       		.uleb128 0x3b
 2319 0009 05       		.uleb128 0x5
 2320 000a 39       		.uleb128 0x39
 2321 000b 0B       		.uleb128 0xb
 2322 000c 49       		.uleb128 0x49
 2323 000d 13       		.uleb128 0x13
 2324 000e 38       		.uleb128 0x38
 2325 000f 0B       		.uleb128 0xb
 2326 0010 00       		.byte	0
 2327 0011 00       		.byte	0
 2328 0012 02       		.uleb128 0x2
 2329 0013 0D       		.uleb128 0xd
 2330 0014 00       		.byte	0
 2331 0015 03       		.uleb128 0x3
 2332 0016 0E       		.uleb128 0xe
 2333 0017 3A       		.uleb128 0x3a
 2334 0018 21       		.uleb128 0x21
 2335 0019 05       		.sleb128 5
 2336 001a 3B       		.uleb128 0x3b
 2337 001b 05       		.uleb128 0x5
ARM GAS  C:\Users\DEVELO~1\AppData\Local\Temp\cc6jhEjd.s 			page 42


 2338 001c 39       		.uleb128 0x39
 2339 001d 0B       		.uleb128 0xb
 2340 001e 49       		.uleb128 0x49
 2341 001f 13       		.uleb128 0x13
 2342 0020 38       		.uleb128 0x38
 2343 0021 05       		.uleb128 0x5
 2344 0022 00       		.byte	0
 2345 0023 00       		.byte	0
 2346 0024 03       		.uleb128 0x3
 2347 0025 05       		.uleb128 0x5
 2348 0026 00       		.byte	0
 2349 0027 31       		.uleb128 0x31
 2350 0028 13       		.uleb128 0x13
 2351 0029 02       		.uleb128 0x2
 2352 002a 17       		.uleb128 0x17
 2353 002b B742     		.uleb128 0x2137
 2354 002d 17       		.uleb128 0x17
 2355 002e 00       		.byte	0
 2356 002f 00       		.byte	0
 2357 0030 04       		.uleb128 0x4
 2358 0031 24       		.uleb128 0x24
 2359 0032 00       		.byte	0
 2360 0033 0B       		.uleb128 0xb
 2361 0034 0B       		.uleb128 0xb
 2362 0035 3E       		.uleb128 0x3e
 2363 0036 0B       		.uleb128 0xb
 2364 0037 03       		.uleb128 0x3
 2365 0038 0E       		.uleb128 0xe
 2366 0039 00       		.byte	0
 2367 003a 00       		.byte	0
 2368 003b 05       		.uleb128 0x5
 2369 003c 0D       		.uleb128 0xd
 2370 003d 00       		.byte	0
 2371 003e 03       		.uleb128 0x3
 2372 003f 08       		.uleb128 0x8
 2373 0040 3A       		.uleb128 0x3a
 2374 0041 21       		.uleb128 0x21
 2375 0042 05       		.sleb128 5
 2376 0043 3B       		.uleb128 0x3b
 2377 0044 05       		.uleb128 0x5
 2378 0045 39       		.uleb128 0x39
 2379 0046 0B       		.uleb128 0xb
 2380 0047 49       		.uleb128 0x49
 2381 0048 13       		.uleb128 0x13
 2382 0049 38       		.uleb128 0x38
 2383 004a 05       		.uleb128 0x5
 2384 004b 00       		.byte	0
 2385 004c 00       		.byte	0
 2386 004d 06       		.uleb128 0x6
 2387 004e 0D       		.uleb128 0xd
 2388 004f 00       		.byte	0
 2389 0050 03       		.uleb128 0x3
 2390 0051 08       		.uleb128 0x8
 2391 0052 3A       		.uleb128 0x3a
 2392 0053 21       		.uleb128 0x21
 2393 0054 05       		.sleb128 5
 2394 0055 3B       		.uleb128 0x3b
ARM GAS  C:\Users\DEVELO~1\AppData\Local\Temp\cc6jhEjd.s 			page 43


 2395 0056 05       		.uleb128 0x5
 2396 0057 39       		.uleb128 0x39
 2397 0058 0B       		.uleb128 0xb
 2398 0059 49       		.uleb128 0x49
 2399 005a 13       		.uleb128 0x13
 2400 005b 38       		.uleb128 0x38
 2401 005c 0B       		.uleb128 0xb
 2402 005d 00       		.byte	0
 2403 005e 00       		.byte	0
 2404 005f 07       		.uleb128 0x7
 2405 0060 05       		.uleb128 0x5
 2406 0061 00       		.byte	0
 2407 0062 03       		.uleb128 0x3
 2408 0063 0E       		.uleb128 0xe
 2409 0064 3A       		.uleb128 0x3a
 2410 0065 21       		.uleb128 0x21
 2411 0066 02       		.sleb128 2
 2412 0067 3B       		.uleb128 0x3b
 2413 0068 0B       		.uleb128 0xb
 2414 0069 39       		.uleb128 0x39
 2415 006a 0B       		.uleb128 0xb
 2416 006b 49       		.uleb128 0x49
 2417 006c 13       		.uleb128 0x13
 2418 006d 00       		.byte	0
 2419 006e 00       		.byte	0
 2420 006f 08       		.uleb128 0x8
 2421 0070 2E       		.uleb128 0x2e
 2422 0071 01       		.byte	0x1
 2423 0072 03       		.uleb128 0x3
 2424 0073 0E       		.uleb128 0xe
 2425 0074 3A       		.uleb128 0x3a
 2426 0075 21       		.uleb128 0x21
 2427 0076 02       		.sleb128 2
 2428 0077 3B       		.uleb128 0x3b
 2429 0078 0B       		.uleb128 0xb
 2430 0079 39       		.uleb128 0x39
 2431 007a 21       		.uleb128 0x21
 2432 007b 16       		.sleb128 22
 2433 007c 27       		.uleb128 0x27
 2434 007d 19       		.uleb128 0x19
 2435 007e 20       		.uleb128 0x20
 2436 007f 21       		.uleb128 0x21
 2437 0080 03       		.sleb128 3
 2438 0081 01       		.uleb128 0x1
 2439 0082 13       		.uleb128 0x13
 2440 0083 00       		.byte	0
 2441 0084 00       		.byte	0
 2442 0085 09       		.uleb128 0x9
 2443 0086 01       		.uleb128 0x1
 2444 0087 01       		.byte	0x1
 2445 0088 49       		.uleb128 0x49
 2446 0089 13       		.uleb128 0x13
 2447 008a 01       		.uleb128 0x1
 2448 008b 13       		.uleb128 0x13
 2449 008c 00       		.byte	0
 2450 008d 00       		.byte	0
 2451 008e 0A       		.uleb128 0xa
ARM GAS  C:\Users\DEVELO~1\AppData\Local\Temp\cc6jhEjd.s 			page 44


 2452 008f 21       		.uleb128 0x21
 2453 0090 00       		.byte	0
 2454 0091 49       		.uleb128 0x49
 2455 0092 13       		.uleb128 0x13
 2456 0093 2F       		.uleb128 0x2f
 2457 0094 0B       		.uleb128 0xb
 2458 0095 00       		.byte	0
 2459 0096 00       		.byte	0
 2460 0097 0B       		.uleb128 0xb
 2461 0098 1D       		.uleb128 0x1d
 2462 0099 01       		.byte	0x1
 2463 009a 31       		.uleb128 0x31
 2464 009b 13       		.uleb128 0x13
 2465 009c 52       		.uleb128 0x52
 2466 009d 01       		.uleb128 0x1
 2467 009e B842     		.uleb128 0x2138
 2468 00a0 0B       		.uleb128 0xb
 2469 00a1 55       		.uleb128 0x55
 2470 00a2 17       		.uleb128 0x17
 2471 00a3 58       		.uleb128 0x58
 2472 00a4 21       		.uleb128 0x21
 2473 00a5 01       		.sleb128 1
 2474 00a6 59       		.uleb128 0x59
 2475 00a7 0B       		.uleb128 0xb
 2476 00a8 57       		.uleb128 0x57
 2477 00a9 21       		.uleb128 0x21
 2478 00aa 03       		.sleb128 3
 2479 00ab 01       		.uleb128 0x1
 2480 00ac 13       		.uleb128 0x13
 2481 00ad 00       		.byte	0
 2482 00ae 00       		.byte	0
 2483 00af 0C       		.uleb128 0xc
 2484 00b0 1D       		.uleb128 0x1d
 2485 00b1 01       		.byte	0x1
 2486 00b2 31       		.uleb128 0x31
 2487 00b3 13       		.uleb128 0x13
 2488 00b4 52       		.uleb128 0x52
 2489 00b5 01       		.uleb128 0x1
 2490 00b6 B842     		.uleb128 0x2138
 2491 00b8 0B       		.uleb128 0xb
 2492 00b9 11       		.uleb128 0x11
 2493 00ba 01       		.uleb128 0x1
 2494 00bb 12       		.uleb128 0x12
 2495 00bc 06       		.uleb128 0x6
 2496 00bd 58       		.uleb128 0x58
 2497 00be 21       		.uleb128 0x21
 2498 00bf 01       		.sleb128 1
 2499 00c0 59       		.uleb128 0x59
 2500 00c1 0B       		.uleb128 0xb
 2501 00c2 57       		.uleb128 0x57
 2502 00c3 21       		.uleb128 0x21
 2503 00c4 03       		.sleb128 3
 2504 00c5 01       		.uleb128 0x1
 2505 00c6 13       		.uleb128 0x13
 2506 00c7 00       		.byte	0
 2507 00c8 00       		.byte	0
 2508 00c9 0D       		.uleb128 0xd
ARM GAS  C:\Users\DEVELO~1\AppData\Local\Temp\cc6jhEjd.s 			page 45


 2509 00ca 16       		.uleb128 0x16
 2510 00cb 00       		.byte	0
 2511 00cc 03       		.uleb128 0x3
 2512 00cd 0E       		.uleb128 0xe
 2513 00ce 3A       		.uleb128 0x3a
 2514 00cf 21       		.uleb128 0x21
 2515 00d0 05       		.sleb128 5
 2516 00d1 3B       		.uleb128 0x3b
 2517 00d2 05       		.uleb128 0x5
 2518 00d3 39       		.uleb128 0x39
 2519 00d4 21       		.uleb128 0x21
 2520 00d5 03       		.sleb128 3
 2521 00d6 49       		.uleb128 0x49
 2522 00d7 13       		.uleb128 0x13
 2523 00d8 00       		.byte	0
 2524 00d9 00       		.byte	0
 2525 00da 0E       		.uleb128 0xe
 2526 00db 13       		.uleb128 0x13
 2527 00dc 01       		.byte	0x1
 2528 00dd 0B       		.uleb128 0xb
 2529 00de 05       		.uleb128 0x5
 2530 00df 3A       		.uleb128 0x3a
 2531 00e0 21       		.uleb128 0x21
 2532 00e1 05       		.sleb128 5
 2533 00e2 3B       		.uleb128 0x3b
 2534 00e3 05       		.uleb128 0x5
 2535 00e4 39       		.uleb128 0x39
 2536 00e5 21       		.uleb128 0x21
 2537 00e6 09       		.sleb128 9
 2538 00e7 01       		.uleb128 0x1
 2539 00e8 13       		.uleb128 0x13
 2540 00e9 00       		.byte	0
 2541 00ea 00       		.byte	0
 2542 00eb 0F       		.uleb128 0xf
 2543 00ec 2E       		.uleb128 0x2e
 2544 00ed 00       		.byte	0
 2545 00ee 3F       		.uleb128 0x3f
 2546 00ef 19       		.uleb128 0x19
 2547 00f0 03       		.uleb128 0x3
 2548 00f1 0E       		.uleb128 0xe
 2549 00f2 3A       		.uleb128 0x3a
 2550 00f3 0B       		.uleb128 0xb
 2551 00f4 3B       		.uleb128 0x3b
 2552 00f5 05       		.uleb128 0x5
 2553 00f6 39       		.uleb128 0x39
 2554 00f7 21       		.uleb128 0x21
 2555 00f8 08       		.sleb128 8
 2556 00f9 27       		.uleb128 0x27
 2557 00fa 19       		.uleb128 0x19
 2558 00fb 3C       		.uleb128 0x3c
 2559 00fc 19       		.uleb128 0x19
 2560 00fd 00       		.byte	0
 2561 00fe 00       		.byte	0
 2562 00ff 10       		.uleb128 0x10
 2563 0100 34       		.uleb128 0x34
 2564 0101 00       		.byte	0
 2565 0102 03       		.uleb128 0x3
ARM GAS  C:\Users\DEVELO~1\AppData\Local\Temp\cc6jhEjd.s 			page 46


 2566 0103 0E       		.uleb128 0xe
 2567 0104 3A       		.uleb128 0x3a
 2568 0105 21       		.uleb128 0x21
 2569 0106 01       		.sleb128 1
 2570 0107 3B       		.uleb128 0x3b
 2571 0108 05       		.uleb128 0x5
 2572 0109 39       		.uleb128 0x39
 2573 010a 21       		.uleb128 0x21
 2574 010b 0E       		.sleb128 14
 2575 010c 49       		.uleb128 0x49
 2576 010d 13       		.uleb128 0x13
 2577 010e 02       		.uleb128 0x2
 2578 010f 17       		.uleb128 0x17
 2579 0110 B742     		.uleb128 0x2137
 2580 0112 17       		.uleb128 0x17
 2581 0113 00       		.byte	0
 2582 0114 00       		.byte	0
 2583 0115 11       		.uleb128 0x11
 2584 0116 16       		.uleb128 0x16
 2585 0117 00       		.byte	0
 2586 0118 03       		.uleb128 0x3
 2587 0119 0E       		.uleb128 0xe
 2588 011a 3A       		.uleb128 0x3a
 2589 011b 0B       		.uleb128 0xb
 2590 011c 3B       		.uleb128 0x3b
 2591 011d 0B       		.uleb128 0xb
 2592 011e 39       		.uleb128 0x39
 2593 011f 0B       		.uleb128 0xb
 2594 0120 49       		.uleb128 0x49
 2595 0121 13       		.uleb128 0x13
 2596 0122 00       		.byte	0
 2597 0123 00       		.byte	0
 2598 0124 12       		.uleb128 0x12
 2599 0125 35       		.uleb128 0x35
 2600 0126 00       		.byte	0
 2601 0127 49       		.uleb128 0x49
 2602 0128 13       		.uleb128 0x13
 2603 0129 00       		.byte	0
 2604 012a 00       		.byte	0
 2605 012b 13       		.uleb128 0x13
 2606 012c 2E       		.uleb128 0x2e
 2607 012d 01       		.byte	0x1
 2608 012e 3F       		.uleb128 0x3f
 2609 012f 19       		.uleb128 0x19
 2610 0130 03       		.uleb128 0x3
 2611 0131 0E       		.uleb128 0xe
 2612 0132 3A       		.uleb128 0x3a
 2613 0133 21       		.uleb128 0x21
 2614 0134 01       		.sleb128 1
 2615 0135 3B       		.uleb128 0x3b
 2616 0136 0B       		.uleb128 0xb
 2617 0137 39       		.uleb128 0x39
 2618 0138 21       		.uleb128 0x21
 2619 0139 06       		.sleb128 6
 2620 013a 27       		.uleb128 0x27
 2621 013b 19       		.uleb128 0x19
 2622 013c 11       		.uleb128 0x11
ARM GAS  C:\Users\DEVELO~1\AppData\Local\Temp\cc6jhEjd.s 			page 47


 2623 013d 01       		.uleb128 0x1
 2624 013e 12       		.uleb128 0x12
 2625 013f 06       		.uleb128 0x6
 2626 0140 40       		.uleb128 0x40
 2627 0141 18       		.uleb128 0x18
 2628 0142 7A       		.uleb128 0x7a
 2629 0143 19       		.uleb128 0x19
 2630 0144 01       		.uleb128 0x1
 2631 0145 13       		.uleb128 0x13
 2632 0146 00       		.byte	0
 2633 0147 00       		.byte	0
 2634 0148 14       		.uleb128 0x14
 2635 0149 48       		.uleb128 0x48
 2636 014a 00       		.byte	0
 2637 014b 7D       		.uleb128 0x7d
 2638 014c 01       		.uleb128 0x1
 2639 014d 7F       		.uleb128 0x7f
 2640 014e 13       		.uleb128 0x13
 2641 014f 00       		.byte	0
 2642 0150 00       		.byte	0
 2643 0151 15       		.uleb128 0x15
 2644 0152 2E       		.uleb128 0x2e
 2645 0153 00       		.byte	0
 2646 0154 03       		.uleb128 0x3
 2647 0155 0E       		.uleb128 0xe
 2648 0156 3A       		.uleb128 0x3a
 2649 0157 21       		.uleb128 0x21
 2650 0158 01       		.sleb128 1
 2651 0159 3B       		.uleb128 0x3b
 2652 015a 0B       		.uleb128 0xb
 2653 015b 39       		.uleb128 0x39
 2654 015c 21       		.uleb128 0x21
 2655 015d 14       		.sleb128 20
 2656 015e 27       		.uleb128 0x27
 2657 015f 19       		.uleb128 0x19
 2658 0160 20       		.uleb128 0x20
 2659 0161 21       		.uleb128 0x21
 2660 0162 03       		.sleb128 3
 2661 0163 00       		.byte	0
 2662 0164 00       		.byte	0
 2663 0165 16       		.uleb128 0x16
 2664 0166 2E       		.uleb128 0x2e
 2665 0167 01       		.byte	0x1
 2666 0168 03       		.uleb128 0x3
 2667 0169 0E       		.uleb128 0xe
 2668 016a 3A       		.uleb128 0x3a
 2669 016b 21       		.uleb128 0x21
 2670 016c 02       		.sleb128 2
 2671 016d 3B       		.uleb128 0x3b
 2672 016e 05       		.uleb128 0x5
 2673 016f 39       		.uleb128 0x39
 2674 0170 21       		.uleb128 0x21
 2675 0171 16       		.sleb128 22
 2676 0172 27       		.uleb128 0x27
 2677 0173 19       		.uleb128 0x19
 2678 0174 20       		.uleb128 0x20
 2679 0175 21       		.uleb128 0x21
ARM GAS  C:\Users\DEVELO~1\AppData\Local\Temp\cc6jhEjd.s 			page 48


 2680 0176 03       		.sleb128 3
 2681 0177 01       		.uleb128 0x1
 2682 0178 13       		.uleb128 0x13
 2683 0179 00       		.byte	0
 2684 017a 00       		.byte	0
 2685 017b 17       		.uleb128 0x17
 2686 017c 05       		.uleb128 0x5
 2687 017d 00       		.byte	0
 2688 017e 03       		.uleb128 0x3
 2689 017f 0E       		.uleb128 0xe
 2690 0180 3A       		.uleb128 0x3a
 2691 0181 21       		.uleb128 0x21
 2692 0182 02       		.sleb128 2
 2693 0183 3B       		.uleb128 0x3b
 2694 0184 05       		.uleb128 0x5
 2695 0185 39       		.uleb128 0x39
 2696 0186 21       		.uleb128 0x21
 2697 0187 2D       		.sleb128 45
 2698 0188 49       		.uleb128 0x49
 2699 0189 13       		.uleb128 0x13
 2700 018a 00       		.byte	0
 2701 018b 00       		.byte	0
 2702 018c 18       		.uleb128 0x18
 2703 018d 05       		.uleb128 0x5
 2704 018e 00       		.byte	0
 2705 018f 03       		.uleb128 0x3
 2706 0190 08       		.uleb128 0x8
 2707 0191 3A       		.uleb128 0x3a
 2708 0192 21       		.uleb128 0x21
 2709 0193 02       		.sleb128 2
 2710 0194 3B       		.uleb128 0x3b
 2711 0195 05       		.uleb128 0x5
 2712 0196 39       		.uleb128 0x39
 2713 0197 21       		.uleb128 0x21
 2714 0198 38       		.sleb128 56
 2715 0199 49       		.uleb128 0x49
 2716 019a 13       		.uleb128 0x13
 2717 019b 00       		.byte	0
 2718 019c 00       		.byte	0
 2719 019d 19       		.uleb128 0x19
 2720 019e 11       		.uleb128 0x11
 2721 019f 01       		.byte	0x1
 2722 01a0 25       		.uleb128 0x25
 2723 01a1 0E       		.uleb128 0xe
 2724 01a2 13       		.uleb128 0x13
 2725 01a3 0B       		.uleb128 0xb
 2726 01a4 03       		.uleb128 0x3
 2727 01a5 0E       		.uleb128 0xe
 2728 01a6 1B       		.uleb128 0x1b
 2729 01a7 0E       		.uleb128 0xe
 2730 01a8 55       		.uleb128 0x55
 2731 01a9 17       		.uleb128 0x17
 2732 01aa 11       		.uleb128 0x11
 2733 01ab 01       		.uleb128 0x1
 2734 01ac 10       		.uleb128 0x10
 2735 01ad 17       		.uleb128 0x17
 2736 01ae 00       		.byte	0
ARM GAS  C:\Users\DEVELO~1\AppData\Local\Temp\cc6jhEjd.s 			page 49


 2737 01af 00       		.byte	0
 2738 01b0 1A       		.uleb128 0x1a
 2739 01b1 24       		.uleb128 0x24
 2740 01b2 00       		.byte	0
 2741 01b3 0B       		.uleb128 0xb
 2742 01b4 0B       		.uleb128 0xb
 2743 01b5 3E       		.uleb128 0x3e
 2744 01b6 0B       		.uleb128 0xb
 2745 01b7 03       		.uleb128 0x3
 2746 01b8 08       		.uleb128 0x8
 2747 01b9 00       		.byte	0
 2748 01ba 00       		.byte	0
 2749 01bb 1B       		.uleb128 0x1b
 2750 01bc 34       		.uleb128 0x34
 2751 01bd 00       		.byte	0
 2752 01be 03       		.uleb128 0x3
 2753 01bf 0E       		.uleb128 0xe
 2754 01c0 3A       		.uleb128 0x3a
 2755 01c1 0B       		.uleb128 0xb
 2756 01c2 3B       		.uleb128 0x3b
 2757 01c3 0B       		.uleb128 0xb
 2758 01c4 39       		.uleb128 0x39
 2759 01c5 0B       		.uleb128 0xb
 2760 01c6 49       		.uleb128 0x49
 2761 01c7 13       		.uleb128 0x13
 2762 01c8 3F       		.uleb128 0x3f
 2763 01c9 19       		.uleb128 0x19
 2764 01ca 3C       		.uleb128 0x3c
 2765 01cb 19       		.uleb128 0x19
 2766 01cc 00       		.byte	0
 2767 01cd 00       		.byte	0
 2768 01ce 1C       		.uleb128 0x1c
 2769 01cf 13       		.uleb128 0x13
 2770 01d0 01       		.byte	0x1
 2771 01d1 0B       		.uleb128 0xb
 2772 01d2 0B       		.uleb128 0xb
 2773 01d3 3A       		.uleb128 0x3a
 2774 01d4 0B       		.uleb128 0xb
 2775 01d5 3B       		.uleb128 0x3b
 2776 01d6 05       		.uleb128 0x5
 2777 01d7 39       		.uleb128 0x39
 2778 01d8 0B       		.uleb128 0xb
 2779 01d9 01       		.uleb128 0x1
 2780 01da 13       		.uleb128 0x13
 2781 01db 00       		.byte	0
 2782 01dc 00       		.byte	0
 2783 01dd 1D       		.uleb128 0x1d
 2784 01de 34       		.uleb128 0x34
 2785 01df 00       		.byte	0
 2786 01e0 47       		.uleb128 0x47
 2787 01e1 13       		.uleb128 0x13
 2788 01e2 3A       		.uleb128 0x3a
 2789 01e3 0B       		.uleb128 0xb
 2790 01e4 3B       		.uleb128 0x3b
 2791 01e5 0B       		.uleb128 0xb
 2792 01e6 39       		.uleb128 0x39
 2793 01e7 0B       		.uleb128 0xb
ARM GAS  C:\Users\DEVELO~1\AppData\Local\Temp\cc6jhEjd.s 			page 50


 2794 01e8 02       		.uleb128 0x2
 2795 01e9 18       		.uleb128 0x18
 2796 01ea 00       		.byte	0
 2797 01eb 00       		.byte	0
 2798 01ec 1E       		.uleb128 0x1e
 2799 01ed 34       		.uleb128 0x34
 2800 01ee 00       		.byte	0
 2801 01ef 03       		.uleb128 0x3
 2802 01f0 0E       		.uleb128 0xe
 2803 01f1 3A       		.uleb128 0x3a
 2804 01f2 0B       		.uleb128 0xb
 2805 01f3 3B       		.uleb128 0x3b
 2806 01f4 0B       		.uleb128 0xb
 2807 01f5 39       		.uleb128 0x39
 2808 01f6 0B       		.uleb128 0xb
 2809 01f7 49       		.uleb128 0x49
 2810 01f8 13       		.uleb128 0x13
 2811 01f9 02       		.uleb128 0x2
 2812 01fa 17       		.uleb128 0x17
 2813 01fb B742     		.uleb128 0x2137
 2814 01fd 17       		.uleb128 0x17
 2815 01fe 00       		.byte	0
 2816 01ff 00       		.byte	0
 2817 0200 1F       		.uleb128 0x1f
 2818 0201 0B       		.uleb128 0xb
 2819 0202 01       		.byte	0x1
 2820 0203 11       		.uleb128 0x11
 2821 0204 01       		.uleb128 0x1
 2822 0205 12       		.uleb128 0x12
 2823 0206 06       		.uleb128 0x6
 2824 0207 01       		.uleb128 0x1
 2825 0208 13       		.uleb128 0x13
 2826 0209 00       		.byte	0
 2827 020a 00       		.byte	0
 2828 020b 20       		.uleb128 0x20
 2829 020c 1D       		.uleb128 0x1d
 2830 020d 00       		.byte	0
 2831 020e 31       		.uleb128 0x31
 2832 020f 13       		.uleb128 0x13
 2833 0210 52       		.uleb128 0x52
 2834 0211 01       		.uleb128 0x1
 2835 0212 B842     		.uleb128 0x2138
 2836 0214 0B       		.uleb128 0xb
 2837 0215 55       		.uleb128 0x55
 2838 0216 17       		.uleb128 0x17
 2839 0217 58       		.uleb128 0x58
 2840 0218 0B       		.uleb128 0xb
 2841 0219 59       		.uleb128 0x59
 2842 021a 0B       		.uleb128 0xb
 2843 021b 57       		.uleb128 0x57
 2844 021c 0B       		.uleb128 0xb
 2845 021d 00       		.byte	0
 2846 021e 00       		.byte	0
 2847 021f 21       		.uleb128 0x21
 2848 0220 1D       		.uleb128 0x1d
 2849 0221 00       		.byte	0
 2850 0222 31       		.uleb128 0x31
ARM GAS  C:\Users\DEVELO~1\AppData\Local\Temp\cc6jhEjd.s 			page 51


 2851 0223 13       		.uleb128 0x13
 2852 0224 52       		.uleb128 0x52
 2853 0225 01       		.uleb128 0x1
 2854 0226 B842     		.uleb128 0x2138
 2855 0228 0B       		.uleb128 0xb
 2856 0229 11       		.uleb128 0x11
 2857 022a 01       		.uleb128 0x1
 2858 022b 12       		.uleb128 0x12
 2859 022c 06       		.uleb128 0x6
 2860 022d 58       		.uleb128 0x58
 2861 022e 0B       		.uleb128 0xb
 2862 022f 59       		.uleb128 0x59
 2863 0230 0B       		.uleb128 0xb
 2864 0231 57       		.uleb128 0x57
 2865 0232 0B       		.uleb128 0xb
 2866 0233 00       		.byte	0
 2867 0234 00       		.byte	0
 2868 0235 22       		.uleb128 0x22
 2869 0236 1D       		.uleb128 0x1d
 2870 0237 01       		.byte	0x1
 2871 0238 31       		.uleb128 0x31
 2872 0239 13       		.uleb128 0x13
 2873 023a 52       		.uleb128 0x52
 2874 023b 01       		.uleb128 0x1
 2875 023c B842     		.uleb128 0x2138
 2876 023e 0B       		.uleb128 0xb
 2877 023f 55       		.uleb128 0x55
 2878 0240 17       		.uleb128 0x17
 2879 0241 58       		.uleb128 0x58
 2880 0242 0B       		.uleb128 0xb
 2881 0243 59       		.uleb128 0x59
 2882 0244 05       		.uleb128 0x5
 2883 0245 57       		.uleb128 0x57
 2884 0246 0B       		.uleb128 0xb
 2885 0247 01       		.uleb128 0x1
 2886 0248 13       		.uleb128 0x13
 2887 0249 00       		.byte	0
 2888 024a 00       		.byte	0
 2889 024b 23       		.uleb128 0x23
 2890 024c 1D       		.uleb128 0x1d
 2891 024d 01       		.byte	0x1
 2892 024e 31       		.uleb128 0x31
 2893 024f 13       		.uleb128 0x13
 2894 0250 52       		.uleb128 0x52
 2895 0251 01       		.uleb128 0x1
 2896 0252 B842     		.uleb128 0x2138
 2897 0254 0B       		.uleb128 0xb
 2898 0255 11       		.uleb128 0x11
 2899 0256 01       		.uleb128 0x1
 2900 0257 12       		.uleb128 0x12
 2901 0258 06       		.uleb128 0x6
 2902 0259 58       		.uleb128 0x58
 2903 025a 0B       		.uleb128 0xb
 2904 025b 59       		.uleb128 0x59
 2905 025c 05       		.uleb128 0x5
 2906 025d 57       		.uleb128 0x57
 2907 025e 0B       		.uleb128 0xb
ARM GAS  C:\Users\DEVELO~1\AppData\Local\Temp\cc6jhEjd.s 			page 52


 2908 025f 01       		.uleb128 0x1
 2909 0260 13       		.uleb128 0x13
 2910 0261 00       		.byte	0
 2911 0262 00       		.byte	0
 2912 0263 24       		.uleb128 0x24
 2913 0264 1D       		.uleb128 0x1d
 2914 0265 01       		.byte	0x1
 2915 0266 31       		.uleb128 0x31
 2916 0267 13       		.uleb128 0x13
 2917 0268 52       		.uleb128 0x52
 2918 0269 01       		.uleb128 0x1
 2919 026a B842     		.uleb128 0x2138
 2920 026c 0B       		.uleb128 0xb
 2921 026d 11       		.uleb128 0x11
 2922 026e 01       		.uleb128 0x1
 2923 026f 12       		.uleb128 0x12
 2924 0270 06       		.uleb128 0x6
 2925 0271 58       		.uleb128 0x58
 2926 0272 0B       		.uleb128 0xb
 2927 0273 59       		.uleb128 0x59
 2928 0274 05       		.uleb128 0x5
 2929 0275 57       		.uleb128 0x57
 2930 0276 0B       		.uleb128 0xb
 2931 0277 00       		.byte	0
 2932 0278 00       		.byte	0
 2933 0279 25       		.uleb128 0x25
 2934 027a 48       		.uleb128 0x48
 2935 027b 00       		.byte	0
 2936 027c 7D       		.uleb128 0x7d
 2937 027d 01       		.uleb128 0x1
 2938 027e 8201     		.uleb128 0x82
 2939 0280 19       		.uleb128 0x19
 2940 0281 7F       		.uleb128 0x7f
 2941 0282 13       		.uleb128 0x13
 2942 0283 00       		.byte	0
 2943 0284 00       		.byte	0
 2944 0285 26       		.uleb128 0x26
 2945 0286 2E       		.uleb128 0x2e
 2946 0287 01       		.byte	0x1
 2947 0288 03       		.uleb128 0x3
 2948 0289 0E       		.uleb128 0xe
 2949 028a 3A       		.uleb128 0x3a
 2950 028b 0B       		.uleb128 0xb
 2951 028c 3B       		.uleb128 0x3b
 2952 028d 0B       		.uleb128 0xb
 2953 028e 39       		.uleb128 0x39
 2954 028f 0B       		.uleb128 0xb
 2955 0290 27       		.uleb128 0x27
 2956 0291 19       		.uleb128 0x19
 2957 0292 20       		.uleb128 0x20
 2958 0293 0B       		.uleb128 0xb
 2959 0294 00       		.byte	0
 2960 0295 00       		.byte	0
 2961 0296 00       		.byte	0
 2962              		.section	.debug_loclists,"",%progbits
 2963 0000 E9010000 		.4byte	.Ldebug_loc3-.Ldebug_loc2
 2964              	.Ldebug_loc2:
ARM GAS  C:\Users\DEVELO~1\AppData\Local\Temp\cc6jhEjd.s 			page 53


 2965 0004 0500     		.2byte	0x5
 2966 0006 04       		.byte	0x4
 2967 0007 00       		.byte	0
 2968 0008 00000000 		.4byte	0
 2969              	.Ldebug_loc0:
 2970              	.LVUS13:
 2971 000c 01       		.uleb128 .LVU179
 2972 000d 03       		.uleb128 .LVU181
 2973 000e 03       		.uleb128 .LVU181
 2974 000f 00       		.uleb128 0
 2975              	.LLST13:
 2976 0010 06       		.byte	0x6
 2977 0011 A0000000 		.4byte	.LVL15
 2978 0015 04       		.byte	0x4
 2979 0016 00       		.uleb128 .LVL15-.LVL15
 2980 0017 00       		.uleb128 .LVL15-.LVL15
 2981 0018 06       		.uleb128 0x6
 2982 0019 0C       		.byte	0xc
 2983 001a 00081008 		.4byte	0x8100800
 2984 001e 9F       		.byte	0x9f
 2985 001f 04       		.byte	0x4
 2986 0020 00       		.uleb128 .LVL15-.LVL15
 2987 0021 D002     		.uleb128 .LFE451-.LVL15
 2988 0023 06       		.uleb128 0x6
 2989 0024 0C       		.byte	0xc
 2990 0025 00881008 		.4byte	0x8108800
 2991 0029 9F       		.byte	0x9f
 2992 002a 00       		.byte	0
 2993              	.LVUS18:
 2994 002b 01       		.uleb128 .LVU216
 2995 002c 01       		.uleb128 .LVU230
 2996 002d 01       		.uleb128 .LVU230
 2997 002e 01       		.uleb128 .LVU242
 2998 002f 01       		.uleb128 .LVU242
 2999 0030 01       		.uleb128 .LVU251
 3000 0031 01       		.uleb128 .LVU251
 3001 0032 00       		.uleb128 0
 3002              	.LLST18:
 3003 0033 06       		.byte	0x6
 3004 0034 E2000000 		.4byte	.LVL16
 3005 0038 04       		.byte	0x4
 3006 0039 00       		.uleb128 .LVL16-.LVL16
 3007 003a 10       		.uleb128 .LVL18-.LVL16
 3008 003b 02       		.uleb128 0x2
 3009 003c 30       		.byte	0x30
 3010 003d 9F       		.byte	0x9f
 3011 003e 04       		.byte	0x4
 3012 003f 10       		.uleb128 .LVL18-.LVL16
 3013 0040 1E       		.uleb128 .LVL19-.LVL16
 3014 0041 04       		.uleb128 0x4
 3015 0042 40       		.byte	0x40
 3016 0043 44       		.byte	0x44
 3017 0044 24       		.byte	0x24
 3018 0045 9F       		.byte	0x9f
 3019 0046 04       		.byte	0x4
 3020 0047 1E       		.uleb128 .LVL19-.LVL16
 3021 0048 22       		.uleb128 .LVL20-.LVL16
ARM GAS  C:\Users\DEVELO~1\AppData\Local\Temp\cc6jhEjd.s 			page 54


 3022 0049 04       		.uleb128 0x4
 3023 004a 44       		.byte	0x44
 3024 004b 46       		.byte	0x46
 3025 004c 24       		.byte	0x24
 3026 004d 9F       		.byte	0x9f
 3027 004e 04       		.byte	0x4
 3028 004f 22       		.uleb128 .LVL20-.LVL16
 3029 0050 8E02     		.uleb128 .LFE451-.LVL16
 3030 0052 04       		.uleb128 0x4
 3031 0053 45       		.byte	0x45
 3032 0054 48       		.byte	0x48
 3033 0055 24       		.byte	0x24
 3034 0056 9F       		.byte	0x9f
 3035 0057 00       		.byte	0
 3036              	.LVUS19:
 3037 0058 02       		.uleb128 .LVU217
 3038 0059 02       		.uleb128 .LVU231
 3039 005a 02       		.uleb128 .LVU231
 3040 005b 02       		.uleb128 .LVU243
 3041 005c 02       		.uleb128 .LVU243
 3042 005d 02       		.uleb128 .LVU252
 3043 005e 02       		.uleb128 .LVU252
 3044 005f 00       		.uleb128 0
 3045              	.LLST19:
 3046 0060 06       		.byte	0x6
 3047 0061 E2000000 		.4byte	.LVL16
 3048 0065 04       		.byte	0x4
 3049 0066 00       		.uleb128 .LVL16-.LVL16
 3050 0067 10       		.uleb128 .LVL18-.LVL16
 3051 0068 02       		.uleb128 0x2
 3052 0069 30       		.byte	0x30
 3053 006a 9F       		.byte	0x9f
 3054 006b 04       		.byte	0x4
 3055 006c 10       		.uleb128 .LVL18-.LVL16
 3056 006d 1E       		.uleb128 .LVL19-.LVL16
 3057 006e 04       		.uleb128 0x4
 3058 006f 40       		.byte	0x40
 3059 0070 45       		.byte	0x45
 3060 0071 24       		.byte	0x24
 3061 0072 9F       		.byte	0x9f
 3062 0073 04       		.byte	0x4
 3063 0074 1E       		.uleb128 .LVL19-.LVL16
 3064 0075 22       		.uleb128 .LVL20-.LVL16
 3065 0076 04       		.uleb128 0x4
 3066 0077 44       		.byte	0x44
 3067 0078 47       		.byte	0x47
 3068 0079 24       		.byte	0x24
 3069 007a 9F       		.byte	0x9f
 3070 007b 04       		.byte	0x4
 3071 007c 22       		.uleb128 .LVL20-.LVL16
 3072 007d 8E02     		.uleb128 .LFE451-.LVL16
 3073 007f 04       		.uleb128 0x4
 3074 0080 45       		.byte	0x45
 3075 0081 49       		.byte	0x49
 3076 0082 24       		.byte	0x24
 3077 0083 9F       		.byte	0x9f
 3078 0084 00       		.byte	0
ARM GAS  C:\Users\DEVELO~1\AppData\Local\Temp\cc6jhEjd.s 			page 55


 3079              	.LVUS20:
 3080 0085 03       		.uleb128 .LVU218
 3081 0086 01       		.uleb128 .LVU224
 3082 0087 01       		.uleb128 .LVU224
 3083 0088 03       		.uleb128 .LVU232
 3084 0089 03       		.uleb128 .LVU232
 3085 008a 04       		.uleb128 .LVU233
 3086 008b 04       		.uleb128 .LVU233
 3087 008c 05       		.uleb128 .LVU234
 3088 008d 05       		.uleb128 .LVU234
 3089 008e 03       		.uleb128 .LVU244
 3090 008f 03       		.uleb128 .LVU244
 3091 0090 04       		.uleb128 .LVU245
 3092 0091 04       		.uleb128 .LVU245
 3093 0092 05       		.uleb128 .LVU246
 3094 0093 05       		.uleb128 .LVU246
 3095 0094 03       		.uleb128 .LVU253
 3096 0095 03       		.uleb128 .LVU253
 3097 0096 04       		.uleb128 .LVU254
 3098 0097 04       		.uleb128 .LVU254
 3099 0098 05       		.uleb128 .LVU255
 3100 0099 05       		.uleb128 .LVU255
 3101 009a 00       		.uleb128 0
 3102              	.LLST20:
 3103 009b 06       		.byte	0x6
 3104 009c E2000000 		.4byte	.LVL16
 3105 00a0 04       		.byte	0x4
 3106 00a1 00       		.uleb128 .LVL16-.LVL16
 3107 00a2 08       		.uleb128 .LVL17-.LVL16
 3108 00a3 02       		.uleb128 0x2
 3109 00a4 30       		.byte	0x30
 3110 00a5 9F       		.byte	0x9f
 3111 00a6 04       		.byte	0x4
 3112 00a7 08       		.uleb128 .LVL17-.LVL16
 3113 00a8 10       		.uleb128 .LVL18-.LVL16
 3114 00a9 04       		.uleb128 0x4
 3115 00aa 0A       		.byte	0xa
 3116 00ab 9B0B     		.2byte	0xb9b
 3117 00ad 9F       		.byte	0x9f
 3118 00ae 04       		.byte	0x4
 3119 00af 10       		.uleb128 .LVL18-.LVL16
 3120 00b0 10       		.uleb128 .LVL18-.LVL16
 3121 00b1 06       		.uleb128 0x6
 3122 00b2 0C       		.byte	0xc
 3123 00b3 9B0B0100 		.4byte	0x10b9b
 3124 00b7 9F       		.byte	0x9f
 3125 00b8 04       		.byte	0x4
 3126 00b9 10       		.uleb128 .LVL18-.LVL16
 3127 00ba 10       		.uleb128 .LVL18-.LVL16
 3128 00bb 06       		.uleb128 0x6
 3129 00bc 0C       		.byte	0xc
 3130 00bd 9B0B0300 		.4byte	0x30b9b
 3131 00c1 9F       		.byte	0x9f
 3132 00c2 04       		.byte	0x4
 3133 00c3 10       		.uleb128 .LVL18-.LVL16
 3134 00c4 1E       		.uleb128 .LVL19-.LVL16
 3135 00c5 06       		.uleb128 0x6
ARM GAS  C:\Users\DEVELO~1\AppData\Local\Temp\cc6jhEjd.s 			page 56


 3136 00c6 0C       		.byte	0xc
 3137 00c7 9B0B0700 		.4byte	0x70b9b
 3138 00cb 9F       		.byte	0x9f
 3139 00cc 04       		.byte	0x4
 3140 00cd 1E       		.uleb128 .LVL19-.LVL16
 3141 00ce 1E       		.uleb128 .LVL19-.LVL16
 3142 00cf 06       		.uleb128 0x6
 3143 00d0 0C       		.byte	0xc
 3144 00d1 9B0B0F00 		.4byte	0xf0b9b
 3145 00d5 9F       		.byte	0x9f
 3146 00d6 04       		.byte	0x4
 3147 00d7 1E       		.uleb128 .LVL19-.LVL16
 3148 00d8 1E       		.uleb128 .LVL19-.LVL16
 3149 00d9 06       		.uleb128 0x6
 3150 00da 0C       		.byte	0xc
 3151 00db 9B0B1F00 		.4byte	0x1f0b9b
 3152 00df 9F       		.byte	0x9f
 3153 00e0 04       		.byte	0x4
 3154 00e1 1E       		.uleb128 .LVL19-.LVL16
 3155 00e2 22       		.uleb128 .LVL20-.LVL16
 3156 00e3 06       		.uleb128 0x6
 3157 00e4 0C       		.byte	0xc
 3158 00e5 9B0B3F00 		.4byte	0x3f0b9b
 3159 00e9 9F       		.byte	0x9f
 3160 00ea 04       		.byte	0x4
 3161 00eb 22       		.uleb128 .LVL20-.LVL16
 3162 00ec 22       		.uleb128 .LVL20-.LVL16
 3163 00ed 06       		.uleb128 0x6
 3164 00ee 0C       		.byte	0xc
 3165 00ef 9B0B7F00 		.4byte	0x7f0b9b
 3166 00f3 9F       		.byte	0x9f
 3167 00f4 04       		.byte	0x4
 3168 00f5 22       		.uleb128 .LVL20-.LVL16
 3169 00f6 22       		.uleb128 .LVL20-.LVL16
 3170 00f7 06       		.uleb128 0x6
 3171 00f8 0C       		.byte	0xc
 3172 00f9 9B0BFF00 		.4byte	0xff0b9b
 3173 00fd 9F       		.byte	0x9f
 3174 00fe 04       		.byte	0x4
 3175 00ff 22       		.uleb128 .LVL20-.LVL16
 3176 0100 8E02     		.uleb128 .LFE451-.LVL16
 3177 0102 06       		.uleb128 0x6
 3178 0103 0C       		.byte	0xc
 3179 0104 9B0BFF01 		.4byte	0x1ff0b9b
 3180 0108 9F       		.byte	0x9f
 3181 0109 00       		.byte	0
 3182              	.LVUS15:
 3183 010a 03       		.uleb128 .LVU90
 3184 010b 00       		.uleb128 .LVU101
 3185              	.LLST15:
 3186 010c 08       		.byte	0x8
 3187 010d 00000000 		.4byte	.LVL13
 3188 0111 20       		.uleb128 .LVL14-.LVL13
 3189 0112 02       		.uleb128 0x2
 3190 0113 31       		.byte	0x31
 3191 0114 9F       		.byte	0x9f
 3192 0115 00       		.byte	0
ARM GAS  C:\Users\DEVELO~1\AppData\Local\Temp\cc6jhEjd.s 			page 57


 3193              	.LVUS16:
 3194 0116 03       		.uleb128 .LVU90
 3195 0117 00       		.uleb128 .LVU101
 3196              	.LLST16:
 3197 0118 08       		.byte	0x8
 3198 0119 00000000 		.4byte	.LVL13
 3199 011d 20       		.uleb128 .LVL14-.LVL13
 3200 011e 02       		.uleb128 0x2
 3201 011f 32       		.byte	0x32
 3202 0120 9F       		.byte	0x9f
 3203 0121 00       		.byte	0
 3204              	.LVUS22:
 3205 0122 01       		.uleb128 .LVU305
 3206 0123 00       		.uleb128 .LVU314
 3207              	.LLST22:
 3208 0124 08       		.byte	0x8
 3209 0125 64010000 		.4byte	.LVL21
 3210 0129 20       		.uleb128 .LVL22-.LVL21
 3211 012a 02       		.uleb128 0x2
 3212 012b 31       		.byte	0x31
 3213 012c 9F       		.byte	0x9f
 3214 012d 00       		.byte	0
 3215              	.LVUS23:
 3216 012e 01       		.uleb128 .LVU305
 3217 012f 00       		.uleb128 .LVU314
 3218              	.LLST23:
 3219 0130 08       		.byte	0x8
 3220 0131 64010000 		.4byte	.LVL21
 3221 0135 20       		.uleb128 .LVL22-.LVL21
 3222 0136 04       		.uleb128 0x4
 3223 0137 40       		.byte	0x40
 3224 0138 49       		.byte	0x49
 3225 0139 24       		.byte	0x24
 3226 013a 9F       		.byte	0x9f
 3227 013b 00       		.byte	0
 3228              	.LVUS24:
 3229 013c 02       		.uleb128 .LVU316
 3230 013d 00       		.uleb128 .LVU323
 3231              	.LLST24:
 3232 013e 08       		.byte	0x8
 3233 013f 84010000 		.4byte	.LVL22
 3234 0143 1C       		.uleb128 .LVL23-.LVL22
 3235 0144 02       		.uleb128 0x2
 3236 0145 31       		.byte	0x31
 3237 0146 9F       		.byte	0x9f
 3238 0147 00       		.byte	0
 3239              	.LVUS25:
 3240 0148 02       		.uleb128 .LVU316
 3241 0149 00       		.uleb128 .LVU323
 3242              	.LLST25:
 3243 014a 08       		.byte	0x8
 3244 014b 84010000 		.4byte	.LVL22
 3245 014f 1C       		.uleb128 .LVL23-.LVL22
 3246 0150 04       		.uleb128 0x4
 3247 0151 40       		.byte	0x40
 3248 0152 4A       		.byte	0x4a
 3249 0153 24       		.byte	0x24
ARM GAS  C:\Users\DEVELO~1\AppData\Local\Temp\cc6jhEjd.s 			page 58


 3250 0154 9F       		.byte	0x9f
 3251 0155 00       		.byte	0
 3252              	.LVUS26:
 3253 0156 02       		.uleb128 .LVU325
 3254 0157 00       		.uleb128 .LVU332
 3255              	.LLST26:
 3256 0158 08       		.byte	0x8
 3257 0159 A0010000 		.4byte	.LVL23
 3258 015d 1C       		.uleb128 .LVL24-.LVL23
 3259 015e 02       		.uleb128 0x2
 3260 015f 31       		.byte	0x31
 3261 0160 9F       		.byte	0x9f
 3262 0161 00       		.byte	0
 3263              	.LVUS27:
 3264 0162 02       		.uleb128 .LVU325
 3265 0163 00       		.uleb128 .LVU332
 3266              	.LLST27:
 3267 0164 08       		.byte	0x8
 3268 0165 A0010000 		.4byte	.LVL23
 3269 0169 1C       		.uleb128 .LVL24-.LVL23
 3270 016a 05       		.uleb128 0x5
 3271 016b 40       		.byte	0x40
 3272 016c 4B       		.byte	0x4b
 3273 016d 24       		.byte	0x24
 3274 016e 1F       		.byte	0x1f
 3275 016f 9F       		.byte	0x9f
 3276 0170 00       		.byte	0
 3277              	.LVUS1:
 3278 0171 02       		.uleb128 .LVU2
 3279 0172 00       		.uleb128 .LVU15
 3280              	.LLST1:
 3281 0173 08       		.byte	0x8
 3282 0174 00000000 		.4byte	.LVL0
 3283 0178 2A       		.uleb128 .LVL1-.LVL0
 3284 0179 06       		.uleb128 0x6
 3285 017a 0C       		.byte	0xc
 3286 017b FFFFFF7F 		.4byte	0x7fffffff
 3287 017f 9F       		.byte	0x9f
 3288 0180 00       		.byte	0
 3289              	.LVUS3:
 3290 0181 02       		.uleb128 .LVU17
 3291 0182 00       		.uleb128 .LVU23
 3292              	.LLST3:
 3293 0183 08       		.byte	0x8
 3294 0184 2A000000 		.4byte	.LVL1
 3295 0188 14       		.uleb128 .LVL2-.LVL1
 3296 0189 03       		.uleb128 0x3
 3297 018a 09       		.byte	0x9
 3298 018b FF       		.byte	0xff
 3299 018c 9F       		.byte	0x9f
 3300 018d 00       		.byte	0
 3301              	.LVUS5:
 3302 018e 02       		.uleb128 .LVU25
 3303 018f 00       		.uleb128 .LVU33
 3304              	.LLST5:
 3305 0190 08       		.byte	0x8
 3306 0191 3E000000 		.4byte	.LVL2
ARM GAS  C:\Users\DEVELO~1\AppData\Local\Temp\cc6jhEjd.s 			page 59


 3307 0195 10       		.uleb128 .LVL3-.LVL2
 3308 0196 06       		.uleb128 0x6
 3309 0197 0C       		.byte	0xc
 3310 0198 FFEFFF7F 		.4byte	0x7fffefff
 3311 019c 9F       		.byte	0x9f
 3312 019d 00       		.byte	0
 3313              	.LVUS7:
 3314 019e 02       		.uleb128 .LVU35
 3315 019f 00       		.uleb128 .LVU41
 3316              	.LLST7:
 3317 01a0 08       		.byte	0x8
 3318 01a1 4E000000 		.4byte	.LVL3
 3319 01a5 1A       		.uleb128 .LVL4-.LVL3
 3320 01a6 04       		.uleb128 0x4
 3321 01a7 0B       		.byte	0xb
 3322 01a8 00F8     		.2byte	0xf800
 3323 01aa 9F       		.byte	0x9f
 3324 01ab 00       		.byte	0
 3325              	.LVUS8:
 3326 01ac 02       		.uleb128 .LVU43
 3327 01ad 00       		.uleb128 .LVU49
 3328              	.LLST8:
 3329 01ae 08       		.byte	0x8
 3330 01af 68000000 		.4byte	.LVL4
 3331 01b3 14       		.uleb128 .LVL5-.LVL4
 3332 01b4 03       		.uleb128 0x3
 3333 01b5 09       		.byte	0x9
 3334 01b6 FF       		.byte	0xff
 3335 01b7 9F       		.byte	0x9f
 3336 01b8 00       		.byte	0
 3337              	.LVUS9:
 3338 01b9 02       		.uleb128 .LVU51
 3339 01ba 00       		.uleb128 .LVU57
 3340              	.LLST9:
 3341 01bb 08       		.byte	0x8
 3342 01bc 7C000000 		.4byte	.LVL5
 3343 01c0 14       		.uleb128 .LVL6-.LVL5
 3344 01c1 03       		.uleb128 0x3
 3345 01c2 09       		.byte	0x9
 3346 01c3 FF       		.byte	0xff
 3347 01c4 9F       		.byte	0x9f
 3348 01c5 00       		.byte	0
 3349              	.LVUS10:
 3350 01c6 02       		.uleb128 .LVU59
 3351 01c7 00       		.uleb128 .LVU65
 3352              	.LLST10:
 3353 01c8 08       		.byte	0x8
 3354 01c9 90000000 		.4byte	.LVL6
 3355 01cd 14       		.uleb128 .LVL7-.LVL6
 3356 01ce 03       		.uleb128 0x3
 3357 01cf 09       		.byte	0x9
 3358 01d0 FF       		.byte	0xff
 3359 01d1 9F       		.byte	0x9f
 3360 01d2 00       		.byte	0
 3361              	.LVUS11:
 3362 01d3 02       		.uleb128 .LVU67
 3363 01d4 00       		.uleb128 .LVU73
ARM GAS  C:\Users\DEVELO~1\AppData\Local\Temp\cc6jhEjd.s 			page 60


 3364              	.LLST11:
 3365 01d5 08       		.byte	0x8
 3366 01d6 A4000000 		.4byte	.LVL7
 3367 01da 14       		.uleb128 .LVL8-.LVL7
 3368 01db 03       		.uleb128 0x3
 3369 01dc 09       		.byte	0x9
 3370 01dd FF       		.byte	0xff
 3371 01de 9F       		.byte	0x9f
 3372 01df 00       		.byte	0
 3373              	.LVUS12:
 3374 01e0 02       		.uleb128 .LVU75
 3375 01e1 00       		.uleb128 .LVU81
 3376              	.LLST12:
 3377 01e2 08       		.byte	0x8
 3378 01e3 B8000000 		.4byte	.LVL8
 3379 01e7 14       		.uleb128 .LVL9-.LVL8
 3380 01e8 03       		.uleb128 0x3
 3381 01e9 09       		.byte	0x9
 3382 01ea FF       		.byte	0xff
 3383 01eb 9F       		.byte	0x9f
 3384 01ec 00       		.byte	0
 3385              	.Ldebug_loc3:
 3386              		.section	.debug_aranges,"",%progbits
 3387 0000 24000000 		.4byte	0x24
 3388 0004 0200     		.2byte	0x2
 3389 0006 00000000 		.4byte	.Ldebug_info0
 3390 000a 04       		.byte	0x4
 3391 000b 00       		.byte	0
 3392 000c 0000     		.2byte	0
 3393 000e 0000     		.2byte	0
 3394 0010 00000000 		.4byte	.LFB450
 3395 0014 EC000000 		.4byte	.LFE450-.LFB450
 3396 0018 00000000 		.4byte	.LFB451
 3397 001c F0010000 		.4byte	.LFE451-.LFB451
 3398 0020 00000000 		.4byte	0
 3399 0024 00000000 		.4byte	0
 3400              		.section	.debug_rnglists,"",%progbits
 3401              	.Ldebug_ranges0:
 3402 0000 7A000000 		.4byte	.Ldebug_ranges3-.Ldebug_ranges2
 3403              	.Ldebug_ranges2:
 3404 0004 0500     		.2byte	0x5
 3405 0006 04       		.byte	0x4
 3406 0007 00       		.byte	0
 3407 0008 00000000 		.4byte	0
 3408              	.LLRL0:
 3409 000c 05       		.byte	0x5
 3410 000d 00000000 		.4byte	.LBB29
 3411 0011 04       		.byte	0x4
 3412 0012 00       		.uleb128 .LBB29-.LBB29
 3413 0013 00       		.uleb128 .LBE29-.LBB29
 3414 0014 04       		.byte	0x4
 3415 0015 02       		.uleb128 .LBB34-.LBB29
 3416 0016 04       		.uleb128 .LBE34-.LBB29
 3417 0017 04       		.byte	0x4
 3418 0018 0C       		.uleb128 .LBB43-.LBB29
 3419 0019 10       		.uleb128 .LBE43-.LBB29
 3420 001a 04       		.byte	0x4
ARM GAS  C:\Users\DEVELO~1\AppData\Local\Temp\cc6jhEjd.s 			page 61


 3421 001b 12       		.uleb128 .LBB45-.LBB29
 3422 001c 2A       		.uleb128 .LBE45-.LBB29
 3423 001d 00       		.byte	0
 3424              	.LLRL2:
 3425 001e 05       		.byte	0x5
 3426 001f 04000000 		.4byte	.LBB35
 3427 0023 04       		.byte	0x4
 3428 0024 00       		.uleb128 .LBB35-.LBB35
 3429 0025 06       		.uleb128 .LBE35-.LBB35
 3430 0026 04       		.byte	0x4
 3431 0027 26       		.uleb128 .LBB46-.LBB35
 3432 0028 3A       		.uleb128 .LBE46-.LBB35
 3433 0029 00       		.byte	0
 3434              	.LLRL4:
 3435 002a 05       		.byte	0x5
 3436 002b 0A000000 		.4byte	.LBB38
 3437 002f 04       		.byte	0x4
 3438 0030 00       		.uleb128 .LBB38-.LBB38
 3439 0031 02       		.uleb128 .LBE38-.LBB38
 3440 0032 04       		.byte	0x4
 3441 0033 06       		.uleb128 .LBB44-.LBB38
 3442 0034 08       		.uleb128 .LBE44-.LBB38
 3443 0035 04       		.byte	0x4
 3444 0036 34       		.uleb128 .LBB47-.LBB38
 3445 0037 3C       		.uleb128 .LBE47-.LBB38
 3446 0038 04       		.byte	0x4
 3447 0039 3E       		.uleb128 .LBB51-.LBB38
 3448 003a 44       		.uleb128 .LBE51-.LBB38
 3449 003b 00       		.byte	0
 3450              	.LLRL6:
 3451 003c 05       		.byte	0x5
 3452 003d 46000000 		.4byte	.LBB48
 3453 0041 04       		.byte	0x4
 3454 0042 00       		.uleb128 .LBB48-.LBB48
 3455 0043 02       		.uleb128 .LBE48-.LBB48
 3456 0044 04       		.byte	0x4
 3457 0045 08       		.uleb128 .LBB52-.LBB48
 3458 0046 22       		.uleb128 .LBE52-.LBB48
 3459 0047 00       		.byte	0
 3460              	.LLRL14:
 3461 0048 05       		.byte	0x5
 3462 0049 00000000 		.4byte	.LBB76
 3463 004d 04       		.byte	0x4
 3464 004e 00       		.uleb128 .LBB76-.LBB76
 3465 004f 02       		.uleb128 .LBE76-.LBB76
 3466 0050 04       		.byte	0x4
 3467 0051 06       		.uleb128 .LBB83-.LBB76
 3468 0052 0C       		.uleb128 .LBE83-.LBB76
 3469 0053 04       		.byte	0x4
 3470 0054 0E       		.uleb128 .LBB84-.LBB76
 3471 0055 20       		.uleb128 .LBE84-.LBB76
 3472 0056 00       		.byte	0
 3473              	.LLRL17:
 3474 0057 05       		.byte	0x5
 3475 0058 02000000 		.4byte	.LBB80
 3476 005c 04       		.byte	0x4
 3477 005d 00       		.uleb128 .LBB80-.LBB80
ARM GAS  C:\Users\DEVELO~1\AppData\Local\Temp\cc6jhEjd.s 			page 62


 3478 005e 04       		.uleb128 .LBE80-.LBB80
 3479 005f 04       		.byte	0x4
 3480 0060 1E       		.uleb128 .LBB85-.LBB80
 3481 0061 48       		.uleb128 .LBE85-.LBB80
 3482 0062 00       		.byte	0
 3483              	.LLRL21:
 3484 0063 05       		.byte	0x5
 3485 0064 64010000 		.4byte	.LBB89
 3486 0068 04       		.byte	0x4
 3487 0069 00       		.uleb128 .LBB89-.LBB89
 3488 006a 04       		.uleb128 .LBE89-.LBB89
 3489 006b 04       		.byte	0x4
 3490 006c 08       		.uleb128 .LBB92-.LBB89
 3491 006d 20       		.uleb128 .LBE92-.LBB89
 3492 006e 00       		.byte	0
 3493              	.LLRL28:
 3494 006f 07       		.byte	0x7
 3495 0070 00000000 		.4byte	.LFB450
 3496 0074 EC01     		.uleb128 .LFE450-.LFB450
 3497 0076 07       		.byte	0x7
 3498 0077 00000000 		.4byte	.LFB451
 3499 007b F003     		.uleb128 .LFE451-.LFB451
 3500 007d 00       		.byte	0
 3501              	.Ldebug_ranges3:
 3502              		.section	.debug_line,"",%progbits
 3503              	.Ldebug_line0:
 3504 0000 84070000 		.section	.debug_str,"MS",%progbits,1
 3504      0300E601 
 3504      00000201 
 3504      FB0E0D00 
 3504      01010101 
 3505              	.LASF143:
 3506 0000 68616C5F 		.ascii	"hal_lld_init\000"
 3506      6C6C645F 
 3506      696E6974 
 3506      00
 3507              	.LASF84:
 3508 000d 504C4C31 		.ascii	"PLL1DIVR\000"
 3508      44495652 
 3508      00
 3509              	.LASF159:
 3510 0016 433A5C43 		.ascii	"C:\\ChibiStudio\\ChibiOS-master\\demos\\STM32\\CUST"
 3510      68696269 
 3510      53747564 
 3510      696F5C43 
 3510      68696269 
 3511 0044 4F4D5F48 		.ascii	"OM_H743IIT6_maj\000"
 3511      37343349 
 3511      4954365F 
 3511      6D616A00 
 3512              	.LASF73:
 3513 0054 574B5550 		.ascii	"WKUPFR\000"
 3513      465200
 3514              	.LASF3:
 3515 005b 7369676E 		.ascii	"signed char\000"
 3515      65642063 
 3515      68617200 
ARM GAS  C:\Users\DEVELO~1\AppData\Local\Temp\cc6jhEjd.s 			page 63


 3516              	.LASF157:
 3517 0067 474E5520 		.ascii	"GNU C17 11.3.1 20220712 -mcpu=cortex-m7 -mthumb -mf"
 3517      43313720 
 3517      31312E33 
 3517      2E312032 
 3517      30323230 
 3518 009a 6C6F6174 		.ascii	"loat-abi=hard -mfpu=fpv5-d16 -march=armv7e-m+fp.dp "
 3518      2D616269 
 3518      3D686172 
 3518      64202D6D 
 3518      6670753D 
 3519 00cd 2D676764 		.ascii	"-ggdb -O2 -ffunction-sections -fdata-sections -fno-"
 3519      62202D4F 
 3519      32202D66 
 3519      66756E63 
 3519      74696F6E 
 3520 0100 636F6D6D 		.ascii	"common\000"
 3520      6F6E00
 3521              	.LASF128:
 3522 0107 41504231 		.ascii	"APB1HLPENR\000"
 3522      484C5045 
 3522      4E5200
 3523              	.LASF7:
 3524 0112 6C6F6E67 		.ascii	"long int\000"
 3524      20696E74 
 3524      00
 3525              	.LASF16:
 3526 011b 4F505443 		.ascii	"OPTCR\000"
 3526      5200
 3527              	.LASF21:
 3528 0121 50524152 		.ascii	"PRAR_PRG1\000"
 3528      5F505247 
 3528      3100
 3529              	.LASF40:
 3530 012b 50524152 		.ascii	"PRAR_PRG2\000"
 3530      5F505247 
 3530      3200
 3531              	.LASF158:
 3532 0135 2E2E2F2E 		.ascii	"../../../os/hal/ports/STM32/STM32H7xx/hal_lld.c\000"
 3532      2E2F2E2E 
 3532      2F6F732F 
 3532      68616C2F 
 3532      706F7274 
 3533              	.LASF155:
 3534 0165 5F5F7263 		.ascii	"__rccResetAPB2\000"
 3534      63526573 
 3534      65744150 
 3534      423200
 3535              	.LASF110:
 3536 0174 4433414D 		.ascii	"D3AMR\000"
 3536      5200
 3537              	.LASF153:
 3538 017a 5F5F7263 		.ascii	"__rccResetAPB4\000"
 3538      63526573 
 3538      65744150 
 3538      423400
 3539              	.LASF60:
ARM GAS  C:\Users\DEVELO~1\AppData\Local\Temp\cc6jhEjd.s 			page 64


 3540 0189 55523130 		.ascii	"UR10\000"
 3540      00
 3541              	.LASF123:
 3542 018e 41484231 		.ascii	"AHB1LPENR\000"
 3542      4C50454E 
 3542      5200
 3543              	.LASF94:
 3544 0198 43494552 		.ascii	"CIER\000"
 3544      00
 3545              	.LASF103:
 3546 019d 41484234 		.ascii	"AHB4RSTR\000"
 3546      52535452 
 3546      00
 3547              	.LASF55:
 3548 01a6 43434353 		.ascii	"CCCSR\000"
 3548      5200
 3549              	.LASF26:
 3550 01ac 424F4F54 		.ascii	"BOOT_CUR\000"
 3550      5F435552 
 3550      00
 3551              	.LASF72:
 3552 01b5 574B5550 		.ascii	"WKUPCR\000"
 3552      435200
 3553              	.LASF139:
 3554 01bc 6F6E6D61 		.ascii	"onmask\000"
 3554      736B00
 3555              	.LASF51:
 3556 01c3 464C4153 		.ascii	"FLASH_TypeDef\000"
 3556      485F5479 
 3556      70654465 
 3556      6600
 3557              	.LASF9:
 3558 01d1 6C6F6E67 		.ascii	"long long unsigned int\000"
 3558      206C6F6E 
 3558      6720756E 
 3558      7369676E 
 3558      65642069 
 3559              	.LASF126:
 3560 01e8 41504233 		.ascii	"APB3LPENR\000"
 3560      4C50454E 
 3560      5200
 3561              	.LASF19:
 3562 01f2 4F505443 		.ascii	"OPTCCR\000"
 3562      435200
 3563              	.LASF111:
 3564 01f9 52455345 		.ascii	"RESERVED11\000"
 3564      52564544 
 3564      313100
 3565              	.LASF121:
 3566 0204 52455345 		.ascii	"RESERVED12\000"
 3566      52564544 
 3566      313200
 3567              	.LASF131:
 3568 020f 52455345 		.ascii	"RESERVED13\000"
 3568      52564544 
 3568      313300
 3569              	.LASF49:
ARM GAS  C:\Users\DEVELO~1\AppData\Local\Temp\cc6jhEjd.s 			page 65


 3570 021a 43524344 		.ascii	"CRCDATA2\000"
 3570      41544132 
 3570      00
 3571              	.LASF85:
 3572 0223 504C4C31 		.ascii	"PLL1FRACR\000"
 3572      46524143 
 3572      5200
 3573              	.LASF107:
 3574 022d 41504232 		.ascii	"APB2RSTR\000"
 3574      52535452 
 3574      00
 3575              	.LASF145:
 3576 0236 696E6974 		.ascii	"init_bkp_domain\000"
 3576      5F626B70 
 3576      5F646F6D 
 3576      61696E00 
 3577              	.LASF32:
 3578 0246 43524344 		.ascii	"CRCDATA\000"
 3578      41544100 
 3579              	.LASF1:
 3580 024e 6C6F6E67 		.ascii	"long long int\000"
 3580      206C6F6E 
 3580      6720696E 
 3580      7400
 3581              	.LASF14:
 3582 025c 4F50544B 		.ascii	"OPTKEYR\000"
 3582      45595200 
 3583              	.LASF22:
 3584 0264 53434152 		.ascii	"SCAR_CUR1\000"
 3584      5F435552 
 3584      3100
 3585              	.LASF141:
 3586 026e 6366676D 		.ascii	"cfgmask\000"
 3586      61736B00 
 3587              	.LASF41:
 3588 0276 53434152 		.ascii	"SCAR_CUR2\000"
 3588      5F435552 
 3588      3200
 3589              	.LASF81:
 3590 0280 44334346 		.ascii	"D3CFGR\000"
 3590      475200
 3591              	.LASF83:
 3592 0287 504C4C43 		.ascii	"PLLCFGR\000"
 3592      46475200 
 3593              	.LASF77:
 3594 028f 43525243 		.ascii	"CRRCR\000"
 3594      5200
 3595              	.LASF95:
 3596 0295 43494652 		.ascii	"CIFR\000"
 3596      00
 3597              	.LASF56:
 3598 029a 43435652 		.ascii	"CCVR\000"
 3598      00
 3599              	.LASF88:
 3600 029f 504C4C33 		.ascii	"PLL3DIVR\000"
 3600      44495652 
 3600      00
ARM GAS  C:\Users\DEVELO~1\AppData\Local\Temp\cc6jhEjd.s 			page 66


 3601              	.LASF10:
 3602 02a8 5F5F7569 		.ascii	"__uint32_t\000"
 3602      6E743332 
 3602      5F7400
 3603              	.LASF146:
 3604 02b3 6D61736B 		.ascii	"mask\000"
 3604      00
 3605              	.LASF91:
 3606 02b8 44324343 		.ascii	"D2CCIP1R\000"
 3606      49503152 
 3606      00
 3607              	.LASF93:
 3608 02c1 44334343 		.ascii	"D3CCIPR\000"
 3608      49505200 
 3609              	.LASF58:
 3610 02c9 50575243 		.ascii	"PWRCR\000"
 3610      5200
 3611              	.LASF142:
 3612 02cf 73746D33 		.ascii	"stm32_clock_init\000"
 3612      325F636C 
 3612      6F636B5F 
 3612      696E6974 
 3612      00
 3613              	.LASF87:
 3614 02e0 504C4C32 		.ascii	"PLL2FRACR\000"
 3614      46524143 
 3614      5200
 3615              	.LASF0:
 3616 02ea 756E7369 		.ascii	"unsigned int\000"
 3616      676E6564 
 3616      20696E74 
 3616      00
 3617              	.LASF74:
 3618 02f7 574B5550 		.ascii	"WKUPEPR\000"
 3618      45505200 
 3619              	.LASF137:
 3620 02ff 53797374 		.ascii	"SystemCoreClock\000"
 3620      656D436F 
 3620      7265436C 
 3620      6F636B00 
 3621              	.LASF8:
 3622 030f 6C6F6E67 		.ascii	"long unsigned int\000"
 3622      20756E73 
 3622      69676E65 
 3622      6420696E 
 3622      7400
 3623              	.LASF70:
 3624 0321 43505543 		.ascii	"CPUCR\000"
 3624      5200
 3625              	.LASF132:
 3626 0327 5243435F 		.ascii	"RCC_TypeDef\000"
 3626      54797065 
 3626      44656600 
 3627              	.LASF27:
 3628 0333 424F4F54 		.ascii	"BOOT_PRG\000"
 3628      5F505247 
 3628      00
ARM GAS  C:\Users\DEVELO~1\AppData\Local\Temp\cc6jhEjd.s 			page 67


 3629              	.LASF6:
 3630 033c 73686F72 		.ascii	"short unsigned int\000"
 3630      7420756E 
 3630      7369676E 
 3630      65642069 
 3630      6E7400
 3631              	.LASF82:
 3632 034f 504C4C43 		.ascii	"PLLCKSELR\000"
 3632      4B53454C 
 3632      5200
 3633              	.LASF76:
 3634 0359 48534943 		.ascii	"HSICFGR\000"
 3634      46475200 
 3635              	.LASF100:
 3636 0361 41484233 		.ascii	"AHB3RSTR\000"
 3636      52535452 
 3636      00
 3637              	.LASF118:
 3638 036a 41504231 		.ascii	"APB1HENR\000"
 3638      48454E52 
 3638      00
 3639              	.LASF92:
 3640 0373 44324343 		.ascii	"D2CCIP2R\000"
 3640      49503252 
 3640      00
 3641              	.LASF20:
 3642 037c 50524152 		.ascii	"PRAR_CUR1\000"
 3642      5F435552 
 3642      3100
 3643              	.LASF39:
 3644 0386 50524152 		.ascii	"PRAR_CUR2\000"
 3644      5F435552 
 3644      3200
 3645              	.LASF105:
 3646 0390 41504231 		.ascii	"APB1LRSTR\000"
 3646      4C525354 
 3646      5200
 3647              	.LASF129:
 3648 039a 41504232 		.ascii	"APB2LPENR\000"
 3648      4C50454E 
 3648      5200
 3649              	.LASF89:
 3650 03a4 504C4C33 		.ascii	"PLL3FRACR\000"
 3650      46524143 
 3650      5200
 3651              	.LASF108:
 3652 03ae 41504234 		.ascii	"APB4RSTR\000"
 3652      52535452 
 3652      00
 3653              	.LASF75:
 3654 03b7 5057525F 		.ascii	"PWR_TypeDef\000"
 3654      54797065 
 3654      44656600 
 3655              	.LASF23:
 3656 03c3 53434152 		.ascii	"SCAR_PRG1\000"
 3656      5F505247 
 3656      3100
ARM GAS  C:\Users\DEVELO~1\AppData\Local\Temp\cc6jhEjd.s 			page 68


 3657              	.LASF42:
 3658 03cd 53434152 		.ascii	"SCAR_PRG2\000"
 3658      5F505247 
 3658      3200
 3659              	.LASF61:
 3660 03d7 55523131 		.ascii	"UR11\000"
 3660      00
 3661              	.LASF120:
 3662 03dc 41504234 		.ascii	"APB4ENR\000"
 3662      454E5200 
 3663              	.LASF148:
 3664 03e4 72636345 		.ascii	"rccEnableAPB4\000"
 3664      6E61626C 
 3664      65415042 
 3664      3400
 3665              	.LASF25:
 3666 03f2 5750534E 		.ascii	"WPSN_PRG1\000"
 3666      5F505247 
 3666      3100
 3667              	.LASF44:
 3668 03fc 5750534E 		.ascii	"WPSN_PRG2\000"
 3668      5F505247 
 3668      3200
 3669              	.LASF31:
 3670 0406 43524345 		.ascii	"CRCEADD1\000"
 3670      41444431 
 3670      00
 3671              	.LASF150:
 3672 040f 5F5F7263 		.ascii	"__rccResetAHB3\000"
 3672      63526573 
 3672      65744148 
 3672      423300
 3673              	.LASF149:
 3674 041e 5F5F7263 		.ascii	"__rccResetAHB4\000"
 3674      63526573 
 3674      65744148 
 3674      423400
 3675              	.LASF106:
 3676 042d 41504231 		.ascii	"APB1HRSTR\000"
 3676      48525354 
 3676      5200
 3677              	.LASF29:
 3678 0437 43524343 		.ascii	"CRCCR1\000"
 3678      523100
 3679              	.LASF46:
 3680 043e 43524343 		.ascii	"CRCCR2\000"
 3680      523200
 3681              	.LASF17:
 3682 0445 4F505453 		.ascii	"OPTSR_CUR\000"
 3682      525F4355 
 3682      5200
 3683              	.LASF152:
 3684 044f 5F5F7263 		.ascii	"__rccResetAHB1\000"
 3684      63526573 
 3684      65744148 
 3684      423100
 3685              	.LASF151:
ARM GAS  C:\Users\DEVELO~1\AppData\Local\Temp\cc6jhEjd.s 			page 69


 3686 045e 5F5F7263 		.ascii	"__rccResetAHB2\000"
 3686      63526573 
 3686      65744148 
 3686      423200
 3687              	.LASF124:
 3688 046d 41484232 		.ascii	"AHB2LPENR\000"
 3688      4C50454E 
 3688      5200
 3689              	.LASF140:
 3690 0477 7264796D 		.ascii	"rdymask\000"
 3690      61736B00 
 3691              	.LASF116:
 3692 047f 41504233 		.ascii	"APB3ENR\000"
 3692      454E5200 
 3693              	.LASF134:
 3694 0487 69727149 		.ascii	"irqInit\000"
 3694      6E697400 
 3695              	.LASF115:
 3696 048f 41484234 		.ascii	"AHB4ENR\000"
 3696      454E5200 
 3697              	.LASF59:
 3698 0497 504B4752 		.ascii	"PKGR\000"
 3698      00
 3699              	.LASF28:
 3700 049c 52455345 		.ascii	"RESERVED0\000"
 3700      52564544 
 3700      3000
 3701              	.LASF34:
 3702 04a6 52455345 		.ascii	"RESERVED1\000"
 3702      52564544 
 3702      3100
 3703              	.LASF36:
 3704 04b0 52455345 		.ascii	"RESERVED2\000"
 3704      52564544 
 3704      3200
 3705              	.LASF38:
 3706 04ba 52455345 		.ascii	"RESERVED3\000"
 3706      52564544 
 3706      3300
 3707              	.LASF80:
 3708 04c4 44324346 		.ascii	"D2CFGR\000"
 3708      475200
 3709              	.LASF97:
 3710 04cb 52455345 		.ascii	"RESERVED5\000"
 3710      52564544 
 3710      3500
 3711              	.LASF99:
 3712 04d5 52455345 		.ascii	"RESERVED6\000"
 3712      52564544 
 3712      3600
 3713              	.LASF109:
 3714 04df 52455345 		.ascii	"RESERVED8\000"
 3714      52564544 
 3714      3800
 3715              	.LASF133:
 3716 04e9 5F426F6F 		.ascii	"_Bool\000"
 3716      6C00
ARM GAS  C:\Users\DEVELO~1\AppData\Local\Temp\cc6jhEjd.s 			page 70


 3717              	.LASF68:
 3718 04ef 53595343 		.ascii	"SYSCFG_TypeDef\000"
 3718      46475F54 
 3718      79706544 
 3718      656600
 3719              	.LASF4:
 3720 04fe 756E7369 		.ascii	"unsigned char\000"
 3720      676E6564 
 3720      20636861 
 3720      7200
 3721              	.LASF5:
 3722 050c 73686F72 		.ascii	"short int\000"
 3722      7420696E 
 3722      7400
 3723              	.LASF122:
 3724 0516 41484233 		.ascii	"AHB3LPENR\000"
 3724      4C50454E 
 3724      5200
 3725              	.LASF130:
 3726 0520 41504234 		.ascii	"APB4LPENR\000"
 3726      4C50454E 
 3726      5200
 3727              	.LASF33:
 3728 052a 4543435F 		.ascii	"ECC_FA1\000"
 3728      46413100 
 3729              	.LASF50:
 3730 0532 4543435F 		.ascii	"ECC_FA2\000"
 3730      46413200 
 3731              	.LASF119:
 3732 053a 41504232 		.ascii	"APB2ENR\000"
 3732      454E5200 
 3733              	.LASF86:
 3734 0542 504C4C32 		.ascii	"PLL2DIVR\000"
 3734      44495652 
 3734      00
 3735              	.LASF112:
 3736 054b 41484233 		.ascii	"AHB3ENR\000"
 3736      454E5200 
 3737              	.LASF52:
 3738 0553 504D4352 		.ascii	"PMCR\000"
 3738      00
 3739              	.LASF154:
 3740 0558 5F5F7263 		.ascii	"__rccResetAPB3\000"
 3740      63526573 
 3740      65744150 
 3740      423300
 3741              	.LASF45:
 3742 0567 52455345 		.ascii	"RESERVED4\000"
 3742      52564544 
 3742      3400
 3743              	.LASF11:
 3744 0571 75696E74 		.ascii	"uint32_t\000"
 3744      33325F74 
 3744      00
 3745              	.LASF71:
 3746 057a 44334352 		.ascii	"D3CR\000"
 3746      00
ARM GAS  C:\Users\DEVELO~1\AppData\Local\Temp\cc6jhEjd.s 			page 71


 3747              	.LASF144:
 3748 057f 696E6974 		.ascii	"init_pwr\000"
 3748      5F707772 
 3748      00
 3749              	.LASF90:
 3750 0588 44314343 		.ascii	"D1CCIPR\000"
 3750      49505200 
 3751              	.LASF135:
 3752 0590 646D6149 		.ascii	"dmaInit\000"
 3752      6E697400 
 3753              	.LASF2:
 3754 0598 6C6F6E67 		.ascii	"long double\000"
 3754      20646F75 
 3754      626C6500 
 3755              	.LASF12:
 3756 05a4 63686172 		.ascii	"char\000"
 3756      00
 3757              	.LASF18:
 3758 05a9 4F505453 		.ascii	"OPTSR_PRG\000"
 3758      525F5052 
 3758      4700
 3759              	.LASF102:
 3760 05b3 41484232 		.ascii	"AHB2RSTR\000"
 3760      52535452 
 3760      00
 3761              	.LASF35:
 3762 05bc 4B455952 		.ascii	"KEYR2\000"
 3762      3200
 3763              	.LASF125:
 3764 05c2 41484234 		.ascii	"AHB4LPENR\000"
 3764      4C50454E 
 3764      5200
 3765              	.LASF13:
 3766 05cc 4B455952 		.ascii	"KEYR1\000"
 3766      3100
 3767              	.LASF98:
 3768 05d2 42444352 		.ascii	"BDCR\000"
 3768      00
 3769              	.LASF114:
 3770 05d7 41484232 		.ascii	"AHB2ENR\000"
 3770      454E5200 
 3771              	.LASF104:
 3772 05df 41504233 		.ascii	"APB3RSTR\000"
 3772      52535452 
 3772      00
 3773              	.LASF78:
 3774 05e8 43534943 		.ascii	"CSICFGR\000"
 3774      46475200 
 3775              	.LASF62:
 3776 05f0 55523132 		.ascii	"UR12\000"
 3776      00
 3777              	.LASF63:
 3778 05f5 55523133 		.ascii	"UR13\000"
 3778      00
 3779              	.LASF64:
 3780 05fa 55523134 		.ascii	"UR14\000"
 3780      00
ARM GAS  C:\Users\DEVELO~1\AppData\Local\Temp\cc6jhEjd.s 			page 72


 3781              	.LASF65:
 3782 05ff 55523135 		.ascii	"UR15\000"
 3782      00
 3783              	.LASF66:
 3784 0604 55523136 		.ascii	"UR16\000"
 3784      00
 3785              	.LASF67:
 3786 0609 55523137 		.ascii	"UR17\000"
 3786      00
 3787              	.LASF101:
 3788 060e 41484231 		.ascii	"AHB1RSTR\000"
 3788      52535452 
 3788      00
 3789              	.LASF24:
 3790 0617 5750534E 		.ascii	"WPSN_CUR1\000"
 3790      5F435552 
 3790      3100
 3791              	.LASF43:
 3792 0621 5750534E 		.ascii	"WPSN_CUR2\000"
 3792      5F435552 
 3792      3200
 3793              	.LASF127:
 3794 062b 41504231 		.ascii	"APB1LLPENR\000"
 3794      4C4C5045 
 3794      4E5200
 3795              	.LASF15:
 3796 0636 43435231 		.ascii	"CCR1\000"
 3796      00
 3797              	.LASF37:
 3798 063b 43435232 		.ascii	"CCR2\000"
 3798      00
 3799              	.LASF96:
 3800 0640 43494352 		.ascii	"CICR\000"
 3800      00
 3801              	.LASF156:
 3802 0645 5F5F7263 		.ascii	"__rccResetAPB1H\000"
 3802      63526573 
 3802      65744150 
 3802      42314800 
 3803              	.LASF160:
 3804 0655 5F5F7263 		.ascii	"__rccResetAPB1L\000"
 3804      63526573 
 3804      65744150 
 3804      42314C00 
 3805              	.LASF30:
 3806 0665 43524353 		.ascii	"CRCSADD1\000"
 3806      41444431 
 3806      00
 3807              	.LASF47:
 3808 066e 43524353 		.ascii	"CRCSADD2\000"
 3808      41444432 
 3808      00
 3809              	.LASF138:
 3810 0677 63666772 		.ascii	"cfgr\000"
 3810      00
 3811              	.LASF113:
 3812 067c 41484231 		.ascii	"AHB1ENR\000"
ARM GAS  C:\Users\DEVELO~1\AppData\Local\Temp\cc6jhEjd.s 			page 73


 3812      454E5200 
 3813              	.LASF54:
 3814 0684 43464752 		.ascii	"CFGR\000"
 3814      00
 3815              	.LASF48:
 3816 0689 43524345 		.ascii	"CRCEADD2\000"
 3816      41444432 
 3816      00
 3817              	.LASF57:
 3818 0692 43434352 		.ascii	"CCCR\000"
 3818      00
 3819              	.LASF117:
 3820 0697 41504231 		.ascii	"APB1LENR\000"
 3820      4C454E52 
 3820      00
 3821              	.LASF69:
 3822 06a0 43535231 		.ascii	"CSR1\000"
 3822      00
 3823              	.LASF147:
 3824 06a5 72636345 		.ascii	"rccEnableAHB2\000"
 3824      6E61626C 
 3824      65414842 
 3824      3200
 3825              	.LASF136:
 3826 06b3 62646D61 		.ascii	"bdmaInit\000"
 3826      496E6974 
 3826      00
 3827              	.LASF79:
 3828 06bc 44314346 		.ascii	"D1CFGR\000"
 3828      475200
 3829              	.LASF53:
 3830 06c3 45585449 		.ascii	"EXTICR\000"
 3830      435200
 3831              		.ident	"GCC: (Arm GNU Toolchain 11.3.Rel1) 11.3.1 20220712"
ARM GAS  C:\Users\DEVELO~1\AppData\Local\Temp\cc6jhEjd.s 			page 74


DEFINED SYMBOLS
                            *ABS*:00000000 hal_lld.c
C:\Users\DEVELO~1\AppData\Local\Temp\cc6jhEjd.s:19     .text.hal_lld_init:00000000 $t
C:\Users\DEVELO~1\AppData\Local\Temp\cc6jhEjd.s:26     .text.hal_lld_init:00000000 hal_lld_init
C:\Users\DEVELO~1\AppData\Local\Temp\cc6jhEjd.s:285    .text.hal_lld_init:000000dc $d
C:\Users\DEVELO~1\AppData\Local\Temp\cc6jhEjd.s:293    .text.stm32_clock_init:00000000 $t
C:\Users\DEVELO~1\AppData\Local\Temp\cc6jhEjd.s:300    .text.stm32_clock_init:00000000 stm32_clock_init
C:\Users\DEVELO~1\AppData\Local\Temp\cc6jhEjd.s:803    .text.stm32_clock_init:000001c0 $d
C:\Users\DEVELO~1\AppData\Local\Temp\cc6jhEjd.s:823    .data.SystemCoreClock:00000000 SystemCoreClock
C:\Users\DEVELO~1\AppData\Local\Temp\cc6jhEjd.s:820    .data.SystemCoreClock:00000000 $d

UNDEFINED SYMBOLS
bdmaInit
dmaInit
irqInit
