ARM GAS  C:\Users\DEVELO~1\AppData\Local\Temp\ccwOF1Wo.s 			page 1


   1              		.cpu cortex-m7
   2              		.arch armv7e-m
   3              		.fpu fpv5-d16
   4              		.eabi_attribute 28, 1
   5              		.eabi_attribute 20, 1
   6              		.eabi_attribute 21, 1
   7              		.eabi_attribute 23, 3
   8              		.eabi_attribute 24, 1
   9              		.eabi_attribute 25, 1
  10              		.eabi_attribute 26, 1
  11              		.eabi_attribute 30, 2
  12              		.eabi_attribute 34, 1
  13              		.eabi_attribute 18, 4
  14              		.file	"hal_pal.c"
  15              		.text
  16              	.Ltext0:
  17              		.cfi_sections	.debug_frame
  18              		.section	.text.palReadBus,"ax",%progbits
  19              		.align	1
  20              		.p2align 2,,3
  21              		.global	palReadBus
  22              		.syntax unified
  23              		.thumb
  24              		.thumb_func
  25              		.type	palReadBus, %function
  26              	palReadBus:
  27              	.LVL0:
  28              	.LFB448:
  29              		.file 1 "../../../os/hal/src/hal_pal.c"
  30              		.loc 1 65 43 view -0
  31              		.cfi_startproc
  32              		@ args = 0, pretend = 0, frame = 0
  33              		@ frame_needed = 0, uses_anonymous_args = 0
  34              		@ link register save eliminated.
  35              		.loc 1 67 3 view .LVU1
  36              		.loc 1 67 3 view .LVU2
  37              		.loc 1 67 3 view .LVU3
  38              		.loc 1 69 3 view .LVU4
  39              		.loc 1 69 10 is_stmt 0 view .LVU5
  40 0000 0368     		ldr	r3, [r0]
  41 0002 D0E90102 		ldrd	r0, r2, [r0, #4]
  42              	.LVL1:
  43              		.loc 1 69 10 view .LVU6
  44 0006 1B69     		ldr	r3, [r3, #16]
  45 0008 D340     		lsrs	r3, r3, r2
  46              		.loc 1 70 1 view .LVU7
  47 000a 1840     		ands	r0, r0, r3
  48 000c 7047     		bx	lr
  49              		.cfi_endproc
  50              	.LFE448:
  51              		.size	palReadBus, .-palReadBus
  52 000e 00BF     		.section	.text.palWriteBus,"ax",%progbits
  53              		.align	1
  54              		.p2align 2,,3
  55              		.global	palWriteBus
  56              		.syntax unified
  57              		.thumb
ARM GAS  C:\Users\DEVELO~1\AppData\Local\Temp\ccwOF1Wo.s 			page 2


  58              		.thumb_func
  59              		.type	palWriteBus, %function
  60              	palWriteBus:
  61              	.LVL2:
  62              	.LFB449:
  63              		.loc 1 90 55 is_stmt 1 view -0
  64              		.cfi_startproc
  65              		@ args = 0, pretend = 0, frame = 0
  66              		@ frame_needed = 0, uses_anonymous_args = 0
  67              		@ link register save eliminated.
  68              		.loc 1 92 3 view .LVU9
  69              		.loc 1 92 3 view .LVU10
  70              		.loc 1 92 3 view .LVU11
  71              	.LBB2:
  72              		.loc 1 94 3 view .LVU12
  73              	.LBE2:
  74              		.loc 1 90 55 is_stmt 0 view .LVU13
  75 0000 10B4     		push	{r4}
  76              		.cfi_def_cfa_offset 4
  77              		.cfi_offset 4, -4
  78              	.LBB3:
  79              		.loc 1 94 3 view .LVU14
  80 0002 D0E90142 		ldrd	r4, r2, [r0, #4]
  81 0006 0068     		ldr	r0, [r0]
  82              	.LVL3:
  83              		.loc 1 94 3 view .LVU15
  84 0008 24EA0103 		bic	r3, r4, r1
  85 000c 2140     		ands	r1, r1, r4
  86              	.LVL4:
  87              		.loc 1 94 3 view .LVU16
  88              	.LBE3:
  89              		.loc 1 95 1 view .LVU17
  90 000e 5DF8044B 		ldr	r4, [sp], #4
  91              		.cfi_restore 4
  92              		.cfi_def_cfa_offset 0
  93              	.LBB4:
  94              		.loc 1 94 3 view .LVU18
  95 0012 9140     		lsls	r1, r1, r2
  96 0014 1032     		adds	r2, r2, #16
  97 0016 9340     		lsls	r3, r3, r2
  98 0018 0B43     		orrs	r3, r3, r1
  99              	.LVL5:
 100              		.loc 1 94 3 is_stmt 1 view .LVU19
 101 001a 8361     		str	r3, [r0, #24]
 102              	.LBE4:
 103              		.loc 1 94 59 view .LVU20
 104              		.loc 1 95 1 is_stmt 0 view .LVU21
 105 001c 7047     		bx	lr
 106              		.cfi_endproc
 107              	.LFE449:
 108              		.size	palWriteBus, .-palWriteBus
 109 001e 00BF     		.section	.text.palSetBusMode,"ax",%progbits
 110              		.align	1
 111              		.p2align 2,,3
 112              		.global	palSetBusMode
 113              		.syntax unified
 114              		.thumb
ARM GAS  C:\Users\DEVELO~1\AppData\Local\Temp\ccwOF1Wo.s 			page 3


 115              		.thumb_func
 116              		.type	palSetBusMode, %function
 117              	palSetBusMode:
 118              	.LVL6:
 119              	.LFB450:
 120              		.loc 1 113 53 is_stmt 1 view -0
 121              		.cfi_startproc
 122              		@ args = 0, pretend = 0, frame = 0
 123              		@ frame_needed = 0, uses_anonymous_args = 0
 124              		@ link register save eliminated.
 125              		.loc 1 115 3 view .LVU23
 126              		.loc 1 115 3 view .LVU24
 127              		.loc 1 115 3 view .LVU25
 128              		.loc 1 117 3 view .LVU26
 129              		.loc 1 113 53 is_stmt 0 view .LVU27
 130 0000 0A46     		mov	r2, r1
 131              		.loc 1 117 3 view .LVU28
 132 0002 D0E90113 		ldrd	r1, r3, [r0, #4]
 133              	.LVL7:
 134              		.loc 1 117 3 view .LVU29
 135 0006 0068     		ldr	r0, [r0]
 136              	.LVL8:
 137              		.loc 1 117 3 view .LVU30
 138 0008 9940     		lsls	r1, r1, r3
 139 000a FFF7FEBF 		b	_pal_lld_setgroupmode
 140              	.LVL9:
 141              		.loc 1 117 3 view .LVU31
 142              		.cfi_endproc
 143              	.LFE450:
 144              		.size	palSetBusMode, .-palSetBusMode
 145 000e 00BF     		.text
 146              	.Letext0:
 147              		.file 2 "c:\\chibistudio\\tools\\gnu tools arm embedded\\11.3 2022.08\\arm-none-eabi\\include\\mac
 148              		.file 3 "c:\\chibistudio\\tools\\gnu tools arm embedded\\11.3 2022.08\\arm-none-eabi\\include\\sys
 149              		.file 4 "c:\\chibistudio\\tools\\gnu tools arm embedded\\11.3 2022.08\\arm-none-eabi\\include\\std
 150              		.file 5 "../../../os/hal/ports/STM32/LLD/GPIOv2/stm32_gpio.h"
 151              		.file 6 "../../../os/hal/ports/STM32/LLD/GPIOv2/hal_pal_lld.h"
 152              		.file 7 "../../../os/hal/include/hal_pal.h"
 153              		.section	.debug_info,"",%progbits
 154              	.Ldebug_info0:
 155 0000 4F030000 		.4byte	0x34f
 156 0004 0500     		.2byte	0x5
 157 0006 01       		.byte	0x1
 158 0007 04       		.byte	0x4
 159 0008 00000000 		.4byte	.Ldebug_abbrev0
 160 000c 11       		.uleb128 0x11
 161 000d 3D010000 		.4byte	.LASF39
 162 0011 1D       		.byte	0x1d
 163 0012 29020000 		.4byte	.LASF40
 164 0016 E9000000 		.4byte	.LASF41
 165 001a 1B000000 		.4byte	.LLRL7
 166 001e 00000000 		.4byte	0
 167 0022 00000000 		.4byte	.Ldebug_line0
 168 0026 12       		.uleb128 0x12
 169 0027 04       		.byte	0x4
 170 0028 05       		.byte	0x5
 171 0029 696E7400 		.ascii	"int\000"
ARM GAS  C:\Users\DEVELO~1\AppData\Local\Temp\ccwOF1Wo.s 			page 4


 172 002d 01       		.uleb128 0x1
 173 002e 04       		.byte	0x4
 174 002f 07       		.byte	0x7
 175 0030 DD010000 		.4byte	.LASF0
 176 0034 01       		.uleb128 0x1
 177 0035 08       		.byte	0x8
 178 0036 05       		.byte	0x5
 179 0037 00000000 		.4byte	.LASF1
 180 003b 01       		.uleb128 0x1
 181 003c 08       		.byte	0x8
 182 003d 04       		.byte	0x4
 183 003e 73020000 		.4byte	.LASF2
 184 0042 01       		.uleb128 0x1
 185 0043 01       		.byte	0x1
 186 0044 06       		.byte	0x6
 187 0045 7F020000 		.4byte	.LASF3
 188 0049 01       		.uleb128 0x1
 189 004a 01       		.byte	0x1
 190 004b 08       		.byte	0x8
 191 004c 96000000 		.4byte	.LASF4
 192 0050 01       		.uleb128 0x1
 193 0051 02       		.byte	0x2
 194 0052 05       		.byte	0x5
 195 0053 3A000000 		.4byte	.LASF5
 196 0057 03       		.uleb128 0x3
 197 0058 D3000000 		.4byte	.LASF8
 198 005c 02       		.byte	0x2
 199 005d 39       		.byte	0x39
 200 005e 19       		.byte	0x19
 201 005f 63000000 		.4byte	0x63
 202 0063 01       		.uleb128 0x1
 203 0064 02       		.byte	0x2
 204 0065 07       		.byte	0x7
 205 0066 BB000000 		.4byte	.LASF6
 206 006a 01       		.uleb128 0x1
 207 006b 04       		.byte	0x4
 208 006c 05       		.byte	0x5
 209 006d 6A020000 		.4byte	.LASF7
 210 0071 03       		.uleb128 0x3
 211 0072 DE000000 		.4byte	.LASF9
 212 0076 02       		.byte	0x2
 213 0077 4F       		.byte	0x4f
 214 0078 19       		.byte	0x19
 215 0079 7D000000 		.4byte	0x7d
 216 007d 01       		.uleb128 0x1
 217 007e 04       		.byte	0x4
 218 007f 07       		.byte	0x7
 219 0080 A9000000 		.4byte	.LASF10
 220 0084 01       		.uleb128 0x1
 221 0085 08       		.byte	0x8
 222 0086 07       		.byte	0x7
 223 0087 7F000000 		.4byte	.LASF11
 224 008b 03       		.uleb128 0x3
 225 008c 52020000 		.4byte	.LASF12
 226 0090 03       		.byte	0x3
 227 0091 24       		.byte	0x24
 228 0092 14       		.byte	0x14
ARM GAS  C:\Users\DEVELO~1\AppData\Local\Temp\ccwOF1Wo.s 			page 5


 229 0093 57000000 		.4byte	0x57
 230 0097 03       		.uleb128 0x3
 231 0098 61020000 		.4byte	.LASF13
 232 009c 03       		.byte	0x3
 233 009d 30       		.byte	0x30
 234 009e 14       		.byte	0x14
 235 009f 71000000 		.4byte	0x71
 236 00a3 0C       		.uleb128 0xc
 237 00a4 97000000 		.4byte	0x97
 238 00a8 03       		.uleb128 0x3
 239 00a9 1C000000 		.4byte	.LASF14
 240 00ad 04       		.byte	0x4
 241 00ae 34       		.byte	0x34
 242 00af 1F       		.byte	0x1f
 243 00b0 2D000000 		.4byte	0x2d
 244 00b4 01       		.uleb128 0x1
 245 00b5 01       		.byte	0x1
 246 00b6 08       		.byte	0x8
 247 00b7 EA010000 		.4byte	.LASF15
 248 00bb 04       		.uleb128 0x4
 249 00bc B4000000 		.4byte	0xb4
 250 00c0 01       		.uleb128 0x1
 251 00c1 01       		.byte	0x1
 252 00c2 02       		.byte	0x2
 253 00c3 8B020000 		.4byte	.LASF16
 254 00c7 05       		.uleb128 0x5
 255 00c8 04       		.byte	0x4
 256 00c9 05       		.byte	0x5
 257 00ca 5B       		.byte	0x5b
 258 00cb 05       		.byte	0x5
 259 00cc E9000000 		.4byte	0xe9
 260 00d0 06       		.uleb128 0x6
 261 00d1 73657400 		.ascii	"set\000"
 262 00d5 5C       		.byte	0x5c
 263 00d6 8B000000 		.4byte	0x8b
 264 00da 00       		.byte	0
 265 00db 02       		.uleb128 0x2
 266 00dc 5B020000 		.4byte	.LASF17
 267 00e0 05       		.byte	0x5
 268 00e1 5D       		.byte	0x5d
 269 00e2 19       		.byte	0x19
 270 00e3 8B000000 		.4byte	0x8b
 271 00e7 02       		.byte	0x2
 272 00e8 00       		.byte	0
 273 00e9 13       		.uleb128 0x13
 274 00ea 04       		.byte	0x4
 275 00eb 05       		.byte	0x5
 276 00ec 59       		.byte	0x59
 277 00ed 0C       		.byte	0xc
 278 00ee 05010000 		.4byte	0x105
 279 00f2 0D       		.uleb128 0xd
 280 00f3 5700     		.ascii	"W\000"
 281 00f5 5A       		.byte	0x5a
 282 00f6 19       		.byte	0x19
 283 00f7 97000000 		.4byte	0x97
 284 00fb 0D       		.uleb128 0xd
 285 00fc 4800     		.ascii	"H\000"
ARM GAS  C:\Users\DEVELO~1\AppData\Local\Temp\ccwOF1Wo.s 			page 6


 286 00fe 5E       		.byte	0x5e
 287 00ff 07       		.byte	0x7
 288 0100 C7000000 		.4byte	0xc7
 289 0104 00       		.byte	0
 290 0105 0C       		.uleb128 0xc
 291 0106 E9000000 		.4byte	0xe9
 292 010a 05       		.uleb128 0x5
 293 010b 28       		.byte	0x28
 294 010c 05       		.byte	0x5
 295 010d 51       		.byte	0x51
 296 010e 09       		.byte	0x9
 297 010f 92010000 		.4byte	0x192
 298 0113 02       		.uleb128 0x2
 299 0114 16000000 		.4byte	.LASF18
 300 0118 05       		.byte	0x5
 301 0119 53       		.byte	0x53
 302 011a 19       		.byte	0x19
 303 011b A3000000 		.4byte	0xa3
 304 011f 00       		.byte	0
 305 0120 02       		.uleb128 0x2
 306 0121 6F000000 		.4byte	.LASF19
 307 0125 05       		.byte	0x5
 308 0126 54       		.byte	0x54
 309 0127 19       		.byte	0x19
 310 0128 A3000000 		.4byte	0xa3
 311 012c 04       		.byte	0x4
 312 012d 02       		.uleb128 0x2
 313 012e 0E000000 		.4byte	.LASF20
 314 0132 05       		.byte	0x5
 315 0133 55       		.byte	0x55
 316 0134 19       		.byte	0x19
 317 0135 A3000000 		.4byte	0xa3
 318 0139 08       		.byte	0x8
 319 013a 02       		.uleb128 0x2
 320 013b 07020000 		.4byte	.LASF21
 321 013f 05       		.byte	0x5
 322 0140 56       		.byte	0x56
 323 0141 19       		.byte	0x19
 324 0142 A3000000 		.4byte	0xa3
 325 0146 0C       		.byte	0xc
 326 0147 06       		.uleb128 0x6
 327 0148 49445200 		.ascii	"IDR\000"
 328 014c 57       		.byte	0x57
 329 014d A3000000 		.4byte	0xa3
 330 0151 10       		.byte	0x10
 331 0152 06       		.uleb128 0x6
 332 0153 4F445200 		.ascii	"ODR\000"
 333 0157 58       		.byte	0x58
 334 0158 A3000000 		.4byte	0xa3
 335 015c 14       		.byte	0x14
 336 015d 02       		.uleb128 0x2
 337 015e 29000000 		.4byte	.LASF22
 338 0162 05       		.byte	0x5
 339 0163 5F       		.byte	0x5f
 340 0164 05       		.byte	0x5
 341 0165 05010000 		.4byte	0x105
 342 0169 18       		.byte	0x18
ARM GAS  C:\Users\DEVELO~1\AppData\Local\Temp\ccwOF1Wo.s 			page 7


 343 016a 02       		.uleb128 0x2
 344 016b F4010000 		.4byte	.LASF23
 345 016f 05       		.byte	0x5
 346 0170 60       		.byte	0x60
 347 0171 19       		.byte	0x19
 348 0172 A3000000 		.4byte	0xa3
 349 0176 1C       		.byte	0x1c
 350 0177 02       		.uleb128 0x2
 351 0178 CE000000 		.4byte	.LASF24
 352 017c 05       		.byte	0x5
 353 017d 61       		.byte	0x61
 354 017e 19       		.byte	0x19
 355 017f A3000000 		.4byte	0xa3
 356 0183 20       		.byte	0x20
 357 0184 02       		.uleb128 0x2
 358 0185 A4000000 		.4byte	.LASF25
 359 0189 05       		.byte	0x5
 360 018a 62       		.byte	0x62
 361 018b 19       		.byte	0x19
 362 018c A3000000 		.4byte	0xa3
 363 0190 24       		.byte	0x24
 364 0191 00       		.byte	0
 365 0192 03       		.uleb128 0x3
 366 0193 FA010000 		.4byte	.LASF26
 367 0197 05       		.byte	0x5
 368 0198 63       		.byte	0x63
 369 0199 03       		.byte	0x3
 370 019a 0A010000 		.4byte	0x10a
 371 019e 03       		.uleb128 0x3
 372 019f 59000000 		.4byte	.LASF27
 373 01a3 06       		.byte	0x6
 374 01a4 C2       		.byte	0xc2
 375 01a5 12       		.byte	0x12
 376 01a6 97000000 		.4byte	0x97
 377 01aa 03       		.uleb128 0x3
 378 01ab 76000000 		.4byte	.LASF28
 379 01af 06       		.byte	0x6
 380 01b0 C7       		.byte	0xc7
 381 01b1 12       		.byte	0x12
 382 01b2 97000000 		.4byte	0x97
 383 01b6 03       		.uleb128 0x3
 384 01b7 47020000 		.4byte	.LASF29
 385 01bb 06       		.byte	0x6
 386 01bc D9       		.byte	0xd9
 387 01bd 18       		.byte	0x18
 388 01be C2010000 		.4byte	0x1c2
 389 01c2 0E       		.uleb128 0xe
 390 01c3 92010000 		.4byte	0x192
 391 01c7 05       		.uleb128 0x5
 392 01c8 0C       		.byte	0xc
 393 01c9 07       		.byte	0x7
 394 01ca B7       		.byte	0xb7
 395 01cb 09       		.byte	0x9
 396 01cc F8010000 		.4byte	0x1f8
 397 01d0 02       		.uleb128 0x2
 398 01d1 52000000 		.4byte	.LASF30
 399 01d5 07       		.byte	0x7
ARM GAS  C:\Users\DEVELO~1\AppData\Local\Temp\ccwOF1Wo.s 			page 8


 400 01d6 BB       		.byte	0xbb
 401 01d7 19       		.byte	0x19
 402 01d8 B6010000 		.4byte	0x1b6
 403 01dc 00       		.byte	0
 404 01dd 02       		.uleb128 0x2
 405 01de 18020000 		.4byte	.LASF31
 406 01e2 07       		.byte	0x7
 407 01e3 C1       		.byte	0xc1
 408 01e4 19       		.byte	0x19
 409 01e5 9E010000 		.4byte	0x19e
 410 01e9 04       		.byte	0x4
 411 01ea 02       		.uleb128 0x2
 412 01eb 22020000 		.4byte	.LASF32
 413 01ef 07       		.byte	0x7
 414 01f0 C5       		.byte	0xc5
 415 01f1 19       		.byte	0x19
 416 01f2 A8000000 		.4byte	0xa8
 417 01f6 08       		.byte	0x8
 418 01f7 00       		.byte	0
 419 01f8 03       		.uleb128 0x3
 420 01f9 91020000 		.4byte	.LASF33
 421 01fd 07       		.byte	0x7
 422 01fe C6       		.byte	0xc6
 423 01ff 03       		.byte	0x3
 424 0200 C7010000 		.4byte	0x1c7
 425 0204 04       		.uleb128 0x4
 426 0205 F8010000 		.4byte	0x1f8
 427 0209 14       		.uleb128 0x14
 428 020a 27010000 		.4byte	.LASF42
 429 020e 06       		.byte	0x6
 430 020f F301     		.2byte	0x1f3
 431 0211 08       		.byte	0x8
 432 0212 26020000 		.4byte	0x226
 433 0216 07       		.uleb128 0x7
 434 0217 B6010000 		.4byte	0x1b6
 435 021b 07       		.uleb128 0x7
 436 021c 9E010000 		.4byte	0x19e
 437 0220 07       		.uleb128 0x7
 438 0221 AA010000 		.4byte	0x1aa
 439 0225 00       		.byte	0
 440 0226 0F       		.uleb128 0xf
 441 0227 44000000 		.4byte	.LASF35
 442 022b 71       		.byte	0x71
 443 022c 00000000 		.4byte	.LFB450
 444 0230 0E000000 		.4byte	.LFE450-.LFB450
 445 0234 01       		.uleb128 0x1
 446 0235 9C       		.byte	0x9c
 447 0236 7B020000 		.4byte	0x27b
 448 023a 08       		.uleb128 0x8
 449 023b 62757300 		.ascii	"bus\000"
 450 023f 71       		.byte	0x71
 451 0240 21       		.byte	0x21
 452 0241 7B020000 		.4byte	0x27b
 453 0245 10000000 		.4byte	.LLST5
 454 0249 0C000000 		.4byte	.LVUS5
 455 024d 10       		.uleb128 0x10
 456 024e EF010000 		.4byte	.LASF34
ARM GAS  C:\Users\DEVELO~1\AppData\Local\Temp\ccwOF1Wo.s 			page 9


 457 0252 71       		.byte	0x71
 458 0253 2F       		.byte	0x2f
 459 0254 AA010000 		.4byte	0x1aa
 460 0258 29000000 		.4byte	.LLST6
 461 025c 23000000 		.4byte	.LVUS6
 462 0260 09       		.uleb128 0x9
 463 0261 66000000 		.4byte	.LASF38
 464 0265 90020000 		.4byte	0x290
 465 0269 15       		.uleb128 0x15
 466 026a 0E000000 		.4byte	.LVL9
 467 026e 09020000 		.4byte	0x209
 468 0272 16       		.uleb128 0x16
 469 0273 01       		.uleb128 0x1
 470 0274 52       		.byte	0x52
 471 0275 03       		.uleb128 0x3
 472 0276 A3       		.byte	0xa3
 473 0277 01       		.uleb128 0x1
 474 0278 51       		.byte	0x51
 475 0279 00       		.byte	0
 476 027a 00       		.byte	0
 477 027b 0E       		.uleb128 0xe
 478 027c 04020000 		.4byte	0x204
 479 0280 0A       		.uleb128 0xa
 480 0281 BB000000 		.4byte	0xbb
 481 0285 90020000 		.4byte	0x290
 482 0289 0B       		.uleb128 0xb
 483 028a 2D000000 		.4byte	0x2d
 484 028e 0D       		.byte	0xd
 485 028f 00       		.byte	0
 486 0290 04       		.uleb128 0x4
 487 0291 80020000 		.4byte	0x280
 488 0295 0F       		.uleb128 0xf
 489 0296 2E000000 		.4byte	.LASF36
 490 029a 5A       		.byte	0x5a
 491 029b 00000000 		.4byte	.LFB449
 492 029f 1E000000 		.4byte	.LFE449-.LFB449
 493 02a3 01       		.uleb128 0x1
 494 02a4 9C       		.byte	0x9c
 495 02a5 F1020000 		.4byte	0x2f1
 496 02a9 08       		.uleb128 0x8
 497 02aa 62757300 		.ascii	"bus\000"
 498 02ae 5A       		.byte	0x5a
 499 02af 1F       		.byte	0x1f
 500 02b0 7B020000 		.4byte	0x27b
 501 02b4 45000000 		.4byte	.LLST1
 502 02b8 41000000 		.4byte	.LVUS1
 503 02bc 10       		.uleb128 0x10
 504 02bd 1D020000 		.4byte	.LASF37
 505 02c1 5A       		.byte	0x5a
 506 02c2 31       		.byte	0x31
 507 02c3 9E010000 		.4byte	0x19e
 508 02c7 5C000000 		.4byte	.LLST2
 509 02cb 58000000 		.4byte	.LVUS2
 510 02cf 09       		.uleb128 0x9
 511 02d0 66000000 		.4byte	.LASF38
 512 02d4 01030000 		.4byte	0x301
 513 02d8 17       		.uleb128 0x17
ARM GAS  C:\Users\DEVELO~1\AppData\Local\Temp\ccwOF1Wo.s 			page 10


 514 02d9 0C000000 		.4byte	.LLRL3
 515 02dd 18       		.uleb128 0x18
 516 02de 7700     		.ascii	"w\000"
 517 02e0 01       		.byte	0x1
 518 02e1 5E       		.byte	0x5e
 519 02e2 03       		.byte	0x3
 520 02e3 97000000 		.4byte	0x97
 521 02e7 71000000 		.4byte	.LLST4
 522 02eb 6F000000 		.4byte	.LVUS4
 523 02ef 00       		.byte	0
 524 02f0 00       		.byte	0
 525 02f1 0A       		.uleb128 0xa
 526 02f2 BB000000 		.4byte	0xbb
 527 02f6 01030000 		.4byte	0x301
 528 02fa 0B       		.uleb128 0xb
 529 02fb 2D000000 		.4byte	0x2d
 530 02ff 0B       		.byte	0xb
 531 0300 00       		.byte	0
 532 0301 04       		.uleb128 0x4
 533 0302 F1020000 		.4byte	0x2f1
 534 0306 19       		.uleb128 0x19
 535 0307 0D020000 		.4byte	.LASF43
 536 030b 01       		.byte	0x1
 537 030c 41       		.byte	0x41
 538 030d 0E       		.byte	0xe
 539 030e 9E010000 		.4byte	0x19e
 540 0312 00000000 		.4byte	.LFB448
 541 0316 0E000000 		.4byte	.LFE448-.LFB448
 542 031a 01       		.uleb128 0x1
 543 031b 9C       		.byte	0x9c
 544 031c 3D030000 		.4byte	0x33d
 545 0320 08       		.uleb128 0x8
 546 0321 62757300 		.ascii	"bus\000"
 547 0325 41       		.byte	0x41
 548 0326 26       		.byte	0x26
 549 0327 7B020000 		.4byte	0x27b
 550 032b 7E000000 		.4byte	.LLST0
 551 032f 7A000000 		.4byte	.LVUS0
 552 0333 09       		.uleb128 0x9
 553 0334 66000000 		.4byte	.LASF38
 554 0338 4D030000 		.4byte	0x34d
 555 033c 00       		.byte	0
 556 033d 0A       		.uleb128 0xa
 557 033e BB000000 		.4byte	0xbb
 558 0342 4D030000 		.4byte	0x34d
 559 0346 0B       		.uleb128 0xb
 560 0347 2D000000 		.4byte	0x2d
 561 034b 0A       		.byte	0xa
 562 034c 00       		.byte	0
 563 034d 04       		.uleb128 0x4
 564 034e 3D030000 		.4byte	0x33d
 565 0352 00       		.byte	0
 566              		.section	.debug_abbrev,"",%progbits
 567              	.Ldebug_abbrev0:
 568 0000 01       		.uleb128 0x1
 569 0001 24       		.uleb128 0x24
 570 0002 00       		.byte	0
ARM GAS  C:\Users\DEVELO~1\AppData\Local\Temp\ccwOF1Wo.s 			page 11


 571 0003 0B       		.uleb128 0xb
 572 0004 0B       		.uleb128 0xb
 573 0005 3E       		.uleb128 0x3e
 574 0006 0B       		.uleb128 0xb
 575 0007 03       		.uleb128 0x3
 576 0008 0E       		.uleb128 0xe
 577 0009 00       		.byte	0
 578 000a 00       		.byte	0
 579 000b 02       		.uleb128 0x2
 580 000c 0D       		.uleb128 0xd
 581 000d 00       		.byte	0
 582 000e 03       		.uleb128 0x3
 583 000f 0E       		.uleb128 0xe
 584 0010 3A       		.uleb128 0x3a
 585 0011 0B       		.uleb128 0xb
 586 0012 3B       		.uleb128 0x3b
 587 0013 0B       		.uleb128 0xb
 588 0014 39       		.uleb128 0x39
 589 0015 0B       		.uleb128 0xb
 590 0016 49       		.uleb128 0x49
 591 0017 13       		.uleb128 0x13
 592 0018 38       		.uleb128 0x38
 593 0019 0B       		.uleb128 0xb
 594 001a 00       		.byte	0
 595 001b 00       		.byte	0
 596 001c 03       		.uleb128 0x3
 597 001d 16       		.uleb128 0x16
 598 001e 00       		.byte	0
 599 001f 03       		.uleb128 0x3
 600 0020 0E       		.uleb128 0xe
 601 0021 3A       		.uleb128 0x3a
 602 0022 0B       		.uleb128 0xb
 603 0023 3B       		.uleb128 0x3b
 604 0024 0B       		.uleb128 0xb
 605 0025 39       		.uleb128 0x39
 606 0026 0B       		.uleb128 0xb
 607 0027 49       		.uleb128 0x49
 608 0028 13       		.uleb128 0x13
 609 0029 00       		.byte	0
 610 002a 00       		.byte	0
 611 002b 04       		.uleb128 0x4
 612 002c 26       		.uleb128 0x26
 613 002d 00       		.byte	0
 614 002e 49       		.uleb128 0x49
 615 002f 13       		.uleb128 0x13
 616 0030 00       		.byte	0
 617 0031 00       		.byte	0
 618 0032 05       		.uleb128 0x5
 619 0033 13       		.uleb128 0x13
 620 0034 01       		.byte	0x1
 621 0035 0B       		.uleb128 0xb
 622 0036 0B       		.uleb128 0xb
 623 0037 3A       		.uleb128 0x3a
 624 0038 0B       		.uleb128 0xb
 625 0039 3B       		.uleb128 0x3b
 626 003a 0B       		.uleb128 0xb
 627 003b 39       		.uleb128 0x39
ARM GAS  C:\Users\DEVELO~1\AppData\Local\Temp\ccwOF1Wo.s 			page 12


 628 003c 0B       		.uleb128 0xb
 629 003d 01       		.uleb128 0x1
 630 003e 13       		.uleb128 0x13
 631 003f 00       		.byte	0
 632 0040 00       		.byte	0
 633 0041 06       		.uleb128 0x6
 634 0042 0D       		.uleb128 0xd
 635 0043 00       		.byte	0
 636 0044 03       		.uleb128 0x3
 637 0045 08       		.uleb128 0x8
 638 0046 3A       		.uleb128 0x3a
 639 0047 21       		.uleb128 0x21
 640 0048 05       		.sleb128 5
 641 0049 3B       		.uleb128 0x3b
 642 004a 0B       		.uleb128 0xb
 643 004b 39       		.uleb128 0x39
 644 004c 21       		.uleb128 0x21
 645 004d 19       		.sleb128 25
 646 004e 49       		.uleb128 0x49
 647 004f 13       		.uleb128 0x13
 648 0050 38       		.uleb128 0x38
 649 0051 0B       		.uleb128 0xb
 650 0052 00       		.byte	0
 651 0053 00       		.byte	0
 652 0054 07       		.uleb128 0x7
 653 0055 05       		.uleb128 0x5
 654 0056 00       		.byte	0
 655 0057 49       		.uleb128 0x49
 656 0058 13       		.uleb128 0x13
 657 0059 00       		.byte	0
 658 005a 00       		.byte	0
 659 005b 08       		.uleb128 0x8
 660 005c 05       		.uleb128 0x5
 661 005d 00       		.byte	0
 662 005e 03       		.uleb128 0x3
 663 005f 08       		.uleb128 0x8
 664 0060 3A       		.uleb128 0x3a
 665 0061 21       		.uleb128 0x21
 666 0062 01       		.sleb128 1
 667 0063 3B       		.uleb128 0x3b
 668 0064 0B       		.uleb128 0xb
 669 0065 39       		.uleb128 0x39
 670 0066 0B       		.uleb128 0xb
 671 0067 49       		.uleb128 0x49
 672 0068 13       		.uleb128 0x13
 673 0069 02       		.uleb128 0x2
 674 006a 17       		.uleb128 0x17
 675 006b B742     		.uleb128 0x2137
 676 006d 17       		.uleb128 0x17
 677 006e 00       		.byte	0
 678 006f 00       		.byte	0
 679 0070 09       		.uleb128 0x9
 680 0071 34       		.uleb128 0x34
 681 0072 00       		.byte	0
 682 0073 03       		.uleb128 0x3
 683 0074 0E       		.uleb128 0xe
 684 0075 49       		.uleb128 0x49
ARM GAS  C:\Users\DEVELO~1\AppData\Local\Temp\ccwOF1Wo.s 			page 13


 685 0076 13       		.uleb128 0x13
 686 0077 34       		.uleb128 0x34
 687 0078 19       		.uleb128 0x19
 688 0079 00       		.byte	0
 689 007a 00       		.byte	0
 690 007b 0A       		.uleb128 0xa
 691 007c 01       		.uleb128 0x1
 692 007d 01       		.byte	0x1
 693 007e 49       		.uleb128 0x49
 694 007f 13       		.uleb128 0x13
 695 0080 01       		.uleb128 0x1
 696 0081 13       		.uleb128 0x13
 697 0082 00       		.byte	0
 698 0083 00       		.byte	0
 699 0084 0B       		.uleb128 0xb
 700 0085 21       		.uleb128 0x21
 701 0086 00       		.byte	0
 702 0087 49       		.uleb128 0x49
 703 0088 13       		.uleb128 0x13
 704 0089 2F       		.uleb128 0x2f
 705 008a 0B       		.uleb128 0xb
 706 008b 00       		.byte	0
 707 008c 00       		.byte	0
 708 008d 0C       		.uleb128 0xc
 709 008e 35       		.uleb128 0x35
 710 008f 00       		.byte	0
 711 0090 49       		.uleb128 0x49
 712 0091 13       		.uleb128 0x13
 713 0092 00       		.byte	0
 714 0093 00       		.byte	0
 715 0094 0D       		.uleb128 0xd
 716 0095 0D       		.uleb128 0xd
 717 0096 00       		.byte	0
 718 0097 03       		.uleb128 0x3
 719 0098 08       		.uleb128 0x8
 720 0099 3A       		.uleb128 0x3a
 721 009a 21       		.uleb128 0x21
 722 009b 05       		.sleb128 5
 723 009c 3B       		.uleb128 0x3b
 724 009d 0B       		.uleb128 0xb
 725 009e 39       		.uleb128 0x39
 726 009f 0B       		.uleb128 0xb
 727 00a0 49       		.uleb128 0x49
 728 00a1 13       		.uleb128 0x13
 729 00a2 00       		.byte	0
 730 00a3 00       		.byte	0
 731 00a4 0E       		.uleb128 0xe
 732 00a5 0F       		.uleb128 0xf
 733 00a6 00       		.byte	0
 734 00a7 0B       		.uleb128 0xb
 735 00a8 21       		.uleb128 0x21
 736 00a9 04       		.sleb128 4
 737 00aa 49       		.uleb128 0x49
 738 00ab 13       		.uleb128 0x13
 739 00ac 00       		.byte	0
 740 00ad 00       		.byte	0
 741 00ae 0F       		.uleb128 0xf
ARM GAS  C:\Users\DEVELO~1\AppData\Local\Temp\ccwOF1Wo.s 			page 14


 742 00af 2E       		.uleb128 0x2e
 743 00b0 01       		.byte	0x1
 744 00b1 3F       		.uleb128 0x3f
 745 00b2 19       		.uleb128 0x19
 746 00b3 03       		.uleb128 0x3
 747 00b4 0E       		.uleb128 0xe
 748 00b5 3A       		.uleb128 0x3a
 749 00b6 21       		.uleb128 0x21
 750 00b7 01       		.sleb128 1
 751 00b8 3B       		.uleb128 0x3b
 752 00b9 0B       		.uleb128 0xb
 753 00ba 39       		.uleb128 0x39
 754 00bb 21       		.uleb128 0x21
 755 00bc 06       		.sleb128 6
 756 00bd 27       		.uleb128 0x27
 757 00be 19       		.uleb128 0x19
 758 00bf 11       		.uleb128 0x11
 759 00c0 01       		.uleb128 0x1
 760 00c1 12       		.uleb128 0x12
 761 00c2 06       		.uleb128 0x6
 762 00c3 40       		.uleb128 0x40
 763 00c4 18       		.uleb128 0x18
 764 00c5 7A       		.uleb128 0x7a
 765 00c6 19       		.uleb128 0x19
 766 00c7 01       		.uleb128 0x1
 767 00c8 13       		.uleb128 0x13
 768 00c9 00       		.byte	0
 769 00ca 00       		.byte	0
 770 00cb 10       		.uleb128 0x10
 771 00cc 05       		.uleb128 0x5
 772 00cd 00       		.byte	0
 773 00ce 03       		.uleb128 0x3
 774 00cf 0E       		.uleb128 0xe
 775 00d0 3A       		.uleb128 0x3a
 776 00d1 21       		.uleb128 0x21
 777 00d2 01       		.sleb128 1
 778 00d3 3B       		.uleb128 0x3b
 779 00d4 0B       		.uleb128 0xb
 780 00d5 39       		.uleb128 0x39
 781 00d6 0B       		.uleb128 0xb
 782 00d7 49       		.uleb128 0x49
 783 00d8 13       		.uleb128 0x13
 784 00d9 02       		.uleb128 0x2
 785 00da 17       		.uleb128 0x17
 786 00db B742     		.uleb128 0x2137
 787 00dd 17       		.uleb128 0x17
 788 00de 00       		.byte	0
 789 00df 00       		.byte	0
 790 00e0 11       		.uleb128 0x11
 791 00e1 11       		.uleb128 0x11
 792 00e2 01       		.byte	0x1
 793 00e3 25       		.uleb128 0x25
 794 00e4 0E       		.uleb128 0xe
 795 00e5 13       		.uleb128 0x13
 796 00e6 0B       		.uleb128 0xb
 797 00e7 03       		.uleb128 0x3
 798 00e8 0E       		.uleb128 0xe
ARM GAS  C:\Users\DEVELO~1\AppData\Local\Temp\ccwOF1Wo.s 			page 15


 799 00e9 1B       		.uleb128 0x1b
 800 00ea 0E       		.uleb128 0xe
 801 00eb 55       		.uleb128 0x55
 802 00ec 17       		.uleb128 0x17
 803 00ed 11       		.uleb128 0x11
 804 00ee 01       		.uleb128 0x1
 805 00ef 10       		.uleb128 0x10
 806 00f0 17       		.uleb128 0x17
 807 00f1 00       		.byte	0
 808 00f2 00       		.byte	0
 809 00f3 12       		.uleb128 0x12
 810 00f4 24       		.uleb128 0x24
 811 00f5 00       		.byte	0
 812 00f6 0B       		.uleb128 0xb
 813 00f7 0B       		.uleb128 0xb
 814 00f8 3E       		.uleb128 0x3e
 815 00f9 0B       		.uleb128 0xb
 816 00fa 03       		.uleb128 0x3
 817 00fb 08       		.uleb128 0x8
 818 00fc 00       		.byte	0
 819 00fd 00       		.byte	0
 820 00fe 13       		.uleb128 0x13
 821 00ff 17       		.uleb128 0x17
 822 0100 01       		.byte	0x1
 823 0101 0B       		.uleb128 0xb
 824 0102 0B       		.uleb128 0xb
 825 0103 3A       		.uleb128 0x3a
 826 0104 0B       		.uleb128 0xb
 827 0105 3B       		.uleb128 0x3b
 828 0106 0B       		.uleb128 0xb
 829 0107 39       		.uleb128 0x39
 830 0108 0B       		.uleb128 0xb
 831 0109 01       		.uleb128 0x1
 832 010a 13       		.uleb128 0x13
 833 010b 00       		.byte	0
 834 010c 00       		.byte	0
 835 010d 14       		.uleb128 0x14
 836 010e 2E       		.uleb128 0x2e
 837 010f 01       		.byte	0x1
 838 0110 3F       		.uleb128 0x3f
 839 0111 19       		.uleb128 0x19
 840 0112 03       		.uleb128 0x3
 841 0113 0E       		.uleb128 0xe
 842 0114 3A       		.uleb128 0x3a
 843 0115 0B       		.uleb128 0xb
 844 0116 3B       		.uleb128 0x3b
 845 0117 05       		.uleb128 0x5
 846 0118 39       		.uleb128 0x39
 847 0119 0B       		.uleb128 0xb
 848 011a 27       		.uleb128 0x27
 849 011b 19       		.uleb128 0x19
 850 011c 3C       		.uleb128 0x3c
 851 011d 19       		.uleb128 0x19
 852 011e 01       		.uleb128 0x1
 853 011f 13       		.uleb128 0x13
 854 0120 00       		.byte	0
 855 0121 00       		.byte	0
ARM GAS  C:\Users\DEVELO~1\AppData\Local\Temp\ccwOF1Wo.s 			page 16


 856 0122 15       		.uleb128 0x15
 857 0123 48       		.uleb128 0x48
 858 0124 01       		.byte	0x1
 859 0125 7D       		.uleb128 0x7d
 860 0126 01       		.uleb128 0x1
 861 0127 8201     		.uleb128 0x82
 862 0129 19       		.uleb128 0x19
 863 012a 7F       		.uleb128 0x7f
 864 012b 13       		.uleb128 0x13
 865 012c 00       		.byte	0
 866 012d 00       		.byte	0
 867 012e 16       		.uleb128 0x16
 868 012f 49       		.uleb128 0x49
 869 0130 00       		.byte	0
 870 0131 02       		.uleb128 0x2
 871 0132 18       		.uleb128 0x18
 872 0133 7E       		.uleb128 0x7e
 873 0134 18       		.uleb128 0x18
 874 0135 00       		.byte	0
 875 0136 00       		.byte	0
 876 0137 17       		.uleb128 0x17
 877 0138 0B       		.uleb128 0xb
 878 0139 01       		.byte	0x1
 879 013a 55       		.uleb128 0x55
 880 013b 17       		.uleb128 0x17
 881 013c 00       		.byte	0
 882 013d 00       		.byte	0
 883 013e 18       		.uleb128 0x18
 884 013f 34       		.uleb128 0x34
 885 0140 00       		.byte	0
 886 0141 03       		.uleb128 0x3
 887 0142 08       		.uleb128 0x8
 888 0143 3A       		.uleb128 0x3a
 889 0144 0B       		.uleb128 0xb
 890 0145 3B       		.uleb128 0x3b
 891 0146 0B       		.uleb128 0xb
 892 0147 39       		.uleb128 0x39
 893 0148 0B       		.uleb128 0xb
 894 0149 49       		.uleb128 0x49
 895 014a 13       		.uleb128 0x13
 896 014b 02       		.uleb128 0x2
 897 014c 17       		.uleb128 0x17
 898 014d B742     		.uleb128 0x2137
 899 014f 17       		.uleb128 0x17
 900 0150 00       		.byte	0
 901 0151 00       		.byte	0
 902 0152 19       		.uleb128 0x19
 903 0153 2E       		.uleb128 0x2e
 904 0154 01       		.byte	0x1
 905 0155 3F       		.uleb128 0x3f
 906 0156 19       		.uleb128 0x19
 907 0157 03       		.uleb128 0x3
 908 0158 0E       		.uleb128 0xe
 909 0159 3A       		.uleb128 0x3a
 910 015a 0B       		.uleb128 0xb
 911 015b 3B       		.uleb128 0x3b
 912 015c 0B       		.uleb128 0xb
ARM GAS  C:\Users\DEVELO~1\AppData\Local\Temp\ccwOF1Wo.s 			page 17


 913 015d 39       		.uleb128 0x39
 914 015e 0B       		.uleb128 0xb
 915 015f 27       		.uleb128 0x27
 916 0160 19       		.uleb128 0x19
 917 0161 49       		.uleb128 0x49
 918 0162 13       		.uleb128 0x13
 919 0163 11       		.uleb128 0x11
 920 0164 01       		.uleb128 0x1
 921 0165 12       		.uleb128 0x12
 922 0166 06       		.uleb128 0x6
 923 0167 40       		.uleb128 0x40
 924 0168 18       		.uleb128 0x18
 925 0169 7A       		.uleb128 0x7a
 926 016a 19       		.uleb128 0x19
 927 016b 01       		.uleb128 0x1
 928 016c 13       		.uleb128 0x13
 929 016d 00       		.byte	0
 930 016e 00       		.byte	0
 931 016f 00       		.byte	0
 932              		.section	.debug_loclists,"",%progbits
 933 0000 8D000000 		.4byte	.Ldebug_loc3-.Ldebug_loc2
 934              	.Ldebug_loc2:
 935 0004 0500     		.2byte	0x5
 936 0006 04       		.byte	0x4
 937 0007 00       		.byte	0
 938 0008 00000000 		.4byte	0
 939              	.Ldebug_loc0:
 940              	.LVUS5:
 941 000c 00       		.uleb128 0
 942 000d 00       		.uleb128 .LVU30
 943 000e 00       		.uleb128 .LVU30
 944 000f 00       		.uleb128 0
 945              	.LLST5:
 946 0010 06       		.byte	0x6
 947 0011 00000000 		.4byte	.LVL6
 948 0015 04       		.byte	0x4
 949 0016 00       		.uleb128 .LVL6-.LVL6
 950 0017 08       		.uleb128 .LVL8-.LVL6
 951 0018 01       		.uleb128 0x1
 952 0019 50       		.byte	0x50
 953 001a 04       		.byte	0x4
 954 001b 08       		.uleb128 .LVL8-.LVL6
 955 001c 0E       		.uleb128 .LFE450-.LVL6
 956 001d 04       		.uleb128 0x4
 957 001e A3       		.byte	0xa3
 958 001f 01       		.uleb128 0x1
 959 0020 50       		.byte	0x50
 960 0021 9F       		.byte	0x9f
 961 0022 00       		.byte	0
 962              	.LVUS6:
 963 0023 00       		.uleb128 0
 964 0024 00       		.uleb128 .LVU29
 965 0025 00       		.uleb128 .LVU29
 966 0026 00       		.uleb128 .LVU31
 967 0027 00       		.uleb128 .LVU31
 968 0028 00       		.uleb128 0
 969              	.LLST6:
ARM GAS  C:\Users\DEVELO~1\AppData\Local\Temp\ccwOF1Wo.s 			page 18


 970 0029 06       		.byte	0x6
 971 002a 00000000 		.4byte	.LVL6
 972 002e 04       		.byte	0x4
 973 002f 00       		.uleb128 .LVL6-.LVL6
 974 0030 06       		.uleb128 .LVL7-.LVL6
 975 0031 01       		.uleb128 0x1
 976 0032 51       		.byte	0x51
 977 0033 04       		.byte	0x4
 978 0034 06       		.uleb128 .LVL7-.LVL6
 979 0035 0D       		.uleb128 .LVL9-1-.LVL6
 980 0036 01       		.uleb128 0x1
 981 0037 52       		.byte	0x52
 982 0038 04       		.byte	0x4
 983 0039 0D       		.uleb128 .LVL9-1-.LVL6
 984 003a 0E       		.uleb128 .LFE450-.LVL6
 985 003b 04       		.uleb128 0x4
 986 003c A3       		.byte	0xa3
 987 003d 01       		.uleb128 0x1
 988 003e 51       		.byte	0x51
 989 003f 9F       		.byte	0x9f
 990 0040 00       		.byte	0
 991              	.LVUS1:
 992 0041 00       		.uleb128 0
 993 0042 00       		.uleb128 .LVU15
 994 0043 00       		.uleb128 .LVU15
 995 0044 00       		.uleb128 0
 996              	.LLST1:
 997 0045 06       		.byte	0x6
 998 0046 00000000 		.4byte	.LVL2
 999 004a 04       		.byte	0x4
 1000 004b 00       		.uleb128 .LVL2-.LVL2
 1001 004c 08       		.uleb128 .LVL3-.LVL2
 1002 004d 01       		.uleb128 0x1
 1003 004e 50       		.byte	0x50
 1004 004f 04       		.byte	0x4
 1005 0050 08       		.uleb128 .LVL3-.LVL2
 1006 0051 1E       		.uleb128 .LFE449-.LVL2
 1007 0052 04       		.uleb128 0x4
 1008 0053 A3       		.byte	0xa3
 1009 0054 01       		.uleb128 0x1
 1010 0055 50       		.byte	0x50
 1011 0056 9F       		.byte	0x9f
 1012 0057 00       		.byte	0
 1013              	.LVUS2:
 1014 0058 00       		.uleb128 0
 1015 0059 00       		.uleb128 .LVU16
 1016 005a 00       		.uleb128 .LVU16
 1017 005b 00       		.uleb128 0
 1018              	.LLST2:
 1019 005c 06       		.byte	0x6
 1020 005d 00000000 		.4byte	.LVL2
 1021 0061 04       		.byte	0x4
 1022 0062 00       		.uleb128 .LVL2-.LVL2
 1023 0063 0E       		.uleb128 .LVL4-.LVL2
 1024 0064 01       		.uleb128 0x1
 1025 0065 51       		.byte	0x51
 1026 0066 04       		.byte	0x4
ARM GAS  C:\Users\DEVELO~1\AppData\Local\Temp\ccwOF1Wo.s 			page 19


 1027 0067 0E       		.uleb128 .LVL4-.LVL2
 1028 0068 1E       		.uleb128 .LFE449-.LVL2
 1029 0069 04       		.uleb128 0x4
 1030 006a A3       		.byte	0xa3
 1031 006b 01       		.uleb128 0x1
 1032 006c 51       		.byte	0x51
 1033 006d 9F       		.byte	0x9f
 1034 006e 00       		.byte	0
 1035              	.LVUS4:
 1036 006f 00       		.uleb128 .LVU19
 1037 0070 00       		.uleb128 0
 1038              	.LLST4:
 1039 0071 08       		.byte	0x8
 1040 0072 1A000000 		.4byte	.LVL5
 1041 0076 04       		.uleb128 .LFE449-.LVL5
 1042 0077 01       		.uleb128 0x1
 1043 0078 53       		.byte	0x53
 1044 0079 00       		.byte	0
 1045              	.LVUS0:
 1046 007a 00       		.uleb128 0
 1047 007b 00       		.uleb128 .LVU6
 1048 007c 00       		.uleb128 .LVU6
 1049 007d 00       		.uleb128 0
 1050              	.LLST0:
 1051 007e 06       		.byte	0x6
 1052 007f 00000000 		.4byte	.LVL0
 1053 0083 04       		.byte	0x4
 1054 0084 00       		.uleb128 .LVL0-.LVL0
 1055 0085 06       		.uleb128 .LVL1-.LVL0
 1056 0086 01       		.uleb128 0x1
 1057 0087 50       		.byte	0x50
 1058 0088 04       		.byte	0x4
 1059 0089 06       		.uleb128 .LVL1-.LVL0
 1060 008a 0E       		.uleb128 .LFE448-.LVL0
 1061 008b 04       		.uleb128 0x4
 1062 008c A3       		.byte	0xa3
 1063 008d 01       		.uleb128 0x1
 1064 008e 50       		.byte	0x50
 1065 008f 9F       		.byte	0x9f
 1066 0090 00       		.byte	0
 1067              	.Ldebug_loc3:
 1068              		.section	.debug_aranges,"",%progbits
 1069 0000 2C000000 		.4byte	0x2c
 1070 0004 0200     		.2byte	0x2
 1071 0006 00000000 		.4byte	.Ldebug_info0
 1072 000a 04       		.byte	0x4
 1073 000b 00       		.byte	0
 1074 000c 0000     		.2byte	0
 1075 000e 0000     		.2byte	0
 1076 0010 00000000 		.4byte	.LFB448
 1077 0014 0E000000 		.4byte	.LFE448-.LFB448
 1078 0018 00000000 		.4byte	.LFB449
 1079 001c 1E000000 		.4byte	.LFE449-.LFB449
 1080 0020 00000000 		.4byte	.LFB450
 1081 0024 0E000000 		.4byte	.LFE450-.LFB450
 1082 0028 00000000 		.4byte	0
 1083 002c 00000000 		.4byte	0
ARM GAS  C:\Users\DEVELO~1\AppData\Local\Temp\ccwOF1Wo.s 			page 20


 1084              		.section	.debug_rnglists,"",%progbits
 1085              	.Ldebug_ranges0:
 1086 0000 2A000000 		.4byte	.Ldebug_ranges3-.Ldebug_ranges2
 1087              	.Ldebug_ranges2:
 1088 0004 0500     		.2byte	0x5
 1089 0006 04       		.byte	0x4
 1090 0007 00       		.byte	0
 1091 0008 00000000 		.4byte	0
 1092              	.LLRL3:
 1093 000c 05       		.byte	0x5
 1094 000d 00000000 		.4byte	.LBB2
 1095 0011 04       		.byte	0x4
 1096 0012 00       		.uleb128 .LBB2-.LBB2
 1097 0013 00       		.uleb128 .LBE2-.LBB2
 1098 0014 04       		.byte	0x4
 1099 0015 02       		.uleb128 .LBB3-.LBB2
 1100 0016 0E       		.uleb128 .LBE3-.LBB2
 1101 0017 04       		.byte	0x4
 1102 0018 12       		.uleb128 .LBB4-.LBB2
 1103 0019 1C       		.uleb128 .LBE4-.LBB2
 1104 001a 00       		.byte	0
 1105              	.LLRL7:
 1106 001b 07       		.byte	0x7
 1107 001c 00000000 		.4byte	.LFB448
 1108 0020 0E       		.uleb128 .LFE448-.LFB448
 1109 0021 07       		.byte	0x7
 1110 0022 00000000 		.4byte	.LFB449
 1111 0026 1E       		.uleb128 .LFE449-.LFB449
 1112 0027 07       		.byte	0x7
 1113 0028 00000000 		.4byte	.LFB450
 1114 002c 0E       		.uleb128 .LFE450-.LFB450
 1115 002d 00       		.byte	0
 1116              	.Ldebug_ranges3:
 1117              		.section	.debug_line,"",%progbits
 1118              	.Ldebug_line0:
 1119 0000 3D020000 		.section	.debug_str,"MS",%progbits,1
 1119      0300C701 
 1119      00000201 
 1119      FB0E0D00 
 1119      01010101 
 1120              	.LASF1:
 1121 0000 6C6F6E67 		.ascii	"long long int\000"
 1121      206C6F6E 
 1121      6720696E 
 1121      7400
 1122              	.LASF20:
 1123 000e 4F535045 		.ascii	"OSPEEDR\000"
 1123      45445200 
 1124              	.LASF18:
 1125 0016 4D4F4445 		.ascii	"MODER\000"
 1125      5200
 1126              	.LASF14:
 1127 001c 75696E74 		.ascii	"uint_fast8_t\000"
 1127      5F666173 
 1127      74385F74 
 1127      00
 1128              	.LASF22:
ARM GAS  C:\Users\DEVELO~1\AppData\Local\Temp\ccwOF1Wo.s 			page 21


 1129 0029 42535252 		.ascii	"BSRR\000"
 1129      00
 1130              	.LASF36:
 1131 002e 70616C57 		.ascii	"palWriteBus\000"
 1131      72697465 
 1131      42757300 
 1132              	.LASF5:
 1133 003a 73686F72 		.ascii	"short int\000"
 1133      7420696E 
 1133      7400
 1134              	.LASF35:
 1135 0044 70616C53 		.ascii	"palSetBusMode\000"
 1135      65744275 
 1135      734D6F64 
 1135      6500
 1136              	.LASF30:
 1137 0052 706F7274 		.ascii	"portid\000"
 1137      696400
 1138              	.LASF27:
 1139 0059 696F706F 		.ascii	"ioportmask_t\000"
 1139      72746D61 
 1139      736B5F74 
 1139      00
 1140              	.LASF38:
 1141 0066 5F5F6675 		.ascii	"__func__\000"
 1141      6E635F5F 
 1141      00
 1142              	.LASF19:
 1143 006f 4F545950 		.ascii	"OTYPER\000"
 1143      455200
 1144              	.LASF28:
 1145 0076 696F6D6F 		.ascii	"iomode_t\000"
 1145      64655F74 
 1145      00
 1146              	.LASF11:
 1147 007f 6C6F6E67 		.ascii	"long long unsigned int\000"
 1147      206C6F6E 
 1147      6720756E 
 1147      7369676E 
 1147      65642069 
 1148              	.LASF4:
 1149 0096 756E7369 		.ascii	"unsigned char\000"
 1149      676E6564 
 1149      20636861 
 1149      7200
 1150              	.LASF25:
 1151 00a4 41465248 		.ascii	"AFRH\000"
 1151      00
 1152              	.LASF10:
 1153 00a9 6C6F6E67 		.ascii	"long unsigned int\000"
 1153      20756E73 
 1153      69676E65 
 1153      6420696E 
 1153      7400
 1154              	.LASF6:
 1155 00bb 73686F72 		.ascii	"short unsigned int\000"
 1155      7420756E 
ARM GAS  C:\Users\DEVELO~1\AppData\Local\Temp\ccwOF1Wo.s 			page 22


 1155      7369676E 
 1155      65642069 
 1155      6E7400
 1156              	.LASF24:
 1157 00ce 4146524C 		.ascii	"AFRL\000"
 1157      00
 1158              	.LASF8:
 1159 00d3 5F5F7569 		.ascii	"__uint16_t\000"
 1159      6E743136 
 1159      5F7400
 1160              	.LASF9:
 1161 00de 5F5F7569 		.ascii	"__uint32_t\000"
 1161      6E743332 
 1161      5F7400
 1162              	.LASF41:
 1163 00e9 433A5C43 		.ascii	"C:\\ChibiStudio\\ChibiOS-master\\demos\\STM32\\CUST"
 1163      68696269 
 1163      53747564 
 1163      696F5C43 
 1163      68696269 
 1164 0117 4F4D5F48 		.ascii	"OM_H743IIT6_maj\000"
 1164      37343349 
 1164      4954365F 
 1164      6D616A00 
 1165              	.LASF42:
 1166 0127 5F70616C 		.ascii	"_pal_lld_setgroupmode\000"
 1166      5F6C6C64 
 1166      5F736574 
 1166      67726F75 
 1166      706D6F64 
 1167              	.LASF39:
 1168 013d 474E5520 		.ascii	"GNU C17 11.3.1 20220712 -mcpu=cortex-m7 -mthumb -mf"
 1168      43313720 
 1168      31312E33 
 1168      2E312032 
 1168      30323230 
 1169 0170 6C6F6174 		.ascii	"loat-abi=hard -mfpu=fpv5-d16 -march=armv7e-m+fp.dp "
 1169      2D616269 
 1169      3D686172 
 1169      64202D6D 
 1169      6670753D 
 1170 01a3 2D676764 		.ascii	"-ggdb -O2 -ffunction-sections -fdata-sections -fno-"
 1170      62202D4F 
 1170      32202D66 
 1170      66756E63 
 1170      74696F6E 
 1171 01d6 636F6D6D 		.ascii	"common\000"
 1171      6F6E00
 1172              	.LASF0:
 1173 01dd 756E7369 		.ascii	"unsigned int\000"
 1173      676E6564 
 1173      20696E74 
 1173      00
 1174              	.LASF15:
 1175 01ea 63686172 		.ascii	"char\000"
 1175      00
 1176              	.LASF34:
ARM GAS  C:\Users\DEVELO~1\AppData\Local\Temp\ccwOF1Wo.s 			page 23


 1177 01ef 6D6F6465 		.ascii	"mode\000"
 1177      00
 1178              	.LASF23:
 1179 01f4 4C4F434B 		.ascii	"LOCKR\000"
 1179      5200
 1180              	.LASF26:
 1181 01fa 73746D33 		.ascii	"stm32_gpio_t\000"
 1181      325F6770 
 1181      696F5F74 
 1181      00
 1182              	.LASF21:
 1183 0207 50555044 		.ascii	"PUPDR\000"
 1183      5200
 1184              	.LASF43:
 1185 020d 70616C52 		.ascii	"palReadBus\000"
 1185      65616442 
 1185      757300
 1186              	.LASF31:
 1187 0218 6D61736B 		.ascii	"mask\000"
 1187      00
 1188              	.LASF37:
 1189 021d 62697473 		.ascii	"bits\000"
 1189      00
 1190              	.LASF32:
 1191 0222 6F666673 		.ascii	"offset\000"
 1191      657400
 1192              	.LASF40:
 1193 0229 2E2E2F2E 		.ascii	"../../../os/hal/src/hal_pal.c\000"
 1193      2E2F2E2E 
 1193      2F6F732F 
 1193      68616C2F 
 1193      7372632F 
 1194              	.LASF29:
 1195 0247 696F706F 		.ascii	"ioportid_t\000"
 1195      72746964 
 1195      5F7400
 1196              	.LASF12:
 1197 0252 75696E74 		.ascii	"uint16_t\000"
 1197      31365F74 
 1197      00
 1198              	.LASF17:
 1199 025b 636C6561 		.ascii	"clear\000"
 1199      7200
 1200              	.LASF13:
 1201 0261 75696E74 		.ascii	"uint32_t\000"
 1201      33325F74 
 1201      00
 1202              	.LASF7:
 1203 026a 6C6F6E67 		.ascii	"long int\000"
 1203      20696E74 
 1203      00
 1204              	.LASF2:
 1205 0273 6C6F6E67 		.ascii	"long double\000"
 1205      20646F75 
 1205      626C6500 
 1206              	.LASF3:
 1207 027f 7369676E 		.ascii	"signed char\000"
ARM GAS  C:\Users\DEVELO~1\AppData\Local\Temp\ccwOF1Wo.s 			page 24


 1207      65642063 
 1207      68617200 
 1208              	.LASF16:
 1209 028b 5F426F6F 		.ascii	"_Bool\000"
 1209      6C00
 1210              	.LASF33:
 1211 0291 494F4275 		.ascii	"IOBus\000"
 1211      7300
 1212              		.ident	"GCC: (Arm GNU Toolchain 11.3.Rel1) 11.3.1 20220712"
ARM GAS  C:\Users\DEVELO~1\AppData\Local\Temp\ccwOF1Wo.s 			page 25


DEFINED SYMBOLS
                            *ABS*:00000000 hal_pal.c
C:\Users\DEVELO~1\AppData\Local\Temp\ccwOF1Wo.s:19     .text.palReadBus:00000000 $t
C:\Users\DEVELO~1\AppData\Local\Temp\ccwOF1Wo.s:26     .text.palReadBus:00000000 palReadBus
C:\Users\DEVELO~1\AppData\Local\Temp\ccwOF1Wo.s:53     .text.palWriteBus:00000000 $t
C:\Users\DEVELO~1\AppData\Local\Temp\ccwOF1Wo.s:60     .text.palWriteBus:00000000 palWriteBus
C:\Users\DEVELO~1\AppData\Local\Temp\ccwOF1Wo.s:110    .text.palSetBusMode:00000000 $t
C:\Users\DEVELO~1\AppData\Local\Temp\ccwOF1Wo.s:117    .text.palSetBusMode:00000000 palSetBusMode

UNDEFINED SYMBOLS
_pal_lld_setgroupmode
