ARM GAS  C:\Users\DEVELO~1\AppData\Local\Temp\ccjuHd8c.s 			page 1


   1              		.cpu cortex-m7
   2              		.arch armv7e-m
   3              		.fpu fpv5-d16
   4              		.eabi_attribute 28, 1
   5              		.eabi_attribute 20, 1
   6              		.eabi_attribute 21, 1
   7              		.eabi_attribute 23, 3
   8              		.eabi_attribute 24, 1
   9              		.eabi_attribute 25, 1
  10              		.eabi_attribute 26, 1
  11              		.eabi_attribute 30, 2
  12              		.eabi_attribute 34, 1
  13              		.eabi_attribute 18, 4
  14              		.file	"hal_pwm.c"
  15              		.text
  16              	.Ltext0:
  17              		.cfi_sections	.debug_frame
  18              		.section	.text.pwmInit,"ax",%progbits
  19              		.align	1
  20              		.p2align 2,,3
  21              		.global	pwmInit
  22              		.syntax unified
  23              		.thumb
  24              		.thumb_func
  25              		.type	pwmInit, %function
  26              	pwmInit:
  27              	.LFB448:
  28              		.file 1 "./docs/ChibiOS/os/hal/src/hal_pwm.c"
  29              		.loc 1 56 20 view -0
  30              		.cfi_startproc
  31              		@ args = 0, pretend = 0, frame = 0
  32              		@ frame_needed = 0, uses_anonymous_args = 0
  33              		@ link register save eliminated.
  34              		.loc 1 58 3 view .LVU1
  35 0000 FFF7FEBF 		b	pwm_lld_init
  36              	.LVL0:
  37              		.cfi_endproc
  38              	.LFE448:
  39              		.size	pwmInit, .-pwmInit
  40              		.section	.text.pwmObjectInit,"ax",%progbits
  41              		.align	1
  42              		.p2align 2,,3
  43              		.global	pwmObjectInit
  44              		.syntax unified
  45              		.thumb
  46              		.thumb_func
  47              		.type	pwmObjectInit, %function
  48              	pwmObjectInit:
  49              	.LVL1:
  50              	.LFB449:
  51              		.loc 1 68 37 view -0
  52              		.cfi_startproc
  53              		@ args = 0, pretend = 0, frame = 0
  54              		@ frame_needed = 0, uses_anonymous_args = 0
  55              		@ link register save eliminated.
  56              		.loc 1 70 3 view .LVU3
  57              		.loc 1 71 18 is_stmt 0 view .LVU4
ARM GAS  C:\Users\DEVELO~1\AppData\Local\Temp\ccjuHd8c.s 			page 2


  58 0000 0023     		movs	r3, #0
  59              		.loc 1 70 18 view .LVU5
  60 0002 0122     		movs	r2, #1
  61              		.loc 1 71 18 view .LVU6
  62 0004 4360     		str	r3, [r0, #4]
  63              		.loc 1 70 18 view .LVU7
  64 0006 0270     		strb	r2, [r0]
  65              		.loc 1 71 3 is_stmt 1 view .LVU8
  66              		.loc 1 72 3 view .LVU9
  67              		.loc 1 72 18 is_stmt 0 view .LVU10
  68 0008 C360     		str	r3, [r0, #12]
  69              		.loc 1 73 3 is_stmt 1 view .LVU11
  70              		.loc 1 73 18 is_stmt 0 view .LVU12
  71 000a 0374     		strb	r3, [r0, #16]
  72              		.loc 1 77 1 view .LVU13
  73 000c 7047     		bx	lr
  74              		.cfi_endproc
  75              	.LFE449:
  76              		.size	pwmObjectInit, .-pwmObjectInit
  77 000e 00BF     		.section	.text.pwmStart,"ax",%progbits
  78              		.align	1
  79              		.p2align 2,,3
  80              		.global	pwmStart
  81              		.syntax unified
  82              		.thumb
  83              		.thumb_func
  84              		.type	pwmStart, %function
  85              	pwmStart:
  86              	.LVL2:
  87              	.LFB450:
  88              		.loc 1 90 58 is_stmt 1 view -0
  89              		.cfi_startproc
  90              		@ args = 0, pretend = 0, frame = 0
  91              		@ frame_needed = 0, uses_anonymous_args = 0
  92              		.loc 1 91 3 view .LVU15
  93              		.loc 1 93 3 view .LVU16
  94              		.loc 1 93 3 view .LVU17
  95              		.loc 1 93 3 view .LVU18
  96              		.loc 1 95 3 view .LVU19
  97              	.LBB141:
  98              	.LBI141:
  99              		.file 2 "./docs/ChibiOS/os/hal/osal/rt-nil/osal.h"
 100              		.loc 2 573 20 view .LVU20
 101              		.loc 2 575 3 view .LVU21
 102              	.LBB142:
 103              	.LBI142:
 104              		.file 3 "./docs/ChibiOS/os/rt/include/chsys.h"
 105              		.loc 3 372 20 view .LVU22
 106              		.loc 3 374 3 view .LVU23
 107              	.LBB143:
 108              	.LBI143:
 109              		.file 4 "./docs/ChibiOS/os/common/ports/ARMv7-M/chcore.h"
 110              		.loc 4 840 27 view .LVU24
 111              		.loc 4 848 3 view .LVU25
 112              	.LBB144:
 113              	.LBI144:
 114              		.file 5 "./docs/ChibiOS/os/common/ext/ARM/CMSIS/Core/Include/cmsis_gcc.h"
ARM GAS  C:\Users\DEVELO~1\AppData\Local\Temp\ccjuHd8c.s 			page 3


 115              		.loc 5 491 27 view .LVU26
 116              	.LBB145:
 117              		.loc 5 493 3 view .LVU27
 118              	.LBE145:
 119              	.LBE144:
 120              	.LBE143:
 121              	.LBE142:
 122              	.LBE141:
 123              		.loc 1 90 58 is_stmt 0 view .LVU28
 124 0000 38B5     		push	{r3, r4, r5, lr}
 125              		.cfi_def_cfa_offset 16
 126              		.cfi_offset 3, -16
 127              		.cfi_offset 4, -12
 128              		.cfi_offset 5, -8
 129              		.cfi_offset 14, -4
 130              	.LBB154:
 131              	.LBB152:
 132              	.LBB150:
 133              	.LBB148:
 134              	.LBB146:
 135              		.loc 5 493 3 view .LVU29
 136 0002 3023     		movs	r3, #48
 137              	.LBE146:
 138              	.LBE148:
 139              	.LBE150:
 140              	.LBE152:
 141              	.LBE154:
 142              		.loc 1 90 58 view .LVU30
 143 0004 0446     		mov	r4, r0
 144              	.LBB155:
 145              	.LBB153:
 146              	.LBB151:
 147              	.LBB149:
 148              	.LBB147:
 149              		.loc 5 493 3 view .LVU31
 150              		.syntax unified
 151              	@ 493 "./docs/ChibiOS/os/common/ext/ARM/CMSIS/Core/Include/cmsis_gcc.h" 1
 152 0006 83F31188 		MSR basepri, r3
 153              	@ 0 "" 2
 154              	.LVL3:
 155              		.loc 5 493 3 view .LVU32
 156              		.thumb
 157              		.syntax unified
 158              	.LBE147:
 159              	.LBE149:
 160              	.LBE151:
 161              		.loc 3 375 35 is_stmt 1 view .LVU33
 162              		.loc 3 376 21 view .LVU34
 163              	.LBE153:
 164              	.LBE155:
 165              		.loc 1 96 3 view .LVU35
 166              		.loc 1 96 3 view .LVU36
 167              		.loc 1 96 3 view .LVU37
 168              		.loc 1 99 3 view .LVU38
 169              		.loc 1 101 17 is_stmt 0 view .LVU39
 170 000a 0025     		movs	r5, #0
 171              		.loc 1 100 16 view .LVU40
ARM GAS  C:\Users\DEVELO~1\AppData\Local\Temp\ccjuHd8c.s 			page 4


 172 000c 4B68     		ldr	r3, [r1, #4]
 173              		.loc 1 101 17 view .LVU41
 174 000e C560     		str	r5, [r0, #12]
 175              		.loc 1 100 16 view .LVU42
 176 0010 C0E90113 		strd	r1, r3, [r0, #4]
 177              		.loc 1 101 3 is_stmt 1 view .LVU43
 178              		.loc 1 112 3 view .LVU44
 179 0014 FFF7FEFF 		bl	pwm_lld_start
 180              	.LVL4:
 181              		.loc 1 113 3 view .LVU45
 182              		.loc 1 113 15 is_stmt 0 view .LVU46
 183 0018 0223     		movs	r3, #2
 184 001a 2370     		strb	r3, [r4]
 185              		.loc 1 114 3 is_stmt 1 view .LVU47
 186              	.LVL5:
 187              		.loc 1 117 3 view .LVU48
 188              	.LBB156:
 189              	.LBI156:
 190              		.loc 2 584 20 view .LVU49
 191              		.loc 2 586 3 view .LVU50
 192              	.LBB157:
 193              	.LBI157:
 194              		.loc 3 386 20 view .LVU51
 195              	.LBB158:
 196              		.loc 3 388 23 view .LVU52
 197              		.loc 3 389 34 view .LVU53
 198              		.loc 3 395 3 view .LVU54
 199              		.loc 3 395 3 view .LVU55
 200              		.loc 3 395 3 view .LVU56
 201              		.loc 3 399 3 view .LVU57
 202              	.LBB159:
 203              	.LBI159:
 204              		.loc 4 864 27 view .LVU58
 205              		.loc 4 867 3 view .LVU59
 206              	.LBB160:
 207              	.LBI160:
 208              		.loc 5 491 27 view .LVU60
 209              	.LBB161:
 210              		.loc 5 493 3 view .LVU61
 211              		.syntax unified
 212              	@ 493 "./docs/ChibiOS/os/common/ext/ARM/CMSIS/Core/Include/cmsis_gcc.h" 1
 213 001c 85F31188 		MSR basepri, r5
 214              	@ 0 "" 2
 215              	.LVL6:
 216              		.loc 5 493 3 is_stmt 0 view .LVU62
 217              		.thumb
 218              		.syntax unified
 219              	.LBE161:
 220              	.LBE160:
 221              	.LBE159:
 222              	.LBE158:
 223              	.LBE157:
 224              	.LBE156:
 225              		.loc 1 119 3 is_stmt 1 view .LVU63
 226              		.loc 1 120 1 is_stmt 0 view .LVU64
 227 0020 2846     		mov	r0, r5
 228 0022 38BD     		pop	{r3, r4, r5, pc}
ARM GAS  C:\Users\DEVELO~1\AppData\Local\Temp\ccjuHd8c.s 			page 5


 229              		.loc 1 120 1 view .LVU65
 230              		.cfi_endproc
 231              	.LFE450:
 232              		.size	pwmStart, .-pwmStart
 233              		.section	.text.pwmStop,"ax",%progbits
 234              		.align	1
 235              		.p2align 2,,3
 236              		.global	pwmStop
 237              		.syntax unified
 238              		.thumb
 239              		.thumb_func
 240              		.type	pwmStop, %function
 241              	pwmStop:
 242              	.LVL7:
 243              	.LFB451:
 244              		.loc 1 129 31 is_stmt 1 view -0
 245              		.cfi_startproc
 246              		@ args = 0, pretend = 0, frame = 0
 247              		@ frame_needed = 0, uses_anonymous_args = 0
 248              		.loc 1 131 3 view .LVU67
 249              		.loc 1 131 3 view .LVU68
 250              		.loc 1 131 3 view .LVU69
 251              		.loc 1 133 3 view .LVU70
 252              	.LBB162:
 253              	.LBI162:
 254              		.loc 2 573 20 view .LVU71
 255              		.loc 2 575 3 view .LVU72
 256              	.LBB163:
 257              	.LBI163:
 258              		.loc 3 372 20 view .LVU73
 259              		.loc 3 374 3 view .LVU74
 260              	.LBB164:
 261              	.LBI164:
 262              		.loc 4 840 27 view .LVU75
 263              		.loc 4 848 3 view .LVU76
 264              	.LBB165:
 265              	.LBI165:
 266              		.loc 5 491 27 view .LVU77
 267              	.LBB166:
 268              		.loc 5 493 3 view .LVU78
 269              	.LBE166:
 270              	.LBE165:
 271              	.LBE164:
 272              	.LBE163:
 273              	.LBE162:
 274              		.loc 1 129 31 is_stmt 0 view .LVU79
 275 0000 10B5     		push	{r4, lr}
 276              		.cfi_def_cfa_offset 8
 277              		.cfi_offset 4, -8
 278              		.cfi_offset 14, -4
 279              	.LBB175:
 280              	.LBB173:
 281              	.LBB171:
 282              	.LBB169:
 283              	.LBB167:
 284              		.loc 5 493 3 view .LVU80
 285 0002 3023     		movs	r3, #48
ARM GAS  C:\Users\DEVELO~1\AppData\Local\Temp\ccjuHd8c.s 			page 6


 286              	.LBE167:
 287              	.LBE169:
 288              	.LBE171:
 289              	.LBE173:
 290              	.LBE175:
 291              		.loc 1 129 31 view .LVU81
 292 0004 0446     		mov	r4, r0
 293              	.LBB176:
 294              	.LBB174:
 295              	.LBB172:
 296              	.LBB170:
 297              	.LBB168:
 298              		.loc 5 493 3 view .LVU82
 299              		.syntax unified
 300              	@ 493 "./docs/ChibiOS/os/common/ext/ARM/CMSIS/Core/Include/cmsis_gcc.h" 1
 301 0006 83F31188 		MSR basepri, r3
 302              	@ 0 "" 2
 303              	.LVL8:
 304              		.loc 5 493 3 view .LVU83
 305              		.thumb
 306              		.syntax unified
 307              	.LBE168:
 308              	.LBE170:
 309              	.LBE172:
 310              		.loc 3 375 35 is_stmt 1 view .LVU84
 311              		.loc 3 376 21 view .LVU85
 312              	.LBE174:
 313              	.LBE176:
 314              		.loc 1 135 3 view .LVU86
 315              		.loc 1 135 3 view .LVU87
 316              		.loc 1 135 3 view .LVU88
 317              		.loc 1 138 3 view .LVU89
 318 000a FFF7FEFF 		bl	pwm_lld_stop
 319              	.LVL9:
 320              		.loc 1 139 3 view .LVU90
 321              		.loc 1 139 17 is_stmt 0 view .LVU91
 322 000e 0023     		movs	r3, #0
 323              		.loc 1 141 17 view .LVU92
 324 0010 0122     		movs	r2, #1
 325              		.loc 1 139 17 view .LVU93
 326 0012 E360     		str	r3, [r4, #12]
 327              		.loc 1 140 3 is_stmt 1 view .LVU94
 328              		.loc 1 140 17 is_stmt 0 view .LVU95
 329 0014 6360     		str	r3, [r4, #4]
 330              		.loc 1 141 3 is_stmt 1 view .LVU96
 331              		.loc 1 141 17 is_stmt 0 view .LVU97
 332 0016 2270     		strb	r2, [r4]
 333              		.loc 1 143 3 is_stmt 1 view .LVU98
 334              	.LBB177:
 335              	.LBI177:
 336              		.loc 2 584 20 view .LVU99
 337              		.loc 2 586 3 view .LVU100
 338              	.LBB178:
 339              	.LBI178:
 340              		.loc 3 386 20 view .LVU101
 341              	.LBB179:
 342              		.loc 3 388 23 view .LVU102
ARM GAS  C:\Users\DEVELO~1\AppData\Local\Temp\ccjuHd8c.s 			page 7


 343              		.loc 3 389 34 view .LVU103
 344              		.loc 3 395 3 view .LVU104
 345              		.loc 3 395 3 view .LVU105
 346              		.loc 3 395 3 view .LVU106
 347              		.loc 3 399 3 view .LVU107
 348              	.LBB180:
 349              	.LBI180:
 350              		.loc 4 864 27 view .LVU108
 351              		.loc 4 867 3 view .LVU109
 352              	.LVL10:
 353              	.LBB181:
 354              	.LBI181:
 355              		.loc 5 491 27 view .LVU110
 356              	.LBB182:
 357              		.loc 5 493 3 view .LVU111
 358              		.syntax unified
 359              	@ 493 "./docs/ChibiOS/os/common/ext/ARM/CMSIS/Core/Include/cmsis_gcc.h" 1
 360 0018 83F31188 		MSR basepri, r3
 361              	@ 0 "" 2
 362              	.LVL11:
 363              		.loc 5 493 3 is_stmt 0 view .LVU112
 364              		.thumb
 365              		.syntax unified
 366              	.LBE182:
 367              	.LBE181:
 368              	.LBE180:
 369              	.LBE179:
 370              	.LBE178:
 371              	.LBE177:
 372              		.loc 1 144 1 view .LVU113
 373 001c 10BD     		pop	{r4, pc}
 374              		.loc 1 144 1 view .LVU114
 375              		.cfi_endproc
 376              	.LFE451:
 377              		.size	pwmStop, .-pwmStop
 378 001e 00BF     		.section	.text.pwmChangePeriod,"ax",%progbits
 379              		.align	1
 380              		.p2align 2,,3
 381              		.global	pwmChangePeriod
 382              		.syntax unified
 383              		.thumb
 384              		.thumb_func
 385              		.type	pwmChangePeriod, %function
 386              	pwmChangePeriod:
 387              	.LVL12:
 388              	.LFB452:
 389              		.loc 1 161 56 is_stmt 1 view -0
 390              		.cfi_startproc
 391              		@ args = 0, pretend = 0, frame = 0
 392              		@ frame_needed = 0, uses_anonymous_args = 0
 393              		@ link register save eliminated.
 394              		.loc 1 163 3 view .LVU116
 395              		.loc 1 163 3 view .LVU117
 396              		.loc 1 163 3 view .LVU118
 397              		.loc 1 165 3 view .LVU119
 398              	.LBB183:
 399              	.LBI183:
ARM GAS  C:\Users\DEVELO~1\AppData\Local\Temp\ccjuHd8c.s 			page 8


 400              		.loc 2 573 20 view .LVU120
 401              		.loc 2 575 3 view .LVU121
 402              	.LBB184:
 403              	.LBI184:
 404              		.loc 3 372 20 view .LVU122
 405              		.loc 3 374 3 view .LVU123
 406              	.LBB185:
 407              	.LBI185:
 408              		.loc 4 840 27 view .LVU124
 409              		.loc 4 848 3 view .LVU125
 410              	.LBB186:
 411              	.LBI186:
 412              		.loc 5 491 27 view .LVU126
 413              	.LBB187:
 414              		.loc 5 493 3 view .LVU127
 415              	.LBE187:
 416              	.LBE186:
 417              	.LBE185:
 418              	.LBE184:
 419              	.LBE183:
 420              		.loc 1 161 56 is_stmt 0 view .LVU128
 421 0000 10B4     		push	{r4}
 422              		.cfi_def_cfa_offset 4
 423              		.cfi_offset 4, -4
 424              	.LBB192:
 425              	.LBB191:
 426              	.LBB190:
 427              	.LBB189:
 428              	.LBB188:
 429              		.loc 5 493 3 view .LVU129
 430 0002 3023     		movs	r3, #48
 431              		.syntax unified
 432              	@ 493 "./docs/ChibiOS/os/common/ext/ARM/CMSIS/Core/Include/cmsis_gcc.h" 1
 433 0004 83F31188 		MSR basepri, r3
 434              	@ 0 "" 2
 435              	.LVL13:
 436              		.loc 5 493 3 view .LVU130
 437              		.thumb
 438              		.syntax unified
 439              	.LBE188:
 440              	.LBE189:
 441              	.LBE190:
 442              		.loc 3 375 35 is_stmt 1 view .LVU131
 443              		.loc 3 376 21 view .LVU132
 444              	.LBE191:
 445              	.LBE192:
 446              		.loc 1 166 3 view .LVU133
 447              		.loc 1 166 3 view .LVU134
 448              		.loc 1 166 3 view .LVU135
 449              		.loc 1 167 3 view .LVU136
 450 0008 C269     		ldr	r2, [r0, #28]
 451 000a 4C1E     		subs	r4, r1, #1
 452 000c 8160     		str	r1, [r0, #8]
 453              		.loc 1 167 3 view .LVU137
 454              	.LBB193:
 455              	.LBB194:
 456              	.LBB195:
ARM GAS  C:\Users\DEVELO~1\AppData\Local\Temp\ccjuHd8c.s 			page 9


 457              	.LBB196:
 458              	.LBB197:
 459              	.LBB198:
 460              		.loc 5 493 3 is_stmt 0 view .LVU138
 461 000e 0023     		movs	r3, #0
 462              	.LBE198:
 463              	.LBE197:
 464              	.LBE196:
 465              	.LBE195:
 466              	.LBE194:
 467              	.LBE193:
 468              		.loc 1 167 3 view .LVU139
 469 0010 D462     		str	r4, [r2, #44]
 470              		.loc 1 167 33 is_stmt 1 view .LVU140
 471              		.loc 1 168 3 view .LVU141
 472              	.LBB204:
 473              	.LBI193:
 474              		.loc 2 584 20 view .LVU142
 475              		.loc 2 586 3 view .LVU143
 476              	.LBB203:
 477              	.LBI194:
 478              		.loc 3 386 20 view .LVU144
 479              	.LBB202:
 480              		.loc 3 388 23 view .LVU145
 481              		.loc 3 389 34 view .LVU146
 482              		.loc 3 395 3 view .LVU147
 483              		.loc 3 395 3 view .LVU148
 484              		.loc 3 395 3 view .LVU149
 485              		.loc 3 399 3 view .LVU150
 486              	.LBB201:
 487              	.LBI196:
 488              		.loc 4 864 27 view .LVU151
 489              		.loc 4 867 3 view .LVU152
 490              	.LVL14:
 491              	.LBB200:
 492              	.LBI197:
 493              		.loc 5 491 27 view .LVU153
 494              	.LBB199:
 495              		.loc 5 493 3 view .LVU154
 496              		.syntax unified
 497              	@ 493 "./docs/ChibiOS/os/common/ext/ARM/CMSIS/Core/Include/cmsis_gcc.h" 1
 498 0012 83F31188 		MSR basepri, r3
 499              	@ 0 "" 2
 500              	.LVL15:
 501              		.loc 5 493 3 is_stmt 0 view .LVU155
 502              		.thumb
 503              		.syntax unified
 504              	.LBE199:
 505              	.LBE200:
 506              	.LBE201:
 507              	.LBE202:
 508              	.LBE203:
 509              	.LBE204:
 510              		.loc 1 169 1 view .LVU156
 511 0016 5DF8044B 		ldr	r4, [sp], #4
 512              		.cfi_restore 4
 513              		.cfi_def_cfa_offset 0
ARM GAS  C:\Users\DEVELO~1\AppData\Local\Temp\ccjuHd8c.s 			page 10


 514 001a 7047     		bx	lr
 515              		.cfi_endproc
 516              	.LFE452:
 517              		.size	pwmChangePeriod, .-pwmChangePeriod
 518              		.section	.text.pwmEnableChannel,"ax",%progbits
 519              		.align	1
 520              		.p2align 2,,3
 521              		.global	pwmEnableChannel
 522              		.syntax unified
 523              		.thumb
 524              		.thumb_func
 525              		.type	pwmEnableChannel, %function
 526              	pwmEnableChannel:
 527              	.LVL16:
 528              	.LFB453:
 529              		.loc 1 187 39 is_stmt 1 view -0
 530              		.cfi_startproc
 531              		@ args = 0, pretend = 0, frame = 0
 532              		@ frame_needed = 0, uses_anonymous_args = 0
 533              		.loc 1 189 3 view .LVU158
 534              		.loc 1 189 3 view .LVU159
 535              		.loc 1 189 3 view .LVU160
 536              		.loc 1 191 3 view .LVU161
 537              	.LBB205:
 538              	.LBI205:
 539              		.loc 2 573 20 view .LVU162
 540              		.loc 2 575 3 view .LVU163
 541              	.LBB206:
 542              	.LBI206:
 543              		.loc 3 372 20 view .LVU164
 544              		.loc 3 374 3 view .LVU165
 545              	.LBB207:
 546              	.LBI207:
 547              		.loc 4 840 27 view .LVU166
 548              		.loc 4 848 3 view .LVU167
 549              	.LBB208:
 550              	.LBI208:
 551              		.loc 5 491 27 view .LVU168
 552              	.LBB209:
 553              		.loc 5 493 3 view .LVU169
 554              	.LBE209:
 555              	.LBE208:
 556              	.LBE207:
 557              	.LBE206:
 558              	.LBE205:
 559              		.loc 1 187 39 is_stmt 0 view .LVU170
 560 0000 38B5     		push	{r3, r4, r5, lr}
 561              		.cfi_def_cfa_offset 16
 562              		.cfi_offset 3, -16
 563              		.cfi_offset 4, -12
 564              		.cfi_offset 5, -8
 565              		.cfi_offset 14, -4
 566              	.LBB214:
 567              	.LBB213:
 568              	.LBB212:
 569              	.LBB211:
 570              	.LBB210:
ARM GAS  C:\Users\DEVELO~1\AppData\Local\Temp\ccjuHd8c.s 			page 11


 571              		.loc 5 493 3 view .LVU171
 572 0002 3024     		movs	r4, #48
 573              		.syntax unified
 574              	@ 493 "./docs/ChibiOS/os/common/ext/ARM/CMSIS/Core/Include/cmsis_gcc.h" 1
 575 0004 84F31188 		MSR basepri, r4
 576              	@ 0 "" 2
 577              	.LVL17:
 578              		.loc 5 493 3 view .LVU172
 579              		.thumb
 580              		.syntax unified
 581              	.LBE210:
 582              	.LBE211:
 583              	.LBE212:
 584              		.loc 3 375 35 is_stmt 1 view .LVU173
 585              		.loc 3 376 21 view .LVU174
 586              	.LBE213:
 587              	.LBE214:
 588              		.loc 1 193 3 view .LVU175
 589              		.loc 1 193 3 view .LVU176
 590              		.loc 1 193 3 view .LVU177
 591              		.loc 1 195 3 view .LVU178
 592              		.loc 1 195 3 view .LVU179
 593 0008 0124     		movs	r4, #1
 594 000a C568     		ldr	r5, [r0, #12]
 595 000c 8C40     		lsls	r4, r4, r1
 596 000e 2C43     		orrs	r4, r4, r5
 597 0010 C460     		str	r4, [r0, #12]
 598              		.loc 1 195 3 view .LVU180
 599 0012 FFF7FEFF 		bl	pwm_lld_enable_channel
 600              	.LVL18:
 601              		.loc 1 195 3 view .LVU181
 602              		.loc 1 197 3 view .LVU182
 603              	.LBB215:
 604              	.LBI215:
 605              		.loc 2 584 20 view .LVU183
 606              		.loc 2 586 3 view .LVU184
 607              	.LBB216:
 608              	.LBI216:
 609              		.loc 3 386 20 view .LVU185
 610              	.LBB217:
 611              		.loc 3 388 23 view .LVU186
 612              		.loc 3 389 34 view .LVU187
 613              		.loc 3 395 3 view .LVU188
 614              		.loc 3 395 3 view .LVU189
 615              		.loc 3 395 3 view .LVU190
 616              		.loc 3 399 3 view .LVU191
 617              	.LBB218:
 618              	.LBI218:
 619              		.loc 4 864 27 view .LVU192
 620              		.loc 4 867 3 view .LVU193
 621              	.LBB219:
 622              	.LBI219:
 623              		.loc 5 491 27 view .LVU194
 624              	.LBB220:
 625              		.loc 5 493 3 view .LVU195
 626 0016 0023     		movs	r3, #0
 627              		.syntax unified
ARM GAS  C:\Users\DEVELO~1\AppData\Local\Temp\ccjuHd8c.s 			page 12


 628              	@ 493 "./docs/ChibiOS/os/common/ext/ARM/CMSIS/Core/Include/cmsis_gcc.h" 1
 629 0018 83F31188 		MSR basepri, r3
 630              	@ 0 "" 2
 631              	.LVL19:
 632              		.loc 5 493 3 is_stmt 0 view .LVU196
 633              		.thumb
 634              		.syntax unified
 635              	.LBE220:
 636              	.LBE219:
 637              	.LBE218:
 638              	.LBE217:
 639              	.LBE216:
 640              	.LBE215:
 641              		.loc 1 198 1 view .LVU197
 642 001c 38BD     		pop	{r3, r4, r5, pc}
 643              		.cfi_endproc
 644              	.LFE453:
 645              		.size	pwmEnableChannel, .-pwmEnableChannel
 646 001e 00BF     		.section	.text.pwmDisableChannel,"ax",%progbits
 647              		.align	1
 648              		.p2align 2,,3
 649              		.global	pwmDisableChannel
 650              		.syntax unified
 651              		.thumb
 652              		.thumb_func
 653              		.type	pwmDisableChannel, %function
 654              	pwmDisableChannel:
 655              	.LVL20:
 656              	.LFB454:
 657              		.loc 1 214 63 is_stmt 1 view -0
 658              		.cfi_startproc
 659              		@ args = 0, pretend = 0, frame = 0
 660              		@ frame_needed = 0, uses_anonymous_args = 0
 661              		.loc 1 216 3 view .LVU199
 662              		.loc 1 216 3 view .LVU200
 663              		.loc 1 216 3 view .LVU201
 664              		.loc 1 218 3 view .LVU202
 665              	.LBB221:
 666              	.LBI221:
 667              		.loc 2 573 20 view .LVU203
 668              		.loc 2 575 3 view .LVU204
 669              	.LBB222:
 670              	.LBI222:
 671              		.loc 3 372 20 view .LVU205
 672              		.loc 3 374 3 view .LVU206
 673              	.LBB223:
 674              	.LBI223:
 675              		.loc 4 840 27 view .LVU207
 676              		.loc 4 848 3 view .LVU208
 677              	.LBB224:
 678              	.LBI224:
 679              		.loc 5 491 27 view .LVU209
 680              	.LBB225:
 681              		.loc 5 493 3 view .LVU210
 682 0000 4FF0300C 		mov	ip, #48
 683              	.LBE225:
 684              	.LBE224:
ARM GAS  C:\Users\DEVELO~1\AppData\Local\Temp\ccjuHd8c.s 			page 13


 685              	.LBE223:
 686              	.LBE222:
 687              	.LBE221:
 688              		.loc 1 214 63 is_stmt 0 view .LVU211
 689 0004 08B5     		push	{r3, lr}
 690              		.cfi_def_cfa_offset 8
 691              		.cfi_offset 3, -8
 692              		.cfi_offset 14, -4
 693              	.LBB230:
 694              	.LBB229:
 695              	.LBB228:
 696              	.LBB227:
 697              	.LBB226:
 698              		.loc 5 493 3 view .LVU212
 699              		.syntax unified
 700              	@ 493 "./docs/ChibiOS/os/common/ext/ARM/CMSIS/Core/Include/cmsis_gcc.h" 1
 701 0006 8CF31188 		MSR basepri, ip
 702              	@ 0 "" 2
 703              	.LVL21:
 704              		.loc 5 493 3 view .LVU213
 705              		.thumb
 706              		.syntax unified
 707              	.LBE226:
 708              	.LBE227:
 709              	.LBE228:
 710              		.loc 3 375 35 is_stmt 1 view .LVU214
 711              		.loc 3 376 21 view .LVU215
 712              	.LBE229:
 713              	.LBE230:
 714              		.loc 1 220 3 view .LVU216
 715              		.loc 1 220 3 view .LVU217
 716              		.loc 1 220 3 view .LVU218
 717              		.loc 1 222 3 view .LVU219
 718              		.loc 1 222 3 view .LVU220
 719 000a 4FF0010C 		mov	ip, #1
 720 000e C268     		ldr	r2, [r0, #12]
 721 0010 0CFA01FC 		lsl	ip, ip, r1
 722 0014 22EA0C02 		bic	r2, r2, ip
 723 0018 C260     		str	r2, [r0, #12]
 724              		.loc 1 222 3 view .LVU221
 725 001a FFF7FEFF 		bl	pwm_lld_disable_channel
 726              	.LVL22:
 727              		.loc 1 222 3 view .LVU222
 728              		.loc 1 224 3 view .LVU223
 729              	.LBB231:
 730              	.LBI231:
 731              		.loc 2 584 20 view .LVU224
 732              		.loc 2 586 3 view .LVU225
 733              	.LBB232:
 734              	.LBI232:
 735              		.loc 3 386 20 view .LVU226
 736              	.LBB233:
 737              		.loc 3 388 23 view .LVU227
 738              		.loc 3 389 34 view .LVU228
 739              		.loc 3 395 3 view .LVU229
 740              		.loc 3 395 3 view .LVU230
 741              		.loc 3 395 3 view .LVU231
ARM GAS  C:\Users\DEVELO~1\AppData\Local\Temp\ccjuHd8c.s 			page 14


 742              		.loc 3 399 3 view .LVU232
 743              	.LBB234:
 744              	.LBI234:
 745              		.loc 4 864 27 view .LVU233
 746              		.loc 4 867 3 view .LVU234
 747              	.LBB235:
 748              	.LBI235:
 749              		.loc 5 491 27 view .LVU235
 750              	.LBB236:
 751              		.loc 5 493 3 view .LVU236
 752 001e 0023     		movs	r3, #0
 753              		.syntax unified
 754              	@ 493 "./docs/ChibiOS/os/common/ext/ARM/CMSIS/Core/Include/cmsis_gcc.h" 1
 755 0020 83F31188 		MSR basepri, r3
 756              	@ 0 "" 2
 757              	.LVL23:
 758              		.loc 5 493 3 is_stmt 0 view .LVU237
 759              		.thumb
 760              		.syntax unified
 761              	.LBE236:
 762              	.LBE235:
 763              	.LBE234:
 764              	.LBE233:
 765              	.LBE232:
 766              	.LBE231:
 767              		.loc 1 225 1 view .LVU238
 768 0024 08BD     		pop	{r3, pc}
 769              		.cfi_endproc
 770              	.LFE454:
 771              		.size	pwmDisableChannel, .-pwmDisableChannel
 772 0026 00BF     		.section	.text.pwmEnablePeriodicNotification,"ax",%progbits
 773              		.align	1
 774              		.p2align 2,,3
 775              		.global	pwmEnablePeriodicNotification
 776              		.syntax unified
 777              		.thumb
 778              		.thumb_func
 779              		.type	pwmEnablePeriodicNotification, %function
 780              	pwmEnablePeriodicNotification:
 781              	.LVL24:
 782              	.LFB455:
 783              		.loc 1 236 53 is_stmt 1 view -0
 784              		.cfi_startproc
 785              		@ args = 0, pretend = 0, frame = 0
 786              		@ frame_needed = 0, uses_anonymous_args = 0
 787              		.loc 1 238 3 view .LVU240
 788              		.loc 1 238 3 view .LVU241
 789              		.loc 1 238 3 view .LVU242
 790              		.loc 1 240 3 view .LVU243
 791              	.LBB237:
 792              	.LBI237:
 793              		.loc 2 573 20 view .LVU244
 794              		.loc 2 575 3 view .LVU245
 795              	.LBB238:
 796              	.LBI238:
 797              		.loc 3 372 20 view .LVU246
 798              		.loc 3 374 3 view .LVU247
ARM GAS  C:\Users\DEVELO~1\AppData\Local\Temp\ccjuHd8c.s 			page 15


 799              	.LBB239:
 800              	.LBI239:
 801              		.loc 4 840 27 view .LVU248
 802              		.loc 4 848 3 view .LVU249
 803              	.LBB240:
 804              	.LBI240:
 805              		.loc 5 491 27 view .LVU250
 806              	.LBB241:
 807              		.loc 5 493 3 view .LVU251
 808              	.LBE241:
 809              	.LBE240:
 810              	.LBE239:
 811              	.LBE238:
 812              	.LBE237:
 813              		.loc 1 236 53 is_stmt 0 view .LVU252
 814 0000 08B5     		push	{r3, lr}
 815              		.cfi_def_cfa_offset 8
 816              		.cfi_offset 3, -8
 817              		.cfi_offset 14, -4
 818              	.LBB246:
 819              	.LBB245:
 820              	.LBB244:
 821              	.LBB243:
 822              	.LBB242:
 823              		.loc 5 493 3 view .LVU253
 824 0002 3023     		movs	r3, #48
 825              		.syntax unified
 826              	@ 493 "./docs/ChibiOS/os/common/ext/ARM/CMSIS/Core/Include/cmsis_gcc.h" 1
 827 0004 83F31188 		MSR basepri, r3
 828              	@ 0 "" 2
 829              	.LVL25:
 830              		.loc 5 493 3 view .LVU254
 831              		.thumb
 832              		.syntax unified
 833              	.LBE242:
 834              	.LBE243:
 835              	.LBE244:
 836              		.loc 3 375 35 is_stmt 1 view .LVU255
 837              		.loc 3 376 21 view .LVU256
 838              	.LBE245:
 839              	.LBE246:
 840              		.loc 1 242 3 view .LVU257
 841              		.loc 1 242 3 view .LVU258
 842              		.loc 1 242 3 view .LVU259
 843              		.loc 1 243 3 view .LVU260
 844              		.loc 1 243 3 view .LVU261
 845              		.loc 1 243 3 view .LVU262
 846              		.loc 1 245 3 view .LVU263
 847 0008 FFF7FEFF 		bl	pwm_lld_enable_periodic_notification
 848              	.LVL26:
 849              		.loc 1 247 3 view .LVU264
 850              	.LBB247:
 851              	.LBI247:
 852              		.loc 2 584 20 view .LVU265
 853              		.loc 2 586 3 view .LVU266
 854              	.LBB248:
 855              	.LBI248:
ARM GAS  C:\Users\DEVELO~1\AppData\Local\Temp\ccjuHd8c.s 			page 16


 856              		.loc 3 386 20 view .LVU267
 857              	.LBB249:
 858              		.loc 3 388 23 view .LVU268
 859              		.loc 3 389 34 view .LVU269
 860              		.loc 3 395 3 view .LVU270
 861              		.loc 3 395 3 view .LVU271
 862              		.loc 3 395 3 view .LVU272
 863              		.loc 3 399 3 view .LVU273
 864              	.LBB250:
 865              	.LBI250:
 866              		.loc 4 864 27 view .LVU274
 867              		.loc 4 867 3 view .LVU275
 868              	.LBB251:
 869              	.LBI251:
 870              		.loc 5 491 27 view .LVU276
 871              	.LBB252:
 872              		.loc 5 493 3 view .LVU277
 873 000c 0023     		movs	r3, #0
 874              		.syntax unified
 875              	@ 493 "./docs/ChibiOS/os/common/ext/ARM/CMSIS/Core/Include/cmsis_gcc.h" 1
 876 000e 83F31188 		MSR basepri, r3
 877              	@ 0 "" 2
 878              	.LVL27:
 879              		.loc 5 493 3 is_stmt 0 view .LVU278
 880              		.thumb
 881              		.syntax unified
 882              	.LBE252:
 883              	.LBE251:
 884              	.LBE250:
 885              	.LBE249:
 886              	.LBE248:
 887              	.LBE247:
 888              		.loc 1 248 1 view .LVU279
 889 0012 08BD     		pop	{r3, pc}
 890              		.cfi_endproc
 891              	.LFE455:
 892              		.size	pwmEnablePeriodicNotification, .-pwmEnablePeriodicNotification
 893              		.section	.text.pwmDisablePeriodicNotification,"ax",%progbits
 894              		.align	1
 895              		.p2align 2,,3
 896              		.global	pwmDisablePeriodicNotification
 897              		.syntax unified
 898              		.thumb
 899              		.thumb_func
 900              		.type	pwmDisablePeriodicNotification, %function
 901              	pwmDisablePeriodicNotification:
 902              	.LVL28:
 903              	.LFB456:
 904              		.loc 1 259 54 is_stmt 1 view -0
 905              		.cfi_startproc
 906              		@ args = 0, pretend = 0, frame = 0
 907              		@ frame_needed = 0, uses_anonymous_args = 0
 908              		.loc 1 261 3 view .LVU281
 909              		.loc 1 261 3 view .LVU282
 910              		.loc 1 261 3 view .LVU283
 911              		.loc 1 263 3 view .LVU284
 912              	.LBB253:
ARM GAS  C:\Users\DEVELO~1\AppData\Local\Temp\ccjuHd8c.s 			page 17


 913              	.LBI253:
 914              		.loc 2 573 20 view .LVU285
 915              		.loc 2 575 3 view .LVU286
 916              	.LBB254:
 917              	.LBI254:
 918              		.loc 3 372 20 view .LVU287
 919              		.loc 3 374 3 view .LVU288
 920              	.LBB255:
 921              	.LBI255:
 922              		.loc 4 840 27 view .LVU289
 923              		.loc 4 848 3 view .LVU290
 924              	.LBB256:
 925              	.LBI256:
 926              		.loc 5 491 27 view .LVU291
 927              	.LBB257:
 928              		.loc 5 493 3 view .LVU292
 929              	.LBE257:
 930              	.LBE256:
 931              	.LBE255:
 932              	.LBE254:
 933              	.LBE253:
 934              		.loc 1 259 54 is_stmt 0 view .LVU293
 935 0000 08B5     		push	{r3, lr}
 936              		.cfi_def_cfa_offset 8
 937              		.cfi_offset 3, -8
 938              		.cfi_offset 14, -4
 939              	.LBB262:
 940              	.LBB261:
 941              	.LBB260:
 942              	.LBB259:
 943              	.LBB258:
 944              		.loc 5 493 3 view .LVU294
 945 0002 3023     		movs	r3, #48
 946              		.syntax unified
 947              	@ 493 "./docs/ChibiOS/os/common/ext/ARM/CMSIS/Core/Include/cmsis_gcc.h" 1
 948 0004 83F31188 		MSR basepri, r3
 949              	@ 0 "" 2
 950              	.LVL29:
 951              		.loc 5 493 3 view .LVU295
 952              		.thumb
 953              		.syntax unified
 954              	.LBE258:
 955              	.LBE259:
 956              	.LBE260:
 957              		.loc 3 375 35 is_stmt 1 view .LVU296
 958              		.loc 3 376 21 view .LVU297
 959              	.LBE261:
 960              	.LBE262:
 961              		.loc 1 265 3 view .LVU298
 962              		.loc 1 265 3 view .LVU299
 963              		.loc 1 265 3 view .LVU300
 964              		.loc 1 266 3 view .LVU301
 965              		.loc 1 266 3 view .LVU302
 966              		.loc 1 266 3 view .LVU303
 967              		.loc 1 268 3 view .LVU304
 968 0008 FFF7FEFF 		bl	pwm_lld_disable_periodic_notification
 969              	.LVL30:
ARM GAS  C:\Users\DEVELO~1\AppData\Local\Temp\ccjuHd8c.s 			page 18


 970              		.loc 1 270 3 view .LVU305
 971              	.LBB263:
 972              	.LBI263:
 973              		.loc 2 584 20 view .LVU306
 974              		.loc 2 586 3 view .LVU307
 975              	.LBB264:
 976              	.LBI264:
 977              		.loc 3 386 20 view .LVU308
 978              	.LBB265:
 979              		.loc 3 388 23 view .LVU309
 980              		.loc 3 389 34 view .LVU310
 981              		.loc 3 395 3 view .LVU311
 982              		.loc 3 395 3 view .LVU312
 983              		.loc 3 395 3 view .LVU313
 984              		.loc 3 399 3 view .LVU314
 985              	.LBB266:
 986              	.LBI266:
 987              		.loc 4 864 27 view .LVU315
 988              		.loc 4 867 3 view .LVU316
 989              	.LBB267:
 990              	.LBI267:
 991              		.loc 5 491 27 view .LVU317
 992              	.LBB268:
 993              		.loc 5 493 3 view .LVU318
 994 000c 0023     		movs	r3, #0
 995              		.syntax unified
 996              	@ 493 "./docs/ChibiOS/os/common/ext/ARM/CMSIS/Core/Include/cmsis_gcc.h" 1
 997 000e 83F31188 		MSR basepri, r3
 998              	@ 0 "" 2
 999              	.LVL31:
 1000              		.loc 5 493 3 is_stmt 0 view .LVU319
 1001              		.thumb
 1002              		.syntax unified
 1003              	.LBE268:
 1004              	.LBE267:
 1005              	.LBE266:
 1006              	.LBE265:
 1007              	.LBE264:
 1008              	.LBE263:
 1009              		.loc 1 271 1 view .LVU320
 1010 0012 08BD     		pop	{r3, pc}
 1011              		.cfi_endproc
 1012              	.LFE456:
 1013              		.size	pwmDisablePeriodicNotification, .-pwmDisablePeriodicNotification
 1014              		.section	.text.pwmEnableChannelNotification,"ax",%progbits
 1015              		.align	1
 1016              		.p2align 2,,3
 1017              		.global	pwmEnableChannelNotification
 1018              		.syntax unified
 1019              		.thumb
 1020              		.thumb_func
 1021              		.type	pwmEnableChannelNotification, %function
 1022              	pwmEnableChannelNotification:
 1023              	.LVL32:
 1024              	.LFB457:
 1025              		.loc 1 284 74 is_stmt 1 view -0
 1026              		.cfi_startproc
ARM GAS  C:\Users\DEVELO~1\AppData\Local\Temp\ccjuHd8c.s 			page 19


 1027              		@ args = 0, pretend = 0, frame = 0
 1028              		@ frame_needed = 0, uses_anonymous_args = 0
 1029              		.loc 1 286 3 view .LVU322
 1030              		.loc 1 286 3 view .LVU323
 1031              		.loc 1 286 3 view .LVU324
 1032              		.loc 1 288 3 view .LVU325
 1033              	.LBB269:
 1034              	.LBI269:
 1035              		.loc 2 573 20 view .LVU326
 1036              		.loc 2 575 3 view .LVU327
 1037              	.LBB270:
 1038              	.LBI270:
 1039              		.loc 3 372 20 view .LVU328
 1040              		.loc 3 374 3 view .LVU329
 1041              	.LBB271:
 1042              	.LBI271:
 1043              		.loc 4 840 27 view .LVU330
 1044              		.loc 4 848 3 view .LVU331
 1045              	.LBB272:
 1046              	.LBI272:
 1047              		.loc 5 491 27 view .LVU332
 1048              	.LBB273:
 1049              		.loc 5 493 3 view .LVU333
 1050              	.LBE273:
 1051              	.LBE272:
 1052              	.LBE271:
 1053              	.LBE270:
 1054              	.LBE269:
 1055              		.loc 1 284 74 is_stmt 0 view .LVU334
 1056 0000 08B5     		push	{r3, lr}
 1057              		.cfi_def_cfa_offset 8
 1058              		.cfi_offset 3, -8
 1059              		.cfi_offset 14, -4
 1060              	.LBB278:
 1061              	.LBB277:
 1062              	.LBB276:
 1063              	.LBB275:
 1064              	.LBB274:
 1065              		.loc 5 493 3 view .LVU335
 1066 0002 3023     		movs	r3, #48
 1067              		.syntax unified
 1068              	@ 493 "./docs/ChibiOS/os/common/ext/ARM/CMSIS/Core/Include/cmsis_gcc.h" 1
 1069 0004 83F31188 		MSR basepri, r3
 1070              	@ 0 "" 2
 1071              	.LVL33:
 1072              		.loc 5 493 3 view .LVU336
 1073              		.thumb
 1074              		.syntax unified
 1075              	.LBE274:
 1076              	.LBE275:
 1077              	.LBE276:
 1078              		.loc 3 375 35 is_stmt 1 view .LVU337
 1079              		.loc 3 376 21 view .LVU338
 1080              	.LBE277:
 1081              	.LBE278:
 1082              		.loc 1 290 3 view .LVU339
 1083              		.loc 1 290 3 view .LVU340
ARM GAS  C:\Users\DEVELO~1\AppData\Local\Temp\ccjuHd8c.s 			page 20


 1084              		.loc 1 290 3 view .LVU341
 1085              		.loc 1 291 3 view .LVU342
 1086              		.loc 1 291 3 view .LVU343
 1087              		.loc 1 291 3 view .LVU344
 1088              		.loc 1 293 3 view .LVU345
 1089              		.loc 1 293 3 view .LVU346
 1090              		.loc 1 293 3 view .LVU347
 1091              		.loc 1 296 3 view .LVU348
 1092 0008 FFF7FEFF 		bl	pwm_lld_enable_channel_notification
 1093              	.LVL34:
 1094              		.loc 1 298 3 view .LVU349
 1095              	.LBB279:
 1096              	.LBI279:
 1097              		.loc 2 584 20 view .LVU350
 1098              		.loc 2 586 3 view .LVU351
 1099              	.LBB280:
 1100              	.LBI280:
 1101              		.loc 3 386 20 view .LVU352
 1102              	.LBB281:
 1103              		.loc 3 388 23 view .LVU353
 1104              		.loc 3 389 34 view .LVU354
 1105              		.loc 3 395 3 view .LVU355
 1106              		.loc 3 395 3 view .LVU356
 1107              		.loc 3 395 3 view .LVU357
 1108              		.loc 3 399 3 view .LVU358
 1109              	.LBB282:
 1110              	.LBI282:
 1111              		.loc 4 864 27 view .LVU359
 1112              		.loc 4 867 3 view .LVU360
 1113              	.LBB283:
 1114              	.LBI283:
 1115              		.loc 5 491 27 view .LVU361
 1116              	.LBB284:
 1117              		.loc 5 493 3 view .LVU362
 1118 000c 0023     		movs	r3, #0
 1119              		.syntax unified
 1120              	@ 493 "./docs/ChibiOS/os/common/ext/ARM/CMSIS/Core/Include/cmsis_gcc.h" 1
 1121 000e 83F31188 		MSR basepri, r3
 1122              	@ 0 "" 2
 1123              	.LVL35:
 1124              		.loc 5 493 3 is_stmt 0 view .LVU363
 1125              		.thumb
 1126              		.syntax unified
 1127              	.LBE284:
 1128              	.LBE283:
 1129              	.LBE282:
 1130              	.LBE281:
 1131              	.LBE280:
 1132              	.LBE279:
 1133              		.loc 1 299 1 view .LVU364
 1134 0012 08BD     		pop	{r3, pc}
 1135              		.cfi_endproc
 1136              	.LFE457:
 1137              		.size	pwmEnableChannelNotification, .-pwmEnableChannelNotification
 1138              		.section	.text.pwmDisableChannelNotification,"ax",%progbits
 1139              		.align	1
 1140              		.p2align 2,,3
ARM GAS  C:\Users\DEVELO~1\AppData\Local\Temp\ccjuHd8c.s 			page 21


 1141              		.global	pwmDisableChannelNotification
 1142              		.syntax unified
 1143              		.thumb
 1144              		.thumb_func
 1145              		.type	pwmDisableChannelNotification, %function
 1146              	pwmDisableChannelNotification:
 1147              	.LVL36:
 1148              	.LFB458:
 1149              		.loc 1 312 75 is_stmt 1 view -0
 1150              		.cfi_startproc
 1151              		@ args = 0, pretend = 0, frame = 0
 1152              		@ frame_needed = 0, uses_anonymous_args = 0
 1153              		.loc 1 314 3 view .LVU366
 1154              		.loc 1 314 3 view .LVU367
 1155              		.loc 1 314 3 view .LVU368
 1156              		.loc 1 316 3 view .LVU369
 1157              	.LBB285:
 1158              	.LBI285:
 1159              		.loc 2 573 20 view .LVU370
 1160              		.loc 2 575 3 view .LVU371
 1161              	.LBB286:
 1162              	.LBI286:
 1163              		.loc 3 372 20 view .LVU372
 1164              		.loc 3 374 3 view .LVU373
 1165              	.LBB287:
 1166              	.LBI287:
 1167              		.loc 4 840 27 view .LVU374
 1168              		.loc 4 848 3 view .LVU375
 1169              	.LBB288:
 1170              	.LBI288:
 1171              		.loc 5 491 27 view .LVU376
 1172              	.LBB289:
 1173              		.loc 5 493 3 view .LVU377
 1174              	.LBE289:
 1175              	.LBE288:
 1176              	.LBE287:
 1177              	.LBE286:
 1178              	.LBE285:
 1179              		.loc 1 312 75 is_stmt 0 view .LVU378
 1180 0000 08B5     		push	{r3, lr}
 1181              		.cfi_def_cfa_offset 8
 1182              		.cfi_offset 3, -8
 1183              		.cfi_offset 14, -4
 1184              	.LBB294:
 1185              	.LBB293:
 1186              	.LBB292:
 1187              	.LBB291:
 1188              	.LBB290:
 1189              		.loc 5 493 3 view .LVU379
 1190 0002 3023     		movs	r3, #48
 1191              		.syntax unified
 1192              	@ 493 "./docs/ChibiOS/os/common/ext/ARM/CMSIS/Core/Include/cmsis_gcc.h" 1
 1193 0004 83F31188 		MSR basepri, r3
 1194              	@ 0 "" 2
 1195              	.LVL37:
 1196              		.loc 5 493 3 view .LVU380
 1197              		.thumb
ARM GAS  C:\Users\DEVELO~1\AppData\Local\Temp\ccjuHd8c.s 			page 22


 1198              		.syntax unified
 1199              	.LBE290:
 1200              	.LBE291:
 1201              	.LBE292:
 1202              		.loc 3 375 35 is_stmt 1 view .LVU381
 1203              		.loc 3 376 21 view .LVU382
 1204              	.LBE293:
 1205              	.LBE294:
 1206              		.loc 1 318 3 view .LVU383
 1207              		.loc 1 318 3 view .LVU384
 1208              		.loc 1 318 3 view .LVU385
 1209              		.loc 1 319 3 view .LVU386
 1210              		.loc 1 319 3 view .LVU387
 1211              		.loc 1 319 3 view .LVU388
 1212              		.loc 1 321 3 view .LVU389
 1213              		.loc 1 321 3 view .LVU390
 1214              		.loc 1 321 3 view .LVU391
 1215              		.loc 1 324 3 view .LVU392
 1216 0008 FFF7FEFF 		bl	pwm_lld_disable_channel_notification
 1217              	.LVL38:
 1218              		.loc 1 326 3 view .LVU393
 1219              	.LBB295:
 1220              	.LBI295:
 1221              		.loc 2 584 20 view .LVU394
 1222              		.loc 2 586 3 view .LVU395
 1223              	.LBB296:
 1224              	.LBI296:
 1225              		.loc 3 386 20 view .LVU396
 1226              	.LBB297:
 1227              		.loc 3 388 23 view .LVU397
 1228              		.loc 3 389 34 view .LVU398
 1229              		.loc 3 395 3 view .LVU399
 1230              		.loc 3 395 3 view .LVU400
 1231              		.loc 3 395 3 view .LVU401
 1232              		.loc 3 399 3 view .LVU402
 1233              	.LBB298:
 1234              	.LBI298:
 1235              		.loc 4 864 27 view .LVU403
 1236              		.loc 4 867 3 view .LVU404
 1237              	.LBB299:
 1238              	.LBI299:
 1239              		.loc 5 491 27 view .LVU405
 1240              	.LBB300:
 1241              		.loc 5 493 3 view .LVU406
 1242 000c 0023     		movs	r3, #0
 1243              		.syntax unified
 1244              	@ 493 "./docs/ChibiOS/os/common/ext/ARM/CMSIS/Core/Include/cmsis_gcc.h" 1
 1245 000e 83F31188 		MSR basepri, r3
 1246              	@ 0 "" 2
 1247              	.LVL39:
 1248              		.loc 5 493 3 is_stmt 0 view .LVU407
 1249              		.thumb
 1250              		.syntax unified
 1251              	.LBE300:
 1252              	.LBE299:
 1253              	.LBE298:
 1254              	.LBE297:
ARM GAS  C:\Users\DEVELO~1\AppData\Local\Temp\ccjuHd8c.s 			page 23


 1255              	.LBE296:
 1256              	.LBE295:
 1257              		.loc 1 327 1 view .LVU408
 1258 0012 08BD     		pop	{r3, pc}
 1259              		.cfi_endproc
 1260              	.LFE458:
 1261              		.size	pwmDisableChannelNotification, .-pwmDisableChannelNotification
 1262              		.text
 1263              	.Letext0:
 1264              		.file 6 "c:\\chibistudio\\tools\\gnu tools arm embedded\\11.3 2022.08\\arm-none-eabi\\include\\mac
 1265              		.file 7 "c:\\chibistudio\\tools\\gnu tools arm embedded\\11.3 2022.08\\arm-none-eabi\\include\\sys
 1266              		.file 8 "./docs/ChibiOS/os/rt/include/chearly.h"
 1267              		.file 9 "./docs/ChibiOS/os/hal/ports/STM32/LLD/TIMv1/stm32_tim.h"
 1268              		.file 10 "./docs/ChibiOS/os/hal/include/hal_pwm.h"
 1269              		.file 11 "./docs/ChibiOS/os/hal/ports/STM32/LLD/TIMv1/hal_pwm_lld.h"
 1270              		.section	.debug_info,"",%progbits
 1271              	.Ldebug_info0:
 1272 0000 910F0000 		.4byte	0xf91
 1273 0004 0500     		.2byte	0x5
 1274 0006 01       		.byte	0x1
 1275 0007 04       		.byte	0x4
 1276 0008 00000000 		.4byte	.Ldebug_abbrev0
 1277 000c 1F       		.uleb128 0x1f
 1278 000d 2F000000 		.4byte	.LASF80
 1279 0011 1D       		.byte	0x1d
 1280 0012 01010000 		.4byte	.LASF81
 1281 0016 3B040000 		.4byte	.LASF82
 1282 001a 8A000000 		.4byte	.LLRL42
 1283 001e 00000000 		.4byte	0
 1284 0022 00000000 		.4byte	.Ldebug_line0
 1285 0026 20       		.uleb128 0x20
 1286 0027 04       		.byte	0x4
 1287 0028 05       		.byte	0x5
 1288 0029 696E7400 		.ascii	"int\000"
 1289 002d 07       		.uleb128 0x7
 1290 002e 04       		.byte	0x4
 1291 002f 07       		.byte	0x7
 1292 0030 42030000 		.4byte	.LASF0
 1293 0034 07       		.uleb128 0x7
 1294 0035 08       		.byte	0x8
 1295 0036 05       		.byte	0x5
 1296 0037 17020000 		.4byte	.LASF1
 1297 003b 07       		.uleb128 0x7
 1298 003c 08       		.byte	0x8
 1299 003d 04       		.byte	0x4
 1300 003e 00000000 		.4byte	.LASF2
 1301 0042 07       		.uleb128 0x7
 1302 0043 01       		.byte	0x1
 1303 0044 06       		.byte	0x6
 1304 0045 16030000 		.4byte	.LASF3
 1305 0049 0B       		.uleb128 0xb
 1306 004a 55020000 		.4byte	.LASF7
 1307 004e 06       		.byte	0x6
 1308 004f 2B       		.byte	0x2b
 1309 0050 18       		.byte	0x18
 1310 0051 55000000 		.4byte	0x55
 1311 0055 07       		.uleb128 0x7
ARM GAS  C:\Users\DEVELO~1\AppData\Local\Temp\ccjuHd8c.s 			page 24


 1312 0056 01       		.byte	0x1
 1313 0057 08       		.byte	0x8
 1314 0058 A1020000 		.4byte	.LASF4
 1315 005c 07       		.uleb128 0x7
 1316 005d 02       		.byte	0x2
 1317 005e 05       		.byte	0x5
 1318 005f 62010000 		.4byte	.LASF5
 1319 0063 07       		.uleb128 0x7
 1320 0064 02       		.byte	0x2
 1321 0065 07       		.byte	0x7
 1322 0066 84030000 		.4byte	.LASF6
 1323 006a 0B       		.uleb128 0xb
 1324 006b 85040000 		.4byte	.LASF8
 1325 006f 06       		.byte	0x6
 1326 0070 4D       		.byte	0x4d
 1327 0071 18       		.byte	0x18
 1328 0072 76000000 		.4byte	0x76
 1329 0076 07       		.uleb128 0x7
 1330 0077 04       		.byte	0x4
 1331 0078 05       		.byte	0x5
 1332 0079 37020000 		.4byte	.LASF9
 1333 007d 0B       		.uleb128 0xb
 1334 007e 30040000 		.4byte	.LASF10
 1335 0082 06       		.byte	0x6
 1336 0083 4F       		.byte	0x4f
 1337 0084 19       		.byte	0x19
 1338 0085 89000000 		.4byte	0x89
 1339 0089 07       		.uleb128 0x7
 1340 008a 04       		.byte	0x4
 1341 008b 07       		.byte	0x7
 1342 008c 13040000 		.4byte	.LASF11
 1343 0090 07       		.uleb128 0x7
 1344 0091 08       		.byte	0x8
 1345 0092 07       		.byte	0x7
 1346 0093 22030000 		.4byte	.LASF12
 1347 0097 0B       		.uleb128 0xb
 1348 0098 B6010000 		.4byte	.LASF13
 1349 009c 07       		.byte	0x7
 1350 009d 18       		.byte	0x18
 1351 009e 13       		.byte	0x13
 1352 009f 49000000 		.4byte	0x49
 1353 00a3 0B       		.uleb128 0xb
 1354 00a4 D5030000 		.4byte	.LASF14
 1355 00a8 07       		.byte	0x7
 1356 00a9 2C       		.byte	0x2c
 1357 00aa 13       		.byte	0x13
 1358 00ab 6A000000 		.4byte	0x6a
 1359 00af 0B       		.uleb128 0xb
 1360 00b0 39030000 		.4byte	.LASF15
 1361 00b4 07       		.byte	0x7
 1362 00b5 30       		.byte	0x30
 1363 00b6 14       		.byte	0x14
 1364 00b7 7D000000 		.4byte	0x7d
 1365 00bb 18       		.uleb128 0x18
 1366 00bc AF000000 		.4byte	0xaf
 1367 00c0 0B       		.uleb128 0xb
 1368 00c1 1B050000 		.4byte	.LASF16
ARM GAS  C:\Users\DEVELO~1\AppData\Local\Temp\ccjuHd8c.s 			page 25


 1369 00c5 08       		.byte	0x8
 1370 00c6 58       		.byte	0x58
 1371 00c7 19       		.byte	0x19
 1372 00c8 A3000000 		.4byte	0xa3
 1373 00cc 07       		.uleb128 0x7
 1374 00cd 01       		.byte	0x1
 1375 00ce 08       		.byte	0x8
 1376 00cf 32020000 		.4byte	.LASF17
 1377 00d3 0A       		.uleb128 0xa
 1378 00d4 CC000000 		.4byte	0xcc
 1379 00d8 08       		.uleb128 0x8
 1380 00d9 BB000000 		.4byte	0xbb
 1381 00dd E8000000 		.4byte	0xe8
 1382 00e1 09       		.uleb128 0x9
 1383 00e2 2D000000 		.4byte	0x2d
 1384 00e6 03       		.byte	0x3
 1385 00e7 00       		.byte	0
 1386 00e8 18       		.uleb128 0x18
 1387 00e9 D8000000 		.4byte	0xd8
 1388 00ed 08       		.uleb128 0x8
 1389 00ee BB000000 		.4byte	0xbb
 1390 00f2 FD000000 		.4byte	0xfd
 1391 00f6 09       		.uleb128 0x9
 1392 00f7 2D000000 		.4byte	0x2d
 1393 00fb 01       		.byte	0x1
 1394 00fc 00       		.byte	0
 1395 00fd 18       		.uleb128 0x18
 1396 00fe ED000000 		.4byte	0xed
 1397 0102 07       		.uleb128 0x7
 1398 0103 01       		.byte	0x1
 1399 0104 02       		.byte	0x2
 1400 0105 DD030000 		.4byte	.LASF18
 1401 0109 19       		.uleb128 0x19
 1402 010a 60       		.byte	0x60
 1403 010b 09       		.byte	0x9
 1404 010c F601     		.2byte	0x1f6
 1405 010e 29020000 		.4byte	0x229
 1406 0112 06       		.uleb128 0x6
 1407 0113 43523100 		.ascii	"CR1\000"
 1408 0117 09       		.byte	0x9
 1409 0118 F701     		.2byte	0x1f7
 1410 011a 19       		.byte	0x19
 1411 011b BB000000 		.4byte	0xbb
 1412 011f 00       		.byte	0
 1413 0120 06       		.uleb128 0x6
 1414 0121 43523200 		.ascii	"CR2\000"
 1415 0125 09       		.byte	0x9
 1416 0126 F801     		.2byte	0x1f8
 1417 0128 19       		.byte	0x19
 1418 0129 BB000000 		.4byte	0xbb
 1419 012d 04       		.byte	0x4
 1420 012e 02       		.uleb128 0x2
 1421 012f AF020000 		.4byte	.LASF19
 1422 0133 09       		.byte	0x9
 1423 0134 F901     		.2byte	0x1f9
 1424 0136 19       		.byte	0x19
 1425 0137 BB000000 		.4byte	0xbb
ARM GAS  C:\Users\DEVELO~1\AppData\Local\Temp\ccjuHd8c.s 			page 26


 1426 013b 08       		.byte	0x8
 1427 013c 02       		.uleb128 0x2
 1428 013d 59030000 		.4byte	.LASF20
 1429 0141 09       		.byte	0x9
 1430 0142 FA01     		.2byte	0x1fa
 1431 0144 19       		.byte	0x19
 1432 0145 BB000000 		.4byte	0xbb
 1433 0149 0C       		.byte	0xc
 1434 014a 06       		.uleb128 0x6
 1435 014b 535200   		.ascii	"SR\000"
 1436 014e 09       		.byte	0x9
 1437 014f FB01     		.2byte	0x1fb
 1438 0151 19       		.byte	0x19
 1439 0152 BB000000 		.4byte	0xbb
 1440 0156 10       		.byte	0x10
 1441 0157 06       		.uleb128 0x6
 1442 0158 45475200 		.ascii	"EGR\000"
 1443 015c 09       		.byte	0x9
 1444 015d FC01     		.2byte	0x1fc
 1445 015f 19       		.byte	0x19
 1446 0160 BB000000 		.4byte	0xbb
 1447 0164 14       		.byte	0x14
 1448 0165 02       		.uleb128 0x2
 1449 0166 8F020000 		.4byte	.LASF21
 1450 016a 09       		.byte	0x9
 1451 016b FD01     		.2byte	0x1fd
 1452 016d 19       		.byte	0x19
 1453 016e BB000000 		.4byte	0xbb
 1454 0172 18       		.byte	0x18
 1455 0173 02       		.uleb128 0x2
 1456 0174 DA000000 		.4byte	.LASF22
 1457 0178 09       		.byte	0x9
 1458 0179 FE01     		.2byte	0x1fe
 1459 017b 19       		.byte	0x19
 1460 017c BB000000 		.4byte	0xbb
 1461 0180 1C       		.byte	0x1c
 1462 0181 02       		.uleb128 0x2
 1463 0182 2A000000 		.4byte	.LASF23
 1464 0186 09       		.byte	0x9
 1465 0187 FF01     		.2byte	0x1ff
 1466 0189 19       		.byte	0x19
 1467 018a BB000000 		.4byte	0xbb
 1468 018e 20       		.byte	0x20
 1469 018f 06       		.uleb128 0x6
 1470 0190 434E5400 		.ascii	"CNT\000"
 1471 0194 09       		.byte	0x9
 1472 0195 0002     		.2byte	0x200
 1473 0197 19       		.byte	0x19
 1474 0198 BB000000 		.4byte	0xbb
 1475 019c 24       		.byte	0x24
 1476 019d 06       		.uleb128 0x6
 1477 019e 50534300 		.ascii	"PSC\000"
 1478 01a2 09       		.byte	0x9
 1479 01a3 0102     		.2byte	0x201
 1480 01a5 19       		.byte	0x19
 1481 01a6 BB000000 		.4byte	0xbb
 1482 01aa 28       		.byte	0x28
ARM GAS  C:\Users\DEVELO~1\AppData\Local\Temp\ccjuHd8c.s 			page 27


 1483 01ab 06       		.uleb128 0x6
 1484 01ac 41525200 		.ascii	"ARR\000"
 1485 01b0 09       		.byte	0x9
 1486 01b1 0202     		.2byte	0x202
 1487 01b3 19       		.byte	0x19
 1488 01b4 BB000000 		.4byte	0xbb
 1489 01b8 2C       		.byte	0x2c
 1490 01b9 06       		.uleb128 0x6
 1491 01ba 52435200 		.ascii	"RCR\000"
 1492 01be 09       		.byte	0x9
 1493 01bf 0302     		.2byte	0x203
 1494 01c1 19       		.byte	0x19
 1495 01c2 BB000000 		.4byte	0xbb
 1496 01c6 30       		.byte	0x30
 1497 01c7 06       		.uleb128 0x6
 1498 01c8 43435200 		.ascii	"CCR\000"
 1499 01cc 09       		.byte	0x9
 1500 01cd 0402     		.2byte	0x204
 1501 01cf 19       		.byte	0x19
 1502 01d0 E8000000 		.4byte	0xe8
 1503 01d4 34       		.byte	0x34
 1504 01d5 02       		.uleb128 0x2
 1505 01d6 D0030000 		.4byte	.LASF24
 1506 01da 09       		.byte	0x9
 1507 01db 0502     		.2byte	0x205
 1508 01dd 19       		.byte	0x19
 1509 01de BB000000 		.4byte	0xbb
 1510 01e2 44       		.byte	0x44
 1511 01e3 06       		.uleb128 0x6
 1512 01e4 44435200 		.ascii	"DCR\000"
 1513 01e8 09       		.byte	0x9
 1514 01e9 1302     		.2byte	0x213
 1515 01eb 19       		.byte	0x19
 1516 01ec BB000000 		.4byte	0xbb
 1517 01f0 48       		.byte	0x48
 1518 01f1 02       		.uleb128 0x2
 1519 01f2 CF000000 		.4byte	.LASF25
 1520 01f6 09       		.byte	0x9
 1521 01f7 1402     		.2byte	0x214
 1522 01f9 19       		.byte	0x19
 1523 01fa BB000000 		.4byte	0xbb
 1524 01fe 4C       		.byte	0x4c
 1525 01ff 06       		.uleb128 0x6
 1526 0200 4F5200   		.ascii	"OR\000"
 1527 0203 09       		.byte	0x9
 1528 0204 1502     		.2byte	0x215
 1529 0206 19       		.byte	0x19
 1530 0207 BB000000 		.4byte	0xbb
 1531 020b 50       		.byte	0x50
 1532 020c 02       		.uleb128 0x2
 1533 020d E0000000 		.4byte	.LASF26
 1534 0211 09       		.byte	0x9
 1535 0212 1602     		.2byte	0x216
 1536 0214 19       		.byte	0x19
 1537 0215 BB000000 		.4byte	0xbb
 1538 0219 54       		.byte	0x54
 1539 021a 02       		.uleb128 0x2
ARM GAS  C:\Users\DEVELO~1\AppData\Local\Temp\ccjuHd8c.s 			page 28


 1540 021b E6000000 		.4byte	.LASF27
 1541 021f 09       		.byte	0x9
 1542 0220 1702     		.2byte	0x217
 1543 0222 19       		.byte	0x19
 1544 0223 FD000000 		.4byte	0xfd
 1545 0227 58       		.byte	0x58
 1546 0228 00       		.byte	0
 1547 0229 11       		.uleb128 0x11
 1548 022a C4030000 		.4byte	.LASF28
 1549 022e 09       		.byte	0x9
 1550 022f 1902     		.2byte	0x219
 1551 0231 03       		.byte	0x3
 1552 0232 09010000 		.4byte	0x109
 1553 0236 21       		.uleb128 0x21
 1554 0237 07       		.byte	0x7
 1555 0238 01       		.byte	0x1
 1556 0239 55000000 		.4byte	0x55
 1557 023d 0A       		.byte	0xa
 1558 023e 4A       		.byte	0x4a
 1559 023f 0E       		.byte	0xe
 1560 0240 57020000 		.4byte	0x257
 1561 0244 1A       		.uleb128 0x1a
 1562 0245 B4020000 		.4byte	.LASF29
 1563 0249 00       		.byte	0
 1564 024a 1A       		.uleb128 0x1a
 1565 024b A1040000 		.4byte	.LASF30
 1566 024f 01       		.byte	0x1
 1567 0250 1A       		.uleb128 0x1a
 1568 0251 8F040000 		.4byte	.LASF31
 1569 0255 02       		.byte	0x2
 1570 0256 00       		.byte	0
 1571 0257 0B       		.uleb128 0xb
 1572 0258 25040000 		.4byte	.LASF32
 1573 025c 0A       		.byte	0xa
 1574 025d 4E       		.byte	0x4e
 1575 025e 03       		.byte	0x3
 1576 025f 36020000 		.4byte	0x236
 1577 0263 0B       		.uleb128 0xb
 1578 0264 4F030000 		.4byte	.LASF33
 1579 0268 0A       		.byte	0xa
 1580 0269 53       		.byte	0x53
 1581 026a 1A       		.byte	0x1a
 1582 026b 6F020000 		.4byte	0x26f
 1583 026f 22       		.uleb128 0x22
 1584 0270 4F030000 		.4byte	.LASF33
 1585 0274 20       		.byte	0x20
 1586 0275 0B       		.byte	0xb
 1587 0276 5803     		.2byte	0x358
 1588 0278 08       		.byte	0x8
 1589 0279 EE020000 		.4byte	0x2ee
 1590 027d 02       		.uleb128 0x2
 1591 027e D4000000 		.4byte	.LASF34
 1592 0282 0B       		.byte	0xb
 1593 0283 5C03     		.2byte	0x35c
 1594 0285 1D       		.byte	0x1d
 1595 0286 57020000 		.4byte	0x257
 1596 028a 00       		.byte	0
ARM GAS  C:\Users\DEVELO~1\AppData\Local\Temp\ccjuHd8c.s 			page 29


 1597 028b 02       		.uleb128 0x2
 1598 028c F3010000 		.4byte	.LASF35
 1599 0290 0B       		.byte	0xb
 1600 0291 6003     		.2byte	0x360
 1601 0293 1E       		.byte	0x1e
 1602 0294 04040000 		.4byte	0x404
 1603 0298 04       		.byte	0x4
 1604 0299 02       		.uleb128 0x2
 1605 029a 4E020000 		.4byte	.LASF36
 1606 029e 0B       		.byte	0xb
 1607 029f 6403     		.2byte	0x364
 1608 02a1 1D       		.byte	0x1d
 1609 02a2 36030000 		.4byte	0x336
 1610 02a6 08       		.byte	0x8
 1611 02a7 02       		.uleb128 0x2
 1612 02a8 99040000 		.4byte	.LASF37
 1613 02ac 0B       		.byte	0xb
 1614 02ad 6803     		.2byte	0x368
 1615 02af 1D       		.byte	0x1d
 1616 02b0 29030000 		.4byte	0x329
 1617 02b4 0C       		.byte	0xc
 1618 02b5 02       		.uleb128 0x2
 1619 02b6 59010000 		.4byte	.LASF38
 1620 02ba 0B       		.byte	0xb
 1621 02bb 6C03     		.2byte	0x36c
 1622 02bd 1D       		.byte	0x1d
 1623 02be 1C030000 		.4byte	0x31c
 1624 02c2 10       		.byte	0x10
 1625 02c3 02       		.uleb128 0x2
 1626 02c4 48020000 		.4byte	.LASF39
 1627 02c8 0B       		.byte	0xb
 1628 02c9 7403     		.2byte	0x374
 1629 02cb 1D       		.byte	0x1d
 1630 02cc AF000000 		.4byte	0xaf
 1631 02d0 14       		.byte	0x14
 1632 02d1 02       		.uleb128 0x2
 1633 02d2 0E020000 		.4byte	.LASF40
 1634 02d6 0B       		.byte	0xb
 1635 02d7 7803     		.2byte	0x378
 1636 02d9 1D       		.byte	0x1d
 1637 02da 02010000 		.4byte	0x102
 1638 02de 18       		.byte	0x18
 1639 02df 06       		.uleb128 0x6
 1640 02e0 74696D00 		.ascii	"tim\000"
 1641 02e4 0B       		.byte	0xb
 1642 02e5 7C03     		.2byte	0x37c
 1643 02e7 1E       		.byte	0x1e
 1644 02e8 09040000 		.4byte	0x409
 1645 02ec 1C       		.byte	0x1c
 1646 02ed 00       		.byte	0
 1647 02ee 0B       		.uleb128 0xb
 1648 02ef 0D050000 		.4byte	.LASF41
 1649 02f3 0A       		.byte	0xa
 1650 02f4 5A       		.byte	0x5a
 1651 02f5 10       		.byte	0x10
 1652 02f6 FA020000 		.4byte	0x2fa
 1653 02fa 17       		.uleb128 0x17
ARM GAS  C:\Users\DEVELO~1\AppData\Local\Temp\ccjuHd8c.s 			page 30


 1654 02fb FF020000 		.4byte	0x2ff
 1655 02ff 23       		.uleb128 0x23
 1656 0300 0A030000 		.4byte	0x30a
 1657 0304 05       		.uleb128 0x5
 1658 0305 0A030000 		.4byte	0x30a
 1659 0309 00       		.byte	0
 1660 030a 17       		.uleb128 0x17
 1661 030b 63020000 		.4byte	0x263
 1662 030f 11       		.uleb128 0x11
 1663 0310 E0040000 		.4byte	.LASF42
 1664 0314 0B       		.byte	0xb
 1665 0315 0603     		.2byte	0x306
 1666 0317 12       		.byte	0x12
 1667 0318 AF000000 		.4byte	0xaf
 1668 031c 11       		.uleb128 0x11
 1669 031d 33010000 		.4byte	.LASF43
 1670 0321 0B       		.byte	0xb
 1671 0322 0B03     		.2byte	0x30b
 1672 0324 11       		.byte	0x11
 1673 0325 97000000 		.4byte	0x97
 1674 0329 11       		.uleb128 0x11
 1675 032a EF030000 		.4byte	.LASF44
 1676 032e 0B       		.byte	0xb
 1677 032f 1003     		.2byte	0x310
 1678 0331 12       		.byte	0x12
 1679 0332 AF000000 		.4byte	0xaf
 1680 0336 11       		.uleb128 0x11
 1681 0337 EB000000 		.4byte	.LASF45
 1682 033b 0B       		.byte	0xb
 1683 033c 1503     		.2byte	0x315
 1684 033e 12       		.byte	0x12
 1685 033f AF000000 		.4byte	0xaf
 1686 0343 19       		.uleb128 0x19
 1687 0344 08       		.byte	0x8
 1688 0345 0B       		.byte	0xb
 1689 0346 1A03     		.2byte	0x31a
 1690 0348 69030000 		.4byte	0x369
 1691 034c 02       		.uleb128 0x2
 1692 034d 54010000 		.4byte	.LASF46
 1693 0351 0B       		.byte	0xb
 1694 0352 1E03     		.2byte	0x31e
 1695 0354 1D       		.byte	0x1d
 1696 0355 0F030000 		.4byte	0x30f
 1697 0359 00       		.byte	0
 1698 035a 02       		.uleb128 0x2
 1699 035b 21050000 		.4byte	.LASF47
 1700 035f 0B       		.byte	0xb
 1701 0360 2403     		.2byte	0x324
 1702 0362 1D       		.byte	0x1d
 1703 0363 EE020000 		.4byte	0x2ee
 1704 0367 04       		.byte	0x4
 1705 0368 00       		.byte	0
 1706 0369 11       		.uleb128 0x11
 1707 036a C1040000 		.4byte	.LASF48
 1708 036e 0B       		.byte	0xb
 1709 036f 2603     		.2byte	0x326
 1710 0371 03       		.byte	0x3
ARM GAS  C:\Users\DEVELO~1\AppData\Local\Temp\ccjuHd8c.s 			page 31


 1711 0372 43030000 		.4byte	0x343
 1712 0376 19       		.uleb128 0x19
 1713 0377 48       		.byte	0x48
 1714 0378 0B       		.byte	0xb
 1715 0379 2B03     		.2byte	0x32b
 1716 037b E2030000 		.4byte	0x3e2
 1717 037f 02       		.uleb128 0x2
 1718 0380 B7040000 		.4byte	.LASF49
 1719 0384 0B       		.byte	0xb
 1720 0385 3103     		.2byte	0x331
 1721 0387 1D       		.byte	0x1d
 1722 0388 AF000000 		.4byte	0xaf
 1723 038c 00       		.byte	0
 1724 038d 02       		.uleb128 0x2
 1725 038e 4E020000 		.4byte	.LASF36
 1726 0392 0B       		.byte	0xb
 1727 0393 3703     		.2byte	0x337
 1728 0395 1D       		.byte	0x1d
 1729 0396 36030000 		.4byte	0x336
 1730 039a 04       		.byte	0x4
 1731 039b 02       		.uleb128 0x2
 1732 039c 21050000 		.4byte	.LASF47
 1733 03a0 0B       		.byte	0xb
 1734 03a1 3D03     		.2byte	0x33d
 1735 03a3 1D       		.byte	0x1d
 1736 03a4 EE020000 		.4byte	0x2ee
 1737 03a8 08       		.byte	0x8
 1738 03a9 02       		.uleb128 0x2
 1739 03aa 59010000 		.4byte	.LASF38
 1740 03ae 0B       		.byte	0xb
 1741 03af 4103     		.2byte	0x341
 1742 03b1 1D       		.byte	0x1d
 1743 03b2 E2030000 		.4byte	0x3e2
 1744 03b6 0C       		.byte	0xc
 1745 03b7 06       		.uleb128 0x6
 1746 03b8 63723200 		.ascii	"cr2\000"
 1747 03bc 0B       		.byte	0xb
 1748 03bd 4703     		.2byte	0x347
 1749 03bf 1D       		.byte	0x1d
 1750 03c0 AF000000 		.4byte	0xaf
 1751 03c4 3C       		.byte	0x3c
 1752 03c5 02       		.uleb128 0x2
 1753 03c6 EA040000 		.4byte	.LASF50
 1754 03ca 0B       		.byte	0xb
 1755 03cb 4C03     		.2byte	0x34c
 1756 03cd 1D       		.byte	0x1d
 1757 03ce AF000000 		.4byte	0xaf
 1758 03d2 40       		.byte	0x40
 1759 03d3 02       		.uleb128 0x2
 1760 03d4 AA040000 		.4byte	.LASF51
 1761 03d8 0B       		.byte	0xb
 1762 03d9 5203     		.2byte	0x352
 1763 03db 1D       		.byte	0x1d
 1764 03dc AF000000 		.4byte	0xaf
 1765 03e0 44       		.byte	0x44
 1766 03e1 00       		.byte	0
 1767 03e2 08       		.uleb128 0x8
ARM GAS  C:\Users\DEVELO~1\AppData\Local\Temp\ccjuHd8c.s 			page 32


 1768 03e3 69030000 		.4byte	0x369
 1769 03e7 F2030000 		.4byte	0x3f2
 1770 03eb 09       		.uleb128 0x9
 1771 03ec 2D000000 		.4byte	0x2d
 1772 03f0 05       		.byte	0x5
 1773 03f1 00       		.byte	0
 1774 03f2 11       		.uleb128 0x11
 1775 03f3 85020000 		.4byte	.LASF52
 1776 03f7 0B       		.byte	0xb
 1777 03f8 5303     		.2byte	0x353
 1778 03fa 03       		.byte	0x3
 1779 03fb 76030000 		.4byte	0x376
 1780 03ff 0A       		.uleb128 0xa
 1781 0400 F2030000 		.4byte	0x3f2
 1782 0404 17       		.uleb128 0x17
 1783 0405 FF030000 		.4byte	0x3ff
 1784 0409 17       		.uleb128 0x17
 1785 040a 29020000 		.4byte	0x229
 1786 040e 0F       		.uleb128 0xf
 1787 040f 9F030000 		.4byte	.LASF53
 1788 0413 F003     		.2byte	0x3f0
 1789 0415 24040000 		.4byte	0x424
 1790 0419 05       		.uleb128 0x5
 1791 041a 0A030000 		.4byte	0x30a
 1792 041e 05       		.uleb128 0x5
 1793 041f 1C030000 		.4byte	0x31c
 1794 0423 00       		.byte	0
 1795 0424 0F       		.uleb128 0xf
 1796 0425 CF010000 		.4byte	.LASF54
 1797 0429 EE03     		.2byte	0x3ee
 1798 042b 3A040000 		.4byte	0x43a
 1799 042f 05       		.uleb128 0x5
 1800 0430 0A030000 		.4byte	0x30a
 1801 0434 05       		.uleb128 0x5
 1802 0435 1C030000 		.4byte	0x31c
 1803 0439 00       		.byte	0
 1804 043a 0F       		.uleb128 0xf
 1805 043b 5E030000 		.4byte	.LASF55
 1806 043f ED03     		.2byte	0x3ed
 1807 0441 4B040000 		.4byte	0x44b
 1808 0445 05       		.uleb128 0x5
 1809 0446 0A030000 		.4byte	0x30a
 1810 044a 00       		.byte	0
 1811 044b 0F       		.uleb128 0xf
 1812 044c DF020000 		.4byte	.LASF56
 1813 0450 EC03     		.2byte	0x3ec
 1814 0452 5C040000 		.4byte	0x45c
 1815 0456 05       		.uleb128 0x5
 1816 0457 0A030000 		.4byte	0x30a
 1817 045b 00       		.byte	0
 1818 045c 0F       		.uleb128 0xf
 1819 045d 5F020000 		.4byte	.LASF57
 1820 0461 EB03     		.2byte	0x3eb
 1821 0463 72040000 		.4byte	0x472
 1822 0467 05       		.uleb128 0x5
 1823 0468 0A030000 		.4byte	0x30a
 1824 046c 05       		.uleb128 0x5
ARM GAS  C:\Users\DEVELO~1\AppData\Local\Temp\ccjuHd8c.s 			page 33


 1825 046d 1C030000 		.4byte	0x31c
 1826 0471 00       		.byte	0
 1827 0472 0F       		.uleb128 0xf
 1828 0473 C8020000 		.4byte	.LASF58
 1829 0477 E803     		.2byte	0x3e8
 1830 0479 8D040000 		.4byte	0x48d
 1831 047d 05       		.uleb128 0x5
 1832 047e 0A030000 		.4byte	0x30a
 1833 0482 05       		.uleb128 0x5
 1834 0483 1C030000 		.4byte	0x31c
 1835 0487 05       		.uleb128 0x5
 1836 0488 36030000 		.4byte	0x336
 1837 048c 00       		.byte	0
 1838 048d 0F       		.uleb128 0xf
 1839 048e F4000000 		.4byte	.LASF59
 1840 0492 E703     		.2byte	0x3e7
 1841 0494 9E040000 		.4byte	0x49e
 1842 0498 05       		.uleb128 0x5
 1843 0499 0A030000 		.4byte	0x30a
 1844 049d 00       		.byte	0
 1845 049e 0F       		.uleb128 0xf
 1846 049f 77020000 		.4byte	.LASF60
 1847 04a3 E603     		.2byte	0x3e6
 1848 04a5 AF040000 		.4byte	0x4af
 1849 04a9 05       		.uleb128 0x5
 1850 04aa 0A030000 		.4byte	0x30a
 1851 04ae 00       		.byte	0
 1852 04af 24       		.uleb128 0x24
 1853 04b0 25020000 		.4byte	.LASF83
 1854 04b4 0B       		.byte	0xb
 1855 04b5 E503     		.2byte	0x3e5
 1856 04b7 08       		.byte	0x8
 1857 04b8 1B       		.uleb128 0x1b
 1858 04b9 EF040000 		.4byte	.LASF63
 1859 04bd 3801     		.2byte	0x138
 1860 04bf 00000000 		.4byte	.LFB458
 1861 04c3 14000000 		.4byte	.LFE458-.LFB458
 1862 04c7 01       		.uleb128 0x1
 1863 04c8 9C       		.byte	0x9c
 1864 04c9 D0050000 		.4byte	0x5d0
 1865 04cd 14       		.uleb128 0x14
 1866 04ce 00020000 		.4byte	.LASF61
 1867 04d2 3801     		.2byte	0x138
 1868 04d4 2F       		.byte	0x2f
 1869 04d5 0A030000 		.4byte	0x30a
 1870 04d9 10000000 		.4byte	.LLST37
 1871 04dd 0C000000 		.4byte	.LVUS37
 1872 04e1 14       		.uleb128 0x14
 1873 04e2 FB030000 		.4byte	.LASF62
 1874 04e6 3801     		.2byte	0x138
 1875 04e8 42       		.byte	0x42
 1876 04e9 1C030000 		.4byte	0x31c
 1877 04ed 27000000 		.4byte	.LLST38
 1878 04f1 23000000 		.4byte	.LVUS38
 1879 04f5 0C       		.uleb128 0xc
 1880 04f6 BF020000 		.4byte	.LASF65
 1881 04fa E0050000 		.4byte	0x5e0
ARM GAS  C:\Users\DEVELO~1\AppData\Local\Temp\ccjuHd8c.s 			page 34


 1882 04fe 1C       		.uleb128 0x1c
 1883 04ff 2B0F0000 		.4byte	0xf2b
 1884 0503 00000000 		.4byte	.LBI285
 1885 0507 05       		.byte	.LVU370
 1886 0508 7E000000 		.4byte	.LLRL39
 1887 050c 3C01     		.2byte	0x13c
 1888 050e 56050000 		.4byte	0x556
 1889 0512 01       		.uleb128 0x1
 1890 0513 610F0000 		.4byte	0xf61
 1891 0517 00000000 		.4byte	.LBI286
 1892 051b 07       		.byte	.LVU372
 1893 051c 7E000000 		.4byte	.LLRL39
 1894 0520 02       		.byte	0x2
 1895 0521 3F02     		.2byte	0x23f
 1896 0523 01       		.uleb128 0x1
 1897 0524 730F0000 		.4byte	0xf73
 1898 0528 00000000 		.4byte	.LBI287
 1899 052c 09       		.byte	.LVU374
 1900 052d 7E000000 		.4byte	.LLRL39
 1901 0531 03       		.byte	0x3
 1902 0532 7601     		.2byte	0x176
 1903 0534 01       		.uleb128 0x1
 1904 0535 7C0F0000 		.4byte	0xf7c
 1905 0539 00000000 		.4byte	.LBI288
 1906 053d 0B       		.byte	.LVU376
 1907 053e 7E000000 		.4byte	.LLRL39
 1908 0542 04       		.byte	0x4
 1909 0543 5003     		.2byte	0x350
 1910 0545 04       		.uleb128 0x4
 1911 0546 860F0000 		.4byte	0xf86
 1912 054a 3C000000 		.4byte	.LLST40
 1913 054e 3A000000 		.4byte	.LVUS40
 1914 0552 00       		.byte	0
 1915 0553 00       		.byte	0
 1916 0554 00       		.byte	0
 1917 0555 00       		.byte	0
 1918 0556 1D       		.uleb128 0x1d
 1919 0557 220F0000 		.4byte	0xf22
 1920 055b 0C000000 		.4byte	.LBI295
 1921 055f 01       		.byte	.LVU394
 1922 0560 0C000000 		.4byte	.LBB295
 1923 0564 06000000 		.4byte	.LBE295-.LBB295
 1924 0568 4601     		.2byte	0x146
 1925 056a BE050000 		.4byte	0x5be
 1926 056e 03       		.uleb128 0x3
 1927 056f 340F0000 		.4byte	0xf34
 1928 0573 0C000000 		.4byte	.LBI296
 1929 0577 03       		.byte	.LVU396
 1930 0578 0C000000 		.4byte	.LBB296
 1931 057c 06000000 		.4byte	.LBE296-.LBB296
 1932 0580 02       		.byte	0x2
 1933 0581 4A02     		.2byte	0x24a
 1934 0583 03       		.uleb128 0x3
 1935 0584 6A0F0000 		.4byte	0xf6a
 1936 0588 0C000000 		.4byte	.LBI298
 1937 058c 0A       		.byte	.LVU403
 1938 058d 0C000000 		.4byte	.LBB298
ARM GAS  C:\Users\DEVELO~1\AppData\Local\Temp\ccjuHd8c.s 			page 35


 1939 0591 06000000 		.4byte	.LBE298-.LBB298
 1940 0595 03       		.byte	0x3
 1941 0596 8F01     		.2byte	0x18f
 1942 0598 03       		.uleb128 0x3
 1943 0599 7C0F0000 		.4byte	0xf7c
 1944 059d 0C000000 		.4byte	.LBI299
 1945 05a1 0C       		.byte	.LVU405
 1946 05a2 0C000000 		.4byte	.LBB299
 1947 05a6 06000000 		.4byte	.LBE299-.LBB299
 1948 05aa 04       		.byte	0x4
 1949 05ab 6303     		.2byte	0x363
 1950 05ad 04       		.uleb128 0x4
 1951 05ae 860F0000 		.4byte	0xf86
 1952 05b2 49000000 		.4byte	.LLST41
 1953 05b6 47000000 		.4byte	.LVUS41
 1954 05ba 00       		.byte	0
 1955 05bb 00       		.byte	0
 1956 05bc 00       		.byte	0
 1957 05bd 00       		.byte	0
 1958 05be 10       		.uleb128 0x10
 1959 05bf 0C000000 		.4byte	.LVL38
 1960 05c3 0E040000 		.4byte	0x40e
 1961 05c7 0D       		.uleb128 0xd
 1962 05c8 01       		.uleb128 0x1
 1963 05c9 50       		.byte	0x50
 1964 05ca 03       		.uleb128 0x3
 1965 05cb A3       		.byte	0xa3
 1966 05cc 01       		.uleb128 0x1
 1967 05cd 50       		.byte	0x50
 1968 05ce 00       		.byte	0
 1969 05cf 00       		.byte	0
 1970 05d0 08       		.uleb128 0x8
 1971 05d1 D3000000 		.4byte	0xd3
 1972 05d5 E0050000 		.4byte	0x5e0
 1973 05d9 09       		.uleb128 0x9
 1974 05da 2D000000 		.4byte	0x2d
 1975 05de 1D       		.byte	0x1d
 1976 05df 00       		.byte	0
 1977 05e0 0A       		.uleb128 0xa
 1978 05e1 D0050000 		.4byte	0x5d0
 1979 05e5 1B       		.uleb128 0x1b
 1980 05e6 6C010000 		.4byte	.LASF64
 1981 05ea 1C01     		.2byte	0x11c
 1982 05ec 00000000 		.4byte	.LFB457
 1983 05f0 14000000 		.4byte	.LFE457-.LFB457
 1984 05f4 01       		.uleb128 0x1
 1985 05f5 9C       		.byte	0x9c
 1986 05f6 FD060000 		.4byte	0x6fd
 1987 05fa 14       		.uleb128 0x14
 1988 05fb 00020000 		.4byte	.LASF61
 1989 05ff 1C01     		.2byte	0x11c
 1990 0601 2E       		.byte	0x2e
 1991 0602 0A030000 		.4byte	0x30a
 1992 0606 57000000 		.4byte	.LLST32
 1993 060a 53000000 		.4byte	.LVUS32
 1994 060e 14       		.uleb128 0x14
 1995 060f FB030000 		.4byte	.LASF62
ARM GAS  C:\Users\DEVELO~1\AppData\Local\Temp\ccjuHd8c.s 			page 36


 1996 0613 1C01     		.2byte	0x11c
 1997 0615 41       		.byte	0x41
 1998 0616 1C030000 		.4byte	0x31c
 1999 061a 6E000000 		.4byte	.LLST33
 2000 061e 6A000000 		.4byte	.LVUS33
 2001 0622 0C       		.uleb128 0xc
 2002 0623 BF020000 		.4byte	.LASF65
 2003 0627 0D070000 		.4byte	0x70d
 2004 062b 1C       		.uleb128 0x1c
 2005 062c 2B0F0000 		.4byte	0xf2b
 2006 0630 00000000 		.4byte	.LBI269
 2007 0634 05       		.byte	.LVU326
 2008 0635 72000000 		.4byte	.LLRL34
 2009 0639 2001     		.2byte	0x120
 2010 063b 83060000 		.4byte	0x683
 2011 063f 01       		.uleb128 0x1
 2012 0640 610F0000 		.4byte	0xf61
 2013 0644 00000000 		.4byte	.LBI270
 2014 0648 07       		.byte	.LVU328
 2015 0649 72000000 		.4byte	.LLRL34
 2016 064d 02       		.byte	0x2
 2017 064e 3F02     		.2byte	0x23f
 2018 0650 01       		.uleb128 0x1
 2019 0651 730F0000 		.4byte	0xf73
 2020 0655 00000000 		.4byte	.LBI271
 2021 0659 09       		.byte	.LVU330
 2022 065a 72000000 		.4byte	.LLRL34
 2023 065e 03       		.byte	0x3
 2024 065f 7601     		.2byte	0x176
 2025 0661 01       		.uleb128 0x1
 2026 0662 7C0F0000 		.4byte	0xf7c
 2027 0666 00000000 		.4byte	.LBI272
 2028 066a 0B       		.byte	.LVU332
 2029 066b 72000000 		.4byte	.LLRL34
 2030 066f 04       		.byte	0x4
 2031 0670 5003     		.2byte	0x350
 2032 0672 04       		.uleb128 0x4
 2033 0673 860F0000 		.4byte	0xf86
 2034 0677 83000000 		.4byte	.LLST35
 2035 067b 81000000 		.4byte	.LVUS35
 2036 067f 00       		.byte	0
 2037 0680 00       		.byte	0
 2038 0681 00       		.byte	0
 2039 0682 00       		.byte	0
 2040 0683 1D       		.uleb128 0x1d
 2041 0684 220F0000 		.4byte	0xf22
 2042 0688 0C000000 		.4byte	.LBI279
 2043 068c 01       		.byte	.LVU350
 2044 068d 0C000000 		.4byte	.LBB279
 2045 0691 06000000 		.4byte	.LBE279-.LBB279
 2046 0695 2A01     		.2byte	0x12a
 2047 0697 EB060000 		.4byte	0x6eb
 2048 069b 03       		.uleb128 0x3
 2049 069c 340F0000 		.4byte	0xf34
 2050 06a0 0C000000 		.4byte	.LBI280
 2051 06a4 03       		.byte	.LVU352
 2052 06a5 0C000000 		.4byte	.LBB280
ARM GAS  C:\Users\DEVELO~1\AppData\Local\Temp\ccjuHd8c.s 			page 37


 2053 06a9 06000000 		.4byte	.LBE280-.LBB280
 2054 06ad 02       		.byte	0x2
 2055 06ae 4A02     		.2byte	0x24a
 2056 06b0 03       		.uleb128 0x3
 2057 06b1 6A0F0000 		.4byte	0xf6a
 2058 06b5 0C000000 		.4byte	.LBI282
 2059 06b9 0A       		.byte	.LVU359
 2060 06ba 0C000000 		.4byte	.LBB282
 2061 06be 06000000 		.4byte	.LBE282-.LBB282
 2062 06c2 03       		.byte	0x3
 2063 06c3 8F01     		.2byte	0x18f
 2064 06c5 03       		.uleb128 0x3
 2065 06c6 7C0F0000 		.4byte	0xf7c
 2066 06ca 0C000000 		.4byte	.LBI283
 2067 06ce 0C       		.byte	.LVU361
 2068 06cf 0C000000 		.4byte	.LBB283
 2069 06d3 06000000 		.4byte	.LBE283-.LBB283
 2070 06d7 04       		.byte	0x4
 2071 06d8 6303     		.2byte	0x363
 2072 06da 04       		.uleb128 0x4
 2073 06db 860F0000 		.4byte	0xf86
 2074 06df 90000000 		.4byte	.LLST36
 2075 06e3 8E000000 		.4byte	.LVUS36
 2076 06e7 00       		.byte	0
 2077 06e8 00       		.byte	0
 2078 06e9 00       		.byte	0
 2079 06ea 00       		.byte	0
 2080 06eb 10       		.uleb128 0x10
 2081 06ec 0C000000 		.4byte	.LVL34
 2082 06f0 24040000 		.4byte	0x424
 2083 06f4 0D       		.uleb128 0xd
 2084 06f5 01       		.uleb128 0x1
 2085 06f6 50       		.byte	0x50
 2086 06f7 03       		.uleb128 0x3
 2087 06f8 A3       		.byte	0xa3
 2088 06f9 01       		.uleb128 0x1
 2089 06fa 50       		.byte	0x50
 2090 06fb 00       		.byte	0
 2091 06fc 00       		.byte	0
 2092 06fd 08       		.uleb128 0x8
 2093 06fe D3000000 		.4byte	0xd3
 2094 0702 0D070000 		.4byte	0x70d
 2095 0706 09       		.uleb128 0x9
 2096 0707 2D000000 		.4byte	0x2d
 2097 070b 1C       		.byte	0x1c
 2098 070c 00       		.byte	0
 2099 070d 0A       		.uleb128 0xa
 2100 070e FD060000 		.4byte	0x6fd
 2101 0712 1B       		.uleb128 0x1b
 2102 0713 89010000 		.4byte	.LASF66
 2103 0717 0301     		.2byte	0x103
 2104 0719 00000000 		.4byte	.LFB456
 2105 071d 14000000 		.4byte	.LFE456-.LFB456
 2106 0721 01       		.uleb128 0x1
 2107 0722 9C       		.byte	0x9c
 2108 0723 16080000 		.4byte	0x816
 2109 0727 14       		.uleb128 0x14
ARM GAS  C:\Users\DEVELO~1\AppData\Local\Temp\ccjuHd8c.s 			page 38


 2110 0728 00020000 		.4byte	.LASF61
 2111 072c 0301     		.2byte	0x103
 2112 072e 30       		.byte	0x30
 2113 072f 0A030000 		.4byte	0x30a
 2114 0733 9E000000 		.4byte	.LLST28
 2115 0737 9A000000 		.4byte	.LVUS28
 2116 073b 0C       		.uleb128 0xc
 2117 073c BF020000 		.4byte	.LASF65
 2118 0740 26080000 		.4byte	0x826
 2119 0744 1C       		.uleb128 0x1c
 2120 0745 2B0F0000 		.4byte	0xf2b
 2121 0749 00000000 		.4byte	.LBI253
 2122 074d 05       		.byte	.LVU285
 2123 074e 66000000 		.4byte	.LLRL29
 2124 0752 0701     		.2byte	0x107
 2125 0754 9C070000 		.4byte	0x79c
 2126 0758 01       		.uleb128 0x1
 2127 0759 610F0000 		.4byte	0xf61
 2128 075d 00000000 		.4byte	.LBI254
 2129 0761 07       		.byte	.LVU287
 2130 0762 66000000 		.4byte	.LLRL29
 2131 0766 02       		.byte	0x2
 2132 0767 3F02     		.2byte	0x23f
 2133 0769 01       		.uleb128 0x1
 2134 076a 730F0000 		.4byte	0xf73
 2135 076e 00000000 		.4byte	.LBI255
 2136 0772 09       		.byte	.LVU289
 2137 0773 66000000 		.4byte	.LLRL29
 2138 0777 03       		.byte	0x3
 2139 0778 7601     		.2byte	0x176
 2140 077a 01       		.uleb128 0x1
 2141 077b 7C0F0000 		.4byte	0xf7c
 2142 077f 00000000 		.4byte	.LBI256
 2143 0783 0B       		.byte	.LVU291
 2144 0784 66000000 		.4byte	.LLRL29
 2145 0788 04       		.byte	0x4
 2146 0789 5003     		.2byte	0x350
 2147 078b 04       		.uleb128 0x4
 2148 078c 860F0000 		.4byte	0xf86
 2149 0790 B3000000 		.4byte	.LLST30
 2150 0794 B1000000 		.4byte	.LVUS30
 2151 0798 00       		.byte	0
 2152 0799 00       		.byte	0
 2153 079a 00       		.byte	0
 2154 079b 00       		.byte	0
 2155 079c 1D       		.uleb128 0x1d
 2156 079d 220F0000 		.4byte	0xf22
 2157 07a1 0C000000 		.4byte	.LBI263
 2158 07a5 01       		.byte	.LVU306
 2159 07a6 0C000000 		.4byte	.LBB263
 2160 07aa 06000000 		.4byte	.LBE263-.LBB263
 2161 07ae 0E01     		.2byte	0x10e
 2162 07b0 04080000 		.4byte	0x804
 2163 07b4 03       		.uleb128 0x3
 2164 07b5 340F0000 		.4byte	0xf34
 2165 07b9 0C000000 		.4byte	.LBI264
 2166 07bd 03       		.byte	.LVU308
ARM GAS  C:\Users\DEVELO~1\AppData\Local\Temp\ccjuHd8c.s 			page 39


 2167 07be 0C000000 		.4byte	.LBB264
 2168 07c2 06000000 		.4byte	.LBE264-.LBB264
 2169 07c6 02       		.byte	0x2
 2170 07c7 4A02     		.2byte	0x24a
 2171 07c9 03       		.uleb128 0x3
 2172 07ca 6A0F0000 		.4byte	0xf6a
 2173 07ce 0C000000 		.4byte	.LBI266
 2174 07d2 0A       		.byte	.LVU315
 2175 07d3 0C000000 		.4byte	.LBB266
 2176 07d7 06000000 		.4byte	.LBE266-.LBB266
 2177 07db 03       		.byte	0x3
 2178 07dc 8F01     		.2byte	0x18f
 2179 07de 03       		.uleb128 0x3
 2180 07df 7C0F0000 		.4byte	0xf7c
 2181 07e3 0C000000 		.4byte	.LBI267
 2182 07e7 0C       		.byte	.LVU317
 2183 07e8 0C000000 		.4byte	.LBB267
 2184 07ec 06000000 		.4byte	.LBE267-.LBB267
 2185 07f0 04       		.byte	0x4
 2186 07f1 6303     		.2byte	0x363
 2187 07f3 04       		.uleb128 0x4
 2188 07f4 860F0000 		.4byte	0xf86
 2189 07f8 C0000000 		.4byte	.LLST31
 2190 07fc BE000000 		.4byte	.LVUS31
 2191 0800 00       		.byte	0
 2192 0801 00       		.byte	0
 2193 0802 00       		.byte	0
 2194 0803 00       		.byte	0
 2195 0804 10       		.uleb128 0x10
 2196 0805 0C000000 		.4byte	.LVL30
 2197 0809 3A040000 		.4byte	0x43a
 2198 080d 0D       		.uleb128 0xd
 2199 080e 01       		.uleb128 0x1
 2200 080f 50       		.byte	0x50
 2201 0810 03       		.uleb128 0x3
 2202 0811 A3       		.byte	0xa3
 2203 0812 01       		.uleb128 0x1
 2204 0813 50       		.byte	0x50
 2205 0814 00       		.byte	0
 2206 0815 00       		.byte	0
 2207 0816 08       		.uleb128 0x8
 2208 0817 D3000000 		.4byte	0xd3
 2209 081b 26080000 		.4byte	0x826
 2210 081f 09       		.uleb128 0x9
 2211 0820 2D000000 		.4byte	0x2d
 2212 0824 1E       		.byte	0x1e
 2213 0825 00       		.byte	0
 2214 0826 0A       		.uleb128 0xa
 2215 0827 16080000 		.4byte	0x816
 2216 082b 12       		.uleb128 0x12
 2217 082c 0C000000 		.4byte	.LASF67
 2218 0830 EC       		.byte	0xec
 2219 0831 00000000 		.4byte	.LFB455
 2220 0835 14000000 		.4byte	.LFE455-.LFB455
 2221 0839 01       		.uleb128 0x1
 2222 083a 9C       		.byte	0x9c
 2223 083b 2B090000 		.4byte	0x92b
ARM GAS  C:\Users\DEVELO~1\AppData\Local\Temp\ccjuHd8c.s 			page 40


 2224 083f 0E       		.uleb128 0xe
 2225 0840 00020000 		.4byte	.LASF61
 2226 0844 EC       		.byte	0xec
 2227 0845 2F       		.byte	0x2f
 2228 0846 0A030000 		.4byte	0x30a
 2229 084a CE000000 		.4byte	.LLST24
 2230 084e CA000000 		.4byte	.LVUS24
 2231 0852 0C       		.uleb128 0xc
 2232 0853 BF020000 		.4byte	.LASF65
 2233 0857 E0050000 		.4byte	0x5e0
 2234 085b 13       		.uleb128 0x13
 2235 085c 2B0F0000 		.4byte	0xf2b
 2236 0860 00000000 		.4byte	.LBI237
 2237 0864 05       		.byte	.LVU244
 2238 0865 5A000000 		.4byte	.LLRL25
 2239 0869 F0       		.byte	0xf0
 2240 086a B2080000 		.4byte	0x8b2
 2241 086e 01       		.uleb128 0x1
 2242 086f 610F0000 		.4byte	0xf61
 2243 0873 00000000 		.4byte	.LBI238
 2244 0877 07       		.byte	.LVU246
 2245 0878 5A000000 		.4byte	.LLRL25
 2246 087c 02       		.byte	0x2
 2247 087d 3F02     		.2byte	0x23f
 2248 087f 01       		.uleb128 0x1
 2249 0880 730F0000 		.4byte	0xf73
 2250 0884 00000000 		.4byte	.LBI239
 2251 0888 09       		.byte	.LVU248
 2252 0889 5A000000 		.4byte	.LLRL25
 2253 088d 03       		.byte	0x3
 2254 088e 7601     		.2byte	0x176
 2255 0890 01       		.uleb128 0x1
 2256 0891 7C0F0000 		.4byte	0xf7c
 2257 0895 00000000 		.4byte	.LBI240
 2258 0899 0B       		.byte	.LVU250
 2259 089a 5A000000 		.4byte	.LLRL25
 2260 089e 04       		.byte	0x4
 2261 089f 5003     		.2byte	0x350
 2262 08a1 04       		.uleb128 0x4
 2263 08a2 860F0000 		.4byte	0xf86
 2264 08a6 E3000000 		.4byte	.LLST26
 2265 08aa E1000000 		.4byte	.LVUS26
 2266 08ae 00       		.byte	0
 2267 08af 00       		.byte	0
 2268 08b0 00       		.byte	0
 2269 08b1 00       		.byte	0
 2270 08b2 15       		.uleb128 0x15
 2271 08b3 220F0000 		.4byte	0xf22
 2272 08b7 0C000000 		.4byte	.LBI247
 2273 08bb 01       		.byte	.LVU265
 2274 08bc 0C000000 		.4byte	.LBB247
 2275 08c0 06000000 		.4byte	.LBE247-.LBB247
 2276 08c4 F7       		.byte	0xf7
 2277 08c5 19090000 		.4byte	0x919
 2278 08c9 03       		.uleb128 0x3
 2279 08ca 340F0000 		.4byte	0xf34
 2280 08ce 0C000000 		.4byte	.LBI248
ARM GAS  C:\Users\DEVELO~1\AppData\Local\Temp\ccjuHd8c.s 			page 41


 2281 08d2 03       		.byte	.LVU267
 2282 08d3 0C000000 		.4byte	.LBB248
 2283 08d7 06000000 		.4byte	.LBE248-.LBB248
 2284 08db 02       		.byte	0x2
 2285 08dc 4A02     		.2byte	0x24a
 2286 08de 03       		.uleb128 0x3
 2287 08df 6A0F0000 		.4byte	0xf6a
 2288 08e3 0C000000 		.4byte	.LBI250
 2289 08e7 0A       		.byte	.LVU274
 2290 08e8 0C000000 		.4byte	.LBB250
 2291 08ec 06000000 		.4byte	.LBE250-.LBB250
 2292 08f0 03       		.byte	0x3
 2293 08f1 8F01     		.2byte	0x18f
 2294 08f3 03       		.uleb128 0x3
 2295 08f4 7C0F0000 		.4byte	0xf7c
 2296 08f8 0C000000 		.4byte	.LBI251
 2297 08fc 0C       		.byte	.LVU276
 2298 08fd 0C000000 		.4byte	.LBB251
 2299 0901 06000000 		.4byte	.LBE251-.LBB251
 2300 0905 04       		.byte	0x4
 2301 0906 6303     		.2byte	0x363
 2302 0908 04       		.uleb128 0x4
 2303 0909 860F0000 		.4byte	0xf86
 2304 090d F0000000 		.4byte	.LLST27
 2305 0911 EE000000 		.4byte	.LVUS27
 2306 0915 00       		.byte	0
 2307 0916 00       		.byte	0
 2308 0917 00       		.byte	0
 2309 0918 00       		.byte	0
 2310 0919 10       		.uleb128 0x10
 2311 091a 0C000000 		.4byte	.LVL26
 2312 091e 4B040000 		.4byte	0x44b
 2313 0922 0D       		.uleb128 0xd
 2314 0923 01       		.uleb128 0x1
 2315 0924 50       		.byte	0x50
 2316 0925 03       		.uleb128 0x3
 2317 0926 A3       		.byte	0xa3
 2318 0927 01       		.uleb128 0x1
 2319 0928 50       		.byte	0x50
 2320 0929 00       		.byte	0
 2321 092a 00       		.byte	0
 2322 092b 12       		.uleb128 0x12
 2323 092c 04030000 		.4byte	.LASF68
 2324 0930 D6       		.byte	0xd6
 2325 0931 00000000 		.4byte	.LFB454
 2326 0935 26000000 		.4byte	.LFE454-.LFB454
 2327 0939 01       		.uleb128 0x1
 2328 093a 9C       		.byte	0x9c
 2329 093b 3E0A0000 		.4byte	0xa3e
 2330 093f 0E       		.uleb128 0xe
 2331 0940 00020000 		.4byte	.LASF61
 2332 0944 D6       		.byte	0xd6
 2333 0945 23       		.byte	0x23
 2334 0946 0A030000 		.4byte	0x30a
 2335 094a FE000000 		.4byte	.LLST19
 2336 094e FA000000 		.4byte	.LVUS19
 2337 0952 0E       		.uleb128 0xe
ARM GAS  C:\Users\DEVELO~1\AppData\Local\Temp\ccjuHd8c.s 			page 42


 2338 0953 FB030000 		.4byte	.LASF62
 2339 0957 D6       		.byte	0xd6
 2340 0958 36       		.byte	0x36
 2341 0959 1C030000 		.4byte	0x31c
 2342 095d 15010000 		.4byte	.LLST20
 2343 0961 11010000 		.4byte	.LVUS20
 2344 0965 0C       		.uleb128 0xc
 2345 0966 BF020000 		.4byte	.LASF65
 2346 096a 4E0A0000 		.4byte	0xa4e
 2347 096e 13       		.uleb128 0x13
 2348 096f 2B0F0000 		.4byte	0xf2b
 2349 0973 00000000 		.4byte	.LBI221
 2350 0977 05       		.byte	.LVU203
 2351 0978 4E000000 		.4byte	.LLRL21
 2352 097c DA       		.byte	0xda
 2353 097d C5090000 		.4byte	0x9c5
 2354 0981 01       		.uleb128 0x1
 2355 0982 610F0000 		.4byte	0xf61
 2356 0986 00000000 		.4byte	.LBI222
 2357 098a 07       		.byte	.LVU205
 2358 098b 4E000000 		.4byte	.LLRL21
 2359 098f 02       		.byte	0x2
 2360 0990 3F02     		.2byte	0x23f
 2361 0992 01       		.uleb128 0x1
 2362 0993 730F0000 		.4byte	0xf73
 2363 0997 00000000 		.4byte	.LBI223
 2364 099b 09       		.byte	.LVU207
 2365 099c 4E000000 		.4byte	.LLRL21
 2366 09a0 03       		.byte	0x3
 2367 09a1 7601     		.2byte	0x176
 2368 09a3 01       		.uleb128 0x1
 2369 09a4 7C0F0000 		.4byte	0xf7c
 2370 09a8 00000000 		.4byte	.LBI224
 2371 09ac 0B       		.byte	.LVU209
 2372 09ad 4E000000 		.4byte	.LLRL21
 2373 09b1 04       		.byte	0x4
 2374 09b2 5003     		.2byte	0x350
 2375 09b4 04       		.uleb128 0x4
 2376 09b5 860F0000 		.4byte	0xf86
 2377 09b9 2A010000 		.4byte	.LLST22
 2378 09bd 28010000 		.4byte	.LVUS22
 2379 09c1 00       		.byte	0
 2380 09c2 00       		.byte	0
 2381 09c3 00       		.byte	0
 2382 09c4 00       		.byte	0
 2383 09c5 15       		.uleb128 0x15
 2384 09c6 220F0000 		.4byte	0xf22
 2385 09ca 1E000000 		.4byte	.LBI231
 2386 09ce 02       		.byte	.LVU224
 2387 09cf 1E000000 		.4byte	.LBB231
 2388 09d3 06000000 		.4byte	.LBE231-.LBB231
 2389 09d7 E0       		.byte	0xe0
 2390 09d8 2C0A0000 		.4byte	0xa2c
 2391 09dc 03       		.uleb128 0x3
 2392 09dd 340F0000 		.4byte	0xf34
 2393 09e1 1E000000 		.4byte	.LBI232
 2394 09e5 04       		.byte	.LVU226
ARM GAS  C:\Users\DEVELO~1\AppData\Local\Temp\ccjuHd8c.s 			page 43


 2395 09e6 1E000000 		.4byte	.LBB232
 2396 09ea 06000000 		.4byte	.LBE232-.LBB232
 2397 09ee 02       		.byte	0x2
 2398 09ef 4A02     		.2byte	0x24a
 2399 09f1 03       		.uleb128 0x3
 2400 09f2 6A0F0000 		.4byte	0xf6a
 2401 09f6 1E000000 		.4byte	.LBI234
 2402 09fa 0B       		.byte	.LVU233
 2403 09fb 1E000000 		.4byte	.LBB234
 2404 09ff 06000000 		.4byte	.LBE234-.LBB234
 2405 0a03 03       		.byte	0x3
 2406 0a04 8F01     		.2byte	0x18f
 2407 0a06 03       		.uleb128 0x3
 2408 0a07 7C0F0000 		.4byte	0xf7c
 2409 0a0b 1E000000 		.4byte	.LBI235
 2410 0a0f 0D       		.byte	.LVU235
 2411 0a10 1E000000 		.4byte	.LBB235
 2412 0a14 06000000 		.4byte	.LBE235-.LBB235
 2413 0a18 04       		.byte	0x4
 2414 0a19 6303     		.2byte	0x363
 2415 0a1b 04       		.uleb128 0x4
 2416 0a1c 860F0000 		.4byte	0xf86
 2417 0a20 37010000 		.4byte	.LLST23
 2418 0a24 35010000 		.4byte	.LVUS23
 2419 0a28 00       		.byte	0
 2420 0a29 00       		.byte	0
 2421 0a2a 00       		.byte	0
 2422 0a2b 00       		.byte	0
 2423 0a2c 10       		.uleb128 0x10
 2424 0a2d 1E000000 		.4byte	.LVL22
 2425 0a31 5C040000 		.4byte	0x45c
 2426 0a35 0D       		.uleb128 0xd
 2427 0a36 01       		.uleb128 0x1
 2428 0a37 50       		.byte	0x50
 2429 0a38 03       		.uleb128 0x3
 2430 0a39 A3       		.byte	0xa3
 2431 0a3a 01       		.uleb128 0x1
 2432 0a3b 50       		.byte	0x50
 2433 0a3c 00       		.byte	0
 2434 0a3d 00       		.byte	0
 2435 0a3e 08       		.uleb128 0x8
 2436 0a3f D3000000 		.4byte	0xd3
 2437 0a43 4E0A0000 		.4byte	0xa4e
 2438 0a47 09       		.uleb128 0x9
 2439 0a48 2D000000 		.4byte	0x2d
 2440 0a4c 11       		.byte	0x11
 2441 0a4d 00       		.byte	0
 2442 0a4e 0A       		.uleb128 0xa
 2443 0a4f 3E0A0000 		.4byte	0xa3e
 2444 0a53 12       		.uleb128 0x12
 2445 0a54 BE010000 		.4byte	.LASF69
 2446 0a58 B9       		.byte	0xb9
 2447 0a59 00000000 		.4byte	.LFB453
 2448 0a5d 1E000000 		.4byte	.LFE453-.LFB453
 2449 0a61 01       		.uleb128 0x1
 2450 0a62 9C       		.byte	0x9c
 2451 0a63 800B0000 		.4byte	0xb80
ARM GAS  C:\Users\DEVELO~1\AppData\Local\Temp\ccjuHd8c.s 			page 44


 2452 0a67 0E       		.uleb128 0xe
 2453 0a68 00020000 		.4byte	.LASF61
 2454 0a6c B9       		.byte	0xb9
 2455 0a6d 22       		.byte	0x22
 2456 0a6e 0A030000 		.4byte	0x30a
 2457 0a72 45010000 		.4byte	.LLST13
 2458 0a76 41010000 		.4byte	.LVUS13
 2459 0a7a 0E       		.uleb128 0xe
 2460 0a7b FB030000 		.4byte	.LASF62
 2461 0a7f BA       		.byte	0xba
 2462 0a80 24       		.byte	0x24
 2463 0a81 1C030000 		.4byte	0x31c
 2464 0a85 5C010000 		.4byte	.LLST14
 2465 0a89 58010000 		.4byte	.LVUS14
 2466 0a8d 0E       		.uleb128 0xe
 2467 0a8e FA010000 		.4byte	.LASF70
 2468 0a92 BB       		.byte	0xbb
 2469 0a93 20       		.byte	0x20
 2470 0a94 36030000 		.4byte	0x336
 2471 0a98 73010000 		.4byte	.LLST15
 2472 0a9c 6F010000 		.4byte	.LVUS15
 2473 0aa0 0C       		.uleb128 0xc
 2474 0aa1 BF020000 		.4byte	.LASF65
 2475 0aa5 900B0000 		.4byte	0xb90
 2476 0aa9 13       		.uleb128 0x13
 2477 0aaa 2B0F0000 		.4byte	0xf2b
 2478 0aae 00000000 		.4byte	.LBI205
 2479 0ab2 05       		.byte	.LVU162
 2480 0ab3 42000000 		.4byte	.LLRL16
 2481 0ab7 BF       		.byte	0xbf
 2482 0ab8 000B0000 		.4byte	0xb00
 2483 0abc 01       		.uleb128 0x1
 2484 0abd 610F0000 		.4byte	0xf61
 2485 0ac1 00000000 		.4byte	.LBI206
 2486 0ac5 07       		.byte	.LVU164
 2487 0ac6 42000000 		.4byte	.LLRL16
 2488 0aca 02       		.byte	0x2
 2489 0acb 3F02     		.2byte	0x23f
 2490 0acd 01       		.uleb128 0x1
 2491 0ace 730F0000 		.4byte	0xf73
 2492 0ad2 00000000 		.4byte	.LBI207
 2493 0ad6 09       		.byte	.LVU166
 2494 0ad7 42000000 		.4byte	.LLRL16
 2495 0adb 03       		.byte	0x3
 2496 0adc 7601     		.2byte	0x176
 2497 0ade 01       		.uleb128 0x1
 2498 0adf 7C0F0000 		.4byte	0xf7c
 2499 0ae3 00000000 		.4byte	.LBI208
 2500 0ae7 0B       		.byte	.LVU168
 2501 0ae8 42000000 		.4byte	.LLRL16
 2502 0aec 04       		.byte	0x4
 2503 0aed 5003     		.2byte	0x350
 2504 0aef 04       		.uleb128 0x4
 2505 0af0 860F0000 		.4byte	0xf86
 2506 0af4 88010000 		.4byte	.LLST17
 2507 0af8 86010000 		.4byte	.LVUS17
 2508 0afc 00       		.byte	0
ARM GAS  C:\Users\DEVELO~1\AppData\Local\Temp\ccjuHd8c.s 			page 45


 2509 0afd 00       		.byte	0
 2510 0afe 00       		.byte	0
 2511 0aff 00       		.byte	0
 2512 0b00 15       		.uleb128 0x15
 2513 0b01 220F0000 		.4byte	0xf22
 2514 0b05 16000000 		.4byte	.LBI215
 2515 0b09 02       		.byte	.LVU183
 2516 0b0a 16000000 		.4byte	.LBB215
 2517 0b0e 06000000 		.4byte	.LBE215-.LBB215
 2518 0b12 C5       		.byte	0xc5
 2519 0b13 670B0000 		.4byte	0xb67
 2520 0b17 03       		.uleb128 0x3
 2521 0b18 340F0000 		.4byte	0xf34
 2522 0b1c 16000000 		.4byte	.LBI216
 2523 0b20 04       		.byte	.LVU185
 2524 0b21 16000000 		.4byte	.LBB216
 2525 0b25 06000000 		.4byte	.LBE216-.LBB216
 2526 0b29 02       		.byte	0x2
 2527 0b2a 4A02     		.2byte	0x24a
 2528 0b2c 03       		.uleb128 0x3
 2529 0b2d 6A0F0000 		.4byte	0xf6a
 2530 0b31 16000000 		.4byte	.LBI218
 2531 0b35 0B       		.byte	.LVU192
 2532 0b36 16000000 		.4byte	.LBB218
 2533 0b3a 06000000 		.4byte	.LBE218-.LBB218
 2534 0b3e 03       		.byte	0x3
 2535 0b3f 8F01     		.2byte	0x18f
 2536 0b41 03       		.uleb128 0x3
 2537 0b42 7C0F0000 		.4byte	0xf7c
 2538 0b46 16000000 		.4byte	.LBI219
 2539 0b4a 0D       		.byte	.LVU194
 2540 0b4b 16000000 		.4byte	.LBB219
 2541 0b4f 06000000 		.4byte	.LBE219-.LBB219
 2542 0b53 04       		.byte	0x4
 2543 0b54 6303     		.2byte	0x363
 2544 0b56 04       		.uleb128 0x4
 2545 0b57 860F0000 		.4byte	0xf86
 2546 0b5b 95010000 		.4byte	.LLST18
 2547 0b5f 93010000 		.4byte	.LVUS18
 2548 0b63 00       		.byte	0
 2549 0b64 00       		.byte	0
 2550 0b65 00       		.byte	0
 2551 0b66 00       		.byte	0
 2552 0b67 10       		.uleb128 0x10
 2553 0b68 16000000 		.4byte	.LVL18
 2554 0b6c 72040000 		.4byte	0x472
 2555 0b70 0D       		.uleb128 0xd
 2556 0b71 01       		.uleb128 0x1
 2557 0b72 50       		.byte	0x50
 2558 0b73 03       		.uleb128 0x3
 2559 0b74 A3       		.byte	0xa3
 2560 0b75 01       		.uleb128 0x1
 2561 0b76 50       		.byte	0x50
 2562 0b77 0D       		.uleb128 0xd
 2563 0b78 01       		.uleb128 0x1
 2564 0b79 52       		.byte	0x52
 2565 0b7a 03       		.uleb128 0x3
ARM GAS  C:\Users\DEVELO~1\AppData\Local\Temp\ccjuHd8c.s 			page 46


 2566 0b7b A3       		.byte	0xa3
 2567 0b7c 01       		.uleb128 0x1
 2568 0b7d 52       		.byte	0x52
 2569 0b7e 00       		.byte	0
 2570 0b7f 00       		.byte	0
 2571 0b80 08       		.uleb128 0x8
 2572 0b81 D3000000 		.4byte	0xd3
 2573 0b85 900B0000 		.4byte	0xb90
 2574 0b89 09       		.uleb128 0x9
 2575 0b8a 2D000000 		.4byte	0x2d
 2576 0b8e 10       		.byte	0x10
 2577 0b8f 00       		.byte	0
 2578 0b90 0A       		.uleb128 0xa
 2579 0b91 800B0000 		.4byte	0xb80
 2580 0b95 12       		.uleb128 0x12
 2581 0b96 03040000 		.4byte	.LASF71
 2582 0b9a A1       		.byte	0xa1
 2583 0b9b 00000000 		.4byte	.LFB452
 2584 0b9f 1C000000 		.4byte	.LFE452-.LFB452
 2585 0ba3 01       		.uleb128 0x1
 2586 0ba4 9C       		.byte	0x9c
 2587 0ba5 7F0C0000 		.4byte	0xc7f
 2588 0ba9 1E       		.uleb128 0x1e
 2589 0baa 00020000 		.4byte	.LASF61
 2590 0bae A1       		.byte	0xa1
 2591 0baf 21       		.byte	0x21
 2592 0bb0 0A030000 		.4byte	0x30a
 2593 0bb4 01       		.uleb128 0x1
 2594 0bb5 50       		.byte	0x50
 2595 0bb6 1E       		.uleb128 0x1e
 2596 0bb7 4E020000 		.4byte	.LASF36
 2597 0bbb A1       		.byte	0xa1
 2598 0bbc 30       		.byte	0x30
 2599 0bbd 36030000 		.4byte	0x336
 2600 0bc1 01       		.uleb128 0x1
 2601 0bc2 51       		.byte	0x51
 2602 0bc3 0C       		.uleb128 0xc
 2603 0bc4 BF020000 		.4byte	.LASF65
 2604 0bc8 8F0C0000 		.4byte	0xc8f
 2605 0bcc 13       		.uleb128 0x13
 2606 0bcd 2B0F0000 		.4byte	0xf2b
 2607 0bd1 00000000 		.4byte	.LBI183
 2608 0bd5 05       		.byte	.LVU120
 2609 0bd6 2A000000 		.4byte	.LLRL9
 2610 0bda A5       		.byte	0xa5
 2611 0bdb 230C0000 		.4byte	0xc23
 2612 0bdf 01       		.uleb128 0x1
 2613 0be0 610F0000 		.4byte	0xf61
 2614 0be4 00000000 		.4byte	.LBI184
 2615 0be8 07       		.byte	.LVU122
 2616 0be9 2A000000 		.4byte	.LLRL9
 2617 0bed 02       		.byte	0x2
 2618 0bee 3F02     		.2byte	0x23f
 2619 0bf0 01       		.uleb128 0x1
 2620 0bf1 730F0000 		.4byte	0xf73
 2621 0bf5 00000000 		.4byte	.LBI185
 2622 0bf9 09       		.byte	.LVU124
ARM GAS  C:\Users\DEVELO~1\AppData\Local\Temp\ccjuHd8c.s 			page 47


 2623 0bfa 2A000000 		.4byte	.LLRL9
 2624 0bfe 03       		.byte	0x3
 2625 0bff 7601     		.2byte	0x176
 2626 0c01 01       		.uleb128 0x1
 2627 0c02 7C0F0000 		.4byte	0xf7c
 2628 0c06 00000000 		.4byte	.LBI186
 2629 0c0a 0B       		.byte	.LVU126
 2630 0c0b 2A000000 		.4byte	.LLRL9
 2631 0c0f 04       		.byte	0x4
 2632 0c10 5003     		.2byte	0x350
 2633 0c12 04       		.uleb128 0x4
 2634 0c13 860F0000 		.4byte	0xf86
 2635 0c17 A1010000 		.4byte	.LLST10
 2636 0c1b 9F010000 		.4byte	.LVUS10
 2637 0c1f 00       		.byte	0
 2638 0c20 00       		.byte	0
 2639 0c21 00       		.byte	0
 2640 0c22 00       		.byte	0
 2641 0c23 25       		.uleb128 0x25
 2642 0c24 220F0000 		.4byte	0xf22
 2643 0c28 12000000 		.4byte	.LBI193
 2644 0c2c 02       		.byte	.LVU142
 2645 0c2d 36000000 		.4byte	.LLRL11
 2646 0c31 01       		.byte	0x1
 2647 0c32 A8       		.byte	0xa8
 2648 0c33 03       		.byte	0x3
 2649 0c34 01       		.uleb128 0x1
 2650 0c35 340F0000 		.4byte	0xf34
 2651 0c39 12000000 		.4byte	.LBI194
 2652 0c3d 04       		.byte	.LVU144
 2653 0c3e 36000000 		.4byte	.LLRL11
 2654 0c42 02       		.byte	0x2
 2655 0c43 4A02     		.2byte	0x24a
 2656 0c45 26       		.uleb128 0x26
 2657 0c46 36000000 		.4byte	.LLRL11
 2658 0c4a 01       		.uleb128 0x1
 2659 0c4b 6A0F0000 		.4byte	0xf6a
 2660 0c4f 12000000 		.4byte	.LBI196
 2661 0c53 0B       		.byte	.LVU151
 2662 0c54 36000000 		.4byte	.LLRL11
 2663 0c58 03       		.byte	0x3
 2664 0c59 8F01     		.2byte	0x18f
 2665 0c5b 01       		.uleb128 0x1
 2666 0c5c 7C0F0000 		.4byte	0xf7c
 2667 0c60 12000000 		.4byte	.LBI197
 2668 0c64 0D       		.byte	.LVU153
 2669 0c65 36000000 		.4byte	.LLRL11
 2670 0c69 04       		.byte	0x4
 2671 0c6a 6303     		.2byte	0x363
 2672 0c6c 04       		.uleb128 0x4
 2673 0c6d 860F0000 		.4byte	0xf86
 2674 0c71 AE010000 		.4byte	.LLST12
 2675 0c75 AC010000 		.4byte	.LVUS12
 2676 0c79 00       		.byte	0
 2677 0c7a 00       		.byte	0
 2678 0c7b 00       		.byte	0
 2679 0c7c 00       		.byte	0
ARM GAS  C:\Users\DEVELO~1\AppData\Local\Temp\ccjuHd8c.s 			page 48


 2680 0c7d 00       		.byte	0
 2681 0c7e 00       		.byte	0
 2682 0c7f 08       		.uleb128 0x8
 2683 0c80 D3000000 		.4byte	0xd3
 2684 0c84 8F0C0000 		.4byte	0xc8f
 2685 0c88 09       		.uleb128 0x9
 2686 0c89 2D000000 		.4byte	0x2d
 2687 0c8d 0F       		.byte	0xf
 2688 0c8e 00       		.byte	0
 2689 0c8f 0A       		.uleb128 0xa
 2690 0c90 7F0C0000 		.4byte	0xc7f
 2691 0c94 12       		.uleb128 0x12
 2692 0c95 AF040000 		.4byte	.LASF72
 2693 0c99 81       		.byte	0x81
 2694 0c9a 00000000 		.4byte	.LFB451
 2695 0c9e 1E000000 		.4byte	.LFE451-.LFB451
 2696 0ca2 01       		.uleb128 0x1
 2697 0ca3 9C       		.byte	0x9c
 2698 0ca4 930D0000 		.4byte	0xd93
 2699 0ca8 0E       		.uleb128 0xe
 2700 0ca9 00020000 		.4byte	.LASF61
 2701 0cad 81       		.byte	0x81
 2702 0cae 19       		.byte	0x19
 2703 0caf 0A030000 		.4byte	0x30a
 2704 0cb3 BC010000 		.4byte	.LLST5
 2705 0cb7 B8010000 		.4byte	.LVUS5
 2706 0cbb 0C       		.uleb128 0xc
 2707 0cbc BF020000 		.4byte	.LASF65
 2708 0cc0 A30D0000 		.4byte	0xda3
 2709 0cc4 13       		.uleb128 0x13
 2710 0cc5 2B0F0000 		.4byte	0xf2b
 2711 0cc9 00000000 		.4byte	.LBI162
 2712 0ccd 05       		.byte	.LVU71
 2713 0cce 1B000000 		.4byte	.LLRL6
 2714 0cd2 85       		.byte	0x85
 2715 0cd3 1B0D0000 		.4byte	0xd1b
 2716 0cd7 01       		.uleb128 0x1
 2717 0cd8 610F0000 		.4byte	0xf61
 2718 0cdc 00000000 		.4byte	.LBI163
 2719 0ce0 07       		.byte	.LVU73
 2720 0ce1 1B000000 		.4byte	.LLRL6
 2721 0ce5 02       		.byte	0x2
 2722 0ce6 3F02     		.2byte	0x23f
 2723 0ce8 01       		.uleb128 0x1
 2724 0ce9 730F0000 		.4byte	0xf73
 2725 0ced 00000000 		.4byte	.LBI164
 2726 0cf1 09       		.byte	.LVU75
 2727 0cf2 1B000000 		.4byte	.LLRL6
 2728 0cf6 03       		.byte	0x3
 2729 0cf7 7601     		.2byte	0x176
 2730 0cf9 01       		.uleb128 0x1
 2731 0cfa 7C0F0000 		.4byte	0xf7c
 2732 0cfe 00000000 		.4byte	.LBI165
 2733 0d02 0B       		.byte	.LVU77
 2734 0d03 1B000000 		.4byte	.LLRL6
 2735 0d07 04       		.byte	0x4
 2736 0d08 5003     		.2byte	0x350
ARM GAS  C:\Users\DEVELO~1\AppData\Local\Temp\ccjuHd8c.s 			page 49


 2737 0d0a 04       		.uleb128 0x4
 2738 0d0b 860F0000 		.4byte	0xf86
 2739 0d0f CE010000 		.4byte	.LLST7
 2740 0d13 CC010000 		.4byte	.LVUS7
 2741 0d17 00       		.byte	0
 2742 0d18 00       		.byte	0
 2743 0d19 00       		.byte	0
 2744 0d1a 00       		.byte	0
 2745 0d1b 15       		.uleb128 0x15
 2746 0d1c 220F0000 		.4byte	0xf22
 2747 0d20 18000000 		.4byte	.LBI177
 2748 0d24 01       		.byte	.LVU99
 2749 0d25 18000000 		.4byte	.LBB177
 2750 0d29 04000000 		.4byte	.LBE177-.LBB177
 2751 0d2d 8F       		.byte	0x8f
 2752 0d2e 820D0000 		.4byte	0xd82
 2753 0d32 03       		.uleb128 0x3
 2754 0d33 340F0000 		.4byte	0xf34
 2755 0d37 18000000 		.4byte	.LBI178
 2756 0d3b 03       		.byte	.LVU101
 2757 0d3c 18000000 		.4byte	.LBB178
 2758 0d40 04000000 		.4byte	.LBE178-.LBB178
 2759 0d44 02       		.byte	0x2
 2760 0d45 4A02     		.2byte	0x24a
 2761 0d47 03       		.uleb128 0x3
 2762 0d48 6A0F0000 		.4byte	0xf6a
 2763 0d4c 18000000 		.4byte	.LBI180
 2764 0d50 0A       		.byte	.LVU108
 2765 0d51 18000000 		.4byte	.LBB180
 2766 0d55 04000000 		.4byte	.LBE180-.LBB180
 2767 0d59 03       		.byte	0x3
 2768 0d5a 8F01     		.2byte	0x18f
 2769 0d5c 03       		.uleb128 0x3
 2770 0d5d 7C0F0000 		.4byte	0xf7c
 2771 0d61 18000000 		.4byte	.LBI181
 2772 0d65 0C       		.byte	.LVU110
 2773 0d66 18000000 		.4byte	.LBB181
 2774 0d6a 04000000 		.4byte	.LBE181-.LBB181
 2775 0d6e 04       		.byte	0x4
 2776 0d6f 6303     		.2byte	0x363
 2777 0d71 04       		.uleb128 0x4
 2778 0d72 860F0000 		.4byte	0xf86
 2779 0d76 DB010000 		.4byte	.LLST8
 2780 0d7a D9010000 		.4byte	.LVUS8
 2781 0d7e 00       		.byte	0
 2782 0d7f 00       		.byte	0
 2783 0d80 00       		.byte	0
 2784 0d81 00       		.byte	0
 2785 0d82 10       		.uleb128 0x10
 2786 0d83 0E000000 		.4byte	.LVL9
 2787 0d87 8D040000 		.4byte	0x48d
 2788 0d8b 0D       		.uleb128 0xd
 2789 0d8c 01       		.uleb128 0x1
 2790 0d8d 50       		.byte	0x50
 2791 0d8e 02       		.uleb128 0x2
 2792 0d8f 74       		.byte	0x74
 2793 0d90 00       		.sleb128 0
ARM GAS  C:\Users\DEVELO~1\AppData\Local\Temp\ccjuHd8c.s 			page 50


 2794 0d91 00       		.byte	0
 2795 0d92 00       		.byte	0
 2796 0d93 08       		.uleb128 0x8
 2797 0d94 D3000000 		.4byte	0xd3
 2798 0d98 A30D0000 		.4byte	0xda3
 2799 0d9c 09       		.uleb128 0x9
 2800 0d9d 2D000000 		.4byte	0x2d
 2801 0da1 07       		.byte	0x7
 2802 0da2 00       		.byte	0
 2803 0da3 0A       		.uleb128 0xa
 2804 0da4 930D0000 		.4byte	0xd93
 2805 0da8 27       		.uleb128 0x27
 2806 0da9 05020000 		.4byte	.LASF84
 2807 0dad 01       		.byte	0x1
 2808 0dae 5A       		.byte	0x5a
 2809 0daf 07       		.byte	0x7
 2810 0db0 C0000000 		.4byte	0xc0
 2811 0db4 00000000 		.4byte	.LFB450
 2812 0db8 24000000 		.4byte	.LFE450-.LFB450
 2813 0dbc 01       		.uleb128 0x1
 2814 0dbd 9C       		.byte	0x9c
 2815 0dbe CD0E0000 		.4byte	0xecd
 2816 0dc2 0E       		.uleb128 0xe
 2817 0dc3 00020000 		.4byte	.LASF61
 2818 0dc7 5A       		.byte	0x5a
 2819 0dc8 1B       		.byte	0x1b
 2820 0dc9 0A030000 		.4byte	0x30a
 2821 0dcd E9010000 		.4byte	.LLST0
 2822 0dd1 E5010000 		.4byte	.LVUS0
 2823 0dd5 0E       		.uleb128 0xe
 2824 0dd6 F3010000 		.4byte	.LASF35
 2825 0dda 5A       		.byte	0x5a
 2826 0ddb 32       		.byte	0x32
 2827 0ddc 04040000 		.4byte	0x404
 2828 0de0 FD010000 		.4byte	.LLST1
 2829 0de4 F9010000 		.4byte	.LVUS1
 2830 0de8 28       		.uleb128 0x28
 2831 0de9 6D736700 		.ascii	"msg\000"
 2832 0ded 01       		.byte	0x1
 2833 0dee 5B       		.byte	0x5b
 2834 0def 09       		.byte	0x9
 2835 0df0 C0000000 		.4byte	0xc0
 2836 0df4 00       		.byte	0
 2837 0df5 0C       		.uleb128 0xc
 2838 0df6 BF020000 		.4byte	.LASF65
 2839 0dfa DD0E0000 		.4byte	0xedd
 2840 0dfe 13       		.uleb128 0x13
 2841 0dff 2B0F0000 		.4byte	0xf2b
 2842 0e03 00000000 		.4byte	.LBI141
 2843 0e07 06       		.byte	.LVU20
 2844 0e08 0C000000 		.4byte	.LLRL2
 2845 0e0c 5F       		.byte	0x5f
 2846 0e0d 550E0000 		.4byte	0xe55
 2847 0e11 01       		.uleb128 0x1
 2848 0e12 610F0000 		.4byte	0xf61
 2849 0e16 00000000 		.4byte	.LBI142
 2850 0e1a 08       		.byte	.LVU22
ARM GAS  C:\Users\DEVELO~1\AppData\Local\Temp\ccjuHd8c.s 			page 51


 2851 0e1b 0C000000 		.4byte	.LLRL2
 2852 0e1f 02       		.byte	0x2
 2853 0e20 3F02     		.2byte	0x23f
 2854 0e22 01       		.uleb128 0x1
 2855 0e23 730F0000 		.4byte	0xf73
 2856 0e27 00000000 		.4byte	.LBI143
 2857 0e2b 0A       		.byte	.LVU24
 2858 0e2c 0C000000 		.4byte	.LLRL2
 2859 0e30 03       		.byte	0x3
 2860 0e31 7601     		.2byte	0x176
 2861 0e33 01       		.uleb128 0x1
 2862 0e34 7C0F0000 		.4byte	0xf7c
 2863 0e38 00000000 		.4byte	.LBI144
 2864 0e3c 0C       		.byte	.LVU26
 2865 0e3d 0C000000 		.4byte	.LLRL2
 2866 0e41 04       		.byte	0x4
 2867 0e42 5003     		.2byte	0x350
 2868 0e44 04       		.uleb128 0x4
 2869 0e45 860F0000 		.4byte	0xf86
 2870 0e49 12020000 		.4byte	.LLST3
 2871 0e4d 10020000 		.4byte	.LVUS3
 2872 0e51 00       		.byte	0
 2873 0e52 00       		.byte	0
 2874 0e53 00       		.byte	0
 2875 0e54 00       		.byte	0
 2876 0e55 15       		.uleb128 0x15
 2877 0e56 220F0000 		.4byte	0xf22
 2878 0e5a 1C000000 		.4byte	.LBI156
 2879 0e5e 02       		.byte	.LVU49
 2880 0e5f 1C000000 		.4byte	.LBB156
 2881 0e63 04000000 		.4byte	.LBE156-.LBB156
 2882 0e67 75       		.byte	0x75
 2883 0e68 BC0E0000 		.4byte	0xebc
 2884 0e6c 03       		.uleb128 0x3
 2885 0e6d 340F0000 		.4byte	0xf34
 2886 0e71 1C000000 		.4byte	.LBI157
 2887 0e75 04       		.byte	.LVU51
 2888 0e76 1C000000 		.4byte	.LBB157
 2889 0e7a 04000000 		.4byte	.LBE157-.LBB157
 2890 0e7e 02       		.byte	0x2
 2891 0e7f 4A02     		.2byte	0x24a
 2892 0e81 03       		.uleb128 0x3
 2893 0e82 6A0F0000 		.4byte	0xf6a
 2894 0e86 1C000000 		.4byte	.LBI159
 2895 0e8a 0B       		.byte	.LVU58
 2896 0e8b 1C000000 		.4byte	.LBB159
 2897 0e8f 04000000 		.4byte	.LBE159-.LBB159
 2898 0e93 03       		.byte	0x3
 2899 0e94 8F01     		.2byte	0x18f
 2900 0e96 03       		.uleb128 0x3
 2901 0e97 7C0F0000 		.4byte	0xf7c
 2902 0e9b 1C000000 		.4byte	.LBI160
 2903 0e9f 0D       		.byte	.LVU60
 2904 0ea0 1C000000 		.4byte	.LBB160
 2905 0ea4 04000000 		.4byte	.LBE160-.LBB160
 2906 0ea8 04       		.byte	0x4
 2907 0ea9 6303     		.2byte	0x363
ARM GAS  C:\Users\DEVELO~1\AppData\Local\Temp\ccjuHd8c.s 			page 52


 2908 0eab 04       		.uleb128 0x4
 2909 0eac 860F0000 		.4byte	0xf86
 2910 0eb0 1F020000 		.4byte	.LLST4
 2911 0eb4 1D020000 		.4byte	.LVUS4
 2912 0eb8 00       		.byte	0
 2913 0eb9 00       		.byte	0
 2914 0eba 00       		.byte	0
 2915 0ebb 00       		.byte	0
 2916 0ebc 10       		.uleb128 0x10
 2917 0ebd 18000000 		.4byte	.LVL4
 2918 0ec1 9E040000 		.4byte	0x49e
 2919 0ec5 0D       		.uleb128 0xd
 2920 0ec6 01       		.uleb128 0x1
 2921 0ec7 50       		.byte	0x50
 2922 0ec8 02       		.uleb128 0x2
 2923 0ec9 74       		.byte	0x74
 2924 0eca 00       		.sleb128 0
 2925 0ecb 00       		.byte	0
 2926 0ecc 00       		.byte	0
 2927 0ecd 08       		.uleb128 0x8
 2928 0ece D3000000 		.4byte	0xd3
 2929 0ed2 DD0E0000 		.4byte	0xedd
 2930 0ed6 09       		.uleb128 0x9
 2931 0ed7 2D000000 		.4byte	0x2d
 2932 0edb 08       		.byte	0x8
 2933 0edc 00       		.byte	0
 2934 0edd 0A       		.uleb128 0xa
 2935 0ede CD0E0000 		.4byte	0xecd
 2936 0ee2 12       		.uleb128 0x12
 2937 0ee3 A8010000 		.4byte	.LASF73
 2938 0ee7 44       		.byte	0x44
 2939 0ee8 00000000 		.4byte	.LFB449
 2940 0eec 0E000000 		.4byte	.LFE449-.LFB449
 2941 0ef0 01       		.uleb128 0x1
 2942 0ef1 9C       		.byte	0x9c
 2943 0ef2 040F0000 		.4byte	0xf04
 2944 0ef6 1E       		.uleb128 0x1e
 2945 0ef7 00020000 		.4byte	.LASF61
 2946 0efb 44       		.byte	0x44
 2947 0efc 1F       		.byte	0x1f
 2948 0efd 0A030000 		.4byte	0x30a
 2949 0f01 01       		.uleb128 0x1
 2950 0f02 50       		.byte	0x50
 2951 0f03 00       		.byte	0
 2952 0f04 12       		.uleb128 0x12
 2953 0f05 40020000 		.4byte	.LASF74
 2954 0f09 38       		.byte	0x38
 2955 0f0a 00000000 		.4byte	.LFB448
 2956 0f0e 04000000 		.4byte	.LFE448-.LFB448
 2957 0f12 01       		.uleb128 0x1
 2958 0f13 9C       		.byte	0x9c
 2959 0f14 220F0000 		.4byte	0xf22
 2960 0f18 29       		.uleb128 0x29
 2961 0f19 04000000 		.4byte	.LVL0
 2962 0f1d AF040000 		.4byte	0x4af
 2963 0f21 00       		.byte	0
 2964 0f22 16       		.uleb128 0x16
ARM GAS  C:\Users\DEVELO~1\AppData\Local\Temp\ccjuHd8c.s 			page 53


 2965 0f23 25010000 		.4byte	.LASF75
 2966 0f27 02       		.byte	0x2
 2967 0f28 4802     		.2byte	0x248
 2968 0f2a 14       		.byte	0x14
 2969 0f2b 16       		.uleb128 0x16
 2970 0f2c 95020000 		.4byte	.LASF76
 2971 0f30 02       		.byte	0x2
 2972 0f31 3D02     		.2byte	0x23d
 2973 0f33 14       		.byte	0x14
 2974 0f34 2A       		.uleb128 0x2a
 2975 0f35 79040000 		.4byte	.LASF85
 2976 0f39 03       		.byte	0x3
 2977 0f3a 8201     		.2byte	0x182
 2978 0f3c 14       		.byte	0x14
 2979 0f3d 03       		.byte	0x3
 2980 0f3e 4C0F0000 		.4byte	0xf4c
 2981 0f42 0C       		.uleb128 0xc
 2982 0f43 BF020000 		.4byte	.LASF65
 2983 0f47 5C0F0000 		.4byte	0xf5c
 2984 0f4b 00       		.byte	0
 2985 0f4c 08       		.uleb128 0x8
 2986 0f4d D3000000 		.4byte	0xd3
 2987 0f51 5C0F0000 		.4byte	0xf5c
 2988 0f55 09       		.uleb128 0x9
 2989 0f56 2D000000 		.4byte	0x2d
 2990 0f5a 0B       		.byte	0xb
 2991 0f5b 00       		.byte	0
 2992 0f5c 0A       		.uleb128 0xa
 2993 0f5d 4C0F0000 		.4byte	0xf4c
 2994 0f61 16       		.uleb128 0x16
 2995 0f62 4A010000 		.4byte	.LASF77
 2996 0f66 03       		.byte	0x3
 2997 0f67 7401     		.2byte	0x174
 2998 0f69 14       		.byte	0x14
 2999 0f6a 16       		.uleb128 0x16
 3000 0f6b E3030000 		.4byte	.LASF78
 3001 0f6f 04       		.byte	0x4
 3002 0f70 6003     		.2byte	0x360
 3003 0f72 1B       		.byte	0x1b
 3004 0f73 16       		.uleb128 0x16
 3005 0f74 40010000 		.4byte	.LASF79
 3006 0f78 04       		.byte	0x4
 3007 0f79 4803     		.2byte	0x348
 3008 0f7b 1B       		.byte	0x1b
 3009 0f7c 2B       		.uleb128 0x2b
 3010 0f7d D2040000 		.4byte	.LASF86
 3011 0f81 05       		.byte	0x5
 3012 0f82 EB01     		.2byte	0x1eb
 3013 0f84 1B       		.byte	0x1b
 3014 0f85 03       		.byte	0x3
 3015 0f86 2C       		.uleb128 0x2c
 3016 0f87 97030000 		.4byte	.LASF87
 3017 0f8b 05       		.byte	0x5
 3018 0f8c EB01     		.2byte	0x1eb
 3019 0f8e 32       		.byte	0x32
 3020 0f8f AF000000 		.4byte	0xaf
 3021 0f93 00       		.byte	0
ARM GAS  C:\Users\DEVELO~1\AppData\Local\Temp\ccjuHd8c.s 			page 54


 3022 0f94 00       		.byte	0
 3023              		.section	.debug_abbrev,"",%progbits
 3024              	.Ldebug_abbrev0:
 3025 0000 01       		.uleb128 0x1
 3026 0001 1D       		.uleb128 0x1d
 3027 0002 01       		.byte	0x1
 3028 0003 31       		.uleb128 0x31
 3029 0004 13       		.uleb128 0x13
 3030 0005 52       		.uleb128 0x52
 3031 0006 01       		.uleb128 0x1
 3032 0007 B842     		.uleb128 0x2138
 3033 0009 0B       		.uleb128 0xb
 3034 000a 55       		.uleb128 0x55
 3035 000b 17       		.uleb128 0x17
 3036 000c 58       		.uleb128 0x58
 3037 000d 0B       		.uleb128 0xb
 3038 000e 59       		.uleb128 0x59
 3039 000f 05       		.uleb128 0x5
 3040 0010 57       		.uleb128 0x57
 3041 0011 21       		.uleb128 0x21
 3042 0012 03       		.sleb128 3
 3043 0013 00       		.byte	0
 3044 0014 00       		.byte	0
 3045 0015 02       		.uleb128 0x2
 3046 0016 0D       		.uleb128 0xd
 3047 0017 00       		.byte	0
 3048 0018 03       		.uleb128 0x3
 3049 0019 0E       		.uleb128 0xe
 3050 001a 3A       		.uleb128 0x3a
 3051 001b 0B       		.uleb128 0xb
 3052 001c 3B       		.uleb128 0x3b
 3053 001d 05       		.uleb128 0x5
 3054 001e 39       		.uleb128 0x39
 3055 001f 0B       		.uleb128 0xb
 3056 0020 49       		.uleb128 0x49
 3057 0021 13       		.uleb128 0x13
 3058 0022 38       		.uleb128 0x38
 3059 0023 0B       		.uleb128 0xb
 3060 0024 00       		.byte	0
 3061 0025 00       		.byte	0
 3062 0026 03       		.uleb128 0x3
 3063 0027 1D       		.uleb128 0x1d
 3064 0028 01       		.byte	0x1
 3065 0029 31       		.uleb128 0x31
 3066 002a 13       		.uleb128 0x13
 3067 002b 52       		.uleb128 0x52
 3068 002c 01       		.uleb128 0x1
 3069 002d B842     		.uleb128 0x2138
 3070 002f 0B       		.uleb128 0xb
 3071 0030 11       		.uleb128 0x11
 3072 0031 01       		.uleb128 0x1
 3073 0032 12       		.uleb128 0x12
 3074 0033 06       		.uleb128 0x6
 3075 0034 58       		.uleb128 0x58
 3076 0035 0B       		.uleb128 0xb
 3077 0036 59       		.uleb128 0x59
 3078 0037 05       		.uleb128 0x5
ARM GAS  C:\Users\DEVELO~1\AppData\Local\Temp\ccjuHd8c.s 			page 55


 3079 0038 57       		.uleb128 0x57
 3080 0039 21       		.uleb128 0x21
 3081 003a 03       		.sleb128 3
 3082 003b 00       		.byte	0
 3083 003c 00       		.byte	0
 3084 003d 04       		.uleb128 0x4
 3085 003e 05       		.uleb128 0x5
 3086 003f 00       		.byte	0
 3087 0040 31       		.uleb128 0x31
 3088 0041 13       		.uleb128 0x13
 3089 0042 02       		.uleb128 0x2
 3090 0043 17       		.uleb128 0x17
 3091 0044 B742     		.uleb128 0x2137
 3092 0046 17       		.uleb128 0x17
 3093 0047 00       		.byte	0
 3094 0048 00       		.byte	0
 3095 0049 05       		.uleb128 0x5
 3096 004a 05       		.uleb128 0x5
 3097 004b 00       		.byte	0
 3098 004c 49       		.uleb128 0x49
 3099 004d 13       		.uleb128 0x13
 3100 004e 00       		.byte	0
 3101 004f 00       		.byte	0
 3102 0050 06       		.uleb128 0x6
 3103 0051 0D       		.uleb128 0xd
 3104 0052 00       		.byte	0
 3105 0053 03       		.uleb128 0x3
 3106 0054 08       		.uleb128 0x8
 3107 0055 3A       		.uleb128 0x3a
 3108 0056 0B       		.uleb128 0xb
 3109 0057 3B       		.uleb128 0x3b
 3110 0058 05       		.uleb128 0x5
 3111 0059 39       		.uleb128 0x39
 3112 005a 0B       		.uleb128 0xb
 3113 005b 49       		.uleb128 0x49
 3114 005c 13       		.uleb128 0x13
 3115 005d 38       		.uleb128 0x38
 3116 005e 0B       		.uleb128 0xb
 3117 005f 00       		.byte	0
 3118 0060 00       		.byte	0
 3119 0061 07       		.uleb128 0x7
 3120 0062 24       		.uleb128 0x24
 3121 0063 00       		.byte	0
 3122 0064 0B       		.uleb128 0xb
 3123 0065 0B       		.uleb128 0xb
 3124 0066 3E       		.uleb128 0x3e
 3125 0067 0B       		.uleb128 0xb
 3126 0068 03       		.uleb128 0x3
 3127 0069 0E       		.uleb128 0xe
 3128 006a 00       		.byte	0
 3129 006b 00       		.byte	0
 3130 006c 08       		.uleb128 0x8
 3131 006d 01       		.uleb128 0x1
 3132 006e 01       		.byte	0x1
 3133 006f 49       		.uleb128 0x49
 3134 0070 13       		.uleb128 0x13
 3135 0071 01       		.uleb128 0x1
ARM GAS  C:\Users\DEVELO~1\AppData\Local\Temp\ccjuHd8c.s 			page 56


 3136 0072 13       		.uleb128 0x13
 3137 0073 00       		.byte	0
 3138 0074 00       		.byte	0
 3139 0075 09       		.uleb128 0x9
 3140 0076 21       		.uleb128 0x21
 3141 0077 00       		.byte	0
 3142 0078 49       		.uleb128 0x49
 3143 0079 13       		.uleb128 0x13
 3144 007a 2F       		.uleb128 0x2f
 3145 007b 0B       		.uleb128 0xb
 3146 007c 00       		.byte	0
 3147 007d 00       		.byte	0
 3148 007e 0A       		.uleb128 0xa
 3149 007f 26       		.uleb128 0x26
 3150 0080 00       		.byte	0
 3151 0081 49       		.uleb128 0x49
 3152 0082 13       		.uleb128 0x13
 3153 0083 00       		.byte	0
 3154 0084 00       		.byte	0
 3155 0085 0B       		.uleb128 0xb
 3156 0086 16       		.uleb128 0x16
 3157 0087 00       		.byte	0
 3158 0088 03       		.uleb128 0x3
 3159 0089 0E       		.uleb128 0xe
 3160 008a 3A       		.uleb128 0x3a
 3161 008b 0B       		.uleb128 0xb
 3162 008c 3B       		.uleb128 0x3b
 3163 008d 0B       		.uleb128 0xb
 3164 008e 39       		.uleb128 0x39
 3165 008f 0B       		.uleb128 0xb
 3166 0090 49       		.uleb128 0x49
 3167 0091 13       		.uleb128 0x13
 3168 0092 00       		.byte	0
 3169 0093 00       		.byte	0
 3170 0094 0C       		.uleb128 0xc
 3171 0095 34       		.uleb128 0x34
 3172 0096 00       		.byte	0
 3173 0097 03       		.uleb128 0x3
 3174 0098 0E       		.uleb128 0xe
 3175 0099 49       		.uleb128 0x49
 3176 009a 13       		.uleb128 0x13
 3177 009b 34       		.uleb128 0x34
 3178 009c 19       		.uleb128 0x19
 3179 009d 00       		.byte	0
 3180 009e 00       		.byte	0
 3181 009f 0D       		.uleb128 0xd
 3182 00a0 49       		.uleb128 0x49
 3183 00a1 00       		.byte	0
 3184 00a2 02       		.uleb128 0x2
 3185 00a3 18       		.uleb128 0x18
 3186 00a4 7E       		.uleb128 0x7e
 3187 00a5 18       		.uleb128 0x18
 3188 00a6 00       		.byte	0
 3189 00a7 00       		.byte	0
 3190 00a8 0E       		.uleb128 0xe
 3191 00a9 05       		.uleb128 0x5
 3192 00aa 00       		.byte	0
ARM GAS  C:\Users\DEVELO~1\AppData\Local\Temp\ccjuHd8c.s 			page 57


 3193 00ab 03       		.uleb128 0x3
 3194 00ac 0E       		.uleb128 0xe
 3195 00ad 3A       		.uleb128 0x3a
 3196 00ae 21       		.uleb128 0x21
 3197 00af 01       		.sleb128 1
 3198 00b0 3B       		.uleb128 0x3b
 3199 00b1 0B       		.uleb128 0xb
 3200 00b2 39       		.uleb128 0x39
 3201 00b3 0B       		.uleb128 0xb
 3202 00b4 49       		.uleb128 0x49
 3203 00b5 13       		.uleb128 0x13
 3204 00b6 02       		.uleb128 0x2
 3205 00b7 17       		.uleb128 0x17
 3206 00b8 B742     		.uleb128 0x2137
 3207 00ba 17       		.uleb128 0x17
 3208 00bb 00       		.byte	0
 3209 00bc 00       		.byte	0
 3210 00bd 0F       		.uleb128 0xf
 3211 00be 2E       		.uleb128 0x2e
 3212 00bf 01       		.byte	0x1
 3213 00c0 3F       		.uleb128 0x3f
 3214 00c1 19       		.uleb128 0x19
 3215 00c2 03       		.uleb128 0x3
 3216 00c3 0E       		.uleb128 0xe
 3217 00c4 3A       		.uleb128 0x3a
 3218 00c5 21       		.uleb128 0x21
 3219 00c6 0B       		.sleb128 11
 3220 00c7 3B       		.uleb128 0x3b
 3221 00c8 05       		.uleb128 0x5
 3222 00c9 39       		.uleb128 0x39
 3223 00ca 21       		.uleb128 0x21
 3224 00cb 08       		.sleb128 8
 3225 00cc 27       		.uleb128 0x27
 3226 00cd 19       		.uleb128 0x19
 3227 00ce 3C       		.uleb128 0x3c
 3228 00cf 19       		.uleb128 0x19
 3229 00d0 01       		.uleb128 0x1
 3230 00d1 13       		.uleb128 0x13
 3231 00d2 00       		.byte	0
 3232 00d3 00       		.byte	0
 3233 00d4 10       		.uleb128 0x10
 3234 00d5 48       		.uleb128 0x48
 3235 00d6 01       		.byte	0x1
 3236 00d7 7D       		.uleb128 0x7d
 3237 00d8 01       		.uleb128 0x1
 3238 00d9 7F       		.uleb128 0x7f
 3239 00da 13       		.uleb128 0x13
 3240 00db 00       		.byte	0
 3241 00dc 00       		.byte	0
 3242 00dd 11       		.uleb128 0x11
 3243 00de 16       		.uleb128 0x16
 3244 00df 00       		.byte	0
 3245 00e0 03       		.uleb128 0x3
 3246 00e1 0E       		.uleb128 0xe
 3247 00e2 3A       		.uleb128 0x3a
 3248 00e3 0B       		.uleb128 0xb
 3249 00e4 3B       		.uleb128 0x3b
ARM GAS  C:\Users\DEVELO~1\AppData\Local\Temp\ccjuHd8c.s 			page 58


 3250 00e5 05       		.uleb128 0x5
 3251 00e6 39       		.uleb128 0x39
 3252 00e7 0B       		.uleb128 0xb
 3253 00e8 49       		.uleb128 0x49
 3254 00e9 13       		.uleb128 0x13
 3255 00ea 00       		.byte	0
 3256 00eb 00       		.byte	0
 3257 00ec 12       		.uleb128 0x12
 3258 00ed 2E       		.uleb128 0x2e
 3259 00ee 01       		.byte	0x1
 3260 00ef 3F       		.uleb128 0x3f
 3261 00f0 19       		.uleb128 0x19
 3262 00f1 03       		.uleb128 0x3
 3263 00f2 0E       		.uleb128 0xe
 3264 00f3 3A       		.uleb128 0x3a
 3265 00f4 21       		.uleb128 0x21
 3266 00f5 01       		.sleb128 1
 3267 00f6 3B       		.uleb128 0x3b
 3268 00f7 0B       		.uleb128 0xb
 3269 00f8 39       		.uleb128 0x39
 3270 00f9 21       		.uleb128 0x21
 3271 00fa 06       		.sleb128 6
 3272 00fb 27       		.uleb128 0x27
 3273 00fc 19       		.uleb128 0x19
 3274 00fd 11       		.uleb128 0x11
 3275 00fe 01       		.uleb128 0x1
 3276 00ff 12       		.uleb128 0x12
 3277 0100 06       		.uleb128 0x6
 3278 0101 40       		.uleb128 0x40
 3279 0102 18       		.uleb128 0x18
 3280 0103 7A       		.uleb128 0x7a
 3281 0104 19       		.uleb128 0x19
 3282 0105 01       		.uleb128 0x1
 3283 0106 13       		.uleb128 0x13
 3284 0107 00       		.byte	0
 3285 0108 00       		.byte	0
 3286 0109 13       		.uleb128 0x13
 3287 010a 1D       		.uleb128 0x1d
 3288 010b 01       		.byte	0x1
 3289 010c 31       		.uleb128 0x31
 3290 010d 13       		.uleb128 0x13
 3291 010e 52       		.uleb128 0x52
 3292 010f 01       		.uleb128 0x1
 3293 0110 B842     		.uleb128 0x2138
 3294 0112 0B       		.uleb128 0xb
 3295 0113 55       		.uleb128 0x55
 3296 0114 17       		.uleb128 0x17
 3297 0115 58       		.uleb128 0x58
 3298 0116 21       		.uleb128 0x21
 3299 0117 01       		.sleb128 1
 3300 0118 59       		.uleb128 0x59
 3301 0119 0B       		.uleb128 0xb
 3302 011a 57       		.uleb128 0x57
 3303 011b 21       		.uleb128 0x21
 3304 011c 03       		.sleb128 3
 3305 011d 01       		.uleb128 0x1
 3306 011e 13       		.uleb128 0x13
ARM GAS  C:\Users\DEVELO~1\AppData\Local\Temp\ccjuHd8c.s 			page 59


 3307 011f 00       		.byte	0
 3308 0120 00       		.byte	0
 3309 0121 14       		.uleb128 0x14
 3310 0122 05       		.uleb128 0x5
 3311 0123 00       		.byte	0
 3312 0124 03       		.uleb128 0x3
 3313 0125 0E       		.uleb128 0xe
 3314 0126 3A       		.uleb128 0x3a
 3315 0127 21       		.uleb128 0x21
 3316 0128 01       		.sleb128 1
 3317 0129 3B       		.uleb128 0x3b
 3318 012a 05       		.uleb128 0x5
 3319 012b 39       		.uleb128 0x39
 3320 012c 0B       		.uleb128 0xb
 3321 012d 49       		.uleb128 0x49
 3322 012e 13       		.uleb128 0x13
 3323 012f 02       		.uleb128 0x2
 3324 0130 17       		.uleb128 0x17
 3325 0131 B742     		.uleb128 0x2137
 3326 0133 17       		.uleb128 0x17
 3327 0134 00       		.byte	0
 3328 0135 00       		.byte	0
 3329 0136 15       		.uleb128 0x15
 3330 0137 1D       		.uleb128 0x1d
 3331 0138 01       		.byte	0x1
 3332 0139 31       		.uleb128 0x31
 3333 013a 13       		.uleb128 0x13
 3334 013b 52       		.uleb128 0x52
 3335 013c 01       		.uleb128 0x1
 3336 013d B842     		.uleb128 0x2138
 3337 013f 0B       		.uleb128 0xb
 3338 0140 11       		.uleb128 0x11
 3339 0141 01       		.uleb128 0x1
 3340 0142 12       		.uleb128 0x12
 3341 0143 06       		.uleb128 0x6
 3342 0144 58       		.uleb128 0x58
 3343 0145 21       		.uleb128 0x21
 3344 0146 01       		.sleb128 1
 3345 0147 59       		.uleb128 0x59
 3346 0148 0B       		.uleb128 0xb
 3347 0149 57       		.uleb128 0x57
 3348 014a 21       		.uleb128 0x21
 3349 014b 03       		.sleb128 3
 3350 014c 01       		.uleb128 0x1
 3351 014d 13       		.uleb128 0x13
 3352 014e 00       		.byte	0
 3353 014f 00       		.byte	0
 3354 0150 16       		.uleb128 0x16
 3355 0151 2E       		.uleb128 0x2e
 3356 0152 00       		.byte	0
 3357 0153 03       		.uleb128 0x3
 3358 0154 0E       		.uleb128 0xe
 3359 0155 3A       		.uleb128 0x3a
 3360 0156 0B       		.uleb128 0xb
 3361 0157 3B       		.uleb128 0x3b
 3362 0158 05       		.uleb128 0x5
 3363 0159 39       		.uleb128 0x39
ARM GAS  C:\Users\DEVELO~1\AppData\Local\Temp\ccjuHd8c.s 			page 60


 3364 015a 0B       		.uleb128 0xb
 3365 015b 27       		.uleb128 0x27
 3366 015c 19       		.uleb128 0x19
 3367 015d 20       		.uleb128 0x20
 3368 015e 21       		.uleb128 0x21
 3369 015f 03       		.sleb128 3
 3370 0160 00       		.byte	0
 3371 0161 00       		.byte	0
 3372 0162 17       		.uleb128 0x17
 3373 0163 0F       		.uleb128 0xf
 3374 0164 00       		.byte	0
 3375 0165 0B       		.uleb128 0xb
 3376 0166 21       		.uleb128 0x21
 3377 0167 04       		.sleb128 4
 3378 0168 49       		.uleb128 0x49
 3379 0169 13       		.uleb128 0x13
 3380 016a 00       		.byte	0
 3381 016b 00       		.byte	0
 3382 016c 18       		.uleb128 0x18
 3383 016d 35       		.uleb128 0x35
 3384 016e 00       		.byte	0
 3385 016f 49       		.uleb128 0x49
 3386 0170 13       		.uleb128 0x13
 3387 0171 00       		.byte	0
 3388 0172 00       		.byte	0
 3389 0173 19       		.uleb128 0x19
 3390 0174 13       		.uleb128 0x13
 3391 0175 01       		.byte	0x1
 3392 0176 0B       		.uleb128 0xb
 3393 0177 0B       		.uleb128 0xb
 3394 0178 3A       		.uleb128 0x3a
 3395 0179 0B       		.uleb128 0xb
 3396 017a 3B       		.uleb128 0x3b
 3397 017b 05       		.uleb128 0x5
 3398 017c 39       		.uleb128 0x39
 3399 017d 21       		.uleb128 0x21
 3400 017e 09       		.sleb128 9
 3401 017f 01       		.uleb128 0x1
 3402 0180 13       		.uleb128 0x13
 3403 0181 00       		.byte	0
 3404 0182 00       		.byte	0
 3405 0183 1A       		.uleb128 0x1a
 3406 0184 28       		.uleb128 0x28
 3407 0185 00       		.byte	0
 3408 0186 03       		.uleb128 0x3
 3409 0187 0E       		.uleb128 0xe
 3410 0188 1C       		.uleb128 0x1c
 3411 0189 0B       		.uleb128 0xb
 3412 018a 00       		.byte	0
 3413 018b 00       		.byte	0
 3414 018c 1B       		.uleb128 0x1b
 3415 018d 2E       		.uleb128 0x2e
 3416 018e 01       		.byte	0x1
 3417 018f 3F       		.uleb128 0x3f
 3418 0190 19       		.uleb128 0x19
 3419 0191 03       		.uleb128 0x3
 3420 0192 0E       		.uleb128 0xe
ARM GAS  C:\Users\DEVELO~1\AppData\Local\Temp\ccjuHd8c.s 			page 61


 3421 0193 3A       		.uleb128 0x3a
 3422 0194 21       		.uleb128 0x21
 3423 0195 01       		.sleb128 1
 3424 0196 3B       		.uleb128 0x3b
 3425 0197 05       		.uleb128 0x5
 3426 0198 39       		.uleb128 0x39
 3427 0199 21       		.uleb128 0x21
 3428 019a 06       		.sleb128 6
 3429 019b 27       		.uleb128 0x27
 3430 019c 19       		.uleb128 0x19
 3431 019d 11       		.uleb128 0x11
 3432 019e 01       		.uleb128 0x1
 3433 019f 12       		.uleb128 0x12
 3434 01a0 06       		.uleb128 0x6
 3435 01a1 40       		.uleb128 0x40
 3436 01a2 18       		.uleb128 0x18
 3437 01a3 7A       		.uleb128 0x7a
 3438 01a4 19       		.uleb128 0x19
 3439 01a5 01       		.uleb128 0x1
 3440 01a6 13       		.uleb128 0x13
 3441 01a7 00       		.byte	0
 3442 01a8 00       		.byte	0
 3443 01a9 1C       		.uleb128 0x1c
 3444 01aa 1D       		.uleb128 0x1d
 3445 01ab 01       		.byte	0x1
 3446 01ac 31       		.uleb128 0x31
 3447 01ad 13       		.uleb128 0x13
 3448 01ae 52       		.uleb128 0x52
 3449 01af 01       		.uleb128 0x1
 3450 01b0 B842     		.uleb128 0x2138
 3451 01b2 0B       		.uleb128 0xb
 3452 01b3 55       		.uleb128 0x55
 3453 01b4 17       		.uleb128 0x17
 3454 01b5 58       		.uleb128 0x58
 3455 01b6 21       		.uleb128 0x21
 3456 01b7 01       		.sleb128 1
 3457 01b8 59       		.uleb128 0x59
 3458 01b9 05       		.uleb128 0x5
 3459 01ba 57       		.uleb128 0x57
 3460 01bb 21       		.uleb128 0x21
 3461 01bc 03       		.sleb128 3
 3462 01bd 01       		.uleb128 0x1
 3463 01be 13       		.uleb128 0x13
 3464 01bf 00       		.byte	0
 3465 01c0 00       		.byte	0
 3466 01c1 1D       		.uleb128 0x1d
 3467 01c2 1D       		.uleb128 0x1d
 3468 01c3 01       		.byte	0x1
 3469 01c4 31       		.uleb128 0x31
 3470 01c5 13       		.uleb128 0x13
 3471 01c6 52       		.uleb128 0x52
 3472 01c7 01       		.uleb128 0x1
 3473 01c8 B842     		.uleb128 0x2138
 3474 01ca 0B       		.uleb128 0xb
 3475 01cb 11       		.uleb128 0x11
 3476 01cc 01       		.uleb128 0x1
 3477 01cd 12       		.uleb128 0x12
ARM GAS  C:\Users\DEVELO~1\AppData\Local\Temp\ccjuHd8c.s 			page 62


 3478 01ce 06       		.uleb128 0x6
 3479 01cf 58       		.uleb128 0x58
 3480 01d0 21       		.uleb128 0x21
 3481 01d1 01       		.sleb128 1
 3482 01d2 59       		.uleb128 0x59
 3483 01d3 05       		.uleb128 0x5
 3484 01d4 57       		.uleb128 0x57
 3485 01d5 21       		.uleb128 0x21
 3486 01d6 03       		.sleb128 3
 3487 01d7 01       		.uleb128 0x1
 3488 01d8 13       		.uleb128 0x13
 3489 01d9 00       		.byte	0
 3490 01da 00       		.byte	0
 3491 01db 1E       		.uleb128 0x1e
 3492 01dc 05       		.uleb128 0x5
 3493 01dd 00       		.byte	0
 3494 01de 03       		.uleb128 0x3
 3495 01df 0E       		.uleb128 0xe
 3496 01e0 3A       		.uleb128 0x3a
 3497 01e1 21       		.uleb128 0x21
 3498 01e2 01       		.sleb128 1
 3499 01e3 3B       		.uleb128 0x3b
 3500 01e4 0B       		.uleb128 0xb
 3501 01e5 39       		.uleb128 0x39
 3502 01e6 0B       		.uleb128 0xb
 3503 01e7 49       		.uleb128 0x49
 3504 01e8 13       		.uleb128 0x13
 3505 01e9 02       		.uleb128 0x2
 3506 01ea 18       		.uleb128 0x18
 3507 01eb 00       		.byte	0
 3508 01ec 00       		.byte	0
 3509 01ed 1F       		.uleb128 0x1f
 3510 01ee 11       		.uleb128 0x11
 3511 01ef 01       		.byte	0x1
 3512 01f0 25       		.uleb128 0x25
 3513 01f1 0E       		.uleb128 0xe
 3514 01f2 13       		.uleb128 0x13
 3515 01f3 0B       		.uleb128 0xb
 3516 01f4 03       		.uleb128 0x3
 3517 01f5 0E       		.uleb128 0xe
 3518 01f6 1B       		.uleb128 0x1b
 3519 01f7 0E       		.uleb128 0xe
 3520 01f8 55       		.uleb128 0x55
 3521 01f9 17       		.uleb128 0x17
 3522 01fa 11       		.uleb128 0x11
 3523 01fb 01       		.uleb128 0x1
 3524 01fc 10       		.uleb128 0x10
 3525 01fd 17       		.uleb128 0x17
 3526 01fe 00       		.byte	0
 3527 01ff 00       		.byte	0
 3528 0200 20       		.uleb128 0x20
 3529 0201 24       		.uleb128 0x24
 3530 0202 00       		.byte	0
 3531 0203 0B       		.uleb128 0xb
 3532 0204 0B       		.uleb128 0xb
 3533 0205 3E       		.uleb128 0x3e
 3534 0206 0B       		.uleb128 0xb
ARM GAS  C:\Users\DEVELO~1\AppData\Local\Temp\ccjuHd8c.s 			page 63


 3535 0207 03       		.uleb128 0x3
 3536 0208 08       		.uleb128 0x8
 3537 0209 00       		.byte	0
 3538 020a 00       		.byte	0
 3539 020b 21       		.uleb128 0x21
 3540 020c 04       		.uleb128 0x4
 3541 020d 01       		.byte	0x1
 3542 020e 3E       		.uleb128 0x3e
 3543 020f 0B       		.uleb128 0xb
 3544 0210 0B       		.uleb128 0xb
 3545 0211 0B       		.uleb128 0xb
 3546 0212 49       		.uleb128 0x49
 3547 0213 13       		.uleb128 0x13
 3548 0214 3A       		.uleb128 0x3a
 3549 0215 0B       		.uleb128 0xb
 3550 0216 3B       		.uleb128 0x3b
 3551 0217 0B       		.uleb128 0xb
 3552 0218 39       		.uleb128 0x39
 3553 0219 0B       		.uleb128 0xb
 3554 021a 01       		.uleb128 0x1
 3555 021b 13       		.uleb128 0x13
 3556 021c 00       		.byte	0
 3557 021d 00       		.byte	0
 3558 021e 22       		.uleb128 0x22
 3559 021f 13       		.uleb128 0x13
 3560 0220 01       		.byte	0x1
 3561 0221 03       		.uleb128 0x3
 3562 0222 0E       		.uleb128 0xe
 3563 0223 0B       		.uleb128 0xb
 3564 0224 0B       		.uleb128 0xb
 3565 0225 3A       		.uleb128 0x3a
 3566 0226 0B       		.uleb128 0xb
 3567 0227 3B       		.uleb128 0x3b
 3568 0228 05       		.uleb128 0x5
 3569 0229 39       		.uleb128 0x39
 3570 022a 0B       		.uleb128 0xb
 3571 022b 01       		.uleb128 0x1
 3572 022c 13       		.uleb128 0x13
 3573 022d 00       		.byte	0
 3574 022e 00       		.byte	0
 3575 022f 23       		.uleb128 0x23
 3576 0230 15       		.uleb128 0x15
 3577 0231 01       		.byte	0x1
 3578 0232 27       		.uleb128 0x27
 3579 0233 19       		.uleb128 0x19
 3580 0234 01       		.uleb128 0x1
 3581 0235 13       		.uleb128 0x13
 3582 0236 00       		.byte	0
 3583 0237 00       		.byte	0
 3584 0238 24       		.uleb128 0x24
 3585 0239 2E       		.uleb128 0x2e
 3586 023a 00       		.byte	0
 3587 023b 3F       		.uleb128 0x3f
 3588 023c 19       		.uleb128 0x19
 3589 023d 03       		.uleb128 0x3
 3590 023e 0E       		.uleb128 0xe
 3591 023f 3A       		.uleb128 0x3a
ARM GAS  C:\Users\DEVELO~1\AppData\Local\Temp\ccjuHd8c.s 			page 64


 3592 0240 0B       		.uleb128 0xb
 3593 0241 3B       		.uleb128 0x3b
 3594 0242 05       		.uleb128 0x5
 3595 0243 39       		.uleb128 0x39
 3596 0244 0B       		.uleb128 0xb
 3597 0245 27       		.uleb128 0x27
 3598 0246 19       		.uleb128 0x19
 3599 0247 3C       		.uleb128 0x3c
 3600 0248 19       		.uleb128 0x19
 3601 0249 00       		.byte	0
 3602 024a 00       		.byte	0
 3603 024b 25       		.uleb128 0x25
 3604 024c 1D       		.uleb128 0x1d
 3605 024d 01       		.byte	0x1
 3606 024e 31       		.uleb128 0x31
 3607 024f 13       		.uleb128 0x13
 3608 0250 52       		.uleb128 0x52
 3609 0251 01       		.uleb128 0x1
 3610 0252 B842     		.uleb128 0x2138
 3611 0254 0B       		.uleb128 0xb
 3612 0255 55       		.uleb128 0x55
 3613 0256 17       		.uleb128 0x17
 3614 0257 58       		.uleb128 0x58
 3615 0258 0B       		.uleb128 0xb
 3616 0259 59       		.uleb128 0x59
 3617 025a 0B       		.uleb128 0xb
 3618 025b 57       		.uleb128 0x57
 3619 025c 0B       		.uleb128 0xb
 3620 025d 00       		.byte	0
 3621 025e 00       		.byte	0
 3622 025f 26       		.uleb128 0x26
 3623 0260 0B       		.uleb128 0xb
 3624 0261 01       		.byte	0x1
 3625 0262 55       		.uleb128 0x55
 3626 0263 17       		.uleb128 0x17
 3627 0264 00       		.byte	0
 3628 0265 00       		.byte	0
 3629 0266 27       		.uleb128 0x27
 3630 0267 2E       		.uleb128 0x2e
 3631 0268 01       		.byte	0x1
 3632 0269 3F       		.uleb128 0x3f
 3633 026a 19       		.uleb128 0x19
 3634 026b 03       		.uleb128 0x3
 3635 026c 0E       		.uleb128 0xe
 3636 026d 3A       		.uleb128 0x3a
 3637 026e 0B       		.uleb128 0xb
 3638 026f 3B       		.uleb128 0x3b
 3639 0270 0B       		.uleb128 0xb
 3640 0271 39       		.uleb128 0x39
 3641 0272 0B       		.uleb128 0xb
 3642 0273 27       		.uleb128 0x27
 3643 0274 19       		.uleb128 0x19
 3644 0275 49       		.uleb128 0x49
 3645 0276 13       		.uleb128 0x13
 3646 0277 11       		.uleb128 0x11
 3647 0278 01       		.uleb128 0x1
 3648 0279 12       		.uleb128 0x12
ARM GAS  C:\Users\DEVELO~1\AppData\Local\Temp\ccjuHd8c.s 			page 65


 3649 027a 06       		.uleb128 0x6
 3650 027b 40       		.uleb128 0x40
 3651 027c 18       		.uleb128 0x18
 3652 027d 7A       		.uleb128 0x7a
 3653 027e 19       		.uleb128 0x19
 3654 027f 01       		.uleb128 0x1
 3655 0280 13       		.uleb128 0x13
 3656 0281 00       		.byte	0
 3657 0282 00       		.byte	0
 3658 0283 28       		.uleb128 0x28
 3659 0284 34       		.uleb128 0x34
 3660 0285 00       		.byte	0
 3661 0286 03       		.uleb128 0x3
 3662 0287 08       		.uleb128 0x8
 3663 0288 3A       		.uleb128 0x3a
 3664 0289 0B       		.uleb128 0xb
 3665 028a 3B       		.uleb128 0x3b
 3666 028b 0B       		.uleb128 0xb
 3667 028c 39       		.uleb128 0x39
 3668 028d 0B       		.uleb128 0xb
 3669 028e 49       		.uleb128 0x49
 3670 028f 13       		.uleb128 0x13
 3671 0290 1C       		.uleb128 0x1c
 3672 0291 0B       		.uleb128 0xb
 3673 0292 00       		.byte	0
 3674 0293 00       		.byte	0
 3675 0294 29       		.uleb128 0x29
 3676 0295 48       		.uleb128 0x48
 3677 0296 00       		.byte	0
 3678 0297 7D       		.uleb128 0x7d
 3679 0298 01       		.uleb128 0x1
 3680 0299 8201     		.uleb128 0x82
 3681 029b 19       		.uleb128 0x19
 3682 029c 7F       		.uleb128 0x7f
 3683 029d 13       		.uleb128 0x13
 3684 029e 00       		.byte	0
 3685 029f 00       		.byte	0
 3686 02a0 2A       		.uleb128 0x2a
 3687 02a1 2E       		.uleb128 0x2e
 3688 02a2 01       		.byte	0x1
 3689 02a3 03       		.uleb128 0x3
 3690 02a4 0E       		.uleb128 0xe
 3691 02a5 3A       		.uleb128 0x3a
 3692 02a6 0B       		.uleb128 0xb
 3693 02a7 3B       		.uleb128 0x3b
 3694 02a8 05       		.uleb128 0x5
 3695 02a9 39       		.uleb128 0x39
 3696 02aa 0B       		.uleb128 0xb
 3697 02ab 27       		.uleb128 0x27
 3698 02ac 19       		.uleb128 0x19
 3699 02ad 20       		.uleb128 0x20
 3700 02ae 0B       		.uleb128 0xb
 3701 02af 01       		.uleb128 0x1
 3702 02b0 13       		.uleb128 0x13
 3703 02b1 00       		.byte	0
 3704 02b2 00       		.byte	0
 3705 02b3 2B       		.uleb128 0x2b
ARM GAS  C:\Users\DEVELO~1\AppData\Local\Temp\ccjuHd8c.s 			page 66


 3706 02b4 2E       		.uleb128 0x2e
 3707 02b5 01       		.byte	0x1
 3708 02b6 03       		.uleb128 0x3
 3709 02b7 0E       		.uleb128 0xe
 3710 02b8 3A       		.uleb128 0x3a
 3711 02b9 0B       		.uleb128 0xb
 3712 02ba 3B       		.uleb128 0x3b
 3713 02bb 05       		.uleb128 0x5
 3714 02bc 39       		.uleb128 0x39
 3715 02bd 0B       		.uleb128 0xb
 3716 02be 27       		.uleb128 0x27
 3717 02bf 19       		.uleb128 0x19
 3718 02c0 20       		.uleb128 0x20
 3719 02c1 0B       		.uleb128 0xb
 3720 02c2 00       		.byte	0
 3721 02c3 00       		.byte	0
 3722 02c4 2C       		.uleb128 0x2c
 3723 02c5 05       		.uleb128 0x5
 3724 02c6 00       		.byte	0
 3725 02c7 03       		.uleb128 0x3
 3726 02c8 0E       		.uleb128 0xe
 3727 02c9 3A       		.uleb128 0x3a
 3728 02ca 0B       		.uleb128 0xb
 3729 02cb 3B       		.uleb128 0x3b
 3730 02cc 05       		.uleb128 0x5
 3731 02cd 39       		.uleb128 0x39
 3732 02ce 0B       		.uleb128 0xb
 3733 02cf 49       		.uleb128 0x49
 3734 02d0 13       		.uleb128 0x13
 3735 02d1 00       		.byte	0
 3736 02d2 00       		.byte	0
 3737 02d3 00       		.byte	0
 3738              		.section	.debug_loclists,"",%progbits
 3739 0000 25020000 		.4byte	.Ldebug_loc3-.Ldebug_loc2
 3740              	.Ldebug_loc2:
 3741 0004 0500     		.2byte	0x5
 3742 0006 04       		.byte	0x4
 3743 0007 00       		.byte	0
 3744 0008 00000000 		.4byte	0
 3745              	.Ldebug_loc0:
 3746              	.LVUS37:
 3747 000c 00       		.uleb128 0
 3748 000d 00       		.uleb128 .LVU393
 3749 000e 00       		.uleb128 .LVU393
 3750 000f 00       		.uleb128 0
 3751              	.LLST37:
 3752 0010 06       		.byte	0x6
 3753 0011 00000000 		.4byte	.LVL36
 3754 0015 04       		.byte	0x4
 3755 0016 00       		.uleb128 .LVL36-.LVL36
 3756 0017 0B       		.uleb128 .LVL38-1-.LVL36
 3757 0018 01       		.uleb128 0x1
 3758 0019 50       		.byte	0x50
 3759 001a 04       		.byte	0x4
 3760 001b 0B       		.uleb128 .LVL38-1-.LVL36
 3761 001c 14       		.uleb128 .LFE458-.LVL36
 3762 001d 04       		.uleb128 0x4
ARM GAS  C:\Users\DEVELO~1\AppData\Local\Temp\ccjuHd8c.s 			page 67


 3763 001e A3       		.byte	0xa3
 3764 001f 01       		.uleb128 0x1
 3765 0020 50       		.byte	0x50
 3766 0021 9F       		.byte	0x9f
 3767 0022 00       		.byte	0
 3768              	.LVUS38:
 3769 0023 00       		.uleb128 0
 3770 0024 00       		.uleb128 .LVU393
 3771 0025 00       		.uleb128 .LVU393
 3772 0026 00       		.uleb128 0
 3773              	.LLST38:
 3774 0027 06       		.byte	0x6
 3775 0028 00000000 		.4byte	.LVL36
 3776 002c 04       		.byte	0x4
 3777 002d 00       		.uleb128 .LVL36-.LVL36
 3778 002e 0B       		.uleb128 .LVL38-1-.LVL36
 3779 002f 01       		.uleb128 0x1
 3780 0030 51       		.byte	0x51
 3781 0031 04       		.byte	0x4
 3782 0032 0B       		.uleb128 .LVL38-1-.LVL36
 3783 0033 14       		.uleb128 .LFE458-.LVL36
 3784 0034 04       		.uleb128 0x4
 3785 0035 A3       		.byte	0xa3
 3786 0036 01       		.uleb128 0x1
 3787 0037 51       		.byte	0x51
 3788 0038 9F       		.byte	0x9f
 3789 0039 00       		.byte	0
 3790              	.LVUS40:
 3791 003a 0B       		.uleb128 .LVU376
 3792 003b 00       		.uleb128 .LVU380
 3793              	.LLST40:
 3794 003c 08       		.byte	0x8
 3795 003d 00000000 		.4byte	.LVL36
 3796 0041 08       		.uleb128 .LVL37-.LVL36
 3797 0042 03       		.uleb128 0x3
 3798 0043 08       		.byte	0x8
 3799 0044 30       		.byte	0x30
 3800 0045 9F       		.byte	0x9f
 3801 0046 00       		.byte	0
 3802              	.LVUS41:
 3803 0047 0C       		.uleb128 .LVU405
 3804 0048 00       		.uleb128 .LVU407
 3805              	.LLST41:
 3806 0049 08       		.byte	0x8
 3807 004a 0C000000 		.4byte	.LVL38
 3808 004e 06       		.uleb128 .LVL39-.LVL38
 3809 004f 02       		.uleb128 0x2
 3810 0050 30       		.byte	0x30
 3811 0051 9F       		.byte	0x9f
 3812 0052 00       		.byte	0
 3813              	.LVUS32:
 3814 0053 00       		.uleb128 0
 3815 0054 00       		.uleb128 .LVU349
 3816 0055 00       		.uleb128 .LVU349
 3817 0056 00       		.uleb128 0
 3818              	.LLST32:
 3819 0057 06       		.byte	0x6
ARM GAS  C:\Users\DEVELO~1\AppData\Local\Temp\ccjuHd8c.s 			page 68


 3820 0058 00000000 		.4byte	.LVL32
 3821 005c 04       		.byte	0x4
 3822 005d 00       		.uleb128 .LVL32-.LVL32
 3823 005e 0B       		.uleb128 .LVL34-1-.LVL32
 3824 005f 01       		.uleb128 0x1
 3825 0060 50       		.byte	0x50
 3826 0061 04       		.byte	0x4
 3827 0062 0B       		.uleb128 .LVL34-1-.LVL32
 3828 0063 14       		.uleb128 .LFE457-.LVL32
 3829 0064 04       		.uleb128 0x4
 3830 0065 A3       		.byte	0xa3
 3831 0066 01       		.uleb128 0x1
 3832 0067 50       		.byte	0x50
 3833 0068 9F       		.byte	0x9f
 3834 0069 00       		.byte	0
 3835              	.LVUS33:
 3836 006a 00       		.uleb128 0
 3837 006b 00       		.uleb128 .LVU349
 3838 006c 00       		.uleb128 .LVU349
 3839 006d 00       		.uleb128 0
 3840              	.LLST33:
 3841 006e 06       		.byte	0x6
 3842 006f 00000000 		.4byte	.LVL32
 3843 0073 04       		.byte	0x4
 3844 0074 00       		.uleb128 .LVL32-.LVL32
 3845 0075 0B       		.uleb128 .LVL34-1-.LVL32
 3846 0076 01       		.uleb128 0x1
 3847 0077 51       		.byte	0x51
 3848 0078 04       		.byte	0x4
 3849 0079 0B       		.uleb128 .LVL34-1-.LVL32
 3850 007a 14       		.uleb128 .LFE457-.LVL32
 3851 007b 04       		.uleb128 0x4
 3852 007c A3       		.byte	0xa3
 3853 007d 01       		.uleb128 0x1
 3854 007e 51       		.byte	0x51
 3855 007f 9F       		.byte	0x9f
 3856 0080 00       		.byte	0
 3857              	.LVUS35:
 3858 0081 0B       		.uleb128 .LVU332
 3859 0082 00       		.uleb128 .LVU336
 3860              	.LLST35:
 3861 0083 08       		.byte	0x8
 3862 0084 00000000 		.4byte	.LVL32
 3863 0088 08       		.uleb128 .LVL33-.LVL32
 3864 0089 03       		.uleb128 0x3
 3865 008a 08       		.byte	0x8
 3866 008b 30       		.byte	0x30
 3867 008c 9F       		.byte	0x9f
 3868 008d 00       		.byte	0
 3869              	.LVUS36:
 3870 008e 0C       		.uleb128 .LVU361
 3871 008f 00       		.uleb128 .LVU363
 3872              	.LLST36:
 3873 0090 08       		.byte	0x8
 3874 0091 0C000000 		.4byte	.LVL34
 3875 0095 06       		.uleb128 .LVL35-.LVL34
 3876 0096 02       		.uleb128 0x2
ARM GAS  C:\Users\DEVELO~1\AppData\Local\Temp\ccjuHd8c.s 			page 69


 3877 0097 30       		.byte	0x30
 3878 0098 9F       		.byte	0x9f
 3879 0099 00       		.byte	0
 3880              	.LVUS28:
 3881 009a 00       		.uleb128 0
 3882 009b 00       		.uleb128 .LVU305
 3883 009c 00       		.uleb128 .LVU305
 3884 009d 00       		.uleb128 0
 3885              	.LLST28:
 3886 009e 06       		.byte	0x6
 3887 009f 00000000 		.4byte	.LVL28
 3888 00a3 04       		.byte	0x4
 3889 00a4 00       		.uleb128 .LVL28-.LVL28
 3890 00a5 0B       		.uleb128 .LVL30-1-.LVL28
 3891 00a6 01       		.uleb128 0x1
 3892 00a7 50       		.byte	0x50
 3893 00a8 04       		.byte	0x4
 3894 00a9 0B       		.uleb128 .LVL30-1-.LVL28
 3895 00aa 14       		.uleb128 .LFE456-.LVL28
 3896 00ab 04       		.uleb128 0x4
 3897 00ac A3       		.byte	0xa3
 3898 00ad 01       		.uleb128 0x1
 3899 00ae 50       		.byte	0x50
 3900 00af 9F       		.byte	0x9f
 3901 00b0 00       		.byte	0
 3902              	.LVUS30:
 3903 00b1 0B       		.uleb128 .LVU291
 3904 00b2 00       		.uleb128 .LVU295
 3905              	.LLST30:
 3906 00b3 08       		.byte	0x8
 3907 00b4 00000000 		.4byte	.LVL28
 3908 00b8 08       		.uleb128 .LVL29-.LVL28
 3909 00b9 03       		.uleb128 0x3
 3910 00ba 08       		.byte	0x8
 3911 00bb 30       		.byte	0x30
 3912 00bc 9F       		.byte	0x9f
 3913 00bd 00       		.byte	0
 3914              	.LVUS31:
 3915 00be 0C       		.uleb128 .LVU317
 3916 00bf 00       		.uleb128 .LVU319
 3917              	.LLST31:
 3918 00c0 08       		.byte	0x8
 3919 00c1 0C000000 		.4byte	.LVL30
 3920 00c5 06       		.uleb128 .LVL31-.LVL30
 3921 00c6 02       		.uleb128 0x2
 3922 00c7 30       		.byte	0x30
 3923 00c8 9F       		.byte	0x9f
 3924 00c9 00       		.byte	0
 3925              	.LVUS24:
 3926 00ca 00       		.uleb128 0
 3927 00cb 00       		.uleb128 .LVU264
 3928 00cc 00       		.uleb128 .LVU264
 3929 00cd 00       		.uleb128 0
 3930              	.LLST24:
 3931 00ce 06       		.byte	0x6
 3932 00cf 00000000 		.4byte	.LVL24
 3933 00d3 04       		.byte	0x4
ARM GAS  C:\Users\DEVELO~1\AppData\Local\Temp\ccjuHd8c.s 			page 70


 3934 00d4 00       		.uleb128 .LVL24-.LVL24
 3935 00d5 0B       		.uleb128 .LVL26-1-.LVL24
 3936 00d6 01       		.uleb128 0x1
 3937 00d7 50       		.byte	0x50
 3938 00d8 04       		.byte	0x4
 3939 00d9 0B       		.uleb128 .LVL26-1-.LVL24
 3940 00da 14       		.uleb128 .LFE455-.LVL24
 3941 00db 04       		.uleb128 0x4
 3942 00dc A3       		.byte	0xa3
 3943 00dd 01       		.uleb128 0x1
 3944 00de 50       		.byte	0x50
 3945 00df 9F       		.byte	0x9f
 3946 00e0 00       		.byte	0
 3947              	.LVUS26:
 3948 00e1 0B       		.uleb128 .LVU250
 3949 00e2 00       		.uleb128 .LVU254
 3950              	.LLST26:
 3951 00e3 08       		.byte	0x8
 3952 00e4 00000000 		.4byte	.LVL24
 3953 00e8 08       		.uleb128 .LVL25-.LVL24
 3954 00e9 03       		.uleb128 0x3
 3955 00ea 08       		.byte	0x8
 3956 00eb 30       		.byte	0x30
 3957 00ec 9F       		.byte	0x9f
 3958 00ed 00       		.byte	0
 3959              	.LVUS27:
 3960 00ee 0C       		.uleb128 .LVU276
 3961 00ef 00       		.uleb128 .LVU278
 3962              	.LLST27:
 3963 00f0 08       		.byte	0x8
 3964 00f1 0C000000 		.4byte	.LVL26
 3965 00f5 06       		.uleb128 .LVL27-.LVL26
 3966 00f6 02       		.uleb128 0x2
 3967 00f7 30       		.byte	0x30
 3968 00f8 9F       		.byte	0x9f
 3969 00f9 00       		.byte	0
 3970              	.LVUS19:
 3971 00fa 00       		.uleb128 0
 3972 00fb 00       		.uleb128 .LVU222
 3973 00fc 00       		.uleb128 .LVU222
 3974 00fd 00       		.uleb128 0
 3975              	.LLST19:
 3976 00fe 06       		.byte	0x6
 3977 00ff 00000000 		.4byte	.LVL20
 3978 0103 04       		.byte	0x4
 3979 0104 00       		.uleb128 .LVL20-.LVL20
 3980 0105 1D       		.uleb128 .LVL22-1-.LVL20
 3981 0106 01       		.uleb128 0x1
 3982 0107 50       		.byte	0x50
 3983 0108 04       		.byte	0x4
 3984 0109 1D       		.uleb128 .LVL22-1-.LVL20
 3985 010a 26       		.uleb128 .LFE454-.LVL20
 3986 010b 04       		.uleb128 0x4
 3987 010c A3       		.byte	0xa3
 3988 010d 01       		.uleb128 0x1
 3989 010e 50       		.byte	0x50
 3990 010f 9F       		.byte	0x9f
ARM GAS  C:\Users\DEVELO~1\AppData\Local\Temp\ccjuHd8c.s 			page 71


 3991 0110 00       		.byte	0
 3992              	.LVUS20:
 3993 0111 00       		.uleb128 0
 3994 0112 00       		.uleb128 .LVU222
 3995 0113 00       		.uleb128 .LVU222
 3996 0114 00       		.uleb128 0
 3997              	.LLST20:
 3998 0115 06       		.byte	0x6
 3999 0116 00000000 		.4byte	.LVL20
 4000 011a 04       		.byte	0x4
 4001 011b 00       		.uleb128 .LVL20-.LVL20
 4002 011c 1D       		.uleb128 .LVL22-1-.LVL20
 4003 011d 01       		.uleb128 0x1
 4004 011e 51       		.byte	0x51
 4005 011f 04       		.byte	0x4
 4006 0120 1D       		.uleb128 .LVL22-1-.LVL20
 4007 0121 26       		.uleb128 .LFE454-.LVL20
 4008 0122 04       		.uleb128 0x4
 4009 0123 A3       		.byte	0xa3
 4010 0124 01       		.uleb128 0x1
 4011 0125 51       		.byte	0x51
 4012 0126 9F       		.byte	0x9f
 4013 0127 00       		.byte	0
 4014              	.LVUS22:
 4015 0128 0B       		.uleb128 .LVU209
 4016 0129 00       		.uleb128 .LVU213
 4017              	.LLST22:
 4018 012a 08       		.byte	0x8
 4019 012b 00000000 		.4byte	.LVL20
 4020 012f 0A       		.uleb128 .LVL21-.LVL20
 4021 0130 03       		.uleb128 0x3
 4022 0131 08       		.byte	0x8
 4023 0132 30       		.byte	0x30
 4024 0133 9F       		.byte	0x9f
 4025 0134 00       		.byte	0
 4026              	.LVUS23:
 4027 0135 0D       		.uleb128 .LVU235
 4028 0136 00       		.uleb128 .LVU237
 4029              	.LLST23:
 4030 0137 08       		.byte	0x8
 4031 0138 1E000000 		.4byte	.LVL22
 4032 013c 06       		.uleb128 .LVL23-.LVL22
 4033 013d 02       		.uleb128 0x2
 4034 013e 30       		.byte	0x30
 4035 013f 9F       		.byte	0x9f
 4036 0140 00       		.byte	0
 4037              	.LVUS13:
 4038 0141 00       		.uleb128 0
 4039 0142 00       		.uleb128 .LVU181
 4040 0143 00       		.uleb128 .LVU181
 4041 0144 00       		.uleb128 0
 4042              	.LLST13:
 4043 0145 06       		.byte	0x6
 4044 0146 00000000 		.4byte	.LVL16
 4045 014a 04       		.byte	0x4
 4046 014b 00       		.uleb128 .LVL16-.LVL16
 4047 014c 15       		.uleb128 .LVL18-1-.LVL16
ARM GAS  C:\Users\DEVELO~1\AppData\Local\Temp\ccjuHd8c.s 			page 72


 4048 014d 01       		.uleb128 0x1
 4049 014e 50       		.byte	0x50
 4050 014f 04       		.byte	0x4
 4051 0150 15       		.uleb128 .LVL18-1-.LVL16
 4052 0151 1E       		.uleb128 .LFE453-.LVL16
 4053 0152 04       		.uleb128 0x4
 4054 0153 A3       		.byte	0xa3
 4055 0154 01       		.uleb128 0x1
 4056 0155 50       		.byte	0x50
 4057 0156 9F       		.byte	0x9f
 4058 0157 00       		.byte	0
 4059              	.LVUS14:
 4060 0158 00       		.uleb128 0
 4061 0159 00       		.uleb128 .LVU181
 4062 015a 00       		.uleb128 .LVU181
 4063 015b 00       		.uleb128 0
 4064              	.LLST14:
 4065 015c 06       		.byte	0x6
 4066 015d 00000000 		.4byte	.LVL16
 4067 0161 04       		.byte	0x4
 4068 0162 00       		.uleb128 .LVL16-.LVL16
 4069 0163 15       		.uleb128 .LVL18-1-.LVL16
 4070 0164 01       		.uleb128 0x1
 4071 0165 51       		.byte	0x51
 4072 0166 04       		.byte	0x4
 4073 0167 15       		.uleb128 .LVL18-1-.LVL16
 4074 0168 1E       		.uleb128 .LFE453-.LVL16
 4075 0169 04       		.uleb128 0x4
 4076 016a A3       		.byte	0xa3
 4077 016b 01       		.uleb128 0x1
 4078 016c 51       		.byte	0x51
 4079 016d 9F       		.byte	0x9f
 4080 016e 00       		.byte	0
 4081              	.LVUS15:
 4082 016f 00       		.uleb128 0
 4083 0170 00       		.uleb128 .LVU181
 4084 0171 00       		.uleb128 .LVU181
 4085 0172 00       		.uleb128 0
 4086              	.LLST15:
 4087 0173 06       		.byte	0x6
 4088 0174 00000000 		.4byte	.LVL16
 4089 0178 04       		.byte	0x4
 4090 0179 00       		.uleb128 .LVL16-.LVL16
 4091 017a 15       		.uleb128 .LVL18-1-.LVL16
 4092 017b 01       		.uleb128 0x1
 4093 017c 52       		.byte	0x52
 4094 017d 04       		.byte	0x4
 4095 017e 15       		.uleb128 .LVL18-1-.LVL16
 4096 017f 1E       		.uleb128 .LFE453-.LVL16
 4097 0180 04       		.uleb128 0x4
 4098 0181 A3       		.byte	0xa3
 4099 0182 01       		.uleb128 0x1
 4100 0183 52       		.byte	0x52
 4101 0184 9F       		.byte	0x9f
 4102 0185 00       		.byte	0
 4103              	.LVUS17:
 4104 0186 0B       		.uleb128 .LVU168
ARM GAS  C:\Users\DEVELO~1\AppData\Local\Temp\ccjuHd8c.s 			page 73


 4105 0187 00       		.uleb128 .LVU172
 4106              	.LLST17:
 4107 0188 08       		.byte	0x8
 4108 0189 00000000 		.4byte	.LVL16
 4109 018d 08       		.uleb128 .LVL17-.LVL16
 4110 018e 03       		.uleb128 0x3
 4111 018f 08       		.byte	0x8
 4112 0190 30       		.byte	0x30
 4113 0191 9F       		.byte	0x9f
 4114 0192 00       		.byte	0
 4115              	.LVUS18:
 4116 0193 0D       		.uleb128 .LVU194
 4117 0194 00       		.uleb128 .LVU196
 4118              	.LLST18:
 4119 0195 08       		.byte	0x8
 4120 0196 16000000 		.4byte	.LVL18
 4121 019a 06       		.uleb128 .LVL19-.LVL18
 4122 019b 02       		.uleb128 0x2
 4123 019c 30       		.byte	0x30
 4124 019d 9F       		.byte	0x9f
 4125 019e 00       		.byte	0
 4126              	.LVUS10:
 4127 019f 0B       		.uleb128 .LVU126
 4128 01a0 00       		.uleb128 .LVU130
 4129              	.LLST10:
 4130 01a1 08       		.byte	0x8
 4131 01a2 00000000 		.4byte	.LVL12
 4132 01a6 08       		.uleb128 .LVL13-.LVL12
 4133 01a7 03       		.uleb128 0x3
 4134 01a8 08       		.byte	0x8
 4135 01a9 30       		.byte	0x30
 4136 01aa 9F       		.byte	0x9f
 4137 01ab 00       		.byte	0
 4138              	.LVUS12:
 4139 01ac 0D       		.uleb128 .LVU153
 4140 01ad 00       		.uleb128 .LVU155
 4141              	.LLST12:
 4142 01ae 08       		.byte	0x8
 4143 01af 12000000 		.4byte	.LVL14
 4144 01b3 04       		.uleb128 .LVL15-.LVL14
 4145 01b4 02       		.uleb128 0x2
 4146 01b5 30       		.byte	0x30
 4147 01b6 9F       		.byte	0x9f
 4148 01b7 00       		.byte	0
 4149              	.LVUS5:
 4150 01b8 00       		.uleb128 0
 4151 01b9 00       		.uleb128 .LVU90
 4152 01ba 00       		.uleb128 .LVU90
 4153 01bb 00       		.uleb128 0
 4154              	.LLST5:
 4155 01bc 06       		.byte	0x6
 4156 01bd 00000000 		.4byte	.LVL7
 4157 01c1 04       		.byte	0x4
 4158 01c2 00       		.uleb128 .LVL7-.LVL7
 4159 01c3 0D       		.uleb128 .LVL9-1-.LVL7
 4160 01c4 01       		.uleb128 0x1
 4161 01c5 50       		.byte	0x50
ARM GAS  C:\Users\DEVELO~1\AppData\Local\Temp\ccjuHd8c.s 			page 74


 4162 01c6 04       		.byte	0x4
 4163 01c7 0D       		.uleb128 .LVL9-1-.LVL7
 4164 01c8 1E       		.uleb128 .LFE451-.LVL7
 4165 01c9 01       		.uleb128 0x1
 4166 01ca 54       		.byte	0x54
 4167 01cb 00       		.byte	0
 4168              	.LVUS7:
 4169 01cc 0B       		.uleb128 .LVU77
 4170 01cd 00       		.uleb128 .LVU83
 4171              	.LLST7:
 4172 01ce 08       		.byte	0x8
 4173 01cf 00000000 		.4byte	.LVL7
 4174 01d3 0A       		.uleb128 .LVL8-.LVL7
 4175 01d4 03       		.uleb128 0x3
 4176 01d5 08       		.byte	0x8
 4177 01d6 30       		.byte	0x30
 4178 01d7 9F       		.byte	0x9f
 4179 01d8 00       		.byte	0
 4180              	.LVUS8:
 4181 01d9 0C       		.uleb128 .LVU110
 4182 01da 00       		.uleb128 .LVU112
 4183              	.LLST8:
 4184 01db 08       		.byte	0x8
 4185 01dc 18000000 		.4byte	.LVL10
 4186 01e0 04       		.uleb128 .LVL11-.LVL10
 4187 01e1 02       		.uleb128 0x2
 4188 01e2 30       		.byte	0x30
 4189 01e3 9F       		.byte	0x9f
 4190 01e4 00       		.byte	0
 4191              	.LVUS0:
 4192 01e5 00       		.uleb128 0
 4193 01e6 00       		.uleb128 .LVU45
 4194 01e7 00       		.uleb128 .LVU45
 4195 01e8 00       		.uleb128 0
 4196              	.LLST0:
 4197 01e9 06       		.byte	0x6
 4198 01ea 00000000 		.4byte	.LVL2
 4199 01ee 04       		.byte	0x4
 4200 01ef 00       		.uleb128 .LVL2-.LVL2
 4201 01f0 17       		.uleb128 .LVL4-1-.LVL2
 4202 01f1 01       		.uleb128 0x1
 4203 01f2 50       		.byte	0x50
 4204 01f3 04       		.byte	0x4
 4205 01f4 17       		.uleb128 .LVL4-1-.LVL2
 4206 01f5 24       		.uleb128 .LFE450-.LVL2
 4207 01f6 01       		.uleb128 0x1
 4208 01f7 54       		.byte	0x54
 4209 01f8 00       		.byte	0
 4210              	.LVUS1:
 4211 01f9 00       		.uleb128 0
 4212 01fa 00       		.uleb128 .LVU45
 4213 01fb 00       		.uleb128 .LVU45
 4214 01fc 00       		.uleb128 0
 4215              	.LLST1:
 4216 01fd 06       		.byte	0x6
 4217 01fe 00000000 		.4byte	.LVL2
 4218 0202 04       		.byte	0x4
ARM GAS  C:\Users\DEVELO~1\AppData\Local\Temp\ccjuHd8c.s 			page 75


 4219 0203 00       		.uleb128 .LVL2-.LVL2
 4220 0204 17       		.uleb128 .LVL4-1-.LVL2
 4221 0205 01       		.uleb128 0x1
 4222 0206 51       		.byte	0x51
 4223 0207 04       		.byte	0x4
 4224 0208 17       		.uleb128 .LVL4-1-.LVL2
 4225 0209 24       		.uleb128 .LFE450-.LVL2
 4226 020a 04       		.uleb128 0x4
 4227 020b A3       		.byte	0xa3
 4228 020c 01       		.uleb128 0x1
 4229 020d 51       		.byte	0x51
 4230 020e 9F       		.byte	0x9f
 4231 020f 00       		.byte	0
 4232              	.LVUS3:
 4233 0210 0C       		.uleb128 .LVU26
 4234 0211 00       		.uleb128 .LVU32
 4235              	.LLST3:
 4236 0212 08       		.byte	0x8
 4237 0213 00000000 		.4byte	.LVL2
 4238 0217 0A       		.uleb128 .LVL3-.LVL2
 4239 0218 03       		.uleb128 0x3
 4240 0219 08       		.byte	0x8
 4241 021a 30       		.byte	0x30
 4242 021b 9F       		.byte	0x9f
 4243 021c 00       		.byte	0
 4244              	.LVUS4:
 4245 021d 0D       		.uleb128 .LVU60
 4246 021e 00       		.uleb128 .LVU62
 4247              	.LLST4:
 4248 021f 08       		.byte	0x8
 4249 0220 1C000000 		.4byte	.LVL5
 4250 0224 04       		.uleb128 .LVL6-.LVL5
 4251 0225 02       		.uleb128 0x2
 4252 0226 30       		.byte	0x30
 4253 0227 9F       		.byte	0x9f
 4254 0228 00       		.byte	0
 4255              	.Ldebug_loc3:
 4256              		.section	.debug_aranges,"",%progbits
 4257 0000 6C000000 		.4byte	0x6c
 4258 0004 0200     		.2byte	0x2
 4259 0006 00000000 		.4byte	.Ldebug_info0
 4260 000a 04       		.byte	0x4
 4261 000b 00       		.byte	0
 4262 000c 0000     		.2byte	0
 4263 000e 0000     		.2byte	0
 4264 0010 00000000 		.4byte	.LFB448
 4265 0014 04000000 		.4byte	.LFE448-.LFB448
 4266 0018 00000000 		.4byte	.LFB449
 4267 001c 0E000000 		.4byte	.LFE449-.LFB449
 4268 0020 00000000 		.4byte	.LFB450
 4269 0024 24000000 		.4byte	.LFE450-.LFB450
 4270 0028 00000000 		.4byte	.LFB451
 4271 002c 1E000000 		.4byte	.LFE451-.LFB451
 4272 0030 00000000 		.4byte	.LFB452
 4273 0034 1C000000 		.4byte	.LFE452-.LFB452
 4274 0038 00000000 		.4byte	.LFB453
 4275 003c 1E000000 		.4byte	.LFE453-.LFB453
ARM GAS  C:\Users\DEVELO~1\AppData\Local\Temp\ccjuHd8c.s 			page 76


 4276 0040 00000000 		.4byte	.LFB454
 4277 0044 26000000 		.4byte	.LFE454-.LFB454
 4278 0048 00000000 		.4byte	.LFB455
 4279 004c 14000000 		.4byte	.LFE455-.LFB455
 4280 0050 00000000 		.4byte	.LFB456
 4281 0054 14000000 		.4byte	.LFE456-.LFB456
 4282 0058 00000000 		.4byte	.LFB457
 4283 005c 14000000 		.4byte	.LFE457-.LFB457
 4284 0060 00000000 		.4byte	.LFB458
 4285 0064 14000000 		.4byte	.LFE458-.LFB458
 4286 0068 00000000 		.4byte	0
 4287 006c 00000000 		.4byte	0
 4288              		.section	.debug_rnglists,"",%progbits
 4289              	.Ldebug_ranges0:
 4290 0000 C9000000 		.4byte	.Ldebug_ranges3-.Ldebug_ranges2
 4291              	.Ldebug_ranges2:
 4292 0004 0500     		.2byte	0x5
 4293 0006 04       		.byte	0x4
 4294 0007 00       		.byte	0
 4295 0008 00000000 		.4byte	0
 4296              	.LLRL2:
 4297 000c 05       		.byte	0x5
 4298 000d 00000000 		.4byte	.LBB141
 4299 0011 04       		.byte	0x4
 4300 0012 00       		.uleb128 .LBB141-.LBB141
 4301 0013 00       		.uleb128 .LBE141-.LBB141
 4302 0014 04       		.byte	0x4
 4303 0015 02       		.uleb128 .LBB154-.LBB141
 4304 0016 04       		.uleb128 .LBE154-.LBB141
 4305 0017 04       		.byte	0x4
 4306 0018 06       		.uleb128 .LBB155-.LBB141
 4307 0019 0A       		.uleb128 .LBE155-.LBB141
 4308 001a 00       		.byte	0
 4309              	.LLRL6:
 4310 001b 05       		.byte	0x5
 4311 001c 00000000 		.4byte	.LBB162
 4312 0020 04       		.byte	0x4
 4313 0021 00       		.uleb128 .LBB162-.LBB162
 4314 0022 00       		.uleb128 .LBE162-.LBB162
 4315 0023 04       		.byte	0x4
 4316 0024 02       		.uleb128 .LBB175-.LBB162
 4317 0025 04       		.uleb128 .LBE175-.LBB162
 4318 0026 04       		.byte	0x4
 4319 0027 06       		.uleb128 .LBB176-.LBB162
 4320 0028 0A       		.uleb128 .LBE176-.LBB162
 4321 0029 00       		.byte	0
 4322              	.LLRL9:
 4323 002a 05       		.byte	0x5
 4324 002b 00000000 		.4byte	.LBB183
 4325 002f 04       		.byte	0x4
 4326 0030 00       		.uleb128 .LBB183-.LBB183
 4327 0031 00       		.uleb128 .LBE183-.LBB183
 4328 0032 04       		.byte	0x4
 4329 0033 02       		.uleb128 .LBB192-.LBB183
 4330 0034 08       		.uleb128 .LBE192-.LBB183
 4331 0035 00       		.byte	0
 4332              	.LLRL11:
ARM GAS  C:\Users\DEVELO~1\AppData\Local\Temp\ccjuHd8c.s 			page 77


 4333 0036 05       		.byte	0x5
 4334 0037 0E000000 		.4byte	.LBB193
 4335 003b 04       		.byte	0x4
 4336 003c 00       		.uleb128 .LBB193-.LBB193
 4337 003d 02       		.uleb128 .LBE193-.LBB193
 4338 003e 04       		.byte	0x4
 4339 003f 04       		.uleb128 .LBB204-.LBB193
 4340 0040 08       		.uleb128 .LBE204-.LBB193
 4341 0041 00       		.byte	0
 4342              	.LLRL16:
 4343 0042 05       		.byte	0x5
 4344 0043 00000000 		.4byte	.LBB205
 4345 0047 04       		.byte	0x4
 4346 0048 00       		.uleb128 .LBB205-.LBB205
 4347 0049 00       		.uleb128 .LBE205-.LBB205
 4348 004a 04       		.byte	0x4
 4349 004b 02       		.uleb128 .LBB214-.LBB205
 4350 004c 08       		.uleb128 .LBE214-.LBB205
 4351 004d 00       		.byte	0
 4352              	.LLRL21:
 4353 004e 05       		.byte	0x5
 4354 004f 00000000 		.4byte	.LBB221
 4355 0053 04       		.byte	0x4
 4356 0054 00       		.uleb128 .LBB221-.LBB221
 4357 0055 04       		.uleb128 .LBE221-.LBB221
 4358 0056 04       		.byte	0x4
 4359 0057 06       		.uleb128 .LBB230-.LBB221
 4360 0058 0A       		.uleb128 .LBE230-.LBB221
 4361 0059 00       		.byte	0
 4362              	.LLRL25:
 4363 005a 05       		.byte	0x5
 4364 005b 00000000 		.4byte	.LBB237
 4365 005f 04       		.byte	0x4
 4366 0060 00       		.uleb128 .LBB237-.LBB237
 4367 0061 00       		.uleb128 .LBE237-.LBB237
 4368 0062 04       		.byte	0x4
 4369 0063 02       		.uleb128 .LBB246-.LBB237
 4370 0064 08       		.uleb128 .LBE246-.LBB237
 4371 0065 00       		.byte	0
 4372              	.LLRL29:
 4373 0066 05       		.byte	0x5
 4374 0067 00000000 		.4byte	.LBB253
 4375 006b 04       		.byte	0x4
 4376 006c 00       		.uleb128 .LBB253-.LBB253
 4377 006d 00       		.uleb128 .LBE253-.LBB253
 4378 006e 04       		.byte	0x4
 4379 006f 02       		.uleb128 .LBB262-.LBB253
 4380 0070 08       		.uleb128 .LBE262-.LBB253
 4381 0071 00       		.byte	0
 4382              	.LLRL34:
 4383 0072 05       		.byte	0x5
 4384 0073 00000000 		.4byte	.LBB269
 4385 0077 04       		.byte	0x4
 4386 0078 00       		.uleb128 .LBB269-.LBB269
 4387 0079 00       		.uleb128 .LBE269-.LBB269
 4388 007a 04       		.byte	0x4
 4389 007b 02       		.uleb128 .LBB278-.LBB269
ARM GAS  C:\Users\DEVELO~1\AppData\Local\Temp\ccjuHd8c.s 			page 78


 4390 007c 08       		.uleb128 .LBE278-.LBB269
 4391 007d 00       		.byte	0
 4392              	.LLRL39:
 4393 007e 05       		.byte	0x5
 4394 007f 00000000 		.4byte	.LBB285
 4395 0083 04       		.byte	0x4
 4396 0084 00       		.uleb128 .LBB285-.LBB285
 4397 0085 00       		.uleb128 .LBE285-.LBB285
 4398 0086 04       		.byte	0x4
 4399 0087 02       		.uleb128 .LBB294-.LBB285
 4400 0088 08       		.uleb128 .LBE294-.LBB285
 4401 0089 00       		.byte	0
 4402              	.LLRL42:
 4403 008a 07       		.byte	0x7
 4404 008b 00000000 		.4byte	.LFB448
 4405 008f 04       		.uleb128 .LFE448-.LFB448
 4406 0090 07       		.byte	0x7
 4407 0091 00000000 		.4byte	.LFB449
 4408 0095 0E       		.uleb128 .LFE449-.LFB449
 4409 0096 07       		.byte	0x7
 4410 0097 00000000 		.4byte	.LFB450
 4411 009b 24       		.uleb128 .LFE450-.LFB450
 4412 009c 07       		.byte	0x7
 4413 009d 00000000 		.4byte	.LFB451
 4414 00a1 1E       		.uleb128 .LFE451-.LFB451
 4415 00a2 07       		.byte	0x7
 4416 00a3 00000000 		.4byte	.LFB452
 4417 00a7 1C       		.uleb128 .LFE452-.LFB452
 4418 00a8 07       		.byte	0x7
 4419 00a9 00000000 		.4byte	.LFB453
 4420 00ad 1E       		.uleb128 .LFE453-.LFB453
 4421 00ae 07       		.byte	0x7
 4422 00af 00000000 		.4byte	.LFB454
 4423 00b3 26       		.uleb128 .LFE454-.LFB454
 4424 00b4 07       		.byte	0x7
 4425 00b5 00000000 		.4byte	.LFB455
 4426 00b9 14       		.uleb128 .LFE455-.LFB455
 4427 00ba 07       		.byte	0x7
 4428 00bb 00000000 		.4byte	.LFB456
 4429 00bf 14       		.uleb128 .LFE456-.LFB456
 4430 00c0 07       		.byte	0x7
 4431 00c1 00000000 		.4byte	.LFB457
 4432 00c5 14       		.uleb128 .LFE457-.LFB457
 4433 00c6 07       		.byte	0x7
 4434 00c7 00000000 		.4byte	.LFB458
 4435 00cb 14       		.uleb128 .LFE458-.LFB458
 4436 00cc 00       		.byte	0
 4437              	.Ldebug_ranges3:
 4438              		.section	.debug_line,"",%progbits
 4439              	.Ldebug_line0:
 4440 0000 36090000 		.section	.debug_str,"MS",%progbits,1
 4440      03005302 
 4440      00000201 
 4440      FB0E0D00 
 4440      01010101 
 4441              	.LASF2:
 4442 0000 6C6F6E67 		.ascii	"long double\000"
ARM GAS  C:\Users\DEVELO~1\AppData\Local\Temp\ccjuHd8c.s 			page 79


 4442      20646F75 
 4442      626C6500 
 4443              	.LASF67:
 4444 000c 70776D45 		.ascii	"pwmEnablePeriodicNotification\000"
 4444      6E61626C 
 4444      65506572 
 4444      696F6469 
 4444      634E6F74 
 4445              	.LASF23:
 4446 002a 43434552 		.ascii	"CCER\000"
 4446      00
 4447              	.LASF80:
 4448 002f 474E5520 		.ascii	"GNU C17 11.3.1 20220712 -mcpu=cortex-m7 -mthumb -mf"
 4448      43313720 
 4448      31312E33 
 4448      2E312032 
 4448      30323230 
 4449 0062 6C6F6174 		.ascii	"loat-abi=hard -mfpu=fpv5-d16 -march=armv7e-m+fp.dp "
 4449      2D616269 
 4449      3D686172 
 4449      64202D6D 
 4449      6670753D 
 4450 0095 2D676764 		.ascii	"-ggdb -O2 -ffunction-sections -fdata-sections -fno-"
 4450      62202D4F 
 4450      32202D66 
 4450      66756E63 
 4450      74696F6E 
 4451 00c8 636F6D6D 		.ascii	"common\000"
 4451      6F6E00
 4452              	.LASF25:
 4453 00cf 444D4152 		.ascii	"DMAR\000"
 4453      00
 4454              	.LASF34:
 4455 00d4 73746174 		.ascii	"state\000"
 4455      6500
 4456              	.LASF22:
 4457 00da 43434D52 		.ascii	"CCMR2\000"
 4457      3200
 4458              	.LASF26:
 4459 00e0 43434D52 		.ascii	"CCMR3\000"
 4459      3300
 4460              	.LASF27:
 4461 00e6 43435852 		.ascii	"CCXR\000"
 4461      00
 4462              	.LASF45:
 4463 00eb 70776D63 		.ascii	"pwmcnt_t\000"
 4463      6E745F74 
 4463      00
 4464              	.LASF59:
 4465 00f4 70776D5F 		.ascii	"pwm_lld_stop\000"
 4465      6C6C645F 
 4465      73746F70 
 4465      00
 4466              	.LASF81:
 4467 0101 2E2F646F 		.ascii	"./docs/ChibiOS/os/hal/src/hal_pwm.c\000"
 4467      63732F43 
 4467      68696269 
ARM GAS  C:\Users\DEVELO~1\AppData\Local\Temp\ccjuHd8c.s 			page 80


 4467      4F532F6F 
 4467      732F6861 
 4468              	.LASF75:
 4469 0125 6F73616C 		.ascii	"osalSysUnlock\000"
 4469      53797355 
 4469      6E6C6F63 
 4469      6B00
 4470              	.LASF43:
 4471 0133 70776D63 		.ascii	"pwmchannel_t\000"
 4471      68616E6E 
 4471      656C5F74 
 4471      00
 4472              	.LASF79:
 4473 0140 706F7274 		.ascii	"port_lock\000"
 4473      5F6C6F63 
 4473      6B00
 4474              	.LASF77:
 4475 014a 63685379 		.ascii	"chSysLock\000"
 4475      734C6F63 
 4475      6B00
 4476              	.LASF46:
 4477 0154 6D6F6465 		.ascii	"mode\000"
 4477      00
 4478              	.LASF38:
 4479 0159 6368616E 		.ascii	"channels\000"
 4479      6E656C73 
 4479      00
 4480              	.LASF5:
 4481 0162 73686F72 		.ascii	"short int\000"
 4481      7420696E 
 4481      7400
 4482              	.LASF64:
 4483 016c 70776D45 		.ascii	"pwmEnableChannelNotification\000"
 4483      6E61626C 
 4483      65436861 
 4483      6E6E656C 
 4483      4E6F7469 
 4484              	.LASF66:
 4485 0189 70776D44 		.ascii	"pwmDisablePeriodicNotification\000"
 4485      69736162 
 4485      6C655065 
 4485      72696F64 
 4485      69634E6F 
 4486              	.LASF73:
 4487 01a8 70776D4F 		.ascii	"pwmObjectInit\000"
 4487      626A6563 
 4487      74496E69 
 4487      7400
 4488              	.LASF13:
 4489 01b6 75696E74 		.ascii	"uint8_t\000"
 4489      385F7400 
 4490              	.LASF69:
 4491 01be 70776D45 		.ascii	"pwmEnableChannel\000"
 4491      6E61626C 
 4491      65436861 
 4491      6E6E656C 
 4491      00
ARM GAS  C:\Users\DEVELO~1\AppData\Local\Temp\ccjuHd8c.s 			page 81


 4492              	.LASF54:
 4493 01cf 70776D5F 		.ascii	"pwm_lld_enable_channel_notification\000"
 4493      6C6C645F 
 4493      656E6162 
 4493      6C655F63 
 4493      68616E6E 
 4494              	.LASF35:
 4495 01f3 636F6E66 		.ascii	"config\000"
 4495      696700
 4496              	.LASF70:
 4497 01fa 77696474 		.ascii	"width\000"
 4497      6800
 4498              	.LASF61:
 4499 0200 70776D70 		.ascii	"pwmp\000"
 4499      00
 4500              	.LASF84:
 4501 0205 70776D53 		.ascii	"pwmStart\000"
 4501      74617274 
 4501      00
 4502              	.LASF40:
 4503 020e 6861735F 		.ascii	"has_bdtr\000"
 4503      62647472 
 4503      00
 4504              	.LASF1:
 4505 0217 6C6F6E67 		.ascii	"long long int\000"
 4505      206C6F6E 
 4505      6720696E 
 4505      7400
 4506              	.LASF83:
 4507 0225 70776D5F 		.ascii	"pwm_lld_init\000"
 4507      6C6C645F 
 4507      696E6974 
 4507      00
 4508              	.LASF17:
 4509 0232 63686172 		.ascii	"char\000"
 4509      00
 4510              	.LASF9:
 4511 0237 6C6F6E67 		.ascii	"long int\000"
 4511      20696E74 
 4511      00
 4512              	.LASF74:
 4513 0240 70776D49 		.ascii	"pwmInit\000"
 4513      6E697400 
 4514              	.LASF39:
 4515 0248 636C6F63 		.ascii	"clock\000"
 4515      6B00
 4516              	.LASF36:
 4517 024e 70657269 		.ascii	"period\000"
 4517      6F6400
 4518              	.LASF7:
 4519 0255 5F5F7569 		.ascii	"__uint8_t\000"
 4519      6E74385F 
 4519      7400
 4520              	.LASF57:
 4521 025f 70776D5F 		.ascii	"pwm_lld_disable_channel\000"
 4521      6C6C645F 
 4521      64697361 
ARM GAS  C:\Users\DEVELO~1\AppData\Local\Temp\ccjuHd8c.s 			page 82


 4521      626C655F 
 4521      6368616E 
 4522              	.LASF60:
 4523 0277 70776D5F 		.ascii	"pwm_lld_start\000"
 4523      6C6C645F 
 4523      73746172 
 4523      7400
 4524              	.LASF52:
 4525 0285 50574D43 		.ascii	"PWMConfig\000"
 4525      6F6E6669 
 4525      6700
 4526              	.LASF21:
 4527 028f 43434D52 		.ascii	"CCMR1\000"
 4527      3100
 4528              	.LASF76:
 4529 0295 6F73616C 		.ascii	"osalSysLock\000"
 4529      5379734C 
 4529      6F636B00 
 4530              	.LASF4:
 4531 02a1 756E7369 		.ascii	"unsigned char\000"
 4531      676E6564 
 4531      20636861 
 4531      7200
 4532              	.LASF19:
 4533 02af 534D4352 		.ascii	"SMCR\000"
 4533      00
 4534              	.LASF29:
 4535 02b4 50574D5F 		.ascii	"PWM_UNINIT\000"
 4535      554E494E 
 4535      495400
 4536              	.LASF65:
 4537 02bf 5F5F6675 		.ascii	"__func__\000"
 4537      6E635F5F 
 4537      00
 4538              	.LASF58:
 4539 02c8 70776D5F 		.ascii	"pwm_lld_enable_channel\000"
 4539      6C6C645F 
 4539      656E6162 
 4539      6C655F63 
 4539      68616E6E 
 4540              	.LASF56:
 4541 02df 70776D5F 		.ascii	"pwm_lld_enable_periodic_notification\000"
 4541      6C6C645F 
 4541      656E6162 
 4541      6C655F70 
 4541      6572696F 
 4542              	.LASF68:
 4543 0304 70776D44 		.ascii	"pwmDisableChannel\000"
 4543      69736162 
 4543      6C654368 
 4543      616E6E65 
 4543      6C00
 4544              	.LASF3:
 4545 0316 7369676E 		.ascii	"signed char\000"
 4545      65642063 
 4545      68617200 
 4546              	.LASF12:
ARM GAS  C:\Users\DEVELO~1\AppData\Local\Temp\ccjuHd8c.s 			page 83


 4547 0322 6C6F6E67 		.ascii	"long long unsigned int\000"
 4547      206C6F6E 
 4547      6720756E 
 4547      7369676E 
 4547      65642069 
 4548              	.LASF15:
 4549 0339 75696E74 		.ascii	"uint32_t\000"
 4549      33325F74 
 4549      00
 4550              	.LASF0:
 4551 0342 756E7369 		.ascii	"unsigned int\000"
 4551      676E6564 
 4551      20696E74 
 4551      00
 4552              	.LASF33:
 4553 034f 50574D44 		.ascii	"PWMDriver\000"
 4553      72697665 
 4553      7200
 4554              	.LASF20:
 4555 0359 44494552 		.ascii	"DIER\000"
 4555      00
 4556              	.LASF55:
 4557 035e 70776D5F 		.ascii	"pwm_lld_disable_periodic_notification\000"
 4557      6C6C645F 
 4557      64697361 
 4557      626C655F 
 4557      70657269 
 4558              	.LASF6:
 4559 0384 73686F72 		.ascii	"short unsigned int\000"
 4559      7420756E 
 4559      7369676E 
 4559      65642069 
 4559      6E7400
 4560              	.LASF87:
 4561 0397 62617365 		.ascii	"basePri\000"
 4561      50726900 
 4562              	.LASF53:
 4563 039f 70776D5F 		.ascii	"pwm_lld_disable_channel_notification\000"
 4563      6C6C645F 
 4563      64697361 
 4563      626C655F 
 4563      6368616E 
 4564              	.LASF28:
 4565 03c4 73746D33 		.ascii	"stm32_tim_t\000"
 4565      325F7469 
 4565      6D5F7400 
 4566              	.LASF24:
 4567 03d0 42445452 		.ascii	"BDTR\000"
 4567      00
 4568              	.LASF14:
 4569 03d5 696E7433 		.ascii	"int32_t\000"
 4569      325F7400 
 4570              	.LASF18:
 4571 03dd 5F426F6F 		.ascii	"_Bool\000"
 4571      6C00
 4572              	.LASF78:
 4573 03e3 706F7274 		.ascii	"port_unlock\000"
ARM GAS  C:\Users\DEVELO~1\AppData\Local\Temp\ccjuHd8c.s 			page 84


 4573      5F756E6C 
 4573      6F636B00 
 4574              	.LASF44:
 4575 03ef 70776D63 		.ascii	"pwmchnmsk_t\000"
 4575      686E6D73 
 4575      6B5F7400 
 4576              	.LASF62:
 4577 03fb 6368616E 		.ascii	"channel\000"
 4577      6E656C00 
 4578              	.LASF71:
 4579 0403 70776D43 		.ascii	"pwmChangePeriod\000"
 4579      68616E67 
 4579      65506572 
 4579      696F6400 
 4580              	.LASF11:
 4581 0413 6C6F6E67 		.ascii	"long unsigned int\000"
 4581      20756E73 
 4581      69676E65 
 4581      6420696E 
 4581      7400
 4582              	.LASF32:
 4583 0425 70776D73 		.ascii	"pwmstate_t\000"
 4583      74617465 
 4583      5F7400
 4584              	.LASF10:
 4585 0430 5F5F7569 		.ascii	"__uint32_t\000"
 4585      6E743332 
 4585      5F7400
 4586              	.LASF82:
 4587 043b 433A5C43 		.ascii	"C:\\ChibiStudio\\ChibiOS-master\\demos\\STM32\\CUST"
 4587      68696269 
 4587      53747564 
 4587      696F5C43 
 4587      68696269 
 4588 0469 4F4D5F48 		.ascii	"OM_H743IIT6_maj\000"
 4588      37343349 
 4588      4954365F 
 4588      6D616A00 
 4589              	.LASF85:
 4590 0479 63685379 		.ascii	"chSysUnlock\000"
 4590      73556E6C 
 4590      6F636B00 
 4591              	.LASF8:
 4592 0485 5F5F696E 		.ascii	"__int32_t\000"
 4592      7433325F 
 4592      7400
 4593              	.LASF31:
 4594 048f 50574D5F 		.ascii	"PWM_READY\000"
 4594      52454144 
 4594      5900
 4595              	.LASF37:
 4596 0499 656E6162 		.ascii	"enabled\000"
 4596      6C656400 
 4597              	.LASF30:
 4598 04a1 50574D5F 		.ascii	"PWM_STOP\000"
 4598      53544F50 
 4598      00
ARM GAS  C:\Users\DEVELO~1\AppData\Local\Temp\ccjuHd8c.s 			page 85


 4599              	.LASF51:
 4600 04aa 64696572 		.ascii	"dier\000"
 4600      00
 4601              	.LASF72:
 4602 04af 70776D53 		.ascii	"pwmStop\000"
 4602      746F7000 
 4603              	.LASF49:
 4604 04b7 66726571 		.ascii	"frequency\000"
 4604      75656E63 
 4604      7900
 4605              	.LASF48:
 4606 04c1 50574D43 		.ascii	"PWMChannelConfig\000"
 4606      68616E6E 
 4606      656C436F 
 4606      6E666967 
 4606      00
 4607              	.LASF86:
 4608 04d2 5F5F7365 		.ascii	"__set_BASEPRI\000"
 4608      745F4241 
 4608      53455052 
 4608      4900
 4609              	.LASF42:
 4610 04e0 70776D6D 		.ascii	"pwmmode_t\000"
 4610      6F64655F 
 4610      7400
 4611              	.LASF50:
 4612 04ea 62647472 		.ascii	"bdtr\000"
 4612      00
 4613              	.LASF63:
 4614 04ef 70776D44 		.ascii	"pwmDisableChannelNotification\000"
 4614      69736162 
 4614      6C654368 
 4614      616E6E65 
 4614      6C4E6F74 
 4615              	.LASF41:
 4616 050d 70776D63 		.ascii	"pwmcallback_t\000"
 4616      616C6C62 
 4616      61636B5F 
 4616      7400
 4617              	.LASF16:
 4618 051b 6D73675F 		.ascii	"msg_t\000"
 4618      7400
 4619              	.LASF47:
 4620 0521 63616C6C 		.ascii	"callback\000"
 4620      6261636B 
 4620      00
 4621              		.ident	"GCC: (Arm GNU Toolchain 11.3.Rel1) 11.3.1 20220712"
ARM GAS  C:\Users\DEVELO~1\AppData\Local\Temp\ccjuHd8c.s 			page 86


DEFINED SYMBOLS
                            *ABS*:00000000 hal_pwm.c
C:\Users\DEVELO~1\AppData\Local\Temp\ccjuHd8c.s:19     .text.pwmInit:00000000 $t
C:\Users\DEVELO~1\AppData\Local\Temp\ccjuHd8c.s:26     .text.pwmInit:00000000 pwmInit
C:\Users\DEVELO~1\AppData\Local\Temp\ccjuHd8c.s:41     .text.pwmObjectInit:00000000 $t
C:\Users\DEVELO~1\AppData\Local\Temp\ccjuHd8c.s:48     .text.pwmObjectInit:00000000 pwmObjectInit
C:\Users\DEVELO~1\AppData\Local\Temp\ccjuHd8c.s:78     .text.pwmStart:00000000 $t
C:\Users\DEVELO~1\AppData\Local\Temp\ccjuHd8c.s:85     .text.pwmStart:00000000 pwmStart
C:\Users\DEVELO~1\AppData\Local\Temp\ccjuHd8c.s:234    .text.pwmStop:00000000 $t
C:\Users\DEVELO~1\AppData\Local\Temp\ccjuHd8c.s:241    .text.pwmStop:00000000 pwmStop
C:\Users\DEVELO~1\AppData\Local\Temp\ccjuHd8c.s:379    .text.pwmChangePeriod:00000000 $t
C:\Users\DEVELO~1\AppData\Local\Temp\ccjuHd8c.s:386    .text.pwmChangePeriod:00000000 pwmChangePeriod
C:\Users\DEVELO~1\AppData\Local\Temp\ccjuHd8c.s:519    .text.pwmEnableChannel:00000000 $t
C:\Users\DEVELO~1\AppData\Local\Temp\ccjuHd8c.s:526    .text.pwmEnableChannel:00000000 pwmEnableChannel
C:\Users\DEVELO~1\AppData\Local\Temp\ccjuHd8c.s:647    .text.pwmDisableChannel:00000000 $t
C:\Users\DEVELO~1\AppData\Local\Temp\ccjuHd8c.s:654    .text.pwmDisableChannel:00000000 pwmDisableChannel
C:\Users\DEVELO~1\AppData\Local\Temp\ccjuHd8c.s:773    .text.pwmEnablePeriodicNotification:00000000 $t
C:\Users\DEVELO~1\AppData\Local\Temp\ccjuHd8c.s:780    .text.pwmEnablePeriodicNotification:00000000 pwmEnablePeriodicNotification
C:\Users\DEVELO~1\AppData\Local\Temp\ccjuHd8c.s:894    .text.pwmDisablePeriodicNotification:00000000 $t
C:\Users\DEVELO~1\AppData\Local\Temp\ccjuHd8c.s:901    .text.pwmDisablePeriodicNotification:00000000 pwmDisablePeriodicNotification
C:\Users\DEVELO~1\AppData\Local\Temp\ccjuHd8c.s:1015   .text.pwmEnableChannelNotification:00000000 $t
C:\Users\DEVELO~1\AppData\Local\Temp\ccjuHd8c.s:1022   .text.pwmEnableChannelNotification:00000000 pwmEnableChannelNotification
C:\Users\DEVELO~1\AppData\Local\Temp\ccjuHd8c.s:1139   .text.pwmDisableChannelNotification:00000000 $t
C:\Users\DEVELO~1\AppData\Local\Temp\ccjuHd8c.s:1146   .text.pwmDisableChannelNotification:00000000 pwmDisableChannelNotification

UNDEFINED SYMBOLS
pwm_lld_init
pwm_lld_start
pwm_lld_stop
pwm_lld_enable_channel
pwm_lld_disable_channel
pwm_lld_enable_periodic_notification
pwm_lld_disable_periodic_notification
pwm_lld_enable_channel_notification
pwm_lld_disable_channel_notification
