ARM GAS  C:\Users\DEVELO~1\AppData\Local\Temp\ccNqWhix.s 			page 1


   1              		.cpu cortex-m7
   2              		.arch armv7e-m
   3              		.fpu fpv5-d16
   4              		.eabi_attribute 28, 1
   5              		.eabi_attribute 20, 1
   6              		.eabi_attribute 21, 1
   7              		.eabi_attribute 23, 3
   8              		.eabi_attribute 24, 1
   9              		.eabi_attribute 25, 1
  10              		.eabi_attribute 26, 1
  11              		.eabi_attribute 30, 2
  12              		.eabi_attribute 34, 1
  13              		.eabi_attribute 18, 4
  14              		.file	"hal_safety.c"
  15              		.text
  16              	.Ltext0:
  17              		.cfi_sections	.debug_frame
  18              		.section	.text.halSftFail,"ax",%progbits
  19              		.align	1
  20              		.p2align 2,,3
  21              		.global	halSftFail
  22              		.syntax unified
  23              		.thumb
  24              		.thumb_func
  25              		.type	halSftFail, %function
  26              	halSftFail:
  27              	.LVL0:
  28              	.LFB451:
  29              		.file 1 "../../../os/hal/src/hal_safety.c"
  30              		.loc 1 89 38 view -0
  31              		.cfi_startproc
  32              		@ Volatile: function does not return.
  33              		@ args = 0, pretend = 0, frame = 0
  34              		@ frame_needed = 0, uses_anonymous_args = 0
  35              		.loc 1 94 5 view .LVU1
  36              	.LBB111:
  37              	.LBI111:
  38              		.file 2 "../../../os/hal/osal/rt-nil/osal.h"
  39              		.loc 2 542 20 view .LVU2
  40              	.LBB112:
  41              		.loc 2 544 3 view .LVU3
  42              	.LBE112:
  43              	.LBE111:
  44              		.loc 1 89 38 is_stmt 0 view .LVU4
  45 0000 08B5     		push	{r3, lr}
  46              		.cfi_def_cfa_offset 8
  47              		.cfi_offset 3, -8
  48              		.cfi_offset 14, -4
  49              	.LBB114:
  50              	.LBB113:
  51              		.loc 2 544 3 view .LVU5
  52 0002 FFF7FEFF 		bl	chSysHalt
  53              	.LVL1:
  54              	.L2:
  55              		.loc 2 544 3 view .LVU6
  56              	.LBE113:
  57              	.LBE114:
ARM GAS  C:\Users\DEVELO~1\AppData\Local\Temp\ccNqWhix.s 			page 2


  58              		.loc 1 95 5 is_stmt 1 discriminator 1 view .LVU7
  59              		.loc 1 95 19 discriminator 1 view .LVU8
  60              		.loc 1 95 11 discriminator 1 view .LVU9
  61              		.loc 1 95 5 discriminator 1 view .LVU10
  62              		.loc 1 95 19 discriminator 1 view .LVU11
  63              		.loc 1 95 11 discriminator 1 view .LVU12
  64 0006 FEE7     		b	.L2
  65              		.cfi_endproc
  66              	.LFE451:
  67              		.size	halSftFail, .-halSftFail
  68              		.section	.text.halRegWaitMatch8X,"ax",%progbits
  69              		.align	1
  70              		.p2align 2,,3
  71              		.global	halRegWaitMatch8X
  72              		.syntax unified
  73              		.thumb
  74              		.thumb_func
  75              		.type	halRegWaitMatch8X, %function
  76              	halRegWaitMatch8X:
  77              	.LVL2:
  78              	.LFB452:
  79              		.loc 1 117 68 view -0
  80              		.cfi_startproc
  81              		@ args = 4, pretend = 0, frame = 0
  82              		@ frame_needed = 0, uses_anonymous_args = 0
  83              		@ link register save eliminated.
  84              		.loc 1 117 68 is_stmt 0 view .LVU14
  85 0000 10B4     		push	{r4}
  86              		.cfi_def_cfa_offset 4
  87              		.cfi_offset 4, -4
  88              		.loc 1 117 68 view .LVU15
  89 0002 019C     		ldr	r4, [sp, #4]
  90              		.loc 1 118 3 is_stmt 1 view .LVU16
  91              		.loc 1 121 3 view .LVU17
  92              	.LVL3:
  93              		.loc 1 122 3 view .LVU18
  94              		.loc 1 122 3 is_stmt 0 view .LVU19
  95 0004 00E0     		b	.L8
  96              	.LVL4:
  97              	.L16:
  98              		.loc 1 137 12 view .LVU20
  99 0006 73B1     		cbz	r3, .L15
 100              	.LVL5:
 101              	.L8:
 102              		.loc 1 126 3 is_stmt 1 view .LVU21
 103              	.LBB115:
 104              		.loc 1 128 5 view .LVU22
 105              		.loc 1 130 7 view .LVU23
 106              		.loc 1 134 5 view .LVU24
 107              	.LBE115:
 108              		.loc 1 137 12 view .LVU25
 109              	.LBB116:
 110              		.loc 1 128 13 is_stmt 0 view .LVU26
 111 0008 90F800C0 		ldrb	ip, [r0]	@ zero_extendqisi2
 112 000c 5FFA8CFC 		uxtb	ip, ip
 113              	.LVL6:
 114              		.loc 1 129 5 is_stmt 1 view .LVU27
ARM GAS  C:\Users\DEVELO~1\AppData\Local\Temp\ccNqWhix.s 			page 3


 115              		.loc 1 129 8 is_stmt 0 view .LVU28
 116 0010 0CB1     		cbz	r4, .L6
 117              		.loc 1 130 13 view .LVU29
 118 0012 84F800C0 		strb	ip, [r4]
 119              	.L6:
 120              		.loc 1 134 8 view .LVU30
 121 0016 0CEA010C 		and	ip, ip, r1
 122              	.LVL7:
 123              		.loc 1 134 8 view .LVU31
 124 001a 9445     		cmp	ip, r2
 125 001c F3D1     		bne	.L16
 126              		.loc 1 135 14 view .LVU32
 127 001e 0020     		movs	r0, #0
 128              	.LVL8:
 129              		.loc 1 135 14 view .LVU33
 130              	.LBE116:
 131              		.loc 1 140 1 view .LVU34
 132 0020 5DF8044B 		ldr	r4, [sp], #4
 133              		.cfi_remember_state
 134              		.cfi_restore 4
 135              		.cfi_def_cfa_offset 0
 136              	.LVL9:
 137              		.loc 1 140 1 view .LVU35
 138 0024 7047     		bx	lr
 139              	.LVL10:
 140              	.L15:
 141              		.cfi_restore_state
 142              		.loc 1 139 10 view .LVU36
 143 0026 0120     		movs	r0, #1
 144              	.LVL11:
 145              		.loc 1 140 1 view .LVU37
 146 0028 5DF8044B 		ldr	r4, [sp], #4
 147              		.cfi_restore 4
 148              		.cfi_def_cfa_offset 0
 149              	.LVL12:
 150              		.loc 1 140 1 view .LVU38
 151 002c 7047     		bx	lr
 152              		.cfi_endproc
 153              	.LFE452:
 154              		.size	halRegWaitMatch8X, .-halRegWaitMatch8X
 155              		.section	.text.halRegWaitMatch16X,"ax",%progbits
 156              		.align	1
 157              		.p2align 2,,3
 158              		.global	halRegWaitMatch16X
 159              		.syntax unified
 160              		.thumb
 161              		.thumb_func
 162              		.type	halRegWaitMatch16X, %function
 163              	halRegWaitMatch16X:
 164              	.LVL13:
 165              	.LFB453:
 166              		.loc 1 160 71 is_stmt 1 view -0
 167              		.cfi_startproc
 168              		@ args = 4, pretend = 0, frame = 0
 169              		@ frame_needed = 0, uses_anonymous_args = 0
 170              		@ link register save eliminated.
 171              		.loc 1 160 71 is_stmt 0 view .LVU40
ARM GAS  C:\Users\DEVELO~1\AppData\Local\Temp\ccNqWhix.s 			page 4


 172 0000 10B4     		push	{r4}
 173              		.cfi_def_cfa_offset 4
 174              		.cfi_offset 4, -4
 175              		.loc 1 160 71 view .LVU41
 176 0002 019C     		ldr	r4, [sp, #4]
 177              		.loc 1 161 3 is_stmt 1 view .LVU42
 178              		.loc 1 164 3 view .LVU43
 179              	.LVL14:
 180              		.loc 1 165 3 view .LVU44
 181              		.loc 1 165 3 is_stmt 0 view .LVU45
 182 0004 00E0     		b	.L20
 183              	.LVL15:
 184              	.L28:
 185              		.loc 1 180 12 view .LVU46
 186 0006 73B1     		cbz	r3, .L27
 187              	.LVL16:
 188              	.L20:
 189              		.loc 1 169 3 is_stmt 1 view .LVU47
 190              	.LBB117:
 191              		.loc 1 171 5 view .LVU48
 192              		.loc 1 173 7 view .LVU49
 193              		.loc 1 177 5 view .LVU50
 194              	.LBE117:
 195              		.loc 1 180 12 view .LVU51
 196              	.LBB118:
 197              		.loc 1 171 14 is_stmt 0 view .LVU52
 198 0008 B0F800C0 		ldrh	ip, [r0]
 199 000c 1FFA8CFC 		uxth	ip, ip
 200              	.LVL17:
 201              		.loc 1 172 5 is_stmt 1 view .LVU53
 202              		.loc 1 172 8 is_stmt 0 view .LVU54
 203 0010 0CB1     		cbz	r4, .L18
 204              		.loc 1 173 13 view .LVU55
 205 0012 A4F800C0 		strh	ip, [r4]	@ movhi
 206              	.L18:
 207              		.loc 1 177 8 view .LVU56
 208 0016 0CEA010C 		and	ip, ip, r1
 209              	.LVL18:
 210              		.loc 1 177 8 view .LVU57
 211 001a 9445     		cmp	ip, r2
 212 001c F3D1     		bne	.L28
 213              		.loc 1 178 14 view .LVU58
 214 001e 0020     		movs	r0, #0
 215              	.LVL19:
 216              		.loc 1 178 14 view .LVU59
 217              	.LBE118:
 218              		.loc 1 183 1 view .LVU60
 219 0020 5DF8044B 		ldr	r4, [sp], #4
 220              		.cfi_remember_state
 221              		.cfi_restore 4
 222              		.cfi_def_cfa_offset 0
 223              	.LVL20:
 224              		.loc 1 183 1 view .LVU61
 225 0024 7047     		bx	lr
 226              	.LVL21:
 227              	.L27:
 228              		.cfi_restore_state
ARM GAS  C:\Users\DEVELO~1\AppData\Local\Temp\ccNqWhix.s 			page 5


 229              		.loc 1 182 10 view .LVU62
 230 0026 0120     		movs	r0, #1
 231              	.LVL22:
 232              		.loc 1 183 1 view .LVU63
 233 0028 5DF8044B 		ldr	r4, [sp], #4
 234              		.cfi_restore 4
 235              		.cfi_def_cfa_offset 0
 236              	.LVL23:
 237              		.loc 1 183 1 view .LVU64
 238 002c 7047     		bx	lr
 239              		.cfi_endproc
 240              	.LFE453:
 241              		.size	halRegWaitMatch16X, .-halRegWaitMatch16X
 242              		.section	.text.halRegWaitMatch32X,"ax",%progbits
 243              		.align	1
 244              		.p2align 2,,3
 245              		.global	halRegWaitMatch32X
 246              		.syntax unified
 247              		.thumb
 248              		.thumb_func
 249              		.type	halRegWaitMatch32X, %function
 250              	halRegWaitMatch32X:
 251              	.LVL24:
 252              	.LFB454:
 253              		.loc 1 203 71 is_stmt 1 view -0
 254              		.cfi_startproc
 255              		@ args = 4, pretend = 0, frame = 0
 256              		@ frame_needed = 0, uses_anonymous_args = 0
 257              		@ link register save eliminated.
 258              		.loc 1 203 71 is_stmt 0 view .LVU66
 259 0000 30B4     		push	{r4, r5}
 260              		.cfi_def_cfa_offset 8
 261              		.cfi_offset 4, -8
 262              		.cfi_offset 5, -4
 263              		.loc 1 203 71 view .LVU67
 264 0002 029D     		ldr	r5, [sp, #8]
 265              		.loc 1 204 3 is_stmt 1 view .LVU68
 266              		.loc 1 207 3 view .LVU69
 267              	.LVL25:
 268              		.loc 1 208 3 view .LVU70
 269              		.loc 1 208 3 is_stmt 0 view .LVU71
 270 0004 00E0     		b	.L32
 271              	.LVL26:
 272              	.L40:
 273              		.loc 1 223 12 view .LVU72
 274 0006 43B1     		cbz	r3, .L39
 275              	.LVL27:
 276              	.L32:
 277              		.loc 1 212 3 is_stmt 1 view .LVU73
 278              	.LBB119:
 279              		.loc 1 214 5 view .LVU74
 280              		.loc 1 216 7 view .LVU75
 281              		.loc 1 220 5 view .LVU76
 282              	.LBE119:
 283              		.loc 1 223 12 view .LVU77
 284              	.LBB120:
 285              		.loc 1 214 14 is_stmt 0 view .LVU78
ARM GAS  C:\Users\DEVELO~1\AppData\Local\Temp\ccNqWhix.s 			page 6


 286 0008 0468     		ldr	r4, [r0]
 287              	.LVL28:
 288              		.loc 1 215 5 is_stmt 1 view .LVU79
 289              		.loc 1 215 8 is_stmt 0 view .LVU80
 290 000a 05B1     		cbz	r5, .L30
 291              		.loc 1 216 13 view .LVU81
 292 000c 2C60     		str	r4, [r5]
 293              	.L30:
 294              		.loc 1 220 12 view .LVU82
 295 000e 0C40     		ands	r4, r4, r1
 296              	.LVL29:
 297              		.loc 1 220 8 view .LVU83
 298 0010 9442     		cmp	r4, r2
 299 0012 F8D1     		bne	.L40
 300              		.loc 1 221 14 view .LVU84
 301 0014 0020     		movs	r0, #0
 302              	.LVL30:
 303              		.loc 1 221 14 view .LVU85
 304              	.LBE120:
 305              		.loc 1 226 1 view .LVU86
 306 0016 30BC     		pop	{r4, r5}
 307              		.cfi_remember_state
 308              		.cfi_restore 5
 309              		.cfi_restore 4
 310              		.cfi_def_cfa_offset 0
 311              	.LVL31:
 312              		.loc 1 226 1 view .LVU87
 313 0018 7047     		bx	lr
 314              	.LVL32:
 315              	.L39:
 316              		.cfi_restore_state
 317              		.loc 1 225 10 view .LVU88
 318 001a 0120     		movs	r0, #1
 319              	.LVL33:
 320              		.loc 1 226 1 view .LVU89
 321 001c 30BC     		pop	{r4, r5}
 322              		.cfi_restore 5
 323              		.cfi_restore 4
 324              		.cfi_def_cfa_offset 0
 325              	.LVL34:
 326              		.loc 1 226 1 view .LVU90
 327 001e 7047     		bx	lr
 328              		.cfi_endproc
 329              	.LFE454:
 330              		.size	halRegWaitMatch32X, .-halRegWaitMatch32X
 331              		.section	.text.halRegWaitAllSet8X,"ax",%progbits
 332              		.align	1
 333              		.p2align 2,,3
 334              		.global	halRegWaitAllSet8X
 335              		.syntax unified
 336              		.thumb
 337              		.thumb_func
 338              		.type	halRegWaitAllSet8X, %function
 339              	halRegWaitAllSet8X:
 340              	.LFB455:
 341              		.loc 1 245 54 is_stmt 1 view -0
 342              		.cfi_startproc
ARM GAS  C:\Users\DEVELO~1\AppData\Local\Temp\ccNqWhix.s 			page 7


 343              		@ args = 0, pretend = 0, frame = 0
 344              		@ frame_needed = 0, uses_anonymous_args = 0
 345              		@ link register save eliminated.
 346              	.LVL35:
 347              	.L44:
 348              		.loc 1 254 3 view .LVU92
 349              	.LBB121:
 350              		.loc 1 256 5 view .LVU93
 351              		.loc 1 258 7 view .LVU94
 352              		.loc 1 262 5 view .LVU95
 353              	.LBE121:
 354              		.loc 1 265 12 view .LVU96
 355              	.LBB122:
 356              		.loc 1 256 13 is_stmt 0 view .LVU97
 357 0000 90F800C0 		ldrb	ip, [r0]	@ zero_extendqisi2
 358 0004 5FFA8CFC 		uxtb	ip, ip
 359              	.LVL36:
 360              		.loc 1 257 5 is_stmt 1 view .LVU98
 361              		.loc 1 257 8 is_stmt 0 view .LVU99
 362 0008 0BB1     		cbz	r3, .L42
 363              		.loc 1 258 13 view .LVU100
 364 000a 83F800C0 		strb	ip, [r3]
 365              	.L42:
 366              		.loc 1 262 8 view .LVU101
 367 000e 31EA0C0C 		bics	ip, r1, ip
 368              	.LVL37:
 369              		.loc 1 262 8 view .LVU102
 370 0012 03D0     		beq	.L45
 371              	.LBE122:
 372              		.loc 1 265 12 view .LVU103
 373 0014 002A     		cmp	r2, #0
 374 0016 F3D1     		bne	.L44
 375              		.loc 1 267 10 view .LVU104
 376 0018 0120     		movs	r0, #1
 377              	.LVL38:
 378              		.loc 1 267 10 view .LVU105
 379 001a 7047     		bx	lr
 380              	.LVL39:
 381              	.L45:
 382              	.LBB123:
 383              		.loc 1 263 14 view .LVU106
 384 001c 0020     		movs	r0, #0
 385              	.LVL40:
 386              		.loc 1 263 14 view .LVU107
 387              	.LBE123:
 388              		.loc 1 268 1 view .LVU108
 389 001e 7047     		bx	lr
 390              		.cfi_endproc
 391              	.LFE455:
 392              		.size	halRegWaitAllSet8X, .-halRegWaitAllSet8X
 393              		.section	.text.halRegWaitAllSet16X,"ax",%progbits
 394              		.align	1
 395              		.p2align 2,,3
 396              		.global	halRegWaitAllSet16X
 397              		.syntax unified
 398              		.thumb
 399              		.thumb_func
ARM GAS  C:\Users\DEVELO~1\AppData\Local\Temp\ccNqWhix.s 			page 8


 400              		.type	halRegWaitAllSet16X, %function
 401              	halRegWaitAllSet16X:
 402              	.LFB456:
 403              		.loc 1 287 56 is_stmt 1 view -0
 404              		.cfi_startproc
 405              		@ args = 0, pretend = 0, frame = 0
 406              		@ frame_needed = 0, uses_anonymous_args = 0
 407              		@ link register save eliminated.
 408              	.LVL41:
 409              	.L53:
 410              		.loc 1 296 3 view .LVU110
 411              	.LBB124:
 412              		.loc 1 298 5 view .LVU111
 413              		.loc 1 300 7 view .LVU112
 414              		.loc 1 304 5 view .LVU113
 415              	.LBE124:
 416              		.loc 1 307 12 view .LVU114
 417              	.LBB125:
 418              		.loc 1 298 14 is_stmt 0 view .LVU115
 419 0000 B0F800C0 		ldrh	ip, [r0]
 420 0004 1FFA8CFC 		uxth	ip, ip
 421              	.LVL42:
 422              		.loc 1 299 5 is_stmt 1 view .LVU116
 423              		.loc 1 299 8 is_stmt 0 view .LVU117
 424 0008 0BB1     		cbz	r3, .L51
 425              		.loc 1 300 13 view .LVU118
 426 000a A3F800C0 		strh	ip, [r3]	@ movhi
 427              	.L51:
 428              		.loc 1 304 8 view .LVU119
 429 000e 31EA0C0C 		bics	ip, r1, ip
 430              	.LVL43:
 431              		.loc 1 304 8 view .LVU120
 432 0012 03D0     		beq	.L54
 433              	.LBE125:
 434              		.loc 1 307 12 view .LVU121
 435 0014 002A     		cmp	r2, #0
 436 0016 F3D1     		bne	.L53
 437              		.loc 1 309 10 view .LVU122
 438 0018 0120     		movs	r0, #1
 439              	.LVL44:
 440              		.loc 1 309 10 view .LVU123
 441 001a 7047     		bx	lr
 442              	.LVL45:
 443              	.L54:
 444              	.LBB126:
 445              		.loc 1 305 14 view .LVU124
 446 001c 0020     		movs	r0, #0
 447              	.LVL46:
 448              		.loc 1 305 14 view .LVU125
 449              	.LBE126:
 450              		.loc 1 310 1 view .LVU126
 451 001e 7047     		bx	lr
 452              		.cfi_endproc
 453              	.LFE456:
 454              		.size	halRegWaitAllSet16X, .-halRegWaitAllSet16X
 455              		.section	.text.halRegWaitAllSet32X,"ax",%progbits
 456              		.align	1
ARM GAS  C:\Users\DEVELO~1\AppData\Local\Temp\ccNqWhix.s 			page 9


 457              		.p2align 2,,3
 458              		.global	halRegWaitAllSet32X
 459              		.syntax unified
 460              		.thumb
 461              		.thumb_func
 462              		.type	halRegWaitAllSet32X, %function
 463              	halRegWaitAllSet32X:
 464              	.LFB457:
 465              		.loc 1 329 56 is_stmt 1 view -0
 466              		.cfi_startproc
 467              		@ args = 0, pretend = 0, frame = 0
 468              		@ frame_needed = 0, uses_anonymous_args = 0
 469              		@ link register save eliminated.
 470              	.LVL47:
 471              		.loc 1 329 56 is_stmt 0 view .LVU128
 472 0000 10B4     		push	{r4}
 473              		.cfi_def_cfa_offset 4
 474              		.cfi_offset 4, -4
 475 0002 00E0     		b	.L62
 476              	.LVL48:
 477              	.L70:
 478              		.loc 1 349 12 view .LVU129
 479 0004 4AB1     		cbz	r2, .L69
 480              	.LVL49:
 481              	.L62:
 482              		.loc 1 338 3 is_stmt 1 view .LVU130
 483              	.LBB127:
 484              		.loc 1 340 5 view .LVU131
 485              		.loc 1 342 7 view .LVU132
 486              		.loc 1 346 5 view .LVU133
 487              	.LBE127:
 488              		.loc 1 349 12 view .LVU134
 489              	.LBB128:
 490              		.loc 1 340 14 is_stmt 0 view .LVU135
 491 0006 0468     		ldr	r4, [r0]
 492              	.LVL50:
 493              		.loc 1 341 5 is_stmt 1 view .LVU136
 494              		.loc 1 341 8 is_stmt 0 view .LVU137
 495 0008 03B1     		cbz	r3, .L60
 496              		.loc 1 342 13 view .LVU138
 497 000a 1C60     		str	r4, [r3]
 498              	.L60:
 499              		.loc 1 346 8 view .LVU139
 500 000c 31EA0404 		bics	r4, r1, r4
 501              	.LVL51:
 502              		.loc 1 346 8 view .LVU140
 503 0010 F8D1     		bne	.L70
 504              		.loc 1 347 14 view .LVU141
 505 0012 0020     		movs	r0, #0
 506              	.LVL52:
 507              		.loc 1 347 14 view .LVU142
 508              	.LBE128:
 509              		.loc 1 352 1 view .LVU143
 510 0014 5DF8044B 		ldr	r4, [sp], #4
 511              		.cfi_remember_state
 512              		.cfi_restore 4
 513              		.cfi_def_cfa_offset 0
ARM GAS  C:\Users\DEVELO~1\AppData\Local\Temp\ccNqWhix.s 			page 10


 514 0018 7047     		bx	lr
 515              	.LVL53:
 516              	.L69:
 517              		.cfi_restore_state
 518              		.loc 1 351 10 view .LVU144
 519 001a 0120     		movs	r0, #1
 520              	.LVL54:
 521              		.loc 1 352 1 view .LVU145
 522 001c 5DF8044B 		ldr	r4, [sp], #4
 523              		.cfi_restore 4
 524              		.cfi_def_cfa_offset 0
 525 0020 7047     		bx	lr
 526              		.cfi_endproc
 527              	.LFE457:
 528              		.size	halRegWaitAllSet32X, .-halRegWaitAllSet32X
 529 0022 00BF     		.section	.text.halRegWaitAnySet8X,"ax",%progbits
 530              		.align	1
 531              		.p2align 2,,3
 532              		.global	halRegWaitAnySet8X
 533              		.syntax unified
 534              		.thumb
 535              		.thumb_func
 536              		.type	halRegWaitAnySet8X, %function
 537              	halRegWaitAnySet8X:
 538              	.LFB458:
 539              		.loc 1 371 54 is_stmt 1 view -0
 540              		.cfi_startproc
 541              		@ args = 0, pretend = 0, frame = 0
 542              		@ frame_needed = 0, uses_anonymous_args = 0
 543              		@ link register save eliminated.
 544              	.LVL55:
 545              	.L74:
 546              		.loc 1 380 3 view .LVU147
 547              	.LBB129:
 548              		.loc 1 382 5 view .LVU148
 549              		.loc 1 384 7 view .LVU149
 550              		.loc 1 388 5 view .LVU150
 551              	.LBE129:
 552              		.loc 1 391 12 view .LVU151
 553              	.LBB130:
 554              		.loc 1 382 13 is_stmt 0 view .LVU152
 555 0000 90F800C0 		ldrb	ip, [r0]	@ zero_extendqisi2
 556 0004 5FFA8CFC 		uxtb	ip, ip
 557              	.LVL56:
 558              		.loc 1 383 5 is_stmt 1 view .LVU153
 559              		.loc 1 383 8 is_stmt 0 view .LVU154
 560 0008 0BB1     		cbz	r3, .L72
 561              		.loc 1 384 13 view .LVU155
 562 000a 83F800C0 		strb	ip, [r3]
 563              	.L72:
 564              		.loc 1 388 8 view .LVU156
 565 000e 1CEA010F 		tst	ip, r1
 566 0012 03D1     		bne	.L75
 567              	.LBE130:
 568              		.loc 1 391 12 view .LVU157
 569 0014 002A     		cmp	r2, #0
 570 0016 F3D1     		bne	.L74
ARM GAS  C:\Users\DEVELO~1\AppData\Local\Temp\ccNqWhix.s 			page 11


 571              		.loc 1 393 10 view .LVU158
 572 0018 0120     		movs	r0, #1
 573              	.LVL57:
 574              		.loc 1 393 10 view .LVU159
 575 001a 7047     		bx	lr
 576              	.LVL58:
 577              	.L75:
 578              	.LBB131:
 579              		.loc 1 389 14 view .LVU160
 580 001c 0020     		movs	r0, #0
 581              	.LVL59:
 582              		.loc 1 389 14 view .LVU161
 583              	.LBE131:
 584              		.loc 1 394 1 view .LVU162
 585 001e 7047     		bx	lr
 586              		.cfi_endproc
 587              	.LFE458:
 588              		.size	halRegWaitAnySet8X, .-halRegWaitAnySet8X
 589              		.section	.text.halRegWaitAnySet16X,"ax",%progbits
 590              		.align	1
 591              		.p2align 2,,3
 592              		.global	halRegWaitAnySet16X
 593              		.syntax unified
 594              		.thumb
 595              		.thumb_func
 596              		.type	halRegWaitAnySet16X, %function
 597              	halRegWaitAnySet16X:
 598              	.LFB459:
 599              		.loc 1 413 56 is_stmt 1 view -0
 600              		.cfi_startproc
 601              		@ args = 0, pretend = 0, frame = 0
 602              		@ frame_needed = 0, uses_anonymous_args = 0
 603              		@ link register save eliminated.
 604              	.LVL60:
 605              	.L83:
 606              		.loc 1 422 3 view .LVU164
 607              	.LBB132:
 608              		.loc 1 424 5 view .LVU165
 609              		.loc 1 426 7 view .LVU166
 610              		.loc 1 430 5 view .LVU167
 611              	.LBE132:
 612              		.loc 1 433 12 view .LVU168
 613              	.LBB133:
 614              		.loc 1 424 14 is_stmt 0 view .LVU169
 615 0000 B0F800C0 		ldrh	ip, [r0]
 616 0004 1FFA8CFC 		uxth	ip, ip
 617              	.LVL61:
 618              		.loc 1 425 5 is_stmt 1 view .LVU170
 619              		.loc 1 425 8 is_stmt 0 view .LVU171
 620 0008 0BB1     		cbz	r3, .L81
 621              		.loc 1 426 13 view .LVU172
 622 000a A3F800C0 		strh	ip, [r3]	@ movhi
 623              	.L81:
 624              		.loc 1 430 8 view .LVU173
 625 000e 1CEA010F 		tst	ip, r1
 626 0012 03D1     		bne	.L84
 627              	.LBE133:
ARM GAS  C:\Users\DEVELO~1\AppData\Local\Temp\ccNqWhix.s 			page 12


 628              		.loc 1 433 12 view .LVU174
 629 0014 002A     		cmp	r2, #0
 630 0016 F3D1     		bne	.L83
 631              		.loc 1 435 10 view .LVU175
 632 0018 0120     		movs	r0, #1
 633              	.LVL62:
 634              		.loc 1 435 10 view .LVU176
 635 001a 7047     		bx	lr
 636              	.LVL63:
 637              	.L84:
 638              	.LBB134:
 639              		.loc 1 431 14 view .LVU177
 640 001c 0020     		movs	r0, #0
 641              	.LVL64:
 642              		.loc 1 431 14 view .LVU178
 643              	.LBE134:
 644              		.loc 1 436 1 view .LVU179
 645 001e 7047     		bx	lr
 646              		.cfi_endproc
 647              	.LFE459:
 648              		.size	halRegWaitAnySet16X, .-halRegWaitAnySet16X
 649              		.section	.text.halRegWaitAnySet32X,"ax",%progbits
 650              		.align	1
 651              		.p2align 2,,3
 652              		.global	halRegWaitAnySet32X
 653              		.syntax unified
 654              		.thumb
 655              		.thumb_func
 656              		.type	halRegWaitAnySet32X, %function
 657              	halRegWaitAnySet32X:
 658              	.LFB460:
 659              		.loc 1 455 56 is_stmt 1 view -0
 660              		.cfi_startproc
 661              		@ args = 0, pretend = 0, frame = 0
 662              		@ frame_needed = 0, uses_anonymous_args = 0
 663              		@ link register save eliminated.
 664              	.LVL65:
 665              		.loc 1 455 56 is_stmt 0 view .LVU181
 666 0000 10B4     		push	{r4}
 667              		.cfi_def_cfa_offset 4
 668              		.cfi_offset 4, -4
 669 0002 00E0     		b	.L92
 670              	.LVL66:
 671              	.L100:
 672              		.loc 1 475 12 view .LVU182
 673 0004 42B1     		cbz	r2, .L99
 674              	.LVL67:
 675              	.L92:
 676              		.loc 1 464 3 is_stmt 1 view .LVU183
 677              	.LBB135:
 678              		.loc 1 466 5 view .LVU184
 679              		.loc 1 468 7 view .LVU185
 680              		.loc 1 472 5 view .LVU186
 681              	.LBE135:
 682              		.loc 1 475 12 view .LVU187
 683              	.LBB136:
 684              		.loc 1 466 14 is_stmt 0 view .LVU188
ARM GAS  C:\Users\DEVELO~1\AppData\Local\Temp\ccNqWhix.s 			page 13


 685 0006 0468     		ldr	r4, [r0]
 686              	.LVL68:
 687              		.loc 1 467 5 is_stmt 1 view .LVU189
 688              		.loc 1 467 8 is_stmt 0 view .LVU190
 689 0008 03B1     		cbz	r3, .L90
 690              		.loc 1 468 13 view .LVU191
 691 000a 1C60     		str	r4, [r3]
 692              	.L90:
 693              		.loc 1 472 8 view .LVU192
 694 000c 0C42     		tst	r4, r1
 695 000e F9D0     		beq	.L100
 696              		.loc 1 473 14 view .LVU193
 697 0010 0020     		movs	r0, #0
 698              	.LVL69:
 699              		.loc 1 473 14 view .LVU194
 700              	.LBE136:
 701              		.loc 1 478 1 view .LVU195
 702 0012 5DF8044B 		ldr	r4, [sp], #4
 703              		.cfi_remember_state
 704              		.cfi_restore 4
 705              		.cfi_def_cfa_offset 0
 706              	.LVL70:
 707              		.loc 1 478 1 view .LVU196
 708 0016 7047     		bx	lr
 709              	.LVL71:
 710              	.L99:
 711              		.cfi_restore_state
 712              		.loc 1 477 10 view .LVU197
 713 0018 0120     		movs	r0, #1
 714              	.LVL72:
 715              		.loc 1 478 1 view .LVU198
 716 001a 5DF8044B 		ldr	r4, [sp], #4
 717              		.cfi_restore 4
 718              		.cfi_def_cfa_offset 0
 719              	.LVL73:
 720              		.loc 1 478 1 view .LVU199
 721 001e 7047     		bx	lr
 722              		.cfi_endproc
 723              	.LFE460:
 724              		.size	halRegWaitAnySet32X, .-halRegWaitAnySet32X
 725              		.section	.text.halRegWaitAllClear8X,"ax",%progbits
 726              		.align	1
 727              		.p2align 2,,3
 728              		.global	halRegWaitAllClear8X
 729              		.syntax unified
 730              		.thumb
 731              		.thumb_func
 732              		.type	halRegWaitAllClear8X, %function
 733              	halRegWaitAllClear8X:
 734              	.LFB461:
 735              		.loc 1 497 56 is_stmt 1 view -0
 736              		.cfi_startproc
 737              		@ args = 0, pretend = 0, frame = 0
 738              		@ frame_needed = 0, uses_anonymous_args = 0
 739              		@ link register save eliminated.
 740              	.LVL74:
 741              	.L104:
ARM GAS  C:\Users\DEVELO~1\AppData\Local\Temp\ccNqWhix.s 			page 14


 742              		.loc 1 506 3 view .LVU201
 743              	.LBB137:
 744              		.loc 1 508 5 view .LVU202
 745              		.loc 1 510 7 view .LVU203
 746              		.loc 1 514 5 view .LVU204
 747              	.LBE137:
 748              		.loc 1 517 12 view .LVU205
 749              	.LBB138:
 750              		.loc 1 508 13 is_stmt 0 view .LVU206
 751 0000 90F800C0 		ldrb	ip, [r0]	@ zero_extendqisi2
 752 0004 5FFA8CFC 		uxtb	ip, ip
 753              	.LVL75:
 754              		.loc 1 509 5 is_stmt 1 view .LVU207
 755              		.loc 1 509 8 is_stmt 0 view .LVU208
 756 0008 0BB1     		cbz	r3, .L102
 757              		.loc 1 510 13 view .LVU209
 758 000a 83F800C0 		strb	ip, [r3]
 759              	.L102:
 760              		.loc 1 514 8 view .LVU210
 761 000e 1CEA010C 		ands	ip, ip, r1
 762              	.LVL76:
 763              		.loc 1 514 8 view .LVU211
 764 0012 03D0     		beq	.L105
 765              	.LBE138:
 766              		.loc 1 517 12 view .LVU212
 767 0014 002A     		cmp	r2, #0
 768 0016 F3D1     		bne	.L104
 769              		.loc 1 519 10 view .LVU213
 770 0018 0120     		movs	r0, #1
 771              	.LVL77:
 772              		.loc 1 519 10 view .LVU214
 773 001a 7047     		bx	lr
 774              	.LVL78:
 775              	.L105:
 776              	.LBB139:
 777              		.loc 1 515 14 view .LVU215
 778 001c 6046     		mov	r0, ip
 779              	.LVL79:
 780              		.loc 1 515 14 view .LVU216
 781              	.LBE139:
 782              		.loc 1 520 1 view .LVU217
 783 001e 7047     		bx	lr
 784              		.cfi_endproc
 785              	.LFE461:
 786              		.size	halRegWaitAllClear8X, .-halRegWaitAllClear8X
 787              		.section	.text.halRegWaitAllClear16X,"ax",%progbits
 788              		.align	1
 789              		.p2align 2,,3
 790              		.global	halRegWaitAllClear16X
 791              		.syntax unified
 792              		.thumb
 793              		.thumb_func
 794              		.type	halRegWaitAllClear16X, %function
 795              	halRegWaitAllClear16X:
 796              	.LFB462:
 797              		.loc 1 539 58 is_stmt 1 view -0
 798              		.cfi_startproc
ARM GAS  C:\Users\DEVELO~1\AppData\Local\Temp\ccNqWhix.s 			page 15


 799              		@ args = 0, pretend = 0, frame = 0
 800              		@ frame_needed = 0, uses_anonymous_args = 0
 801              		@ link register save eliminated.
 802              	.LVL80:
 803              	.L113:
 804              		.loc 1 548 3 view .LVU219
 805              	.LBB140:
 806              		.loc 1 550 5 view .LVU220
 807              		.loc 1 552 7 view .LVU221
 808              		.loc 1 556 5 view .LVU222
 809              	.LBE140:
 810              		.loc 1 559 12 view .LVU223
 811              	.LBB141:
 812              		.loc 1 550 14 is_stmt 0 view .LVU224
 813 0000 B0F800C0 		ldrh	ip, [r0]
 814 0004 1FFA8CFC 		uxth	ip, ip
 815              	.LVL81:
 816              		.loc 1 551 5 is_stmt 1 view .LVU225
 817              		.loc 1 551 8 is_stmt 0 view .LVU226
 818 0008 0BB1     		cbz	r3, .L111
 819              		.loc 1 552 13 view .LVU227
 820 000a A3F800C0 		strh	ip, [r3]	@ movhi
 821              	.L111:
 822              		.loc 1 556 8 view .LVU228
 823 000e 1CEA010C 		ands	ip, ip, r1
 824              	.LVL82:
 825              		.loc 1 556 8 view .LVU229
 826 0012 03D0     		beq	.L114
 827              	.LBE141:
 828              		.loc 1 559 12 view .LVU230
 829 0014 002A     		cmp	r2, #0
 830 0016 F3D1     		bne	.L113
 831              		.loc 1 561 10 view .LVU231
 832 0018 0120     		movs	r0, #1
 833              	.LVL83:
 834              		.loc 1 561 10 view .LVU232
 835 001a 7047     		bx	lr
 836              	.LVL84:
 837              	.L114:
 838              	.LBB142:
 839              		.loc 1 557 14 view .LVU233
 840 001c 6046     		mov	r0, ip
 841              	.LVL85:
 842              		.loc 1 557 14 view .LVU234
 843              	.LBE142:
 844              		.loc 1 562 1 view .LVU235
 845 001e 7047     		bx	lr
 846              		.cfi_endproc
 847              	.LFE462:
 848              		.size	halRegWaitAllClear16X, .-halRegWaitAllClear16X
 849              		.section	.text.halRegWaitAllClear32X,"ax",%progbits
 850              		.align	1
 851              		.p2align 2,,3
 852              		.global	halRegWaitAllClear32X
 853              		.syntax unified
 854              		.thumb
 855              		.thumb_func
ARM GAS  C:\Users\DEVELO~1\AppData\Local\Temp\ccNqWhix.s 			page 16


 856              		.type	halRegWaitAllClear32X, %function
 857              	halRegWaitAllClear32X:
 858              	.LFB463:
 859              		.loc 1 581 58 is_stmt 1 view -0
 860              		.cfi_startproc
 861              		@ args = 0, pretend = 0, frame = 0
 862              		@ frame_needed = 0, uses_anonymous_args = 0
 863              		@ link register save eliminated.
 864              	.LVL86:
 865              		.loc 1 581 58 is_stmt 0 view .LVU237
 866 0000 10B4     		push	{r4}
 867              		.cfi_def_cfa_offset 4
 868              		.cfi_offset 4, -4
 869 0002 00E0     		b	.L122
 870              	.LVL87:
 871              	.L130:
 872              		.loc 1 601 12 view .LVU238
 873 0004 42B1     		cbz	r2, .L129
 874              	.LVL88:
 875              	.L122:
 876              		.loc 1 590 3 is_stmt 1 view .LVU239
 877              	.LBB143:
 878              		.loc 1 592 5 view .LVU240
 879              		.loc 1 594 7 view .LVU241
 880              		.loc 1 598 5 view .LVU242
 881              	.LBE143:
 882              		.loc 1 601 12 view .LVU243
 883              	.LBB144:
 884              		.loc 1 592 14 is_stmt 0 view .LVU244
 885 0006 0468     		ldr	r4, [r0]
 886              	.LVL89:
 887              		.loc 1 593 5 is_stmt 1 view .LVU245
 888              		.loc 1 593 8 is_stmt 0 view .LVU246
 889 0008 03B1     		cbz	r3, .L120
 890              		.loc 1 594 13 view .LVU247
 891 000a 1C60     		str	r4, [r3]
 892              	.L120:
 893              		.loc 1 598 8 view .LVU248
 894 000c 0C40     		ands	r4, r4, r1
 895              	.LVL90:
 896              		.loc 1 598 8 view .LVU249
 897 000e F9D1     		bne	.L130
 898              		.loc 1 599 14 view .LVU250
 899 0010 2046     		mov	r0, r4
 900              	.LVL91:
 901              		.loc 1 599 14 view .LVU251
 902              	.LBE144:
 903              		.loc 1 604 1 view .LVU252
 904 0012 5DF8044B 		ldr	r4, [sp], #4
 905              		.cfi_remember_state
 906              		.cfi_restore 4
 907              		.cfi_def_cfa_offset 0
 908 0016 7047     		bx	lr
 909              	.LVL92:
 910              	.L129:
 911              		.cfi_restore_state
 912              		.loc 1 603 10 view .LVU253
ARM GAS  C:\Users\DEVELO~1\AppData\Local\Temp\ccNqWhix.s 			page 17


 913 0018 0120     		movs	r0, #1
 914              	.LVL93:
 915              		.loc 1 604 1 view .LVU254
 916 001a 5DF8044B 		ldr	r4, [sp], #4
 917              		.cfi_restore 4
 918              		.cfi_def_cfa_offset 0
 919 001e 7047     		bx	lr
 920              		.cfi_endproc
 921              	.LFE463:
 922              		.size	halRegWaitAllClear32X, .-halRegWaitAllClear32X
 923              		.section	.text.halRegWaitAnyClear8X,"ax",%progbits
 924              		.align	1
 925              		.p2align 2,,3
 926              		.global	halRegWaitAnyClear8X
 927              		.syntax unified
 928              		.thumb
 929              		.thumb_func
 930              		.type	halRegWaitAnyClear8X, %function
 931              	halRegWaitAnyClear8X:
 932              	.LFB464:
 933              		.loc 1 623 56 is_stmt 1 view -0
 934              		.cfi_startproc
 935              		@ args = 0, pretend = 0, frame = 0
 936              		@ frame_needed = 0, uses_anonymous_args = 0
 937              		@ link register save eliminated.
 938              	.LVL94:
 939              	.L134:
 940              		.loc 1 632 3 view .LVU256
 941              	.LBB145:
 942              		.loc 1 634 5 view .LVU257
 943              		.loc 1 636 7 view .LVU258
 944              		.loc 1 640 5 view .LVU259
 945              	.LBE145:
 946              		.loc 1 643 12 view .LVU260
 947              	.LBB146:
 948              		.loc 1 634 13 is_stmt 0 view .LVU261
 949 0000 90F800C0 		ldrb	ip, [r0]	@ zero_extendqisi2
 950 0004 5FFA8CFC 		uxtb	ip, ip
 951              	.LVL95:
 952              		.loc 1 635 5 is_stmt 1 view .LVU262
 953              		.loc 1 635 8 is_stmt 0 view .LVU263
 954 0008 0BB1     		cbz	r3, .L132
 955              		.loc 1 636 13 view .LVU264
 956 000a 83F800C0 		strb	ip, [r3]
 957              	.L132:
 958              		.loc 1 640 8 view .LVU265
 959 000e 31EA0C0C 		bics	ip, r1, ip
 960              	.LVL96:
 961              		.loc 1 640 8 view .LVU266
 962 0012 03D1     		bne	.L135
 963              	.LBE146:
 964              		.loc 1 643 12 view .LVU267
 965 0014 002A     		cmp	r2, #0
 966 0016 F3D1     		bne	.L134
 967              		.loc 1 645 10 view .LVU268
 968 0018 0120     		movs	r0, #1
 969              	.LVL97:
ARM GAS  C:\Users\DEVELO~1\AppData\Local\Temp\ccNqWhix.s 			page 18


 970              		.loc 1 645 10 view .LVU269
 971 001a 7047     		bx	lr
 972              	.LVL98:
 973              	.L135:
 974              	.LBB147:
 975              		.loc 1 641 14 view .LVU270
 976 001c 0020     		movs	r0, #0
 977              	.LVL99:
 978              		.loc 1 641 14 view .LVU271
 979              	.LBE147:
 980              		.loc 1 646 1 view .LVU272
 981 001e 7047     		bx	lr
 982              		.cfi_endproc
 983              	.LFE464:
 984              		.size	halRegWaitAnyClear8X, .-halRegWaitAnyClear8X
 985              		.section	.text.halRegWaitAnyClear16X,"ax",%progbits
 986              		.align	1
 987              		.p2align 2,,3
 988              		.global	halRegWaitAnyClear16X
 989              		.syntax unified
 990              		.thumb
 991              		.thumb_func
 992              		.type	halRegWaitAnyClear16X, %function
 993              	halRegWaitAnyClear16X:
 994              	.LFB465:
 995              		.loc 1 665 58 is_stmt 1 view -0
 996              		.cfi_startproc
 997              		@ args = 0, pretend = 0, frame = 0
 998              		@ frame_needed = 0, uses_anonymous_args = 0
 999              		@ link register save eliminated.
 1000              	.LVL100:
 1001              	.L143:
 1002              		.loc 1 674 3 view .LVU274
 1003              	.LBB148:
 1004              		.loc 1 676 5 view .LVU275
 1005              		.loc 1 678 7 view .LVU276
 1006              		.loc 1 682 5 view .LVU277
 1007              	.LBE148:
 1008              		.loc 1 685 12 view .LVU278
 1009              	.LBB149:
 1010              		.loc 1 676 14 is_stmt 0 view .LVU279
 1011 0000 B0F800C0 		ldrh	ip, [r0]
 1012 0004 1FFA8CFC 		uxth	ip, ip
 1013              	.LVL101:
 1014              		.loc 1 677 5 is_stmt 1 view .LVU280
 1015              		.loc 1 677 8 is_stmt 0 view .LVU281
 1016 0008 0BB1     		cbz	r3, .L141
 1017              		.loc 1 678 13 view .LVU282
 1018 000a A3F800C0 		strh	ip, [r3]	@ movhi
 1019              	.L141:
 1020              		.loc 1 682 8 view .LVU283
 1021 000e 31EA0C0C 		bics	ip, r1, ip
 1022              	.LVL102:
 1023              		.loc 1 682 8 view .LVU284
 1024 0012 03D1     		bne	.L144
 1025              	.LBE149:
 1026              		.loc 1 685 12 view .LVU285
ARM GAS  C:\Users\DEVELO~1\AppData\Local\Temp\ccNqWhix.s 			page 19


 1027 0014 002A     		cmp	r2, #0
 1028 0016 F3D1     		bne	.L143
 1029              		.loc 1 687 10 view .LVU286
 1030 0018 0120     		movs	r0, #1
 1031              	.LVL103:
 1032              		.loc 1 687 10 view .LVU287
 1033 001a 7047     		bx	lr
 1034              	.LVL104:
 1035              	.L144:
 1036              	.LBB150:
 1037              		.loc 1 683 14 view .LVU288
 1038 001c 0020     		movs	r0, #0
 1039              	.LVL105:
 1040              		.loc 1 683 14 view .LVU289
 1041              	.LBE150:
 1042              		.loc 1 688 1 view .LVU290
 1043 001e 7047     		bx	lr
 1044              		.cfi_endproc
 1045              	.LFE465:
 1046              		.size	halRegWaitAnyClear16X, .-halRegWaitAnyClear16X
 1047              		.section	.text.halRegWaitAnyClear32X,"ax",%progbits
 1048              		.align	1
 1049              		.p2align 2,,3
 1050              		.global	halRegWaitAnyClear32X
 1051              		.syntax unified
 1052              		.thumb
 1053              		.thumb_func
 1054              		.type	halRegWaitAnyClear32X, %function
 1055              	halRegWaitAnyClear32X:
 1056              	.LFB466:
 1057              		.loc 1 707 58 is_stmt 1 view -0
 1058              		.cfi_startproc
 1059              		@ args = 0, pretend = 0, frame = 0
 1060              		@ frame_needed = 0, uses_anonymous_args = 0
 1061              		@ link register save eliminated.
 1062              	.LVL106:
 1063              		.loc 1 707 58 is_stmt 0 view .LVU292
 1064 0000 10B4     		push	{r4}
 1065              		.cfi_def_cfa_offset 4
 1066              		.cfi_offset 4, -4
 1067 0002 00E0     		b	.L152
 1068              	.LVL107:
 1069              	.L160:
 1070              		.loc 1 727 12 view .LVU293
 1071 0004 4AB1     		cbz	r2, .L159
 1072              	.LVL108:
 1073              	.L152:
 1074              		.loc 1 716 3 is_stmt 1 view .LVU294
 1075              	.LBB151:
 1076              		.loc 1 718 5 view .LVU295
 1077              		.loc 1 720 7 view .LVU296
 1078              		.loc 1 724 5 view .LVU297
 1079              	.LBE151:
 1080              		.loc 1 727 12 view .LVU298
 1081              	.LBB152:
 1082              		.loc 1 718 14 is_stmt 0 view .LVU299
 1083 0006 0468     		ldr	r4, [r0]
ARM GAS  C:\Users\DEVELO~1\AppData\Local\Temp\ccNqWhix.s 			page 20


 1084              	.LVL109:
 1085              		.loc 1 719 5 is_stmt 1 view .LVU300
 1086              		.loc 1 719 8 is_stmt 0 view .LVU301
 1087 0008 03B1     		cbz	r3, .L150
 1088              		.loc 1 720 13 view .LVU302
 1089 000a 1C60     		str	r4, [r3]
 1090              	.L150:
 1091              		.loc 1 724 8 view .LVU303
 1092 000c 31EA0404 		bics	r4, r1, r4
 1093              	.LVL110:
 1094              		.loc 1 724 8 view .LVU304
 1095 0010 F8D0     		beq	.L160
 1096              		.loc 1 725 14 view .LVU305
 1097 0012 0020     		movs	r0, #0
 1098              	.LVL111:
 1099              		.loc 1 725 14 view .LVU306
 1100              	.LBE152:
 1101              		.loc 1 730 1 view .LVU307
 1102 0014 5DF8044B 		ldr	r4, [sp], #4
 1103              		.cfi_remember_state
 1104              		.cfi_restore 4
 1105              		.cfi_def_cfa_offset 0
 1106 0018 7047     		bx	lr
 1107              	.LVL112:
 1108              	.L159:
 1109              		.cfi_restore_state
 1110              		.loc 1 729 10 view .LVU308
 1111 001a 0120     		movs	r0, #1
 1112              	.LVL113:
 1113              		.loc 1 730 1 view .LVU309
 1114 001c 5DF8044B 		ldr	r4, [sp], #4
 1115              		.cfi_restore 4
 1116              		.cfi_def_cfa_offset 0
 1117 0020 7047     		bx	lr
 1118              		.cfi_endproc
 1119              	.LFE466:
 1120              		.size	halRegWaitAnyClear32X, .-halRegWaitAnyClear32X
 1121 0022 00BF     		.text
 1122              	.Letext0:
 1123              		.file 3 "c:\\chibistudio\\tools\\gnu tools arm embedded\\11.3 2022.08\\arm-none-eabi\\include\\mac
 1124              		.file 4 "c:\\chibistudio\\tools\\gnu tools arm embedded\\11.3 2022.08\\arm-none-eabi\\include\\sys
 1125              		.file 5 "../../../os/rt/include/chearly.h"
 1126              		.section	.debug_info,"",%progbits
 1127              	.Ldebug_info0:
 1128 0000 A20A0000 		.4byte	0xaa2
 1129 0004 0500     		.2byte	0x5
 1130 0006 01       		.byte	0x1
 1131 0007 04       		.byte	0x4
 1132 0008 00000000 		.4byte	.Ldebug_abbrev0
 1133 000c 15       		.uleb128 0x15
 1134 000d A5010000 		.4byte	.LASF43
 1135 0011 1D       		.byte	0x1d
 1136 0012 FD000000 		.4byte	.LASF44
 1137 0016 34010000 		.4byte	.LASF45
 1138 001a E4000000 		.4byte	.LLRL90
 1139 001e 00000000 		.4byte	0
 1140 0022 00000000 		.4byte	.Ldebug_line0
ARM GAS  C:\Users\DEVELO~1\AppData\Local\Temp\ccNqWhix.s 			page 21


 1141 0026 16       		.uleb128 0x16
 1142 0027 04       		.byte	0x4
 1143 0028 05       		.byte	0x5
 1144 0029 696E7400 		.ascii	"int\000"
 1145 002d 04       		.uleb128 0x4
 1146 002e 04       		.byte	0x4
 1147 002f 07       		.byte	0x7
 1148 0030 50000000 		.4byte	.LASF0
 1149 0034 04       		.uleb128 0x4
 1150 0035 08       		.byte	0x8
 1151 0036 05       		.byte	0x5
 1152 0037 45020000 		.4byte	.LASF1
 1153 003b 04       		.uleb128 0x4
 1154 003c 08       		.byte	0x8
 1155 003d 04       		.byte	0x4
 1156 003e A3020000 		.4byte	.LASF2
 1157 0042 04       		.uleb128 0x4
 1158 0043 01       		.byte	0x1
 1159 0044 06       		.byte	0x6
 1160 0045 8B020000 		.4byte	.LASF3
 1161 0049 09       		.uleb128 0x9
 1162 004a 1E000000 		.4byte	.LASF6
 1163 004e 03       		.byte	0x3
 1164 004f 2B       		.byte	0x2b
 1165 0050 18       		.byte	0x18
 1166 0051 55000000 		.4byte	0x55
 1167 0055 04       		.uleb128 0x4
 1168 0056 01       		.byte	0x1
 1169 0057 08       		.byte	0x8
 1170 0058 7B000000 		.4byte	.LASF4
 1171 005c 04       		.uleb128 0x4
 1172 005d 02       		.byte	0x2
 1173 005e 05       		.byte	0x5
 1174 005f DE020000 		.4byte	.LASF5
 1175 0063 09       		.uleb128 0x9
 1176 0064 1E010000 		.4byte	.LASF7
 1177 0068 03       		.byte	0x3
 1178 0069 39       		.byte	0x39
 1179 006a 19       		.byte	0x19
 1180 006b 6F000000 		.4byte	0x6f
 1181 006f 04       		.uleb128 0x4
 1182 0070 02       		.byte	0x2
 1183 0071 07       		.byte	0x7
 1184 0072 CF000000 		.4byte	.LASF8
 1185 0076 04       		.uleb128 0x4
 1186 0077 04       		.byte	0x4
 1187 0078 05       		.byte	0x5
 1188 0079 E2000000 		.4byte	.LASF9
 1189 007d 09       		.uleb128 0x9
 1190 007e 29010000 		.4byte	.LASF10
 1191 0082 03       		.byte	0x3
 1192 0083 4F       		.byte	0x4f
 1193 0084 19       		.byte	0x19
 1194 0085 89000000 		.4byte	0x89
 1195 0089 04       		.uleb128 0x4
 1196 008a 04       		.byte	0x4
 1197 008b 07       		.byte	0x7
ARM GAS  C:\Users\DEVELO~1\AppData\Local\Temp\ccNqWhix.s 			page 22


 1198 008c B8000000 		.4byte	.LASF11
 1199 0090 04       		.uleb128 0x4
 1200 0091 08       		.byte	0x8
 1201 0092 07       		.byte	0x7
 1202 0093 68030000 		.4byte	.LASF12
 1203 0097 09       		.uleb128 0x9
 1204 0098 69020000 		.4byte	.LASF13
 1205 009c 04       		.byte	0x4
 1206 009d 18       		.byte	0x18
 1207 009e 13       		.byte	0x13
 1208 009f 49000000 		.4byte	0x49
 1209 00a3 10       		.uleb128 0x10
 1210 00a4 97000000 		.4byte	0x97
 1211 00a8 09       		.uleb128 0x9
 1212 00a9 E8020000 		.4byte	.LASF14
 1213 00ad 04       		.byte	0x4
 1214 00ae 24       		.byte	0x24
 1215 00af 14       		.byte	0x14
 1216 00b0 63000000 		.4byte	0x63
 1217 00b4 10       		.uleb128 0x10
 1218 00b5 A8000000 		.4byte	0xa8
 1219 00b9 09       		.uleb128 0x9
 1220 00ba 31030000 		.4byte	.LASF15
 1221 00be 04       		.byte	0x4
 1222 00bf 30       		.byte	0x30
 1223 00c0 14       		.byte	0x14
 1224 00c1 7D000000 		.4byte	0x7d
 1225 00c5 10       		.uleb128 0x10
 1226 00c6 B9000000 		.4byte	0xb9
 1227 00ca 0A       		.uleb128 0xa
 1228 00cb D6000000 		.4byte	0xd6
 1229 00cf 04       		.uleb128 0x4
 1230 00d0 01       		.byte	0x1
 1231 00d1 08       		.byte	0x8
 1232 00d2 22030000 		.4byte	.LASF16
 1233 00d6 17       		.uleb128 0x17
 1234 00d7 CF000000 		.4byte	0xcf
 1235 00db 0A       		.uleb128 0xa
 1236 00dc 97000000 		.4byte	0x97
 1237 00e0 04       		.uleb128 0x4
 1238 00e1 01       		.byte	0x1
 1239 00e2 02       		.byte	0x2
 1240 00e3 4D030000 		.4byte	.LASF17
 1241 00e7 0A       		.uleb128 0xa
 1242 00e8 C5000000 		.4byte	0xc5
 1243 00ec 0A       		.uleb128 0xa
 1244 00ed B9000000 		.4byte	0xb9
 1245 00f1 09       		.uleb128 0x9
 1246 00f2 72000000 		.4byte	.LASF18
 1247 00f6 01       		.byte	0x1
 1248 00f7 2F       		.byte	0x2f
 1249 00f8 12       		.byte	0x12
 1250 00f9 2D000000 		.4byte	0x2d
 1251 00fd 18       		.uleb128 0x18
 1252 00fe 27030000 		.4byte	.LASF46
 1253 0102 05       		.byte	0x5
 1254 0103 E6       		.byte	0xe6
ARM GAS  C:\Users\DEVELO~1\AppData\Local\Temp\ccNqWhix.s 			page 23


 1255 0104 08       		.byte	0x8
 1256 0105 0F010000 		.4byte	0x10f
 1257 0109 19       		.uleb128 0x19
 1258 010a CA000000 		.4byte	0xca
 1259 010e 00       		.byte	0
 1260 010f 06       		.uleb128 0x6
 1261 0110 89000000 		.4byte	.LASF22
 1262 0114 C202     		.2byte	0x2c2
 1263 0116 E0000000 		.4byte	0xe0
 1264 011a 00000000 		.4byte	.LFB466
 1265 011e 22000000 		.4byte	.LFE466-.LFB466
 1266 0122 01       		.uleb128 0x1
 1267 0123 9C       		.byte	0x9c
 1268 0124 A5010000 		.4byte	0x1a5
 1269 0128 01       		.uleb128 0x1
 1270 0129 7000     		.ascii	"p\000"
 1271 012b C202     		.2byte	0x2c2
 1272 012d 2F       		.byte	0x2f
 1273 012e E7000000 		.4byte	0xe7
 1274 0132 14000000 		.4byte	.LLST84
 1275 0136 0C000000 		.4byte	.LVUS84
 1276 013a 02       		.uleb128 0x2
 1277 013b C5020000 		.4byte	.LASF19
 1278 013f C202     		.2byte	0x2c2
 1279 0141 3B       		.byte	0x3b
 1280 0142 B9000000 		.4byte	0xb9
 1281 0146 36000000 		.4byte	.LLST85
 1282 014a 34000000 		.4byte	.LVUS85
 1283 014e 01       		.uleb128 0x1
 1284 014f 746D6F00 		.ascii	"tmo\000"
 1285 0153 C302     		.2byte	0x2c3
 1286 0155 25       		.byte	0x25
 1287 0156 B9000000 		.4byte	0xb9
 1288 015a 41000000 		.4byte	.LLST86
 1289 015e 3F000000 		.4byte	.LVUS86
 1290 0162 02       		.uleb128 0x2
 1291 0163 CA000000 		.4byte	.LASF20
 1292 0167 C302     		.2byte	0x2c3
 1293 0169 34       		.byte	0x34
 1294 016a EC000000 		.4byte	0xec
 1295 016e 4C000000 		.4byte	.LLST87
 1296 0172 4A000000 		.4byte	.LVUS87
 1297 0176 07       		.uleb128 0x7
 1298 0177 28000000 		.4byte	.LASF21
 1299 017b C402     		.2byte	0x2c4
 1300 017d F1000000 		.4byte	0xf1
 1301 0181 08       		.uleb128 0x8
 1302 0182 656E6400 		.ascii	"end\000"
 1303 0186 C402     		.2byte	0x2c4
 1304 0188 F1000000 		.4byte	0xf1
 1305 018c 03       		.uleb128 0x3
 1306 018d D8000000 		.4byte	.LLRL88
 1307 0191 05       		.uleb128 0x5
 1308 0192 7600     		.ascii	"v\000"
 1309 0194 CE02     		.2byte	0x2ce
 1310 0196 0E       		.byte	0xe
 1311 0197 B9000000 		.4byte	0xb9
ARM GAS  C:\Users\DEVELO~1\AppData\Local\Temp\ccNqWhix.s 			page 24


 1312 019b 57000000 		.4byte	.LLST89
 1313 019f 55000000 		.4byte	.LVUS89
 1314 01a3 00       		.byte	0
 1315 01a4 00       		.byte	0
 1316 01a5 06       		.uleb128 0x6
 1317 01a6 AF020000 		.4byte	.LASF23
 1318 01aa 9802     		.2byte	0x298
 1319 01ac E0000000 		.4byte	0xe0
 1320 01b0 00000000 		.4byte	.LFB465
 1321 01b4 20000000 		.4byte	.LFE465-.LFB465
 1322 01b8 01       		.uleb128 0x1
 1323 01b9 9C       		.byte	0x9c
 1324 01ba 3B020000 		.4byte	0x23b
 1325 01be 01       		.uleb128 0x1
 1326 01bf 7000     		.ascii	"p\000"
 1327 01c1 9802     		.2byte	0x298
 1328 01c3 2F       		.byte	0x2f
 1329 01c4 3B020000 		.4byte	0x23b
 1330 01c8 68000000 		.4byte	.LLST78
 1331 01cc 60000000 		.4byte	.LVUS78
 1332 01d0 02       		.uleb128 0x2
 1333 01d1 C5020000 		.4byte	.LASF19
 1334 01d5 9802     		.2byte	0x298
 1335 01d7 3B       		.byte	0x3b
 1336 01d8 A8000000 		.4byte	0xa8
 1337 01dc 8A000000 		.4byte	.LLST79
 1338 01e0 88000000 		.4byte	.LVUS79
 1339 01e4 01       		.uleb128 0x1
 1340 01e5 746D6F00 		.ascii	"tmo\000"
 1341 01e9 9902     		.2byte	0x299
 1342 01eb 25       		.byte	0x25
 1343 01ec B9000000 		.4byte	0xb9
 1344 01f0 95000000 		.4byte	.LLST80
 1345 01f4 93000000 		.4byte	.LVUS80
 1346 01f8 02       		.uleb128 0x2
 1347 01f9 CA000000 		.4byte	.LASF20
 1348 01fd 9902     		.2byte	0x299
 1349 01ff 34       		.byte	0x34
 1350 0200 40020000 		.4byte	0x240
 1351 0204 A0000000 		.4byte	.LLST81
 1352 0208 9E000000 		.4byte	.LVUS81
 1353 020c 07       		.uleb128 0x7
 1354 020d 28000000 		.4byte	.LASF21
 1355 0211 9A02     		.2byte	0x29a
 1356 0213 F1000000 		.4byte	0xf1
 1357 0217 08       		.uleb128 0x8
 1358 0218 656E6400 		.ascii	"end\000"
 1359 021c 9A02     		.2byte	0x29a
 1360 021e F1000000 		.4byte	0xf1
 1361 0222 03       		.uleb128 0x3
 1362 0223 C9000000 		.4byte	.LLRL82
 1363 0227 05       		.uleb128 0x5
 1364 0228 7600     		.ascii	"v\000"
 1365 022a A402     		.2byte	0x2a4
 1366 022c 0E       		.byte	0xe
 1367 022d A8000000 		.4byte	0xa8
 1368 0231 AB000000 		.4byte	.LLST83
ARM GAS  C:\Users\DEVELO~1\AppData\Local\Temp\ccNqWhix.s 			page 25


 1369 0235 A9000000 		.4byte	.LVUS83
 1370 0239 00       		.byte	0
 1371 023a 00       		.byte	0
 1372 023b 0A       		.uleb128 0xa
 1373 023c B4000000 		.4byte	0xb4
 1374 0240 0A       		.uleb128 0xa
 1375 0241 A8000000 		.4byte	0xa8
 1376 0245 06       		.uleb128 0x6
 1377 0246 5D000000 		.4byte	.LASF24
 1378 024a 6E02     		.2byte	0x26e
 1379 024c E0000000 		.4byte	0xe0
 1380 0250 00000000 		.4byte	.LFB464
 1381 0254 20000000 		.4byte	.LFE464-.LFB464
 1382 0258 01       		.uleb128 0x1
 1383 0259 9C       		.byte	0x9c
 1384 025a DB020000 		.4byte	0x2db
 1385 025e 01       		.uleb128 0x1
 1386 025f 7000     		.ascii	"p\000"
 1387 0261 6E02     		.2byte	0x26e
 1388 0263 2D       		.byte	0x2d
 1389 0264 DB020000 		.4byte	0x2db
 1390 0268 BC000000 		.4byte	.LLST72
 1391 026c B4000000 		.4byte	.LVUS72
 1392 0270 02       		.uleb128 0x2
 1393 0271 C5020000 		.4byte	.LASF19
 1394 0275 6E02     		.2byte	0x26e
 1395 0277 38       		.byte	0x38
 1396 0278 97000000 		.4byte	0x97
 1397 027c DE000000 		.4byte	.LLST73
 1398 0280 DC000000 		.4byte	.LVUS73
 1399 0284 01       		.uleb128 0x1
 1400 0285 746D6F00 		.ascii	"tmo\000"
 1401 0289 6F02     		.2byte	0x26f
 1402 028b 24       		.byte	0x24
 1403 028c B9000000 		.4byte	0xb9
 1404 0290 E9000000 		.4byte	.LLST74
 1405 0294 E7000000 		.4byte	.LVUS74
 1406 0298 02       		.uleb128 0x2
 1407 0299 CA000000 		.4byte	.LASF20
 1408 029d 6F02     		.2byte	0x26f
 1409 029f 32       		.byte	0x32
 1410 02a0 DB000000 		.4byte	0xdb
 1411 02a4 F4000000 		.4byte	.LLST75
 1412 02a8 F2000000 		.4byte	.LVUS75
 1413 02ac 07       		.uleb128 0x7
 1414 02ad 28000000 		.4byte	.LASF21
 1415 02b1 7002     		.2byte	0x270
 1416 02b3 F1000000 		.4byte	0xf1
 1417 02b7 08       		.uleb128 0x8
 1418 02b8 656E6400 		.ascii	"end\000"
 1419 02bc 7002     		.2byte	0x270
 1420 02be F1000000 		.4byte	0xf1
 1421 02c2 03       		.uleb128 0x3
 1422 02c3 BA000000 		.4byte	.LLRL76
 1423 02c7 05       		.uleb128 0x5
 1424 02c8 7600     		.ascii	"v\000"
 1425 02ca 7A02     		.2byte	0x27a
ARM GAS  C:\Users\DEVELO~1\AppData\Local\Temp\ccNqWhix.s 			page 26


 1426 02cc 0D       		.byte	0xd
 1427 02cd 97000000 		.4byte	0x97
 1428 02d1 FF000000 		.4byte	.LLST77
 1429 02d5 FD000000 		.4byte	.LVUS77
 1430 02d9 00       		.byte	0
 1431 02da 00       		.byte	0
 1432 02db 0A       		.uleb128 0xa
 1433 02dc A3000000 		.4byte	0xa3
 1434 02e0 06       		.uleb128 0x6
 1435 02e1 53020000 		.4byte	.LASF25
 1436 02e5 4402     		.2byte	0x244
 1437 02e7 E0000000 		.4byte	0xe0
 1438 02eb 00000000 		.4byte	.LFB463
 1439 02ef 20000000 		.4byte	.LFE463-.LFB463
 1440 02f3 01       		.uleb128 0x1
 1441 02f4 9C       		.byte	0x9c
 1442 02f5 76030000 		.4byte	0x376
 1443 02f9 01       		.uleb128 0x1
 1444 02fa 7000     		.ascii	"p\000"
 1445 02fc 4402     		.2byte	0x244
 1446 02fe 2F       		.byte	0x2f
 1447 02ff E7000000 		.4byte	0xe7
 1448 0303 10010000 		.4byte	.LLST66
 1449 0307 08010000 		.4byte	.LVUS66
 1450 030b 02       		.uleb128 0x2
 1451 030c C5020000 		.4byte	.LASF19
 1452 0310 4402     		.2byte	0x244
 1453 0312 3B       		.byte	0x3b
 1454 0313 B9000000 		.4byte	0xb9
 1455 0317 32010000 		.4byte	.LLST67
 1456 031b 30010000 		.4byte	.LVUS67
 1457 031f 01       		.uleb128 0x1
 1458 0320 746D6F00 		.ascii	"tmo\000"
 1459 0324 4502     		.2byte	0x245
 1460 0326 25       		.byte	0x25
 1461 0327 B9000000 		.4byte	0xb9
 1462 032b 3D010000 		.4byte	.LLST68
 1463 032f 3B010000 		.4byte	.LVUS68
 1464 0333 02       		.uleb128 0x2
 1465 0334 CA000000 		.4byte	.LASF20
 1466 0338 4502     		.2byte	0x245
 1467 033a 34       		.byte	0x34
 1468 033b EC000000 		.4byte	0xec
 1469 033f 48010000 		.4byte	.LLST69
 1470 0343 46010000 		.4byte	.LVUS69
 1471 0347 07       		.uleb128 0x7
 1472 0348 28000000 		.4byte	.LASF21
 1473 034c 4602     		.2byte	0x246
 1474 034e F1000000 		.4byte	0xf1
 1475 0352 08       		.uleb128 0x8
 1476 0353 656E6400 		.ascii	"end\000"
 1477 0357 4602     		.2byte	0x246
 1478 0359 F1000000 		.4byte	0xf1
 1479 035d 03       		.uleb128 0x3
 1480 035e AE000000 		.4byte	.LLRL70
 1481 0362 05       		.uleb128 0x5
 1482 0363 7600     		.ascii	"v\000"
ARM GAS  C:\Users\DEVELO~1\AppData\Local\Temp\ccNqWhix.s 			page 27


 1483 0365 5002     		.2byte	0x250
 1484 0367 0E       		.byte	0xe
 1485 0368 B9000000 		.4byte	0xb9
 1486 036c 53010000 		.4byte	.LLST71
 1487 0370 51010000 		.4byte	.LVUS71
 1488 0374 00       		.byte	0
 1489 0375 00       		.byte	0
 1490 0376 06       		.uleb128 0x6
 1491 0377 08000000 		.4byte	.LASF26
 1492 037b 1A02     		.2byte	0x21a
 1493 037d E0000000 		.4byte	0xe0
 1494 0381 00000000 		.4byte	.LFB462
 1495 0385 20000000 		.4byte	.LFE462-.LFB462
 1496 0389 01       		.uleb128 0x1
 1497 038a 9C       		.byte	0x9c
 1498 038b 0C040000 		.4byte	0x40c
 1499 038f 01       		.uleb128 0x1
 1500 0390 7000     		.ascii	"p\000"
 1501 0392 1A02     		.2byte	0x21a
 1502 0394 2F       		.byte	0x2f
 1503 0395 3B020000 		.4byte	0x23b
 1504 0399 64010000 		.4byte	.LLST60
 1505 039d 5C010000 		.4byte	.LVUS60
 1506 03a1 02       		.uleb128 0x2
 1507 03a2 C5020000 		.4byte	.LASF19
 1508 03a6 1A02     		.2byte	0x21a
 1509 03a8 3B       		.byte	0x3b
 1510 03a9 A8000000 		.4byte	0xa8
 1511 03ad 86010000 		.4byte	.LLST61
 1512 03b1 84010000 		.4byte	.LVUS61
 1513 03b5 01       		.uleb128 0x1
 1514 03b6 746D6F00 		.ascii	"tmo\000"
 1515 03ba 1B02     		.2byte	0x21b
 1516 03bc 25       		.byte	0x25
 1517 03bd B9000000 		.4byte	0xb9
 1518 03c1 91010000 		.4byte	.LLST62
 1519 03c5 8F010000 		.4byte	.LVUS62
 1520 03c9 02       		.uleb128 0x2
 1521 03ca CA000000 		.4byte	.LASF20
 1522 03ce 1B02     		.2byte	0x21b
 1523 03d0 34       		.byte	0x34
 1524 03d1 40020000 		.4byte	0x240
 1525 03d5 9C010000 		.4byte	.LLST63
 1526 03d9 9A010000 		.4byte	.LVUS63
 1527 03dd 07       		.uleb128 0x7
 1528 03de 28000000 		.4byte	.LASF21
 1529 03e2 1C02     		.2byte	0x21c
 1530 03e4 F1000000 		.4byte	0xf1
 1531 03e8 08       		.uleb128 0x8
 1532 03e9 656E6400 		.ascii	"end\000"
 1533 03ed 1C02     		.2byte	0x21c
 1534 03ef F1000000 		.4byte	0xf1
 1535 03f3 03       		.uleb128 0x3
 1536 03f4 9F000000 		.4byte	.LLRL64
 1537 03f8 05       		.uleb128 0x5
 1538 03f9 7600     		.ascii	"v\000"
 1539 03fb 2602     		.2byte	0x226
ARM GAS  C:\Users\DEVELO~1\AppData\Local\Temp\ccNqWhix.s 			page 28


 1540 03fd 0E       		.byte	0xe
 1541 03fe A8000000 		.4byte	0xa8
 1542 0402 A7010000 		.4byte	.LLST65
 1543 0406 A5010000 		.4byte	.LVUS65
 1544 040a 00       		.byte	0
 1545 040b 00       		.byte	0
 1546 040c 06       		.uleb128 0x6
 1547 040d 53030000 		.4byte	.LASF27
 1548 0411 F001     		.2byte	0x1f0
 1549 0413 E0000000 		.4byte	0xe0
 1550 0417 00000000 		.4byte	.LFB461
 1551 041b 20000000 		.4byte	.LFE461-.LFB461
 1552 041f 01       		.uleb128 0x1
 1553 0420 9C       		.byte	0x9c
 1554 0421 A2040000 		.4byte	0x4a2
 1555 0425 01       		.uleb128 0x1
 1556 0426 7000     		.ascii	"p\000"
 1557 0428 F001     		.2byte	0x1f0
 1558 042a 2D       		.byte	0x2d
 1559 042b DB020000 		.4byte	0x2db
 1560 042f B8010000 		.4byte	.LLST54
 1561 0433 B0010000 		.4byte	.LVUS54
 1562 0437 02       		.uleb128 0x2
 1563 0438 C5020000 		.4byte	.LASF19
 1564 043c F001     		.2byte	0x1f0
 1565 043e 38       		.byte	0x38
 1566 043f 97000000 		.4byte	0x97
 1567 0443 DA010000 		.4byte	.LLST55
 1568 0447 D8010000 		.4byte	.LVUS55
 1569 044b 01       		.uleb128 0x1
 1570 044c 746D6F00 		.ascii	"tmo\000"
 1571 0450 F101     		.2byte	0x1f1
 1572 0452 24       		.byte	0x24
 1573 0453 B9000000 		.4byte	0xb9
 1574 0457 E5010000 		.4byte	.LLST56
 1575 045b E3010000 		.4byte	.LVUS56
 1576 045f 02       		.uleb128 0x2
 1577 0460 CA000000 		.4byte	.LASF20
 1578 0464 F101     		.2byte	0x1f1
 1579 0466 32       		.byte	0x32
 1580 0467 DB000000 		.4byte	0xdb
 1581 046b F0010000 		.4byte	.LLST57
 1582 046f EE010000 		.4byte	.LVUS57
 1583 0473 07       		.uleb128 0x7
 1584 0474 28000000 		.4byte	.LASF21
 1585 0478 F201     		.2byte	0x1f2
 1586 047a F1000000 		.4byte	0xf1
 1587 047e 08       		.uleb128 0x8
 1588 047f 656E6400 		.ascii	"end\000"
 1589 0483 F201     		.2byte	0x1f2
 1590 0485 F1000000 		.4byte	0xf1
 1591 0489 03       		.uleb128 0x3
 1592 048a 90000000 		.4byte	.LLRL58
 1593 048e 05       		.uleb128 0x5
 1594 048f 7600     		.ascii	"v\000"
 1595 0491 FC01     		.2byte	0x1fc
 1596 0493 0D       		.byte	0xd
ARM GAS  C:\Users\DEVELO~1\AppData\Local\Temp\ccNqWhix.s 			page 29


 1597 0494 97000000 		.4byte	0x97
 1598 0498 FB010000 		.4byte	.LLST59
 1599 049c F9010000 		.4byte	.LVUS59
 1600 04a0 00       		.byte	0
 1601 04a1 00       		.byte	0
 1602 04a2 06       		.uleb128 0x6
 1603 04a3 0E030000 		.4byte	.LASF28
 1604 04a7 C601     		.2byte	0x1c6
 1605 04a9 E0000000 		.4byte	0xe0
 1606 04ad 00000000 		.4byte	.LFB460
 1607 04b1 20000000 		.4byte	.LFE460-.LFB460
 1608 04b5 01       		.uleb128 0x1
 1609 04b6 9C       		.byte	0x9c
 1610 04b7 38050000 		.4byte	0x538
 1611 04bb 01       		.uleb128 0x1
 1612 04bc 7000     		.ascii	"p\000"
 1613 04be C601     		.2byte	0x1c6
 1614 04c0 2D       		.byte	0x2d
 1615 04c1 E7000000 		.4byte	0xe7
 1616 04c5 0C020000 		.4byte	.LLST48
 1617 04c9 04020000 		.4byte	.LVUS48
 1618 04cd 02       		.uleb128 0x2
 1619 04ce C5020000 		.4byte	.LASF19
 1620 04d2 C601     		.2byte	0x1c6
 1621 04d4 39       		.byte	0x39
 1622 04d5 B9000000 		.4byte	0xb9
 1623 04d9 2E020000 		.4byte	.LLST49
 1624 04dd 2C020000 		.4byte	.LVUS49
 1625 04e1 01       		.uleb128 0x1
 1626 04e2 746D6F00 		.ascii	"tmo\000"
 1627 04e6 C701     		.2byte	0x1c7
 1628 04e8 23       		.byte	0x23
 1629 04e9 B9000000 		.4byte	0xb9
 1630 04ed 39020000 		.4byte	.LLST50
 1631 04f1 37020000 		.4byte	.LVUS50
 1632 04f5 02       		.uleb128 0x2
 1633 04f6 CA000000 		.4byte	.LASF20
 1634 04fa C701     		.2byte	0x1c7
 1635 04fc 32       		.byte	0x32
 1636 04fd EC000000 		.4byte	0xec
 1637 0501 44020000 		.4byte	.LLST51
 1638 0505 42020000 		.4byte	.LVUS51
 1639 0509 07       		.uleb128 0x7
 1640 050a 28000000 		.4byte	.LASF21
 1641 050e C801     		.2byte	0x1c8
 1642 0510 F1000000 		.4byte	0xf1
 1643 0514 08       		.uleb128 0x8
 1644 0515 656E6400 		.ascii	"end\000"
 1645 0519 C801     		.2byte	0x1c8
 1646 051b F1000000 		.4byte	0xf1
 1647 051f 03       		.uleb128 0x3
 1648 0520 84000000 		.4byte	.LLRL52
 1649 0524 05       		.uleb128 0x5
 1650 0525 7600     		.ascii	"v\000"
 1651 0527 D201     		.2byte	0x1d2
 1652 0529 0E       		.byte	0xe
 1653 052a B9000000 		.4byte	0xb9
ARM GAS  C:\Users\DEVELO~1\AppData\Local\Temp\ccNqWhix.s 			page 30


 1654 052e 53020000 		.4byte	.LLST53
 1655 0532 4D020000 		.4byte	.LVUS53
 1656 0536 00       		.byte	0
 1657 0537 00       		.byte	0
 1658 0538 06       		.uleb128 0x6
 1659 0539 CA020000 		.4byte	.LASF29
 1660 053d 9C01     		.2byte	0x19c
 1661 053f E0000000 		.4byte	0xe0
 1662 0543 00000000 		.4byte	.LFB459
 1663 0547 20000000 		.4byte	.LFE459-.LFB459
 1664 054b 01       		.uleb128 0x1
 1665 054c 9C       		.byte	0x9c
 1666 054d CE050000 		.4byte	0x5ce
 1667 0551 01       		.uleb128 0x1
 1668 0552 7000     		.ascii	"p\000"
 1669 0554 9C01     		.2byte	0x19c
 1670 0556 2D       		.byte	0x2d
 1671 0557 3B020000 		.4byte	0x23b
 1672 055b 70020000 		.4byte	.LLST42
 1673 055f 68020000 		.4byte	.LVUS42
 1674 0563 02       		.uleb128 0x2
 1675 0564 C5020000 		.4byte	.LASF19
 1676 0568 9C01     		.2byte	0x19c
 1677 056a 39       		.byte	0x39
 1678 056b A8000000 		.4byte	0xa8
 1679 056f 92020000 		.4byte	.LLST43
 1680 0573 90020000 		.4byte	.LVUS43
 1681 0577 01       		.uleb128 0x1
 1682 0578 746D6F00 		.ascii	"tmo\000"
 1683 057c 9D01     		.2byte	0x19d
 1684 057e 23       		.byte	0x23
 1685 057f B9000000 		.4byte	0xb9
 1686 0583 9D020000 		.4byte	.LLST44
 1687 0587 9B020000 		.4byte	.LVUS44
 1688 058b 02       		.uleb128 0x2
 1689 058c CA000000 		.4byte	.LASF20
 1690 0590 9D01     		.2byte	0x19d
 1691 0592 32       		.byte	0x32
 1692 0593 40020000 		.4byte	0x240
 1693 0597 A8020000 		.4byte	.LLST45
 1694 059b A6020000 		.4byte	.LVUS45
 1695 059f 07       		.uleb128 0x7
 1696 05a0 28000000 		.4byte	.LASF21
 1697 05a4 9E01     		.2byte	0x19e
 1698 05a6 F1000000 		.4byte	0xf1
 1699 05aa 08       		.uleb128 0x8
 1700 05ab 656E6400 		.ascii	"end\000"
 1701 05af 9E01     		.2byte	0x19e
 1702 05b1 F1000000 		.4byte	0xf1
 1703 05b5 03       		.uleb128 0x3
 1704 05b6 75000000 		.4byte	.LLRL46
 1705 05ba 05       		.uleb128 0x5
 1706 05bb 7600     		.ascii	"v\000"
 1707 05bd A801     		.2byte	0x1a8
 1708 05bf 0E       		.byte	0xe
 1709 05c0 A8000000 		.4byte	0xa8
 1710 05c4 B3020000 		.4byte	.LLST47
ARM GAS  C:\Users\DEVELO~1\AppData\Local\Temp\ccNqWhix.s 			page 31


 1711 05c8 B1020000 		.4byte	.LVUS47
 1712 05cc 00       		.byte	0
 1713 05cd 00       		.byte	0
 1714 05ce 06       		.uleb128 0x6
 1715 05cf 71020000 		.4byte	.LASF30
 1716 05d3 7201     		.2byte	0x172
 1717 05d5 E0000000 		.4byte	0xe0
 1718 05d9 00000000 		.4byte	.LFB458
 1719 05dd 20000000 		.4byte	.LFE458-.LFB458
 1720 05e1 01       		.uleb128 0x1
 1721 05e2 9C       		.byte	0x9c
 1722 05e3 64060000 		.4byte	0x664
 1723 05e7 01       		.uleb128 0x1
 1724 05e8 7000     		.ascii	"p\000"
 1725 05ea 7201     		.2byte	0x172
 1726 05ec 2B       		.byte	0x2b
 1727 05ed DB020000 		.4byte	0x2db
 1728 05f1 C4020000 		.4byte	.LLST36
 1729 05f5 BC020000 		.4byte	.LVUS36
 1730 05f9 02       		.uleb128 0x2
 1731 05fa C5020000 		.4byte	.LASF19
 1732 05fe 7201     		.2byte	0x172
 1733 0600 36       		.byte	0x36
 1734 0601 97000000 		.4byte	0x97
 1735 0605 E6020000 		.4byte	.LLST37
 1736 0609 E4020000 		.4byte	.LVUS37
 1737 060d 01       		.uleb128 0x1
 1738 060e 746D6F00 		.ascii	"tmo\000"
 1739 0612 7301     		.2byte	0x173
 1740 0614 22       		.byte	0x22
 1741 0615 B9000000 		.4byte	0xb9
 1742 0619 F1020000 		.4byte	.LLST38
 1743 061d EF020000 		.4byte	.LVUS38
 1744 0621 02       		.uleb128 0x2
 1745 0622 CA000000 		.4byte	.LASF20
 1746 0626 7301     		.2byte	0x173
 1747 0628 30       		.byte	0x30
 1748 0629 DB000000 		.4byte	0xdb
 1749 062d FC020000 		.4byte	.LLST39
 1750 0631 FA020000 		.4byte	.LVUS39
 1751 0635 07       		.uleb128 0x7
 1752 0636 28000000 		.4byte	.LASF21
 1753 063a 7401     		.2byte	0x174
 1754 063c F1000000 		.4byte	0xf1
 1755 0640 08       		.uleb128 0x8
 1756 0641 656E6400 		.ascii	"end\000"
 1757 0645 7401     		.2byte	0x174
 1758 0647 F1000000 		.4byte	0xf1
 1759 064b 03       		.uleb128 0x3
 1760 064c 66000000 		.4byte	.LLRL40
 1761 0650 05       		.uleb128 0x5
 1762 0651 7600     		.ascii	"v\000"
 1763 0653 7E01     		.2byte	0x17e
 1764 0655 0D       		.byte	0xd
 1765 0656 97000000 		.4byte	0x97
 1766 065a 07030000 		.4byte	.LLST41
 1767 065e 05030000 		.4byte	.LVUS41
ARM GAS  C:\Users\DEVELO~1\AppData\Local\Temp\ccNqWhix.s 			page 32


 1768 0662 00       		.byte	0
 1769 0663 00       		.byte	0
 1770 0664 06       		.uleb128 0x6
 1771 0665 3C000000 		.4byte	.LASF31
 1772 0669 4801     		.2byte	0x148
 1773 066b E0000000 		.4byte	0xe0
 1774 066f 00000000 		.4byte	.LFB457
 1775 0673 22000000 		.4byte	.LFE457-.LFB457
 1776 0677 01       		.uleb128 0x1
 1777 0678 9C       		.byte	0x9c
 1778 0679 FA060000 		.4byte	0x6fa
 1779 067d 01       		.uleb128 0x1
 1780 067e 7000     		.ascii	"p\000"
 1781 0680 4801     		.2byte	0x148
 1782 0682 2D       		.byte	0x2d
 1783 0683 E7000000 		.4byte	0xe7
 1784 0687 18030000 		.4byte	.LLST30
 1785 068b 10030000 		.4byte	.LVUS30
 1786 068f 02       		.uleb128 0x2
 1787 0690 C5020000 		.4byte	.LASF19
 1788 0694 4801     		.2byte	0x148
 1789 0696 39       		.byte	0x39
 1790 0697 B9000000 		.4byte	0xb9
 1791 069b 3A030000 		.4byte	.LLST31
 1792 069f 38030000 		.4byte	.LVUS31
 1793 06a3 01       		.uleb128 0x1
 1794 06a4 746D6F00 		.ascii	"tmo\000"
 1795 06a8 4901     		.2byte	0x149
 1796 06aa 23       		.byte	0x23
 1797 06ab B9000000 		.4byte	0xb9
 1798 06af 45030000 		.4byte	.LLST32
 1799 06b3 43030000 		.4byte	.LVUS32
 1800 06b7 02       		.uleb128 0x2
 1801 06b8 CA000000 		.4byte	.LASF20
 1802 06bc 4901     		.2byte	0x149
 1803 06be 32       		.byte	0x32
 1804 06bf EC000000 		.4byte	0xec
 1805 06c3 50030000 		.4byte	.LLST33
 1806 06c7 4E030000 		.4byte	.LVUS33
 1807 06cb 07       		.uleb128 0x7
 1808 06cc 28000000 		.4byte	.LASF21
 1809 06d0 4A01     		.2byte	0x14a
 1810 06d2 F1000000 		.4byte	0xf1
 1811 06d6 08       		.uleb128 0x8
 1812 06d7 656E6400 		.ascii	"end\000"
 1813 06db 4A01     		.2byte	0x14a
 1814 06dd F1000000 		.4byte	0xf1
 1815 06e1 03       		.uleb128 0x3
 1816 06e2 5A000000 		.4byte	.LLRL34
 1817 06e6 05       		.uleb128 0x5
 1818 06e7 7600     		.ascii	"v\000"
 1819 06e9 5401     		.2byte	0x154
 1820 06eb 0E       		.byte	0xe
 1821 06ec B9000000 		.4byte	0xb9
 1822 06f0 5B030000 		.4byte	.LLST35
 1823 06f4 59030000 		.4byte	.LVUS35
 1824 06f8 00       		.byte	0
ARM GAS  C:\Users\DEVELO~1\AppData\Local\Temp\ccNqWhix.s 			page 33


 1825 06f9 00       		.byte	0
 1826 06fa 06       		.uleb128 0x6
 1827 06fb 91010000 		.4byte	.LASF32
 1828 06ff 1E01     		.2byte	0x11e
 1829 0701 E0000000 		.4byte	0xe0
 1830 0705 00000000 		.4byte	.LFB456
 1831 0709 20000000 		.4byte	.LFE456-.LFB456
 1832 070d 01       		.uleb128 0x1
 1833 070e 9C       		.byte	0x9c
 1834 070f 90070000 		.4byte	0x790
 1835 0713 01       		.uleb128 0x1
 1836 0714 7000     		.ascii	"p\000"
 1837 0716 1E01     		.2byte	0x11e
 1838 0718 2D       		.byte	0x2d
 1839 0719 3B020000 		.4byte	0x23b
 1840 071d 6C030000 		.4byte	.LLST24
 1841 0721 64030000 		.4byte	.LVUS24
 1842 0725 02       		.uleb128 0x2
 1843 0726 C5020000 		.4byte	.LASF19
 1844 072a 1E01     		.2byte	0x11e
 1845 072c 39       		.byte	0x39
 1846 072d A8000000 		.4byte	0xa8
 1847 0731 8E030000 		.4byte	.LLST25
 1848 0735 8C030000 		.4byte	.LVUS25
 1849 0739 01       		.uleb128 0x1
 1850 073a 746D6F00 		.ascii	"tmo\000"
 1851 073e 1F01     		.2byte	0x11f
 1852 0740 23       		.byte	0x23
 1853 0741 B9000000 		.4byte	0xb9
 1854 0745 99030000 		.4byte	.LLST26
 1855 0749 97030000 		.4byte	.LVUS26
 1856 074d 02       		.uleb128 0x2
 1857 074e CA000000 		.4byte	.LASF20
 1858 0752 1F01     		.2byte	0x11f
 1859 0754 32       		.byte	0x32
 1860 0755 40020000 		.4byte	0x240
 1861 0759 A4030000 		.4byte	.LLST27
 1862 075d A2030000 		.4byte	.LVUS27
 1863 0761 07       		.uleb128 0x7
 1864 0762 28000000 		.4byte	.LASF21
 1865 0766 2001     		.2byte	0x120
 1866 0768 F1000000 		.4byte	0xf1
 1867 076c 08       		.uleb128 0x8
 1868 076d 656E6400 		.ascii	"end\000"
 1869 0771 2001     		.2byte	0x120
 1870 0773 F1000000 		.4byte	0xf1
 1871 0777 03       		.uleb128 0x3
 1872 0778 4B000000 		.4byte	.LLRL28
 1873 077c 05       		.uleb128 0x5
 1874 077d 7600     		.ascii	"v\000"
 1875 077f 2A01     		.2byte	0x12a
 1876 0781 0E       		.byte	0xe
 1877 0782 A8000000 		.4byte	0xa8
 1878 0786 AF030000 		.4byte	.LLST29
 1879 078a AD030000 		.4byte	.LVUS29
 1880 078e 00       		.byte	0
 1881 078f 00       		.byte	0
ARM GAS  C:\Users\DEVELO~1\AppData\Local\Temp\ccNqWhix.s 			page 34


 1882 0790 0F       		.uleb128 0xf
 1883 0791 9F000000 		.4byte	.LASF33
 1884 0795 F4       		.byte	0xf4
 1885 0796 E0000000 		.4byte	0xe0
 1886 079a 00000000 		.4byte	.LFB455
 1887 079e 20000000 		.4byte	.LFE455-.LFB455
 1888 07a2 01       		.uleb128 0x1
 1889 07a3 9C       		.byte	0x9c
 1890 07a4 22080000 		.4byte	0x822
 1891 07a8 0E       		.uleb128 0xe
 1892 07a9 7000     		.ascii	"p\000"
 1893 07ab F4       		.byte	0xf4
 1894 07ac 2B       		.byte	0x2b
 1895 07ad DB020000 		.4byte	0x2db
 1896 07b1 C0030000 		.4byte	.LLST18
 1897 07b5 B8030000 		.4byte	.LVUS18
 1898 07b9 0B       		.uleb128 0xb
 1899 07ba C5020000 		.4byte	.LASF19
 1900 07be F4       		.byte	0xf4
 1901 07bf 36       		.byte	0x36
 1902 07c0 97000000 		.4byte	0x97
 1903 07c4 E2030000 		.4byte	.LLST19
 1904 07c8 E0030000 		.4byte	.LVUS19
 1905 07cc 0E       		.uleb128 0xe
 1906 07cd 746D6F00 		.ascii	"tmo\000"
 1907 07d1 F5       		.byte	0xf5
 1908 07d2 22       		.byte	0x22
 1909 07d3 B9000000 		.4byte	0xb9
 1910 07d7 ED030000 		.4byte	.LLST20
 1911 07db EB030000 		.4byte	.LVUS20
 1912 07df 0B       		.uleb128 0xb
 1913 07e0 CA000000 		.4byte	.LASF20
 1914 07e4 F5       		.byte	0xf5
 1915 07e5 30       		.byte	0x30
 1916 07e6 DB000000 		.4byte	0xdb
 1917 07ea F8030000 		.4byte	.LLST21
 1918 07ee F6030000 		.4byte	.LVUS21
 1919 07f2 1A       		.uleb128 0x1a
 1920 07f3 28000000 		.4byte	.LASF21
 1921 07f7 01       		.byte	0x1
 1922 07f8 F6       		.byte	0xf6
 1923 07f9 0C       		.byte	0xc
 1924 07fa F1000000 		.4byte	0xf1
 1925 07fe 13       		.uleb128 0x13
 1926 07ff 656E6400 		.ascii	"end\000"
 1927 0803 F6       		.byte	0xf6
 1928 0804 13       		.byte	0x13
 1929 0805 F1000000 		.4byte	0xf1
 1930 0809 03       		.uleb128 0x3
 1931 080a 3C000000 		.4byte	.LLRL22
 1932 080e 05       		.uleb128 0x5
 1933 080f 7600     		.ascii	"v\000"
 1934 0811 0001     		.2byte	0x100
 1935 0813 0D       		.byte	0xd
 1936 0814 97000000 		.4byte	0x97
 1937 0818 03040000 		.4byte	.LLST23
 1938 081c 01040000 		.4byte	.LVUS23
ARM GAS  C:\Users\DEVELO~1\AppData\Local\Temp\ccNqWhix.s 			page 35


 1939 0820 00       		.byte	0
 1940 0821 00       		.byte	0
 1941 0822 0F       		.uleb128 0xf
 1942 0823 72010000 		.4byte	.LASF34
 1943 0827 CA       		.byte	0xca
 1944 0828 E0000000 		.4byte	0xe0
 1945 082c 00000000 		.4byte	.LFB454
 1946 0830 20000000 		.4byte	.LFE454-.LFB454
 1947 0834 01       		.uleb128 0x1
 1948 0835 9C       		.byte	0x9c
 1949 0836 BA080000 		.4byte	0x8ba
 1950 083a 0E       		.uleb128 0xe
 1951 083b 7000     		.ascii	"p\000"
 1952 083d CA       		.byte	0xca
 1953 083e 2C       		.byte	0x2c
 1954 083f E7000000 		.4byte	0xe7
 1955 0843 14040000 		.4byte	.LLST13
 1956 0847 0C040000 		.4byte	.LVUS13
 1957 084b 0C       		.uleb128 0xc
 1958 084c C5020000 		.4byte	.LASF19
 1959 0850 CA       		.byte	0xca
 1960 0851 38       		.byte	0x38
 1961 0852 B9000000 		.4byte	0xb9
 1962 0856 01       		.uleb128 0x1
 1963 0857 51       		.byte	0x51
 1964 0858 0C       		.uleb128 0xc
 1965 0859 B2000000 		.4byte	.LASF35
 1966 085d CB       		.byte	0xcb
 1967 085e 22       		.byte	0x22
 1968 085f B9000000 		.4byte	0xb9
 1969 0863 01       		.uleb128 0x1
 1970 0864 52       		.byte	0x52
 1971 0865 11       		.uleb128 0x11
 1972 0866 746D6F00 		.ascii	"tmo\000"
 1973 086a CB       		.byte	0xcb
 1974 086b 32       		.byte	0x32
 1975 086c B9000000 		.4byte	0xb9
 1976 0870 01       		.uleb128 0x1
 1977 0871 53       		.byte	0x53
 1978 0872 0B       		.uleb128 0xb
 1979 0873 CA000000 		.4byte	.LASF20
 1980 0877 CB       		.byte	0xcb
 1981 0878 41       		.byte	0x41
 1982 0879 EC000000 		.4byte	0xec
 1983 087d 3C040000 		.4byte	.LLST14
 1984 0881 34040000 		.4byte	.LVUS14
 1985 0885 12       		.uleb128 0x12
 1986 0886 28000000 		.4byte	.LASF21
 1987 088a CC       		.byte	0xcc
 1988 088b F1000000 		.4byte	0xf1
 1989 088f 0D       		.uleb128 0xd
 1990 0890 656E6400 		.ascii	"end\000"
 1991 0894 CC       		.byte	0xcc
 1992 0895 13       		.byte	0x13
 1993 0896 F1000000 		.4byte	0xf1
 1994 089a 5C040000 		.4byte	.LLST15
 1995 089e 5A040000 		.4byte	.LVUS15
ARM GAS  C:\Users\DEVELO~1\AppData\Local\Temp\ccNqWhix.s 			page 36


 1996 08a2 03       		.uleb128 0x3
 1997 08a3 30000000 		.4byte	.LLRL16
 1998 08a7 0D       		.uleb128 0xd
 1999 08a8 7600     		.ascii	"v\000"
 2000 08aa D6       		.byte	0xd6
 2001 08ab 0E       		.byte	0xe
 2002 08ac B9000000 		.4byte	0xb9
 2003 08b0 67040000 		.4byte	.LLST17
 2004 08b4 65040000 		.4byte	.LVUS17
 2005 08b8 00       		.byte	0
 2006 08b9 00       		.byte	0
 2007 08ba 0F       		.uleb128 0xf
 2008 08bb 3A030000 		.4byte	.LASF36
 2009 08bf 9F       		.byte	0x9f
 2010 08c0 E0000000 		.4byte	0xe0
 2011 08c4 00000000 		.4byte	.LFB453
 2012 08c8 2E000000 		.4byte	.LFE453-.LFB453
 2013 08cc 01       		.uleb128 0x1
 2014 08cd 9C       		.byte	0x9c
 2015 08ce 52090000 		.4byte	0x952
 2016 08d2 0E       		.uleb128 0xe
 2017 08d3 7000     		.ascii	"p\000"
 2018 08d5 9F       		.byte	0x9f
 2019 08d6 2C       		.byte	0x2c
 2020 08d7 3B020000 		.4byte	0x23b
 2021 08db 78040000 		.4byte	.LLST8
 2022 08df 70040000 		.4byte	.LVUS8
 2023 08e3 0C       		.uleb128 0xc
 2024 08e4 C5020000 		.4byte	.LASF19
 2025 08e8 9F       		.byte	0x9f
 2026 08e9 38       		.byte	0x38
 2027 08ea A8000000 		.4byte	0xa8
 2028 08ee 01       		.uleb128 0x1
 2029 08ef 51       		.byte	0x51
 2030 08f0 0C       		.uleb128 0xc
 2031 08f1 B2000000 		.4byte	.LASF35
 2032 08f5 A0       		.byte	0xa0
 2033 08f6 22       		.byte	0x22
 2034 08f7 A8000000 		.4byte	0xa8
 2035 08fb 01       		.uleb128 0x1
 2036 08fc 52       		.byte	0x52
 2037 08fd 11       		.uleb128 0x11
 2038 08fe 746D6F00 		.ascii	"tmo\000"
 2039 0902 A0       		.byte	0xa0
 2040 0903 32       		.byte	0x32
 2041 0904 B9000000 		.4byte	0xb9
 2042 0908 01       		.uleb128 0x1
 2043 0909 53       		.byte	0x53
 2044 090a 0B       		.uleb128 0xb
 2045 090b CA000000 		.4byte	.LASF20
 2046 090f A0       		.byte	0xa0
 2047 0910 41       		.byte	0x41
 2048 0911 40020000 		.4byte	0x240
 2049 0915 A0040000 		.4byte	.LLST9
 2050 0919 98040000 		.4byte	.LVUS9
 2051 091d 12       		.uleb128 0x12
 2052 091e 28000000 		.4byte	.LASF21
ARM GAS  C:\Users\DEVELO~1\AppData\Local\Temp\ccNqWhix.s 			page 37


 2053 0922 A1       		.byte	0xa1
 2054 0923 F1000000 		.4byte	0xf1
 2055 0927 0D       		.uleb128 0xd
 2056 0928 656E6400 		.ascii	"end\000"
 2057 092c A1       		.byte	0xa1
 2058 092d 13       		.byte	0x13
 2059 092e F1000000 		.4byte	0xf1
 2060 0932 C0040000 		.4byte	.LLST10
 2061 0936 BE040000 		.4byte	.LVUS10
 2062 093a 03       		.uleb128 0x3
 2063 093b 24000000 		.4byte	.LLRL11
 2064 093f 0D       		.uleb128 0xd
 2065 0940 7600     		.ascii	"v\000"
 2066 0942 AB       		.byte	0xab
 2067 0943 0E       		.byte	0xe
 2068 0944 A8000000 		.4byte	0xa8
 2069 0948 CB040000 		.4byte	.LLST12
 2070 094c C9040000 		.4byte	.LVUS12
 2071 0950 00       		.byte	0
 2072 0951 00       		.byte	0
 2073 0952 0F       		.uleb128 0xf
 2074 0953 FC020000 		.4byte	.LASF37
 2075 0957 74       		.byte	0x74
 2076 0958 E0000000 		.4byte	0xe0
 2077 095c 00000000 		.4byte	.LFB452
 2078 0960 2E000000 		.4byte	.LFE452-.LFB452
 2079 0964 01       		.uleb128 0x1
 2080 0965 9C       		.byte	0x9c
 2081 0966 EA090000 		.4byte	0x9ea
 2082 096a 0E       		.uleb128 0xe
 2083 096b 7000     		.ascii	"p\000"
 2084 096d 74       		.byte	0x74
 2085 096e 2A       		.byte	0x2a
 2086 096f DB020000 		.4byte	0x2db
 2087 0973 DC040000 		.4byte	.LLST3
 2088 0977 D4040000 		.4byte	.LVUS3
 2089 097b 0C       		.uleb128 0xc
 2090 097c C5020000 		.4byte	.LASF19
 2091 0980 74       		.byte	0x74
 2092 0981 35       		.byte	0x35
 2093 0982 97000000 		.4byte	0x97
 2094 0986 01       		.uleb128 0x1
 2095 0987 51       		.byte	0x51
 2096 0988 0C       		.uleb128 0xc
 2097 0989 B2000000 		.4byte	.LASF35
 2098 098d 75       		.byte	0x75
 2099 098e 20       		.byte	0x20
 2100 098f 97000000 		.4byte	0x97
 2101 0993 01       		.uleb128 0x1
 2102 0994 52       		.byte	0x52
 2103 0995 11       		.uleb128 0x11
 2104 0996 746D6F00 		.ascii	"tmo\000"
 2105 099a 75       		.byte	0x75
 2106 099b 30       		.byte	0x30
 2107 099c B9000000 		.4byte	0xb9
 2108 09a0 01       		.uleb128 0x1
 2109 09a1 53       		.byte	0x53
ARM GAS  C:\Users\DEVELO~1\AppData\Local\Temp\ccNqWhix.s 			page 38


 2110 09a2 0B       		.uleb128 0xb
 2111 09a3 CA000000 		.4byte	.LASF20
 2112 09a7 75       		.byte	0x75
 2113 09a8 3E       		.byte	0x3e
 2114 09a9 DB000000 		.4byte	0xdb
 2115 09ad 04050000 		.4byte	.LLST4
 2116 09b1 FC040000 		.4byte	.LVUS4
 2117 09b5 12       		.uleb128 0x12
 2118 09b6 28000000 		.4byte	.LASF21
 2119 09ba 76       		.byte	0x76
 2120 09bb F1000000 		.4byte	0xf1
 2121 09bf 0D       		.uleb128 0xd
 2122 09c0 656E6400 		.ascii	"end\000"
 2123 09c4 76       		.byte	0x76
 2124 09c5 13       		.byte	0x13
 2125 09c6 F1000000 		.4byte	0xf1
 2126 09ca 24050000 		.4byte	.LLST5
 2127 09ce 22050000 		.4byte	.LVUS5
 2128 09d2 03       		.uleb128 0x3
 2129 09d3 18000000 		.4byte	.LLRL6
 2130 09d7 0D       		.uleb128 0xd
 2131 09d8 7600     		.ascii	"v\000"
 2132 09da 80       		.byte	0x80
 2133 09db 0D       		.byte	0xd
 2134 09dc 97000000 		.4byte	0x97
 2135 09e0 2F050000 		.4byte	.LLST7
 2136 09e4 2D050000 		.4byte	.LVUS7
 2137 09e8 00       		.byte	0
 2138 09e9 00       		.byte	0
 2139 09ea 1B       		.uleb128 0x1b
 2140 09eb F1020000 		.4byte	.LASF38
 2141 09ef 01       		.byte	0x1
 2142 09f0 59       		.byte	0x59
 2143 09f1 06       		.byte	0x6
 2144 09f2 00000000 		.4byte	.LFB451
 2145 09f6 08000000 		.4byte	.LFE451-.LFB451
 2146 09fa 01       		.uleb128 0x1
 2147 09fb 9C       		.byte	0x9c
 2148 09fc 440A0000 		.4byte	0xa44
 2149 0a00 0B       		.uleb128 0xb
 2150 0a01 00000000 		.4byte	.LASF39
 2151 0a05 59       		.byte	0x59
 2152 0a06 1D       		.byte	0x1d
 2153 0a07 CA000000 		.4byte	0xca
 2154 0a0b 3C050000 		.4byte	.LLST0
 2155 0a0f 38050000 		.4byte	.LVUS0
 2156 0a13 1C       		.uleb128 0x1c
 2157 0a14 8D0A0000 		.4byte	0xa8d
 2158 0a18 00000000 		.4byte	.LBI111
 2159 0a1c 02       		.byte	.LVU2
 2160 0a1d 0C000000 		.4byte	.LLRL1
 2161 0a21 01       		.byte	0x1
 2162 0a22 5E       		.byte	0x5e
 2163 0a23 05       		.byte	0x5
 2164 0a24 1D       		.uleb128 0x1d
 2165 0a25 970A0000 		.4byte	0xa97
 2166 0a29 53050000 		.4byte	.LLST2
ARM GAS  C:\Users\DEVELO~1\AppData\Local\Temp\ccNqWhix.s 			page 39


 2167 0a2d 4F050000 		.4byte	.LVUS2
 2168 0a31 1E       		.uleb128 0x1e
 2169 0a32 06000000 		.4byte	.LVL1
 2170 0a36 FD000000 		.4byte	0xfd
 2171 0a3a 1F       		.uleb128 0x1f
 2172 0a3b 01       		.uleb128 0x1
 2173 0a3c 50       		.byte	0x50
 2174 0a3d 03       		.uleb128 0x3
 2175 0a3e A3       		.byte	0xa3
 2176 0a3f 01       		.uleb128 0x1
 2177 0a40 50       		.byte	0x50
 2178 0a41 00       		.byte	0
 2179 0a42 00       		.byte	0
 2180 0a43 00       		.byte	0
 2181 0a44 20       		.uleb128 0x20
 2182 0a45 EB000000 		.4byte	.LASF47
 2183 0a49 01       		.byte	0x1
 2184 0a4a 44       		.byte	0x44
 2185 0a4b 14       		.byte	0x14
 2186 0a4c E0000000 		.4byte	0xe0
 2187 0a50 03       		.byte	0x3
 2188 0a51 790A0000 		.4byte	0xa79
 2189 0a55 21       		.uleb128 0x21
 2190 0a56 28000000 		.4byte	.LASF21
 2191 0a5a 01       		.byte	0x1
 2192 0a5b 44       		.byte	0x44
 2193 0a5c 2F       		.byte	0x2f
 2194 0a5d F1000000 		.4byte	0xf1
 2195 0a61 22       		.uleb128 0x22
 2196 0a62 656E6400 		.ascii	"end\000"
 2197 0a66 01       		.byte	0x1
 2198 0a67 44       		.byte	0x44
 2199 0a68 3F       		.byte	0x3f
 2200 0a69 F1000000 		.4byte	0xf1
 2201 0a6d 13       		.uleb128 0x13
 2202 0a6e 636E7400 		.ascii	"cnt\000"
 2203 0a72 45       		.byte	0x45
 2204 0a73 0C       		.byte	0xc
 2205 0a74 F1000000 		.4byte	0xf1
 2206 0a78 00       		.byte	0
 2207 0a79 14       		.uleb128 0x14
 2208 0a7a 85010000 		.4byte	.LASF40
 2209 0a7e 3B       		.byte	0x3b
 2210 0a7f F1000000 		.4byte	0xf1
 2211 0a83 14       		.uleb128 0x14
 2212 0a84 2E000000 		.4byte	.LASF41
 2213 0a88 32       		.byte	0x32
 2214 0a89 B9000000 		.4byte	0xb9
 2215 0a8d 23       		.uleb128 0x23
 2216 0a8e 97020000 		.4byte	.LASF48
 2217 0a92 02       		.byte	0x2
 2218 0a93 1E02     		.2byte	0x21e
 2219 0a95 14       		.byte	0x14
 2220 0a96 03       		.byte	0x3
 2221 0a97 24       		.uleb128 0x24
 2222 0a98 84020000 		.4byte	.LASF42
 2223 0a9c 02       		.byte	0x2
ARM GAS  C:\Users\DEVELO~1\AppData\Local\Temp\ccNqWhix.s 			page 40


 2224 0a9d 1E02     		.2byte	0x21e
 2225 0a9f 2C       		.byte	0x2c
 2226 0aa0 CA000000 		.4byte	0xca
 2227 0aa4 00       		.byte	0
 2228 0aa5 00       		.byte	0
 2229              		.section	.debug_abbrev,"",%progbits
 2230              	.Ldebug_abbrev0:
 2231 0000 01       		.uleb128 0x1
 2232 0001 05       		.uleb128 0x5
 2233 0002 00       		.byte	0
 2234 0003 03       		.uleb128 0x3
 2235 0004 08       		.uleb128 0x8
 2236 0005 3A       		.uleb128 0x3a
 2237 0006 21       		.uleb128 0x21
 2238 0007 01       		.sleb128 1
 2239 0008 3B       		.uleb128 0x3b
 2240 0009 05       		.uleb128 0x5
 2241 000a 39       		.uleb128 0x39
 2242 000b 0B       		.uleb128 0xb
 2243 000c 49       		.uleb128 0x49
 2244 000d 13       		.uleb128 0x13
 2245 000e 02       		.uleb128 0x2
 2246 000f 17       		.uleb128 0x17
 2247 0010 B742     		.uleb128 0x2137
 2248 0012 17       		.uleb128 0x17
 2249 0013 00       		.byte	0
 2250 0014 00       		.byte	0
 2251 0015 02       		.uleb128 0x2
 2252 0016 05       		.uleb128 0x5
 2253 0017 00       		.byte	0
 2254 0018 03       		.uleb128 0x3
 2255 0019 0E       		.uleb128 0xe
 2256 001a 3A       		.uleb128 0x3a
 2257 001b 21       		.uleb128 0x21
 2258 001c 01       		.sleb128 1
 2259 001d 3B       		.uleb128 0x3b
 2260 001e 05       		.uleb128 0x5
 2261 001f 39       		.uleb128 0x39
 2262 0020 0B       		.uleb128 0xb
 2263 0021 49       		.uleb128 0x49
 2264 0022 13       		.uleb128 0x13
 2265 0023 02       		.uleb128 0x2
 2266 0024 17       		.uleb128 0x17
 2267 0025 B742     		.uleb128 0x2137
 2268 0027 17       		.uleb128 0x17
 2269 0028 00       		.byte	0
 2270 0029 00       		.byte	0
 2271 002a 03       		.uleb128 0x3
 2272 002b 0B       		.uleb128 0xb
 2273 002c 01       		.byte	0x1
 2274 002d 55       		.uleb128 0x55
 2275 002e 17       		.uleb128 0x17
 2276 002f 00       		.byte	0
 2277 0030 00       		.byte	0
 2278 0031 04       		.uleb128 0x4
 2279 0032 24       		.uleb128 0x24
 2280 0033 00       		.byte	0
ARM GAS  C:\Users\DEVELO~1\AppData\Local\Temp\ccNqWhix.s 			page 41


 2281 0034 0B       		.uleb128 0xb
 2282 0035 0B       		.uleb128 0xb
 2283 0036 3E       		.uleb128 0x3e
 2284 0037 0B       		.uleb128 0xb
 2285 0038 03       		.uleb128 0x3
 2286 0039 0E       		.uleb128 0xe
 2287 003a 00       		.byte	0
 2288 003b 00       		.byte	0
 2289 003c 05       		.uleb128 0x5
 2290 003d 34       		.uleb128 0x34
 2291 003e 00       		.byte	0
 2292 003f 03       		.uleb128 0x3
 2293 0040 08       		.uleb128 0x8
 2294 0041 3A       		.uleb128 0x3a
 2295 0042 21       		.uleb128 0x21
 2296 0043 01       		.sleb128 1
 2297 0044 3B       		.uleb128 0x3b
 2298 0045 05       		.uleb128 0x5
 2299 0046 39       		.uleb128 0x39
 2300 0047 0B       		.uleb128 0xb
 2301 0048 49       		.uleb128 0x49
 2302 0049 13       		.uleb128 0x13
 2303 004a 02       		.uleb128 0x2
 2304 004b 17       		.uleb128 0x17
 2305 004c B742     		.uleb128 0x2137
 2306 004e 17       		.uleb128 0x17
 2307 004f 00       		.byte	0
 2308 0050 00       		.byte	0
 2309 0051 06       		.uleb128 0x6
 2310 0052 2E       		.uleb128 0x2e
 2311 0053 01       		.byte	0x1
 2312 0054 3F       		.uleb128 0x3f
 2313 0055 19       		.uleb128 0x19
 2314 0056 03       		.uleb128 0x3
 2315 0057 0E       		.uleb128 0xe
 2316 0058 3A       		.uleb128 0x3a
 2317 0059 21       		.uleb128 0x21
 2318 005a 01       		.sleb128 1
 2319 005b 3B       		.uleb128 0x3b
 2320 005c 05       		.uleb128 0x5
 2321 005d 39       		.uleb128 0x39
 2322 005e 21       		.uleb128 0x21
 2323 005f 06       		.sleb128 6
 2324 0060 27       		.uleb128 0x27
 2325 0061 19       		.uleb128 0x19
 2326 0062 49       		.uleb128 0x49
 2327 0063 13       		.uleb128 0x13
 2328 0064 11       		.uleb128 0x11
 2329 0065 01       		.uleb128 0x1
 2330 0066 12       		.uleb128 0x12
 2331 0067 06       		.uleb128 0x6
 2332 0068 40       		.uleb128 0x40
 2333 0069 18       		.uleb128 0x18
 2334 006a 7A       		.uleb128 0x7a
 2335 006b 19       		.uleb128 0x19
 2336 006c 01       		.uleb128 0x1
 2337 006d 13       		.uleb128 0x13
ARM GAS  C:\Users\DEVELO~1\AppData\Local\Temp\ccNqWhix.s 			page 42


 2338 006e 00       		.byte	0
 2339 006f 00       		.byte	0
 2340 0070 07       		.uleb128 0x7
 2341 0071 34       		.uleb128 0x34
 2342 0072 00       		.byte	0
 2343 0073 03       		.uleb128 0x3
 2344 0074 0E       		.uleb128 0xe
 2345 0075 3A       		.uleb128 0x3a
 2346 0076 21       		.uleb128 0x21
 2347 0077 01       		.sleb128 1
 2348 0078 3B       		.uleb128 0x3b
 2349 0079 05       		.uleb128 0x5
 2350 007a 39       		.uleb128 0x39
 2351 007b 21       		.uleb128 0x21
 2352 007c 0C       		.sleb128 12
 2353 007d 49       		.uleb128 0x49
 2354 007e 13       		.uleb128 0x13
 2355 007f 00       		.byte	0
 2356 0080 00       		.byte	0
 2357 0081 08       		.uleb128 0x8
 2358 0082 34       		.uleb128 0x34
 2359 0083 00       		.byte	0
 2360 0084 03       		.uleb128 0x3
 2361 0085 08       		.uleb128 0x8
 2362 0086 3A       		.uleb128 0x3a
 2363 0087 21       		.uleb128 0x21
 2364 0088 01       		.sleb128 1
 2365 0089 3B       		.uleb128 0x3b
 2366 008a 05       		.uleb128 0x5
 2367 008b 39       		.uleb128 0x39
 2368 008c 21       		.uleb128 0x21
 2369 008d 13       		.sleb128 19
 2370 008e 49       		.uleb128 0x49
 2371 008f 13       		.uleb128 0x13
 2372 0090 00       		.byte	0
 2373 0091 00       		.byte	0
 2374 0092 09       		.uleb128 0x9
 2375 0093 16       		.uleb128 0x16
 2376 0094 00       		.byte	0
 2377 0095 03       		.uleb128 0x3
 2378 0096 0E       		.uleb128 0xe
 2379 0097 3A       		.uleb128 0x3a
 2380 0098 0B       		.uleb128 0xb
 2381 0099 3B       		.uleb128 0x3b
 2382 009a 0B       		.uleb128 0xb
 2383 009b 39       		.uleb128 0x39
 2384 009c 0B       		.uleb128 0xb
 2385 009d 49       		.uleb128 0x49
 2386 009e 13       		.uleb128 0x13
 2387 009f 00       		.byte	0
 2388 00a0 00       		.byte	0
 2389 00a1 0A       		.uleb128 0xa
 2390 00a2 0F       		.uleb128 0xf
 2391 00a3 00       		.byte	0
 2392 00a4 0B       		.uleb128 0xb
 2393 00a5 21       		.uleb128 0x21
 2394 00a6 04       		.sleb128 4
ARM GAS  C:\Users\DEVELO~1\AppData\Local\Temp\ccNqWhix.s 			page 43


 2395 00a7 49       		.uleb128 0x49
 2396 00a8 13       		.uleb128 0x13
 2397 00a9 00       		.byte	0
 2398 00aa 00       		.byte	0
 2399 00ab 0B       		.uleb128 0xb
 2400 00ac 05       		.uleb128 0x5
 2401 00ad 00       		.byte	0
 2402 00ae 03       		.uleb128 0x3
 2403 00af 0E       		.uleb128 0xe
 2404 00b0 3A       		.uleb128 0x3a
 2405 00b1 21       		.uleb128 0x21
 2406 00b2 01       		.sleb128 1
 2407 00b3 3B       		.uleb128 0x3b
 2408 00b4 0B       		.uleb128 0xb
 2409 00b5 39       		.uleb128 0x39
 2410 00b6 0B       		.uleb128 0xb
 2411 00b7 49       		.uleb128 0x49
 2412 00b8 13       		.uleb128 0x13
 2413 00b9 02       		.uleb128 0x2
 2414 00ba 17       		.uleb128 0x17
 2415 00bb B742     		.uleb128 0x2137
 2416 00bd 17       		.uleb128 0x17
 2417 00be 00       		.byte	0
 2418 00bf 00       		.byte	0
 2419 00c0 0C       		.uleb128 0xc
 2420 00c1 05       		.uleb128 0x5
 2421 00c2 00       		.byte	0
 2422 00c3 03       		.uleb128 0x3
 2423 00c4 0E       		.uleb128 0xe
 2424 00c5 3A       		.uleb128 0x3a
 2425 00c6 21       		.uleb128 0x21
 2426 00c7 01       		.sleb128 1
 2427 00c8 3B       		.uleb128 0x3b
 2428 00c9 0B       		.uleb128 0xb
 2429 00ca 39       		.uleb128 0x39
 2430 00cb 0B       		.uleb128 0xb
 2431 00cc 49       		.uleb128 0x49
 2432 00cd 13       		.uleb128 0x13
 2433 00ce 02       		.uleb128 0x2
 2434 00cf 18       		.uleb128 0x18
 2435 00d0 00       		.byte	0
 2436 00d1 00       		.byte	0
 2437 00d2 0D       		.uleb128 0xd
 2438 00d3 34       		.uleb128 0x34
 2439 00d4 00       		.byte	0
 2440 00d5 03       		.uleb128 0x3
 2441 00d6 08       		.uleb128 0x8
 2442 00d7 3A       		.uleb128 0x3a
 2443 00d8 21       		.uleb128 0x21
 2444 00d9 01       		.sleb128 1
 2445 00da 3B       		.uleb128 0x3b
 2446 00db 0B       		.uleb128 0xb
 2447 00dc 39       		.uleb128 0x39
 2448 00dd 0B       		.uleb128 0xb
 2449 00de 49       		.uleb128 0x49
 2450 00df 13       		.uleb128 0x13
 2451 00e0 02       		.uleb128 0x2
ARM GAS  C:\Users\DEVELO~1\AppData\Local\Temp\ccNqWhix.s 			page 44


 2452 00e1 17       		.uleb128 0x17
 2453 00e2 B742     		.uleb128 0x2137
 2454 00e4 17       		.uleb128 0x17
 2455 00e5 00       		.byte	0
 2456 00e6 00       		.byte	0
 2457 00e7 0E       		.uleb128 0xe
 2458 00e8 05       		.uleb128 0x5
 2459 00e9 00       		.byte	0
 2460 00ea 03       		.uleb128 0x3
 2461 00eb 08       		.uleb128 0x8
 2462 00ec 3A       		.uleb128 0x3a
 2463 00ed 21       		.uleb128 0x21
 2464 00ee 01       		.sleb128 1
 2465 00ef 3B       		.uleb128 0x3b
 2466 00f0 0B       		.uleb128 0xb
 2467 00f1 39       		.uleb128 0x39
 2468 00f2 0B       		.uleb128 0xb
 2469 00f3 49       		.uleb128 0x49
 2470 00f4 13       		.uleb128 0x13
 2471 00f5 02       		.uleb128 0x2
 2472 00f6 17       		.uleb128 0x17
 2473 00f7 B742     		.uleb128 0x2137
 2474 00f9 17       		.uleb128 0x17
 2475 00fa 00       		.byte	0
 2476 00fb 00       		.byte	0
 2477 00fc 0F       		.uleb128 0xf
 2478 00fd 2E       		.uleb128 0x2e
 2479 00fe 01       		.byte	0x1
 2480 00ff 3F       		.uleb128 0x3f
 2481 0100 19       		.uleb128 0x19
 2482 0101 03       		.uleb128 0x3
 2483 0102 0E       		.uleb128 0xe
 2484 0103 3A       		.uleb128 0x3a
 2485 0104 21       		.uleb128 0x21
 2486 0105 01       		.sleb128 1
 2487 0106 3B       		.uleb128 0x3b
 2488 0107 0B       		.uleb128 0xb
 2489 0108 39       		.uleb128 0x39
 2490 0109 21       		.uleb128 0x21
 2491 010a 06       		.sleb128 6
 2492 010b 27       		.uleb128 0x27
 2493 010c 19       		.uleb128 0x19
 2494 010d 49       		.uleb128 0x49
 2495 010e 13       		.uleb128 0x13
 2496 010f 11       		.uleb128 0x11
 2497 0110 01       		.uleb128 0x1
 2498 0111 12       		.uleb128 0x12
 2499 0112 06       		.uleb128 0x6
 2500 0113 40       		.uleb128 0x40
 2501 0114 18       		.uleb128 0x18
 2502 0115 7A       		.uleb128 0x7a
 2503 0116 19       		.uleb128 0x19
 2504 0117 01       		.uleb128 0x1
 2505 0118 13       		.uleb128 0x13
 2506 0119 00       		.byte	0
 2507 011a 00       		.byte	0
 2508 011b 10       		.uleb128 0x10
ARM GAS  C:\Users\DEVELO~1\AppData\Local\Temp\ccNqWhix.s 			page 45


 2509 011c 35       		.uleb128 0x35
 2510 011d 00       		.byte	0
 2511 011e 49       		.uleb128 0x49
 2512 011f 13       		.uleb128 0x13
 2513 0120 00       		.byte	0
 2514 0121 00       		.byte	0
 2515 0122 11       		.uleb128 0x11
 2516 0123 05       		.uleb128 0x5
 2517 0124 00       		.byte	0
 2518 0125 03       		.uleb128 0x3
 2519 0126 08       		.uleb128 0x8
 2520 0127 3A       		.uleb128 0x3a
 2521 0128 21       		.uleb128 0x21
 2522 0129 01       		.sleb128 1
 2523 012a 3B       		.uleb128 0x3b
 2524 012b 0B       		.uleb128 0xb
 2525 012c 39       		.uleb128 0x39
 2526 012d 0B       		.uleb128 0xb
 2527 012e 49       		.uleb128 0x49
 2528 012f 13       		.uleb128 0x13
 2529 0130 02       		.uleb128 0x2
 2530 0131 18       		.uleb128 0x18
 2531 0132 00       		.byte	0
 2532 0133 00       		.byte	0
 2533 0134 12       		.uleb128 0x12
 2534 0135 34       		.uleb128 0x34
 2535 0136 00       		.byte	0
 2536 0137 03       		.uleb128 0x3
 2537 0138 0E       		.uleb128 0xe
 2538 0139 3A       		.uleb128 0x3a
 2539 013a 21       		.uleb128 0x21
 2540 013b 01       		.sleb128 1
 2541 013c 3B       		.uleb128 0x3b
 2542 013d 0B       		.uleb128 0xb
 2543 013e 39       		.uleb128 0x39
 2544 013f 21       		.uleb128 0x21
 2545 0140 0C       		.sleb128 12
 2546 0141 49       		.uleb128 0x49
 2547 0142 13       		.uleb128 0x13
 2548 0143 1C       		.uleb128 0x1c
 2549 0144 21       		.uleb128 0x21
 2550 0145 00       		.sleb128 0
 2551 0146 00       		.byte	0
 2552 0147 00       		.byte	0
 2553 0148 13       		.uleb128 0x13
 2554 0149 34       		.uleb128 0x34
 2555 014a 00       		.byte	0
 2556 014b 03       		.uleb128 0x3
 2557 014c 08       		.uleb128 0x8
 2558 014d 3A       		.uleb128 0x3a
 2559 014e 21       		.uleb128 0x21
 2560 014f 01       		.sleb128 1
 2561 0150 3B       		.uleb128 0x3b
 2562 0151 0B       		.uleb128 0xb
 2563 0152 39       		.uleb128 0x39
 2564 0153 0B       		.uleb128 0xb
 2565 0154 49       		.uleb128 0x49
ARM GAS  C:\Users\DEVELO~1\AppData\Local\Temp\ccNqWhix.s 			page 46


 2566 0155 13       		.uleb128 0x13
 2567 0156 00       		.byte	0
 2568 0157 00       		.byte	0
 2569 0158 14       		.uleb128 0x14
 2570 0159 2E       		.uleb128 0x2e
 2571 015a 00       		.byte	0
 2572 015b 03       		.uleb128 0x3
 2573 015c 0E       		.uleb128 0xe
 2574 015d 3A       		.uleb128 0x3a
 2575 015e 21       		.uleb128 0x21
 2576 015f 01       		.sleb128 1
 2577 0160 3B       		.uleb128 0x3b
 2578 0161 0B       		.uleb128 0xb
 2579 0162 39       		.uleb128 0x39
 2580 0163 21       		.uleb128 0x21
 2581 0164 18       		.sleb128 24
 2582 0165 27       		.uleb128 0x27
 2583 0166 19       		.uleb128 0x19
 2584 0167 49       		.uleb128 0x49
 2585 0168 13       		.uleb128 0x13
 2586 0169 20       		.uleb128 0x20
 2587 016a 21       		.uleb128 0x21
 2588 016b 03       		.sleb128 3
 2589 016c 00       		.byte	0
 2590 016d 00       		.byte	0
 2591 016e 15       		.uleb128 0x15
 2592 016f 11       		.uleb128 0x11
 2593 0170 01       		.byte	0x1
 2594 0171 25       		.uleb128 0x25
 2595 0172 0E       		.uleb128 0xe
 2596 0173 13       		.uleb128 0x13
 2597 0174 0B       		.uleb128 0xb
 2598 0175 03       		.uleb128 0x3
 2599 0176 0E       		.uleb128 0xe
 2600 0177 1B       		.uleb128 0x1b
 2601 0178 0E       		.uleb128 0xe
 2602 0179 55       		.uleb128 0x55
 2603 017a 17       		.uleb128 0x17
 2604 017b 11       		.uleb128 0x11
 2605 017c 01       		.uleb128 0x1
 2606 017d 10       		.uleb128 0x10
 2607 017e 17       		.uleb128 0x17
 2608 017f 00       		.byte	0
 2609 0180 00       		.byte	0
 2610 0181 16       		.uleb128 0x16
 2611 0182 24       		.uleb128 0x24
 2612 0183 00       		.byte	0
 2613 0184 0B       		.uleb128 0xb
 2614 0185 0B       		.uleb128 0xb
 2615 0186 3E       		.uleb128 0x3e
 2616 0187 0B       		.uleb128 0xb
 2617 0188 03       		.uleb128 0x3
 2618 0189 08       		.uleb128 0x8
 2619 018a 00       		.byte	0
 2620 018b 00       		.byte	0
 2621 018c 17       		.uleb128 0x17
 2622 018d 26       		.uleb128 0x26
ARM GAS  C:\Users\DEVELO~1\AppData\Local\Temp\ccNqWhix.s 			page 47


 2623 018e 00       		.byte	0
 2624 018f 49       		.uleb128 0x49
 2625 0190 13       		.uleb128 0x13
 2626 0191 00       		.byte	0
 2627 0192 00       		.byte	0
 2628 0193 18       		.uleb128 0x18
 2629 0194 2E       		.uleb128 0x2e
 2630 0195 01       		.byte	0x1
 2631 0196 3F       		.uleb128 0x3f
 2632 0197 19       		.uleb128 0x19
 2633 0198 03       		.uleb128 0x3
 2634 0199 0E       		.uleb128 0xe
 2635 019a 3A       		.uleb128 0x3a
 2636 019b 0B       		.uleb128 0xb
 2637 019c 3B       		.uleb128 0x3b
 2638 019d 0B       		.uleb128 0xb
 2639 019e 39       		.uleb128 0x39
 2640 019f 0B       		.uleb128 0xb
 2641 01a0 27       		.uleb128 0x27
 2642 01a1 19       		.uleb128 0x19
 2643 01a2 3C       		.uleb128 0x3c
 2644 01a3 19       		.uleb128 0x19
 2645 01a4 01       		.uleb128 0x1
 2646 01a5 13       		.uleb128 0x13
 2647 01a6 00       		.byte	0
 2648 01a7 00       		.byte	0
 2649 01a8 19       		.uleb128 0x19
 2650 01a9 05       		.uleb128 0x5
 2651 01aa 00       		.byte	0
 2652 01ab 49       		.uleb128 0x49
 2653 01ac 13       		.uleb128 0x13
 2654 01ad 00       		.byte	0
 2655 01ae 00       		.byte	0
 2656 01af 1A       		.uleb128 0x1a
 2657 01b0 34       		.uleb128 0x34
 2658 01b1 00       		.byte	0
 2659 01b2 03       		.uleb128 0x3
 2660 01b3 0E       		.uleb128 0xe
 2661 01b4 3A       		.uleb128 0x3a
 2662 01b5 0B       		.uleb128 0xb
 2663 01b6 3B       		.uleb128 0x3b
 2664 01b7 0B       		.uleb128 0xb
 2665 01b8 39       		.uleb128 0x39
 2666 01b9 0B       		.uleb128 0xb
 2667 01ba 49       		.uleb128 0x49
 2668 01bb 13       		.uleb128 0x13
 2669 01bc 00       		.byte	0
 2670 01bd 00       		.byte	0
 2671 01be 1B       		.uleb128 0x1b
 2672 01bf 2E       		.uleb128 0x2e
 2673 01c0 01       		.byte	0x1
 2674 01c1 3F       		.uleb128 0x3f
 2675 01c2 19       		.uleb128 0x19
 2676 01c3 03       		.uleb128 0x3
 2677 01c4 0E       		.uleb128 0xe
 2678 01c5 3A       		.uleb128 0x3a
 2679 01c6 0B       		.uleb128 0xb
ARM GAS  C:\Users\DEVELO~1\AppData\Local\Temp\ccNqWhix.s 			page 48


 2680 01c7 3B       		.uleb128 0x3b
 2681 01c8 0B       		.uleb128 0xb
 2682 01c9 39       		.uleb128 0x39
 2683 01ca 0B       		.uleb128 0xb
 2684 01cb 27       		.uleb128 0x27
 2685 01cc 19       		.uleb128 0x19
 2686 01cd 8701     		.uleb128 0x87
 2687 01cf 19       		.uleb128 0x19
 2688 01d0 11       		.uleb128 0x11
 2689 01d1 01       		.uleb128 0x1
 2690 01d2 12       		.uleb128 0x12
 2691 01d3 06       		.uleb128 0x6
 2692 01d4 40       		.uleb128 0x40
 2693 01d5 18       		.uleb128 0x18
 2694 01d6 7A       		.uleb128 0x7a
 2695 01d7 19       		.uleb128 0x19
 2696 01d8 01       		.uleb128 0x1
 2697 01d9 13       		.uleb128 0x13
 2698 01da 00       		.byte	0
 2699 01db 00       		.byte	0
 2700 01dc 1C       		.uleb128 0x1c
 2701 01dd 1D       		.uleb128 0x1d
 2702 01de 01       		.byte	0x1
 2703 01df 31       		.uleb128 0x31
 2704 01e0 13       		.uleb128 0x13
 2705 01e1 52       		.uleb128 0x52
 2706 01e2 01       		.uleb128 0x1
 2707 01e3 B842     		.uleb128 0x2138
 2708 01e5 0B       		.uleb128 0xb
 2709 01e6 55       		.uleb128 0x55
 2710 01e7 17       		.uleb128 0x17
 2711 01e8 58       		.uleb128 0x58
 2712 01e9 0B       		.uleb128 0xb
 2713 01ea 59       		.uleb128 0x59
 2714 01eb 0B       		.uleb128 0xb
 2715 01ec 57       		.uleb128 0x57
 2716 01ed 0B       		.uleb128 0xb
 2717 01ee 00       		.byte	0
 2718 01ef 00       		.byte	0
 2719 01f0 1D       		.uleb128 0x1d
 2720 01f1 05       		.uleb128 0x5
 2721 01f2 00       		.byte	0
 2722 01f3 31       		.uleb128 0x31
 2723 01f4 13       		.uleb128 0x13
 2724 01f5 02       		.uleb128 0x2
 2725 01f6 17       		.uleb128 0x17
 2726 01f7 B742     		.uleb128 0x2137
 2727 01f9 17       		.uleb128 0x17
 2728 01fa 00       		.byte	0
 2729 01fb 00       		.byte	0
 2730 01fc 1E       		.uleb128 0x1e
 2731 01fd 48       		.uleb128 0x48
 2732 01fe 01       		.byte	0x1
 2733 01ff 7D       		.uleb128 0x7d
 2734 0200 01       		.uleb128 0x1
 2735 0201 7F       		.uleb128 0x7f
 2736 0202 13       		.uleb128 0x13
ARM GAS  C:\Users\DEVELO~1\AppData\Local\Temp\ccNqWhix.s 			page 49


 2737 0203 00       		.byte	0
 2738 0204 00       		.byte	0
 2739 0205 1F       		.uleb128 0x1f
 2740 0206 49       		.uleb128 0x49
 2741 0207 00       		.byte	0
 2742 0208 02       		.uleb128 0x2
 2743 0209 18       		.uleb128 0x18
 2744 020a 7E       		.uleb128 0x7e
 2745 020b 18       		.uleb128 0x18
 2746 020c 00       		.byte	0
 2747 020d 00       		.byte	0
 2748 020e 20       		.uleb128 0x20
 2749 020f 2E       		.uleb128 0x2e
 2750 0210 01       		.byte	0x1
 2751 0211 03       		.uleb128 0x3
 2752 0212 0E       		.uleb128 0xe
 2753 0213 3A       		.uleb128 0x3a
 2754 0214 0B       		.uleb128 0xb
 2755 0215 3B       		.uleb128 0x3b
 2756 0216 0B       		.uleb128 0xb
 2757 0217 39       		.uleb128 0x39
 2758 0218 0B       		.uleb128 0xb
 2759 0219 27       		.uleb128 0x27
 2760 021a 19       		.uleb128 0x19
 2761 021b 49       		.uleb128 0x49
 2762 021c 13       		.uleb128 0x13
 2763 021d 20       		.uleb128 0x20
 2764 021e 0B       		.uleb128 0xb
 2765 021f 01       		.uleb128 0x1
 2766 0220 13       		.uleb128 0x13
 2767 0221 00       		.byte	0
 2768 0222 00       		.byte	0
 2769 0223 21       		.uleb128 0x21
 2770 0224 05       		.uleb128 0x5
 2771 0225 00       		.byte	0
 2772 0226 03       		.uleb128 0x3
 2773 0227 0E       		.uleb128 0xe
 2774 0228 3A       		.uleb128 0x3a
 2775 0229 0B       		.uleb128 0xb
 2776 022a 3B       		.uleb128 0x3b
 2777 022b 0B       		.uleb128 0xb
 2778 022c 39       		.uleb128 0x39
 2779 022d 0B       		.uleb128 0xb
 2780 022e 49       		.uleb128 0x49
 2781 022f 13       		.uleb128 0x13
 2782 0230 00       		.byte	0
 2783 0231 00       		.byte	0
 2784 0232 22       		.uleb128 0x22
 2785 0233 05       		.uleb128 0x5
 2786 0234 00       		.byte	0
 2787 0235 03       		.uleb128 0x3
 2788 0236 08       		.uleb128 0x8
 2789 0237 3A       		.uleb128 0x3a
 2790 0238 0B       		.uleb128 0xb
 2791 0239 3B       		.uleb128 0x3b
 2792 023a 0B       		.uleb128 0xb
 2793 023b 39       		.uleb128 0x39
ARM GAS  C:\Users\DEVELO~1\AppData\Local\Temp\ccNqWhix.s 			page 50


 2794 023c 0B       		.uleb128 0xb
 2795 023d 49       		.uleb128 0x49
 2796 023e 13       		.uleb128 0x13
 2797 023f 00       		.byte	0
 2798 0240 00       		.byte	0
 2799 0241 23       		.uleb128 0x23
 2800 0242 2E       		.uleb128 0x2e
 2801 0243 01       		.byte	0x1
 2802 0244 03       		.uleb128 0x3
 2803 0245 0E       		.uleb128 0xe
 2804 0246 3A       		.uleb128 0x3a
 2805 0247 0B       		.uleb128 0xb
 2806 0248 3B       		.uleb128 0x3b
 2807 0249 05       		.uleb128 0x5
 2808 024a 39       		.uleb128 0x39
 2809 024b 0B       		.uleb128 0xb
 2810 024c 27       		.uleb128 0x27
 2811 024d 19       		.uleb128 0x19
 2812 024e 20       		.uleb128 0x20
 2813 024f 0B       		.uleb128 0xb
 2814 0250 00       		.byte	0
 2815 0251 00       		.byte	0
 2816 0252 24       		.uleb128 0x24
 2817 0253 05       		.uleb128 0x5
 2818 0254 00       		.byte	0
 2819 0255 03       		.uleb128 0x3
 2820 0256 0E       		.uleb128 0xe
 2821 0257 3A       		.uleb128 0x3a
 2822 0258 0B       		.uleb128 0xb
 2823 0259 3B       		.uleb128 0x3b
 2824 025a 05       		.uleb128 0x5
 2825 025b 39       		.uleb128 0x39
 2826 025c 0B       		.uleb128 0xb
 2827 025d 49       		.uleb128 0x49
 2828 025e 13       		.uleb128 0x13
 2829 025f 00       		.byte	0
 2830 0260 00       		.byte	0
 2831 0261 00       		.byte	0
 2832              		.section	.debug_loclists,"",%progbits
 2833 0000 62050000 		.4byte	.Ldebug_loc3-.Ldebug_loc2
 2834              	.Ldebug_loc2:
 2835 0004 0500     		.2byte	0x5
 2836 0006 04       		.byte	0x4
 2837 0007 00       		.byte	0
 2838 0008 00000000 		.4byte	0
 2839              	.Ldebug_loc0:
 2840              	.LVUS84:
 2841 000c 01       		.uleb128 .LVU292
 2842 000d 00       		.uleb128 .LVU306
 2843 000e 00       		.uleb128 .LVU306
 2844 000f 00       		.uleb128 .LVU308
 2845 0010 00       		.uleb128 .LVU308
 2846 0011 00       		.uleb128 .LVU309
 2847 0012 00       		.uleb128 .LVU309
 2848 0013 00       		.uleb128 0
 2849              	.LLST84:
 2850 0014 06       		.byte	0x6
ARM GAS  C:\Users\DEVELO~1\AppData\Local\Temp\ccNqWhix.s 			page 51


 2851 0015 00000000 		.4byte	.LVL106
 2852 0019 04       		.byte	0x4
 2853 001a 00       		.uleb128 .LVL106-.LVL106
 2854 001b 14       		.uleb128 .LVL111-.LVL106
 2855 001c 01       		.uleb128 0x1
 2856 001d 50       		.byte	0x50
 2857 001e 04       		.byte	0x4
 2858 001f 14       		.uleb128 .LVL111-.LVL106
 2859 0020 1A       		.uleb128 .LVL112-.LVL106
 2860 0021 04       		.uleb128 0x4
 2861 0022 A3       		.byte	0xa3
 2862 0023 01       		.uleb128 0x1
 2863 0024 50       		.byte	0x50
 2864 0025 9F       		.byte	0x9f
 2865 0026 04       		.byte	0x4
 2866 0027 1A       		.uleb128 .LVL112-.LVL106
 2867 0028 1C       		.uleb128 .LVL113-.LVL106
 2868 0029 01       		.uleb128 0x1
 2869 002a 50       		.byte	0x50
 2870 002b 04       		.byte	0x4
 2871 002c 1C       		.uleb128 .LVL113-.LVL106
 2872 002d 22       		.uleb128 .LFE466-.LVL106
 2873 002e 04       		.uleb128 0x4
 2874 002f A3       		.byte	0xa3
 2875 0030 01       		.uleb128 0x1
 2876 0031 50       		.byte	0x50
 2877 0032 9F       		.byte	0x9f
 2878 0033 00       		.byte	0
 2879              	.LVUS85:
 2880 0034 01       		.uleb128 .LVU292
 2881 0035 00       		.uleb128 0
 2882              	.LLST85:
 2883 0036 08       		.byte	0x8
 2884 0037 00000000 		.4byte	.LVL106
 2885 003b 22       		.uleb128 .LFE466-.LVL106
 2886 003c 01       		.uleb128 0x1
 2887 003d 51       		.byte	0x51
 2888 003e 00       		.byte	0
 2889              	.LVUS86:
 2890 003f 01       		.uleb128 .LVU292
 2891 0040 00       		.uleb128 0
 2892              	.LLST86:
 2893 0041 08       		.byte	0x8
 2894 0042 00000000 		.4byte	.LVL106
 2895 0046 22       		.uleb128 .LFE466-.LVL106
 2896 0047 01       		.uleb128 0x1
 2897 0048 52       		.byte	0x52
 2898 0049 00       		.byte	0
 2899              	.LVUS87:
 2900 004a 01       		.uleb128 .LVU292
 2901 004b 00       		.uleb128 0
 2902              	.LLST87:
 2903 004c 08       		.byte	0x8
 2904 004d 00000000 		.4byte	.LVL106
 2905 0051 22       		.uleb128 .LFE466-.LVL106
 2906 0052 01       		.uleb128 0x1
 2907 0053 53       		.byte	0x53
ARM GAS  C:\Users\DEVELO~1\AppData\Local\Temp\ccNqWhix.s 			page 52


 2908 0054 00       		.byte	0
 2909              	.LVUS89:
 2910 0055 00       		.uleb128 .LVU300
 2911 0056 00       		.uleb128 .LVU304
 2912              	.LLST89:
 2913 0057 08       		.byte	0x8
 2914 0058 08000000 		.4byte	.LVL109
 2915 005c 08       		.uleb128 .LVL110-.LVL109
 2916 005d 01       		.uleb128 0x1
 2917 005e 54       		.byte	0x54
 2918 005f 00       		.byte	0
 2919              	.LVUS78:
 2920 0060 01       		.uleb128 .LVU274
 2921 0061 00       		.uleb128 .LVU287
 2922 0062 00       		.uleb128 .LVU287
 2923 0063 00       		.uleb128 .LVU288
 2924 0064 00       		.uleb128 .LVU288
 2925 0065 00       		.uleb128 .LVU289
 2926 0066 00       		.uleb128 .LVU289
 2927 0067 00       		.uleb128 0
 2928              	.LLST78:
 2929 0068 06       		.byte	0x6
 2930 0069 00000000 		.4byte	.LVL100
 2931 006d 04       		.byte	0x4
 2932 006e 00       		.uleb128 .LVL100-.LVL100
 2933 006f 1A       		.uleb128 .LVL103-.LVL100
 2934 0070 01       		.uleb128 0x1
 2935 0071 50       		.byte	0x50
 2936 0072 04       		.byte	0x4
 2937 0073 1A       		.uleb128 .LVL103-.LVL100
 2938 0074 1C       		.uleb128 .LVL104-.LVL100
 2939 0075 04       		.uleb128 0x4
 2940 0076 A3       		.byte	0xa3
 2941 0077 01       		.uleb128 0x1
 2942 0078 50       		.byte	0x50
 2943 0079 9F       		.byte	0x9f
 2944 007a 04       		.byte	0x4
 2945 007b 1C       		.uleb128 .LVL104-.LVL100
 2946 007c 1E       		.uleb128 .LVL105-.LVL100
 2947 007d 01       		.uleb128 0x1
 2948 007e 50       		.byte	0x50
 2949 007f 04       		.byte	0x4
 2950 0080 1E       		.uleb128 .LVL105-.LVL100
 2951 0081 20       		.uleb128 .LFE465-.LVL100
 2952 0082 04       		.uleb128 0x4
 2953 0083 A3       		.byte	0xa3
 2954 0084 01       		.uleb128 0x1
 2955 0085 50       		.byte	0x50
 2956 0086 9F       		.byte	0x9f
 2957 0087 00       		.byte	0
 2958              	.LVUS79:
 2959 0088 01       		.uleb128 .LVU274
 2960 0089 00       		.uleb128 0
 2961              	.LLST79:
 2962 008a 08       		.byte	0x8
 2963 008b 00000000 		.4byte	.LVL100
 2964 008f 20       		.uleb128 .LFE465-.LVL100
ARM GAS  C:\Users\DEVELO~1\AppData\Local\Temp\ccNqWhix.s 			page 53


 2965 0090 01       		.uleb128 0x1
 2966 0091 51       		.byte	0x51
 2967 0092 00       		.byte	0
 2968              	.LVUS80:
 2969 0093 01       		.uleb128 .LVU274
 2970 0094 00       		.uleb128 0
 2971              	.LLST80:
 2972 0095 08       		.byte	0x8
 2973 0096 00000000 		.4byte	.LVL100
 2974 009a 20       		.uleb128 .LFE465-.LVL100
 2975 009b 01       		.uleb128 0x1
 2976 009c 52       		.byte	0x52
 2977 009d 00       		.byte	0
 2978              	.LVUS81:
 2979 009e 01       		.uleb128 .LVU274
 2980 009f 00       		.uleb128 0
 2981              	.LLST81:
 2982 00a0 08       		.byte	0x8
 2983 00a1 00000000 		.4byte	.LVL100
 2984 00a5 20       		.uleb128 .LFE465-.LVL100
 2985 00a6 01       		.uleb128 0x1
 2986 00a7 53       		.byte	0x53
 2987 00a8 00       		.byte	0
 2988              	.LVUS83:
 2989 00a9 00       		.uleb128 .LVU280
 2990 00aa 00       		.uleb128 .LVU284
 2991              	.LLST83:
 2992 00ab 08       		.byte	0x8
 2993 00ac 08000000 		.4byte	.LVL101
 2994 00b0 0A       		.uleb128 .LVL102-.LVL101
 2995 00b1 01       		.uleb128 0x1
 2996 00b2 5C       		.byte	0x5c
 2997 00b3 00       		.byte	0
 2998              	.LVUS72:
 2999 00b4 01       		.uleb128 .LVU256
 3000 00b5 00       		.uleb128 .LVU269
 3001 00b6 00       		.uleb128 .LVU269
 3002 00b7 00       		.uleb128 .LVU270
 3003 00b8 00       		.uleb128 .LVU270
 3004 00b9 00       		.uleb128 .LVU271
 3005 00ba 00       		.uleb128 .LVU271
 3006 00bb 00       		.uleb128 0
 3007              	.LLST72:
 3008 00bc 06       		.byte	0x6
 3009 00bd 00000000 		.4byte	.LVL94
 3010 00c1 04       		.byte	0x4
 3011 00c2 00       		.uleb128 .LVL94-.LVL94
 3012 00c3 1A       		.uleb128 .LVL97-.LVL94
 3013 00c4 01       		.uleb128 0x1
 3014 00c5 50       		.byte	0x50
 3015 00c6 04       		.byte	0x4
 3016 00c7 1A       		.uleb128 .LVL97-.LVL94
 3017 00c8 1C       		.uleb128 .LVL98-.LVL94
 3018 00c9 04       		.uleb128 0x4
 3019 00ca A3       		.byte	0xa3
 3020 00cb 01       		.uleb128 0x1
 3021 00cc 50       		.byte	0x50
ARM GAS  C:\Users\DEVELO~1\AppData\Local\Temp\ccNqWhix.s 			page 54


 3022 00cd 9F       		.byte	0x9f
 3023 00ce 04       		.byte	0x4
 3024 00cf 1C       		.uleb128 .LVL98-.LVL94
 3025 00d0 1E       		.uleb128 .LVL99-.LVL94
 3026 00d1 01       		.uleb128 0x1
 3027 00d2 50       		.byte	0x50
 3028 00d3 04       		.byte	0x4
 3029 00d4 1E       		.uleb128 .LVL99-.LVL94
 3030 00d5 20       		.uleb128 .LFE464-.LVL94
 3031 00d6 04       		.uleb128 0x4
 3032 00d7 A3       		.byte	0xa3
 3033 00d8 01       		.uleb128 0x1
 3034 00d9 50       		.byte	0x50
 3035 00da 9F       		.byte	0x9f
 3036 00db 00       		.byte	0
 3037              	.LVUS73:
 3038 00dc 01       		.uleb128 .LVU256
 3039 00dd 00       		.uleb128 0
 3040              	.LLST73:
 3041 00de 08       		.byte	0x8
 3042 00df 00000000 		.4byte	.LVL94
 3043 00e3 20       		.uleb128 .LFE464-.LVL94
 3044 00e4 01       		.uleb128 0x1
 3045 00e5 51       		.byte	0x51
 3046 00e6 00       		.byte	0
 3047              	.LVUS74:
 3048 00e7 01       		.uleb128 .LVU256
 3049 00e8 00       		.uleb128 0
 3050              	.LLST74:
 3051 00e9 08       		.byte	0x8
 3052 00ea 00000000 		.4byte	.LVL94
 3053 00ee 20       		.uleb128 .LFE464-.LVL94
 3054 00ef 01       		.uleb128 0x1
 3055 00f0 52       		.byte	0x52
 3056 00f1 00       		.byte	0
 3057              	.LVUS75:
 3058 00f2 01       		.uleb128 .LVU256
 3059 00f3 00       		.uleb128 0
 3060              	.LLST75:
 3061 00f4 08       		.byte	0x8
 3062 00f5 00000000 		.4byte	.LVL94
 3063 00f9 20       		.uleb128 .LFE464-.LVL94
 3064 00fa 01       		.uleb128 0x1
 3065 00fb 53       		.byte	0x53
 3066 00fc 00       		.byte	0
 3067              	.LVUS77:
 3068 00fd 00       		.uleb128 .LVU262
 3069 00fe 00       		.uleb128 .LVU266
 3070              	.LLST77:
 3071 00ff 08       		.byte	0x8
 3072 0100 08000000 		.4byte	.LVL95
 3073 0104 0A       		.uleb128 .LVL96-.LVL95
 3074 0105 01       		.uleb128 0x1
 3075 0106 5C       		.byte	0x5c
 3076 0107 00       		.byte	0
 3077              	.LVUS66:
 3078 0108 01       		.uleb128 .LVU237
ARM GAS  C:\Users\DEVELO~1\AppData\Local\Temp\ccNqWhix.s 			page 55


 3079 0109 00       		.uleb128 .LVU251
 3080 010a 00       		.uleb128 .LVU251
 3081 010b 00       		.uleb128 .LVU253
 3082 010c 00       		.uleb128 .LVU253
 3083 010d 00       		.uleb128 .LVU254
 3084 010e 00       		.uleb128 .LVU254
 3085 010f 00       		.uleb128 0
 3086              	.LLST66:
 3087 0110 06       		.byte	0x6
 3088 0111 00000000 		.4byte	.LVL86
 3089 0115 04       		.byte	0x4
 3090 0116 00       		.uleb128 .LVL86-.LVL86
 3091 0117 12       		.uleb128 .LVL91-.LVL86
 3092 0118 01       		.uleb128 0x1
 3093 0119 50       		.byte	0x50
 3094 011a 04       		.byte	0x4
 3095 011b 12       		.uleb128 .LVL91-.LVL86
 3096 011c 18       		.uleb128 .LVL92-.LVL86
 3097 011d 04       		.uleb128 0x4
 3098 011e A3       		.byte	0xa3
 3099 011f 01       		.uleb128 0x1
 3100 0120 50       		.byte	0x50
 3101 0121 9F       		.byte	0x9f
 3102 0122 04       		.byte	0x4
 3103 0123 18       		.uleb128 .LVL92-.LVL86
 3104 0124 1A       		.uleb128 .LVL93-.LVL86
 3105 0125 01       		.uleb128 0x1
 3106 0126 50       		.byte	0x50
 3107 0127 04       		.byte	0x4
 3108 0128 1A       		.uleb128 .LVL93-.LVL86
 3109 0129 20       		.uleb128 .LFE463-.LVL86
 3110 012a 04       		.uleb128 0x4
 3111 012b A3       		.byte	0xa3
 3112 012c 01       		.uleb128 0x1
 3113 012d 50       		.byte	0x50
 3114 012e 9F       		.byte	0x9f
 3115 012f 00       		.byte	0
 3116              	.LVUS67:
 3117 0130 01       		.uleb128 .LVU237
 3118 0131 00       		.uleb128 0
 3119              	.LLST67:
 3120 0132 08       		.byte	0x8
 3121 0133 00000000 		.4byte	.LVL86
 3122 0137 20       		.uleb128 .LFE463-.LVL86
 3123 0138 01       		.uleb128 0x1
 3124 0139 51       		.byte	0x51
 3125 013a 00       		.byte	0
 3126              	.LVUS68:
 3127 013b 01       		.uleb128 .LVU237
 3128 013c 00       		.uleb128 0
 3129              	.LLST68:
 3130 013d 08       		.byte	0x8
 3131 013e 00000000 		.4byte	.LVL86
 3132 0142 20       		.uleb128 .LFE463-.LVL86
 3133 0143 01       		.uleb128 0x1
 3134 0144 52       		.byte	0x52
 3135 0145 00       		.byte	0
ARM GAS  C:\Users\DEVELO~1\AppData\Local\Temp\ccNqWhix.s 			page 56


 3136              	.LVUS69:
 3137 0146 01       		.uleb128 .LVU237
 3138 0147 00       		.uleb128 0
 3139              	.LLST69:
 3140 0148 08       		.byte	0x8
 3141 0149 00000000 		.4byte	.LVL86
 3142 014d 20       		.uleb128 .LFE463-.LVL86
 3143 014e 01       		.uleb128 0x1
 3144 014f 53       		.byte	0x53
 3145 0150 00       		.byte	0
 3146              	.LVUS71:
 3147 0151 00       		.uleb128 .LVU245
 3148 0152 00       		.uleb128 .LVU249
 3149              	.LLST71:
 3150 0153 08       		.byte	0x8
 3151 0154 08000000 		.4byte	.LVL89
 3152 0158 06       		.uleb128 .LVL90-.LVL89
 3153 0159 01       		.uleb128 0x1
 3154 015a 54       		.byte	0x54
 3155 015b 00       		.byte	0
 3156              	.LVUS60:
 3157 015c 01       		.uleb128 .LVU219
 3158 015d 00       		.uleb128 .LVU232
 3159 015e 00       		.uleb128 .LVU232
 3160 015f 00       		.uleb128 .LVU233
 3161 0160 00       		.uleb128 .LVU233
 3162 0161 00       		.uleb128 .LVU234
 3163 0162 00       		.uleb128 .LVU234
 3164 0163 00       		.uleb128 0
 3165              	.LLST60:
 3166 0164 06       		.byte	0x6
 3167 0165 00000000 		.4byte	.LVL80
 3168 0169 04       		.byte	0x4
 3169 016a 00       		.uleb128 .LVL80-.LVL80
 3170 016b 1A       		.uleb128 .LVL83-.LVL80
 3171 016c 01       		.uleb128 0x1
 3172 016d 50       		.byte	0x50
 3173 016e 04       		.byte	0x4
 3174 016f 1A       		.uleb128 .LVL83-.LVL80
 3175 0170 1C       		.uleb128 .LVL84-.LVL80
 3176 0171 04       		.uleb128 0x4
 3177 0172 A3       		.byte	0xa3
 3178 0173 01       		.uleb128 0x1
 3179 0174 50       		.byte	0x50
 3180 0175 9F       		.byte	0x9f
 3181 0176 04       		.byte	0x4
 3182 0177 1C       		.uleb128 .LVL84-.LVL80
 3183 0178 1E       		.uleb128 .LVL85-.LVL80
 3184 0179 01       		.uleb128 0x1
 3185 017a 50       		.byte	0x50
 3186 017b 04       		.byte	0x4
 3187 017c 1E       		.uleb128 .LVL85-.LVL80
 3188 017d 20       		.uleb128 .LFE462-.LVL80
 3189 017e 04       		.uleb128 0x4
 3190 017f A3       		.byte	0xa3
 3191 0180 01       		.uleb128 0x1
 3192 0181 50       		.byte	0x50
ARM GAS  C:\Users\DEVELO~1\AppData\Local\Temp\ccNqWhix.s 			page 57


 3193 0182 9F       		.byte	0x9f
 3194 0183 00       		.byte	0
 3195              	.LVUS61:
 3196 0184 01       		.uleb128 .LVU219
 3197 0185 00       		.uleb128 0
 3198              	.LLST61:
 3199 0186 08       		.byte	0x8
 3200 0187 00000000 		.4byte	.LVL80
 3201 018b 20       		.uleb128 .LFE462-.LVL80
 3202 018c 01       		.uleb128 0x1
 3203 018d 51       		.byte	0x51
 3204 018e 00       		.byte	0
 3205              	.LVUS62:
 3206 018f 01       		.uleb128 .LVU219
 3207 0190 00       		.uleb128 0
 3208              	.LLST62:
 3209 0191 08       		.byte	0x8
 3210 0192 00000000 		.4byte	.LVL80
 3211 0196 20       		.uleb128 .LFE462-.LVL80
 3212 0197 01       		.uleb128 0x1
 3213 0198 52       		.byte	0x52
 3214 0199 00       		.byte	0
 3215              	.LVUS63:
 3216 019a 01       		.uleb128 .LVU219
 3217 019b 00       		.uleb128 0
 3218              	.LLST63:
 3219 019c 08       		.byte	0x8
 3220 019d 00000000 		.4byte	.LVL80
 3221 01a1 20       		.uleb128 .LFE462-.LVL80
 3222 01a2 01       		.uleb128 0x1
 3223 01a3 53       		.byte	0x53
 3224 01a4 00       		.byte	0
 3225              	.LVUS65:
 3226 01a5 00       		.uleb128 .LVU225
 3227 01a6 00       		.uleb128 .LVU229
 3228              	.LLST65:
 3229 01a7 08       		.byte	0x8
 3230 01a8 08000000 		.4byte	.LVL81
 3231 01ac 0A       		.uleb128 .LVL82-.LVL81
 3232 01ad 01       		.uleb128 0x1
 3233 01ae 5C       		.byte	0x5c
 3234 01af 00       		.byte	0
 3235              	.LVUS54:
 3236 01b0 01       		.uleb128 .LVU201
 3237 01b1 00       		.uleb128 .LVU214
 3238 01b2 00       		.uleb128 .LVU214
 3239 01b3 00       		.uleb128 .LVU215
 3240 01b4 00       		.uleb128 .LVU215
 3241 01b5 00       		.uleb128 .LVU216
 3242 01b6 00       		.uleb128 .LVU216
 3243 01b7 00       		.uleb128 0
 3244              	.LLST54:
 3245 01b8 06       		.byte	0x6
 3246 01b9 00000000 		.4byte	.LVL74
 3247 01bd 04       		.byte	0x4
 3248 01be 00       		.uleb128 .LVL74-.LVL74
 3249 01bf 1A       		.uleb128 .LVL77-.LVL74
ARM GAS  C:\Users\DEVELO~1\AppData\Local\Temp\ccNqWhix.s 			page 58


 3250 01c0 01       		.uleb128 0x1
 3251 01c1 50       		.byte	0x50
 3252 01c2 04       		.byte	0x4
 3253 01c3 1A       		.uleb128 .LVL77-.LVL74
 3254 01c4 1C       		.uleb128 .LVL78-.LVL74
 3255 01c5 04       		.uleb128 0x4
 3256 01c6 A3       		.byte	0xa3
 3257 01c7 01       		.uleb128 0x1
 3258 01c8 50       		.byte	0x50
 3259 01c9 9F       		.byte	0x9f
 3260 01ca 04       		.byte	0x4
 3261 01cb 1C       		.uleb128 .LVL78-.LVL74
 3262 01cc 1E       		.uleb128 .LVL79-.LVL74
 3263 01cd 01       		.uleb128 0x1
 3264 01ce 50       		.byte	0x50
 3265 01cf 04       		.byte	0x4
 3266 01d0 1E       		.uleb128 .LVL79-.LVL74
 3267 01d1 20       		.uleb128 .LFE461-.LVL74
 3268 01d2 04       		.uleb128 0x4
 3269 01d3 A3       		.byte	0xa3
 3270 01d4 01       		.uleb128 0x1
 3271 01d5 50       		.byte	0x50
 3272 01d6 9F       		.byte	0x9f
 3273 01d7 00       		.byte	0
 3274              	.LVUS55:
 3275 01d8 01       		.uleb128 .LVU201
 3276 01d9 00       		.uleb128 0
 3277              	.LLST55:
 3278 01da 08       		.byte	0x8
 3279 01db 00000000 		.4byte	.LVL74
 3280 01df 20       		.uleb128 .LFE461-.LVL74
 3281 01e0 01       		.uleb128 0x1
 3282 01e1 51       		.byte	0x51
 3283 01e2 00       		.byte	0
 3284              	.LVUS56:
 3285 01e3 01       		.uleb128 .LVU201
 3286 01e4 00       		.uleb128 0
 3287              	.LLST56:
 3288 01e5 08       		.byte	0x8
 3289 01e6 00000000 		.4byte	.LVL74
 3290 01ea 20       		.uleb128 .LFE461-.LVL74
 3291 01eb 01       		.uleb128 0x1
 3292 01ec 52       		.byte	0x52
 3293 01ed 00       		.byte	0
 3294              	.LVUS57:
 3295 01ee 01       		.uleb128 .LVU201
 3296 01ef 00       		.uleb128 0
 3297              	.LLST57:
 3298 01f0 08       		.byte	0x8
 3299 01f1 00000000 		.4byte	.LVL74
 3300 01f5 20       		.uleb128 .LFE461-.LVL74
 3301 01f6 01       		.uleb128 0x1
 3302 01f7 53       		.byte	0x53
 3303 01f8 00       		.byte	0
 3304              	.LVUS59:
 3305 01f9 00       		.uleb128 .LVU207
 3306 01fa 00       		.uleb128 .LVU211
ARM GAS  C:\Users\DEVELO~1\AppData\Local\Temp\ccNqWhix.s 			page 59


 3307              	.LLST59:
 3308 01fb 08       		.byte	0x8
 3309 01fc 08000000 		.4byte	.LVL75
 3310 0200 0A       		.uleb128 .LVL76-.LVL75
 3311 0201 01       		.uleb128 0x1
 3312 0202 5C       		.byte	0x5c
 3313 0203 00       		.byte	0
 3314              	.LVUS48:
 3315 0204 01       		.uleb128 .LVU181
 3316 0205 00       		.uleb128 .LVU194
 3317 0206 00       		.uleb128 .LVU194
 3318 0207 00       		.uleb128 .LVU197
 3319 0208 00       		.uleb128 .LVU197
 3320 0209 00       		.uleb128 .LVU198
 3321 020a 00       		.uleb128 .LVU198
 3322 020b 00       		.uleb128 0
 3323              	.LLST48:
 3324 020c 06       		.byte	0x6
 3325 020d 00000000 		.4byte	.LVL65
 3326 0211 04       		.byte	0x4
 3327 0212 00       		.uleb128 .LVL65-.LVL65
 3328 0213 12       		.uleb128 .LVL69-.LVL65
 3329 0214 01       		.uleb128 0x1
 3330 0215 50       		.byte	0x50
 3331 0216 04       		.byte	0x4
 3332 0217 12       		.uleb128 .LVL69-.LVL65
 3333 0218 18       		.uleb128 .LVL71-.LVL65
 3334 0219 04       		.uleb128 0x4
 3335 021a A3       		.byte	0xa3
 3336 021b 01       		.uleb128 0x1
 3337 021c 50       		.byte	0x50
 3338 021d 9F       		.byte	0x9f
 3339 021e 04       		.byte	0x4
 3340 021f 18       		.uleb128 .LVL71-.LVL65
 3341 0220 1A       		.uleb128 .LVL72-.LVL65
 3342 0221 01       		.uleb128 0x1
 3343 0222 50       		.byte	0x50
 3344 0223 04       		.byte	0x4
 3345 0224 1A       		.uleb128 .LVL72-.LVL65
 3346 0225 20       		.uleb128 .LFE460-.LVL65
 3347 0226 04       		.uleb128 0x4
 3348 0227 A3       		.byte	0xa3
 3349 0228 01       		.uleb128 0x1
 3350 0229 50       		.byte	0x50
 3351 022a 9F       		.byte	0x9f
 3352 022b 00       		.byte	0
 3353              	.LVUS49:
 3354 022c 01       		.uleb128 .LVU181
 3355 022d 00       		.uleb128 0
 3356              	.LLST49:
 3357 022e 08       		.byte	0x8
 3358 022f 00000000 		.4byte	.LVL65
 3359 0233 20       		.uleb128 .LFE460-.LVL65
 3360 0234 01       		.uleb128 0x1
 3361 0235 51       		.byte	0x51
 3362 0236 00       		.byte	0
 3363              	.LVUS50:
ARM GAS  C:\Users\DEVELO~1\AppData\Local\Temp\ccNqWhix.s 			page 60


 3364 0237 01       		.uleb128 .LVU181
 3365 0238 00       		.uleb128 0
 3366              	.LLST50:
 3367 0239 08       		.byte	0x8
 3368 023a 00000000 		.4byte	.LVL65
 3369 023e 20       		.uleb128 .LFE460-.LVL65
 3370 023f 01       		.uleb128 0x1
 3371 0240 52       		.byte	0x52
 3372 0241 00       		.byte	0
 3373              	.LVUS51:
 3374 0242 01       		.uleb128 .LVU181
 3375 0243 00       		.uleb128 0
 3376              	.LLST51:
 3377 0244 08       		.byte	0x8
 3378 0245 00000000 		.4byte	.LVL65
 3379 0249 20       		.uleb128 .LFE460-.LVL65
 3380 024a 01       		.uleb128 0x1
 3381 024b 53       		.byte	0x53
 3382 024c 00       		.byte	0
 3383              	.LVUS53:
 3384 024d 00       		.uleb128 .LVU182
 3385 024e 00       		.uleb128 .LVU183
 3386 024f 00       		.uleb128 .LVU189
 3387 0250 00       		.uleb128 .LVU196
 3388 0251 00       		.uleb128 .LVU197
 3389 0252 00       		.uleb128 .LVU199
 3390              	.LLST53:
 3391 0253 06       		.byte	0x6
 3392 0254 04000000 		.4byte	.LVL66
 3393 0258 04       		.byte	0x4
 3394 0259 00       		.uleb128 .LVL66-.LVL66
 3395 025a 02       		.uleb128 .LVL67-.LVL66
 3396 025b 01       		.uleb128 0x1
 3397 025c 54       		.byte	0x54
 3398 025d 04       		.byte	0x4
 3399 025e 04       		.uleb128 .LVL68-.LVL66
 3400 025f 12       		.uleb128 .LVL70-.LVL66
 3401 0260 01       		.uleb128 0x1
 3402 0261 54       		.byte	0x54
 3403 0262 04       		.byte	0x4
 3404 0263 14       		.uleb128 .LVL71-.LVL66
 3405 0264 1A       		.uleb128 .LVL73-.LVL66
 3406 0265 01       		.uleb128 0x1
 3407 0266 54       		.byte	0x54
 3408 0267 00       		.byte	0
 3409              	.LVUS42:
 3410 0268 01       		.uleb128 .LVU164
 3411 0269 00       		.uleb128 .LVU176
 3412 026a 00       		.uleb128 .LVU176
 3413 026b 00       		.uleb128 .LVU177
 3414 026c 00       		.uleb128 .LVU177
 3415 026d 00       		.uleb128 .LVU178
 3416 026e 00       		.uleb128 .LVU178
 3417 026f 00       		.uleb128 0
 3418              	.LLST42:
 3419 0270 06       		.byte	0x6
 3420 0271 00000000 		.4byte	.LVL60
ARM GAS  C:\Users\DEVELO~1\AppData\Local\Temp\ccNqWhix.s 			page 61


 3421 0275 04       		.byte	0x4
 3422 0276 00       		.uleb128 .LVL60-.LVL60
 3423 0277 1A       		.uleb128 .LVL62-.LVL60
 3424 0278 01       		.uleb128 0x1
 3425 0279 50       		.byte	0x50
 3426 027a 04       		.byte	0x4
 3427 027b 1A       		.uleb128 .LVL62-.LVL60
 3428 027c 1C       		.uleb128 .LVL63-.LVL60
 3429 027d 04       		.uleb128 0x4
 3430 027e A3       		.byte	0xa3
 3431 027f 01       		.uleb128 0x1
 3432 0280 50       		.byte	0x50
 3433 0281 9F       		.byte	0x9f
 3434 0282 04       		.byte	0x4
 3435 0283 1C       		.uleb128 .LVL63-.LVL60
 3436 0284 1E       		.uleb128 .LVL64-.LVL60
 3437 0285 01       		.uleb128 0x1
 3438 0286 50       		.byte	0x50
 3439 0287 04       		.byte	0x4
 3440 0288 1E       		.uleb128 .LVL64-.LVL60
 3441 0289 20       		.uleb128 .LFE459-.LVL60
 3442 028a 04       		.uleb128 0x4
 3443 028b A3       		.byte	0xa3
 3444 028c 01       		.uleb128 0x1
 3445 028d 50       		.byte	0x50
 3446 028e 9F       		.byte	0x9f
 3447 028f 00       		.byte	0
 3448              	.LVUS43:
 3449 0290 01       		.uleb128 .LVU164
 3450 0291 00       		.uleb128 0
 3451              	.LLST43:
 3452 0292 08       		.byte	0x8
 3453 0293 00000000 		.4byte	.LVL60
 3454 0297 20       		.uleb128 .LFE459-.LVL60
 3455 0298 01       		.uleb128 0x1
 3456 0299 51       		.byte	0x51
 3457 029a 00       		.byte	0
 3458              	.LVUS44:
 3459 029b 01       		.uleb128 .LVU164
 3460 029c 00       		.uleb128 0
 3461              	.LLST44:
 3462 029d 08       		.byte	0x8
 3463 029e 00000000 		.4byte	.LVL60
 3464 02a2 20       		.uleb128 .LFE459-.LVL60
 3465 02a3 01       		.uleb128 0x1
 3466 02a4 52       		.byte	0x52
 3467 02a5 00       		.byte	0
 3468              	.LVUS45:
 3469 02a6 01       		.uleb128 .LVU164
 3470 02a7 00       		.uleb128 0
 3471              	.LLST45:
 3472 02a8 08       		.byte	0x8
 3473 02a9 00000000 		.4byte	.LVL60
 3474 02ad 20       		.uleb128 .LFE459-.LVL60
 3475 02ae 01       		.uleb128 0x1
 3476 02af 53       		.byte	0x53
 3477 02b0 00       		.byte	0
ARM GAS  C:\Users\DEVELO~1\AppData\Local\Temp\ccNqWhix.s 			page 62


 3478              	.LVUS47:
 3479 02b1 00       		.uleb128 .LVU170
 3480 02b2 00       		.uleb128 0
 3481              	.LLST47:
 3482 02b3 08       		.byte	0x8
 3483 02b4 08000000 		.4byte	.LVL61
 3484 02b8 18       		.uleb128 .LFE459-.LVL61
 3485 02b9 01       		.uleb128 0x1
 3486 02ba 5C       		.byte	0x5c
 3487 02bb 00       		.byte	0
 3488              	.LVUS36:
 3489 02bc 01       		.uleb128 .LVU147
 3490 02bd 00       		.uleb128 .LVU159
 3491 02be 00       		.uleb128 .LVU159
 3492 02bf 00       		.uleb128 .LVU160
 3493 02c0 00       		.uleb128 .LVU160
 3494 02c1 00       		.uleb128 .LVU161
 3495 02c2 00       		.uleb128 .LVU161
 3496 02c3 00       		.uleb128 0
 3497              	.LLST36:
 3498 02c4 06       		.byte	0x6
 3499 02c5 00000000 		.4byte	.LVL55
 3500 02c9 04       		.byte	0x4
 3501 02ca 00       		.uleb128 .LVL55-.LVL55
 3502 02cb 1A       		.uleb128 .LVL57-.LVL55
 3503 02cc 01       		.uleb128 0x1
 3504 02cd 50       		.byte	0x50
 3505 02ce 04       		.byte	0x4
 3506 02cf 1A       		.uleb128 .LVL57-.LVL55
 3507 02d0 1C       		.uleb128 .LVL58-.LVL55
 3508 02d1 04       		.uleb128 0x4
 3509 02d2 A3       		.byte	0xa3
 3510 02d3 01       		.uleb128 0x1
 3511 02d4 50       		.byte	0x50
 3512 02d5 9F       		.byte	0x9f
 3513 02d6 04       		.byte	0x4
 3514 02d7 1C       		.uleb128 .LVL58-.LVL55
 3515 02d8 1E       		.uleb128 .LVL59-.LVL55
 3516 02d9 01       		.uleb128 0x1
 3517 02da 50       		.byte	0x50
 3518 02db 04       		.byte	0x4
 3519 02dc 1E       		.uleb128 .LVL59-.LVL55
 3520 02dd 20       		.uleb128 .LFE458-.LVL55
 3521 02de 04       		.uleb128 0x4
 3522 02df A3       		.byte	0xa3
 3523 02e0 01       		.uleb128 0x1
 3524 02e1 50       		.byte	0x50
 3525 02e2 9F       		.byte	0x9f
 3526 02e3 00       		.byte	0
 3527              	.LVUS37:
 3528 02e4 01       		.uleb128 .LVU147
 3529 02e5 00       		.uleb128 0
 3530              	.LLST37:
 3531 02e6 08       		.byte	0x8
 3532 02e7 00000000 		.4byte	.LVL55
 3533 02eb 20       		.uleb128 .LFE458-.LVL55
 3534 02ec 01       		.uleb128 0x1
ARM GAS  C:\Users\DEVELO~1\AppData\Local\Temp\ccNqWhix.s 			page 63


 3535 02ed 51       		.byte	0x51
 3536 02ee 00       		.byte	0
 3537              	.LVUS38:
 3538 02ef 01       		.uleb128 .LVU147
 3539 02f0 00       		.uleb128 0
 3540              	.LLST38:
 3541 02f1 08       		.byte	0x8
 3542 02f2 00000000 		.4byte	.LVL55
 3543 02f6 20       		.uleb128 .LFE458-.LVL55
 3544 02f7 01       		.uleb128 0x1
 3545 02f8 52       		.byte	0x52
 3546 02f9 00       		.byte	0
 3547              	.LVUS39:
 3548 02fa 01       		.uleb128 .LVU147
 3549 02fb 00       		.uleb128 0
 3550              	.LLST39:
 3551 02fc 08       		.byte	0x8
 3552 02fd 00000000 		.4byte	.LVL55
 3553 0301 20       		.uleb128 .LFE458-.LVL55
 3554 0302 01       		.uleb128 0x1
 3555 0303 53       		.byte	0x53
 3556 0304 00       		.byte	0
 3557              	.LVUS41:
 3558 0305 00       		.uleb128 .LVU153
 3559 0306 00       		.uleb128 0
 3560              	.LLST41:
 3561 0307 08       		.byte	0x8
 3562 0308 08000000 		.4byte	.LVL56
 3563 030c 18       		.uleb128 .LFE458-.LVL56
 3564 030d 01       		.uleb128 0x1
 3565 030e 5C       		.byte	0x5c
 3566 030f 00       		.byte	0
 3567              	.LVUS30:
 3568 0310 01       		.uleb128 .LVU128
 3569 0311 00       		.uleb128 .LVU142
 3570 0312 00       		.uleb128 .LVU142
 3571 0313 00       		.uleb128 .LVU144
 3572 0314 00       		.uleb128 .LVU144
 3573 0315 00       		.uleb128 .LVU145
 3574 0316 00       		.uleb128 .LVU145
 3575 0317 00       		.uleb128 0
 3576              	.LLST30:
 3577 0318 06       		.byte	0x6
 3578 0319 00000000 		.4byte	.LVL47
 3579 031d 04       		.byte	0x4
 3580 031e 00       		.uleb128 .LVL47-.LVL47
 3581 031f 14       		.uleb128 .LVL52-.LVL47
 3582 0320 01       		.uleb128 0x1
 3583 0321 50       		.byte	0x50
 3584 0322 04       		.byte	0x4
 3585 0323 14       		.uleb128 .LVL52-.LVL47
 3586 0324 1A       		.uleb128 .LVL53-.LVL47
 3587 0325 04       		.uleb128 0x4
 3588 0326 A3       		.byte	0xa3
 3589 0327 01       		.uleb128 0x1
 3590 0328 50       		.byte	0x50
 3591 0329 9F       		.byte	0x9f
ARM GAS  C:\Users\DEVELO~1\AppData\Local\Temp\ccNqWhix.s 			page 64


 3592 032a 04       		.byte	0x4
 3593 032b 1A       		.uleb128 .LVL53-.LVL47
 3594 032c 1C       		.uleb128 .LVL54-.LVL47
 3595 032d 01       		.uleb128 0x1
 3596 032e 50       		.byte	0x50
 3597 032f 04       		.byte	0x4
 3598 0330 1C       		.uleb128 .LVL54-.LVL47
 3599 0331 22       		.uleb128 .LFE457-.LVL47
 3600 0332 04       		.uleb128 0x4
 3601 0333 A3       		.byte	0xa3
 3602 0334 01       		.uleb128 0x1
 3603 0335 50       		.byte	0x50
 3604 0336 9F       		.byte	0x9f
 3605 0337 00       		.byte	0
 3606              	.LVUS31:
 3607 0338 01       		.uleb128 .LVU128
 3608 0339 00       		.uleb128 0
 3609              	.LLST31:
 3610 033a 08       		.byte	0x8
 3611 033b 00000000 		.4byte	.LVL47
 3612 033f 22       		.uleb128 .LFE457-.LVL47
 3613 0340 01       		.uleb128 0x1
 3614 0341 51       		.byte	0x51
 3615 0342 00       		.byte	0
 3616              	.LVUS32:
 3617 0343 01       		.uleb128 .LVU128
 3618 0344 00       		.uleb128 0
 3619              	.LLST32:
 3620 0345 08       		.byte	0x8
 3621 0346 00000000 		.4byte	.LVL47
 3622 034a 22       		.uleb128 .LFE457-.LVL47
 3623 034b 01       		.uleb128 0x1
 3624 034c 52       		.byte	0x52
 3625 034d 00       		.byte	0
 3626              	.LVUS33:
 3627 034e 01       		.uleb128 .LVU128
 3628 034f 00       		.uleb128 0
 3629              	.LLST33:
 3630 0350 08       		.byte	0x8
 3631 0351 00000000 		.4byte	.LVL47
 3632 0355 22       		.uleb128 .LFE457-.LVL47
 3633 0356 01       		.uleb128 0x1
 3634 0357 53       		.byte	0x53
 3635 0358 00       		.byte	0
 3636              	.LVUS35:
 3637 0359 00       		.uleb128 .LVU136
 3638 035a 00       		.uleb128 .LVU140
 3639              	.LLST35:
 3640 035b 08       		.byte	0x8
 3641 035c 08000000 		.4byte	.LVL50
 3642 0360 08       		.uleb128 .LVL51-.LVL50
 3643 0361 01       		.uleb128 0x1
 3644 0362 54       		.byte	0x54
 3645 0363 00       		.byte	0
 3646              	.LVUS24:
 3647 0364 01       		.uleb128 .LVU110
 3648 0365 00       		.uleb128 .LVU123
ARM GAS  C:\Users\DEVELO~1\AppData\Local\Temp\ccNqWhix.s 			page 65


 3649 0366 00       		.uleb128 .LVU123
 3650 0367 00       		.uleb128 .LVU124
 3651 0368 00       		.uleb128 .LVU124
 3652 0369 00       		.uleb128 .LVU125
 3653 036a 00       		.uleb128 .LVU125
 3654 036b 00       		.uleb128 0
 3655              	.LLST24:
 3656 036c 06       		.byte	0x6
 3657 036d 00000000 		.4byte	.LVL41
 3658 0371 04       		.byte	0x4
 3659 0372 00       		.uleb128 .LVL41-.LVL41
 3660 0373 1A       		.uleb128 .LVL44-.LVL41
 3661 0374 01       		.uleb128 0x1
 3662 0375 50       		.byte	0x50
 3663 0376 04       		.byte	0x4
 3664 0377 1A       		.uleb128 .LVL44-.LVL41
 3665 0378 1C       		.uleb128 .LVL45-.LVL41
 3666 0379 04       		.uleb128 0x4
 3667 037a A3       		.byte	0xa3
 3668 037b 01       		.uleb128 0x1
 3669 037c 50       		.byte	0x50
 3670 037d 9F       		.byte	0x9f
 3671 037e 04       		.byte	0x4
 3672 037f 1C       		.uleb128 .LVL45-.LVL41
 3673 0380 1E       		.uleb128 .LVL46-.LVL41
 3674 0381 01       		.uleb128 0x1
 3675 0382 50       		.byte	0x50
 3676 0383 04       		.byte	0x4
 3677 0384 1E       		.uleb128 .LVL46-.LVL41
 3678 0385 20       		.uleb128 .LFE456-.LVL41
 3679 0386 04       		.uleb128 0x4
 3680 0387 A3       		.byte	0xa3
 3681 0388 01       		.uleb128 0x1
 3682 0389 50       		.byte	0x50
 3683 038a 9F       		.byte	0x9f
 3684 038b 00       		.byte	0
 3685              	.LVUS25:
 3686 038c 01       		.uleb128 .LVU110
 3687 038d 00       		.uleb128 0
 3688              	.LLST25:
 3689 038e 08       		.byte	0x8
 3690 038f 00000000 		.4byte	.LVL41
 3691 0393 20       		.uleb128 .LFE456-.LVL41
 3692 0394 01       		.uleb128 0x1
 3693 0395 51       		.byte	0x51
 3694 0396 00       		.byte	0
 3695              	.LVUS26:
 3696 0397 01       		.uleb128 .LVU110
 3697 0398 00       		.uleb128 0
 3698              	.LLST26:
 3699 0399 08       		.byte	0x8
 3700 039a 00000000 		.4byte	.LVL41
 3701 039e 20       		.uleb128 .LFE456-.LVL41
 3702 039f 01       		.uleb128 0x1
 3703 03a0 52       		.byte	0x52
 3704 03a1 00       		.byte	0
 3705              	.LVUS27:
ARM GAS  C:\Users\DEVELO~1\AppData\Local\Temp\ccNqWhix.s 			page 66


 3706 03a2 01       		.uleb128 .LVU110
 3707 03a3 00       		.uleb128 0
 3708              	.LLST27:
 3709 03a4 08       		.byte	0x8
 3710 03a5 00000000 		.4byte	.LVL41
 3711 03a9 20       		.uleb128 .LFE456-.LVL41
 3712 03aa 01       		.uleb128 0x1
 3713 03ab 53       		.byte	0x53
 3714 03ac 00       		.byte	0
 3715              	.LVUS29:
 3716 03ad 00       		.uleb128 .LVU116
 3717 03ae 00       		.uleb128 .LVU120
 3718              	.LLST29:
 3719 03af 08       		.byte	0x8
 3720 03b0 08000000 		.4byte	.LVL42
 3721 03b4 0A       		.uleb128 .LVL43-.LVL42
 3722 03b5 01       		.uleb128 0x1
 3723 03b6 5C       		.byte	0x5c
 3724 03b7 00       		.byte	0
 3725              	.LVUS18:
 3726 03b8 01       		.uleb128 .LVU92
 3727 03b9 00       		.uleb128 .LVU105
 3728 03ba 00       		.uleb128 .LVU105
 3729 03bb 00       		.uleb128 .LVU106
 3730 03bc 00       		.uleb128 .LVU106
 3731 03bd 00       		.uleb128 .LVU107
 3732 03be 00       		.uleb128 .LVU107
 3733 03bf 00       		.uleb128 0
 3734              	.LLST18:
 3735 03c0 06       		.byte	0x6
 3736 03c1 00000000 		.4byte	.LVL35
 3737 03c5 04       		.byte	0x4
 3738 03c6 00       		.uleb128 .LVL35-.LVL35
 3739 03c7 1A       		.uleb128 .LVL38-.LVL35
 3740 03c8 01       		.uleb128 0x1
 3741 03c9 50       		.byte	0x50
 3742 03ca 04       		.byte	0x4
 3743 03cb 1A       		.uleb128 .LVL38-.LVL35
 3744 03cc 1C       		.uleb128 .LVL39-.LVL35
 3745 03cd 04       		.uleb128 0x4
 3746 03ce A3       		.byte	0xa3
 3747 03cf 01       		.uleb128 0x1
 3748 03d0 50       		.byte	0x50
 3749 03d1 9F       		.byte	0x9f
 3750 03d2 04       		.byte	0x4
 3751 03d3 1C       		.uleb128 .LVL39-.LVL35
 3752 03d4 1E       		.uleb128 .LVL40-.LVL35
 3753 03d5 01       		.uleb128 0x1
 3754 03d6 50       		.byte	0x50
 3755 03d7 04       		.byte	0x4
 3756 03d8 1E       		.uleb128 .LVL40-.LVL35
 3757 03d9 20       		.uleb128 .LFE455-.LVL35
 3758 03da 04       		.uleb128 0x4
 3759 03db A3       		.byte	0xa3
 3760 03dc 01       		.uleb128 0x1
 3761 03dd 50       		.byte	0x50
 3762 03de 9F       		.byte	0x9f
ARM GAS  C:\Users\DEVELO~1\AppData\Local\Temp\ccNqWhix.s 			page 67


 3763 03df 00       		.byte	0
 3764              	.LVUS19:
 3765 03e0 01       		.uleb128 .LVU92
 3766 03e1 00       		.uleb128 0
 3767              	.LLST19:
 3768 03e2 08       		.byte	0x8
 3769 03e3 00000000 		.4byte	.LVL35
 3770 03e7 20       		.uleb128 .LFE455-.LVL35
 3771 03e8 01       		.uleb128 0x1
 3772 03e9 51       		.byte	0x51
 3773 03ea 00       		.byte	0
 3774              	.LVUS20:
 3775 03eb 01       		.uleb128 .LVU92
 3776 03ec 00       		.uleb128 0
 3777              	.LLST20:
 3778 03ed 08       		.byte	0x8
 3779 03ee 00000000 		.4byte	.LVL35
 3780 03f2 20       		.uleb128 .LFE455-.LVL35
 3781 03f3 01       		.uleb128 0x1
 3782 03f4 52       		.byte	0x52
 3783 03f5 00       		.byte	0
 3784              	.LVUS21:
 3785 03f6 01       		.uleb128 .LVU92
 3786 03f7 00       		.uleb128 0
 3787              	.LLST21:
 3788 03f8 08       		.byte	0x8
 3789 03f9 00000000 		.4byte	.LVL35
 3790 03fd 20       		.uleb128 .LFE455-.LVL35
 3791 03fe 01       		.uleb128 0x1
 3792 03ff 53       		.byte	0x53
 3793 0400 00       		.byte	0
 3794              	.LVUS23:
 3795 0401 00       		.uleb128 .LVU98
 3796 0402 00       		.uleb128 .LVU102
 3797              	.LLST23:
 3798 0403 08       		.byte	0x8
 3799 0404 08000000 		.4byte	.LVL36
 3800 0408 0A       		.uleb128 .LVL37-.LVL36
 3801 0409 01       		.uleb128 0x1
 3802 040a 5C       		.byte	0x5c
 3803 040b 00       		.byte	0
 3804              	.LVUS13:
 3805 040c 00       		.uleb128 0
 3806 040d 00       		.uleb128 .LVU85
 3807 040e 00       		.uleb128 .LVU85
 3808 040f 00       		.uleb128 .LVU88
 3809 0410 00       		.uleb128 .LVU88
 3810 0411 00       		.uleb128 .LVU89
 3811 0412 00       		.uleb128 .LVU89
 3812 0413 00       		.uleb128 0
 3813              	.LLST13:
 3814 0414 06       		.byte	0x6
 3815 0415 00000000 		.4byte	.LVL24
 3816 0419 04       		.byte	0x4
 3817 041a 00       		.uleb128 .LVL24-.LVL24
 3818 041b 16       		.uleb128 .LVL30-.LVL24
 3819 041c 01       		.uleb128 0x1
ARM GAS  C:\Users\DEVELO~1\AppData\Local\Temp\ccNqWhix.s 			page 68


 3820 041d 50       		.byte	0x50
 3821 041e 04       		.byte	0x4
 3822 041f 16       		.uleb128 .LVL30-.LVL24
 3823 0420 1A       		.uleb128 .LVL32-.LVL24
 3824 0421 04       		.uleb128 0x4
 3825 0422 A3       		.byte	0xa3
 3826 0423 01       		.uleb128 0x1
 3827 0424 50       		.byte	0x50
 3828 0425 9F       		.byte	0x9f
 3829 0426 04       		.byte	0x4
 3830 0427 1A       		.uleb128 .LVL32-.LVL24
 3831 0428 1C       		.uleb128 .LVL33-.LVL24
 3832 0429 01       		.uleb128 0x1
 3833 042a 50       		.byte	0x50
 3834 042b 04       		.byte	0x4
 3835 042c 1C       		.uleb128 .LVL33-.LVL24
 3836 042d 20       		.uleb128 .LFE454-.LVL24
 3837 042e 04       		.uleb128 0x4
 3838 042f A3       		.byte	0xa3
 3839 0430 01       		.uleb128 0x1
 3840 0431 50       		.byte	0x50
 3841 0432 9F       		.byte	0x9f
 3842 0433 00       		.byte	0
 3843              	.LVUS14:
 3844 0434 00       		.uleb128 0
 3845 0435 00       		.uleb128 .LVU87
 3846 0436 00       		.uleb128 .LVU87
 3847 0437 00       		.uleb128 .LVU88
 3848 0438 00       		.uleb128 .LVU88
 3849 0439 00       		.uleb128 .LVU90
 3850 043a 00       		.uleb128 .LVU90
 3851 043b 00       		.uleb128 0
 3852              	.LLST14:
 3853 043c 06       		.byte	0x6
 3854 043d 00000000 		.4byte	.LVL24
 3855 0441 04       		.byte	0x4
 3856 0442 00       		.uleb128 .LVL24-.LVL24
 3857 0443 18       		.uleb128 .LVL31-.LVL24
 3858 0444 02       		.uleb128 0x2
 3859 0445 91       		.byte	0x91
 3860 0446 00       		.sleb128 0
 3861 0447 04       		.byte	0x4
 3862 0448 18       		.uleb128 .LVL31-.LVL24
 3863 0449 1A       		.uleb128 .LVL32-.LVL24
 3864 044a 02       		.uleb128 0x2
 3865 044b 7D       		.byte	0x7d
 3866 044c 00       		.sleb128 0
 3867 044d 04       		.byte	0x4
 3868 044e 1A       		.uleb128 .LVL32-.LVL24
 3869 044f 1E       		.uleb128 .LVL34-.LVL24
 3870 0450 02       		.uleb128 0x2
 3871 0451 91       		.byte	0x91
 3872 0452 00       		.sleb128 0
 3873 0453 04       		.byte	0x4
 3874 0454 1E       		.uleb128 .LVL34-.LVL24
 3875 0455 20       		.uleb128 .LFE454-.LVL24
 3876 0456 02       		.uleb128 0x2
ARM GAS  C:\Users\DEVELO~1\AppData\Local\Temp\ccNqWhix.s 			page 69


 3877 0457 7D       		.byte	0x7d
 3878 0458 00       		.sleb128 0
 3879 0459 00       		.byte	0
 3880              	.LVUS15:
 3881 045a 03       		.uleb128 .LVU71
 3882 045b 00       		.uleb128 0
 3883              	.LLST15:
 3884 045c 08       		.byte	0x8
 3885 045d 04000000 		.4byte	.LVL25
 3886 0461 1C       		.uleb128 .LFE454-.LVL25
 3887 0462 01       		.uleb128 0x1
 3888 0463 53       		.byte	0x53
 3889 0464 00       		.byte	0
 3890              	.LVUS17:
 3891 0465 00       		.uleb128 .LVU79
 3892 0466 00       		.uleb128 .LVU83
 3893              	.LLST17:
 3894 0467 08       		.byte	0x8
 3895 0468 0A000000 		.4byte	.LVL28
 3896 046c 06       		.uleb128 .LVL29-.LVL28
 3897 046d 01       		.uleb128 0x1
 3898 046e 54       		.byte	0x54
 3899 046f 00       		.byte	0
 3900              	.LVUS8:
 3901 0470 00       		.uleb128 0
 3902 0471 00       		.uleb128 .LVU59
 3903 0472 00       		.uleb128 .LVU59
 3904 0473 00       		.uleb128 .LVU62
 3905 0474 00       		.uleb128 .LVU62
 3906 0475 00       		.uleb128 .LVU63
 3907 0476 00       		.uleb128 .LVU63
 3908 0477 00       		.uleb128 0
 3909              	.LLST8:
 3910 0478 06       		.byte	0x6
 3911 0479 00000000 		.4byte	.LVL13
 3912 047d 04       		.byte	0x4
 3913 047e 00       		.uleb128 .LVL13-.LVL13
 3914 047f 20       		.uleb128 .LVL19-.LVL13
 3915 0480 01       		.uleb128 0x1
 3916 0481 50       		.byte	0x50
 3917 0482 04       		.byte	0x4
 3918 0483 20       		.uleb128 .LVL19-.LVL13
 3919 0484 26       		.uleb128 .LVL21-.LVL13
 3920 0485 04       		.uleb128 0x4
 3921 0486 A3       		.byte	0xa3
 3922 0487 01       		.uleb128 0x1
 3923 0488 50       		.byte	0x50
 3924 0489 9F       		.byte	0x9f
 3925 048a 04       		.byte	0x4
 3926 048b 26       		.uleb128 .LVL21-.LVL13
 3927 048c 28       		.uleb128 .LVL22-.LVL13
 3928 048d 01       		.uleb128 0x1
 3929 048e 50       		.byte	0x50
 3930 048f 04       		.byte	0x4
 3931 0490 28       		.uleb128 .LVL22-.LVL13
 3932 0491 2E       		.uleb128 .LFE453-.LVL13
 3933 0492 04       		.uleb128 0x4
ARM GAS  C:\Users\DEVELO~1\AppData\Local\Temp\ccNqWhix.s 			page 70


 3934 0493 A3       		.byte	0xa3
 3935 0494 01       		.uleb128 0x1
 3936 0495 50       		.byte	0x50
 3937 0496 9F       		.byte	0x9f
 3938 0497 00       		.byte	0
 3939              	.LVUS9:
 3940 0498 00       		.uleb128 0
 3941 0499 00       		.uleb128 .LVU61
 3942 049a 00       		.uleb128 .LVU61
 3943 049b 00       		.uleb128 .LVU62
 3944 049c 00       		.uleb128 .LVU62
 3945 049d 00       		.uleb128 .LVU64
 3946 049e 00       		.uleb128 .LVU64
 3947 049f 00       		.uleb128 0
 3948              	.LLST9:
 3949 04a0 06       		.byte	0x6
 3950 04a1 00000000 		.4byte	.LVL13
 3951 04a5 04       		.byte	0x4
 3952 04a6 00       		.uleb128 .LVL13-.LVL13
 3953 04a7 24       		.uleb128 .LVL20-.LVL13
 3954 04a8 02       		.uleb128 0x2
 3955 04a9 91       		.byte	0x91
 3956 04aa 00       		.sleb128 0
 3957 04ab 04       		.byte	0x4
 3958 04ac 24       		.uleb128 .LVL20-.LVL13
 3959 04ad 26       		.uleb128 .LVL21-.LVL13
 3960 04ae 02       		.uleb128 0x2
 3961 04af 7D       		.byte	0x7d
 3962 04b0 00       		.sleb128 0
 3963 04b1 04       		.byte	0x4
 3964 04b2 26       		.uleb128 .LVL21-.LVL13
 3965 04b3 2C       		.uleb128 .LVL23-.LVL13
 3966 04b4 02       		.uleb128 0x2
 3967 04b5 91       		.byte	0x91
 3968 04b6 00       		.sleb128 0
 3969 04b7 04       		.byte	0x4
 3970 04b8 2C       		.uleb128 .LVL23-.LVL13
 3971 04b9 2E       		.uleb128 .LFE453-.LVL13
 3972 04ba 02       		.uleb128 0x2
 3973 04bb 7D       		.byte	0x7d
 3974 04bc 00       		.sleb128 0
 3975 04bd 00       		.byte	0
 3976              	.LVUS10:
 3977 04be 03       		.uleb128 .LVU45
 3978 04bf 00       		.uleb128 0
 3979              	.LLST10:
 3980 04c0 08       		.byte	0x8
 3981 04c1 04000000 		.4byte	.LVL14
 3982 04c5 2A       		.uleb128 .LFE453-.LVL14
 3983 04c6 01       		.uleb128 0x1
 3984 04c7 53       		.byte	0x53
 3985 04c8 00       		.byte	0
 3986              	.LVUS12:
 3987 04c9 00       		.uleb128 .LVU53
 3988 04ca 00       		.uleb128 .LVU57
 3989              	.LLST12:
 3990 04cb 08       		.byte	0x8
ARM GAS  C:\Users\DEVELO~1\AppData\Local\Temp\ccNqWhix.s 			page 71


 3991 04cc 10000000 		.4byte	.LVL17
 3992 04d0 0A       		.uleb128 .LVL18-.LVL17
 3993 04d1 01       		.uleb128 0x1
 3994 04d2 5C       		.byte	0x5c
 3995 04d3 00       		.byte	0
 3996              	.LVUS3:
 3997 04d4 00       		.uleb128 0
 3998 04d5 00       		.uleb128 .LVU33
 3999 04d6 00       		.uleb128 .LVU33
 4000 04d7 00       		.uleb128 .LVU36
 4001 04d8 00       		.uleb128 .LVU36
 4002 04d9 00       		.uleb128 .LVU37
 4003 04da 00       		.uleb128 .LVU37
 4004 04db 00       		.uleb128 0
 4005              	.LLST3:
 4006 04dc 06       		.byte	0x6
 4007 04dd 00000000 		.4byte	.LVL2
 4008 04e1 04       		.byte	0x4
 4009 04e2 00       		.uleb128 .LVL2-.LVL2
 4010 04e3 20       		.uleb128 .LVL8-.LVL2
 4011 04e4 01       		.uleb128 0x1
 4012 04e5 50       		.byte	0x50
 4013 04e6 04       		.byte	0x4
 4014 04e7 20       		.uleb128 .LVL8-.LVL2
 4015 04e8 26       		.uleb128 .LVL10-.LVL2
 4016 04e9 04       		.uleb128 0x4
 4017 04ea A3       		.byte	0xa3
 4018 04eb 01       		.uleb128 0x1
 4019 04ec 50       		.byte	0x50
 4020 04ed 9F       		.byte	0x9f
 4021 04ee 04       		.byte	0x4
 4022 04ef 26       		.uleb128 .LVL10-.LVL2
 4023 04f0 28       		.uleb128 .LVL11-.LVL2
 4024 04f1 01       		.uleb128 0x1
 4025 04f2 50       		.byte	0x50
 4026 04f3 04       		.byte	0x4
 4027 04f4 28       		.uleb128 .LVL11-.LVL2
 4028 04f5 2E       		.uleb128 .LFE452-.LVL2
 4029 04f6 04       		.uleb128 0x4
 4030 04f7 A3       		.byte	0xa3
 4031 04f8 01       		.uleb128 0x1
 4032 04f9 50       		.byte	0x50
 4033 04fa 9F       		.byte	0x9f
 4034 04fb 00       		.byte	0
 4035              	.LVUS4:
 4036 04fc 00       		.uleb128 0
 4037 04fd 00       		.uleb128 .LVU35
 4038 04fe 00       		.uleb128 .LVU35
 4039 04ff 00       		.uleb128 .LVU36
 4040 0500 00       		.uleb128 .LVU36
 4041 0501 00       		.uleb128 .LVU38
 4042 0502 00       		.uleb128 .LVU38
 4043 0503 00       		.uleb128 0
 4044              	.LLST4:
 4045 0504 06       		.byte	0x6
 4046 0505 00000000 		.4byte	.LVL2
 4047 0509 04       		.byte	0x4
ARM GAS  C:\Users\DEVELO~1\AppData\Local\Temp\ccNqWhix.s 			page 72


 4048 050a 00       		.uleb128 .LVL2-.LVL2
 4049 050b 24       		.uleb128 .LVL9-.LVL2
 4050 050c 02       		.uleb128 0x2
 4051 050d 91       		.byte	0x91
 4052 050e 00       		.sleb128 0
 4053 050f 04       		.byte	0x4
 4054 0510 24       		.uleb128 .LVL9-.LVL2
 4055 0511 26       		.uleb128 .LVL10-.LVL2
 4056 0512 02       		.uleb128 0x2
 4057 0513 7D       		.byte	0x7d
 4058 0514 00       		.sleb128 0
 4059 0515 04       		.byte	0x4
 4060 0516 26       		.uleb128 .LVL10-.LVL2
 4061 0517 2C       		.uleb128 .LVL12-.LVL2
 4062 0518 02       		.uleb128 0x2
 4063 0519 91       		.byte	0x91
 4064 051a 00       		.sleb128 0
 4065 051b 04       		.byte	0x4
 4066 051c 2C       		.uleb128 .LVL12-.LVL2
 4067 051d 2E       		.uleb128 .LFE452-.LVL2
 4068 051e 02       		.uleb128 0x2
 4069 051f 7D       		.byte	0x7d
 4070 0520 00       		.sleb128 0
 4071 0521 00       		.byte	0
 4072              	.LVUS5:
 4073 0522 03       		.uleb128 .LVU19
 4074 0523 00       		.uleb128 0
 4075              	.LLST5:
 4076 0524 08       		.byte	0x8
 4077 0525 04000000 		.4byte	.LVL3
 4078 0529 2A       		.uleb128 .LFE452-.LVL3
 4079 052a 01       		.uleb128 0x1
 4080 052b 53       		.byte	0x53
 4081 052c 00       		.byte	0
 4082              	.LVUS7:
 4083 052d 00       		.uleb128 .LVU27
 4084 052e 00       		.uleb128 .LVU31
 4085              	.LLST7:
 4086 052f 08       		.byte	0x8
 4087 0530 10000000 		.4byte	.LVL6
 4088 0534 0A       		.uleb128 .LVL7-.LVL6
 4089 0535 01       		.uleb128 0x1
 4090 0536 5C       		.byte	0x5c
 4091 0537 00       		.byte	0
 4092              	.LVUS0:
 4093 0538 00       		.uleb128 0
 4094 0539 00       		.uleb128 .LVU6
 4095 053a 00       		.uleb128 .LVU6
 4096 053b 00       		.uleb128 0
 4097              	.LLST0:
 4098 053c 06       		.byte	0x6
 4099 053d 00000000 		.4byte	.LVL0
 4100 0541 04       		.byte	0x4
 4101 0542 00       		.uleb128 .LVL0-.LVL0
 4102 0543 05       		.uleb128 .LVL1-1-.LVL0
 4103 0544 01       		.uleb128 0x1
 4104 0545 50       		.byte	0x50
ARM GAS  C:\Users\DEVELO~1\AppData\Local\Temp\ccNqWhix.s 			page 73


 4105 0546 04       		.byte	0x4
 4106 0547 05       		.uleb128 .LVL1-1-.LVL0
 4107 0548 08       		.uleb128 .LFE451-.LVL0
 4108 0549 04       		.uleb128 0x4
 4109 054a A3       		.byte	0xa3
 4110 054b 01       		.uleb128 0x1
 4111 054c 50       		.byte	0x50
 4112 054d 9F       		.byte	0x9f
 4113 054e 00       		.byte	0
 4114              	.LVUS2:
 4115 054f 02       		.uleb128 .LVU2
 4116 0550 00       		.uleb128 .LVU6
 4117 0551 00       		.uleb128 .LVU6
 4118 0552 00       		.uleb128 .LVU6
 4119              	.LLST2:
 4120 0553 06       		.byte	0x6
 4121 0554 00000000 		.4byte	.LVL0
 4122 0558 04       		.byte	0x4
 4123 0559 00       		.uleb128 .LVL0-.LVL0
 4124 055a 05       		.uleb128 .LVL1-1-.LVL0
 4125 055b 01       		.uleb128 0x1
 4126 055c 50       		.byte	0x50
 4127 055d 04       		.byte	0x4
 4128 055e 05       		.uleb128 .LVL1-1-.LVL0
 4129 055f 06       		.uleb128 .LVL1-.LVL0
 4130 0560 04       		.uleb128 0x4
 4131 0561 A3       		.byte	0xa3
 4132 0562 01       		.uleb128 0x1
 4133 0563 50       		.byte	0x50
 4134 0564 9F       		.byte	0x9f
 4135 0565 00       		.byte	0
 4136              	.Ldebug_loc3:
 4137              		.section	.debug_aranges,"",%progbits
 4138 0000 94000000 		.4byte	0x94
 4139 0004 0200     		.2byte	0x2
 4140 0006 00000000 		.4byte	.Ldebug_info0
 4141 000a 04       		.byte	0x4
 4142 000b 00       		.byte	0
 4143 000c 0000     		.2byte	0
 4144 000e 0000     		.2byte	0
 4145 0010 00000000 		.4byte	.LFB451
 4146 0014 08000000 		.4byte	.LFE451-.LFB451
 4147 0018 00000000 		.4byte	.LFB452
 4148 001c 2E000000 		.4byte	.LFE452-.LFB452
 4149 0020 00000000 		.4byte	.LFB453
 4150 0024 2E000000 		.4byte	.LFE453-.LFB453
 4151 0028 00000000 		.4byte	.LFB454
 4152 002c 20000000 		.4byte	.LFE454-.LFB454
 4153 0030 00000000 		.4byte	.LFB455
 4154 0034 20000000 		.4byte	.LFE455-.LFB455
 4155 0038 00000000 		.4byte	.LFB456
 4156 003c 20000000 		.4byte	.LFE456-.LFB456
 4157 0040 00000000 		.4byte	.LFB457
 4158 0044 22000000 		.4byte	.LFE457-.LFB457
 4159 0048 00000000 		.4byte	.LFB458
 4160 004c 20000000 		.4byte	.LFE458-.LFB458
 4161 0050 00000000 		.4byte	.LFB459
ARM GAS  C:\Users\DEVELO~1\AppData\Local\Temp\ccNqWhix.s 			page 74


 4162 0054 20000000 		.4byte	.LFE459-.LFB459
 4163 0058 00000000 		.4byte	.LFB460
 4164 005c 20000000 		.4byte	.LFE460-.LFB460
 4165 0060 00000000 		.4byte	.LFB461
 4166 0064 20000000 		.4byte	.LFE461-.LFB461
 4167 0068 00000000 		.4byte	.LFB462
 4168 006c 20000000 		.4byte	.LFE462-.LFB462
 4169 0070 00000000 		.4byte	.LFB463
 4170 0074 20000000 		.4byte	.LFE463-.LFB463
 4171 0078 00000000 		.4byte	.LFB464
 4172 007c 20000000 		.4byte	.LFE464-.LFB464
 4173 0080 00000000 		.4byte	.LFB465
 4174 0084 20000000 		.4byte	.LFE465-.LFB465
 4175 0088 00000000 		.4byte	.LFB466
 4176 008c 22000000 		.4byte	.LFE466-.LFB466
 4177 0090 00000000 		.4byte	0
 4178 0094 00000000 		.4byte	0
 4179              		.section	.debug_rnglists,"",%progbits
 4180              	.Ldebug_ranges0:
 4181 0000 41010000 		.4byte	.Ldebug_ranges3-.Ldebug_ranges2
 4182              	.Ldebug_ranges2:
 4183 0004 0500     		.2byte	0x5
 4184 0006 04       		.byte	0x4
 4185 0007 00       		.byte	0
 4186 0008 00000000 		.4byte	0
 4187              	.LLRL1:
 4188 000c 05       		.byte	0x5
 4189 000d 00000000 		.4byte	.LBB111
 4190 0011 04       		.byte	0x4
 4191 0012 00       		.uleb128 .LBB111-.LBB111
 4192 0013 00       		.uleb128 .LBE111-.LBB111
 4193 0014 04       		.byte	0x4
 4194 0015 02       		.uleb128 .LBB114-.LBB111
 4195 0016 06       		.uleb128 .LBE114-.LBB111
 4196 0017 00       		.byte	0
 4197              	.LLRL6:
 4198 0018 05       		.byte	0x5
 4199 0019 08000000 		.4byte	.LBB115
 4200 001d 04       		.byte	0x4
 4201 001e 00       		.uleb128 .LBB115-.LBB115
 4202 001f 00       		.uleb128 .LBE115-.LBB115
 4203 0020 04       		.byte	0x4
 4204 0021 00       		.uleb128 .LBB116-.LBB115
 4205 0022 18       		.uleb128 .LBE116-.LBB115
 4206 0023 00       		.byte	0
 4207              	.LLRL11:
 4208 0024 05       		.byte	0x5
 4209 0025 08000000 		.4byte	.LBB117
 4210 0029 04       		.byte	0x4
 4211 002a 00       		.uleb128 .LBB117-.LBB117
 4212 002b 00       		.uleb128 .LBE117-.LBB117
 4213 002c 04       		.byte	0x4
 4214 002d 00       		.uleb128 .LBB118-.LBB117
 4215 002e 18       		.uleb128 .LBE118-.LBB117
 4216 002f 00       		.byte	0
 4217              	.LLRL16:
 4218 0030 05       		.byte	0x5
ARM GAS  C:\Users\DEVELO~1\AppData\Local\Temp\ccNqWhix.s 			page 75


 4219 0031 08000000 		.4byte	.LBB119
 4220 0035 04       		.byte	0x4
 4221 0036 00       		.uleb128 .LBB119-.LBB119
 4222 0037 00       		.uleb128 .LBE119-.LBB119
 4223 0038 04       		.byte	0x4
 4224 0039 00       		.uleb128 .LBB120-.LBB119
 4225 003a 0E       		.uleb128 .LBE120-.LBB119
 4226 003b 00       		.byte	0
 4227              	.LLRL22:
 4228 003c 05       		.byte	0x5
 4229 003d 00000000 		.4byte	.LBB121
 4230 0041 04       		.byte	0x4
 4231 0042 00       		.uleb128 .LBB121-.LBB121
 4232 0043 00       		.uleb128 .LBE121-.LBB121
 4233 0044 04       		.byte	0x4
 4234 0045 00       		.uleb128 .LBB122-.LBB121
 4235 0046 14       		.uleb128 .LBE122-.LBB121
 4236 0047 04       		.byte	0x4
 4237 0048 1C       		.uleb128 .LBB123-.LBB121
 4238 0049 1E       		.uleb128 .LBE123-.LBB121
 4239 004a 00       		.byte	0
 4240              	.LLRL28:
 4241 004b 05       		.byte	0x5
 4242 004c 00000000 		.4byte	.LBB124
 4243 0050 04       		.byte	0x4
 4244 0051 00       		.uleb128 .LBB124-.LBB124
 4245 0052 00       		.uleb128 .LBE124-.LBB124
 4246 0053 04       		.byte	0x4
 4247 0054 00       		.uleb128 .LBB125-.LBB124
 4248 0055 14       		.uleb128 .LBE125-.LBB124
 4249 0056 04       		.byte	0x4
 4250 0057 1C       		.uleb128 .LBB126-.LBB124
 4251 0058 1E       		.uleb128 .LBE126-.LBB124
 4252 0059 00       		.byte	0
 4253              	.LLRL34:
 4254 005a 05       		.byte	0x5
 4255 005b 06000000 		.4byte	.LBB127
 4256 005f 04       		.byte	0x4
 4257 0060 00       		.uleb128 .LBB127-.LBB127
 4258 0061 00       		.uleb128 .LBE127-.LBB127
 4259 0062 04       		.byte	0x4
 4260 0063 00       		.uleb128 .LBB128-.LBB127
 4261 0064 0E       		.uleb128 .LBE128-.LBB127
 4262 0065 00       		.byte	0
 4263              	.LLRL40:
 4264 0066 05       		.byte	0x5
 4265 0067 00000000 		.4byte	.LBB129
 4266 006b 04       		.byte	0x4
 4267 006c 00       		.uleb128 .LBB129-.LBB129
 4268 006d 00       		.uleb128 .LBE129-.LBB129
 4269 006e 04       		.byte	0x4
 4270 006f 00       		.uleb128 .LBB130-.LBB129
 4271 0070 14       		.uleb128 .LBE130-.LBB129
 4272 0071 04       		.byte	0x4
 4273 0072 1C       		.uleb128 .LBB131-.LBB129
 4274 0073 1E       		.uleb128 .LBE131-.LBB129
 4275 0074 00       		.byte	0
ARM GAS  C:\Users\DEVELO~1\AppData\Local\Temp\ccNqWhix.s 			page 76


 4276              	.LLRL46:
 4277 0075 05       		.byte	0x5
 4278 0076 00000000 		.4byte	.LBB132
 4279 007a 04       		.byte	0x4
 4280 007b 00       		.uleb128 .LBB132-.LBB132
 4281 007c 00       		.uleb128 .LBE132-.LBB132
 4282 007d 04       		.byte	0x4
 4283 007e 00       		.uleb128 .LBB133-.LBB132
 4284 007f 14       		.uleb128 .LBE133-.LBB132
 4285 0080 04       		.byte	0x4
 4286 0081 1C       		.uleb128 .LBB134-.LBB132
 4287 0082 1E       		.uleb128 .LBE134-.LBB132
 4288 0083 00       		.byte	0
 4289              	.LLRL52:
 4290 0084 05       		.byte	0x5
 4291 0085 06000000 		.4byte	.LBB135
 4292 0089 04       		.byte	0x4
 4293 008a 00       		.uleb128 .LBB135-.LBB135
 4294 008b 00       		.uleb128 .LBE135-.LBB135
 4295 008c 04       		.byte	0x4
 4296 008d 00       		.uleb128 .LBB136-.LBB135
 4297 008e 0C       		.uleb128 .LBE136-.LBB135
 4298 008f 00       		.byte	0
 4299              	.LLRL58:
 4300 0090 05       		.byte	0x5
 4301 0091 00000000 		.4byte	.LBB137
 4302 0095 04       		.byte	0x4
 4303 0096 00       		.uleb128 .LBB137-.LBB137
 4304 0097 00       		.uleb128 .LBE137-.LBB137
 4305 0098 04       		.byte	0x4
 4306 0099 00       		.uleb128 .LBB138-.LBB137
 4307 009a 14       		.uleb128 .LBE138-.LBB137
 4308 009b 04       		.byte	0x4
 4309 009c 1C       		.uleb128 .LBB139-.LBB137
 4310 009d 1E       		.uleb128 .LBE139-.LBB137
 4311 009e 00       		.byte	0
 4312              	.LLRL64:
 4313 009f 05       		.byte	0x5
 4314 00a0 00000000 		.4byte	.LBB140
 4315 00a4 04       		.byte	0x4
 4316 00a5 00       		.uleb128 .LBB140-.LBB140
 4317 00a6 00       		.uleb128 .LBE140-.LBB140
 4318 00a7 04       		.byte	0x4
 4319 00a8 00       		.uleb128 .LBB141-.LBB140
 4320 00a9 14       		.uleb128 .LBE141-.LBB140
 4321 00aa 04       		.byte	0x4
 4322 00ab 1C       		.uleb128 .LBB142-.LBB140
 4323 00ac 1E       		.uleb128 .LBE142-.LBB140
 4324 00ad 00       		.byte	0
 4325              	.LLRL70:
 4326 00ae 05       		.byte	0x5
 4327 00af 06000000 		.4byte	.LBB143
 4328 00b3 04       		.byte	0x4
 4329 00b4 00       		.uleb128 .LBB143-.LBB143
 4330 00b5 00       		.uleb128 .LBE143-.LBB143
 4331 00b6 04       		.byte	0x4
 4332 00b7 00       		.uleb128 .LBB144-.LBB143
ARM GAS  C:\Users\DEVELO~1\AppData\Local\Temp\ccNqWhix.s 			page 77


 4333 00b8 0C       		.uleb128 .LBE144-.LBB143
 4334 00b9 00       		.byte	0
 4335              	.LLRL76:
 4336 00ba 05       		.byte	0x5
 4337 00bb 00000000 		.4byte	.LBB145
 4338 00bf 04       		.byte	0x4
 4339 00c0 00       		.uleb128 .LBB145-.LBB145
 4340 00c1 00       		.uleb128 .LBE145-.LBB145
 4341 00c2 04       		.byte	0x4
 4342 00c3 00       		.uleb128 .LBB146-.LBB145
 4343 00c4 14       		.uleb128 .LBE146-.LBB145
 4344 00c5 04       		.byte	0x4
 4345 00c6 1C       		.uleb128 .LBB147-.LBB145
 4346 00c7 1E       		.uleb128 .LBE147-.LBB145
 4347 00c8 00       		.byte	0
 4348              	.LLRL82:
 4349 00c9 05       		.byte	0x5
 4350 00ca 00000000 		.4byte	.LBB148
 4351 00ce 04       		.byte	0x4
 4352 00cf 00       		.uleb128 .LBB148-.LBB148
 4353 00d0 00       		.uleb128 .LBE148-.LBB148
 4354 00d1 04       		.byte	0x4
 4355 00d2 00       		.uleb128 .LBB149-.LBB148
 4356 00d3 14       		.uleb128 .LBE149-.LBB148
 4357 00d4 04       		.byte	0x4
 4358 00d5 1C       		.uleb128 .LBB150-.LBB148
 4359 00d6 1E       		.uleb128 .LBE150-.LBB148
 4360 00d7 00       		.byte	0
 4361              	.LLRL88:
 4362 00d8 05       		.byte	0x5
 4363 00d9 06000000 		.4byte	.LBB151
 4364 00dd 04       		.byte	0x4
 4365 00de 00       		.uleb128 .LBB151-.LBB151
 4366 00df 00       		.uleb128 .LBE151-.LBB151
 4367 00e0 04       		.byte	0x4
 4368 00e1 00       		.uleb128 .LBB152-.LBB151
 4369 00e2 0E       		.uleb128 .LBE152-.LBB151
 4370 00e3 00       		.byte	0
 4371              	.LLRL90:
 4372 00e4 07       		.byte	0x7
 4373 00e5 00000000 		.4byte	.LFB451
 4374 00e9 08       		.uleb128 .LFE451-.LFB451
 4375 00ea 07       		.byte	0x7
 4376 00eb 00000000 		.4byte	.LFB452
 4377 00ef 2E       		.uleb128 .LFE452-.LFB452
 4378 00f0 07       		.byte	0x7
 4379 00f1 00000000 		.4byte	.LFB453
 4380 00f5 2E       		.uleb128 .LFE453-.LFB453
 4381 00f6 07       		.byte	0x7
 4382 00f7 00000000 		.4byte	.LFB454
 4383 00fb 20       		.uleb128 .LFE454-.LFB454
 4384 00fc 07       		.byte	0x7
 4385 00fd 00000000 		.4byte	.LFB455
 4386 0101 20       		.uleb128 .LFE455-.LFB455
 4387 0102 07       		.byte	0x7
 4388 0103 00000000 		.4byte	.LFB456
 4389 0107 20       		.uleb128 .LFE456-.LFB456
ARM GAS  C:\Users\DEVELO~1\AppData\Local\Temp\ccNqWhix.s 			page 78


 4390 0108 07       		.byte	0x7
 4391 0109 00000000 		.4byte	.LFB457
 4392 010d 22       		.uleb128 .LFE457-.LFB457
 4393 010e 07       		.byte	0x7
 4394 010f 00000000 		.4byte	.LFB458
 4395 0113 20       		.uleb128 .LFE458-.LFB458
 4396 0114 07       		.byte	0x7
 4397 0115 00000000 		.4byte	.LFB459
 4398 0119 20       		.uleb128 .LFE459-.LFB459
 4399 011a 07       		.byte	0x7
 4400 011b 00000000 		.4byte	.LFB460
 4401 011f 20       		.uleb128 .LFE460-.LFB460
 4402 0120 07       		.byte	0x7
 4403 0121 00000000 		.4byte	.LFB461
 4404 0125 20       		.uleb128 .LFE461-.LFB461
 4405 0126 07       		.byte	0x7
 4406 0127 00000000 		.4byte	.LFB462
 4407 012b 20       		.uleb128 .LFE462-.LFB462
 4408 012c 07       		.byte	0x7
 4409 012d 00000000 		.4byte	.LFB463
 4410 0131 20       		.uleb128 .LFE463-.LFB463
 4411 0132 07       		.byte	0x7
 4412 0133 00000000 		.4byte	.LFB464
 4413 0137 20       		.uleb128 .LFE464-.LFB464
 4414 0138 07       		.byte	0x7
 4415 0139 00000000 		.4byte	.LFB465
 4416 013d 20       		.uleb128 .LFE465-.LFB465
 4417 013e 07       		.byte	0x7
 4418 013f 00000000 		.4byte	.LFB466
 4419 0143 22       		.uleb128 .LFE466-.LFB466
 4420 0144 00       		.byte	0
 4421              	.Ldebug_ranges3:
 4422              		.section	.debug_line,"",%progbits
 4423              	.Ldebug_line0:
 4424 0000 21060000 		.section	.debug_str,"MS",%progbits,1
 4424      03004C01 
 4424      00000201 
 4424      FB0E0D00 
 4424      01010101 
 4425              	.LASF39:
 4426 0000 6D657373 		.ascii	"message\000"
 4426      61676500 
 4427              	.LASF26:
 4428 0008 68616C52 		.ascii	"halRegWaitAllClear16X\000"
 4428      65675761 
 4428      6974416C 
 4428      6C436C65 
 4428      61723136 
 4429              	.LASF6:
 4430 001e 5F5F7569 		.ascii	"__uint8_t\000"
 4430      6E74385F 
 4430      7400
 4431              	.LASF21:
 4432 0028 73746172 		.ascii	"start\000"
 4432      7400
 4433              	.LASF41:
 4434 002e 6765745F 		.ascii	"get_frequency\000"
ARM GAS  C:\Users\DEVELO~1\AppData\Local\Temp\ccNqWhix.s 			page 79


 4434      66726571 
 4434      75656E63 
 4434      7900
 4435              	.LASF31:
 4436 003c 68616C52 		.ascii	"halRegWaitAllSet32X\000"
 4436      65675761 
 4436      6974416C 
 4436      6C536574 
 4436      33325800 
 4437              	.LASF0:
 4438 0050 756E7369 		.ascii	"unsigned int\000"
 4438      676E6564 
 4438      20696E74 
 4438      00
 4439              	.LASF24:
 4440 005d 68616C52 		.ascii	"halRegWaitAnyClear8X\000"
 4440      65675761 
 4440      6974416E 
 4440      79436C65 
 4440      61723858 
 4441              	.LASF18:
 4442 0072 68616C63 		.ascii	"halcnt_t\000"
 4442      6E745F74 
 4442      00
 4443              	.LASF4:
 4444 007b 756E7369 		.ascii	"unsigned char\000"
 4444      676E6564 
 4444      20636861 
 4444      7200
 4445              	.LASF22:
 4446 0089 68616C52 		.ascii	"halRegWaitAnyClear32X\000"
 4446      65675761 
 4446      6974416E 
 4446      79436C65 
 4446      61723332 
 4447              	.LASF33:
 4448 009f 68616C52 		.ascii	"halRegWaitAllSet8X\000"
 4448      65675761 
 4448      6974416C 
 4448      6C536574 
 4448      385800
 4449              	.LASF35:
 4450 00b2 6D617463 		.ascii	"match\000"
 4450      6800
 4451              	.LASF11:
 4452 00b8 6C6F6E67 		.ascii	"long unsigned int\000"
 4452      20756E73 
 4452      69676E65 
 4452      6420696E 
 4452      7400
 4453              	.LASF20:
 4454 00ca 76616C70 		.ascii	"valp\000"
 4454      00
 4455              	.LASF8:
 4456 00cf 73686F72 		.ascii	"short unsigned int\000"
 4456      7420756E 
 4456      7369676E 
ARM GAS  C:\Users\DEVELO~1\AppData\Local\Temp\ccNqWhix.s 			page 80


 4456      65642069 
 4456      6E7400
 4457              	.LASF9:
 4458 00e2 6C6F6E67 		.ascii	"long int\000"
 4458      20696E74 
 4458      00
 4459              	.LASF47:
 4460 00eb 69735F63 		.ascii	"is_counter_within\000"
 4460      6F756E74 
 4460      65725F77 
 4460      69746869 
 4460      6E00
 4461              	.LASF44:
 4462 00fd 2E2E2F2E 		.ascii	"../../../os/hal/src/hal_safety.c\000"
 4462      2E2F2E2E 
 4462      2F6F732F 
 4462      68616C2F 
 4462      7372632F 
 4463              	.LASF7:
 4464 011e 5F5F7569 		.ascii	"__uint16_t\000"
 4464      6E743136 
 4464      5F7400
 4465              	.LASF10:
 4466 0129 5F5F7569 		.ascii	"__uint32_t\000"
 4466      6E743332 
 4466      5F7400
 4467              	.LASF45:
 4468 0134 433A5C43 		.ascii	"C:\\ChibiStudio\\ChibiOS-master\\demos\\STM32\\CUST"
 4468      68696269 
 4468      53747564 
 4468      696F5C43 
 4468      68696269 
 4469 0162 4F4D5F48 		.ascii	"OM_H743IIT6_maj\000"
 4469      37343349 
 4469      4954365F 
 4469      6D616A00 
 4470              	.LASF34:
 4471 0172 68616C52 		.ascii	"halRegWaitMatch32X\000"
 4471      65675761 
 4471      69744D61 
 4471      74636833 
 4471      325800
 4472              	.LASF40:
 4473 0185 6765745F 		.ascii	"get_counter\000"
 4473      636F756E 
 4473      74657200 
 4474              	.LASF32:
 4475 0191 68616C52 		.ascii	"halRegWaitAllSet16X\000"
 4475      65675761 
 4475      6974416C 
 4475      6C536574 
 4475      31365800 
 4476              	.LASF43:
 4477 01a5 474E5520 		.ascii	"GNU C17 11.3.1 20220712 -mcpu=cortex-m7 -mthumb -mf"
 4477      43313720 
 4477      31312E33 
 4477      2E312032 
ARM GAS  C:\Users\DEVELO~1\AppData\Local\Temp\ccNqWhix.s 			page 81


 4477      30323230 
 4478 01d8 6C6F6174 		.ascii	"loat-abi=hard -mfpu=fpv5-d16 -march=armv7e-m+fp.dp "
 4478      2D616269 
 4478      3D686172 
 4478      64202D6D 
 4478      6670753D 
 4479 020b 2D676764 		.ascii	"-ggdb -O2 -ffunction-sections -fdata-sections -fno-"
 4479      62202D4F 
 4479      32202D66 
 4479      66756E63 
 4479      74696F6E 
 4480 023e 636F6D6D 		.ascii	"common\000"
 4480      6F6E00
 4481              	.LASF1:
 4482 0245 6C6F6E67 		.ascii	"long long int\000"
 4482      206C6F6E 
 4482      6720696E 
 4482      7400
 4483              	.LASF25:
 4484 0253 68616C52 		.ascii	"halRegWaitAllClear32X\000"
 4484      65675761 
 4484      6974416C 
 4484      6C436C65 
 4484      61723332 
 4485              	.LASF13:
 4486 0269 75696E74 		.ascii	"uint8_t\000"
 4486      385F7400 
 4487              	.LASF30:
 4488 0271 68616C52 		.ascii	"halRegWaitAnySet8X\000"
 4488      65675761 
 4488      6974416E 
 4488      79536574 
 4488      385800
 4489              	.LASF42:
 4490 0284 72656173 		.ascii	"reason\000"
 4490      6F6E00
 4491              	.LASF3:
 4492 028b 7369676E 		.ascii	"signed char\000"
 4492      65642063 
 4492      68617200 
 4493              	.LASF48:
 4494 0297 6F73616C 		.ascii	"osalSysHalt\000"
 4494      53797348 
 4494      616C7400 
 4495              	.LASF2:
 4496 02a3 6C6F6E67 		.ascii	"long double\000"
 4496      20646F75 
 4496      626C6500 
 4497              	.LASF23:
 4498 02af 68616C52 		.ascii	"halRegWaitAnyClear16X\000"
 4498      65675761 
 4498      6974416E 
 4498      79436C65 
 4498      61723136 
 4499              	.LASF19:
 4500 02c5 6D61736B 		.ascii	"mask\000"
 4500      00
ARM GAS  C:\Users\DEVELO~1\AppData\Local\Temp\ccNqWhix.s 			page 82


 4501              	.LASF29:
 4502 02ca 68616C52 		.ascii	"halRegWaitAnySet16X\000"
 4502      65675761 
 4502      6974416E 
 4502      79536574 
 4502      31365800 
 4503              	.LASF5:
 4504 02de 73686F72 		.ascii	"short int\000"
 4504      7420696E 
 4504      7400
 4505              	.LASF14:
 4506 02e8 75696E74 		.ascii	"uint16_t\000"
 4506      31365F74 
 4506      00
 4507              	.LASF38:
 4508 02f1 68616C53 		.ascii	"halSftFail\000"
 4508      66744661 
 4508      696C00
 4509              	.LASF37:
 4510 02fc 68616C52 		.ascii	"halRegWaitMatch8X\000"
 4510      65675761 
 4510      69744D61 
 4510      74636838 
 4510      5800
 4511              	.LASF28:
 4512 030e 68616C52 		.ascii	"halRegWaitAnySet32X\000"
 4512      65675761 
 4512      6974416E 
 4512      79536574 
 4512      33325800 
 4513              	.LASF16:
 4514 0322 63686172 		.ascii	"char\000"
 4514      00
 4515              	.LASF46:
 4516 0327 63685379 		.ascii	"chSysHalt\000"
 4516      7348616C 
 4516      7400
 4517              	.LASF15:
 4518 0331 75696E74 		.ascii	"uint32_t\000"
 4518      33325F74 
 4518      00
 4519              	.LASF36:
 4520 033a 68616C52 		.ascii	"halRegWaitMatch16X\000"
 4520      65675761 
 4520      69744D61 
 4520      74636831 
 4520      365800
 4521              	.LASF17:
 4522 034d 5F426F6F 		.ascii	"_Bool\000"
 4522      6C00
 4523              	.LASF27:
 4524 0353 68616C52 		.ascii	"halRegWaitAllClear8X\000"
 4524      65675761 
 4524      6974416C 
 4524      6C436C65 
 4524      61723858 
 4525              	.LASF12:
ARM GAS  C:\Users\DEVELO~1\AppData\Local\Temp\ccNqWhix.s 			page 83


 4526 0368 6C6F6E67 		.ascii	"long long unsigned int\000"
 4526      206C6F6E 
 4526      6720756E 
 4526      7369676E 
 4526      65642069 
 4527              		.ident	"GCC: (Arm GNU Toolchain 11.3.Rel1) 11.3.1 20220712"
ARM GAS  C:\Users\DEVELO~1\AppData\Local\Temp\ccNqWhix.s 			page 84


DEFINED SYMBOLS
                            *ABS*:00000000 hal_safety.c
C:\Users\DEVELO~1\AppData\Local\Temp\ccNqWhix.s:19     .text.halSftFail:00000000 $t
C:\Users\DEVELO~1\AppData\Local\Temp\ccNqWhix.s:26     .text.halSftFail:00000000 halSftFail
C:\Users\DEVELO~1\AppData\Local\Temp\ccNqWhix.s:69     .text.halRegWaitMatch8X:00000000 $t
C:\Users\DEVELO~1\AppData\Local\Temp\ccNqWhix.s:76     .text.halRegWaitMatch8X:00000000 halRegWaitMatch8X
C:\Users\DEVELO~1\AppData\Local\Temp\ccNqWhix.s:156    .text.halRegWaitMatch16X:00000000 $t
C:\Users\DEVELO~1\AppData\Local\Temp\ccNqWhix.s:163    .text.halRegWaitMatch16X:00000000 halRegWaitMatch16X
C:\Users\DEVELO~1\AppData\Local\Temp\ccNqWhix.s:243    .text.halRegWaitMatch32X:00000000 $t
C:\Users\DEVELO~1\AppData\Local\Temp\ccNqWhix.s:250    .text.halRegWaitMatch32X:00000000 halRegWaitMatch32X
C:\Users\DEVELO~1\AppData\Local\Temp\ccNqWhix.s:332    .text.halRegWaitAllSet8X:00000000 $t
C:\Users\DEVELO~1\AppData\Local\Temp\ccNqWhix.s:339    .text.halRegWaitAllSet8X:00000000 halRegWaitAllSet8X
C:\Users\DEVELO~1\AppData\Local\Temp\ccNqWhix.s:394    .text.halRegWaitAllSet16X:00000000 $t
C:\Users\DEVELO~1\AppData\Local\Temp\ccNqWhix.s:401    .text.halRegWaitAllSet16X:00000000 halRegWaitAllSet16X
C:\Users\DEVELO~1\AppData\Local\Temp\ccNqWhix.s:456    .text.halRegWaitAllSet32X:00000000 $t
C:\Users\DEVELO~1\AppData\Local\Temp\ccNqWhix.s:463    .text.halRegWaitAllSet32X:00000000 halRegWaitAllSet32X
C:\Users\DEVELO~1\AppData\Local\Temp\ccNqWhix.s:530    .text.halRegWaitAnySet8X:00000000 $t
C:\Users\DEVELO~1\AppData\Local\Temp\ccNqWhix.s:537    .text.halRegWaitAnySet8X:00000000 halRegWaitAnySet8X
C:\Users\DEVELO~1\AppData\Local\Temp\ccNqWhix.s:590    .text.halRegWaitAnySet16X:00000000 $t
C:\Users\DEVELO~1\AppData\Local\Temp\ccNqWhix.s:597    .text.halRegWaitAnySet16X:00000000 halRegWaitAnySet16X
C:\Users\DEVELO~1\AppData\Local\Temp\ccNqWhix.s:650    .text.halRegWaitAnySet32X:00000000 $t
C:\Users\DEVELO~1\AppData\Local\Temp\ccNqWhix.s:657    .text.halRegWaitAnySet32X:00000000 halRegWaitAnySet32X
C:\Users\DEVELO~1\AppData\Local\Temp\ccNqWhix.s:726    .text.halRegWaitAllClear8X:00000000 $t
C:\Users\DEVELO~1\AppData\Local\Temp\ccNqWhix.s:733    .text.halRegWaitAllClear8X:00000000 halRegWaitAllClear8X
C:\Users\DEVELO~1\AppData\Local\Temp\ccNqWhix.s:788    .text.halRegWaitAllClear16X:00000000 $t
C:\Users\DEVELO~1\AppData\Local\Temp\ccNqWhix.s:795    .text.halRegWaitAllClear16X:00000000 halRegWaitAllClear16X
C:\Users\DEVELO~1\AppData\Local\Temp\ccNqWhix.s:850    .text.halRegWaitAllClear32X:00000000 $t
C:\Users\DEVELO~1\AppData\Local\Temp\ccNqWhix.s:857    .text.halRegWaitAllClear32X:00000000 halRegWaitAllClear32X
C:\Users\DEVELO~1\AppData\Local\Temp\ccNqWhix.s:924    .text.halRegWaitAnyClear8X:00000000 $t
C:\Users\DEVELO~1\AppData\Local\Temp\ccNqWhix.s:931    .text.halRegWaitAnyClear8X:00000000 halRegWaitAnyClear8X
C:\Users\DEVELO~1\AppData\Local\Temp\ccNqWhix.s:986    .text.halRegWaitAnyClear16X:00000000 $t
C:\Users\DEVELO~1\AppData\Local\Temp\ccNqWhix.s:993    .text.halRegWaitAnyClear16X:00000000 halRegWaitAnyClear16X
C:\Users\DEVELO~1\AppData\Local\Temp\ccNqWhix.s:1048   .text.halRegWaitAnyClear32X:00000000 $t
C:\Users\DEVELO~1\AppData\Local\Temp\ccNqWhix.s:1055   .text.halRegWaitAnyClear32X:00000000 halRegWaitAnyClear32X

UNDEFINED SYMBOLS
chSysHalt
