ARM GAS  C:\Users\DEVELO~1\AppData\Local\Temp\ccYymk6T.s 			page 1


   1              		.cpu cortex-m7
   2              		.arch armv7e-m
   3              		.fpu fpv5-d16
   4              		.eabi_attribute 28, 1
   5              		.eabi_attribute 20, 1
   6              		.eabi_attribute 21, 1
   7              		.eabi_attribute 23, 3
   8              		.eabi_attribute 24, 1
   9              		.eabi_attribute 25, 1
  10              		.eabi_attribute 26, 1
  11              		.eabi_attribute 30, 2
  12              		.eabi_attribute 34, 1
  13              		.eabi_attribute 18, 4
  14              		.file	"hal_st.c"
  15              		.text
  16              	.Ltext0:
  17              		.cfi_sections	.debug_frame
  18              		.section	.text.stInit,"ax",%progbits
  19              		.align	1
  20              		.p2align 2,,3
  21              		.global	stInit
  22              		.syntax unified
  23              		.thumb
  24              		.thumb_func
  25              		.type	stInit, %function
  26              	stInit:
  27              	.LFB448:
  28              		.file 1 "./docs/ChibiOS/os/hal/src/hal_st.c"
  29              		.loc 1 69 19 view -0
  30              		.cfi_startproc
  31              		@ args = 0, pretend = 0, frame = 0
  32              		@ frame_needed = 0, uses_anonymous_args = 0
  33              		@ link register save eliminated.
  34              		.loc 1 77 3 view .LVU1
  35 0000 FFF7FEBF 		b	st_lld_init
  36              	.LVL0:
  37              		.cfi_endproc
  38              	.LFE448:
  39              		.size	stInit, .-stInit
  40              		.section	.text.stGetCounter,"ax",%progbits
  41              		.align	1
  42              		.p2align 2,,3
  43              		.global	stGetCounter
  44              		.syntax unified
  45              		.thumb
  46              		.thumb_func
  47              		.type	stGetCounter, %function
  48              	stGetCounter:
  49              	.LFB449:
  50              		.loc 1 103 30 view -0
  51              		.cfi_startproc
  52              		@ args = 0, pretend = 0, frame = 0
  53              		@ frame_needed = 0, uses_anonymous_args = 0
  54              		@ link register save eliminated.
  55              		.loc 1 105 3 view .LVU3
  56              	.LBB14:
  57              	.LBI14:
ARM GAS  C:\Users\DEVELO~1\AppData\Local\Temp\ccYymk6T.s 			page 2


  58              		.file 2 "./docs/ChibiOS/os/hal/ports/STM32/LLD/SYSTICKv1/hal_st_lld.h"
  59              		.loc 2 804 25 view .LVU4
  60              	.LBB15:
  61              		.loc 2 806 3 view .LVU5
  62              		.loc 2 806 10 is_stmt 0 view .LVU6
  63 0000 4FF08043 		mov	r3, #1073741824
  64 0004 586A     		ldr	r0, [r3, #36]
  65              	.LBE15:
  66              	.LBE14:
  67              		.loc 1 106 1 view .LVU7
  68 0006 7047     		bx	lr
  69              		.cfi_endproc
  70              	.LFE449:
  71              		.size	stGetCounter, .-stGetCounter
  72              		.section	.text.stStartAlarm,"ax",%progbits
  73              		.align	1
  74              		.p2align 2,,3
  75              		.global	stStartAlarm
  76              		.syntax unified
  77              		.thumb
  78              		.thumb_func
  79              		.type	stStartAlarm, %function
  80              	stStartAlarm:
  81              	.LVL1:
  82              	.LFB450:
  83              		.loc 1 119 38 is_stmt 1 view -0
  84              		.cfi_startproc
  85              		@ args = 0, pretend = 0, frame = 0
  86              		@ frame_needed = 0, uses_anonymous_args = 0
  87              		@ link register save eliminated.
  88              		.loc 1 121 3 view .LVU9
  89              		.loc 1 121 3 view .LVU10
  90              		.loc 1 121 3 view .LVU11
  91              		.loc 1 123 3 view .LVU12
  92              	.LBB16:
  93              	.LBB17:
  94              		.loc 2 820 24 is_stmt 0 view .LVU13
  95 0000 4FF08043 		mov	r3, #1073741824
  96              		.loc 2 821 24 view .LVU14
  97 0004 0021     		movs	r1, #0
  98              		.loc 2 823 24 view .LVU15
  99 0006 0222     		movs	r2, #2
 100              	.LVL2:
 101              		.loc 2 823 24 view .LVU16
 102              	.LBE17:
 103              	.LBI16:
 104              		.loc 2 818 20 is_stmt 1 view .LVU17
 105              	.LBB18:
 106              		.loc 2 820 3 view .LVU18
 107              		.loc 2 820 24 is_stmt 0 view .LVU19
 108 0008 5863     		str	r0, [r3, #52]
 109              		.loc 2 821 3 is_stmt 1 view .LVU20
 110              		.loc 2 821 24 is_stmt 0 view .LVU21
 111 000a 1961     		str	r1, [r3, #16]
 112              		.loc 2 823 3 is_stmt 1 view .LVU22
 113              		.loc 2 823 24 is_stmt 0 view .LVU23
 114 000c DA60     		str	r2, [r3, #12]
ARM GAS  C:\Users\DEVELO~1\AppData\Local\Temp\ccYymk6T.s 			page 3


 115              	.LVL3:
 116              		.loc 2 823 24 view .LVU24
 117              	.LBE18:
 118              	.LBE16:
 119              		.loc 1 124 1 view .LVU25
 120 000e 7047     		bx	lr
 121              		.cfi_endproc
 122              	.LFE450:
 123              		.size	stStartAlarm, .-stStartAlarm
 124              		.section	.text.stStopAlarm,"ax",%progbits
 125              		.align	1
 126              		.p2align 2,,3
 127              		.global	stStopAlarm
 128              		.syntax unified
 129              		.thumb
 130              		.thumb_func
 131              		.type	stStopAlarm, %function
 132              	stStopAlarm:
 133              	.LFB451:
 134              		.loc 1 133 24 is_stmt 1 view -0
 135              		.cfi_startproc
 136              		@ args = 0, pretend = 0, frame = 0
 137              		@ frame_needed = 0, uses_anonymous_args = 0
 138              		@ link register save eliminated.
 139              		.loc 1 135 3 view .LVU27
 140              	.LBB19:
 141              	.LBI19:
 142              		.loc 2 834 20 view .LVU28
 143              	.LBB20:
 144              		.loc 2 837 3 view .LVU29
 145              		.loc 2 837 22 is_stmt 0 view .LVU30
 146 0000 4FF08043 		mov	r3, #1073741824
 147 0004 0022     		movs	r2, #0
 148 0006 DA60     		str	r2, [r3, #12]
 149              	.LBE20:
 150              	.LBE19:
 151              		.loc 1 136 1 view .LVU31
 152 0008 7047     		bx	lr
 153              		.cfi_endproc
 154              	.LFE451:
 155              		.size	stStopAlarm, .-stStopAlarm
 156 000a 00BF     		.section	.text.stSetAlarm,"ax",%progbits
 157              		.align	1
 158              		.p2align 2,,3
 159              		.global	stSetAlarm
 160              		.syntax unified
 161              		.thumb
 162              		.thumb_func
 163              		.type	stSetAlarm, %function
 164              	stSetAlarm:
 165              	.LVL4:
 166              	.LFB452:
 167              		.loc 1 147 36 is_stmt 1 view -0
 168              		.cfi_startproc
 169              		@ args = 0, pretend = 0, frame = 0
 170              		@ frame_needed = 0, uses_anonymous_args = 0
 171              		@ link register save eliminated.
ARM GAS  C:\Users\DEVELO~1\AppData\Local\Temp\ccYymk6T.s 			page 4


 172              		.loc 1 149 3 view .LVU33
 173              		.loc 1 149 3 view .LVU34
 174              		.loc 1 149 3 view .LVU35
 175              		.loc 1 151 3 view .LVU36
 176              	.LBB21:
 177              	.LBB22:
 178              		.loc 2 852 24 is_stmt 0 view .LVU37
 179 0000 4FF08043 		mov	r3, #1073741824
 180              	.LVL5:
 181              		.loc 2 852 24 view .LVU38
 182              	.LBE22:
 183              	.LBI21:
 184              		.loc 2 850 20 is_stmt 1 view .LVU39
 185              	.LBB23:
 186              		.loc 2 852 3 view .LVU40
 187              		.loc 2 852 24 is_stmt 0 view .LVU41
 188 0004 5863     		str	r0, [r3, #52]
 189              	.LVL6:
 190              		.loc 2 852 24 view .LVU42
 191              	.LBE23:
 192              	.LBE21:
 193              		.loc 1 152 1 view .LVU43
 194 0006 7047     		bx	lr
 195              		.cfi_endproc
 196              	.LFE452:
 197              		.size	stSetAlarm, .-stSetAlarm
 198              		.section	.text.stGetAlarm,"ax",%progbits
 199              		.align	1
 200              		.p2align 2,,3
 201              		.global	stGetAlarm
 202              		.syntax unified
 203              		.thumb
 204              		.thumb_func
 205              		.type	stGetAlarm, %function
 206              	stGetAlarm:
 207              	.LFB453:
 208              		.loc 1 163 28 is_stmt 1 view -0
 209              		.cfi_startproc
 210              		@ args = 0, pretend = 0, frame = 0
 211              		@ frame_needed = 0, uses_anonymous_args = 0
 212              		@ link register save eliminated.
 213              		.loc 1 165 3 view .LVU45
 214              		.loc 1 165 3 view .LVU46
 215              		.loc 1 165 3 view .LVU47
 216              		.loc 1 167 3 view .LVU48
 217              	.LBB24:
 218              	.LBI24:
 219              		.loc 2 862 25 view .LVU49
 220              	.LBB25:
 221              		.loc 2 864 3 view .LVU50
 222              		.loc 2 864 10 is_stmt 0 view .LVU51
 223 0000 4FF08043 		mov	r3, #1073741824
 224 0004 586B     		ldr	r0, [r3, #52]
 225              	.LBE25:
 226              	.LBE24:
 227              		.loc 1 168 1 view .LVU52
 228 0006 7047     		bx	lr
ARM GAS  C:\Users\DEVELO~1\AppData\Local\Temp\ccYymk6T.s 			page 5


 229              		.cfi_endproc
 230              	.LFE453:
 231              		.size	stGetAlarm, .-stGetAlarm
 232              		.section	.text.stIsAlarmActive,"ax",%progbits
 233              		.align	1
 234              		.p2align 2,,3
 235              		.global	stIsAlarmActive
 236              		.syntax unified
 237              		.thumb
 238              		.thumb_func
 239              		.type	stIsAlarmActive, %function
 240              	stIsAlarmActive:
 241              	.LFB454:
 242              		.loc 1 179 28 is_stmt 1 view -0
 243              		.cfi_startproc
 244              		@ args = 0, pretend = 0, frame = 0
 245              		@ frame_needed = 0, uses_anonymous_args = 0
 246              		@ link register save eliminated.
 247              		.loc 1 181 3 view .LVU54
 248              	.LBB26:
 249              	.LBI26:
 250              		.loc 2 876 20 view .LVU55
 251              	.LBB27:
 252              		.loc 2 878 3 view .LVU56
 253              		.loc 2 878 30 is_stmt 0 view .LVU57
 254 0000 4FF08043 		mov	r3, #1073741824
 255 0004 D868     		ldr	r0, [r3, #12]
 256              	.LBE27:
 257              	.LBE26:
 258              		.loc 1 182 1 view .LVU58
 259 0006 C0F34000 		ubfx	r0, r0, #1, #1
 260 000a 7047     		bx	lr
 261              		.cfi_endproc
 262              	.LFE454:
 263              		.size	stIsAlarmActive, .-stIsAlarmActive
 264              		.text
 265              	.Letext0:
 266              		.file 3 "c:\\chibistudio\\tools\\gnu tools arm embedded\\11.3 2022.08\\arm-none-eabi\\include\\mac
 267              		.file 4 "c:\\chibistudio\\tools\\gnu tools arm embedded\\11.3 2022.08\\arm-none-eabi\\include\\sys
 268              		.file 5 "./docs/ChibiOS/os/rt/include/chtime.h"
 269              		.file 6 "./docs/ChibiOS/os/hal/ports/STM32/LLD/TIMv1/stm32_tim.h"
 270              		.section	.debug_info,"",%progbits
 271              	.Ldebug_info0:
 272 0000 DF030000 		.4byte	0x3df
 273 0004 0500     		.2byte	0x5
 274 0006 01       		.byte	0x1
 275 0007 04       		.byte	0x4
 276 0008 00000000 		.4byte	.Ldebug_abbrev0
 277 000c 13       		.uleb128 0x13
 278 000d 1E010000 		.4byte	.LASF39
 279 0011 1D       		.byte	0x1d
 280 0012 05000000 		.4byte	.LASF40
 281 0016 C9010000 		.4byte	.LASF41
 282 001a 0C000000 		.4byte	.LLRL2
 283 001e 00000000 		.4byte	0
 284 0022 00000000 		.4byte	.Ldebug_line0
 285 0026 14       		.uleb128 0x14
ARM GAS  C:\Users\DEVELO~1\AppData\Local\Temp\ccYymk6T.s 			page 6


 286 0027 04       		.byte	0x4
 287 0028 05       		.byte	0x5
 288 0029 696E7400 		.ascii	"int\000"
 289 002d 01       		.uleb128 0x1
 290 002e 04       		.byte	0x4
 291 002f 07       		.byte	0x7
 292 0030 18020000 		.4byte	.LASF0
 293 0034 01       		.uleb128 0x1
 294 0035 08       		.byte	0x8
 295 0036 05       		.byte	0x5
 296 0037 63020000 		.4byte	.LASF1
 297 003b 01       		.uleb128 0x1
 298 003c 08       		.byte	0x8
 299 003d 04       		.byte	0x4
 300 003e 50020000 		.4byte	.LASF2
 301 0042 01       		.uleb128 0x1
 302 0043 01       		.byte	0x1
 303 0044 06       		.byte	0x6
 304 0045 B5020000 		.4byte	.LASF3
 305 0049 01       		.uleb128 0x1
 306 004a 01       		.byte	0x1
 307 004b 08       		.byte	0x8
 308 004c ED000000 		.4byte	.LASF4
 309 0050 01       		.uleb128 0x1
 310 0051 02       		.byte	0x2
 311 0052 05       		.byte	0x5
 312 0053 6E000000 		.4byte	.LASF5
 313 0057 01       		.uleb128 0x1
 314 0058 02       		.byte	0x2
 315 0059 07       		.byte	0x7
 316 005a 4F000000 		.4byte	.LASF6
 317 005e 01       		.uleb128 0x1
 318 005f 04       		.byte	0x4
 319 0060 05       		.byte	0x5
 320 0061 A1020000 		.4byte	.LASF7
 321 0065 08       		.uleb128 0x8
 322 0066 BE010000 		.4byte	.LASF10
 323 006a 03       		.byte	0x3
 324 006b 4F       		.byte	0x4f
 325 006c 19       		.byte	0x19
 326 006d 71000000 		.4byte	0x71
 327 0071 01       		.uleb128 0x1
 328 0072 04       		.byte	0x4
 329 0073 07       		.byte	0x7
 330 0074 FB000000 		.4byte	.LASF8
 331 0078 01       		.uleb128 0x1
 332 0079 08       		.byte	0x8
 333 007a 07       		.byte	0x7
 334 007b D6000000 		.4byte	.LASF9
 335 007f 08       		.uleb128 0x8
 336 0080 98020000 		.4byte	.LASF11
 337 0084 04       		.byte	0x4
 338 0085 30       		.byte	0x30
 339 0086 14       		.byte	0x14
 340 0087 65000000 		.4byte	0x65
 341 008b 09       		.uleb128 0x9
 342 008c 7F000000 		.4byte	0x7f
ARM GAS  C:\Users\DEVELO~1\AppData\Local\Temp\ccYymk6T.s 			page 7


 343 0090 01       		.uleb128 0x1
 344 0091 01       		.byte	0x1
 345 0092 08       		.byte	0x8
 346 0093 AA020000 		.4byte	.LASF12
 347 0097 0A       		.uleb128 0xa
 348 0098 90000000 		.4byte	0x90
 349 009c 08       		.uleb128 0x8
 350 009d 45000000 		.4byte	.LASF13
 351 00a1 05       		.byte	0x5
 352 00a2 6D       		.byte	0x6d
 353 00a3 12       		.byte	0x12
 354 00a4 7F000000 		.4byte	0x7f
 355 00a8 04       		.uleb128 0x4
 356 00a9 8B000000 		.4byte	0x8b
 357 00ad B8000000 		.4byte	0xb8
 358 00b1 05       		.uleb128 0x5
 359 00b2 2D000000 		.4byte	0x2d
 360 00b6 03       		.byte	0x3
 361 00b7 00       		.byte	0
 362 00b8 09       		.uleb128 0x9
 363 00b9 A8000000 		.4byte	0xa8
 364 00bd 04       		.uleb128 0x4
 365 00be 8B000000 		.4byte	0x8b
 366 00c2 CD000000 		.4byte	0xcd
 367 00c6 05       		.uleb128 0x5
 368 00c7 2D000000 		.4byte	0x2d
 369 00cb 01       		.byte	0x1
 370 00cc 00       		.byte	0
 371 00cd 09       		.uleb128 0x9
 372 00ce BD000000 		.4byte	0xbd
 373 00d2 01       		.uleb128 0x1
 374 00d3 01       		.byte	0x1
 375 00d4 02       		.byte	0x2
 376 00d5 C1020000 		.4byte	.LASF14
 377 00d9 15       		.uleb128 0x15
 378 00da 60       		.byte	0x60
 379 00db 06       		.byte	0x6
 380 00dc F601     		.2byte	0x1f6
 381 00de 09       		.byte	0x9
 382 00df D2010000 		.4byte	0x1d2
 383 00e3 02       		.uleb128 0x2
 384 00e4 43523100 		.ascii	"CR1\000"
 385 00e8 F701     		.2byte	0x1f7
 386 00ea 8B000000 		.4byte	0x8b
 387 00ee 00       		.byte	0
 388 00ef 02       		.uleb128 0x2
 389 00f0 43523200 		.ascii	"CR2\000"
 390 00f4 F801     		.2byte	0x1f8
 391 00f6 8B000000 		.4byte	0x8b
 392 00fa 04       		.byte	0x4
 393 00fb 03       		.uleb128 0x3
 394 00fc 87020000 		.4byte	.LASF15
 395 0100 F901     		.2byte	0x1f9
 396 0102 8B000000 		.4byte	0x8b
 397 0106 08       		.byte	0x8
 398 0107 03       		.uleb128 0x3
 399 0108 B5000000 		.4byte	.LASF16
ARM GAS  C:\Users\DEVELO~1\AppData\Local\Temp\ccYymk6T.s 			page 8


 400 010c FA01     		.2byte	0x1fa
 401 010e 8B000000 		.4byte	0x8b
 402 0112 0C       		.byte	0xc
 403 0113 02       		.uleb128 0x2
 404 0114 535200   		.ascii	"SR\000"
 405 0117 FB01     		.2byte	0x1fb
 406 0119 8B000000 		.4byte	0x8b
 407 011d 10       		.byte	0x10
 408 011e 02       		.uleb128 0x2
 409 011f 45475200 		.ascii	"EGR\000"
 410 0123 FC01     		.2byte	0x1fc
 411 0125 8B000000 		.4byte	0x8b
 412 0129 14       		.byte	0x14
 413 012a 03       		.uleb128 0x3
 414 012b 8C020000 		.4byte	.LASF17
 415 012f FD01     		.2byte	0x1fd
 416 0131 8B000000 		.4byte	0x8b
 417 0135 18       		.byte	0x18
 418 0136 03       		.uleb128 0x3
 419 0137 AF020000 		.4byte	.LASF18
 420 013b FE01     		.2byte	0x1fe
 421 013d 8B000000 		.4byte	0x8b
 422 0141 1C       		.byte	0x1c
 423 0142 03       		.uleb128 0x3
 424 0143 82020000 		.4byte	.LASF19
 425 0147 FF01     		.2byte	0x1ff
 426 0149 8B000000 		.4byte	0x8b
 427 014d 20       		.byte	0x20
 428 014e 02       		.uleb128 0x2
 429 014f 434E5400 		.ascii	"CNT\000"
 430 0153 0002     		.2byte	0x200
 431 0155 8B000000 		.4byte	0x8b
 432 0159 24       		.byte	0x24
 433 015a 02       		.uleb128 0x2
 434 015b 50534300 		.ascii	"PSC\000"
 435 015f 0102     		.2byte	0x201
 436 0161 8B000000 		.4byte	0x8b
 437 0165 28       		.byte	0x28
 438 0166 02       		.uleb128 0x2
 439 0167 41525200 		.ascii	"ARR\000"
 440 016b 0202     		.2byte	0x202
 441 016d 8B000000 		.4byte	0x8b
 442 0171 2C       		.byte	0x2c
 443 0172 02       		.uleb128 0x2
 444 0173 52435200 		.ascii	"RCR\000"
 445 0177 0302     		.2byte	0x203
 446 0179 8B000000 		.4byte	0x8b
 447 017d 30       		.byte	0x30
 448 017e 02       		.uleb128 0x2
 449 017f 43435200 		.ascii	"CCR\000"
 450 0183 0402     		.2byte	0x204
 451 0185 B8000000 		.4byte	0xb8
 452 0189 34       		.byte	0x34
 453 018a 03       		.uleb128 0x3
 454 018b 00000000 		.4byte	.LASF20
 455 018f 0502     		.2byte	0x205
 456 0191 8B000000 		.4byte	0x8b
ARM GAS  C:\Users\DEVELO~1\AppData\Local\Temp\ccYymk6T.s 			page 9


 457 0195 44       		.byte	0x44
 458 0196 02       		.uleb128 0x2
 459 0197 44435200 		.ascii	"DCR\000"
 460 019b 1302     		.2byte	0x213
 461 019d 8B000000 		.4byte	0x8b
 462 01a1 48       		.byte	0x48
 463 01a2 03       		.uleb128 0x3
 464 01a3 07020000 		.4byte	.LASF21
 465 01a7 1402     		.2byte	0x214
 466 01a9 8B000000 		.4byte	0x8b
 467 01ad 4C       		.byte	0x4c
 468 01ae 02       		.uleb128 0x2
 469 01af 4F5200   		.ascii	"OR\000"
 470 01b2 1502     		.2byte	0x215
 471 01b4 8B000000 		.4byte	0x8b
 472 01b8 50       		.byte	0x50
 473 01b9 03       		.uleb128 0x3
 474 01ba 92020000 		.4byte	.LASF22
 475 01be 1602     		.2byte	0x216
 476 01c0 8B000000 		.4byte	0x8b
 477 01c4 54       		.byte	0x54
 478 01c5 03       		.uleb128 0x3
 479 01c6 C7020000 		.4byte	.LASF23
 480 01ca 1702     		.2byte	0x217
 481 01cc CD000000 		.4byte	0xcd
 482 01d0 58       		.byte	0x58
 483 01d1 00       		.byte	0
 484 01d2 16       		.uleb128 0x16
 485 01d3 97000000 		.4byte	.LASF24
 486 01d7 06       		.byte	0x6
 487 01d8 1902     		.2byte	0x219
 488 01da 03       		.byte	0x3
 489 01db D9000000 		.4byte	0xd9
 490 01df 17       		.uleb128 0x17
 491 01e0 62000000 		.4byte	.LASF42
 492 01e4 02       		.byte	0x2
 493 01e5 1103     		.2byte	0x311
 494 01e7 08       		.byte	0x8
 495 01e8 0B       		.uleb128 0xb
 496 01e9 28000000 		.4byte	.LASF25
 497 01ed B3       		.byte	0xb3
 498 01ee 06       		.byte	0x6
 499 01ef D2000000 		.4byte	0xd2
 500 01f3 00000000 		.4byte	.LFB454
 501 01f7 0C000000 		.4byte	.LFE454-.LFB454
 502 01fb 01       		.uleb128 0x1
 503 01fc 9C       		.byte	0x9c
 504 01fd 16020000 		.4byte	0x216
 505 0201 06       		.uleb128 0x6
 506 0202 84030000 		.4byte	0x384
 507 0206 00000000 		.4byte	.LBI26
 508 020a 02       		.byte	.LVU55
 509 020b 00000000 		.4byte	.LBB26
 510 020f 06000000 		.4byte	.LBE26-.LBB26
 511 0213 B5       		.byte	0xb5
 512 0214 0A       		.byte	0xa
 513 0215 00       		.byte	0
ARM GAS  C:\Users\DEVELO~1\AppData\Local\Temp\ccYymk6T.s 			page 10


 514 0216 0B       		.uleb128 0xb
 515 0217 CC020000 		.4byte	.LASF26
 516 021b A3       		.byte	0xa3
 517 021c 0B       		.byte	0xb
 518 021d 9C000000 		.4byte	0x9c
 519 0221 00000000 		.4byte	.LFB453
 520 0225 08000000 		.4byte	.LFE453-.LFB453
 521 0229 01       		.uleb128 0x1
 522 022a 9C       		.byte	0x9c
 523 022b 4D020000 		.4byte	0x24d
 524 022f 0C       		.uleb128 0xc
 525 0230 BA000000 		.4byte	.LASF27
 526 0234 5D020000 		.4byte	0x25d
 527 0238 06       		.uleb128 0x6
 528 0239 90030000 		.4byte	0x390
 529 023d 00000000 		.4byte	.LBI24
 530 0241 05       		.byte	.LVU49
 531 0242 00000000 		.4byte	.LBB24
 532 0246 06000000 		.4byte	.LBE24-.LBB24
 533 024a A7       		.byte	0xa7
 534 024b 0A       		.byte	0xa
 535 024c 00       		.byte	0
 536 024d 04       		.uleb128 0x4
 537 024e 97000000 		.4byte	0x97
 538 0252 5D020000 		.4byte	0x25d
 539 0256 05       		.uleb128 0x5
 540 0257 2D000000 		.4byte	0x2d
 541 025b 0A       		.byte	0xa
 542 025c 00       		.byte	0
 543 025d 0A       		.uleb128 0xa
 544 025e 4D020000 		.4byte	0x24d
 545 0262 07       		.uleb128 0x7
 546 0263 45020000 		.4byte	.LASF28
 547 0267 93       		.byte	0x93
 548 0268 00000000 		.4byte	.LFB452
 549 026c 08000000 		.4byte	.LFE452-.LFB452
 550 0270 01       		.uleb128 0x1
 551 0271 9C       		.byte	0x9c
 552 0272 AE020000 		.4byte	0x2ae
 553 0276 0E       		.uleb128 0xe
 554 0277 78000000 		.4byte	.LASF31
 555 027b 93       		.byte	0x93
 556 027c 1B       		.byte	0x1b
 557 027d 9C000000 		.4byte	0x9c
 558 0281 01       		.uleb128 0x1
 559 0282 50       		.byte	0x50
 560 0283 0C       		.uleb128 0xc
 561 0284 BA000000 		.4byte	.LASF27
 562 0288 5D020000 		.4byte	0x25d
 563 028c 0F       		.uleb128 0xf
 564 028d 9C030000 		.4byte	0x39c
 565 0291 04000000 		.4byte	.LBI21
 566 0295 01       		.byte	.LVU39
 567 0296 00000000 		.4byte	.LBB21
 568 029a 06000000 		.4byte	.LBE21-.LBB21
 569 029e 97       		.byte	0x97
 570 029f 10       		.uleb128 0x10
ARM GAS  C:\Users\DEVELO~1\AppData\Local\Temp\ccYymk6T.s 			page 11


 571 02a0 A7030000 		.4byte	0x3a7
 572 02a4 0E000000 		.4byte	.LLST1
 573 02a8 0C000000 		.4byte	.LVUS1
 574 02ac 00       		.byte	0
 575 02ad 00       		.byte	0
 576 02ae 07       		.uleb128 0x7
 577 02af 0C020000 		.4byte	.LASF29
 578 02b3 85       		.byte	0x85
 579 02b4 00000000 		.4byte	.LFB451
 580 02b8 0A000000 		.4byte	.LFE451-.LFB451
 581 02bc 01       		.uleb128 0x1
 582 02bd 9C       		.byte	0x9c
 583 02be D7020000 		.4byte	0x2d7
 584 02c2 06       		.uleb128 0x6
 585 02c3 B4030000 		.4byte	0x3b4
 586 02c7 00000000 		.4byte	.LBI19
 587 02cb 02       		.byte	.LVU28
 588 02cc 00000000 		.4byte	.LBB19
 589 02d0 08000000 		.4byte	.LBE19-.LBB19
 590 02d4 87       		.byte	0x87
 591 02d5 03       		.byte	0x3
 592 02d6 00       		.byte	0
 593 02d7 07       		.uleb128 0x7
 594 02d8 38020000 		.4byte	.LASF30
 595 02dc 77       		.byte	0x77
 596 02dd 00000000 		.4byte	.LFB450
 597 02e1 10000000 		.4byte	.LFE450-.LFB450
 598 02e5 01       		.uleb128 0x1
 599 02e6 9C       		.byte	0x9c
 600 02e7 23030000 		.4byte	0x323
 601 02eb 0E       		.uleb128 0xe
 602 02ec 78000000 		.4byte	.LASF31
 603 02f0 77       		.byte	0x77
 604 02f1 1D       		.byte	0x1d
 605 02f2 9C000000 		.4byte	0x9c
 606 02f6 01       		.uleb128 0x1
 607 02f7 50       		.byte	0x50
 608 02f8 0C       		.uleb128 0xc
 609 02f9 BA000000 		.4byte	.LASF27
 610 02fd 33030000 		.4byte	0x333
 611 0301 0F       		.uleb128 0xf
 612 0302 BE030000 		.4byte	0x3be
 613 0306 08000000 		.4byte	.LBI16
 614 030a 01       		.byte	.LVU17
 615 030b 00000000 		.4byte	.LBB16
 616 030f 0E000000 		.4byte	.LBE16-.LBB16
 617 0313 7B       		.byte	0x7b
 618 0314 10       		.uleb128 0x10
 619 0315 C9030000 		.4byte	0x3c9
 620 0319 19000000 		.4byte	.LLST0
 621 031d 17000000 		.4byte	.LVUS0
 622 0321 00       		.byte	0
 623 0322 00       		.byte	0
 624 0323 04       		.uleb128 0x4
 625 0324 97000000 		.4byte	0x97
 626 0328 33030000 		.4byte	0x333
 627 032c 05       		.uleb128 0x5
ARM GAS  C:\Users\DEVELO~1\AppData\Local\Temp\ccYymk6T.s 			page 12


 628 032d 2D000000 		.4byte	0x2d
 629 0331 0C       		.byte	0xc
 630 0332 00       		.byte	0
 631 0333 0A       		.uleb128 0xa
 632 0334 23030000 		.4byte	0x323
 633 0338 0B       		.uleb128 0xb
 634 0339 38000000 		.4byte	.LASF32
 635 033d 67       		.byte	0x67
 636 033e 0B       		.byte	0xb
 637 033f 9C000000 		.4byte	0x9c
 638 0343 00000000 		.4byte	.LFB449
 639 0347 08000000 		.4byte	.LFE449-.LFB449
 640 034b 01       		.uleb128 0x1
 641 034c 9C       		.byte	0x9c
 642 034d 66030000 		.4byte	0x366
 643 0351 06       		.uleb128 0x6
 644 0352 D6030000 		.4byte	0x3d6
 645 0356 00000000 		.4byte	.LBI14
 646 035a 02       		.byte	.LVU4
 647 035b 00000000 		.4byte	.LBB14
 648 035f 06000000 		.4byte	.LBE14-.LBB14
 649 0363 69       		.byte	0x69
 650 0364 0A       		.byte	0xa
 651 0365 00       		.byte	0
 652 0366 07       		.uleb128 0x7
 653 0367 5C020000 		.4byte	.LASF33
 654 036b 45       		.byte	0x45
 655 036c 00000000 		.4byte	.LFB448
 656 0370 04000000 		.4byte	.LFE448-.LFB448
 657 0374 01       		.uleb128 0x1
 658 0375 9C       		.byte	0x9c
 659 0376 84030000 		.4byte	0x384
 660 037a 18       		.uleb128 0x18
 661 037b 04000000 		.4byte	.LVL0
 662 037f DF010000 		.4byte	0x1df
 663 0383 00       		.byte	0
 664 0384 0D       		.uleb128 0xd
 665 0385 80000000 		.4byte	.LASF34
 666 0389 6C03     		.2byte	0x36c
 667 038b 14       		.byte	0x14
 668 038c D2000000 		.4byte	0xd2
 669 0390 0D       		.uleb128 0xd
 670 0391 71020000 		.4byte	.LASF35
 671 0395 5E03     		.2byte	0x35e
 672 0397 19       		.byte	0x19
 673 0398 9C000000 		.4byte	0x9c
 674 039c 11       		.uleb128 0x11
 675 039d 0D010000 		.4byte	.LASF36
 676 03a1 5203     		.2byte	0x352
 677 03a3 B4030000 		.4byte	0x3b4
 678 03a7 12       		.uleb128 0x12
 679 03a8 78000000 		.4byte	.LASF31
 680 03ac 5203     		.2byte	0x352
 681 03ae 2F       		.byte	0x2f
 682 03af 9C000000 		.4byte	0x9c
 683 03b3 00       		.byte	0
 684 03b4 19       		.uleb128 0x19
ARM GAS  C:\Users\DEVELO~1\AppData\Local\Temp\ccYymk6T.s 			page 13


 685 03b5 A3000000 		.4byte	.LASF43
 686 03b9 02       		.byte	0x2
 687 03ba 4203     		.2byte	0x342
 688 03bc 14       		.byte	0x14
 689 03bd 03       		.byte	0x3
 690 03be 11       		.uleb128 0x11
 691 03bf C3000000 		.4byte	.LASF37
 692 03c3 3203     		.2byte	0x332
 693 03c5 D6030000 		.4byte	0x3d6
 694 03c9 12       		.uleb128 0x12
 695 03ca 78000000 		.4byte	.LASF31
 696 03ce 3203     		.2byte	0x332
 697 03d0 31       		.byte	0x31
 698 03d1 9C000000 		.4byte	0x9c
 699 03d5 00       		.byte	0
 700 03d6 0D       		.uleb128 0xd
 701 03d7 25020000 		.4byte	.LASF38
 702 03db 2403     		.2byte	0x324
 703 03dd 19       		.byte	0x19
 704 03de 9C000000 		.4byte	0x9c
 705 03e2 00       		.byte	0
 706              		.section	.debug_abbrev,"",%progbits
 707              	.Ldebug_abbrev0:
 708 0000 01       		.uleb128 0x1
 709 0001 24       		.uleb128 0x24
 710 0002 00       		.byte	0
 711 0003 0B       		.uleb128 0xb
 712 0004 0B       		.uleb128 0xb
 713 0005 3E       		.uleb128 0x3e
 714 0006 0B       		.uleb128 0xb
 715 0007 03       		.uleb128 0x3
 716 0008 0E       		.uleb128 0xe
 717 0009 00       		.byte	0
 718 000a 00       		.byte	0
 719 000b 02       		.uleb128 0x2
 720 000c 0D       		.uleb128 0xd
 721 000d 00       		.byte	0
 722 000e 03       		.uleb128 0x3
 723 000f 08       		.uleb128 0x8
 724 0010 3A       		.uleb128 0x3a
 725 0011 21       		.uleb128 0x21
 726 0012 06       		.sleb128 6
 727 0013 3B       		.uleb128 0x3b
 728 0014 05       		.uleb128 0x5
 729 0015 39       		.uleb128 0x39
 730 0016 21       		.uleb128 0x21
 731 0017 19       		.sleb128 25
 732 0018 49       		.uleb128 0x49
 733 0019 13       		.uleb128 0x13
 734 001a 38       		.uleb128 0x38
 735 001b 0B       		.uleb128 0xb
 736 001c 00       		.byte	0
 737 001d 00       		.byte	0
 738 001e 03       		.uleb128 0x3
 739 001f 0D       		.uleb128 0xd
 740 0020 00       		.byte	0
 741 0021 03       		.uleb128 0x3
ARM GAS  C:\Users\DEVELO~1\AppData\Local\Temp\ccYymk6T.s 			page 14


 742 0022 0E       		.uleb128 0xe
 743 0023 3A       		.uleb128 0x3a
 744 0024 21       		.uleb128 0x21
 745 0025 06       		.sleb128 6
 746 0026 3B       		.uleb128 0x3b
 747 0027 05       		.uleb128 0x5
 748 0028 39       		.uleb128 0x39
 749 0029 21       		.uleb128 0x21
 750 002a 19       		.sleb128 25
 751 002b 49       		.uleb128 0x49
 752 002c 13       		.uleb128 0x13
 753 002d 38       		.uleb128 0x38
 754 002e 0B       		.uleb128 0xb
 755 002f 00       		.byte	0
 756 0030 00       		.byte	0
 757 0031 04       		.uleb128 0x4
 758 0032 01       		.uleb128 0x1
 759 0033 01       		.byte	0x1
 760 0034 49       		.uleb128 0x49
 761 0035 13       		.uleb128 0x13
 762 0036 01       		.uleb128 0x1
 763 0037 13       		.uleb128 0x13
 764 0038 00       		.byte	0
 765 0039 00       		.byte	0
 766 003a 05       		.uleb128 0x5
 767 003b 21       		.uleb128 0x21
 768 003c 00       		.byte	0
 769 003d 49       		.uleb128 0x49
 770 003e 13       		.uleb128 0x13
 771 003f 2F       		.uleb128 0x2f
 772 0040 0B       		.uleb128 0xb
 773 0041 00       		.byte	0
 774 0042 00       		.byte	0
 775 0043 06       		.uleb128 0x6
 776 0044 1D       		.uleb128 0x1d
 777 0045 00       		.byte	0
 778 0046 31       		.uleb128 0x31
 779 0047 13       		.uleb128 0x13
 780 0048 52       		.uleb128 0x52
 781 0049 01       		.uleb128 0x1
 782 004a B842     		.uleb128 0x2138
 783 004c 0B       		.uleb128 0xb
 784 004d 11       		.uleb128 0x11
 785 004e 01       		.uleb128 0x1
 786 004f 12       		.uleb128 0x12
 787 0050 06       		.uleb128 0x6
 788 0051 58       		.uleb128 0x58
 789 0052 21       		.uleb128 0x21
 790 0053 01       		.sleb128 1
 791 0054 59       		.uleb128 0x59
 792 0055 0B       		.uleb128 0xb
 793 0056 57       		.uleb128 0x57
 794 0057 0B       		.uleb128 0xb
 795 0058 00       		.byte	0
 796 0059 00       		.byte	0
 797 005a 07       		.uleb128 0x7
 798 005b 2E       		.uleb128 0x2e
ARM GAS  C:\Users\DEVELO~1\AppData\Local\Temp\ccYymk6T.s 			page 15


 799 005c 01       		.byte	0x1
 800 005d 3F       		.uleb128 0x3f
 801 005e 19       		.uleb128 0x19
 802 005f 03       		.uleb128 0x3
 803 0060 0E       		.uleb128 0xe
 804 0061 3A       		.uleb128 0x3a
 805 0062 21       		.uleb128 0x21
 806 0063 01       		.sleb128 1
 807 0064 3B       		.uleb128 0x3b
 808 0065 0B       		.uleb128 0xb
 809 0066 39       		.uleb128 0x39
 810 0067 21       		.uleb128 0x21
 811 0068 06       		.sleb128 6
 812 0069 27       		.uleb128 0x27
 813 006a 19       		.uleb128 0x19
 814 006b 11       		.uleb128 0x11
 815 006c 01       		.uleb128 0x1
 816 006d 12       		.uleb128 0x12
 817 006e 06       		.uleb128 0x6
 818 006f 40       		.uleb128 0x40
 819 0070 18       		.uleb128 0x18
 820 0071 7A       		.uleb128 0x7a
 821 0072 19       		.uleb128 0x19
 822 0073 01       		.uleb128 0x1
 823 0074 13       		.uleb128 0x13
 824 0075 00       		.byte	0
 825 0076 00       		.byte	0
 826 0077 08       		.uleb128 0x8
 827 0078 16       		.uleb128 0x16
 828 0079 00       		.byte	0
 829 007a 03       		.uleb128 0x3
 830 007b 0E       		.uleb128 0xe
 831 007c 3A       		.uleb128 0x3a
 832 007d 0B       		.uleb128 0xb
 833 007e 3B       		.uleb128 0x3b
 834 007f 0B       		.uleb128 0xb
 835 0080 39       		.uleb128 0x39
 836 0081 0B       		.uleb128 0xb
 837 0082 49       		.uleb128 0x49
 838 0083 13       		.uleb128 0x13
 839 0084 00       		.byte	0
 840 0085 00       		.byte	0
 841 0086 09       		.uleb128 0x9
 842 0087 35       		.uleb128 0x35
 843 0088 00       		.byte	0
 844 0089 49       		.uleb128 0x49
 845 008a 13       		.uleb128 0x13
 846 008b 00       		.byte	0
 847 008c 00       		.byte	0
 848 008d 0A       		.uleb128 0xa
 849 008e 26       		.uleb128 0x26
 850 008f 00       		.byte	0
 851 0090 49       		.uleb128 0x49
 852 0091 13       		.uleb128 0x13
 853 0092 00       		.byte	0
 854 0093 00       		.byte	0
 855 0094 0B       		.uleb128 0xb
ARM GAS  C:\Users\DEVELO~1\AppData\Local\Temp\ccYymk6T.s 			page 16


 856 0095 2E       		.uleb128 0x2e
 857 0096 01       		.byte	0x1
 858 0097 3F       		.uleb128 0x3f
 859 0098 19       		.uleb128 0x19
 860 0099 03       		.uleb128 0x3
 861 009a 0E       		.uleb128 0xe
 862 009b 3A       		.uleb128 0x3a
 863 009c 21       		.uleb128 0x21
 864 009d 01       		.sleb128 1
 865 009e 3B       		.uleb128 0x3b
 866 009f 0B       		.uleb128 0xb
 867 00a0 39       		.uleb128 0x39
 868 00a1 0B       		.uleb128 0xb
 869 00a2 27       		.uleb128 0x27
 870 00a3 19       		.uleb128 0x19
 871 00a4 49       		.uleb128 0x49
 872 00a5 13       		.uleb128 0x13
 873 00a6 11       		.uleb128 0x11
 874 00a7 01       		.uleb128 0x1
 875 00a8 12       		.uleb128 0x12
 876 00a9 06       		.uleb128 0x6
 877 00aa 40       		.uleb128 0x40
 878 00ab 18       		.uleb128 0x18
 879 00ac 7A       		.uleb128 0x7a
 880 00ad 19       		.uleb128 0x19
 881 00ae 01       		.uleb128 0x1
 882 00af 13       		.uleb128 0x13
 883 00b0 00       		.byte	0
 884 00b1 00       		.byte	0
 885 00b2 0C       		.uleb128 0xc
 886 00b3 34       		.uleb128 0x34
 887 00b4 00       		.byte	0
 888 00b5 03       		.uleb128 0x3
 889 00b6 0E       		.uleb128 0xe
 890 00b7 49       		.uleb128 0x49
 891 00b8 13       		.uleb128 0x13
 892 00b9 34       		.uleb128 0x34
 893 00ba 19       		.uleb128 0x19
 894 00bb 00       		.byte	0
 895 00bc 00       		.byte	0
 896 00bd 0D       		.uleb128 0xd
 897 00be 2E       		.uleb128 0x2e
 898 00bf 00       		.byte	0
 899 00c0 03       		.uleb128 0x3
 900 00c1 0E       		.uleb128 0xe
 901 00c2 3A       		.uleb128 0x3a
 902 00c3 21       		.uleb128 0x21
 903 00c4 02       		.sleb128 2
 904 00c5 3B       		.uleb128 0x3b
 905 00c6 05       		.uleb128 0x5
 906 00c7 39       		.uleb128 0x39
 907 00c8 0B       		.uleb128 0xb
 908 00c9 27       		.uleb128 0x27
 909 00ca 19       		.uleb128 0x19
 910 00cb 49       		.uleb128 0x49
 911 00cc 13       		.uleb128 0x13
 912 00cd 20       		.uleb128 0x20
ARM GAS  C:\Users\DEVELO~1\AppData\Local\Temp\ccYymk6T.s 			page 17


 913 00ce 21       		.uleb128 0x21
 914 00cf 03       		.sleb128 3
 915 00d0 00       		.byte	0
 916 00d1 00       		.byte	0
 917 00d2 0E       		.uleb128 0xe
 918 00d3 05       		.uleb128 0x5
 919 00d4 00       		.byte	0
 920 00d5 03       		.uleb128 0x3
 921 00d6 0E       		.uleb128 0xe
 922 00d7 3A       		.uleb128 0x3a
 923 00d8 21       		.uleb128 0x21
 924 00d9 01       		.sleb128 1
 925 00da 3B       		.uleb128 0x3b
 926 00db 0B       		.uleb128 0xb
 927 00dc 39       		.uleb128 0x39
 928 00dd 0B       		.uleb128 0xb
 929 00de 49       		.uleb128 0x49
 930 00df 13       		.uleb128 0x13
 931 00e0 02       		.uleb128 0x2
 932 00e1 18       		.uleb128 0x18
 933 00e2 00       		.byte	0
 934 00e3 00       		.byte	0
 935 00e4 0F       		.uleb128 0xf
 936 00e5 1D       		.uleb128 0x1d
 937 00e6 01       		.byte	0x1
 938 00e7 31       		.uleb128 0x31
 939 00e8 13       		.uleb128 0x13
 940 00e9 52       		.uleb128 0x52
 941 00ea 01       		.uleb128 0x1
 942 00eb B842     		.uleb128 0x2138
 943 00ed 0B       		.uleb128 0xb
 944 00ee 11       		.uleb128 0x11
 945 00ef 01       		.uleb128 0x1
 946 00f0 12       		.uleb128 0x12
 947 00f1 06       		.uleb128 0x6
 948 00f2 58       		.uleb128 0x58
 949 00f3 21       		.uleb128 0x21
 950 00f4 01       		.sleb128 1
 951 00f5 59       		.uleb128 0x59
 952 00f6 0B       		.uleb128 0xb
 953 00f7 57       		.uleb128 0x57
 954 00f8 21       		.uleb128 0x21
 955 00f9 03       		.sleb128 3
 956 00fa 00       		.byte	0
 957 00fb 00       		.byte	0
 958 00fc 10       		.uleb128 0x10
 959 00fd 05       		.uleb128 0x5
 960 00fe 00       		.byte	0
 961 00ff 31       		.uleb128 0x31
 962 0100 13       		.uleb128 0x13
 963 0101 02       		.uleb128 0x2
 964 0102 17       		.uleb128 0x17
 965 0103 B742     		.uleb128 0x2137
 966 0105 17       		.uleb128 0x17
 967 0106 00       		.byte	0
 968 0107 00       		.byte	0
 969 0108 11       		.uleb128 0x11
ARM GAS  C:\Users\DEVELO~1\AppData\Local\Temp\ccYymk6T.s 			page 18


 970 0109 2E       		.uleb128 0x2e
 971 010a 01       		.byte	0x1
 972 010b 03       		.uleb128 0x3
 973 010c 0E       		.uleb128 0xe
 974 010d 3A       		.uleb128 0x3a
 975 010e 21       		.uleb128 0x21
 976 010f 02       		.sleb128 2
 977 0110 3B       		.uleb128 0x3b
 978 0111 05       		.uleb128 0x5
 979 0112 39       		.uleb128 0x39
 980 0113 21       		.uleb128 0x21
 981 0114 14       		.sleb128 20
 982 0115 27       		.uleb128 0x27
 983 0116 19       		.uleb128 0x19
 984 0117 20       		.uleb128 0x20
 985 0118 21       		.uleb128 0x21
 986 0119 03       		.sleb128 3
 987 011a 01       		.uleb128 0x1
 988 011b 13       		.uleb128 0x13
 989 011c 00       		.byte	0
 990 011d 00       		.byte	0
 991 011e 12       		.uleb128 0x12
 992 011f 05       		.uleb128 0x5
 993 0120 00       		.byte	0
 994 0121 03       		.uleb128 0x3
 995 0122 0E       		.uleb128 0xe
 996 0123 3A       		.uleb128 0x3a
 997 0124 21       		.uleb128 0x21
 998 0125 02       		.sleb128 2
 999 0126 3B       		.uleb128 0x3b
 1000 0127 05       		.uleb128 0x5
 1001 0128 39       		.uleb128 0x39
 1002 0129 0B       		.uleb128 0xb
 1003 012a 49       		.uleb128 0x49
 1004 012b 13       		.uleb128 0x13
 1005 012c 00       		.byte	0
 1006 012d 00       		.byte	0
 1007 012e 13       		.uleb128 0x13
 1008 012f 11       		.uleb128 0x11
 1009 0130 01       		.byte	0x1
 1010 0131 25       		.uleb128 0x25
 1011 0132 0E       		.uleb128 0xe
 1012 0133 13       		.uleb128 0x13
 1013 0134 0B       		.uleb128 0xb
 1014 0135 03       		.uleb128 0x3
 1015 0136 0E       		.uleb128 0xe
 1016 0137 1B       		.uleb128 0x1b
 1017 0138 0E       		.uleb128 0xe
 1018 0139 55       		.uleb128 0x55
 1019 013a 17       		.uleb128 0x17
 1020 013b 11       		.uleb128 0x11
 1021 013c 01       		.uleb128 0x1
 1022 013d 10       		.uleb128 0x10
 1023 013e 17       		.uleb128 0x17
 1024 013f 00       		.byte	0
 1025 0140 00       		.byte	0
 1026 0141 14       		.uleb128 0x14
ARM GAS  C:\Users\DEVELO~1\AppData\Local\Temp\ccYymk6T.s 			page 19


 1027 0142 24       		.uleb128 0x24
 1028 0143 00       		.byte	0
 1029 0144 0B       		.uleb128 0xb
 1030 0145 0B       		.uleb128 0xb
 1031 0146 3E       		.uleb128 0x3e
 1032 0147 0B       		.uleb128 0xb
 1033 0148 03       		.uleb128 0x3
 1034 0149 08       		.uleb128 0x8
 1035 014a 00       		.byte	0
 1036 014b 00       		.byte	0
 1037 014c 15       		.uleb128 0x15
 1038 014d 13       		.uleb128 0x13
 1039 014e 01       		.byte	0x1
 1040 014f 0B       		.uleb128 0xb
 1041 0150 0B       		.uleb128 0xb
 1042 0151 3A       		.uleb128 0x3a
 1043 0152 0B       		.uleb128 0xb
 1044 0153 3B       		.uleb128 0x3b
 1045 0154 05       		.uleb128 0x5
 1046 0155 39       		.uleb128 0x39
 1047 0156 0B       		.uleb128 0xb
 1048 0157 01       		.uleb128 0x1
 1049 0158 13       		.uleb128 0x13
 1050 0159 00       		.byte	0
 1051 015a 00       		.byte	0
 1052 015b 16       		.uleb128 0x16
 1053 015c 16       		.uleb128 0x16
 1054 015d 00       		.byte	0
 1055 015e 03       		.uleb128 0x3
 1056 015f 0E       		.uleb128 0xe
 1057 0160 3A       		.uleb128 0x3a
 1058 0161 0B       		.uleb128 0xb
 1059 0162 3B       		.uleb128 0x3b
 1060 0163 05       		.uleb128 0x5
 1061 0164 39       		.uleb128 0x39
 1062 0165 0B       		.uleb128 0xb
 1063 0166 49       		.uleb128 0x49
 1064 0167 13       		.uleb128 0x13
 1065 0168 00       		.byte	0
 1066 0169 00       		.byte	0
 1067 016a 17       		.uleb128 0x17
 1068 016b 2E       		.uleb128 0x2e
 1069 016c 00       		.byte	0
 1070 016d 3F       		.uleb128 0x3f
 1071 016e 19       		.uleb128 0x19
 1072 016f 03       		.uleb128 0x3
 1073 0170 0E       		.uleb128 0xe
 1074 0171 3A       		.uleb128 0x3a
 1075 0172 0B       		.uleb128 0xb
 1076 0173 3B       		.uleb128 0x3b
 1077 0174 05       		.uleb128 0x5
 1078 0175 39       		.uleb128 0x39
 1079 0176 0B       		.uleb128 0xb
 1080 0177 27       		.uleb128 0x27
 1081 0178 19       		.uleb128 0x19
 1082 0179 3C       		.uleb128 0x3c
 1083 017a 19       		.uleb128 0x19
ARM GAS  C:\Users\DEVELO~1\AppData\Local\Temp\ccYymk6T.s 			page 20


 1084 017b 00       		.byte	0
 1085 017c 00       		.byte	0
 1086 017d 18       		.uleb128 0x18
 1087 017e 48       		.uleb128 0x48
 1088 017f 00       		.byte	0
 1089 0180 7D       		.uleb128 0x7d
 1090 0181 01       		.uleb128 0x1
 1091 0182 8201     		.uleb128 0x82
 1092 0184 19       		.uleb128 0x19
 1093 0185 7F       		.uleb128 0x7f
 1094 0186 13       		.uleb128 0x13
 1095 0187 00       		.byte	0
 1096 0188 00       		.byte	0
 1097 0189 19       		.uleb128 0x19
 1098 018a 2E       		.uleb128 0x2e
 1099 018b 00       		.byte	0
 1100 018c 03       		.uleb128 0x3
 1101 018d 0E       		.uleb128 0xe
 1102 018e 3A       		.uleb128 0x3a
 1103 018f 0B       		.uleb128 0xb
 1104 0190 3B       		.uleb128 0x3b
 1105 0191 05       		.uleb128 0x5
 1106 0192 39       		.uleb128 0x39
 1107 0193 0B       		.uleb128 0xb
 1108 0194 27       		.uleb128 0x27
 1109 0195 19       		.uleb128 0x19
 1110 0196 20       		.uleb128 0x20
 1111 0197 0B       		.uleb128 0xb
 1112 0198 00       		.byte	0
 1113 0199 00       		.byte	0
 1114 019a 00       		.byte	0
 1115              		.section	.debug_loclists,"",%progbits
 1116 0000 1E000000 		.4byte	.Ldebug_loc3-.Ldebug_loc2
 1117              	.Ldebug_loc2:
 1118 0004 0500     		.2byte	0x5
 1119 0006 04       		.byte	0x4
 1120 0007 00       		.byte	0
 1121 0008 00000000 		.4byte	0
 1122              	.Ldebug_loc0:
 1123              	.LVUS1:
 1124 000c 00       		.uleb128 .LVU38
 1125 000d 00       		.uleb128 .LVU42
 1126              	.LLST1:
 1127 000e 08       		.byte	0x8
 1128 000f 04000000 		.4byte	.LVL5
 1129 0013 02       		.uleb128 .LVL6-.LVL5
 1130 0014 01       		.uleb128 0x1
 1131 0015 50       		.byte	0x50
 1132 0016 00       		.byte	0
 1133              	.LVUS0:
 1134 0017 00       		.uleb128 .LVU16
 1135 0018 00       		.uleb128 .LVU24
 1136              	.LLST0:
 1137 0019 08       		.byte	0x8
 1138 001a 08000000 		.4byte	.LVL2
 1139 001e 06       		.uleb128 .LVL3-.LVL2
 1140 001f 01       		.uleb128 0x1
ARM GAS  C:\Users\DEVELO~1\AppData\Local\Temp\ccYymk6T.s 			page 21


 1141 0020 50       		.byte	0x50
 1142 0021 00       		.byte	0
 1143              	.Ldebug_loc3:
 1144              		.section	.debug_aranges,"",%progbits
 1145 0000 4C000000 		.4byte	0x4c
 1146 0004 0200     		.2byte	0x2
 1147 0006 00000000 		.4byte	.Ldebug_info0
 1148 000a 04       		.byte	0x4
 1149 000b 00       		.byte	0
 1150 000c 0000     		.2byte	0
 1151 000e 0000     		.2byte	0
 1152 0010 00000000 		.4byte	.LFB448
 1153 0014 04000000 		.4byte	.LFE448-.LFB448
 1154 0018 00000000 		.4byte	.LFB449
 1155 001c 08000000 		.4byte	.LFE449-.LFB449
 1156 0020 00000000 		.4byte	.LFB450
 1157 0024 10000000 		.4byte	.LFE450-.LFB450
 1158 0028 00000000 		.4byte	.LFB451
 1159 002c 0A000000 		.4byte	.LFE451-.LFB451
 1160 0030 00000000 		.4byte	.LFB452
 1161 0034 08000000 		.4byte	.LFE452-.LFB452
 1162 0038 00000000 		.4byte	.LFB453
 1163 003c 08000000 		.4byte	.LFE453-.LFB453
 1164 0040 00000000 		.4byte	.LFB454
 1165 0044 0C000000 		.4byte	.LFE454-.LFB454
 1166 0048 00000000 		.4byte	0
 1167 004c 00000000 		.4byte	0
 1168              		.section	.debug_rnglists,"",%progbits
 1169              	.Ldebug_ranges0:
 1170 0000 33000000 		.4byte	.Ldebug_ranges3-.Ldebug_ranges2
 1171              	.Ldebug_ranges2:
 1172 0004 0500     		.2byte	0x5
 1173 0006 04       		.byte	0x4
 1174 0007 00       		.byte	0
 1175 0008 00000000 		.4byte	0
 1176              	.LLRL2:
 1177 000c 07       		.byte	0x7
 1178 000d 00000000 		.4byte	.LFB448
 1179 0011 04       		.uleb128 .LFE448-.LFB448
 1180 0012 07       		.byte	0x7
 1181 0013 00000000 		.4byte	.LFB449
 1182 0017 08       		.uleb128 .LFE449-.LFB449
 1183 0018 07       		.byte	0x7
 1184 0019 00000000 		.4byte	.LFB450
 1185 001d 10       		.uleb128 .LFE450-.LFB450
 1186 001e 07       		.byte	0x7
 1187 001f 00000000 		.4byte	.LFB451
 1188 0023 0A       		.uleb128 .LFE451-.LFB451
 1189 0024 07       		.byte	0x7
 1190 0025 00000000 		.4byte	.LFB452
 1191 0029 08       		.uleb128 .LFE452-.LFB452
 1192 002a 07       		.byte	0x7
 1193 002b 00000000 		.4byte	.LFB453
 1194 002f 08       		.uleb128 .LFE453-.LFB453
 1195 0030 07       		.byte	0x7
 1196 0031 00000000 		.4byte	.LFB454
 1197 0035 0C       		.uleb128 .LFE454-.LFB454
ARM GAS  C:\Users\DEVELO~1\AppData\Local\Temp\ccYymk6T.s 			page 22


 1198 0036 00       		.byte	0
 1199              	.Ldebug_ranges3:
 1200              		.section	.debug_line,"",%progbits
 1201              	.Ldebug_line0:
 1202 0000 F4020000 		.section	.debug_str,"MS",%progbits,1
 1202      0300A801 
 1202      00000201 
 1202      FB0E0D00 
 1202      01010101 
 1203              	.LASF20:
 1204 0000 42445452 		.ascii	"BDTR\000"
 1204      00
 1205              	.LASF40:
 1206 0005 2E2F646F 		.ascii	"./docs/ChibiOS/os/hal/src/hal_st.c\000"
 1206      63732F43 
 1206      68696269 
 1206      4F532F6F 
 1206      732F6861 
 1207              	.LASF25:
 1208 0028 73744973 		.ascii	"stIsAlarmActive\000"
 1208      416C6172 
 1208      6D416374 
 1208      69766500 
 1209              	.LASF32:
 1210 0038 73744765 		.ascii	"stGetCounter\000"
 1210      74436F75 
 1210      6E746572 
 1210      00
 1211              	.LASF13:
 1212 0045 73797374 		.ascii	"systime_t\000"
 1212      696D655F 
 1212      7400
 1213              	.LASF6:
 1214 004f 73686F72 		.ascii	"short unsigned int\000"
 1214      7420756E 
 1214      7369676E 
 1214      65642069 
 1214      6E7400
 1215              	.LASF42:
 1216 0062 73745F6C 		.ascii	"st_lld_init\000"
 1216      6C645F69 
 1216      6E697400 
 1217              	.LASF5:
 1218 006e 73686F72 		.ascii	"short int\000"
 1218      7420696E 
 1218      7400
 1219              	.LASF31:
 1220 0078 61627374 		.ascii	"abstime\000"
 1220      696D6500 
 1221              	.LASF34:
 1222 0080 73745F6C 		.ascii	"st_lld_is_alarm_active\000"
 1222      6C645F69 
 1222      735F616C 
 1222      61726D5F 
 1222      61637469 
 1223              	.LASF24:
 1224 0097 73746D33 		.ascii	"stm32_tim_t\000"
ARM GAS  C:\Users\DEVELO~1\AppData\Local\Temp\ccYymk6T.s 			page 23


 1224      325F7469 
 1224      6D5F7400 
 1225              	.LASF43:
 1226 00a3 73745F6C 		.ascii	"st_lld_stop_alarm\000"
 1226      6C645F73 
 1226      746F705F 
 1226      616C6172 
 1226      6D00
 1227              	.LASF16:
 1228 00b5 44494552 		.ascii	"DIER\000"
 1228      00
 1229              	.LASF27:
 1230 00ba 5F5F6675 		.ascii	"__func__\000"
 1230      6E635F5F 
 1230      00
 1231              	.LASF37:
 1232 00c3 73745F6C 		.ascii	"st_lld_start_alarm\000"
 1232      6C645F73 
 1232      74617274 
 1232      5F616C61 
 1232      726D00
 1233              	.LASF9:
 1234 00d6 6C6F6E67 		.ascii	"long long unsigned int\000"
 1234      206C6F6E 
 1234      6720756E 
 1234      7369676E 
 1234      65642069 
 1235              	.LASF4:
 1236 00ed 756E7369 		.ascii	"unsigned char\000"
 1236      676E6564 
 1236      20636861 
 1236      7200
 1237              	.LASF8:
 1238 00fb 6C6F6E67 		.ascii	"long unsigned int\000"
 1238      20756E73 
 1238      69676E65 
 1238      6420696E 
 1238      7400
 1239              	.LASF36:
 1240 010d 73745F6C 		.ascii	"st_lld_set_alarm\000"
 1240      6C645F73 
 1240      65745F61 
 1240      6C61726D 
 1240      00
 1241              	.LASF39:
 1242 011e 474E5520 		.ascii	"GNU C17 11.3.1 20220712 -mcpu=cortex-m7 -mthumb -mf"
 1242      43313720 
 1242      31312E33 
 1242      2E312032 
 1242      30323230 
 1243 0151 6C6F6174 		.ascii	"loat-abi=hard -mfpu=fpv5-d16 -march=armv7e-m+fp.dp "
 1243      2D616269 
 1243      3D686172 
 1243      64202D6D 
 1243      6670753D 
 1244 0184 2D676764 		.ascii	"-ggdb -O2 -ffunction-sections -fdata-sections -fno-"
 1244      62202D4F 
ARM GAS  C:\Users\DEVELO~1\AppData\Local\Temp\ccYymk6T.s 			page 24


 1244      32202D66 
 1244      66756E63 
 1244      74696F6E 
 1245 01b7 636F6D6D 		.ascii	"common\000"
 1245      6F6E00
 1246              	.LASF10:
 1247 01be 5F5F7569 		.ascii	"__uint32_t\000"
 1247      6E743332 
 1247      5F7400
 1248              	.LASF41:
 1249 01c9 433A5C43 		.ascii	"C:\\ChibiStudio\\ChibiOS-master\\demos\\STM32\\CUST"
 1249      68696269 
 1249      53747564 
 1249      696F5C43 
 1249      68696269 
 1250 01f7 4F4D5F48 		.ascii	"OM_H743IIT6_maj\000"
 1250      37343349 
 1250      4954365F 
 1250      6D616A00 
 1251              	.LASF21:
 1252 0207 444D4152 		.ascii	"DMAR\000"
 1252      00
 1253              	.LASF29:
 1254 020c 73745374 		.ascii	"stStopAlarm\000"
 1254      6F70416C 
 1254      61726D00 
 1255              	.LASF0:
 1256 0218 756E7369 		.ascii	"unsigned int\000"
 1256      676E6564 
 1256      20696E74 
 1256      00
 1257              	.LASF38:
 1258 0225 73745F6C 		.ascii	"st_lld_get_counter\000"
 1258      6C645F67 
 1258      65745F63 
 1258      6F756E74 
 1258      657200
 1259              	.LASF30:
 1260 0238 73745374 		.ascii	"stStartAlarm\000"
 1260      61727441 
 1260      6C61726D 
 1260      00
 1261              	.LASF28:
 1262 0245 73745365 		.ascii	"stSetAlarm\000"
 1262      74416C61 
 1262      726D00
 1263              	.LASF2:
 1264 0250 6C6F6E67 		.ascii	"long double\000"
 1264      20646F75 
 1264      626C6500 
 1265              	.LASF33:
 1266 025c 7374496E 		.ascii	"stInit\000"
 1266      697400
 1267              	.LASF1:
 1268 0263 6C6F6E67 		.ascii	"long long int\000"
 1268      206C6F6E 
 1268      6720696E 
ARM GAS  C:\Users\DEVELO~1\AppData\Local\Temp\ccYymk6T.s 			page 25


 1268      7400
 1269              	.LASF35:
 1270 0271 73745F6C 		.ascii	"st_lld_get_alarm\000"
 1270      6C645F67 
 1270      65745F61 
 1270      6C61726D 
 1270      00
 1271              	.LASF19:
 1272 0282 43434552 		.ascii	"CCER\000"
 1272      00
 1273              	.LASF15:
 1274 0287 534D4352 		.ascii	"SMCR\000"
 1274      00
 1275              	.LASF17:
 1276 028c 43434D52 		.ascii	"CCMR1\000"
 1276      3100
 1277              	.LASF22:
 1278 0292 43434D52 		.ascii	"CCMR3\000"
 1278      3300
 1279              	.LASF11:
 1280 0298 75696E74 		.ascii	"uint32_t\000"
 1280      33325F74 
 1280      00
 1281              	.LASF7:
 1282 02a1 6C6F6E67 		.ascii	"long int\000"
 1282      20696E74 
 1282      00
 1283              	.LASF12:
 1284 02aa 63686172 		.ascii	"char\000"
 1284      00
 1285              	.LASF18:
 1286 02af 43434D52 		.ascii	"CCMR2\000"
 1286      3200
 1287              	.LASF3:
 1288 02b5 7369676E 		.ascii	"signed char\000"
 1288      65642063 
 1288      68617200 
 1289              	.LASF14:
 1290 02c1 5F426F6F 		.ascii	"_Bool\000"
 1290      6C00
 1291              	.LASF23:
 1292 02c7 43435852 		.ascii	"CCXR\000"
 1292      00
 1293              	.LASF26:
 1294 02cc 73744765 		.ascii	"stGetAlarm\000"
 1294      74416C61 
 1294      726D00
 1295              		.ident	"GCC: (Arm GNU Toolchain 11.3.Rel1) 11.3.1 20220712"
ARM GAS  C:\Users\DEVELO~1\AppData\Local\Temp\ccYymk6T.s 			page 26


DEFINED SYMBOLS
                            *ABS*:00000000 hal_st.c
C:\Users\DEVELO~1\AppData\Local\Temp\ccYymk6T.s:19     .text.stInit:00000000 $t
C:\Users\DEVELO~1\AppData\Local\Temp\ccYymk6T.s:26     .text.stInit:00000000 stInit
C:\Users\DEVELO~1\AppData\Local\Temp\ccYymk6T.s:41     .text.stGetCounter:00000000 $t
C:\Users\DEVELO~1\AppData\Local\Temp\ccYymk6T.s:48     .text.stGetCounter:00000000 stGetCounter
C:\Users\DEVELO~1\AppData\Local\Temp\ccYymk6T.s:73     .text.stStartAlarm:00000000 $t
C:\Users\DEVELO~1\AppData\Local\Temp\ccYymk6T.s:80     .text.stStartAlarm:00000000 stStartAlarm
C:\Users\DEVELO~1\AppData\Local\Temp\ccYymk6T.s:125    .text.stStopAlarm:00000000 $t
C:\Users\DEVELO~1\AppData\Local\Temp\ccYymk6T.s:132    .text.stStopAlarm:00000000 stStopAlarm
C:\Users\DEVELO~1\AppData\Local\Temp\ccYymk6T.s:157    .text.stSetAlarm:00000000 $t
C:\Users\DEVELO~1\AppData\Local\Temp\ccYymk6T.s:164    .text.stSetAlarm:00000000 stSetAlarm
C:\Users\DEVELO~1\AppData\Local\Temp\ccYymk6T.s:199    .text.stGetAlarm:00000000 $t
C:\Users\DEVELO~1\AppData\Local\Temp\ccYymk6T.s:206    .text.stGetAlarm:00000000 stGetAlarm
C:\Users\DEVELO~1\AppData\Local\Temp\ccYymk6T.s:233    .text.stIsAlarmActive:00000000 $t
C:\Users\DEVELO~1\AppData\Local\Temp\ccYymk6T.s:240    .text.stIsAlarmActive:00000000 stIsAlarmActive

UNDEFINED SYMBOLS
st_lld_init
