ARM GAS  C:\Users\DEVELO~1\AppData\Local\Temp\ccsWRiBg.s 			page 1


   1              		.cpu cortex-m7
   2              		.arch armv7e-m
   3              		.fpu fpv5-d16
   4              		.eabi_attribute 28, 1
   5              		.eabi_attribute 20, 1
   6              		.eabi_attribute 21, 1
   7              		.eabi_attribute 23, 3
   8              		.eabi_attribute 24, 1
   9              		.eabi_attribute 25, 1
  10              		.eabi_attribute 26, 1
  11              		.eabi_attribute 30, 2
  12              		.eabi_attribute 34, 1
  13              		.eabi_attribute 18, 4
  14              		.file	"hal_pal_lld.c"
  15              		.text
  16              	.Ltext0:
  17              		.cfi_sections	.debug_frame
  18              		.section	.text._pal_lld_init,"ax",%progbits
  19              		.align	1
  20              		.p2align 2,,3
  21              		.global	_pal_lld_init
  22              		.syntax unified
  23              		.thumb
  24              		.thumb_func
  25              		.type	_pal_lld_init, %function
  26              	_pal_lld_init:
  27              	.LFB448:
  28              		.file 1 "../../../os/hal/ports/STM32/LLD/GPIOv2/hal_pal_lld.c"
  29              		.loc 1 65 26 view -0
  30              		.cfi_startproc
  31              		@ args = 0, pretend = 0, frame = 0
  32              		@ frame_needed = 0, uses_anonymous_args = 0
  33              		@ link register save eliminated.
  34              		.loc 1 74 1 view .LVU1
  35 0000 7047     		bx	lr
  36              		.cfi_endproc
  37              	.LFE448:
  38              		.size	_pal_lld_init, .-_pal_lld_init
  39 0002 00BF     		.section	.text._pal_lld_setgroupmode,"ax",%progbits
  40              		.align	1
  41              		.p2align 2,,3
  42              		.global	_pal_lld_setgroupmode
  43              		.syntax unified
  44              		.thumb
  45              		.thumb_func
  46              		.type	_pal_lld_setgroupmode, %function
  47              	_pal_lld_setgroupmode:
  48              	.LVL0:
  49              	.LFB449:
  50              		.loc 1 91 43 view -0
  51              		.cfi_startproc
  52              		@ args = 0, pretend = 0, frame = 0
  53              		@ frame_needed = 0, uses_anonymous_args = 0
  54              		.loc 1 93 3 view .LVU3
  55              		.loc 1 91 43 is_stmt 0 view .LVU4
  56 0000 2DE9F04F 		push	{r4, r5, r6, r7, r8, r9, r10, fp, lr}
  57              		.cfi_def_cfa_offset 36
ARM GAS  C:\Users\DEVELO~1\AppData\Local\Temp\ccsWRiBg.s 			page 2


  58              		.cfi_offset 4, -36
  59              		.cfi_offset 5, -32
  60              		.cfi_offset 6, -28
  61              		.cfi_offset 7, -24
  62              		.cfi_offset 8, -20
  63              		.cfi_offset 9, -16
  64              		.cfi_offset 10, -12
  65              		.cfi_offset 11, -8
  66              		.cfi_offset 14, -4
  67              		.loc 1 93 12 view .LVU5
  68 0004 02F00309 		and	r9, r2, #3
  69              	.LVL1:
  70              		.loc 1 94 3 is_stmt 1 view .LVU6
  71              		.loc 1 96 12 is_stmt 0 view .LVU7
  72 0008 C2F34114 		ubfx	r4, r2, #5, #2
  73              		.loc 1 94 12 view .LVU8
  74 000c C2F38006 		ubfx	r6, r2, #2, #1
  75              	.LVL2:
  76              		.loc 1 95 3 is_stmt 1 view .LVU9
  77              		.loc 1 95 12 is_stmt 0 view .LVU10
  78 0010 C2F3C105 		ubfx	r5, r2, #3, #2
  79              	.LVL3:
  80              		.loc 1 96 3 is_stmt 1 view .LVU11
  81              		.loc 1 97 3 view .LVU12
  82              		.loc 1 97 12 is_stmt 0 view .LVU13
  83 0014 C2F3C317 		ubfx	r7, r2, #7, #4
  84              	.LVL4:
  85              		.loc 1 98 3 is_stmt 1 view .LVU14
  86              		.loc 1 93 12 is_stmt 0 view .LVU15
  87 0018 CE46     		mov	lr, r9
  88              		.loc 1 98 12 view .LVU16
  89 001a 0022     		movs	r2, #0
  90              	.LVL5:
  91              	.LBB2:
  92              		.loc 1 106 15 view .LVU17
  93 001c 4FF00F0B 		mov	fp, #15
  94              		.loc 1 105 14 view .LVU18
  95 0020 A046     		mov	r8, r4
  96 0022 16E0     		b	.L10
  97              	.LVL6:
  98              	.L5:
  99              		.loc 1 122 9 is_stmt 1 view .LVU19
 100              		.loc 1 122 30 is_stmt 0 view .LVU20
 101 0024 0368     		ldr	r3, [r0]
 102              		.loc 1 123 12 view .LVU21
 103 0026 072A     		cmp	r2, #7
 104              		.loc 1 122 38 view .LVU22
 105 0028 0AEA0303 		and	r3, r10, r3
 106              		.loc 1 122 45 view .LVU23
 107 002c 43EA0E03 		orr	r3, r3, lr
 108              		.loc 1 122 23 view .LVU24
 109 0030 0360     		str	r3, [r0]
 110              		.loc 1 123 9 is_stmt 1 view .LVU25
 111              		.loc 1 123 12 is_stmt 0 view .LVU26
 112 0032 4AD8     		bhi	.L8
 113              		.loc 1 124 11 is_stmt 1 view .LVU27
 114              		.loc 1 124 29 is_stmt 0 view .LVU28
ARM GAS  C:\Users\DEVELO~1\AppData\Local\Temp\ccsWRiBg.s 			page 3


 115 0034 036A     		ldr	r3, [r0, #32]
 116              		.loc 1 124 36 view .LVU29
 117 0036 23EA0403 		bic	r3, r3, r4
 118              		.loc 1 124 43 view .LVU30
 119 003a 43EA0C03 		orr	r3, r3, ip
 120              		.loc 1 124 22 view .LVU31
 121 003e 0362     		str	r3, [r0, #32]
 122              	.LVL7:
 123              	.L4:
 124              		.loc 1 124 22 view .LVU32
 125              	.LBE2:
 126              		.loc 1 129 5 is_stmt 1 view .LVU33
 127              		.loc 1 130 5 view .LVU34
 128              		.loc 1 130 8 is_stmt 0 view .LVU35
 129 0040 4908     		lsrs	r1, r1, #1
 130              	.LVL8:
 131              		.loc 1 130 8 view .LVU36
 132 0042 40D0     		beq	.L14
 133              	.LVL9:
 134              	.L16:
 135              		.loc 1 132 5 is_stmt 1 view .LVU37
 136              		.loc 1 132 12 is_stmt 0 view .LVU38
 137 0044 7600     		lsls	r6, r6, #1
 138              	.LVL10:
 139              		.loc 1 133 5 is_stmt 1 view .LVU39
 140              		.loc 1 136 8 is_stmt 0 view .LVU40
 141 0046 0132     		adds	r2, r2, #1
 142              	.LVL11:
 143              		.loc 1 133 13 view .LVU41
 144 0048 AD00     		lsls	r5, r5, #2
 145              	.LVL12:
 146              		.loc 1 134 5 is_stmt 1 view .LVU42
 147              		.loc 1 134 11 is_stmt 0 view .LVU43
 148 004a 4FEA8808 		lsl	r8, r8, #2
 149              	.LVL13:
 150              		.loc 1 135 5 is_stmt 1 view .LVU44
 151              		.loc 1 135 11 is_stmt 0 view .LVU45
 152 004e 4FEA8E0E 		lsl	lr, lr, #2
 153              	.LVL14:
 154              		.loc 1 136 5 is_stmt 1 view .LVU46
 155              		.loc 1 99 9 view .LVU47
 156              	.L10:
 157              		.loc 1 99 3 view .LVU48
 158              		.loc 1 100 5 view .LVU49
 159              		.loc 1 100 8 is_stmt 0 view .LVU50
 160 0052 CB07     		lsls	r3, r1, #31
 161 0054 F4D5     		bpl	.L4
 162              	.LBB3:
 163              		.loc 1 101 7 is_stmt 1 view .LVU51
 164              		.loc 1 103 7 view .LVU52
 165              		.loc 1 104 14 is_stmt 0 view .LVU53
 166 0056 0124     		movs	r4, #1
 167              		.loc 1 107 28 view .LVU54
 168 0058 4368     		ldr	r3, [r0, #4]
 169              		.loc 1 110 10 view .LVU55
 170 005a B9F1020F 		cmp	r9, #2
 171              		.loc 1 104 14 view .LVU56
ARM GAS  C:\Users\DEVELO~1\AppData\Local\Temp\ccsWRiBg.s 			page 4


 172 005e 04FA02F4 		lsl	r4, r4, r2
 173              		.loc 1 107 37 view .LVU57
 174 0062 23EA0403 		bic	r3, r3, r4
 175              		.loc 1 105 14 view .LVU58
 176 0066 4FF00304 		mov	r4, #3
 177              		.loc 1 107 44 view .LVU59
 178 006a 43EA0603 		orr	r3, r3, r6
 179              		.loc 1 107 21 view .LVU60
 180 006e 4360     		str	r3, [r0, #4]
 181              		.loc 1 105 14 view .LVU61
 182 0070 4FEA4203 		lsl	r3, r2, #1
 183 0074 04FA03F3 		lsl	r3, r4, r3
 184              		.loc 1 108 28 view .LVU62
 185 0078 8468     		ldr	r4, [r0, #8]
 186              		.loc 1 108 38 view .LVU63
 187 007a 24EA0304 		bic	r4, r4, r3
 188              		.loc 1 108 40 view .LVU64
 189 007e 6FEA030A 		mvn	r10, r3
 190              		.loc 1 108 45 view .LVU65
 191 0082 44EA0504 		orr	r4, r4, r5
 192              		.loc 1 108 21 view .LVU66
 193 0086 8460     		str	r4, [r0, #8]
 194              		.loc 1 109 28 view .LVU67
 195 0088 C468     		ldr	r4, [r0, #12]
 196              		.loc 1 109 36 view .LVU68
 197 008a 24EA030C 		bic	ip, r4, r3
 198              		.loc 1 103 32 view .LVU69
 199 008e 02F00704 		and	r4, r2, #7
 200              		.loc 1 109 43 view .LVU70
 201 0092 4CEA0803 		orr	r3, ip, r8
 202              		.loc 1 103 37 view .LVU71
 203 0096 4FEA8404 		lsl	r4, r4, #2
 204              		.loc 1 109 21 view .LVU72
 205 009a C360     		str	r3, [r0, #12]
 206              		.loc 1 103 16 view .LVU73
 207 009c 07FA04FC 		lsl	ip, r7, r4
 208              	.LVL15:
 209              		.loc 1 104 7 is_stmt 1 view .LVU74
 210              		.loc 1 105 7 view .LVU75
 211              		.loc 1 106 7 view .LVU76
 212              		.loc 1 106 15 is_stmt 0 view .LVU77
 213 00a0 0BFA04F4 		lsl	r4, fp, r4
 214              	.LVL16:
 215              		.loc 1 107 7 is_stmt 1 view .LVU78
 216              		.loc 1 108 7 view .LVU79
 217              		.loc 1 109 7 view .LVU80
 218              		.loc 1 110 7 view .LVU81
 219              		.loc 1 110 10 is_stmt 0 view .LVU82
 220 00a4 BED1     		bne	.L5
 221              		.loc 1 113 9 is_stmt 1 view .LVU83
 222              		.loc 1 113 12 is_stmt 0 view .LVU84
 223 00a6 072A     		cmp	r2, #7
 224 00a8 16D8     		bhi	.L6
 225              		.loc 1 114 11 is_stmt 1 view .LVU85
 226              		.loc 1 114 29 is_stmt 0 view .LVU86
 227 00aa 036A     		ldr	r3, [r0, #32]
 228              		.loc 1 114 36 view .LVU87
ARM GAS  C:\Users\DEVELO~1\AppData\Local\Temp\ccsWRiBg.s 			page 5


 229 00ac 23EA0403 		bic	r3, r3, r4
 230              		.loc 1 114 43 view .LVU88
 231 00b0 43EA0C03 		orr	r3, r3, ip
 232              		.loc 1 114 22 view .LVU89
 233 00b4 0362     		str	r3, [r0, #32]
 234              	.L7:
 235              		.loc 1 117 9 is_stmt 1 view .LVU90
 236              		.loc 1 117 30 is_stmt 0 view .LVU91
 237 00b6 0368     		ldr	r3, [r0]
 238              	.LBE3:
 239              		.loc 1 130 8 view .LVU92
 240 00b8 4908     		lsrs	r1, r1, #1
 241              	.LVL17:
 242              	.LBB4:
 243              		.loc 1 117 38 view .LVU93
 244 00ba 0AEA0303 		and	r3, r10, r3
 245              		.loc 1 117 45 view .LVU94
 246 00be 43EA0E03 		orr	r3, r3, lr
 247              		.loc 1 117 23 view .LVU95
 248 00c2 0360     		str	r3, [r0]
 249              	.LBE4:
 250              		.loc 1 129 5 is_stmt 1 view .LVU96
 251              		.loc 1 130 5 view .LVU97
 252              		.loc 1 130 8 is_stmt 0 view .LVU98
 253 00c4 BED1     		bne	.L16
 254              	.LVL18:
 255              	.L14:
 256              		.loc 1 138 1 view .LVU99
 257 00c6 BDE8F08F 		pop	{r4, r5, r6, r7, r8, r9, r10, fp, pc}
 258              	.LVL19:
 259              	.L8:
 260              	.LBB5:
 261              		.loc 1 126 11 is_stmt 1 view .LVU100
 262              		.loc 1 126 29 is_stmt 0 view .LVU101
 263 00ca 436A     		ldr	r3, [r0, #36]
 264              		.loc 1 126 36 view .LVU102
 265 00cc 23EA0403 		bic	r3, r3, r4
 266              		.loc 1 126 43 view .LVU103
 267 00d0 43EA0C03 		orr	r3, r3, ip
 268              		.loc 1 126 22 view .LVU104
 269 00d4 4362     		str	r3, [r0, #36]
 270 00d6 B3E7     		b	.L4
 271              	.L6:
 272              		.loc 1 116 11 is_stmt 1 view .LVU105
 273              		.loc 1 116 29 is_stmt 0 view .LVU106
 274 00d8 436A     		ldr	r3, [r0, #36]
 275              		.loc 1 116 36 view .LVU107
 276 00da 23EA0403 		bic	r3, r3, r4
 277              		.loc 1 116 43 view .LVU108
 278 00de 43EA0C03 		orr	r3, r3, ip
 279              		.loc 1 116 22 view .LVU109
 280 00e2 4362     		str	r3, [r0, #36]
 281 00e4 E7E7     		b	.L7
 282              	.LBE5:
 283              		.cfi_endproc
 284              	.LFE449:
 285              		.size	_pal_lld_setgroupmode, .-_pal_lld_setgroupmode
ARM GAS  C:\Users\DEVELO~1\AppData\Local\Temp\ccsWRiBg.s 			page 6


 286 00e6 00BF     		.text
 287              	.Letext0:
 288              		.file 2 "c:\\chibistudio\\tools\\gnu tools arm embedded\\11.3 2022.08\\arm-none-eabi\\include\\mac
 289              		.file 3 "c:\\chibistudio\\tools\\gnu tools arm embedded\\11.3 2022.08\\arm-none-eabi\\include\\sys
 290              		.file 4 "../../../os/hal/ports/STM32/LLD/GPIOv2/stm32_gpio.h"
 291              		.file 5 "../../../os/hal/ports/STM32/LLD/GPIOv2/hal_pal_lld.h"