ARM GAS  C:\Users\DEVELO~1\AppData\Local\Temp\ccsWRiBg.s 			page 1


   1              		.cpu cortex-m7
   2              		.arch armv7e-m
   3              		.fpu fpv5-d16
   4              		.eabi_attribute 28, 1
   5              		.eabi_attribute 20, 1
   6              		.eabi_attribute 21, 1
   7              		.eabi_attribute 23, 3
   8              		.eabi_attribute 24, 1
   9              		.eabi_attribute 25, 1
  10              		.eabi_attribute 26, 1
  11              		.eabi_attribute 30, 2
  12              		.eabi_attribute 34, 1
  13              		.eabi_attribute 18, 4
  14              		.file	"hal_pal_lld.c"
  15              		.text
  16              	.Ltext0:
  17              		.cfi_sections	.debug_frame
  18              		.section	.text._pal_lld_init,"ax",%progbits
  19              		.align	1
  20              		.p2align 2,,3
  21              		.global	_pal_lld_init
  22              		.syntax unified
  23              		.thumb
  24              		.thumb_func
  25              		.type	_pal_lld_init, %function
  26              	_pal_lld_init:
  27              	.LFB448:
  28              		.file 1 "../../../os/hal/ports/STM32/LLD/GPIOv2/hal_pal_lld.c"
  29              		.loc 1 65 26 view -0
  30              		.cfi_startproc
  31              		@ args = 0, pretend = 0, frame = 0
  32              		@ frame_needed = 0, uses_anonymous_args = 0
  33              		@ link register save eliminated.
  34              		.loc 1 74 1 view .LVU1
  35 0000 7047     		bx	lr
  36              		.cfi_endproc
  37              	.LFE448:
  38              		.size	_pal_lld_init, .-_pal_lld_init
  39 0002 00BF     		.section	.text._pal_lld_setgroupmode,"ax",%progbits
  40              		.align	1
  41              		.p2align 2,,3
  42              		.global	_pal_lld_setgroupmode
  43              		.syntax unified
  44              		.thumb
  45              		.thumb_func
  46              		.type	_pal_lld_setgroupmode, %function
  47              	_pal_lld_setgroupmode:
  48              	.LVL0:
  49              	.LFB449:
  50              		.loc 1 91 43 view -0
  51              		.cfi_startproc
  52              		@ args = 0, pretend = 0, frame = 0
  53              		@ frame_needed = 0, uses_anonymous_args = 0
  54              		.loc 1 93 3 view .LVU3
  55              		.loc 1 91 43 is_stmt 0 view .LVU4
  56 0000 2DE9F04F 		push	{r4, r5, r6, r7, r8, r9, r10, fp, lr}
  57              		.cfi_def_cfa_offset 36
ARM GAS  C:\Users\DEVELO~1\AppData\Local\Temp\ccsWRiBg.s 			page 2


  58              		.cfi_offset 4, -36
  59              		.cfi_offset 5, -32
  60              		.cfi_offset 6, -28
  61              		.cfi_offset 7, -24
  62              		.cfi_offset 8, -20
  63              		.cfi_offset 9, -16
  64              		.cfi_offset 10, -12
  65              		.cfi_offset 11, -8
  66              		.cfi_offset 14, -4
  67              		.loc 1 93 12 view .LVU5
  68 0004 02F00309 		and	r9, r2, #3
  69              	.LVL1:
  70              		.loc 1 94 3 is_stmt 1 view .LVU6
  71              		.loc 1 96 12 is_stmt 0 view .LVU7
  72 0008 C2F34114 		ubfx	r4, r2, #5, #2
  73              		.loc 1 94 12 view .LVU8
  74 000c C2F38006 		ubfx	r6, r2, #2, #1
  75              	.LVL2:
  76              		.loc 1 95 3 is_stmt 1 view .LVU9
  77              		.loc 1 95 12 is_stmt 0 view .LVU10
  78 0010 C2F3C105 		ubfx	r5, r2, #3, #2
  79              	.LVL3:
  80              		.loc 1 96 3 is_stmt 1 view .LVU11
  81              		.loc 1 97 3 view .LVU12
  82              		.loc 1 97 12 is_stmt 0 view .LVU13
  83 0014 C2F3C317 		ubfx	r7, r2, #7, #4
  84              	.LVL4:
  85              		.loc 1 98 3 is_stmt 1 view .LVU14
  86              		.loc 1 93 12 is_stmt 0 view .LVU15
  87 0018 CE46     		mov	lr, r9
  88              		.loc 1 98 12 view .LVU16
  89 001a 0022     		movs	r2, #0
  90              	.LVL5:
  91              	.LBB2:
  92              		.loc 1 106 15 view .LVU17
  93 001c 4FF00F0B 		mov	fp, #15
  94              		.loc 1 105 14 view .LVU18
  95 0020 A046     		mov	r8, r4
  96 0022 16E0     		b	.L10
  97              	.LVL6:
  98              	.L5:
  99              		.loc 1 122 9 is_stmt 1 view .LVU19
 100              		.loc 1 122 30 is_stmt 0 view .LVU20
 101 0024 0368     		ldr	r3, [r0]
 102              		.loc 1 123 12 view .LVU21
 103 0026 072A     		cmp	r2, #7
 104              		.loc 1 122 38 view .LVU22
 105 0028 0AEA0303 		and	r3, r10, r3
 106              		.loc 1 122 45 view .LVU23
 107 002c 43EA0E03 		orr	r3, r3, lr
 108              		.loc 1 122 23 view .LVU24
 109 0030 0360     		str	r3, [r0]
 110              		.loc 1 123 9 is_stmt 1 view .LVU25
 111              		.loc 1 123 12 is_stmt 0 view .LVU26
 112 0032 4AD8     		bhi	.L8
 113              		.loc 1 124 11 is_stmt 1 view .LVU27
 114              		.loc 1 124 29 is_stmt 0 view .LVU28
ARM GAS  C:\Users\DEVELO~1\AppData\Local\Temp\ccsWRiBg.s 			page 3


 115 0034 036A     		ldr	r3, [r0, #32]
 116              		.loc 1 124 36 view .LVU29
 117 0036 23EA0403 		bic	r3, r3, r4
 118              		.loc 1 124 43 view .LVU30
 119 003a 43EA0C03 		orr	r3, r3, ip
 120              		.loc 1 124 22 view .LVU31
 121 003e 0362     		str	r3, [r0, #32]
 122              	.LVL7:
 123              	.L4:
 124              		.loc 1 124 22 view .LVU32
 125              	.LBE2:
 126              		.loc 1 129 5 is_stmt 1 view .LVU33
 127              		.loc 1 130 5 view .LVU34
 128              		.loc 1 130 8 is_stmt 0 view .LVU35
 129 0040 4908     		lsrs	r1, r1, #1
 130              	.LVL8:
 131              		.loc 1 130 8 view .LVU36
 132 0042 40D0     		beq	.L14
 133              	.LVL9:
 134              	.L16:
 135              		.loc 1 132 5 is_stmt 1 view .LVU37
 136              		.loc 1 132 12 is_stmt 0 view .LVU38
 137 0044 7600     		lsls	r6, r6, #1
 138              	.LVL10:
 139              		.loc 1 133 5 is_stmt 1 view .LVU39
 140              		.loc 1 136 8 is_stmt 0 view .LVU40
 141 0046 0132     		adds	r2, r2, #1
 142              	.LVL11:
 143              		.loc 1 133 13 view .LVU41
 144 0048 AD00     		lsls	r5, r5, #2
 145              	.LVL12:
 146              		.loc 1 134 5 is_stmt 1 view .LVU42
 147              		.loc 1 134 11 is_stmt 0 view .LVU43
 148 004a 4FEA8808 		lsl	r8, r8, #2
 149              	.LVL13:
 150              		.loc 1 135 5 is_stmt 1 view .LVU44
 151              		.loc 1 135 11 is_stmt 0 view .LVU45
 152 004e 4FEA8E0E 		lsl	lr, lr, #2
 153              	.LVL14:
 154              		.loc 1 136 5 is_stmt 1 view .LVU46
 155              		.loc 1 99 9 view .LVU47
 156              	.L10:
 157              		.loc 1 99 3 view .LVU48
 158              		.loc 1 100 5 view .LVU49
 159              		.loc 1 100 8 is_stmt 0 view .LVU50
 160 0052 CB07     		lsls	r3, r1, #31
 161 0054 F4D5     		bpl	.L4
 162              	.LBB3:
 163              		.loc 1 101 7 is_stmt 1 view .LVU51
 164              		.loc 1 103 7 view .LVU52
 165              		.loc 1 104 14 is_stmt 0 view .LVU53
 166 0056 0124     		movs	r4, #1
 167              		.loc 1 107 28 view .LVU54
 168 0058 4368     		ldr	r3, [r0, #4]
 169              		.loc 1 110 10 view .LVU55
 170 005a B9F1020F 		cmp	r9, #2
 171              		.loc 1 104 14 view .LVU56
ARM GAS  C:\Users\DEVELO~1\AppData\Local\Temp\ccsWRiBg.s 			page 4


 172 005e 04FA02F4 		lsl	r4, r4, r2
 173              		.loc 1 107 37 view .LVU57
 174 0062 23EA0403 		bic	r3, r3, r4
 175              		.loc 1 105 14 view .LVU58
 176 0066 4FF00304 		mov	r4, #3
 177              		.loc 1 107 44 view .LVU59
 178 006a 43EA0603 		orr	r3, r3, r6
 179              		.loc 1 107 21 view .LVU60
 180 006e 4360     		str	r3, [r0, #4]
 181              		.loc 1 105 14 view .LVU61
 182 0070 4FEA4203 		lsl	r3, r2, #1
 183 0074 04FA03F3 		lsl	r3, r4, r3
 184              		.loc 1 108 28 view .LVU62
 185 0078 8468     		ldr	r4, [r0, #8]
 186              		.loc 1 108 38 view .LVU63
 187 007a 24EA0304 		bic	r4, r4, r3
 188              		.loc 1 108 40 view .LVU64
 189 007e 6FEA030A 		mvn	r10, r3
 190              		.loc 1 108 45 view .LVU65
 191 0082 44EA0504 		orr	r4, r4, r5
 192              		.loc 1 108 21 view .LVU66
 193 0086 8460     		str	r4, [r0, #8]
 194              		.loc 1 109 28 view .LVU67
 195 0088 C468     		ldr	r4, [r0, #12]
 196              		.loc 1 109 36 view .LVU68
 197 008a 24EA030C 		bic	ip, r4, r3
 198              		.loc 1 103 32 view .LVU69
 199 008e 02F00704 		and	r4, r2, #7
 200              		.loc 1 109 43 view .LVU70
 201 0092 4CEA0803 		orr	r3, ip, r8
 202              		.loc 1 103 37 view .LVU71
 203 0096 4FEA8404 		lsl	r4, r4, #2
 204              		.loc 1 109 21 view .LVU72
 205 009a C360     		str	r3, [r0, #12]
 206              		.loc 1 103 16 view .LVU73
 207 009c 07FA04FC 		lsl	ip, r7, r4
 208              	.LVL15:
 209              		.loc 1 104 7 is_stmt 1 view .LVU74
 210              		.loc 1 105 7 view .LVU75
 211              		.loc 1 106 7 view .LVU76
 212              		.loc 1 106 15 is_stmt 0 view .LVU77
 213 00a0 0BFA04F4 		lsl	r4, fp, r4
 214              	.LVL16:
 215              		.loc 1 107 7 is_stmt 1 view .LVU78
 216              		.loc 1 108 7 view .LVU79
 217              		.loc 1 109 7 view .LVU80
 218              		.loc 1 110 7 view .LVU81
 219              		.loc 1 110 10 is_stmt 0 view .LVU82
 220 00a4 BED1     		bne	.L5
 221              		.loc 1 113 9 is_stmt 1 view .LVU83
 222              		.loc 1 113 12 is_stmt 0 view .LVU84
 223 00a6 072A     		cmp	r2, #7
 224 00a8 16D8     		bhi	.L6
 225              		.loc 1 114 11 is_stmt 1 view .LVU85
 226              		.loc 1 114 29 is_stmt 0 view .LVU86
 227 00aa 036A     		ldr	r3, [r0, #32]
 228              		.loc 1 114 36 view .LVU87
ARM GAS  C:\Users\DEVELO~1\AppData\Local\Temp\ccsWRiBg.s 			page 5


 229 00ac 23EA0403 		bic	r3, r3, r4
 230              		.loc 1 114 43 view .LVU88
 231 00b0 43EA0C03 		orr	r3, r3, ip
 232              		.loc 1 114 22 view .LVU89
 233 00b4 0362     		str	r3, [r0, #32]
 234              	.L7:
 235              		.loc 1 117 9 is_stmt 1 view .LVU90
 236              		.loc 1 117 30 is_stmt 0 view .LVU91
 237 00b6 0368     		ldr	r3, [r0]
 238              	.LBE3:
 239              		.loc 1 130 8 view .LVU92
 240 00b8 4908     		lsrs	r1, r1, #1
 241              	.LVL17:
 242              	.LBB4:
 243              		.loc 1 117 38 view .LVU93
 244 00ba 0AEA0303 		and	r3, r10, r3
 245              		.loc 1 117 45 view .LVU94
 246 00be 43EA0E03 		orr	r3, r3, lr
 247              		.loc 1 117 23 view .LVU95
 248 00c2 0360     		str	r3, [r0]
 249              	.LBE4:
 250              		.loc 1 129 5 is_stmt 1 view .LVU96
 251              		.loc 1 130 5 view .LVU97
 252              		.loc 1 130 8 is_stmt 0 view .LVU98
 253 00c4 BED1     		bne	.L16
 254              	.LVL18:
 255              	.L14:
 256              		.loc 1 138 1 view .LVU99
 257 00c6 BDE8F08F 		pop	{r4, r5, r6, r7, r8, r9, r10, fp, pc}
 258              	.LVL19:
 259              	.L8:
 260              	.LBB5:
 261              		.loc 1 126 11 is_stmt 1 view .LVU100
 262              		.loc 1 126 29 is_stmt 0 view .LVU101
 263 00ca 436A     		ldr	r3, [r0, #36]
 264              		.loc 1 126 36 view .LVU102
 265 00cc 23EA0403 		bic	r3, r3, r4
 266              		.loc 1 126 43 view .LVU103
 267 00d0 43EA0C03 		orr	r3, r3, ip
 268              		.loc 1 126 22 view .LVU104
 269 00d4 4362     		str	r3, [r0, #36]
 270 00d6 B3E7     		b	.L4
 271              	.L6:
 272              		.loc 1 116 11 is_stmt 1 view .LVU105
 273              		.loc 1 116 29 is_stmt 0 view .LVU106
 274 00d8 436A     		ldr	r3, [r0, #36]
 275              		.loc 1 116 36 view .LVU107
 276 00da 23EA0403 		bic	r3, r3, r4
 277              		.loc 1 116 43 view .LVU108
 278 00de 43EA0C03 		orr	r3, r3, ip
 279              		.loc 1 116 22 view .LVU109
 280 00e2 4362     		str	r3, [r0, #36]
 281 00e4 E7E7     		b	.L7
 282              	.LBE5:
 283              		.cfi_endproc
 284              	.LFE449:
 285              		.size	_pal_lld_setgroupmode, .-_pal_lld_setgroupmode
ARM GAS  C:\Users\DEVELO~1\AppData\Local\Temp\ccsWRiBg.s 			page 6


 286 00e6 00BF     		.text
 287              	.Letext0:
 288              		.file 2 "c:\\chibistudio\\tools\\gnu tools arm embedded\\11.3 2022.08\\arm-none-eabi\\include\\mac
 289              		.file 3 "c:\\chibistudio\\tools\\gnu tools arm embedded\\11.3 2022.08\\arm-none-eabi\\include\\sys
 290              		.file 4 "../../../os/hal/ports/STM32/LLD/GPIOv2/stm32_gpio.h"
 291              		.file 5 "../../../os/hal/ports/STM32/LLD/GPIOv2/hal_pal_lld.h"
 292              		.section	.debug_info,"",%progbits
 293              	.Ldebug_info0:
 294 0000 C7020000 		.4byte	0x2c7
 295 0004 0500     		.2byte	0x5
 296 0006 01       		.byte	0x1
 297 0007 04       		.byte	0x4
 298 0008 00000000 		.4byte	.Ldebug_abbrev0
 299 000c 0B       		.uleb128 0xb
 300 000d 65010000 		.4byte	.LASF37
 301 0011 1D       		.byte	0x1d
 302 0012 7A000000 		.4byte	.LASF38
 303 0016 11010000 		.4byte	.LASF39
 304 001a 23000000 		.4byte	.LLRL13
 305 001e 00000000 		.4byte	0
 306 0022 00000000 		.4byte	.Ldebug_line0
 307 0026 0C       		.uleb128 0xc
 308 0027 04       		.byte	0x4
 309 0028 05       		.byte	0x5
 310 0029 696E7400 		.ascii	"int\000"
 311 002d 01       		.uleb128 0x1
 312 002e 04       		.byte	0x4
 313 002f 07       		.byte	0x7
 314 0030 05020000 		.4byte	.LASF0
 315 0034 01       		.uleb128 0x1
 316 0035 08       		.byte	0x8
 317 0036 05       		.byte	0x5
 318 0037 00000000 		.4byte	.LASF1
 319 003b 01       		.uleb128 0x1
 320 003c 08       		.byte	0x8
 321 003d 04       		.byte	0x4
 322 003e 72020000 		.4byte	.LASF2
 323 0042 01       		.uleb128 0x1
 324 0043 01       		.byte	0x1
 325 0044 06       		.byte	0x6
 326 0045 7E020000 		.4byte	.LASF3
 327 0049 01       		.uleb128 0x1
 328 004a 01       		.byte	0x1
 329 004b 08       		.byte	0x8
 330 004c AF000000 		.4byte	.LASF4
 331 0050 01       		.uleb128 0x1
 332 0051 02       		.byte	0x2
 333 0052 05       		.byte	0x5
 334 0053 35000000 		.4byte	.LASF5
 335 0057 03       		.uleb128 0x3
 336 0058 F2000000 		.4byte	.LASF8
 337 005c 02       		.byte	0x2
 338 005d 39       		.byte	0x39
 339 005e 19       		.byte	0x19
 340 005f 63000000 		.4byte	0x63
 341 0063 01       		.uleb128 0x1
 342 0064 02       		.byte	0x2
ARM GAS  C:\Users\DEVELO~1\AppData\Local\Temp\ccsWRiBg.s 			page 7


 343 0065 07       		.byte	0x7
 344 0066 D4000000 		.4byte	.LASF6
 345 006a 01       		.uleb128 0x1
 346 006b 04       		.byte	0x4
 347 006c 05       		.byte	0x5
 348 006d 69020000 		.4byte	.LASF7
 349 0071 03       		.uleb128 0x3
 350 0072 06010000 		.4byte	.LASF9
 351 0076 02       		.byte	0x2
 352 0077 4F       		.byte	0x4f
 353 0078 19       		.byte	0x19
 354 0079 7D000000 		.4byte	0x7d
 355 007d 01       		.uleb128 0x1
 356 007e 04       		.byte	0x4
 357 007f 07       		.byte	0x7
 358 0080 C2000000 		.4byte	.LASF10
 359 0084 01       		.uleb128 0x1
 360 0085 08       		.byte	0x8
 361 0086 07       		.byte	0x7
 362 0087 63000000 		.4byte	.LASF11
 363 008b 03       		.uleb128 0x3
 364 008c 57020000 		.4byte	.LASF12
 365 0090 03       		.byte	0x3
 366 0091 24       		.byte	0x24
 367 0092 14       		.byte	0x14
 368 0093 57000000 		.4byte	0x57
 369 0097 03       		.uleb128 0x3
 370 0098 60020000 		.4byte	.LASF13
 371 009c 03       		.byte	0x3
 372 009d 30       		.byte	0x30
 373 009e 14       		.byte	0x14
 374 009f 71000000 		.4byte	0x71
 375 00a3 07       		.uleb128 0x7
 376 00a4 97000000 		.4byte	0x97
 377 00a8 01       		.uleb128 0x1
 378 00a9 01       		.byte	0x1
 379 00aa 08       		.byte	0x8
 380 00ab 17020000 		.4byte	.LASF14
 381 00af 01       		.uleb128 0x1
 382 00b0 01       		.byte	0x1
 383 00b1 02       		.byte	0x2
 384 00b2 90020000 		.4byte	.LASF15
 385 00b6 08       		.uleb128 0x8
 386 00b7 04       		.byte	0x4
 387 00b8 5B       		.byte	0x5b
 388 00b9 05       		.byte	0x5
 389 00ba D6000000 		.4byte	0xd6
 390 00be 06       		.uleb128 0x6
 391 00bf 73657400 		.ascii	"set\000"
 392 00c3 5C       		.byte	0x5c
 393 00c4 8B000000 		.4byte	0x8b
 394 00c8 00       		.byte	0
 395 00c9 02       		.uleb128 0x2
 396 00ca 16000000 		.4byte	.LASF16
 397 00ce 5D       		.byte	0x5d
 398 00cf 19       		.byte	0x19
 399 00d0 8B000000 		.4byte	0x8b
ARM GAS  C:\Users\DEVELO~1\AppData\Local\Temp\ccsWRiBg.s 			page 8


 400 00d4 02       		.byte	0x2
 401 00d5 00       		.byte	0
 402 00d6 0D       		.uleb128 0xd
 403 00d7 04       		.byte	0x4
 404 00d8 04       		.byte	0x4
 405 00d9 59       		.byte	0x59
 406 00da 0C       		.byte	0xc
 407 00db F2000000 		.4byte	0xf2
 408 00df 09       		.uleb128 0x9
 409 00e0 5700     		.ascii	"W\000"
 410 00e2 5A       		.byte	0x5a
 411 00e3 19       		.byte	0x19
 412 00e4 97000000 		.4byte	0x97
 413 00e8 09       		.uleb128 0x9
 414 00e9 4800     		.ascii	"H\000"
 415 00eb 5E       		.byte	0x5e
 416 00ec 07       		.byte	0x7
 417 00ed B6000000 		.4byte	0xb6
 418 00f1 00       		.byte	0
 419 00f2 07       		.uleb128 0x7
 420 00f3 D6000000 		.4byte	0xd6
 421 00f7 08       		.uleb128 0x8
 422 00f8 28       		.byte	0x28
 423 00f9 51       		.byte	0x51
 424 00fa 09       		.byte	0x9
 425 00fb 76010000 		.4byte	0x176
 426 00ff 02       		.uleb128 0x2
 427 0100 1C000000 		.4byte	.LASF17
 428 0104 53       		.byte	0x53
 429 0105 19       		.byte	0x19
 430 0106 A3000000 		.4byte	0xa3
 431 010a 00       		.byte	0
 432 010b 02       		.uleb128 0x2
 433 010c 53000000 		.4byte	.LASF18
 434 0110 54       		.byte	0x54
 435 0111 19       		.byte	0x19
 436 0112 A3000000 		.4byte	0xa3
 437 0116 04       		.byte	0x4
 438 0117 02       		.uleb128 0x2
 439 0118 0E000000 		.4byte	.LASF19
 440 011c 55       		.byte	0x55
 441 011d 19       		.byte	0x19
 442 011e A3000000 		.4byte	0xa3
 443 0122 08       		.byte	0x8
 444 0123 02       		.uleb128 0x2
 445 0124 34020000 		.4byte	.LASF20
 446 0128 56       		.byte	0x56
 447 0129 19       		.byte	0x19
 448 012a A3000000 		.4byte	0xa3
 449 012e 0C       		.byte	0xc
 450 012f 06       		.uleb128 0x6
 451 0130 49445200 		.ascii	"IDR\000"
 452 0134 57       		.byte	0x57
 453 0135 A3000000 		.4byte	0xa3
 454 0139 10       		.byte	0x10
 455 013a 06       		.uleb128 0x6
 456 013b 4F445200 		.ascii	"ODR\000"
ARM GAS  C:\Users\DEVELO~1\AppData\Local\Temp\ccsWRiBg.s 			page 9


 457 013f 58       		.byte	0x58
 458 0140 A3000000 		.4byte	0xa3
 459 0144 14       		.byte	0x14
 460 0145 02       		.uleb128 0x2
 461 0146 30000000 		.4byte	.LASF21
 462 014a 5F       		.byte	0x5f
 463 014b 05       		.byte	0x5
 464 014c F2000000 		.4byte	0xf2
 465 0150 18       		.byte	0x18
 466 0151 02       		.uleb128 0x2
 467 0152 21020000 		.4byte	.LASF22
 468 0156 60       		.byte	0x60
 469 0157 19       		.byte	0x19
 470 0158 A3000000 		.4byte	0xa3
 471 015c 1C       		.byte	0x1c
 472 015d 02       		.uleb128 0x2
 473 015e E7000000 		.4byte	.LASF23
 474 0162 61       		.byte	0x61
 475 0163 19       		.byte	0x19
 476 0164 A3000000 		.4byte	0xa3
 477 0168 20       		.byte	0x20
 478 0169 02       		.uleb128 0x2
 479 016a BD000000 		.4byte	.LASF24
 480 016e 62       		.byte	0x62
 481 016f 19       		.byte	0x19
 482 0170 A3000000 		.4byte	0xa3
 483 0174 24       		.byte	0x24
 484 0175 00       		.byte	0
 485 0176 03       		.uleb128 0x3
 486 0177 27020000 		.4byte	.LASF25
 487 017b 04       		.byte	0x4
 488 017c 63       		.byte	0x63
 489 017d 03       		.byte	0x3
 490 017e F7000000 		.4byte	0xf7
 491 0182 03       		.uleb128 0x3
 492 0183 46000000 		.4byte	.LASF26
 493 0187 05       		.byte	0x5
 494 0188 C2       		.byte	0xc2
 495 0189 12       		.byte	0x12
 496 018a 97000000 		.4byte	0x97
 497 018e 03       		.uleb128 0x3
 498 018f 5A000000 		.4byte	.LASF27
 499 0193 05       		.byte	0x5
 500 0194 C7       		.byte	0xc7
 501 0195 12       		.byte	0x12
 502 0196 97000000 		.4byte	0x97
 503 019a 03       		.uleb128 0x3
 504 019b 4C020000 		.4byte	.LASF28
 505 019f 05       		.byte	0x5
 506 01a0 D9       		.byte	0xd9
 507 01a1 18       		.byte	0x18
 508 01a2 A6010000 		.4byte	0x1a6
 509 01a6 0E       		.uleb128 0xe
 510 01a7 04       		.byte	0x4
 511 01a8 76010000 		.4byte	0x176
 512 01ac 0F       		.uleb128 0xf
 513 01ad 4F010000 		.4byte	.LASF40
ARM GAS  C:\Users\DEVELO~1\AppData\Local\Temp\ccsWRiBg.s 			page 10


 514 01b1 01       		.byte	0x1
 515 01b2 59       		.byte	0x59
 516 01b3 06       		.byte	0x6
 517 01b4 00000000 		.4byte	.LFB449
 518 01b8 E6000000 		.4byte	.LFE449-.LFB449
 519 01bc 01       		.uleb128 0x1
 520 01bd 9C       		.byte	0x9c
 521 01be B8020000 		.4byte	0x2b8
 522 01c2 10       		.uleb128 0x10
 523 01c3 47020000 		.4byte	.LASF41
 524 01c7 01       		.byte	0x1
 525 01c8 59       		.byte	0x59
 526 01c9 27       		.byte	0x27
 527 01ca 9A010000 		.4byte	0x19a
 528 01ce 01       		.uleb128 0x1
 529 01cf 50       		.byte	0x50
 530 01d0 0A       		.uleb128 0xa
 531 01d1 42020000 		.4byte	.LASF29
 532 01d5 5A       		.byte	0x5a
 533 01d6 29       		.byte	0x29
 534 01d7 82010000 		.4byte	0x182
 535 01db 16000000 		.4byte	.LLST0
 536 01df 0C000000 		.4byte	.LVUS0
 537 01e3 0A       		.uleb128 0xa
 538 01e4 1C020000 		.4byte	.LASF30
 539 01e8 5B       		.byte	0x5b
 540 01e9 25       		.byte	0x25
 541 01ea 8E010000 		.4byte	0x18e
 542 01ee 40000000 		.4byte	.LLST1
 543 01f2 3C000000 		.4byte	.LVUS1
 544 01f6 04       		.uleb128 0x4
 545 01f7 8A020000 		.4byte	.LASF31
 546 01fb 5D       		.byte	0x5d
 547 01fc 0C       		.byte	0xc
 548 01fd 97000000 		.4byte	0x97
 549 0201 58000000 		.4byte	.LLST2
 550 0205 54000000 		.4byte	.LVUS2
 551 0209 04       		.uleb128 0x4
 552 020a 3F000000 		.4byte	.LASF32
 553 020e 5E       		.byte	0x5e
 554 020f 0C       		.byte	0xc
 555 0210 97000000 		.4byte	0x97
 556 0214 6B000000 		.4byte	.LLST3
 557 0218 69000000 		.4byte	.LVUS3
 558 021c 04       		.uleb128 0x4
 559 021d 3A020000 		.4byte	.LASF33
 560 0221 5F       		.byte	0x5f
 561 0222 0C       		.byte	0xc
 562 0223 97000000 		.4byte	0x97
 563 0227 77000000 		.4byte	.LLST4
 564 022b 75000000 		.4byte	.LVUS4
 565 022f 04       		.uleb128 0x4
 566 0230 EC000000 		.4byte	.LASF34
 567 0234 60       		.byte	0x60
 568 0235 0C       		.byte	0xc
 569 0236 97000000 		.4byte	0x97
 570 023a 85000000 		.4byte	.LLST5
ARM GAS  C:\Users\DEVELO~1\AppData\Local\Temp\ccsWRiBg.s 			page 11


 571 023e 81000000 		.4byte	.LVUS5
 572 0242 04       		.uleb128 0x4
 573 0243 12020000 		.4byte	.LASF35
 574 0247 61       		.byte	0x61
 575 0248 0C       		.byte	0xc
 576 0249 97000000 		.4byte	0x97
 577 024d 98000000 		.4byte	.LLST6
 578 0251 96000000 		.4byte	.LVUS6
 579 0255 05       		.uleb128 0x5
 580 0256 62697400 		.ascii	"bit\000"
 581 025a 62       		.byte	0x62
 582 025b 0C       		.byte	0xc
 583 025c 97000000 		.4byte	0x97
 584 0260 AA000000 		.4byte	.LLST7
 585 0264 A2000000 		.4byte	.LVUS7
 586 0268 11       		.uleb128 0x11
 587 0269 0C000000 		.4byte	.LLRL8
 588 026d 04       		.uleb128 0x4
 589 026e FD000000 		.4byte	.LASF36
 590 0272 65       		.byte	0x65
 591 0273 10       		.byte	0x10
 592 0274 97000000 		.4byte	0x97
 593 0278 CE000000 		.4byte	.LLST9
 594 027c C8000000 		.4byte	.LVUS9
 595 0280 05       		.uleb128 0x5
 596 0281 6D3100   		.ascii	"m1\000"
 597 0284 65       		.byte	0x65
 598 0285 1A       		.byte	0x1a
 599 0286 97000000 		.4byte	0x97
 600 028a EC000000 		.4byte	.LLST10
 601 028e E6000000 		.4byte	.LVUS10
 602 0292 05       		.uleb128 0x5
 603 0293 6D3200   		.ascii	"m2\000"
 604 0296 65       		.byte	0x65
 605 0297 1E       		.byte	0x1e
 606 0298 97000000 		.4byte	0x97
 607 029c 16010000 		.4byte	.LLST11
 608 02a0 10010000 		.4byte	.LVUS11
 609 02a4 05       		.uleb128 0x5
 610 02a5 6D3400   		.ascii	"m4\000"
 611 02a8 65       		.byte	0x65
 612 02a9 22       		.byte	0x22
 613 02aa 97000000 		.4byte	0x97
 614 02ae 3D010000 		.4byte	.LLST12
 615 02b2 37010000 		.4byte	.LVUS12
 616 02b6 00       		.byte	0
 617 02b7 00       		.byte	0
 618 02b8 12       		.uleb128 0x12
 619 02b9 22000000 		.4byte	.LASF42
 620 02bd 01       		.byte	0x1
 621 02be 41       		.byte	0x41
 622 02bf 06       		.byte	0x6
 623 02c0 00000000 		.4byte	.LFB448
 624 02c4 02000000 		.4byte	.LFE448-.LFB448
 625 02c8 01       		.uleb128 0x1
 626 02c9 9C       		.byte	0x9c
 627 02ca 00       		.byte	0
ARM GAS  C:\Users\DEVELO~1\AppData\Local\Temp\ccsWRiBg.s 			page 12


 628              		.section	.debug_abbrev,"",%progbits
 629              	.Ldebug_abbrev0:
 630 0000 01       		.uleb128 0x1
 631 0001 24       		.uleb128 0x24
 632 0002 00       		.byte	0
 633 0003 0B       		.uleb128 0xb
 634 0004 0B       		.uleb128 0xb
 635 0005 3E       		.uleb128 0x3e
 636 0006 0B       		.uleb128 0xb
 637 0007 03       		.uleb128 0x3
 638 0008 0E       		.uleb128 0xe
 639 0009 00       		.byte	0
 640 000a 00       		.byte	0
 641 000b 02       		.uleb128 0x2
 642 000c 0D       		.uleb128 0xd
 643 000d 00       		.byte	0
 644 000e 03       		.uleb128 0x3
 645 000f 0E       		.uleb128 0xe
 646 0010 3A       		.uleb128 0x3a
 647 0011 21       		.uleb128 0x21
 648 0012 04       		.sleb128 4
 649 0013 3B       		.uleb128 0x3b
 650 0014 0B       		.uleb128 0xb
 651 0015 39       		.uleb128 0x39
 652 0016 0B       		.uleb128 0xb
 653 0017 49       		.uleb128 0x49
 654 0018 13       		.uleb128 0x13
 655 0019 38       		.uleb128 0x38
 656 001a 0B       		.uleb128 0xb
 657 001b 00       		.byte	0
 658 001c 00       		.byte	0
 659 001d 03       		.uleb128 0x3
 660 001e 16       		.uleb128 0x16
 661 001f 00       		.byte	0
 662 0020 03       		.uleb128 0x3
 663 0021 0E       		.uleb128 0xe
 664 0022 3A       		.uleb128 0x3a
 665 0023 0B       		.uleb128 0xb
 666 0024 3B       		.uleb128 0x3b
 667 0025 0B       		.uleb128 0xb
 668 0026 39       		.uleb128 0x39
 669 0027 0B       		.uleb128 0xb
 670 0028 49       		.uleb128 0x49
 671 0029 13       		.uleb128 0x13
 672 002a 00       		.byte	0
 673 002b 00       		.byte	0
 674 002c 04       		.uleb128 0x4
 675 002d 34       		.uleb128 0x34
 676 002e 00       		.byte	0
 677 002f 03       		.uleb128 0x3
 678 0030 0E       		.uleb128 0xe
 679 0031 3A       		.uleb128 0x3a
 680 0032 21       		.uleb128 0x21
 681 0033 01       		.sleb128 1
 682 0034 3B       		.uleb128 0x3b
 683 0035 0B       		.uleb128 0xb
 684 0036 39       		.uleb128 0x39
ARM GAS  C:\Users\DEVELO~1\AppData\Local\Temp\ccsWRiBg.s 			page 13


 685 0037 0B       		.uleb128 0xb
 686 0038 49       		.uleb128 0x49
 687 0039 13       		.uleb128 0x13
 688 003a 02       		.uleb128 0x2
 689 003b 17       		.uleb128 0x17
 690 003c B742     		.uleb128 0x2137
 691 003e 17       		.uleb128 0x17
 692 003f 00       		.byte	0
 693 0040 00       		.byte	0
 694 0041 05       		.uleb128 0x5
 695 0042 34       		.uleb128 0x34
 696 0043 00       		.byte	0
 697 0044 03       		.uleb128 0x3
 698 0045 08       		.uleb128 0x8
 699 0046 3A       		.uleb128 0x3a
 700 0047 21       		.uleb128 0x21
 701 0048 01       		.sleb128 1
 702 0049 3B       		.uleb128 0x3b
 703 004a 0B       		.uleb128 0xb
 704 004b 39       		.uleb128 0x39
 705 004c 0B       		.uleb128 0xb
 706 004d 49       		.uleb128 0x49
 707 004e 13       		.uleb128 0x13
 708 004f 02       		.uleb128 0x2
 709 0050 17       		.uleb128 0x17
 710 0051 B742     		.uleb128 0x2137
 711 0053 17       		.uleb128 0x17
 712 0054 00       		.byte	0
 713 0055 00       		.byte	0
 714 0056 06       		.uleb128 0x6
 715 0057 0D       		.uleb128 0xd
 716 0058 00       		.byte	0
 717 0059 03       		.uleb128 0x3
 718 005a 08       		.uleb128 0x8
 719 005b 3A       		.uleb128 0x3a
 720 005c 21       		.uleb128 0x21
 721 005d 04       		.sleb128 4
 722 005e 3B       		.uleb128 0x3b
 723 005f 0B       		.uleb128 0xb
 724 0060 39       		.uleb128 0x39
 725 0061 21       		.uleb128 0x21
 726 0062 19       		.sleb128 25
 727 0063 49       		.uleb128 0x49
 728 0064 13       		.uleb128 0x13
 729 0065 38       		.uleb128 0x38
 730 0066 0B       		.uleb128 0xb
 731 0067 00       		.byte	0
 732 0068 00       		.byte	0
 733 0069 07       		.uleb128 0x7
 734 006a 35       		.uleb128 0x35
 735 006b 00       		.byte	0
 736 006c 49       		.uleb128 0x49
 737 006d 13       		.uleb128 0x13
 738 006e 00       		.byte	0
 739 006f 00       		.byte	0
 740 0070 08       		.uleb128 0x8
 741 0071 13       		.uleb128 0x13
ARM GAS  C:\Users\DEVELO~1\AppData\Local\Temp\ccsWRiBg.s 			page 14


 742 0072 01       		.byte	0x1
 743 0073 0B       		.uleb128 0xb
 744 0074 0B       		.uleb128 0xb
 745 0075 3A       		.uleb128 0x3a
 746 0076 21       		.uleb128 0x21
 747 0077 04       		.sleb128 4
 748 0078 3B       		.uleb128 0x3b
 749 0079 0B       		.uleb128 0xb
 750 007a 39       		.uleb128 0x39
 751 007b 0B       		.uleb128 0xb
 752 007c 01       		.uleb128 0x1
 753 007d 13       		.uleb128 0x13
 754 007e 00       		.byte	0
 755 007f 00       		.byte	0
 756 0080 09       		.uleb128 0x9
 757 0081 0D       		.uleb128 0xd
 758 0082 00       		.byte	0
 759 0083 03       		.uleb128 0x3
 760 0084 08       		.uleb128 0x8
 761 0085 3A       		.uleb128 0x3a
 762 0086 21       		.uleb128 0x21
 763 0087 04       		.sleb128 4
 764 0088 3B       		.uleb128 0x3b
 765 0089 0B       		.uleb128 0xb
 766 008a 39       		.uleb128 0x39
 767 008b 0B       		.uleb128 0xb
 768 008c 49       		.uleb128 0x49
 769 008d 13       		.uleb128 0x13
 770 008e 00       		.byte	0
 771 008f 00       		.byte	0
 772 0090 0A       		.uleb128 0xa
 773 0091 05       		.uleb128 0x5
 774 0092 00       		.byte	0
 775 0093 03       		.uleb128 0x3
 776 0094 0E       		.uleb128 0xe
 777 0095 3A       		.uleb128 0x3a
 778 0096 21       		.uleb128 0x21
 779 0097 01       		.sleb128 1
 780 0098 3B       		.uleb128 0x3b
 781 0099 0B       		.uleb128 0xb
 782 009a 39       		.uleb128 0x39
 783 009b 0B       		.uleb128 0xb
 784 009c 49       		.uleb128 0x49
 785 009d 13       		.uleb128 0x13
 786 009e 02       		.uleb128 0x2
 787 009f 17       		.uleb128 0x17
 788 00a0 B742     		.uleb128 0x2137
 789 00a2 17       		.uleb128 0x17
 790 00a3 00       		.byte	0
 791 00a4 00       		.byte	0
 792 00a5 0B       		.uleb128 0xb
 793 00a6 11       		.uleb128 0x11
 794 00a7 01       		.byte	0x1
 795 00a8 25       		.uleb128 0x25
 796 00a9 0E       		.uleb128 0xe
 797 00aa 13       		.uleb128 0x13
 798 00ab 0B       		.uleb128 0xb
ARM GAS  C:\Users\DEVELO~1\AppData\Local\Temp\ccsWRiBg.s 			page 15


 799 00ac 03       		.uleb128 0x3
 800 00ad 0E       		.uleb128 0xe
 801 00ae 1B       		.uleb128 0x1b
 802 00af 0E       		.uleb128 0xe
 803 00b0 55       		.uleb128 0x55
 804 00b1 17       		.uleb128 0x17
 805 00b2 11       		.uleb128 0x11
 806 00b3 01       		.uleb128 0x1
 807 00b4 10       		.uleb128 0x10
 808 00b5 17       		.uleb128 0x17
 809 00b6 00       		.byte	0
 810 00b7 00       		.byte	0
 811 00b8 0C       		.uleb128 0xc
 812 00b9 24       		.uleb128 0x24
 813 00ba 00       		.byte	0
 814 00bb 0B       		.uleb128 0xb
 815 00bc 0B       		.uleb128 0xb
 816 00bd 3E       		.uleb128 0x3e
 817 00be 0B       		.uleb128 0xb
 818 00bf 03       		.uleb128 0x3
 819 00c0 08       		.uleb128 0x8
 820 00c1 00       		.byte	0
 821 00c2 00       		.byte	0
 822 00c3 0D       		.uleb128 0xd
 823 00c4 17       		.uleb128 0x17
 824 00c5 01       		.byte	0x1
 825 00c6 0B       		.uleb128 0xb
 826 00c7 0B       		.uleb128 0xb
 827 00c8 3A       		.uleb128 0x3a
 828 00c9 0B       		.uleb128 0xb
 829 00ca 3B       		.uleb128 0x3b
 830 00cb 0B       		.uleb128 0xb
 831 00cc 39       		.uleb128 0x39
 832 00cd 0B       		.uleb128 0xb
 833 00ce 01       		.uleb128 0x1
 834 00cf 13       		.uleb128 0x13
 835 00d0 00       		.byte	0
 836 00d1 00       		.byte	0
 837 00d2 0E       		.uleb128 0xe
 838 00d3 0F       		.uleb128 0xf
 839 00d4 00       		.byte	0
 840 00d5 0B       		.uleb128 0xb
 841 00d6 0B       		.uleb128 0xb
 842 00d7 49       		.uleb128 0x49
 843 00d8 13       		.uleb128 0x13
 844 00d9 00       		.byte	0
 845 00da 00       		.byte	0
 846 00db 0F       		.uleb128 0xf
 847 00dc 2E       		.uleb128 0x2e
 848 00dd 01       		.byte	0x1
 849 00de 3F       		.uleb128 0x3f
 850 00df 19       		.uleb128 0x19
 851 00e0 03       		.uleb128 0x3
 852 00e1 0E       		.uleb128 0xe
 853 00e2 3A       		.uleb128 0x3a
 854 00e3 0B       		.uleb128 0xb
 855 00e4 3B       		.uleb128 0x3b
ARM GAS  C:\Users\DEVELO~1\AppData\Local\Temp\ccsWRiBg.s 			page 16


 856 00e5 0B       		.uleb128 0xb
 857 00e6 39       		.uleb128 0x39
 858 00e7 0B       		.uleb128 0xb
 859 00e8 27       		.uleb128 0x27
 860 00e9 19       		.uleb128 0x19
 861 00ea 11       		.uleb128 0x11
 862 00eb 01       		.uleb128 0x1
 863 00ec 12       		.uleb128 0x12
 864 00ed 06       		.uleb128 0x6
 865 00ee 40       		.uleb128 0x40
 866 00ef 18       		.uleb128 0x18
 867 00f0 7A       		.uleb128 0x7a
 868 00f1 19       		.uleb128 0x19
 869 00f2 01       		.uleb128 0x1
 870 00f3 13       		.uleb128 0x13
 871 00f4 00       		.byte	0
 872 00f5 00       		.byte	0
 873 00f6 10       		.uleb128 0x10
 874 00f7 05       		.uleb128 0x5
 875 00f8 00       		.byte	0
 876 00f9 03       		.uleb128 0x3
 877 00fa 0E       		.uleb128 0xe
 878 00fb 3A       		.uleb128 0x3a
 879 00fc 0B       		.uleb128 0xb
 880 00fd 3B       		.uleb128 0x3b
 881 00fe 0B       		.uleb128 0xb
 882 00ff 39       		.uleb128 0x39
 883 0100 0B       		.uleb128 0xb
 884 0101 49       		.uleb128 0x49
 885 0102 13       		.uleb128 0x13
 886 0103 02       		.uleb128 0x2
 887 0104 18       		.uleb128 0x18
 888 0105 00       		.byte	0
 889 0106 00       		.byte	0
 890 0107 11       		.uleb128 0x11
 891 0108 0B       		.uleb128 0xb
 892 0109 01       		.byte	0x1
 893 010a 55       		.uleb128 0x55
 894 010b 17       		.uleb128 0x17
 895 010c 00       		.byte	0
 896 010d 00       		.byte	0
 897 010e 12       		.uleb128 0x12
 898 010f 2E       		.uleb128 0x2e
 899 0110 00       		.byte	0
 900 0111 3F       		.uleb128 0x3f
 901 0112 19       		.uleb128 0x19
 902 0113 03       		.uleb128 0x3
 903 0114 0E       		.uleb128 0xe
 904 0115 3A       		.uleb128 0x3a
 905 0116 0B       		.uleb128 0xb
 906 0117 3B       		.uleb128 0x3b
 907 0118 0B       		.uleb128 0xb
 908 0119 39       		.uleb128 0x39
 909 011a 0B       		.uleb128 0xb
 910 011b 27       		.uleb128 0x27
 911 011c 19       		.uleb128 0x19
 912 011d 11       		.uleb128 0x11
ARM GAS  C:\Users\DEVELO~1\AppData\Local\Temp\ccsWRiBg.s 			page 17


 913 011e 01       		.uleb128 0x1
 914 011f 12       		.uleb128 0x12
 915 0120 06       		.uleb128 0x6
 916 0121 40       		.uleb128 0x40
 917 0122 18       		.uleb128 0x18
 918 0123 7A       		.uleb128 0x7a
 919 0124 19       		.uleb128 0x19
 920 0125 00       		.byte	0
 921 0126 00       		.byte	0
 922 0127 00       		.byte	0
 923              		.section	.debug_loclists,"",%progbits
 924 0000 52010000 		.4byte	.Ldebug_loc3-.Ldebug_loc2
 925              	.Ldebug_loc2:
 926 0004 0500     		.2byte	0x5
 927 0006 04       		.byte	0x4
 928 0007 00       		.byte	0
 929 0008 00000000 		.4byte	0
 930              	.Ldebug_loc0:
 931              	.LVUS0:
 932 000c 00       		.uleb128 0
 933 000d 02       		.uleb128 .LVU34
 934 000e 02       		.uleb128 .LVU34
 935 000f 00       		.uleb128 .LVU36
 936 0010 00       		.uleb128 .LVU36
 937 0011 00       		.uleb128 .LVU37
 938 0012 02       		.uleb128 .LVU48
 939 0013 00       		.uleb128 .LVU93
 940 0014 00       		.uleb128 .LVU100
 941 0015 00       		.uleb128 0
 942              	.LLST0:
 943 0016 06       		.byte	0x6
 944 0017 00000000 		.4byte	.LVL0
 945 001b 04       		.byte	0x4
 946 001c 00       		.uleb128 .LVL0-.LVL0
 947 001d 40       		.uleb128 .LVL7-.LVL0
 948 001e 01       		.uleb128 0x1
 949 001f 51       		.byte	0x51
 950 0020 04       		.byte	0x4
 951 0021 40       		.uleb128 .LVL7-.LVL0
 952 0022 42       		.uleb128 .LVL8-.LVL0
 953 0023 05       		.uleb128 0x5
 954 0024 71       		.byte	0x71
 955 0025 00       		.sleb128 0
 956 0026 31       		.byte	0x31
 957 0027 25       		.byte	0x25
 958 0028 9F       		.byte	0x9f
 959 0029 04       		.byte	0x4
 960 002a 42       		.uleb128 .LVL8-.LVL0
 961 002b 44       		.uleb128 .LVL9-.LVL0
 962 002c 01       		.uleb128 0x1
 963 002d 51       		.byte	0x51
 964 002e 04       		.byte	0x4
 965 002f 52       		.uleb128 .LVL14-.LVL0
 966 0030 BA01     		.uleb128 .LVL17-.LVL0
 967 0032 01       		.uleb128 0x1
 968 0033 51       		.byte	0x51
 969 0034 04       		.byte	0x4
ARM GAS  C:\Users\DEVELO~1\AppData\Local\Temp\ccsWRiBg.s 			page 18


 970 0035 CA01     		.uleb128 .LVL19-.LVL0
 971 0037 E601     		.uleb128 .LFE449-.LVL0
 972 0039 01       		.uleb128 0x1
 973 003a 51       		.byte	0x51
 974 003b 00       		.byte	0
 975              	.LVUS1:
 976 003c 00       		.uleb128 0
 977 003d 00       		.uleb128 .LVU17
 978 003e 00       		.uleb128 .LVU17
 979 003f 00       		.uleb128 0
 980              	.LLST1:
 981 0040 06       		.byte	0x6
 982 0041 00000000 		.4byte	.LVL0
 983 0045 04       		.byte	0x4
 984 0046 00       		.uleb128 .LVL0-.LVL0
 985 0047 1C       		.uleb128 .LVL5-.LVL0
 986 0048 01       		.uleb128 0x1
 987 0049 52       		.byte	0x52
 988 004a 04       		.byte	0x4
 989 004b 1C       		.uleb128 .LVL5-.LVL0
 990 004c E601     		.uleb128 .LFE449-.LVL0
 991 004e 04       		.uleb128 0x4
 992 004f A3       		.byte	0xa3
 993 0050 01       		.uleb128 0x1
 994 0051 52       		.byte	0x52
 995 0052 9F       		.byte	0x9f
 996 0053 00       		.byte	0
 997              	.LVUS2:
 998 0054 00       		.uleb128 .LVU6
 999 0055 00       		.uleb128 .LVU19
 1000 0056 00       		.uleb128 .LVU19
 1001 0057 00       		.uleb128 0
 1002              	.LLST2:
 1003 0058 06       		.byte	0x6
 1004 0059 08000000 		.4byte	.LVL1
 1005 005d 04       		.byte	0x4
 1006 005e 00       		.uleb128 .LVL1-.LVL1
 1007 005f 1C       		.uleb128 .LVL6-.LVL1
 1008 0060 01       		.uleb128 0x1
 1009 0061 59       		.byte	0x59
 1010 0062 04       		.byte	0x4
 1011 0063 1C       		.uleb128 .LVL6-.LVL1
 1012 0064 DE01     		.uleb128 .LFE449-.LVL1
 1013 0066 01       		.uleb128 0x1
 1014 0067 5E       		.byte	0x5e
 1015 0068 00       		.byte	0
 1016              	.LVUS3:
 1017 0069 00       		.uleb128 .LVU9
 1018 006a 00       		.uleb128 0
 1019              	.LLST3:
 1020 006b 08       		.byte	0x8
 1021 006c 10000000 		.4byte	.LVL2
 1022 0070 D601     		.uleb128 .LFE449-.LVL2
 1023 0072 01       		.uleb128 0x1
 1024 0073 56       		.byte	0x56
 1025 0074 00       		.byte	0
 1026              	.LVUS4:
ARM GAS  C:\Users\DEVELO~1\AppData\Local\Temp\ccsWRiBg.s 			page 19


 1027 0075 00       		.uleb128 .LVU11
 1028 0076 00       		.uleb128 0
 1029              	.LLST4:
 1030 0077 08       		.byte	0x8
 1031 0078 14000000 		.4byte	.LVL3
 1032 007c D201     		.uleb128 .LFE449-.LVL3
 1033 007e 01       		.uleb128 0x1
 1034 007f 55       		.byte	0x55
 1035 0080 00       		.byte	0
 1036              	.LVUS5:
 1037 0081 01       		.uleb128 .LVU12
 1038 0082 00       		.uleb128 .LVU19
 1039 0083 00       		.uleb128 .LVU19
 1040 0084 00       		.uleb128 0
 1041              	.LLST5:
 1042 0085 06       		.byte	0x6
 1043 0086 14000000 		.4byte	.LVL3
 1044 008a 04       		.byte	0x4
 1045 008b 00       		.uleb128 .LVL3-.LVL3
 1046 008c 10       		.uleb128 .LVL6-.LVL3
 1047 008d 01       		.uleb128 0x1
 1048 008e 54       		.byte	0x54
 1049 008f 04       		.byte	0x4
 1050 0090 10       		.uleb128 .LVL6-.LVL3
 1051 0091 D201     		.uleb128 .LFE449-.LVL3
 1052 0093 01       		.uleb128 0x1
 1053 0094 58       		.byte	0x58
 1054 0095 00       		.byte	0
 1055              	.LVUS6:
 1056 0096 00       		.uleb128 .LVU14
 1057 0097 00       		.uleb128 0
 1058              	.LLST6:
 1059 0098 08       		.byte	0x8
 1060 0099 18000000 		.4byte	.LVL4
 1061 009d CE01     		.uleb128 .LFE449-.LVL4
 1062 009f 01       		.uleb128 0x1
 1063 00a0 57       		.byte	0x57
 1064 00a1 00       		.byte	0
 1065              	.LVUS7:
 1066 00a2 01       		.uleb128 .LVU15
 1067 00a3 00       		.uleb128 .LVU19
 1068 00a4 00       		.uleb128 .LVU19
 1069 00a5 00       		.uleb128 .LVU41
 1070 00a6 00       		.uleb128 .LVU41
 1071 00a7 01       		.uleb128 .LVU47
 1072 00a8 01       		.uleb128 .LVU47
 1073 00a9 00       		.uleb128 0
 1074              	.LLST7:
 1075 00aa 06       		.byte	0x6
 1076 00ab 18000000 		.4byte	.LVL4
 1077 00af 04       		.byte	0x4
 1078 00b0 00       		.uleb128 .LVL4-.LVL4
 1079 00b1 0C       		.uleb128 .LVL6-.LVL4
 1080 00b2 02       		.uleb128 0x2
 1081 00b3 30       		.byte	0x30
 1082 00b4 9F       		.byte	0x9f
 1083 00b5 04       		.byte	0x4
ARM GAS  C:\Users\DEVELO~1\AppData\Local\Temp\ccsWRiBg.s 			page 20


 1084 00b6 0C       		.uleb128 .LVL6-.LVL4
 1085 00b7 30       		.uleb128 .LVL11-.LVL4
 1086 00b8 01       		.uleb128 0x1
 1087 00b9 52       		.byte	0x52
 1088 00ba 04       		.byte	0x4
 1089 00bb 30       		.uleb128 .LVL11-.LVL4
 1090 00bc 3A       		.uleb128 .LVL14-.LVL4
 1091 00bd 03       		.uleb128 0x3
 1092 00be 72       		.byte	0x72
 1093 00bf 7F       		.sleb128 -1
 1094 00c0 9F       		.byte	0x9f
 1095 00c1 04       		.byte	0x4
 1096 00c2 3A       		.uleb128 .LVL14-.LVL4
 1097 00c3 CE01     		.uleb128 .LFE449-.LVL4
 1098 00c5 01       		.uleb128 0x1
 1099 00c6 52       		.byte	0x52
 1100 00c7 00       		.byte	0
 1101              	.LVUS9:
 1102 00c8 00       		.uleb128 .LVU19
 1103 00c9 00       		.uleb128 .LVU32
 1104 00ca 00       		.uleb128 .LVU74
 1105 00cb 00       		.uleb128 .LVU99
 1106 00cc 00       		.uleb128 .LVU100
 1107 00cd 00       		.uleb128 0
 1108              	.LLST9:
 1109 00ce 06       		.byte	0x6
 1110 00cf 24000000 		.4byte	.LVL6
 1111 00d3 04       		.byte	0x4
 1112 00d4 00       		.uleb128 .LVL6-.LVL6
 1113 00d5 1C       		.uleb128 .LVL7-.LVL6
 1114 00d6 01       		.uleb128 0x1
 1115 00d7 5C       		.byte	0x5c
 1116 00d8 04       		.byte	0x4
 1117 00d9 7C       		.uleb128 .LVL15-.LVL6
 1118 00da A201     		.uleb128 .LVL18-.LVL6
 1119 00dc 01       		.uleb128 0x1
 1120 00dd 5C       		.byte	0x5c
 1121 00de 04       		.byte	0x4
 1122 00df A601     		.uleb128 .LVL19-.LVL6
 1123 00e1 C201     		.uleb128 .LFE449-.LVL6
 1124 00e3 01       		.uleb128 0x1
 1125 00e4 5C       		.byte	0x5c
 1126 00e5 00       		.byte	0
 1127              	.LVUS10:
 1128 00e6 00       		.uleb128 .LVU19
 1129 00e7 00       		.uleb128 .LVU32
 1130 00e8 01       		.uleb128 .LVU75
 1131 00e9 00       		.uleb128 .LVU99
 1132 00ea 00       		.uleb128 .LVU100
 1133 00eb 00       		.uleb128 0
 1134              	.LLST10:
 1135 00ec 06       		.byte	0x6
 1136 00ed 24000000 		.4byte	.LVL6
 1137 00f1 04       		.byte	0x4
 1138 00f2 00       		.uleb128 .LVL6-.LVL6
 1139 00f3 1C       		.uleb128 .LVL7-.LVL6
 1140 00f4 05       		.uleb128 0x5
ARM GAS  C:\Users\DEVELO~1\AppData\Local\Temp\ccsWRiBg.s 			page 21


 1141 00f5 31       		.byte	0x31
 1142 00f6 72       		.byte	0x72
 1143 00f7 00       		.sleb128 0
 1144 00f8 24       		.byte	0x24
 1145 00f9 9F       		.byte	0x9f
 1146 00fa 04       		.byte	0x4
 1147 00fb 7C       		.uleb128 .LVL15-.LVL6
 1148 00fc A201     		.uleb128 .LVL18-.LVL6
 1149 00fe 05       		.uleb128 0x5
 1150 00ff 31       		.byte	0x31
 1151 0100 72       		.byte	0x72
 1152 0101 00       		.sleb128 0
 1153 0102 24       		.byte	0x24
 1154 0103 9F       		.byte	0x9f
 1155 0104 04       		.byte	0x4
 1156 0105 A601     		.uleb128 .LVL19-.LVL6
 1157 0107 C201     		.uleb128 .LFE449-.LVL6
 1158 0109 05       		.uleb128 0x5
 1159 010a 31       		.byte	0x31
 1160 010b 72       		.byte	0x72
 1161 010c 00       		.sleb128 0
 1162 010d 24       		.byte	0x24
 1163 010e 9F       		.byte	0x9f
 1164 010f 00       		.byte	0
 1165              	.LVUS11:
 1166 0110 00       		.uleb128 .LVU19
 1167 0111 00       		.uleb128 .LVU32
 1168 0112 02       		.uleb128 .LVU76
 1169 0113 00       		.uleb128 .LVU99
 1170 0114 00       		.uleb128 .LVU100
 1171 0115 00       		.uleb128 0
 1172              	.LLST11:
 1173 0116 06       		.byte	0x6
 1174 0117 24000000 		.4byte	.LVL6
 1175 011b 04       		.byte	0x4
 1176 011c 00       		.uleb128 .LVL6-.LVL6
 1177 011d 1C       		.uleb128 .LVL7-.LVL6
 1178 011e 04       		.uleb128 0x4
 1179 011f 7A       		.byte	0x7a
 1180 0120 00       		.sleb128 0
 1181 0121 20       		.byte	0x20
 1182 0122 9F       		.byte	0x9f
 1183 0123 04       		.byte	0x4
 1184 0124 7C       		.uleb128 .LVL15-.LVL6
 1185 0125 A201     		.uleb128 .LVL18-.LVL6
 1186 0127 04       		.uleb128 0x4
 1187 0128 7A       		.byte	0x7a
 1188 0129 00       		.sleb128 0
 1189 012a 20       		.byte	0x20
 1190 012b 9F       		.byte	0x9f
 1191 012c 04       		.byte	0x4
 1192 012d A601     		.uleb128 .LVL19-.LVL6
 1193 012f C201     		.uleb128 .LFE449-.LVL6
 1194 0131 04       		.uleb128 0x4
 1195 0132 7A       		.byte	0x7a
 1196 0133 00       		.sleb128 0
 1197 0134 20       		.byte	0x20
ARM GAS  C:\Users\DEVELO~1\AppData\Local\Temp\ccsWRiBg.s 			page 22


 1198 0135 9F       		.byte	0x9f
 1199 0136 00       		.byte	0
 1200              	.LVUS12:
 1201 0137 00       		.uleb128 .LVU19
 1202 0138 00       		.uleb128 .LVU32
 1203 0139 00       		.uleb128 .LVU78
 1204 013a 00       		.uleb128 .LVU99
 1205 013b 00       		.uleb128 .LVU100
 1206 013c 00       		.uleb128 0
 1207              	.LLST12:
 1208 013d 06       		.byte	0x6
 1209 013e 24000000 		.4byte	.LVL6
 1210 0142 04       		.byte	0x4
 1211 0143 00       		.uleb128 .LVL6-.LVL6
 1212 0144 1C       		.uleb128 .LVL7-.LVL6
 1213 0145 01       		.uleb128 0x1
 1214 0146 54       		.byte	0x54
 1215 0147 04       		.byte	0x4
 1216 0148 8001     		.uleb128 .LVL16-.LVL6
 1217 014a A201     		.uleb128 .LVL18-.LVL6
 1218 014c 01       		.uleb128 0x1
 1219 014d 54       		.byte	0x54
 1220 014e 04       		.byte	0x4
 1221 014f A601     		.uleb128 .LVL19-.LVL6
 1222 0151 C201     		.uleb128 .LFE449-.LVL6
 1223 0153 01       		.uleb128 0x1
 1224 0154 54       		.byte	0x54
 1225 0155 00       		.byte	0
 1226              	.Ldebug_loc3:
 1227              		.section	.debug_aranges,"",%progbits
 1228 0000 24000000 		.4byte	0x24
 1229 0004 0200     		.2byte	0x2
 1230 0006 00000000 		.4byte	.Ldebug_info0
 1231 000a 04       		.byte	0x4
 1232 000b 00       		.byte	0
 1233 000c 0000     		.2byte	0
 1234 000e 0000     		.2byte	0
 1235 0010 00000000 		.4byte	.LFB448
 1236 0014 02000000 		.4byte	.LFE448-.LFB448
 1237 0018 00000000 		.4byte	.LFB449
 1238 001c E6000000 		.4byte	.LFE449-.LFB449
 1239 0020 00000000 		.4byte	0
 1240 0024 00000000 		.4byte	0
 1241              		.section	.debug_rnglists,"",%progbits
 1242              	.Ldebug_ranges0:
 1243 0000 2D000000 		.4byte	.Ldebug_ranges3-.Ldebug_ranges2
 1244              	.Ldebug_ranges2:
 1245 0004 0500     		.2byte	0x5
 1246 0006 04       		.byte	0x4
 1247 0007 00       		.byte	0
 1248 0008 00000000 		.4byte	0
 1249              	.LLRL8:
 1250 000c 05       		.byte	0x5
 1251 000d 1C000000 		.4byte	.LBB2
 1252 0011 04       		.byte	0x4
 1253 0012 00       		.uleb128 .LBB2-.LBB2
 1254 0013 24       		.uleb128 .LBE2-.LBB2
ARM GAS  C:\Users\DEVELO~1\AppData\Local\Temp\ccsWRiBg.s 			page 23


 1255 0014 04       		.byte	0x4
 1256 0015 3A       		.uleb128 .LBB3-.LBB2
 1257 0016 9C01     		.uleb128 .LBE3-.LBB2
 1258 0018 04       		.byte	0x4
 1259 0019 9E01     		.uleb128 .LBB4-.LBB2
 1260 001b A801     		.uleb128 .LBE4-.LBB2
 1261 001d 04       		.byte	0x4
 1262 001e AE01     		.uleb128 .LBB5-.LBB2
 1263 0020 CA01     		.uleb128 .LBE5-.LBB2
 1264 0022 00       		.byte	0
 1265              	.LLRL13:
 1266 0023 07       		.byte	0x7
 1267 0024 00000000 		.4byte	.LFB448
 1268 0028 02       		.uleb128 .LFE448-.LFB448
 1269 0029 07       		.byte	0x7
 1270 002a 00000000 		.4byte	.LFB449
 1271 002e E601     		.uleb128 .LFE449-.LFB449
 1272 0030 00       		.byte	0
 1273              	.Ldebug_ranges3:
 1274              		.section	.debug_line,"",%progbits
 1275              	.Ldebug_line0:
 1276 0000 D0020000 		.section	.debug_str,"MS",%progbits,1
 1276      03003701 
 1276      00000201 
 1276      FB0E0D00 
 1276      01010101 
 1277              	.LASF1:
 1278 0000 6C6F6E67 		.ascii	"long long int\000"
 1278      206C6F6E 
 1278      6720696E 
 1278      7400
 1279              	.LASF19:
 1280 000e 4F535045 		.ascii	"OSPEEDR\000"
 1280      45445200 
 1281              	.LASF16:
 1282 0016 636C6561 		.ascii	"clear\000"
 1282      7200
 1283              	.LASF17:
 1284 001c 4D4F4445 		.ascii	"MODER\000"
 1284      5200
 1285              	.LASF42:
 1286 0022 5F70616C 		.ascii	"_pal_lld_init\000"
 1286      5F6C6C64 
 1286      5F696E69 
 1286      7400
 1287              	.LASF21:
 1288 0030 42535252 		.ascii	"BSRR\000"
 1288      00
 1289              	.LASF5:
 1290 0035 73686F72 		.ascii	"short int\000"
 1290      7420696E 
 1290      7400
 1291              	.LASF32:
 1292 003f 6F747970 		.ascii	"otyper\000"
 1292      657200
 1293              	.LASF26:
 1294 0046 696F706F 		.ascii	"ioportmask_t\000"
ARM GAS  C:\Users\DEVELO~1\AppData\Local\Temp\ccsWRiBg.s 			page 24


 1294      72746D61 
 1294      736B5F74 
 1294      00
 1295              	.LASF18:
 1296 0053 4F545950 		.ascii	"OTYPER\000"
 1296      455200
 1297              	.LASF27:
 1298 005a 696F6D6F 		.ascii	"iomode_t\000"
 1298      64655F74 
 1298      00
 1299              	.LASF11:
 1300 0063 6C6F6E67 		.ascii	"long long unsigned int\000"
 1300      206C6F6E 
 1300      6720756E 
 1300      7369676E 
 1300      65642069 
 1301              	.LASF38:
 1302 007a 2E2E2F2E 		.ascii	"../../../os/hal/ports/STM32/LLD/GPIOv2/hal_pal_lld."
 1302      2E2F2E2E 
 1302      2F6F732F 
 1302      68616C2F 
 1302      706F7274 
 1303 00ad 6300     		.ascii	"c\000"
 1304              	.LASF4:
 1305 00af 756E7369 		.ascii	"unsigned char\000"
 1305      676E6564 
 1305      20636861 
 1305      7200
 1306              	.LASF24:
 1307 00bd 41465248 		.ascii	"AFRH\000"
 1307      00
 1308              	.LASF10:
 1309 00c2 6C6F6E67 		.ascii	"long unsigned int\000"
 1309      20756E73 
 1309      69676E65 
 1309      6420696E 
 1309      7400
 1310              	.LASF6:
 1311 00d4 73686F72 		.ascii	"short unsigned int\000"
 1311      7420756E 
 1311      7369676E 
 1311      65642069 
 1311      6E7400
 1312              	.LASF23:
 1313 00e7 4146524C 		.ascii	"AFRL\000"
 1313      00
 1314              	.LASF34:
 1315 00ec 70757064 		.ascii	"pupdr\000"
 1315      7200
 1316              	.LASF8:
 1317 00f2 5F5F7569 		.ascii	"__uint16_t\000"
 1317      6E743136 
 1317      5F7400
 1318              	.LASF36:
 1319 00fd 616C7472 		.ascii	"altrmask\000"
 1319      6D61736B 
 1319      00
ARM GAS  C:\Users\DEVELO~1\AppData\Local\Temp\ccsWRiBg.s 			page 25


 1320              	.LASF9:
 1321 0106 5F5F7569 		.ascii	"__uint32_t\000"
 1321      6E743332 
 1321      5F7400
 1322              	.LASF39:
 1323 0111 433A5C43 		.ascii	"C:\\ChibiStudio\\ChibiOS-master\\demos\\STM32\\CUST"
 1323      68696269 
 1323      53747564 
 1323      696F5C43 
 1323      68696269 
 1324 013f 4F4D5F48 		.ascii	"OM_H743IIT6_maj\000"
 1324      37343349 
 1324      4954365F 
 1324      6D616A00 
 1325              	.LASF40:
 1326 014f 5F70616C 		.ascii	"_pal_lld_setgroupmode\000"
 1326      5F6C6C64 
 1326      5F736574 
 1326      67726F75 
 1326      706D6F64 
 1327              	.LASF37:
 1328 0165 474E5520 		.ascii	"GNU C17 11.3.1 20220712 -mcpu=cortex-m7 -mthumb -mf"
 1328      43313720 
 1328      31312E33 
 1328      2E312032 
 1328      30323230 
 1329 0198 6C6F6174 		.ascii	"loat-abi=hard -mfpu=fpv5-d16 -march=armv7e-m+fp.dp "
 1329      2D616269 
 1329      3D686172 
 1329      64202D6D 
 1329      6670753D 
 1330 01cb 2D676764 		.ascii	"-ggdb -O2 -ffunction-sections -fdata-sections -fno-"
 1330      62202D4F 
 1330      32202D66 
 1330      66756E63 
 1330      74696F6E 
 1331 01fe 636F6D6D 		.ascii	"common\000"
 1331      6F6E00
 1332              	.LASF0:
 1333 0205 756E7369 		.ascii	"unsigned int\000"
 1333      676E6564 
 1333      20696E74 
 1333      00
 1334              	.LASF35:
 1335 0212 616C7472 		.ascii	"altr\000"
 1335      00
 1336              	.LASF14:
 1337 0217 63686172 		.ascii	"char\000"
 1337      00
 1338              	.LASF30:
 1339 021c 6D6F6465 		.ascii	"mode\000"
 1339      00
 1340              	.LASF22:
 1341 0221 4C4F434B 		.ascii	"LOCKR\000"
 1341      5200
 1342              	.LASF25:
 1343 0227 73746D33 		.ascii	"stm32_gpio_t\000"
ARM GAS  C:\Users\DEVELO~1\AppData\Local\Temp\ccsWRiBg.s 			page 26


 1343      325F6770 
 1343      696F5F74 
 1343      00
 1344              	.LASF20:
 1345 0234 50555044 		.ascii	"PUPDR\000"
 1345      5200
 1346              	.LASF33:
 1347 023a 6F737065 		.ascii	"ospeedr\000"
 1347      65647200 
 1348              	.LASF29:
 1349 0242 6D61736B 		.ascii	"mask\000"
 1349      00
 1350              	.LASF41:
 1351 0247 706F7274 		.ascii	"port\000"
 1351      00
 1352              	.LASF28:
 1353 024c 696F706F 		.ascii	"ioportid_t\000"
 1353      72746964 
 1353      5F7400
 1354              	.LASF12:
 1355 0257 75696E74 		.ascii	"uint16_t\000"
 1355      31365F74 
 1355      00
 1356              	.LASF13:
 1357 0260 75696E74 		.ascii	"uint32_t\000"
 1357      33325F74 
 1357      00
 1358              	.LASF7:
 1359 0269 6C6F6E67 		.ascii	"long int\000"
 1359      20696E74 
 1359      00
 1360              	.LASF2:
 1361 0272 6C6F6E67 		.ascii	"long double\000"
 1361      20646F75 
 1361      626C6500 
 1362              	.LASF3:
 1363 027e 7369676E 		.ascii	"signed char\000"
 1363      65642063 
 1363      68617200 
 1364              	.LASF31:
 1365 028a 6D6F6465 		.ascii	"moder\000"
 1365      7200
 1366              	.LASF15:
 1367 0290 5F426F6F 		.ascii	"_Bool\000"
 1367      6C00
 1368              		.ident	"GCC: (Arm GNU Toolchain 11.3.Rel1) 11.3.1 20220712"
ARM GAS  C:\Users\DEVELO~1\AppData\Local\Temp\ccsWRiBg.s 			page 27


DEFINED SYMBOLS
                            *ABS*:00000000 hal_pal_lld.c
C:\Users\DEVELO~1\AppData\Local\Temp\ccsWRiBg.s:19     .text._pal_lld_init:00000000 $t
C:\Users\DEVELO~1\AppData\Local\Temp\ccsWRiBg.s:26     .text._pal_lld_init:00000000 _pal_lld_init
C:\Users\DEVELO~1\AppData\Local\Temp\ccsWRiBg.s:40     .text._pal_lld_setgroupmode:00000000 $t
C:\Users\DEVELO~1\AppData\Local\Temp\ccsWRiBg.s:47     .text._pal_lld_setgroupmode:00000000 _pal_lld_setgroupmode

NO UNDEFINED SYMBOLS
