ARM GAS  C:\Users\DEVELO~1\AppData\Local\Temp\ccJK6Gr9.s 			page 1


   1              		.cpu cortex-m7
   2              		.arch armv7e-m
   3              		.fpu fpv5-d16
   4              		.eabi_attribute 28, 1
   5              		.eabi_attribute 20, 1
   6              		.eabi_attribute 21, 1
   7              		.eabi_attribute 23, 3
   8              		.eabi_attribute 24, 1
   9              		.eabi_attribute 25, 1
  10              		.eabi_attribute 26, 1
  11              		.eabi_attribute 30, 2
  12              		.eabi_attribute 34, 1
  13              		.eabi_attribute 18, 4
  14              		.file	"hal_spi_v2_lld.c"
  15              		.text
  16              	.Ltext0:
  17              		.cfi_sections	.debug_frame
  18              		.section	.text.spi_lld_configure.isra.0,"ax",%progbits
  19              		.align	1
  20              		.p2align 2,,3
  21              		.syntax unified
  22              		.thumb
  23              		.thumb_func
  24              		.type	spi_lld_configure.isra.0, %function
  25              	spi_lld_configure.isra.0:
  26              	.LFB479:
  27              		.file 1 "../../../os/hal/ports/STM32/LLD/SPIv3/hal_spi_v2_lld.c"
  28              		.loc 1 99 13 view -0
  29              		.cfi_startproc
  30              		@ args = 0, pretend = 0, frame = 0
  31              		@ frame_needed = 0, uses_anonymous_args = 0
  32              		@ link register save eliminated.
  33              	.LVL0:
  34              		.loc 1 102 3 view .LVU1
  35              		.loc 1 102 19 is_stmt 0 view .LVU2
  36 0000 0022     		movs	r2, #0
  37              		.loc 1 107 38 view .LVU3
  38 0002 134B     		ldr	r3, .L6
  39              		.loc 1 102 19 view .LVU4
  40 0004 0A60     		str	r2, [r1]
  41              		.loc 1 103 3 is_stmt 1 view .LVU5
  42              		.loc 1 103 19 is_stmt 0 view .LVU6
  43 0006 4A60     		str	r2, [r1, #4]
  44              		.loc 1 104 3 is_stmt 1 view .LVU7
  45              		.loc 1 107 38 is_stmt 0 view .LVU8
  46 0008 4269     		ldr	r2, [r0, #20]
  47              		.loc 1 99 13 view .LVU9
  48 000a 10B4     		push	{r4}
  49              		.cfi_def_cfa_offset 4
  50              		.cfi_offset 4, -4
  51              		.loc 1 107 38 view .LVU10
  52 000c 1340     		ands	r3, r3, r2
  53              		.loc 1 104 19 view .LVU11
  54 000e 4024     		movs	r4, #64
  55              		.loc 1 108 6 view .LVU12
  56 0010 4278     		ldrb	r2, [r0, #1]	@ zero_extendqisi2
  57              		.loc 1 104 19 view .LVU13
ARM GAS  C:\Users\DEVELO~1\AppData\Local\Temp\ccJK6Gr9.s 			page 2


  58 0012 0C61     		str	r4, [r1, #16]
  59              		.loc 1 105 3 is_stmt 1 view .LVU14
  60              		.loc 1 107 38 is_stmt 0 view .LVU15
  61 0014 43F44043 		orr	r3, r3, #49152
  62              		.loc 1 105 19 view .LVU16
  63 0018 4FF0FF34 		mov	r4, #-1
  64 001c 8C61     		str	r4, [r1, #24]
  65              		.loc 1 106 3 is_stmt 1 view .LVU17
  66              		.loc 1 106 19 is_stmt 0 view .LVU18
  67 001e 8B60     		str	r3, [r1, #8]
  68              		.loc 1 108 3 is_stmt 1 view .LVU19
  69              		.loc 1 108 6 is_stmt 0 view .LVU20
  70 0020 4AB1     		cbz	r2, .L2
  71              		.loc 1 109 5 is_stmt 1 view .LVU21
  72              		.loc 1 109 42 is_stmt 0 view .LVU22
  73 0022 8369     		ldr	r3, [r0, #24]
  74              		.loc 1 116 1 view .LVU23
  75 0024 5DF8044B 		ldr	r4, [sp], #4
  76              		.cfi_remember_state
  77              		.cfi_restore 4
  78              		.cfi_def_cfa_offset 0
  79              		.loc 1 109 42 view .LVU24
  80 0028 23F4C023 		bic	r3, r3, #393216
  81              		.loc 1 109 21 view .LVU25
  82 002c CB60     		str	r3, [r1, #12]
  83              		.loc 1 115 3 is_stmt 1 view .LVU26
  84              		.loc 1 115 19 is_stmt 0 view .LVU27
  85 002e 40F20113 		movw	r3, #257
  86 0032 0B60     		str	r3, [r1]
  87              		.loc 1 116 1 view .LVU28
  88 0034 7047     		bx	lr
  89              	.L2:
  90              		.cfi_restore_state
  91              		.loc 1 112 5 is_stmt 1 view .LVU29
  92              		.loc 1 112 78 is_stmt 0 view .LVU30
  93 0036 8269     		ldr	r2, [r0, #24]
  94 0038 064B     		ldr	r3, .L6+4
  95              		.loc 1 116 1 view .LVU31
  96 003a 5DF8044B 		ldr	r4, [sp], #4
  97              		.cfi_restore 4
  98              		.cfi_def_cfa_offset 0
  99              		.loc 1 112 78 view .LVU32
 100 003e 1340     		ands	r3, r3, r2
 101 0040 43F00153 		orr	r3, r3, #541065216
 102              		.loc 1 112 21 view .LVU33
 103 0044 CB60     		str	r3, [r1, #12]
 104              		.loc 1 115 3 is_stmt 1 view .LVU34
 105              		.loc 1 115 19 is_stmt 0 view .LVU35
 106 0046 40F20113 		movw	r3, #257
 107 004a 0B60     		str	r3, [r1]
 108              		.loc 1 116 1 view .LVU36
 109 004c 7047     		bx	lr
 110              	.L7:
 111 004e 00BF     		.align	2
 112              	.L6:
 113 0050 1F3EFFFF 		.word	-49633
 114 0054 FFFFB9DF 		.word	-541458433
ARM GAS  C:\Users\DEVELO~1\AppData\Local\Temp\ccJK6Gr9.s 			page 3


 115              		.cfi_endproc
 116              	.LFE479:
 117              		.size	spi_lld_configure.isra.0, .-spi_lld_configure.isra.0
 118              		.section	.text.spi_lld_stop_abort,"ax",%progbits
 119              		.align	1
 120              		.p2align 2,,3
 121              		.syntax unified
 122              		.thumb
 123              		.thumb_func
 124              		.type	spi_lld_stop_abort, %function
 125              	spi_lld_stop_abort:
 126              	.LVL1:
 127              	.LFB451:
 128              		.loc 1 138 49 is_stmt 1 view -0
 129              		.cfi_startproc
 130              		@ args = 0, pretend = 0, frame = 0
 131              		@ frame_needed = 0, uses_anonymous_args = 0
 132              		@ link register save eliminated.
 133              		.loc 1 142 3 view .LVU38
 134              		.loc 1 142 6 is_stmt 0 view .LVU39
 135 0000 90F82030 		ldrb	r3, [r0, #32]	@ zero_extendqisi2
 136              		.loc 1 138 49 view .LVU40
 137 0004 10B4     		push	{r4}
 138              		.cfi_def_cfa_offset 4
 139              		.cfi_offset 4, -4
 140              		.loc 1 142 6 view .LVU41
 141 0006 002B     		cmp	r3, #0
 142 0008 38D0     		beq	.L9
 143              		.loc 1 146 5 is_stmt 1 view .LVU42
 144 000a 836A     		ldr	r3, [r0, #40]
 145 000c D3E90041 		ldrd	r4, r1, [r3]
 146 0010 0A68     		ldr	r2, [r1]
 147 0012 22F00F02 		bic	r2, r2, #15
 148 0016 0A60     		str	r2, [r1]
 149              		.loc 1 146 5 view .LVU43
 150 0018 197A     		ldrb	r1, [r3, #8]	@ zero_extendqisi2
 151 001a 0E23     		movs	r3, #14
 152              		.loc 1 147 5 is_stmt 0 view .LVU44
 153 001c 426A     		ldr	r2, [r0, #36]
 154              		.loc 1 146 5 view .LVU45
 155 001e 03FA01F1 		lsl	r1, r3, r1
 156 0022 6160     		str	r1, [r4, #4]
 157              		.loc 1 146 5 is_stmt 1 view .LVU46
 158              		.loc 1 146 37 view .LVU47
 159              		.loc 1 147 5 view .LVU48
 160 0024 5468     		ldr	r4, [r2, #4]
 161 0026 2168     		ldr	r1, [r4]
 162 0028 21F00F01 		bic	r1, r1, #15
 163 002c 2160     		str	r1, [r4]
 164              		.loc 1 147 5 view .LVU49
 165 002e 117A     		ldrb	r1, [r2, #8]	@ zero_extendqisi2
 166 0030 1268     		ldr	r2, [r2]
 167 0032 8B40     		lsls	r3, r3, r1
 168 0034 5360     		str	r3, [r2, #4]
 169              		.loc 1 147 5 view .LVU50
 170              		.loc 1 147 37 view .LVU51
 171              		.loc 1 156 5 view .LVU52
ARM GAS  C:\Users\DEVELO~1\AppData\Local\Temp\ccJK6Gr9.s 			page 4


 172              		.loc 1 156 35 view .LVU53
 173              		.loc 1 162 3 view .LVU54
 174              		.loc 1 166 8 view .LVU55
 175              		.loc 1 166 11 is_stmt 0 view .LVU56
 176 0036 534B     		ldr	r3, .L27
 177 0038 9842     		cmp	r0, r3
 178 003a 3ED0     		beq	.L22
 179              	.L13:
 180              		.loc 1 172 8 is_stmt 1 view .LVU57
 181              		.loc 1 172 11 is_stmt 0 view .LVU58
 182 003c 524B     		ldr	r3, .L27+4
 183 003e 9842     		cmp	r0, r3
 184 0040 50D0     		beq	.L23
 185              		.loc 1 178 8 is_stmt 1 view .LVU59
 186              		.loc 1 178 11 is_stmt 0 view .LVU60
 187 0042 524B     		ldr	r3, .L27+8
 188 0044 9842     		cmp	r0, r3
 189 0046 72D0     		beq	.L24
 190              		.loc 1 184 8 is_stmt 1 view .LVU61
 191              		.loc 1 184 11 is_stmt 0 view .LVU62
 192 0048 514B     		ldr	r3, .L27+12
 193 004a 9842     		cmp	r0, r3
 194 004c 00F08480 		beq	.L25
 195              		.loc 1 190 8 is_stmt 1 view .LVU63
 196              		.loc 1 190 11 is_stmt 0 view .LVU64
 197 0050 504B     		ldr	r3, .L27+16
 198 0052 9842     		cmp	r0, r3
 199 0054 5BD0     		beq	.L26
 200              		.loc 1 196 8 is_stmt 1 view .LVU65
 201              		.loc 1 196 11 is_stmt 0 view .LVU66
 202 0056 504B     		ldr	r3, .L27+20
 203 0058 9842     		cmp	r0, r3
 204 005a 52D1     		bne	.L14
 205              		.loc 1 197 5 is_stmt 1 view .LVU67
 206              	.LVL2:
 207              	.LBB283:
 208              	.LBI283:
 209              		.file 2 "../../../os/hal/ports/STM32/STM32H7xx/stm32_rcc.h"
 210              		.loc 2 563 22 view .LVU68
 211              	.LBB284:
 212              		.loc 2 575 3 view .LVU69
 213              	.LBB285:
 214              	.LBI285:
 215              		.loc 2 89 22 view .LVU70
 216              	.LBB286:
 217              		.loc 2 92 3 view .LVU71
 218              		.loc 2 92 17 is_stmt 0 view .LVU72
 219 005c 4F4B     		ldr	r3, .L27+24
 220 005e D3F89C20 		ldr	r2, [r3, #156]
 221 0062 42F02002 		orr	r2, r2, #32
 222 0066 C3F89C20 		str	r2, [r3, #156]
 223              		.loc 2 93 3 is_stmt 1 view .LVU73
 224              		.loc 2 93 17 is_stmt 0 view .LVU74
 225 006a D3F89C20 		ldr	r2, [r3, #156]
 226 006e 22F02002 		bic	r2, r2, #32
 227 0072 C3F89C20 		str	r2, [r3, #156]
 228              		.loc 2 94 3 is_stmt 1 view .LVU75
ARM GAS  C:\Users\DEVELO~1\AppData\Local\Temp\ccJK6Gr9.s 			page 5


 229 0076 D3F89C30 		ldr	r3, [r3, #156]
 230              	.LVL3:
 231              		.loc 2 94 3 is_stmt 0 view .LVU76
 232              	.LBE286:
 233              	.LBE285:
 234              		.loc 2 576 1 view .LVU77
 235 007a 42E0     		b	.L14
 236              	.LVL4:
 237              	.L9:
 238              		.loc 2 576 1 view .LVU78
 239              	.LBE284:
 240              	.LBE283:
 241              		.loc 1 155 5 is_stmt 1 view .LVU79
 242 007c 846A     		ldr	r4, [r0, #40]
 243 007e 2268     		ldr	r2, [r4]
 244 0080 1368     		ldr	r3, [r2]
 245 0082 23F01F03 		bic	r3, r3, #31
 246 0086 1360     		str	r3, [r2]
 247              		.loc 1 155 5 view .LVU80
 248              	.L11:
 249              		.loc 1 155 5 discriminator 2 view .LVU81
 250 0088 1368     		ldr	r3, [r2]
 251 008a D907     		lsls	r1, r3, #31
 252 008c FCD4     		bmi	.L11
 253              		.loc 1 155 5 discriminator 3 view .LVU82
 254 008e 227B     		ldrb	r2, [r4, #12]	@ zero_extendqisi2
 255 0090 3D23     		movs	r3, #61
 256              		.loc 1 156 5 is_stmt 0 discriminator 3 view .LVU83
 257 0092 416A     		ldr	r1, [r0, #36]
 258              		.loc 1 155 5 discriminator 3 view .LVU84
 259 0094 9340     		lsls	r3, r3, r2
 260 0096 6468     		ldr	r4, [r4, #4]
 261              		.loc 1 156 5 discriminator 3 view .LVU85
 262 0098 0A68     		ldr	r2, [r1]
 263              		.loc 1 155 5 discriminator 3 view .LVU86
 264 009a 2360     		str	r3, [r4]
 265              		.loc 1 155 5 is_stmt 1 discriminator 3 view .LVU87
 266              		.loc 1 155 35 discriminator 3 view .LVU88
 267              		.loc 1 156 5 discriminator 3 view .LVU89
 268 009c 1368     		ldr	r3, [r2]
 269 009e 23F01F03 		bic	r3, r3, #31
 270 00a2 1360     		str	r3, [r2]
 271              		.loc 1 156 5 discriminator 3 view .LVU90
 272              	.L12:
 273              		.loc 1 156 5 discriminator 2 view .LVU91
 274 00a4 1368     		ldr	r3, [r2]
 275 00a6 DB07     		lsls	r3, r3, #31
 276 00a8 FCD4     		bmi	.L12
 277              		.loc 1 156 5 discriminator 3 view .LVU92
 278 00aa 0C7B     		ldrb	r4, [r1, #12]	@ zero_extendqisi2
 279 00ac 3D23     		movs	r3, #61
 280 00ae 4A68     		ldr	r2, [r1, #4]
 281 00b0 A340     		lsls	r3, r3, r4
 282 00b2 1360     		str	r3, [r2]
 283              		.loc 1 156 5 discriminator 3 view .LVU93
 284              		.loc 1 156 35 discriminator 3 view .LVU94
 285              		.loc 1 162 3 discriminator 3 view .LVU95
ARM GAS  C:\Users\DEVELO~1\AppData\Local\Temp\ccJK6Gr9.s 			page 6


 286              		.loc 1 166 8 discriminator 3 view .LVU96
 287              		.loc 1 166 11 is_stmt 0 discriminator 3 view .LVU97
 288 00b4 334B     		ldr	r3, .L27
 289 00b6 9842     		cmp	r0, r3
 290 00b8 C0D1     		bne	.L13
 291              	.L22:
 292              		.loc 1 167 5 is_stmt 1 view .LVU98
 293              	.LVL5:
 294              	.LBB287:
 295              	.LBI287:
 296              		.loc 2 385 22 view .LVU99
 297              	.LBB288:
 298              		.loc 2 397 3 view .LVU100
 299              	.LBB289:
 300              	.LBI289:
 301              		.loc 2 73 22 view .LVU101
 302              	.LBB290:
 303              		.loc 2 76 3 view .LVU102
 304              		.loc 2 76 17 is_stmt 0 view .LVU103
 305 00ba 384B     		ldr	r3, .L27+24
 306              	.LBE290:
 307              	.LBE289:
 308              	.LBE288:
 309              	.LBE287:
 310              		.loc 1 206 3 view .LVU104
 311 00bc C169     		ldr	r1, [r0, #28]
 312              	.LBB300:
 313              	.LBB297:
 314              	.LBB294:
 315              	.LBB291:
 316              		.loc 2 76 17 view .LVU105
 317 00be D3F89820 		ldr	r2, [r3, #152]
 318              	.LBE291:
 319              	.LBE294:
 320              	.LBE297:
 321              	.LBE300:
 322              		.loc 1 206 3 view .LVU106
 323 00c2 4068     		ldr	r0, [r0, #4]
 324              	.LVL6:
 325              	.LBB301:
 326              	.LBB298:
 327              	.LBB295:
 328              	.LBB292:
 329              		.loc 2 76 17 view .LVU107
 330 00c4 42F48052 		orr	r2, r2, #4096
 331              	.LBE292:
 332              	.LBE295:
 333              	.LBE298:
 334              	.LBE301:
 335              		.loc 1 207 1 view .LVU108
 336 00c8 5DF8044B 		ldr	r4, [sp], #4
 337              		.cfi_remember_state
 338              		.cfi_restore 4
 339              		.cfi_def_cfa_offset 0
 340              	.LBB302:
 341              	.LBB299:
 342              	.LBB296:
ARM GAS  C:\Users\DEVELO~1\AppData\Local\Temp\ccJK6Gr9.s 			page 7


 343              	.LBB293:
 344              		.loc 2 76 17 view .LVU109
 345 00cc C3F89820 		str	r2, [r3, #152]
 346              		.loc 2 77 3 is_stmt 1 view .LVU110
 347              		.loc 2 77 17 is_stmt 0 view .LVU111
 348 00d0 D3F89820 		ldr	r2, [r3, #152]
 349 00d4 22F48052 		bic	r2, r2, #4096
 350 00d8 C3F89820 		str	r2, [r3, #152]
 351              		.loc 2 78 3 is_stmt 1 view .LVU112
 352 00dc D3F89830 		ldr	r3, [r3, #152]
 353              	.LVL7:
 354              		.loc 2 78 3 is_stmt 0 view .LVU113
 355              	.LBE293:
 356              	.LBE296:
 357              	.LBE299:
 358              	.LBE302:
 359              		.loc 1 202 5 is_stmt 1 view .LVU114
 360              		.loc 1 206 3 view .LVU115
 361 00e0 FFF7FEBF 		b	spi_lld_configure.isra.0
 362              	.LVL8:
 363              	.L23:
 364              		.cfi_restore_state
 365              		.loc 1 173 5 view .LVU116
 366              	.LBB303:
 367              	.LBI303:
 368              		.loc 2 207 22 view .LVU117
 369              	.LBB304:
 370              		.loc 2 219 3 view .LVU118
 371              	.LBB305:
 372              	.LBI305:
 373              		.loc 2 57 22 view .LVU119
 374              	.LBB306:
 375              		.loc 2 60 3 view .LVU120
 376              		.loc 2 60 18 is_stmt 0 view .LVU121
 377 00e4 2D4B     		ldr	r3, .L27+24
 378 00e6 D3F89020 		ldr	r2, [r3, #144]
 379 00ea 42F48042 		orr	r2, r2, #16384
 380 00ee C3F89020 		str	r2, [r3, #144]
 381              		.loc 2 61 3 is_stmt 1 view .LVU122
 382              		.loc 2 61 18 is_stmt 0 view .LVU123
 383 00f2 D3F89020 		ldr	r2, [r3, #144]
 384 00f6 22F48042 		bic	r2, r2, #16384
 385 00fa C3F89020 		str	r2, [r3, #144]
 386              		.loc 2 62 3 is_stmt 1 view .LVU124
 387 00fe D3F89030 		ldr	r3, [r3, #144]
 388              	.LVL9:
 389              	.L14:
 390              		.loc 2 62 3 is_stmt 0 view .LVU125
 391              	.LBE306:
 392              	.LBE305:
 393              	.LBE304:
 394              	.LBE303:
 395              		.loc 1 202 5 is_stmt 1 discriminator 5 view .LVU126
 396              		.loc 1 206 3 discriminator 5 view .LVU127
 397 0102 C169     		ldr	r1, [r0, #28]
 398              		.loc 1 207 1 is_stmt 0 discriminator 5 view .LVU128
 399 0104 5DF8044B 		ldr	r4, [sp], #4
ARM GAS  C:\Users\DEVELO~1\AppData\Local\Temp\ccJK6Gr9.s 			page 8


 400              		.cfi_remember_state
 401              		.cfi_restore 4
 402              		.cfi_def_cfa_offset 0
 403              		.loc 1 206 3 discriminator 5 view .LVU129
 404 0108 4068     		ldr	r0, [r0, #4]
 405              	.LVL10:
 406              		.loc 1 206 3 discriminator 5 view .LVU130
 407 010a FFF7FEBF 		b	spi_lld_configure.isra.0
 408              	.LVL11:
 409              	.L26:
 410              		.cfi_restore_state
 411              		.loc 1 191 5 is_stmt 1 view .LVU131
 412              	.LBB307:
 413              	.LBI307:
 414              		.loc 2 385 22 view .LVU132
 415              	.LBB308:
 416              		.loc 2 397 3 view .LVU133
 417              	.LBB309:
 418              	.LBI309:
 419              		.loc 2 73 22 view .LVU134
 420              	.LBB310:
 421              		.loc 2 76 3 view .LVU135
 422              		.loc 2 76 17 is_stmt 0 view .LVU136
 423 010e 234B     		ldr	r3, .L27+24
 424 0110 D3F89820 		ldr	r2, [r3, #152]
 425 0114 42F48012 		orr	r2, r2, #1048576
 426 0118 C3F89820 		str	r2, [r3, #152]
 427              		.loc 2 77 3 is_stmt 1 view .LVU137
 428              		.loc 2 77 17 is_stmt 0 view .LVU138
 429 011c D3F89820 		ldr	r2, [r3, #152]
 430 0120 22F48012 		bic	r2, r2, #1048576
 431 0124 C3F89820 		str	r2, [r3, #152]
 432              		.loc 2 78 3 is_stmt 1 view .LVU139
 433 0128 D3F89830 		ldr	r3, [r3, #152]
 434              	.LVL12:
 435              		.loc 2 78 3 is_stmt 0 view .LVU140
 436              	.LBE310:
 437              	.LBE309:
 438              		.loc 2 398 1 view .LVU141
 439 012c E9E7     		b	.L14
 440              	.LVL13:
 441              	.L24:
 442              		.loc 2 398 1 view .LVU142
 443              	.LBE308:
 444              	.LBE307:
 445              		.loc 1 179 5 is_stmt 1 view .LVU143
 446              	.LBB311:
 447              	.LBI311:
 448              		.loc 2 207 22 view .LVU144
 449              	.LBB312:
 450              		.loc 2 219 3 view .LVU145
 451              	.LBB313:
 452              	.LBI313:
 453              		.loc 2 57 22 view .LVU146
 454              	.LBB314:
 455              		.loc 2 60 3 view .LVU147
 456              		.loc 2 60 18 is_stmt 0 view .LVU148
ARM GAS  C:\Users\DEVELO~1\AppData\Local\Temp\ccJK6Gr9.s 			page 9


 457 012e 1B4B     		ldr	r3, .L27+24
 458              	.LBE314:
 459              	.LBE313:
 460              	.LBE312:
 461              	.LBE311:
 462              		.loc 1 206 3 view .LVU149
 463 0130 C169     		ldr	r1, [r0, #28]
 464              	.LBB324:
 465              	.LBB321:
 466              	.LBB318:
 467              	.LBB315:
 468              		.loc 2 60 18 view .LVU150
 469 0132 D3F89020 		ldr	r2, [r3, #144]
 470              	.LBE315:
 471              	.LBE318:
 472              	.LBE321:
 473              	.LBE324:
 474              		.loc 1 206 3 view .LVU151
 475 0136 4068     		ldr	r0, [r0, #4]
 476              	.LVL14:
 477              	.LBB325:
 478              	.LBB322:
 479              	.LBB319:
 480              	.LBB316:
 481              		.loc 2 60 18 view .LVU152
 482 0138 42F40042 		orr	r2, r2, #32768
 483              	.LBE316:
 484              	.LBE319:
 485              	.LBE322:
 486              	.LBE325:
 487              		.loc 1 207 1 view .LVU153
 488 013c 5DF8044B 		ldr	r4, [sp], #4
 489              		.cfi_remember_state
 490              		.cfi_restore 4
 491              		.cfi_def_cfa_offset 0
 492              	.LBB326:
 493              	.LBB323:
 494              	.LBB320:
 495              	.LBB317:
 496              		.loc 2 60 18 view .LVU154
 497 0140 C3F89020 		str	r2, [r3, #144]
 498              		.loc 2 61 3 is_stmt 1 view .LVU155
 499              		.loc 2 61 18 is_stmt 0 view .LVU156
 500 0144 D3F89020 		ldr	r2, [r3, #144]
 501 0148 22F40042 		bic	r2, r2, #32768
 502 014c C3F89020 		str	r2, [r3, #144]
 503              		.loc 2 62 3 is_stmt 1 view .LVU157
 504 0150 D3F89030 		ldr	r3, [r3, #144]
 505              	.LVL15:
 506              		.loc 2 62 3 is_stmt 0 view .LVU158
 507              	.LBE317:
 508              	.LBE320:
 509              	.LBE323:
 510              	.LBE326:
 511              		.loc 1 202 5 is_stmt 1 view .LVU159
 512              		.loc 1 206 3 view .LVU160
 513 0154 FFF7FEBF 		b	spi_lld_configure.isra.0
ARM GAS  C:\Users\DEVELO~1\AppData\Local\Temp\ccJK6Gr9.s 			page 10


 514              	.LVL16:
 515              	.L25:
 516              		.cfi_restore_state
 517              		.loc 1 185 5 view .LVU161
 518              	.LBB327:
 519              	.LBI327:
 520              		.loc 2 385 22 view .LVU162
 521              	.LBB328:
 522              		.loc 2 397 3 view .LVU163
 523              	.LBB329:
 524              	.LBI329:
 525              		.loc 2 73 22 view .LVU164
 526              	.LBB330:
 527              		.loc 2 76 3 view .LVU165
 528              		.loc 2 76 17 is_stmt 0 view .LVU166
 529 0158 104B     		ldr	r3, .L27+24
 530              	.LBE330:
 531              	.LBE329:
 532              	.LBE328:
 533              	.LBE327:
 534              		.loc 1 206 3 view .LVU167
 535 015a C169     		ldr	r1, [r0, #28]
 536              	.LBB340:
 537              	.LBB337:
 538              	.LBB334:
 539              	.LBB331:
 540              		.loc 2 76 17 view .LVU168
 541 015c D3F89820 		ldr	r2, [r3, #152]
 542              	.LBE331:
 543              	.LBE334:
 544              	.LBE337:
 545              	.LBE340:
 546              		.loc 1 206 3 view .LVU169
 547 0160 4068     		ldr	r0, [r0, #4]
 548              	.LVL17:
 549              	.LBB341:
 550              	.LBB338:
 551              	.LBB335:
 552              	.LBB332:
 553              		.loc 2 76 17 view .LVU170
 554 0162 42F40052 		orr	r2, r2, #8192
 555              	.LBE332:
 556              	.LBE335:
 557              	.LBE338:
 558              	.LBE341:
 559              		.loc 1 207 1 view .LVU171
 560 0166 5DF8044B 		ldr	r4, [sp], #4
 561              		.cfi_restore 4
 562              		.cfi_def_cfa_offset 0
 563              	.LBB342:
 564              	.LBB339:
 565              	.LBB336:
 566              	.LBB333:
 567              		.loc 2 76 17 view .LVU172
 568 016a C3F89820 		str	r2, [r3, #152]
 569              		.loc 2 77 3 is_stmt 1 view .LVU173
 570              		.loc 2 77 17 is_stmt 0 view .LVU174
ARM GAS  C:\Users\DEVELO~1\AppData\Local\Temp\ccJK6Gr9.s 			page 11


 571 016e D3F89820 		ldr	r2, [r3, #152]
 572 0172 22F40052 		bic	r2, r2, #8192
 573 0176 C3F89820 		str	r2, [r3, #152]
 574              		.loc 2 78 3 is_stmt 1 view .LVU175
 575 017a D3F89830 		ldr	r3, [r3, #152]
 576              	.LVL18:
 577              		.loc 2 78 3 is_stmt 0 view .LVU176
 578              	.LBE333:
 579              	.LBE336:
 580              	.LBE339:
 581              	.LBE342:
 582              		.loc 1 202 5 is_stmt 1 view .LVU177
 583              		.loc 1 206 3 view .LVU178
 584 017e FFF7FEBF 		b	spi_lld_configure.isra.0
 585              	.LVL19:
 586              	.L28:
 587 0182 00BF     		.align	2
 588              	.L27:
 589 0184 00000000 		.word	.LANCHOR0
 590 0188 00000000 		.word	.LANCHOR1
 591 018c 00000000 		.word	.LANCHOR2
 592 0190 00000000 		.word	.LANCHOR3
 593 0194 00000000 		.word	.LANCHOR4
 594 0198 00000000 		.word	.LANCHOR5
 595 019c 00440258 		.word	1476543488
 596              		.cfi_endproc
 597              	.LFE451:
 598              		.size	spi_lld_stop_abort, .-spi_lld_stop_abort
 599              		.section	.text.spi_lld_stop_nicely,"ax",%progbits
 600              		.align	1
 601              		.p2align 2,,3
 602              		.syntax unified
 603              		.thumb
 604              		.thumb_func
 605              		.type	spi_lld_stop_nicely, %function
 606              	spi_lld_stop_nicely:
 607              	.LVL20:
 608              	.LFB452:
 609              		.loc 1 214 51 view -0
 610              		.cfi_startproc
 611              		@ args = 0, pretend = 0, frame = 0
 612              		@ frame_needed = 0, uses_anonymous_args = 0
 613              		.loc 1 216 3 view .LVU180
 614              		.loc 1 216 19 is_stmt 0 view .LVU181
 615 0000 4368     		ldr	r3, [r0, #4]
 616              		.loc 1 216 6 view .LVU182
 617 0002 5B78     		ldrb	r3, [r3, #1]	@ zero_extendqisi2
 618              		.loc 1 214 51 view .LVU183
 619 0004 10B5     		push	{r4, lr}
 620              		.cfi_def_cfa_offset 8
 621              		.cfi_offset 4, -8
 622              		.cfi_offset 14, -4
 623              		.loc 1 216 6 view .LVU184
 624 0006 002B     		cmp	r3, #0
 625 0008 50D1     		bne	.L45
 626              		.loc 1 225 3 is_stmt 1 view .LVU185
 627              		.loc 1 225 6 is_stmt 0 view .LVU186
ARM GAS  C:\Users\DEVELO~1\AppData\Local\Temp\ccJK6Gr9.s 			page 12


 628 000a 90F82030 		ldrb	r3, [r0, #32]	@ zero_extendqisi2
 629 000e 0146     		mov	r1, r0
 630 0010 DBB1     		cbz	r3, .L32
 631              		.loc 1 229 5 is_stmt 1 view .LVU187
 632 0012 836A     		ldr	r3, [r0, #40]
 633 0014 D3E90040 		ldrd	r4, r0, [r3]
 634              	.LVL21:
 635              		.loc 1 229 5 is_stmt 0 view .LVU188
 636 0018 0268     		ldr	r2, [r0]
 637 001a 22F00F02 		bic	r2, r2, #15
 638 001e 0260     		str	r2, [r0]
 639              		.loc 1 229 5 is_stmt 1 view .LVU189
 640 0020 0E22     		movs	r2, #14
 641 0022 187A     		ldrb	r0, [r3, #8]	@ zero_extendqisi2
 642              		.loc 1 232 17 is_stmt 0 view .LVU190
 643 0024 CB69     		ldr	r3, [r1, #28]
 644              		.loc 1 229 5 view .LVU191
 645 0026 8240     		lsls	r2, r2, r0
 646 0028 6260     		str	r2, [r4, #4]
 647              		.loc 1 229 5 is_stmt 1 view .LVU192
 648              		.loc 1 229 37 view .LVU193
 649              		.loc 1 232 5 view .LVU194
 650              	.L33:
 651              		.loc 1 234 5 discriminator 1 view .LVU195
 652              		.loc 1 232 61 discriminator 1 view .LVU196
 653              		.loc 1 232 22 is_stmt 0 discriminator 1 view .LVU197
 654 002a 5A69     		ldr	r2, [r3, #20]
 655              		.loc 1 232 61 discriminator 1 view .LVU198
 656 002c 12F4604F 		tst	r2, #57344
 657 0030 FBD1     		bne	.L33
 658              		.loc 1 236 5 is_stmt 1 view .LVU199
 659 0032 496A     		ldr	r1, [r1, #36]
 660              	.LVL22:
 661              		.loc 1 236 5 is_stmt 0 view .LVU200
 662 0034 D1E90040 		ldrd	r4, r0, [r1]
 663 0038 0268     		ldr	r2, [r0]
 664 003a 22F00F02 		bic	r2, r2, #15
 665 003e 0260     		str	r2, [r0]
 666              		.loc 1 236 5 is_stmt 1 view .LVU201
 667 0040 0E22     		movs	r2, #14
 668 0042 097A     		ldrb	r1, [r1, #8]	@ zero_extendqisi2
 669 0044 8A40     		lsls	r2, r2, r1
 670 0046 6260     		str	r2, [r4, #4]
 671              		.loc 1 236 5 view .LVU202
 672              		.loc 1 236 37 view .LVU203
 673 0048 24E0     		b	.L34
 674              	.LVL23:
 675              	.L32:
 676              		.loc 1 244 5 view .LVU204
 677 004a 806A     		ldr	r0, [r0, #40]
 678              	.LVL24:
 679              		.loc 1 244 5 is_stmt 0 view .LVU205
 680 004c 0268     		ldr	r2, [r0]
 681 004e 1368     		ldr	r3, [r2]
 682 0050 23F01F03 		bic	r3, r3, #31
 683 0054 1360     		str	r3, [r2]
 684              		.loc 1 244 5 is_stmt 1 view .LVU206
ARM GAS  C:\Users\DEVELO~1\AppData\Local\Temp\ccJK6Gr9.s 			page 13


 685              	.L35:
 686              		.loc 1 244 5 discriminator 2 view .LVU207
 687 0056 1368     		ldr	r3, [r2]
 688 0058 DB07     		lsls	r3, r3, #31
 689 005a FCD4     		bmi	.L35
 690              		.loc 1 244 5 discriminator 3 view .LVU208
 691 005c 90F80CC0 		ldrb	ip, [r0, #12]	@ zero_extendqisi2
 692 0060 3D22     		movs	r2, #61
 693 0062 4068     		ldr	r0, [r0, #4]
 694 0064 02FA0CF2 		lsl	r2, r2, ip
 695              		.loc 1 247 17 is_stmt 0 discriminator 3 view .LVU209
 696 0068 CB69     		ldr	r3, [r1, #28]
 697              		.loc 1 244 5 discriminator 3 view .LVU210
 698 006a 0260     		str	r2, [r0]
 699              		.loc 1 244 5 is_stmt 1 discriminator 3 view .LVU211
 700              		.loc 1 244 35 discriminator 3 view .LVU212
 701              		.loc 1 247 5 discriminator 3 view .LVU213
 702              	.L36:
 703              		.loc 1 249 5 discriminator 1 view .LVU214
 704              		.loc 1 247 61 discriminator 1 view .LVU215
 705              		.loc 1 247 22 is_stmt 0 discriminator 1 view .LVU216
 706 006c 5A69     		ldr	r2, [r3, #20]
 707              		.loc 1 247 61 discriminator 1 view .LVU217
 708 006e 12F4604F 		tst	r2, #57344
 709 0072 FBD1     		bne	.L36
 710              		.loc 1 251 5 is_stmt 1 view .LVU218
 711 0074 486A     		ldr	r0, [r1, #36]
 712 0076 0168     		ldr	r1, [r0]
 713              	.LVL25:
 714              		.loc 1 251 5 is_stmt 0 view .LVU219
 715 0078 0A68     		ldr	r2, [r1]
 716 007a 22F01F02 		bic	r2, r2, #31
 717 007e 0A60     		str	r2, [r1]
 718              		.loc 1 251 5 is_stmt 1 view .LVU220
 719              	.L37:
 720              		.loc 1 251 5 discriminator 2 view .LVU221
 721 0080 0A68     		ldr	r2, [r1]
 722 0082 D407     		lsls	r4, r2, #31
 723 0084 FCD4     		bmi	.L37
 724              		.loc 1 251 5 discriminator 3 view .LVU222
 725 0086 90F80CC0 		ldrb	ip, [r0, #12]	@ zero_extendqisi2
 726 008a 3D22     		movs	r2, #61
 727 008c 4168     		ldr	r1, [r0, #4]
 728 008e 02FA0CF2 		lsl	r2, r2, ip
 729 0092 0A60     		str	r2, [r1]
 730              	.L34:
 731              		.loc 1 251 5 discriminator 4 view .LVU223
 732              		.loc 1 251 35 discriminator 4 view .LVU224
 733              		.loc 1 256 3 discriminator 4 view .LVU225
 734              	.LBB345:
 735              	.LBI345:
 736              		.loc 1 125 13 discriminator 4 view .LVU226
 737              	.LVL26:
 738              	.LBB346:
 739              		.loc 1 127 3 discriminator 4 view .LVU227
 740              		.loc 1 128 5 discriminator 4 view .LVU228
 741              		.loc 1 128 20 is_stmt 0 discriminator 4 view .LVU229
ARM GAS  C:\Users\DEVELO~1\AppData\Local\Temp\ccJK6Gr9.s 			page 14


 742 0094 1A68     		ldr	r2, [r3]
 743 0096 42F48062 		orr	r2, r2, #1024
 744 009a 1A60     		str	r2, [r3]
 745              		.loc 1 129 5 is_stmt 1 discriminator 4 view .LVU230
 746              	.L38:
 747              		.loc 1 130 5 view .LVU231
 748              		.loc 1 129 46 view .LVU232
 749              		.loc 1 129 22 is_stmt 0 view .LVU233
 750 009c 1A68     		ldr	r2, [r3]
 751              		.loc 1 129 46 view .LVU234
 752 009e 9205     		lsls	r2, r2, #22
 753 00a0 FCD4     		bmi	.L38
 754              		.loc 1 132 3 is_stmt 1 view .LVU235
 755              		.loc 1 132 19 is_stmt 0 view .LVU236
 756 00a2 4FF0FF32 		mov	r2, #-1
 757              	.LBE346:
 758              	.LBE345:
 759              		.loc 1 260 1 view .LVU237
 760 00a6 0020     		movs	r0, #0
 761              	.LBB348:
 762              	.LBB347:
 763              		.loc 1 132 19 view .LVU238
 764 00a8 9A61     		str	r2, [r3, #24]
 765              	.LVL27:
 766              		.loc 1 132 19 view .LVU239
 767              	.LBE347:
 768              	.LBE348:
 769              		.loc 1 260 1 view .LVU240
 770 00aa 10BD     		pop	{r4, pc}
 771              	.LVL28:
 772              	.L45:
 773              		.loc 1 218 5 is_stmt 1 view .LVU241
 774 00ac FFF7FEFF 		bl	spi_lld_stop_abort
 775              	.LVL29:
 776              		.loc 1 220 5 view .LVU242
 777              		.loc 1 260 1 is_stmt 0 view .LVU243
 778 00b0 0020     		movs	r0, #0
 779 00b2 10BD     		pop	{r4, pc}
 780              		.cfi_endproc
 781              	.LFE452:
 782              		.size	spi_lld_stop_nicely, .-spi_lld_stop_nicely
 783              		.section	.rodata.spi_lld_serve_dma_tx_interrupt.part.0.str1.4,"aMS",%progbits,1
 784              		.align	2
 785              	.LC0:
 786 0000 444D4120 		.ascii	"DMA failure\000"
 786      6661696C 
 786      75726500 
 787              		.section	.text.spi_lld_serve_dma_tx_interrupt.part.0,"ax",%progbits
 788              		.align	1
 789              		.p2align 2,,3
 790              		.syntax unified
 791              		.thumb
 792              		.thumb_func
 793              		.type	spi_lld_serve_dma_tx_interrupt.part.0, %function
 794              	spi_lld_serve_dma_tx_interrupt.part.0:
 795              	.LVL30:
 796              	.LFB477:
ARM GAS  C:\Users\DEVELO~1\AppData\Local\Temp\ccJK6Gr9.s 			page 15


 797              		.loc 1 373 13 is_stmt 1 view -0
 798              		.cfi_startproc
 799              		@ args = 0, pretend = 0, frame = 0
 800              		@ frame_needed = 0, uses_anonymous_args = 0
 801              		.loc 1 378 5 view .LVU245
 802              	.LBB349:
 803              	.LBI349:
 804              		.file 3 "../../../os/hal/osal/rt-nil/osal.h"
 805              		.loc 3 542 20 view .LVU246
 806              	.LBB350:
 807              		.loc 3 544 3 view .LVU247
 808              	.LBE350:
 809              	.LBE349:
 810              		.loc 1 373 13 is_stmt 0 view .LVU248
 811 0000 10B5     		push	{r4, lr}
 812              		.cfi_def_cfa_offset 8
 813              		.cfi_offset 4, -8
 814              		.cfi_offset 14, -4
 815              		.loc 1 373 13 view .LVU249
 816 0002 0446     		mov	r4, r0
 817              	.LBB352:
 818              	.LBB351:
 819              		.loc 3 544 3 view .LVU250
 820 0004 0B48     		ldr	r0, .L52
 821              	.LVL31:
 822              		.loc 3 544 3 view .LVU251
 823 0006 FFF7FEFF 		bl	chSysHalt
 824              	.LVL32:
 825              		.loc 3 544 3 view .LVU252
 826              	.LBE351:
 827              	.LBE352:
 828              		.loc 1 382 5 is_stmt 1 view .LVU253
 829 000a 2046     		mov	r0, r4
 830 000c FFF7FEFF 		bl	spi_lld_stop_abort
 831              	.LVL33:
 832              		.loc 1 385 5 view .LVU254
 833 0010 6368     		ldr	r3, [r4, #4]
 834 0012 9B68     		ldr	r3, [r3, #8]
 835 0014 0BB1     		cbz	r3, .L47
 836              		.loc 1 385 5 view .LVU255
 837 0016 2046     		mov	r0, r4
 838 0018 9847     		blx	r3
 839              	.LVL34:
 840              	.L47:
 841              		.loc 1 385 5 view .LVU256
 842              	.LBB353:
 843              	.LBI353:
 844              		.loc 3 595 20 view .LVU257
 845              		.loc 3 597 3 view .LVU258
 846              	.LBB354:
 847              	.LBI354:
 848              		.file 4 "../../../os/rt/include/chsys.h"
 849              		.loc 4 416 20 view .LVU259
 850              		.loc 4 418 3 view .LVU260
 851              	.LBB355:
 852              	.LBI355:
 853              		.file 5 "../../../os/common/ports/ARMv7-M/chcore.h"
ARM GAS  C:\Users\DEVELO~1\AppData\Local\Temp\ccJK6Gr9.s 			page 16


 854              		.loc 5 879 27 view .LVU261
 855              		.loc 5 881 3 view .LVU262
 856              	.LBB356:
 857              	.LBI356:
 858              		.loc 5 840 27 view .LVU263
 859              		.loc 5 848 3 view .LVU264
 860              	.LBB357:
 861              	.LBI357:
 862              		.file 6 "../../../os/common/ext/ARM/CMSIS/Core/Include/cmsis_gcc.h"
 863              		.loc 6 491 27 view .LVU265
 864              	.LBB358:
 865              		.loc 6 493 3 view .LVU266
 866 001a 3023     		movs	r3, #48
 867              		.syntax unified
 868              	@ 493 "../../../os/common/ext/ARM/CMSIS/Core/Include/cmsis_gcc.h" 1
 869 001c 83F31188 		MSR basepri, r3
 870              	@ 0 "" 2
 871              	.LVL35:
 872              		.loc 6 493 3 is_stmt 0 view .LVU267
 873              		.thumb
 874              		.syntax unified
 875              	.LBE358:
 876              	.LBE357:
 877              	.LBE356:
 878              	.LBE355:
 879              		.loc 4 419 35 is_stmt 1 view .LVU268
 880              		.loc 4 420 30 view .LVU269
 881              	.LBE354:
 882              	.LBE353:
 883              		.loc 1 385 5 view .LVU270
 884              	.LBB359:
 885              	.LBI359:
 886              		.loc 3 837 20 view .LVU271
 887              	.LBB360:
 888              		.loc 3 839 3 view .LVU272
 889 0020 6FF01201 		mvn	r1, #18
 890 0024 04F10800 		add	r0, r4, #8
 891              	.LVL36:
 892              		.loc 3 839 3 is_stmt 0 view .LVU273
 893 0028 FFF7FEFF 		bl	chThdResumeI
 894              	.LVL37:
 895              		.loc 3 839 3 view .LVU274
 896              	.LBE360:
 897              	.LBE359:
 898              		.loc 1 385 5 is_stmt 1 view .LVU275
 899              	.LBB361:
 900              	.LBI361:
 901              		.loc 3 606 20 view .LVU276
 902              		.loc 3 608 3 view .LVU277
 903              	.LBB362:
 904              	.LBI362:
 905              		.loc 4 438 20 view .LVU278
 906              		.loc 4 440 32 view .LVU279
 907              		.loc 4 441 34 view .LVU280
 908              		.loc 4 442 3 view .LVU281
 909              	.LBB363:
 910              	.LBI363:
ARM GAS  C:\Users\DEVELO~1\AppData\Local\Temp\ccJK6Gr9.s 			page 17


 911              		.loc 5 890 27 view .LVU282
 912              		.loc 5 892 3 view .LVU283
 913              	.LBB364:
 914              	.LBI364:
 915              		.loc 5 864 27 view .LVU284
 916              		.loc 5 867 3 view .LVU285
 917              	.LBB365:
 918              	.LBI365:
 919              		.loc 6 491 27 view .LVU286
 920              	.LBB366:
 921              		.loc 6 493 3 view .LVU287
 922 002c 0023     		movs	r3, #0
 923              		.syntax unified
 924              	@ 493 "../../../os/common/ext/ARM/CMSIS/Core/Include/cmsis_gcc.h" 1
 925 002e 83F31188 		MSR basepri, r3
 926              	@ 0 "" 2
 927              	.LVL38:
 928              		.loc 6 493 3 is_stmt 0 view .LVU288
 929              		.thumb
 930              		.syntax unified
 931              	.LBE366:
 932              	.LBE365:
 933              	.LBE364:
 934              	.LBE363:
 935              	.LBE362:
 936              	.LBE361:
 937              		.loc 1 385 5 is_stmt 1 view .LVU289
 938              		.loc 1 385 51 view .LVU290
 939              		.loc 1 387 1 is_stmt 0 view .LVU291
 940 0032 10BD     		pop	{r4, pc}
 941              	.LVL39:
 942              	.L53:
 943              		.loc 1 387 1 view .LVU292
 944              		.align	2
 945              	.L52:
 946 0034 00000000 		.word	.LC0
 947              		.cfi_endproc
 948              	.LFE477:
 949              		.size	spi_lld_serve_dma_tx_interrupt.part.0, .-spi_lld_serve_dma_tx_interrupt.part.0
 950              		.thumb_set spi_lld_serve_bdma_tx_interrupt.part.0,spi_lld_serve_dma_tx_interrupt.part.0
 951              		.section	.text.spi_lld_serve_bdma_tx_interrupt,"ax",%progbits
 952              		.align	1
 953              		.p2align 2,,3
 954              		.syntax unified
 955              		.thumb
 956              		.thumb_func
 957              		.type	spi_lld_serve_bdma_tx_interrupt, %function
 958              	spi_lld_serve_bdma_tx_interrupt:
 959              	.LVL40:
 960              	.LFB454:
 961              		.loc 1 309 78 is_stmt 1 view -0
 962              		.cfi_startproc
 963              		@ args = 0, pretend = 0, frame = 0
 964              		@ frame_needed = 0, uses_anonymous_args = 0
 965              		@ link register save eliminated.
 966              		.loc 1 312 3 view .LVU294
 967              		.loc 1 312 6 is_stmt 0 view .LVU295
ARM GAS  C:\Users\DEVELO~1\AppData\Local\Temp\ccJK6Gr9.s 			page 18


 968 0000 0B07     		lsls	r3, r1, #28
 969 0002 00D4     		bmi	.L56
 970              		.loc 1 323 1 view .LVU296
 971 0004 7047     		bx	lr
 972              	.L56:
 973 0006 FFF7FEBF 		b	spi_lld_serve_bdma_tx_interrupt.part.0
 974              	.LVL41:
 975              		.loc 1 323 1 view .LVU297
 976              		.cfi_endproc
 977              	.LFE454:
 978              		.size	spi_lld_serve_bdma_tx_interrupt, .-spi_lld_serve_bdma_tx_interrupt
 979 000a 00BF     		.section	.text.spi_lld_serve_dma_tx_interrupt,"ax",%progbits
 980              		.align	1
 981              		.p2align 2,,3
 982              		.syntax unified
 983              		.thumb
 984              		.thumb_func
 985              		.type	spi_lld_serve_dma_tx_interrupt, %function
 986              	spi_lld_serve_dma_tx_interrupt:
 987              	.LVL42:
 988              	.LFB456:
 989              		.loc 1 373 77 is_stmt 1 view -0
 990              		.cfi_startproc
 991              		@ args = 0, pretend = 0, frame = 0
 992              		@ frame_needed = 0, uses_anonymous_args = 0
 993              		@ link register save eliminated.
 994              		.loc 1 376 3 view .LVU299
 995              		.loc 1 376 6 is_stmt 0 view .LVU300
 996 0000 11F00C0F 		tst	r1, #12
 997 0004 00D1     		bne	.L59
 998              		.loc 1 387 1 view .LVU301
 999 0006 7047     		bx	lr
 1000              	.L59:
 1001 0008 FFF7FEBF 		b	spi_lld_serve_dma_tx_interrupt.part.0
 1002              	.LVL43:
 1003              		.loc 1 387 1 view .LVU302
 1004              		.cfi_endproc
 1005              	.LFE456:
 1006              		.size	spi_lld_serve_dma_tx_interrupt, .-spi_lld_serve_dma_tx_interrupt
 1007              		.section	.text.spi_lld_serve_dma_rx_interrupt,"ax",%progbits
 1008              		.align	1
 1009              		.p2align 2,,3
 1010              		.syntax unified
 1011              		.thumb
 1012              		.thumb_func
 1013              		.type	spi_lld_serve_dma_rx_interrupt, %function
 1014              	spi_lld_serve_dma_rx_interrupt:
 1015              	.LVL44:
 1016              	.LFB455:
 1017              		.loc 1 333 77 is_stmt 1 view -0
 1018              		.cfi_startproc
 1019              		@ args = 0, pretend = 0, frame = 0
 1020              		@ frame_needed = 0, uses_anonymous_args = 0
 1021              		.loc 1 336 3 view .LVU304
 1022              		.loc 1 336 6 is_stmt 0 view .LVU305
 1023 0000 11F00C0F 		tst	r1, #12
 1024              		.loc 1 333 77 view .LVU306
ARM GAS  C:\Users\DEVELO~1\AppData\Local\Temp\ccJK6Gr9.s 			page 19


 1025 0004 70B5     		push	{r4, r5, r6, lr}
 1026              		.cfi_def_cfa_offset 16
 1027              		.cfi_offset 4, -16
 1028              		.cfi_offset 5, -12
 1029              		.cfi_offset 6, -8
 1030              		.cfi_offset 14, -4
 1031              		.loc 1 333 77 view .LVU307
 1032 0006 0D46     		mov	r5, r1
 1033 0008 0446     		mov	r4, r0
 1034              		.loc 1 336 6 view .LVU308
 1035 000a 2DD1     		bne	.L91
 1036              	.LVL45:
 1037              	.L61:
 1038              		.loc 1 345 5 is_stmt 1 discriminator 4 view .LVU309
 1039              		.loc 1 345 51 discriminator 4 view .LVU310
 1040              		.loc 1 348 3 discriminator 4 view .LVU311
 1041              		.loc 1 348 11 is_stmt 0 discriminator 4 view .LVU312
 1042 000c 6668     		ldr	r6, [r4, #4]
 1043              		.loc 1 348 6 discriminator 4 view .LVU313
 1044 000e 3378     		ldrb	r3, [r6]	@ zero_extendqisi2
 1045 0010 93B1     		cbz	r3, .L63
 1046              		.loc 1 349 5 is_stmt 1 view .LVU314
 1047              		.loc 1 349 8 is_stmt 0 view .LVU315
 1048 0012 EA06     		lsls	r2, r5, #27
 1049 0014 03D5     		bpl	.L64
 1050              		.loc 1 351 7 is_stmt 1 view .LVU316
 1051 0016 7368     		ldr	r3, [r6, #4]
 1052 0018 6BB1     		cbz	r3, .L60
 1053              		.loc 1 351 7 discriminator 1 view .LVU317
 1054 001a 2046     		mov	r0, r4
 1055 001c 9847     		blx	r3
 1056              	.LVL46:
 1057              	.L64:
 1058              		.loc 1 351 32 discriminator 3 view .LVU318
 1059              		.loc 1 353 5 discriminator 3 view .LVU319
 1060              		.loc 1 353 8 is_stmt 0 discriminator 3 view .LVU320
 1061 001e AB06     		lsls	r3, r5, #26
 1062 0020 09D5     		bpl	.L60
 1063              		.loc 1 355 7 is_stmt 1 view .LVU321
 1064 0022 6368     		ldr	r3, [r4, #4]
 1065 0024 5B68     		ldr	r3, [r3, #4]
 1066 0026 33B1     		cbz	r3, .L60
 1067              		.loc 1 355 7 discriminator 1 view .LVU322
 1068 0028 0422     		movs	r2, #4
 1069 002a 2046     		mov	r0, r4
 1070 002c 2270     		strb	r2, [r4]
 1071              		.loc 1 355 7 discriminator 1 view .LVU323
 1072 002e 9847     		blx	r3
 1073              	.LVL47:
 1074              		.loc 1 355 7 discriminator 1 view .LVU324
 1075 0030 2378     		ldrb	r3, [r4]	@ zero_extendqisi2
 1076 0032 042B     		cmp	r3, #4
 1077 0034 30D0     		beq	.L92
 1078              	.L60:
 1079              		.loc 1 365 1 is_stmt 0 view .LVU325
 1080 0036 70BD     		pop	{r4, r5, r6, pc}
 1081              	.LVL48:
ARM GAS  C:\Users\DEVELO~1\AppData\Local\Temp\ccJK6Gr9.s 			page 20


 1082              	.L63:
 1083              		.loc 1 360 5 is_stmt 1 view .LVU326
 1084              		.loc 1 360 12 is_stmt 0 view .LVU327
 1085 0038 2046     		mov	r0, r4
 1086 003a FFF7FEFF 		bl	spi_lld_stop_nicely
 1087              	.LVL49:
 1088              		.loc 1 363 5 is_stmt 1 view .LVU328
 1089 003e 7368     		ldr	r3, [r6, #4]
 1090 0040 6BB3     		cbz	r3, .L67
 1091              		.loc 1 363 5 discriminator 1 view .LVU329
 1092 0042 0422     		movs	r2, #4
 1093 0044 2046     		mov	r0, r4
 1094 0046 2270     		strb	r2, [r4]
 1095              		.loc 1 363 5 discriminator 1 view .LVU330
 1096 0048 9847     		blx	r3
 1097              	.LVL50:
 1098              		.loc 1 363 5 discriminator 1 view .LVU331
 1099 004a 2378     		ldrb	r3, [r4]	@ zero_extendqisi2
 1100 004c 042B     		cmp	r3, #4
 1101 004e 26D0     		beq	.L67
 1102              	.L68:
 1103              		.loc 1 363 5 discriminator 4 view .LVU332
 1104              	.LBB367:
 1105              	.LBI367:
 1106              		.loc 3 595 20 discriminator 4 view .LVU333
 1107              		.loc 3 597 3 discriminator 4 view .LVU334
 1108              	.LBB368:
 1109              	.LBI368:
 1110              		.loc 4 416 20 discriminator 4 view .LVU335
 1111              		.loc 4 418 3 discriminator 4 view .LVU336
 1112              	.LBB369:
 1113              	.LBI369:
 1114              		.loc 5 879 27 discriminator 4 view .LVU337
 1115              		.loc 5 881 3 discriminator 4 view .LVU338
 1116              	.LBB370:
 1117              	.LBI370:
 1118              		.loc 5 840 27 discriminator 4 view .LVU339
 1119              		.loc 5 848 3 discriminator 4 view .LVU340
 1120              	.LVL51:
 1121              	.LBB371:
 1122              	.LBI371:
 1123              		.loc 6 491 27 discriminator 4 view .LVU341
 1124              	.LBB372:
 1125              		.loc 6 493 3 discriminator 4 view .LVU342
 1126 0050 3023     		movs	r3, #48
 1127              		.syntax unified
 1128              	@ 493 "../../../os/common/ext/ARM/CMSIS/Core/Include/cmsis_gcc.h" 1
 1129 0052 83F31188 		MSR basepri, r3
 1130              	@ 0 "" 2
 1131              	.LVL52:
 1132              		.loc 6 493 3 is_stmt 0 discriminator 4 view .LVU343
 1133              		.thumb
 1134              		.syntax unified
 1135              	.LBE372:
 1136              	.LBE371:
 1137              	.LBE370:
 1138              	.LBE369:
ARM GAS  C:\Users\DEVELO~1\AppData\Local\Temp\ccJK6Gr9.s 			page 21


 1139              		.loc 4 419 35 is_stmt 1 discriminator 4 view .LVU344
 1140              		.loc 4 420 30 discriminator 4 view .LVU345
 1141              	.LBE368:
 1142              	.LBE367:
 1143              		.loc 1 363 5 discriminator 4 view .LVU346
 1144              	.LBB373:
 1145              	.LBI373:
 1146              		.loc 3 837 20 discriminator 4 view .LVU347
 1147              	.LBB374:
 1148              		.loc 3 839 3 discriminator 4 view .LVU348
 1149 0056 0021     		movs	r1, #0
 1150 0058 04F10800 		add	r0, r4, #8
 1151              	.LVL53:
 1152              		.loc 3 839 3 is_stmt 0 discriminator 4 view .LVU349
 1153 005c FFF7FEFF 		bl	chThdResumeI
 1154              	.LVL54:
 1155              		.loc 3 839 3 discriminator 4 view .LVU350
 1156              	.LBE374:
 1157              	.LBE373:
 1158              		.loc 1 363 5 is_stmt 1 discriminator 4 view .LVU351
 1159              	.LBB375:
 1160              	.LBI375:
 1161              		.loc 3 606 20 discriminator 4 view .LVU352
 1162              	.LBB376:
 1163              		.loc 3 608 3 discriminator 4 view .LVU353
 1164              	.LBB377:
 1165              	.LBI377:
 1166              		.loc 4 438 20 discriminator 4 view .LVU354
 1167              		.loc 4 440 32 discriminator 4 view .LVU355
 1168              		.loc 4 441 34 discriminator 4 view .LVU356
 1169              		.loc 4 442 3 discriminator 4 view .LVU357
 1170              	.LBB378:
 1171              	.LBI378:
 1172              		.loc 5 890 27 discriminator 4 view .LVU358
 1173              		.loc 5 892 3 discriminator 4 view .LVU359
 1174              	.LBB379:
 1175              	.LBI379:
 1176              		.loc 5 864 27 discriminator 4 view .LVU360
 1177              		.loc 5 867 3 discriminator 4 view .LVU361
 1178              	.LBB380:
 1179              	.LBI380:
 1180              		.loc 6 491 27 discriminator 4 view .LVU362
 1181              	.LBB381:
 1182              		.loc 6 493 3 discriminator 4 view .LVU363
 1183 0060 0023     		movs	r3, #0
 1184              		.syntax unified
 1185              	@ 493 "../../../os/common/ext/ARM/CMSIS/Core/Include/cmsis_gcc.h" 1
 1186 0062 83F31188 		MSR basepri, r3
 1187              	@ 0 "" 2
 1188              	.LVL55:
 1189              		.loc 6 493 3 is_stmt 0 discriminator 4 view .LVU364
 1190              		.thumb
 1191              		.syntax unified
 1192              	.LBE381:
 1193              	.LBE380:
 1194              	.LBE379:
 1195              	.LBE378:
ARM GAS  C:\Users\DEVELO~1\AppData\Local\Temp\ccJK6Gr9.s 			page 22


 1196              	.LBE377:
 1197              	.LBE376:
 1198              	.LBE375:
 1199              		.loc 1 363 5 is_stmt 1 discriminator 4 view .LVU365
 1200              		.loc 1 363 34 discriminator 4 view .LVU366
 1201              		.loc 1 365 1 is_stmt 0 discriminator 4 view .LVU367
 1202 0066 70BD     		pop	{r4, r5, r6, pc}
 1203              	.LVL56:
 1204              	.L91:
 1205              		.loc 1 338 5 is_stmt 1 view .LVU368
 1206              	.LBB382:
 1207              	.LBI382:
 1208              		.loc 3 542 20 view .LVU369
 1209              	.LBB383:
 1210              		.loc 3 544 3 view .LVU370
 1211 0068 0E48     		ldr	r0, .L93
 1212              	.LVL57:
 1213              		.loc 3 544 3 is_stmt 0 view .LVU371
 1214 006a FFF7FEFF 		bl	chSysHalt
 1215              	.LVL58:
 1216              		.loc 3 544 3 view .LVU372
 1217              	.LBE383:
 1218              	.LBE382:
 1219              		.loc 1 342 5 is_stmt 1 view .LVU373
 1220 006e 2046     		mov	r0, r4
 1221 0070 FFF7FEFF 		bl	spi_lld_stop_abort
 1222              	.LVL59:
 1223              		.loc 1 345 5 view .LVU374
 1224 0074 6368     		ldr	r3, [r4, #4]
 1225 0076 9B68     		ldr	r3, [r3, #8]
 1226 0078 0BB1     		cbz	r3, .L62
 1227              		.loc 1 345 5 discriminator 1 view .LVU375
 1228 007a 2046     		mov	r0, r4
 1229 007c 9847     		blx	r3
 1230              	.LVL60:
 1231              	.L62:
 1232              		.loc 1 345 5 discriminator 3 view .LVU376
 1233              	.LBB384:
 1234              	.LBI384:
 1235              		.loc 3 595 20 discriminator 3 view .LVU377
 1236              		.loc 3 597 3 discriminator 3 view .LVU378
 1237              	.LBB385:
 1238              	.LBI385:
 1239              		.loc 4 416 20 discriminator 3 view .LVU379
 1240              		.loc 4 418 3 discriminator 3 view .LVU380
 1241              	.LBB386:
 1242              	.LBI386:
 1243              		.loc 5 879 27 discriminator 3 view .LVU381
 1244              		.loc 5 881 3 discriminator 3 view .LVU382
 1245              	.LBB387:
 1246              	.LBI387:
 1247              		.loc 5 840 27 discriminator 3 view .LVU383
 1248              		.loc 5 848 3 discriminator 3 view .LVU384
 1249              	.LBB388:
 1250              	.LBI388:
 1251              		.loc 6 491 27 discriminator 3 view .LVU385
 1252              	.LBB389:
ARM GAS  C:\Users\DEVELO~1\AppData\Local\Temp\ccJK6Gr9.s 			page 23


 1253              		.loc 6 493 3 discriminator 3 view .LVU386
 1254 007e 3023     		movs	r3, #48
 1255              		.syntax unified
 1256              	@ 493 "../../../os/common/ext/ARM/CMSIS/Core/Include/cmsis_gcc.h" 1
 1257 0080 83F31188 		MSR basepri, r3
 1258              	@ 0 "" 2
 1259              	.LVL61:
 1260              		.loc 6 493 3 is_stmt 0 discriminator 3 view .LVU387
 1261              		.thumb
 1262              		.syntax unified
 1263              	.LBE389:
 1264              	.LBE388:
 1265              	.LBE387:
 1266              	.LBE386:
 1267              		.loc 4 419 35 is_stmt 1 discriminator 3 view .LVU388
 1268              		.loc 4 420 30 discriminator 3 view .LVU389
 1269              	.LBE385:
 1270              	.LBE384:
 1271              		.loc 1 345 5 discriminator 3 view .LVU390
 1272              	.LBB390:
 1273              	.LBI390:
 1274              		.loc 3 837 20 discriminator 3 view .LVU391
 1275              	.LBB391:
 1276              		.loc 3 839 3 discriminator 3 view .LVU392
 1277 0084 6FF01201 		mvn	r1, #18
 1278 0088 04F10800 		add	r0, r4, #8
 1279              	.LVL62:
 1280              		.loc 3 839 3 is_stmt 0 discriminator 3 view .LVU393
 1281 008c FFF7FEFF 		bl	chThdResumeI
 1282              	.LVL63:
 1283              		.loc 3 839 3 discriminator 3 view .LVU394
 1284              	.LBE391:
 1285              	.LBE390:
 1286              		.loc 1 345 5 is_stmt 1 discriminator 3 view .LVU395
 1287              	.LBB392:
 1288              	.LBI392:
 1289              		.loc 3 606 20 discriminator 3 view .LVU396
 1290              	.LBB393:
 1291              		.loc 3 608 3 discriminator 3 view .LVU397
 1292              	.LBB394:
 1293              	.LBI394:
 1294              		.loc 4 438 20 discriminator 3 view .LVU398
 1295              		.loc 4 440 32 discriminator 3 view .LVU399
 1296              		.loc 4 441 34 discriminator 3 view .LVU400
 1297              		.loc 4 442 3 discriminator 3 view .LVU401
 1298              	.LBB395:
 1299              	.LBI395:
 1300              		.loc 5 890 27 discriminator 3 view .LVU402
 1301              		.loc 5 892 3 discriminator 3 view .LVU403
 1302              	.LBB396:
 1303              	.LBI396:
 1304              		.loc 5 864 27 discriminator 3 view .LVU404
 1305              		.loc 5 867 3 discriminator 3 view .LVU405
 1306              	.LBB397:
 1307              	.LBI397:
 1308              		.loc 6 491 27 discriminator 3 view .LVU406
 1309              	.LBB398:
ARM GAS  C:\Users\DEVELO~1\AppData\Local\Temp\ccJK6Gr9.s 			page 24


 1310              		.loc 6 493 3 discriminator 3 view .LVU407
 1311 0090 0023     		movs	r3, #0
 1312              		.syntax unified
 1313              	@ 493 "../../../os/common/ext/ARM/CMSIS/Core/Include/cmsis_gcc.h" 1
 1314 0092 83F31188 		MSR basepri, r3
 1315              	@ 0 "" 2
 1316              	.LVL64:
 1317              		.loc 6 493 3 is_stmt 0 discriminator 3 view .LVU408
 1318              		.thumb
 1319              		.syntax unified
 1320              	.LBE398:
 1321              	.LBE397:
 1322              	.LBE396:
 1323              	.LBE395:
 1324              	.LBE394:
 1325              		.loc 3 609 1 discriminator 3 view .LVU409
 1326 0096 B9E7     		b	.L61
 1327              	.L92:
 1328              		.loc 3 609 1 discriminator 3 view .LVU410
 1329              	.LBE393:
 1330              	.LBE392:
 1331              		.loc 1 355 7 is_stmt 1 discriminator 3 view .LVU411
 1332 0098 0323     		movs	r3, #3
 1333 009a 2370     		strb	r3, [r4]
 1334              		.loc 1 365 1 is_stmt 0 discriminator 3 view .LVU412
 1335 009c 70BD     		pop	{r4, r5, r6, pc}
 1336              	.LVL65:
 1337              	.L67:
 1338              		.loc 1 363 5 is_stmt 1 discriminator 3 view .LVU413
 1339 009e 0223     		movs	r3, #2
 1340 00a0 2370     		strb	r3, [r4]
 1341 00a2 D5E7     		b	.L68
 1342              	.L94:
 1343              		.align	2
 1344              	.L93:
 1345 00a4 00000000 		.word	.LC0
 1346              		.cfi_endproc
 1347              	.LFE455:
 1348              		.size	spi_lld_serve_dma_rx_interrupt, .-spi_lld_serve_dma_rx_interrupt
 1349              		.section	.text.spi_lld_serve_bdma_rx_interrupt,"ax",%progbits
 1350              		.align	1
 1351              		.p2align 2,,3
 1352              		.syntax unified
 1353              		.thumb
 1354              		.thumb_func
 1355              		.type	spi_lld_serve_bdma_rx_interrupt, %function
 1356              	spi_lld_serve_bdma_rx_interrupt:
 1357              	.LVL66:
 1358              	.LFB453:
 1359              		.loc 1 269 78 view -0
 1360              		.cfi_startproc
 1361              		@ args = 0, pretend = 0, frame = 0
 1362              		@ frame_needed = 0, uses_anonymous_args = 0
 1363              		.loc 1 272 3 view .LVU415
 1364              		.loc 1 269 78 is_stmt 0 view .LVU416
 1365 0000 70B5     		push	{r4, r5, r6, lr}
 1366              		.cfi_def_cfa_offset 16
ARM GAS  C:\Users\DEVELO~1\AppData\Local\Temp\ccJK6Gr9.s 			page 25


 1367              		.cfi_offset 4, -16
 1368              		.cfi_offset 5, -12
 1369              		.cfi_offset 6, -8
 1370              		.cfi_offset 14, -4
 1371              		.loc 1 269 78 view .LVU417
 1372 0002 0D46     		mov	r5, r1
 1373              		.loc 1 272 6 view .LVU418
 1374 0004 0907     		lsls	r1, r1, #28
 1375              	.LVL67:
 1376              		.loc 1 269 78 view .LVU419
 1377 0006 0446     		mov	r4, r0
 1378              		.loc 1 272 6 view .LVU420
 1379 0008 2DD4     		bmi	.L126
 1380              	.LVL68:
 1381              	.L96:
 1382              		.loc 1 281 5 is_stmt 1 discriminator 4 view .LVU421
 1383              		.loc 1 281 51 discriminator 4 view .LVU422
 1384              		.loc 1 284 3 discriminator 4 view .LVU423
 1385              		.loc 1 284 11 is_stmt 0 discriminator 4 view .LVU424
 1386 000a 6668     		ldr	r6, [r4, #4]
 1387              		.loc 1 284 6 discriminator 4 view .LVU425
 1388 000c 3378     		ldrb	r3, [r6]	@ zero_extendqisi2
 1389 000e 93B1     		cbz	r3, .L98
 1390              		.loc 1 285 5 is_stmt 1 view .LVU426
 1391              		.loc 1 285 8 is_stmt 0 view .LVU427
 1392 0010 6A07     		lsls	r2, r5, #29
 1393 0012 03D5     		bpl	.L99
 1394              		.loc 1 287 7 is_stmt 1 view .LVU428
 1395 0014 7368     		ldr	r3, [r6, #4]
 1396 0016 6BB1     		cbz	r3, .L95
 1397              		.loc 1 287 7 discriminator 1 view .LVU429
 1398 0018 2046     		mov	r0, r4
 1399 001a 9847     		blx	r3
 1400              	.LVL69:
 1401              	.L99:
 1402              		.loc 1 287 32 discriminator 3 view .LVU430
 1403              		.loc 1 289 5 discriminator 3 view .LVU431
 1404              		.loc 1 289 8 is_stmt 0 discriminator 3 view .LVU432
 1405 001c AB07     		lsls	r3, r5, #30
 1406 001e 09D5     		bpl	.L95
 1407              		.loc 1 291 7 is_stmt 1 view .LVU433
 1408 0020 6368     		ldr	r3, [r4, #4]
 1409 0022 5B68     		ldr	r3, [r3, #4]
 1410 0024 33B1     		cbz	r3, .L95
 1411              		.loc 1 291 7 discriminator 1 view .LVU434
 1412 0026 0422     		movs	r2, #4
 1413 0028 2046     		mov	r0, r4
 1414 002a 2270     		strb	r2, [r4]
 1415              		.loc 1 291 7 discriminator 1 view .LVU435
 1416 002c 9847     		blx	r3
 1417              	.LVL70:
 1418              		.loc 1 291 7 discriminator 1 view .LVU436
 1419 002e 2378     		ldrb	r3, [r4]	@ zero_extendqisi2
 1420 0030 042B     		cmp	r3, #4
 1421 0032 30D0     		beq	.L127
 1422              	.L95:
 1423              		.loc 1 301 1 is_stmt 0 view .LVU437
ARM GAS  C:\Users\DEVELO~1\AppData\Local\Temp\ccJK6Gr9.s 			page 26


 1424 0034 70BD     		pop	{r4, r5, r6, pc}
 1425              	.LVL71:
 1426              	.L98:
 1427              		.loc 1 296 5 is_stmt 1 view .LVU438
 1428              		.loc 1 296 12 is_stmt 0 view .LVU439
 1429 0036 2046     		mov	r0, r4
 1430 0038 FFF7FEFF 		bl	spi_lld_stop_nicely
 1431              	.LVL72:
 1432              		.loc 1 299 5 is_stmt 1 view .LVU440
 1433 003c 7368     		ldr	r3, [r6, #4]
 1434 003e 6BB3     		cbz	r3, .L102
 1435              		.loc 1 299 5 discriminator 1 view .LVU441
 1436 0040 0422     		movs	r2, #4
 1437 0042 2046     		mov	r0, r4
 1438 0044 2270     		strb	r2, [r4]
 1439              		.loc 1 299 5 discriminator 1 view .LVU442
 1440 0046 9847     		blx	r3
 1441              	.LVL73:
 1442              		.loc 1 299 5 discriminator 1 view .LVU443
 1443 0048 2378     		ldrb	r3, [r4]	@ zero_extendqisi2
 1444 004a 042B     		cmp	r3, #4
 1445 004c 26D0     		beq	.L102
 1446              	.L103:
 1447              		.loc 1 299 5 discriminator 4 view .LVU444
 1448              	.LBB399:
 1449              	.LBI399:
 1450              		.loc 3 595 20 discriminator 4 view .LVU445
 1451              		.loc 3 597 3 discriminator 4 view .LVU446
 1452              	.LBB400:
 1453              	.LBI400:
 1454              		.loc 4 416 20 discriminator 4 view .LVU447
 1455              		.loc 4 418 3 discriminator 4 view .LVU448
 1456              	.LBB401:
 1457              	.LBI401:
 1458              		.loc 5 879 27 discriminator 4 view .LVU449
 1459              		.loc 5 881 3 discriminator 4 view .LVU450
 1460              	.LBB402:
 1461              	.LBI402:
 1462              		.loc 5 840 27 discriminator 4 view .LVU451
 1463              		.loc 5 848 3 discriminator 4 view .LVU452
 1464              	.LVL74:
 1465              	.LBB403:
 1466              	.LBI403:
 1467              		.loc 6 491 27 discriminator 4 view .LVU453
 1468              	.LBB404:
 1469              		.loc 6 493 3 discriminator 4 view .LVU454
 1470 004e 3023     		movs	r3, #48
 1471              		.syntax unified
 1472              	@ 493 "../../../os/common/ext/ARM/CMSIS/Core/Include/cmsis_gcc.h" 1
 1473 0050 83F31188 		MSR basepri, r3
 1474              	@ 0 "" 2
 1475              	.LVL75:
 1476              		.loc 6 493 3 is_stmt 0 discriminator 4 view .LVU455
 1477              		.thumb
 1478              		.syntax unified
 1479              	.LBE404:
 1480              	.LBE403:
ARM GAS  C:\Users\DEVELO~1\AppData\Local\Temp\ccJK6Gr9.s 			page 27


 1481              	.LBE402:
 1482              	.LBE401:
 1483              		.loc 4 419 35 is_stmt 1 discriminator 4 view .LVU456
 1484              		.loc 4 420 30 discriminator 4 view .LVU457
 1485              	.LBE400:
 1486              	.LBE399:
 1487              		.loc 1 299 5 discriminator 4 view .LVU458
 1488              	.LBB405:
 1489              	.LBI405:
 1490              		.loc 3 837 20 discriminator 4 view .LVU459
 1491              	.LBB406:
 1492              		.loc 3 839 3 discriminator 4 view .LVU460
 1493 0054 0021     		movs	r1, #0
 1494 0056 04F10800 		add	r0, r4, #8
 1495              	.LVL76:
 1496              		.loc 3 839 3 is_stmt 0 discriminator 4 view .LVU461
 1497 005a FFF7FEFF 		bl	chThdResumeI
 1498              	.LVL77:
 1499              		.loc 3 839 3 discriminator 4 view .LVU462
 1500              	.LBE406:
 1501              	.LBE405:
 1502              		.loc 1 299 5 is_stmt 1 discriminator 4 view .LVU463
 1503              	.LBB407:
 1504              	.LBI407:
 1505              		.loc 3 606 20 discriminator 4 view .LVU464
 1506              	.LBB408:
 1507              		.loc 3 608 3 discriminator 4 view .LVU465
 1508              	.LBB409:
 1509              	.LBI409:
 1510              		.loc 4 438 20 discriminator 4 view .LVU466
 1511              		.loc 4 440 32 discriminator 4 view .LVU467
 1512              		.loc 4 441 34 discriminator 4 view .LVU468
 1513              		.loc 4 442 3 discriminator 4 view .LVU469
 1514              	.LBB410:
 1515              	.LBI410:
 1516              		.loc 5 890 27 discriminator 4 view .LVU470
 1517              		.loc 5 892 3 discriminator 4 view .LVU471
 1518              	.LBB411:
 1519              	.LBI411:
 1520              		.loc 5 864 27 discriminator 4 view .LVU472
 1521              		.loc 5 867 3 discriminator 4 view .LVU473
 1522              	.LBB412:
 1523              	.LBI412:
 1524              		.loc 6 491 27 discriminator 4 view .LVU474
 1525              	.LBB413:
 1526              		.loc 6 493 3 discriminator 4 view .LVU475
 1527 005e 0023     		movs	r3, #0
 1528              		.syntax unified
 1529              	@ 493 "../../../os/common/ext/ARM/CMSIS/Core/Include/cmsis_gcc.h" 1
 1530 0060 83F31188 		MSR basepri, r3
 1531              	@ 0 "" 2
 1532              	.LVL78:
 1533              		.loc 6 493 3 is_stmt 0 discriminator 4 view .LVU476
 1534              		.thumb
 1535              		.syntax unified
 1536              	.LBE413:
 1537              	.LBE412:
ARM GAS  C:\Users\DEVELO~1\AppData\Local\Temp\ccJK6Gr9.s 			page 28


 1538              	.LBE411:
 1539              	.LBE410:
 1540              	.LBE409:
 1541              	.LBE408:
 1542              	.LBE407:
 1543              		.loc 1 299 5 is_stmt 1 discriminator 4 view .LVU477
 1544              		.loc 1 299 34 discriminator 4 view .LVU478
 1545              		.loc 1 301 1 is_stmt 0 discriminator 4 view .LVU479
 1546 0064 70BD     		pop	{r4, r5, r6, pc}
 1547              	.LVL79:
 1548              	.L126:
 1549              		.loc 1 274 5 is_stmt 1 view .LVU480
 1550              	.LBB414:
 1551              	.LBI414:
 1552              		.loc 3 542 20 view .LVU481
 1553              	.LBB415:
 1554              		.loc 3 544 3 view .LVU482
 1555 0066 0F48     		ldr	r0, .L128
 1556              	.LVL80:
 1557              		.loc 3 544 3 is_stmt 0 view .LVU483
 1558 0068 FFF7FEFF 		bl	chSysHalt
 1559              	.LVL81:
 1560              		.loc 3 544 3 view .LVU484
 1561              	.LBE415:
 1562              	.LBE414:
 1563              		.loc 1 278 5 is_stmt 1 view .LVU485
 1564 006c 2046     		mov	r0, r4
 1565 006e FFF7FEFF 		bl	spi_lld_stop_abort
 1566              	.LVL82:
 1567              		.loc 1 281 5 view .LVU486
 1568 0072 6368     		ldr	r3, [r4, #4]
 1569 0074 9B68     		ldr	r3, [r3, #8]
 1570 0076 0BB1     		cbz	r3, .L97
 1571              		.loc 1 281 5 discriminator 1 view .LVU487
 1572 0078 2046     		mov	r0, r4
 1573 007a 9847     		blx	r3
 1574              	.LVL83:
 1575              	.L97:
 1576              		.loc 1 281 5 discriminator 3 view .LVU488
 1577              	.LBB416:
 1578              	.LBI416:
 1579              		.loc 3 595 20 discriminator 3 view .LVU489
 1580              		.loc 3 597 3 discriminator 3 view .LVU490
 1581              	.LBB417:
 1582              	.LBI417:
 1583              		.loc 4 416 20 discriminator 3 view .LVU491
 1584              		.loc 4 418 3 discriminator 3 view .LVU492
 1585              	.LBB418:
 1586              	.LBI418:
 1587              		.loc 5 879 27 discriminator 3 view .LVU493
 1588              		.loc 5 881 3 discriminator 3 view .LVU494
 1589              	.LBB419:
 1590              	.LBI419:
 1591              		.loc 5 840 27 discriminator 3 view .LVU495
 1592              		.loc 5 848 3 discriminator 3 view .LVU496
 1593              	.LBB420:
 1594              	.LBI420:
ARM GAS  C:\Users\DEVELO~1\AppData\Local\Temp\ccJK6Gr9.s 			page 29


 1595              		.loc 6 491 27 discriminator 3 view .LVU497
 1596              	.LBB421:
 1597              		.loc 6 493 3 discriminator 3 view .LVU498
 1598 007c 3023     		movs	r3, #48
 1599              		.syntax unified
 1600              	@ 493 "../../../os/common/ext/ARM/CMSIS/Core/Include/cmsis_gcc.h" 1
 1601 007e 83F31188 		MSR basepri, r3
 1602              	@ 0 "" 2
 1603              	.LVL84:
 1604              		.loc 6 493 3 is_stmt 0 discriminator 3 view .LVU499
 1605              		.thumb
 1606              		.syntax unified
 1607              	.LBE421:
 1608              	.LBE420:
 1609              	.LBE419:
 1610              	.LBE418:
 1611              		.loc 4 419 35 is_stmt 1 discriminator 3 view .LVU500
 1612              		.loc 4 420 30 discriminator 3 view .LVU501
 1613              	.LBE417:
 1614              	.LBE416:
 1615              		.loc 1 281 5 discriminator 3 view .LVU502
 1616              	.LBB422:
 1617              	.LBI422:
 1618              		.loc 3 837 20 discriminator 3 view .LVU503
 1619              	.LBB423:
 1620              		.loc 3 839 3 discriminator 3 view .LVU504
 1621 0082 6FF01201 		mvn	r1, #18
 1622 0086 04F10800 		add	r0, r4, #8
 1623              	.LVL85:
 1624              		.loc 3 839 3 is_stmt 0 discriminator 3 view .LVU505
 1625 008a FFF7FEFF 		bl	chThdResumeI
 1626              	.LVL86:
 1627              		.loc 3 839 3 discriminator 3 view .LVU506
 1628              	.LBE423:
 1629              	.LBE422:
 1630              		.loc 1 281 5 is_stmt 1 discriminator 3 view .LVU507
 1631              	.LBB424:
 1632              	.LBI424:
 1633              		.loc 3 606 20 discriminator 3 view .LVU508
 1634              	.LBB425:
 1635              		.loc 3 608 3 discriminator 3 view .LVU509
 1636              	.LBB426:
 1637              	.LBI426:
 1638              		.loc 4 438 20 discriminator 3 view .LVU510
 1639              		.loc 4 440 32 discriminator 3 view .LVU511
 1640              		.loc 4 441 34 discriminator 3 view .LVU512
 1641              		.loc 4 442 3 discriminator 3 view .LVU513
 1642              	.LBB427:
 1643              	.LBI427:
 1644              		.loc 5 890 27 discriminator 3 view .LVU514
 1645              		.loc 5 892 3 discriminator 3 view .LVU515
 1646              	.LBB428:
 1647              	.LBI428:
 1648              		.loc 5 864 27 discriminator 3 view .LVU516
 1649              		.loc 5 867 3 discriminator 3 view .LVU517
 1650              	.LBB429:
 1651              	.LBI429:
ARM GAS  C:\Users\DEVELO~1\AppData\Local\Temp\ccJK6Gr9.s 			page 30


 1652              		.loc 6 491 27 discriminator 3 view .LVU518
 1653              	.LBB430:
 1654              		.loc 6 493 3 discriminator 3 view .LVU519
 1655 008e 0023     		movs	r3, #0
 1656              		.syntax unified
 1657              	@ 493 "../../../os/common/ext/ARM/CMSIS/Core/Include/cmsis_gcc.h" 1
 1658 0090 83F31188 		MSR basepri, r3
 1659              	@ 0 "" 2
 1660              	.LVL87:
 1661              		.loc 6 493 3 is_stmt 0 discriminator 3 view .LVU520
 1662              		.thumb
 1663              		.syntax unified
 1664              	.LBE430:
 1665              	.LBE429:
 1666              	.LBE428:
 1667              	.LBE427:
 1668              	.LBE426:
 1669              		.loc 3 609 1 discriminator 3 view .LVU521
 1670 0094 B9E7     		b	.L96
 1671              	.L127:
 1672              		.loc 3 609 1 discriminator 3 view .LVU522
 1673              	.LBE425:
 1674              	.LBE424:
 1675              		.loc 1 291 7 is_stmt 1 discriminator 3 view .LVU523
 1676 0096 0323     		movs	r3, #3
 1677 0098 2370     		strb	r3, [r4]
 1678              		.loc 1 301 1 is_stmt 0 discriminator 3 view .LVU524
 1679 009a 70BD     		pop	{r4, r5, r6, pc}
 1680              	.LVL88:
 1681              	.L102:
 1682              		.loc 1 299 5 is_stmt 1 discriminator 3 view .LVU525
 1683 009c 0223     		movs	r3, #2
 1684 009e 2370     		strb	r3, [r4]
 1685 00a0 D5E7     		b	.L103
 1686              	.L129:
 1687 00a2 00BF     		.align	2
 1688              	.L128:
 1689 00a4 00000000 		.word	.LC0
 1690              		.cfi_endproc
 1691              	.LFE453:
 1692              		.size	spi_lld_serve_bdma_rx_interrupt, .-spi_lld_serve_bdma_rx_interrupt
 1693              		.section	.text.VectorCC,"ax",%progbits
 1694              		.align	1
 1695              		.p2align 2,,3
 1696              		.global	VectorCC
 1697              		.syntax unified
 1698              		.thumb
 1699              		.thumb_func
 1700              		.type	VectorCC, %function
 1701              	VectorCC:
 1702              	.LFB460:
 1703              		.loc 1 489 38 view -0
 1704              		.cfi_startproc
 1705              		@ args = 0, pretend = 0, frame = 0
 1706              		@ frame_needed = 0, uses_anonymous_args = 0
 1707              		.loc 1 491 3 view .LVU527
 1708              		.loc 1 491 3 view .LVU528
ARM GAS  C:\Users\DEVELO~1\AppData\Local\Temp\ccJK6Gr9.s 			page 31


 1709              		.loc 1 491 3 view .LVU529
 1710              		.loc 1 491 3 view .LVU530
 1711              		.loc 1 491 3 view .LVU531
 1712              		.loc 1 489 38 is_stmt 0 view .LVU532
 1713 0000 10B5     		push	{r4, lr}
 1714              		.cfi_def_cfa_offset 8
 1715              		.cfi_offset 4, -8
 1716              		.cfi_offset 14, -4
 1717              	.LBB450:
 1718              	.LBB451:
 1719              		.loc 1 398 12 view .LVU533
 1720 0002 164C     		ldr	r4, .L141
 1721              	.LBE451:
 1722              	.LBE450:
 1723              		.loc 1 491 3 view .LVU534
 1724 0004 1648     		ldr	r0, .L141+4
 1725 0006 FFF7FEFF 		bl	__trace_isr_enter
 1726              	.LVL89:
 1727              		.loc 1 491 22 is_stmt 1 view .LVU535
 1728              		.loc 1 493 3 view .LVU536
 1729              	.LBB470:
 1730              	.LBI450:
 1731              		.loc 1 395 13 view .LVU537
 1732              	.LBB468:
 1733              		.loc 1 396 3 view .LVU538
 1734              		.loc 1 398 3 view .LVU539
 1735              		.loc 1 398 12 is_stmt 0 view .LVU540
 1736 000a E269     		ldr	r2, [r4, #28]
 1737              		.loc 1 398 17 view .LVU541
 1738 000c 5369     		ldr	r3, [r2, #20]
 1739              		.loc 1 398 33 view .LVU542
 1740 000e 1169     		ldr	r1, [r2, #16]
 1741              		.loc 1 398 6 view .LVU543
 1742 0010 0B40     		ands	r3, r3, r1
 1743              	.LVL90:
 1744              		.loc 1 399 3 is_stmt 1 view .LVU544
 1745              		.loc 1 399 19 is_stmt 0 view .LVU545
 1746 0012 9361     		str	r3, [r2, #24]
 1747              		.loc 1 401 3 is_stmt 1 view .LVU546
 1748              		.loc 1 401 6 is_stmt 0 view .LVU547
 1749 0014 5B06     		lsls	r3, r3, #25
 1750              	.LVL91:
 1751              		.loc 1 401 6 view .LVU548
 1752 0016 06D4     		bmi	.L140
 1753              		.loc 1 407 5 is_stmt 1 view .LVU549
 1754              		.loc 1 407 51 view .LVU550
 1755              	.LVL92:
 1756              		.loc 1 407 51 is_stmt 0 view .LVU551
 1757              	.LBE468:
 1758              	.LBE470:
 1759              		.loc 1 495 3 is_stmt 1 view .LVU552
 1760              		.loc 1 495 3 view .LVU553
 1761 0018 1148     		ldr	r0, .L141+4
 1762 001a FFF7FEFF 		bl	__trace_isr_leave
 1763              	.LVL93:
 1764              		.loc 1 495 3 view .LVU554
 1765              		.loc 1 495 3 view .LVU555
ARM GAS  C:\Users\DEVELO~1\AppData\Local\Temp\ccJK6Gr9.s 			page 32


 1766              		.loc 1 495 3 view .LVU556
 1767              		.loc 1 496 1 is_stmt 0 view .LVU557
 1768 001e BDE81040 		pop	{r4, lr}
 1769              		.cfi_remember_state
 1770              		.cfi_restore 14
 1771              		.cfi_restore 4
 1772              		.cfi_def_cfa_offset 0
 1773              		.loc 1 495 3 view .LVU558
 1774 0022 FFF7FEBF 		b	__port_irq_epilogue
 1775              	.LVL94:
 1776              	.L140:
 1777              		.cfi_restore_state
 1778              	.LBB471:
 1779              	.LBB469:
 1780              	.LBB452:
 1781              	.LBI452:
 1782              		.loc 1 395 13 is_stmt 1 view .LVU559
 1783              	.LBB453:
 1784              		.loc 1 404 5 view .LVU560
 1785 0026 2046     		mov	r0, r4
 1786 0028 FFF7FEFF 		bl	spi_lld_stop_abort
 1787              	.LVL95:
 1788              		.loc 1 407 5 view .LVU561
 1789 002c 6368     		ldr	r3, [r4, #4]
 1790 002e 9B68     		ldr	r3, [r3, #8]
 1791 0030 0BB1     		cbz	r3, .L132
 1792              		.loc 1 407 5 view .LVU562
 1793 0032 2046     		mov	r0, r4
 1794 0034 9847     		blx	r3
 1795              	.LVL96:
 1796              	.L132:
 1797              		.loc 1 407 5 view .LVU563
 1798              	.LBB454:
 1799              	.LBI454:
 1800              		.loc 3 595 20 view .LVU564
 1801              		.loc 3 597 3 view .LVU565
 1802              	.LBB455:
 1803              	.LBI455:
 1804              		.loc 4 416 20 view .LVU566
 1805              		.loc 4 418 3 view .LVU567
 1806              	.LBB456:
 1807              	.LBI456:
 1808              		.loc 5 879 27 view .LVU568
 1809              		.loc 5 881 3 view .LVU569
 1810              	.LBB457:
 1811              	.LBI457:
 1812              		.loc 5 840 27 view .LVU570
 1813              		.loc 5 848 3 view .LVU571
 1814              	.LBB458:
 1815              	.LBI458:
 1816              		.loc 6 491 27 view .LVU572
 1817              	.LBB459:
 1818              		.loc 6 493 3 view .LVU573
 1819 0036 3023     		movs	r3, #48
 1820              		.syntax unified
 1821              	@ 493 "../../../os/common/ext/ARM/CMSIS/Core/Include/cmsis_gcc.h" 1
 1822 0038 83F31188 		MSR basepri, r3
ARM GAS  C:\Users\DEVELO~1\AppData\Local\Temp\ccJK6Gr9.s 			page 33


 1823              	@ 0 "" 2
 1824              	.LVL97:
 1825              		.loc 6 493 3 is_stmt 0 view .LVU574
 1826              		.thumb
 1827              		.syntax unified
 1828              	.LBE459:
 1829              	.LBE458:
 1830              	.LBE457:
 1831              	.LBE456:
 1832              		.loc 4 419 35 is_stmt 1 view .LVU575
 1833              		.loc 4 420 30 view .LVU576
 1834              	.LBE455:
 1835              	.LBE454:
 1836              		.loc 1 407 5 view .LVU577
 1837              	.LBB460:
 1838              	.LBI460:
 1839              		.loc 3 837 20 view .LVU578
 1840              	.LBB461:
 1841              		.loc 3 839 3 view .LVU579
 1842 003c 6FF01201 		mvn	r1, #18
 1843 0040 0848     		ldr	r0, .L141+8
 1844 0042 FFF7FEFF 		bl	chThdResumeI
 1845              	.LVL98:
 1846              		.loc 3 839 3 is_stmt 0 view .LVU580
 1847              	.LBE461:
 1848              	.LBE460:
 1849              		.loc 1 407 5 is_stmt 1 view .LVU581
 1850              	.LBB462:
 1851              	.LBI462:
 1852              		.loc 3 606 20 view .LVU582
 1853              		.loc 3 608 3 view .LVU583
 1854              	.LBB463:
 1855              	.LBI463:
 1856              		.loc 4 438 20 view .LVU584
 1857              		.loc 4 440 32 view .LVU585
 1858              		.loc 4 441 34 view .LVU586
 1859              		.loc 4 442 3 view .LVU587
 1860              	.LBB464:
 1861              	.LBI464:
 1862              		.loc 5 890 27 view .LVU588
 1863              		.loc 5 892 3 view .LVU589
 1864              	.LBB465:
 1865              	.LBI465:
 1866              		.loc 5 864 27 view .LVU590
 1867              		.loc 5 867 3 view .LVU591
 1868              	.LBB466:
 1869              	.LBI466:
 1870              		.loc 6 491 27 view .LVU592
 1871              	.LBB467:
 1872              		.loc 6 493 3 view .LVU593
 1873 0046 0023     		movs	r3, #0
 1874              		.syntax unified
 1875              	@ 493 "../../../os/common/ext/ARM/CMSIS/Core/Include/cmsis_gcc.h" 1
 1876 0048 83F31188 		MSR basepri, r3
 1877              	@ 0 "" 2
 1878              	.LVL99:
 1879              		.loc 6 493 3 is_stmt 0 view .LVU594
ARM GAS  C:\Users\DEVELO~1\AppData\Local\Temp\ccJK6Gr9.s 			page 34


 1880              		.thumb
 1881              		.syntax unified
 1882              	.LBE467:
 1883              	.LBE466:
 1884              	.LBE465:
 1885              	.LBE464:
 1886              	.LBE463:
 1887              	.LBE462:
 1888              		.loc 1 407 5 is_stmt 1 view .LVU595
 1889              		.loc 1 407 51 view .LVU596
 1890              		.loc 1 407 51 is_stmt 0 view .LVU597
 1891              	.LBE453:
 1892              	.LBE452:
 1893              		.loc 1 407 5 is_stmt 1 view .LVU598
 1894              		.loc 1 407 51 view .LVU599
 1895              		.loc 1 407 51 is_stmt 0 view .LVU600
 1896              	.LBE469:
 1897              	.LBE471:
 1898              		.loc 1 495 3 is_stmt 1 view .LVU601
 1899              		.loc 1 495 3 view .LVU602
 1900 004c 0448     		ldr	r0, .L141+4
 1901 004e FFF7FEFF 		bl	__trace_isr_leave
 1902              	.LVL100:
 1903              		.loc 1 495 3 view .LVU603
 1904              		.loc 1 495 3 view .LVU604
 1905              		.loc 1 495 3 view .LVU605
 1906              		.loc 1 496 1 is_stmt 0 view .LVU606
 1907 0052 BDE81040 		pop	{r4, lr}
 1908              		.cfi_restore 14
 1909              		.cfi_restore 4
 1910              		.cfi_def_cfa_offset 0
 1911              		.loc 1 495 3 view .LVU607
 1912 0056 FFF7FEBF 		b	__port_irq_epilogue
 1913              	.LVL101:
 1914              	.L142:
 1915 005a 00BF     		.align	2
 1916              	.L141:
 1917 005c 00000000 		.word	.LANCHOR0
 1918 0060 00000000 		.word	.LANCHOR6
 1919 0064 08000000 		.word	.LANCHOR0+8
 1920              		.cfi_endproc
 1921              	.LFE460:
 1922              		.size	VectorCC, .-VectorCC
 1923              		.section	.text.VectorD0,"ax",%progbits
 1924              		.align	1
 1925              		.p2align 2,,3
 1926              		.global	VectorD0
 1927              		.syntax unified
 1928              		.thumb
 1929              		.thumb_func
 1930              		.type	VectorD0, %function
 1931              	VectorD0:
 1932              	.LFB461:
 1933              		.loc 1 510 38 is_stmt 1 view -0
 1934              		.cfi_startproc
 1935              		@ args = 0, pretend = 0, frame = 0
 1936              		@ frame_needed = 0, uses_anonymous_args = 0
ARM GAS  C:\Users\DEVELO~1\AppData\Local\Temp\ccJK6Gr9.s 			page 35


 1937              		.loc 1 512 3 view .LVU609
 1938              		.loc 1 512 3 view .LVU610
 1939              		.loc 1 512 3 view .LVU611
 1940              		.loc 1 512 3 view .LVU612
 1941              		.loc 1 512 3 view .LVU613
 1942              		.loc 1 510 38 is_stmt 0 view .LVU614
 1943 0000 10B5     		push	{r4, lr}
 1944              		.cfi_def_cfa_offset 8
 1945              		.cfi_offset 4, -8
 1946              		.cfi_offset 14, -4
 1947              	.LBB491:
 1948              	.LBB492:
 1949              		.loc 1 398 12 view .LVU615
 1950 0002 164C     		ldr	r4, .L154
 1951              	.LBE492:
 1952              	.LBE491:
 1953              		.loc 1 512 3 view .LVU616
 1954 0004 1648     		ldr	r0, .L154+4
 1955 0006 FFF7FEFF 		bl	__trace_isr_enter
 1956              	.LVL102:
 1957              		.loc 1 512 22 is_stmt 1 view .LVU617
 1958              		.loc 1 514 3 view .LVU618
 1959              	.LBB511:
 1960              	.LBI491:
 1961              		.loc 1 395 13 view .LVU619
 1962              	.LBB509:
 1963              		.loc 1 396 3 view .LVU620
 1964              		.loc 1 398 3 view .LVU621
 1965              		.loc 1 398 12 is_stmt 0 view .LVU622
 1966 000a E269     		ldr	r2, [r4, #28]
 1967              		.loc 1 398 17 view .LVU623
 1968 000c 5369     		ldr	r3, [r2, #20]
 1969              		.loc 1 398 33 view .LVU624
 1970 000e 1169     		ldr	r1, [r2, #16]
 1971              		.loc 1 398 6 view .LVU625
 1972 0010 0B40     		ands	r3, r3, r1
 1973              	.LVL103:
 1974              		.loc 1 399 3 is_stmt 1 view .LVU626
 1975              		.loc 1 399 19 is_stmt 0 view .LVU627
 1976 0012 9361     		str	r3, [r2, #24]
 1977              		.loc 1 401 3 is_stmt 1 view .LVU628
 1978              		.loc 1 401 6 is_stmt 0 view .LVU629
 1979 0014 5B06     		lsls	r3, r3, #25
 1980              	.LVL104:
 1981              		.loc 1 401 6 view .LVU630
 1982 0016 06D4     		bmi	.L153
 1983              		.loc 1 407 5 is_stmt 1 view .LVU631
 1984              		.loc 1 407 51 view .LVU632
 1985              	.LVL105:
 1986              		.loc 1 407 51 is_stmt 0 view .LVU633
 1987              	.LBE509:
 1988              	.LBE511:
 1989              		.loc 1 516 3 is_stmt 1 view .LVU634
 1990              		.loc 1 516 3 view .LVU635
 1991 0018 1148     		ldr	r0, .L154+4
 1992 001a FFF7FEFF 		bl	__trace_isr_leave
 1993              	.LVL106:
ARM GAS  C:\Users\DEVELO~1\AppData\Local\Temp\ccJK6Gr9.s 			page 36


 1994              		.loc 1 516 3 view .LVU636
 1995              		.loc 1 516 3 view .LVU637
 1996              		.loc 1 516 3 view .LVU638
 1997              		.loc 1 517 1 is_stmt 0 view .LVU639
 1998 001e BDE81040 		pop	{r4, lr}
 1999              		.cfi_remember_state
 2000              		.cfi_restore 14
 2001              		.cfi_restore 4
 2002              		.cfi_def_cfa_offset 0
 2003              		.loc 1 516 3 view .LVU640
 2004 0022 FFF7FEBF 		b	__port_irq_epilogue
 2005              	.LVL107:
 2006              	.L153:
 2007              		.cfi_restore_state
 2008              	.LBB512:
 2009              	.LBB510:
 2010              	.LBB493:
 2011              	.LBI493:
 2012              		.loc 1 395 13 is_stmt 1 view .LVU641
 2013              	.LBB494:
 2014              		.loc 1 404 5 view .LVU642
 2015 0026 2046     		mov	r0, r4
 2016 0028 FFF7FEFF 		bl	spi_lld_stop_abort
 2017              	.LVL108:
 2018              		.loc 1 407 5 view .LVU643
 2019 002c 6368     		ldr	r3, [r4, #4]
 2020 002e 9B68     		ldr	r3, [r3, #8]
 2021 0030 0BB1     		cbz	r3, .L145
 2022              		.loc 1 407 5 view .LVU644
 2023 0032 2046     		mov	r0, r4
 2024 0034 9847     		blx	r3
 2025              	.LVL109:
 2026              	.L145:
 2027              		.loc 1 407 5 view .LVU645
 2028              	.LBB495:
 2029              	.LBI495:
 2030              		.loc 3 595 20 view .LVU646
 2031              		.loc 3 597 3 view .LVU647
 2032              	.LBB496:
 2033              	.LBI496:
 2034              		.loc 4 416 20 view .LVU648
 2035              		.loc 4 418 3 view .LVU649
 2036              	.LBB497:
 2037              	.LBI497:
 2038              		.loc 5 879 27 view .LVU650
 2039              		.loc 5 881 3 view .LVU651
 2040              	.LBB498:
 2041              	.LBI498:
 2042              		.loc 5 840 27 view .LVU652
 2043              		.loc 5 848 3 view .LVU653
 2044              	.LBB499:
 2045              	.LBI499:
 2046              		.loc 6 491 27 view .LVU654
 2047              	.LBB500:
 2048              		.loc 6 493 3 view .LVU655
 2049 0036 3023     		movs	r3, #48
 2050              		.syntax unified
ARM GAS  C:\Users\DEVELO~1\AppData\Local\Temp\ccJK6Gr9.s 			page 37


 2051              	@ 493 "../../../os/common/ext/ARM/CMSIS/Core/Include/cmsis_gcc.h" 1
 2052 0038 83F31188 		MSR basepri, r3
 2053              	@ 0 "" 2
 2054              	.LVL110:
 2055              		.loc 6 493 3 is_stmt 0 view .LVU656
 2056              		.thumb
 2057              		.syntax unified
 2058              	.LBE500:
 2059              	.LBE499:
 2060              	.LBE498:
 2061              	.LBE497:
 2062              		.loc 4 419 35 is_stmt 1 view .LVU657
 2063              		.loc 4 420 30 view .LVU658
 2064              	.LBE496:
 2065              	.LBE495:
 2066              		.loc 1 407 5 view .LVU659
 2067              	.LBB501:
 2068              	.LBI501:
 2069              		.loc 3 837 20 view .LVU660
 2070              	.LBB502:
 2071              		.loc 3 839 3 view .LVU661
 2072 003c 6FF01201 		mvn	r1, #18
 2073 0040 0848     		ldr	r0, .L154+8
 2074 0042 FFF7FEFF 		bl	chThdResumeI
 2075              	.LVL111:
 2076              		.loc 3 839 3 is_stmt 0 view .LVU662
 2077              	.LBE502:
 2078              	.LBE501:
 2079              		.loc 1 407 5 is_stmt 1 view .LVU663
 2080              	.LBB503:
 2081              	.LBI503:
 2082              		.loc 3 606 20 view .LVU664
 2083              		.loc 3 608 3 view .LVU665
 2084              	.LBB504:
 2085              	.LBI504:
 2086              		.loc 4 438 20 view .LVU666
 2087              		.loc 4 440 32 view .LVU667
 2088              		.loc 4 441 34 view .LVU668
 2089              		.loc 4 442 3 view .LVU669
 2090              	.LBB505:
 2091              	.LBI505:
 2092              		.loc 5 890 27 view .LVU670
 2093              		.loc 5 892 3 view .LVU671
 2094              	.LBB506:
 2095              	.LBI506:
 2096              		.loc 5 864 27 view .LVU672
 2097              		.loc 5 867 3 view .LVU673
 2098              	.LBB507:
 2099              	.LBI507:
 2100              		.loc 6 491 27 view .LVU674
 2101              	.LBB508:
 2102              		.loc 6 493 3 view .LVU675
 2103 0046 0023     		movs	r3, #0
 2104              		.syntax unified
 2105              	@ 493 "../../../os/common/ext/ARM/CMSIS/Core/Include/cmsis_gcc.h" 1
 2106 0048 83F31188 		MSR basepri, r3
 2107              	@ 0 "" 2
ARM GAS  C:\Users\DEVELO~1\AppData\Local\Temp\ccJK6Gr9.s 			page 38


 2108              	.LVL112:
 2109              		.loc 6 493 3 is_stmt 0 view .LVU676
 2110              		.thumb
 2111              		.syntax unified
 2112              	.LBE508:
 2113              	.LBE507:
 2114              	.LBE506:
 2115              	.LBE505:
 2116              	.LBE504:
 2117              	.LBE503:
 2118              		.loc 1 407 5 is_stmt 1 view .LVU677
 2119              		.loc 1 407 51 view .LVU678
 2120              		.loc 1 407 51 is_stmt 0 view .LVU679
 2121              	.LBE494:
 2122              	.LBE493:
 2123              		.loc 1 407 5 is_stmt 1 view .LVU680
 2124              		.loc 1 407 51 view .LVU681
 2125              		.loc 1 407 51 is_stmt 0 view .LVU682
 2126              	.LBE510:
 2127              	.LBE512:
 2128              		.loc 1 516 3 is_stmt 1 view .LVU683
 2129              		.loc 1 516 3 view .LVU684
 2130 004c 0448     		ldr	r0, .L154+4
 2131 004e FFF7FEFF 		bl	__trace_isr_leave
 2132              	.LVL113:
 2133              		.loc 1 516 3 view .LVU685
 2134              		.loc 1 516 3 view .LVU686
 2135              		.loc 1 516 3 view .LVU687
 2136              		.loc 1 517 1 is_stmt 0 view .LVU688
 2137 0052 BDE81040 		pop	{r4, lr}
 2138              		.cfi_restore 14
 2139              		.cfi_restore 4
 2140              		.cfi_def_cfa_offset 0
 2141              		.loc 1 516 3 view .LVU689
 2142 0056 FFF7FEBF 		b	__port_irq_epilogue
 2143              	.LVL114:
 2144              	.L155:
 2145 005a 00BF     		.align	2
 2146              	.L154:
 2147 005c 00000000 		.word	.LANCHOR1
 2148 0060 00000000 		.word	.LANCHOR7
 2149 0064 08000000 		.word	.LANCHOR1+8
 2150              		.cfi_endproc
 2151              	.LFE461:
 2152              		.size	VectorD0, .-VectorD0
 2153              		.section	.text.Vector10C,"ax",%progbits
 2154              		.align	1
 2155              		.p2align 2,,3
 2156              		.global	Vector10C
 2157              		.syntax unified
 2158              		.thumb
 2159              		.thumb_func
 2160              		.type	Vector10C, %function
 2161              	Vector10C:
 2162              	.LFB462:
 2163              		.loc 1 531 38 is_stmt 1 view -0
 2164              		.cfi_startproc
ARM GAS  C:\Users\DEVELO~1\AppData\Local\Temp\ccJK6Gr9.s 			page 39


 2165              		@ args = 0, pretend = 0, frame = 0
 2166              		@ frame_needed = 0, uses_anonymous_args = 0
 2167              		.loc 1 533 3 view .LVU691
 2168              		.loc 1 533 3 view .LVU692
 2169              		.loc 1 533 3 view .LVU693
 2170              		.loc 1 533 3 view .LVU694
 2171              		.loc 1 533 3 view .LVU695
 2172              		.loc 1 531 38 is_stmt 0 view .LVU696
 2173 0000 10B5     		push	{r4, lr}
 2174              		.cfi_def_cfa_offset 8
 2175              		.cfi_offset 4, -8
 2176              		.cfi_offset 14, -4
 2177              	.LBB532:
 2178              	.LBB533:
 2179              		.loc 1 398 12 view .LVU697
 2180 0002 164C     		ldr	r4, .L167
 2181              	.LBE533:
 2182              	.LBE532:
 2183              		.loc 1 533 3 view .LVU698
 2184 0004 1648     		ldr	r0, .L167+4
 2185 0006 FFF7FEFF 		bl	__trace_isr_enter
 2186              	.LVL115:
 2187              		.loc 1 533 22 is_stmt 1 view .LVU699
 2188              		.loc 1 535 3 view .LVU700
 2189              	.LBB552:
 2190              	.LBI532:
 2191              		.loc 1 395 13 view .LVU701
 2192              	.LBB550:
 2193              		.loc 1 396 3 view .LVU702
 2194              		.loc 1 398 3 view .LVU703
 2195              		.loc 1 398 12 is_stmt 0 view .LVU704
 2196 000a E269     		ldr	r2, [r4, #28]
 2197              		.loc 1 398 17 view .LVU705
 2198 000c 5369     		ldr	r3, [r2, #20]
 2199              		.loc 1 398 33 view .LVU706
 2200 000e 1169     		ldr	r1, [r2, #16]
 2201              		.loc 1 398 6 view .LVU707
 2202 0010 0B40     		ands	r3, r3, r1
 2203              	.LVL116:
 2204              		.loc 1 399 3 is_stmt 1 view .LVU708
 2205              		.loc 1 399 19 is_stmt 0 view .LVU709
 2206 0012 9361     		str	r3, [r2, #24]
 2207              		.loc 1 401 3 is_stmt 1 view .LVU710
 2208              		.loc 1 401 6 is_stmt 0 view .LVU711
 2209 0014 5B06     		lsls	r3, r3, #25
 2210              	.LVL117:
 2211              		.loc 1 401 6 view .LVU712
 2212 0016 06D4     		bmi	.L166
 2213              		.loc 1 407 5 is_stmt 1 view .LVU713
 2214              		.loc 1 407 51 view .LVU714
 2215              	.LVL118:
 2216              		.loc 1 407 51 is_stmt 0 view .LVU715
 2217              	.LBE550:
 2218              	.LBE552:
 2219              		.loc 1 537 3 is_stmt 1 view .LVU716
 2220              		.loc 1 537 3 view .LVU717
 2221 0018 1148     		ldr	r0, .L167+4
ARM GAS  C:\Users\DEVELO~1\AppData\Local\Temp\ccJK6Gr9.s 			page 40


 2222 001a FFF7FEFF 		bl	__trace_isr_leave
 2223              	.LVL119:
 2224              		.loc 1 537 3 view .LVU718
 2225              		.loc 1 537 3 view .LVU719
 2226              		.loc 1 537 3 view .LVU720
 2227              		.loc 1 538 1 is_stmt 0 view .LVU721
 2228 001e BDE81040 		pop	{r4, lr}
 2229              		.cfi_remember_state
 2230              		.cfi_restore 14
 2231              		.cfi_restore 4
 2232              		.cfi_def_cfa_offset 0
 2233              		.loc 1 537 3 view .LVU722
 2234 0022 FFF7FEBF 		b	__port_irq_epilogue
 2235              	.LVL120:
 2236              	.L166:
 2237              		.cfi_restore_state
 2238              	.LBB553:
 2239              	.LBB551:
 2240              	.LBB534:
 2241              	.LBI534:
 2242              		.loc 1 395 13 is_stmt 1 view .LVU723
 2243              	.LBB535:
 2244              		.loc 1 404 5 view .LVU724
 2245 0026 2046     		mov	r0, r4
 2246 0028 FFF7FEFF 		bl	spi_lld_stop_abort
 2247              	.LVL121:
 2248              		.loc 1 407 5 view .LVU725
 2249 002c 6368     		ldr	r3, [r4, #4]
 2250 002e 9B68     		ldr	r3, [r3, #8]
 2251 0030 0BB1     		cbz	r3, .L158
 2252              		.loc 1 407 5 view .LVU726
 2253 0032 2046     		mov	r0, r4
 2254 0034 9847     		blx	r3
 2255              	.LVL122:
 2256              	.L158:
 2257              		.loc 1 407 5 view .LVU727
 2258              	.LBB536:
 2259              	.LBI536:
 2260              		.loc 3 595 20 view .LVU728
 2261              		.loc 3 597 3 view .LVU729
 2262              	.LBB537:
 2263              	.LBI537:
 2264              		.loc 4 416 20 view .LVU730
 2265              		.loc 4 418 3 view .LVU731
 2266              	.LBB538:
 2267              	.LBI538:
 2268              		.loc 5 879 27 view .LVU732
 2269              		.loc 5 881 3 view .LVU733
 2270              	.LBB539:
 2271              	.LBI539:
 2272              		.loc 5 840 27 view .LVU734
 2273              		.loc 5 848 3 view .LVU735
 2274              	.LBB540:
 2275              	.LBI540:
 2276              		.loc 6 491 27 view .LVU736
 2277              	.LBB541:
 2278              		.loc 6 493 3 view .LVU737
ARM GAS  C:\Users\DEVELO~1\AppData\Local\Temp\ccJK6Gr9.s 			page 41


 2279 0036 3023     		movs	r3, #48
 2280              		.syntax unified
 2281              	@ 493 "../../../os/common/ext/ARM/CMSIS/Core/Include/cmsis_gcc.h" 1
 2282 0038 83F31188 		MSR basepri, r3
 2283              	@ 0 "" 2
 2284              	.LVL123:
 2285              		.loc 6 493 3 is_stmt 0 view .LVU738
 2286              		.thumb
 2287              		.syntax unified
 2288              	.LBE541:
 2289              	.LBE540:
 2290              	.LBE539:
 2291              	.LBE538:
 2292              		.loc 4 419 35 is_stmt 1 view .LVU739
 2293              		.loc 4 420 30 view .LVU740
 2294              	.LBE537:
 2295              	.LBE536:
 2296              		.loc 1 407 5 view .LVU741
 2297              	.LBB542:
 2298              	.LBI542:
 2299              		.loc 3 837 20 view .LVU742
 2300              	.LBB543:
 2301              		.loc 3 839 3 view .LVU743
 2302 003c 6FF01201 		mvn	r1, #18
 2303 0040 0848     		ldr	r0, .L167+8
 2304 0042 FFF7FEFF 		bl	chThdResumeI
 2305              	.LVL124:
 2306              		.loc 3 839 3 is_stmt 0 view .LVU744
 2307              	.LBE543:
 2308              	.LBE542:
 2309              		.loc 1 407 5 is_stmt 1 view .LVU745
 2310              	.LBB544:
 2311              	.LBI544:
 2312              		.loc 3 606 20 view .LVU746
 2313              		.loc 3 608 3 view .LVU747
 2314              	.LBB545:
 2315              	.LBI545:
 2316              		.loc 4 438 20 view .LVU748
 2317              		.loc 4 440 32 view .LVU749
 2318              		.loc 4 441 34 view .LVU750
 2319              		.loc 4 442 3 view .LVU751
 2320              	.LBB546:
 2321              	.LBI546:
 2322              		.loc 5 890 27 view .LVU752
 2323              		.loc 5 892 3 view .LVU753
 2324              	.LBB547:
 2325              	.LBI547:
 2326              		.loc 5 864 27 view .LVU754
 2327              		.loc 5 867 3 view .LVU755
 2328              	.LBB548:
 2329              	.LBI548:
 2330              		.loc 6 491 27 view .LVU756
 2331              	.LBB549:
 2332              		.loc 6 493 3 view .LVU757
 2333 0046 0023     		movs	r3, #0
 2334              		.syntax unified
 2335              	@ 493 "../../../os/common/ext/ARM/CMSIS/Core/Include/cmsis_gcc.h" 1
ARM GAS  C:\Users\DEVELO~1\AppData\Local\Temp\ccJK6Gr9.s 			page 42


 2336 0048 83F31188 		MSR basepri, r3
 2337              	@ 0 "" 2
 2338              	.LVL125:
 2339              		.loc 6 493 3 is_stmt 0 view .LVU758
 2340              		.thumb
 2341              		.syntax unified
 2342              	.LBE549:
 2343              	.LBE548:
 2344              	.LBE547:
 2345              	.LBE546:
 2346              	.LBE545:
 2347              	.LBE544:
 2348              		.loc 1 407 5 is_stmt 1 view .LVU759
 2349              		.loc 1 407 51 view .LVU760
 2350              		.loc 1 407 51 is_stmt 0 view .LVU761
 2351              	.LBE535:
 2352              	.LBE534:
 2353              		.loc 1 407 5 is_stmt 1 view .LVU762
 2354              		.loc 1 407 51 view .LVU763
 2355              		.loc 1 407 51 is_stmt 0 view .LVU764
 2356              	.LBE551:
 2357              	.LBE553:
 2358              		.loc 1 537 3 is_stmt 1 view .LVU765
 2359              		.loc 1 537 3 view .LVU766
 2360 004c 0448     		ldr	r0, .L167+4
 2361 004e FFF7FEFF 		bl	__trace_isr_leave
 2362              	.LVL126:
 2363              		.loc 1 537 3 view .LVU767
 2364              		.loc 1 537 3 view .LVU768
 2365              		.loc 1 537 3 view .LVU769
 2366              		.loc 1 538 1 is_stmt 0 view .LVU770
 2367 0052 BDE81040 		pop	{r4, lr}
 2368              		.cfi_restore 14
 2369              		.cfi_restore 4
 2370              		.cfi_def_cfa_offset 0
 2371              		.loc 1 537 3 view .LVU771
 2372 0056 FFF7FEBF 		b	__port_irq_epilogue
 2373              	.LVL127:
 2374              	.L168:
 2375 005a 00BF     		.align	2
 2376              	.L167:
 2377 005c 00000000 		.word	.LANCHOR2
 2378 0060 00000000 		.word	.LANCHOR8
 2379 0064 08000000 		.word	.LANCHOR2+8
 2380              		.cfi_endproc
 2381              	.LFE462:
 2382              		.size	Vector10C, .-Vector10C
 2383              		.section	.text.Vector190,"ax",%progbits
 2384              		.align	1
 2385              		.p2align 2,,3
 2386              		.global	Vector190
 2387              		.syntax unified
 2388              		.thumb
 2389              		.thumb_func
 2390              		.type	Vector190, %function
 2391              	Vector190:
 2392              	.LFB463:
ARM GAS  C:\Users\DEVELO~1\AppData\Local\Temp\ccJK6Gr9.s 			page 43


 2393              		.loc 1 552 38 is_stmt 1 view -0
 2394              		.cfi_startproc
 2395              		@ args = 0, pretend = 0, frame = 0
 2396              		@ frame_needed = 0, uses_anonymous_args = 0
 2397              		.loc 1 554 3 view .LVU773
 2398              		.loc 1 554 3 view .LVU774
 2399              		.loc 1 554 3 view .LVU775
 2400              		.loc 1 554 3 view .LVU776
 2401              		.loc 1 554 3 view .LVU777
 2402              		.loc 1 552 38 is_stmt 0 view .LVU778
 2403 0000 10B5     		push	{r4, lr}
 2404              		.cfi_def_cfa_offset 8
 2405              		.cfi_offset 4, -8
 2406              		.cfi_offset 14, -4
 2407              	.LBB573:
 2408              	.LBB574:
 2409              		.loc 1 398 12 view .LVU779
 2410 0002 164C     		ldr	r4, .L180
 2411              	.LBE574:
 2412              	.LBE573:
 2413              		.loc 1 554 3 view .LVU780
 2414 0004 1648     		ldr	r0, .L180+4
 2415 0006 FFF7FEFF 		bl	__trace_isr_enter
 2416              	.LVL128:
 2417              		.loc 1 554 22 is_stmt 1 view .LVU781
 2418              		.loc 1 556 3 view .LVU782
 2419              	.LBB593:
 2420              	.LBI573:
 2421              		.loc 1 395 13 view .LVU783
 2422              	.LBB591:
 2423              		.loc 1 396 3 view .LVU784
 2424              		.loc 1 398 3 view .LVU785
 2425              		.loc 1 398 12 is_stmt 0 view .LVU786
 2426 000a E269     		ldr	r2, [r4, #28]
 2427              		.loc 1 398 17 view .LVU787
 2428 000c 5369     		ldr	r3, [r2, #20]
 2429              		.loc 1 398 33 view .LVU788
 2430 000e 1169     		ldr	r1, [r2, #16]
 2431              		.loc 1 398 6 view .LVU789
 2432 0010 0B40     		ands	r3, r3, r1
 2433              	.LVL129:
 2434              		.loc 1 399 3 is_stmt 1 view .LVU790
 2435              		.loc 1 399 19 is_stmt 0 view .LVU791
 2436 0012 9361     		str	r3, [r2, #24]
 2437              		.loc 1 401 3 is_stmt 1 view .LVU792
 2438              		.loc 1 401 6 is_stmt 0 view .LVU793
 2439 0014 5B06     		lsls	r3, r3, #25
 2440              	.LVL130:
 2441              		.loc 1 401 6 view .LVU794
 2442 0016 06D4     		bmi	.L179
 2443              		.loc 1 407 5 is_stmt 1 view .LVU795
 2444              		.loc 1 407 51 view .LVU796
 2445              	.LVL131:
 2446              		.loc 1 407 51 is_stmt 0 view .LVU797
 2447              	.LBE591:
 2448              	.LBE593:
 2449              		.loc 1 558 3 is_stmt 1 view .LVU798
ARM GAS  C:\Users\DEVELO~1\AppData\Local\Temp\ccJK6Gr9.s 			page 44


 2450              		.loc 1 558 3 view .LVU799
 2451 0018 1148     		ldr	r0, .L180+4
 2452 001a FFF7FEFF 		bl	__trace_isr_leave
 2453              	.LVL132:
 2454              		.loc 1 558 3 view .LVU800
 2455              		.loc 1 558 3 view .LVU801
 2456              		.loc 1 558 3 view .LVU802
 2457              		.loc 1 559 1 is_stmt 0 view .LVU803
 2458 001e BDE81040 		pop	{r4, lr}
 2459              		.cfi_remember_state
 2460              		.cfi_restore 14
 2461              		.cfi_restore 4
 2462              		.cfi_def_cfa_offset 0
 2463              		.loc 1 558 3 view .LVU804
 2464 0022 FFF7FEBF 		b	__port_irq_epilogue
 2465              	.LVL133:
 2466              	.L179:
 2467              		.cfi_restore_state
 2468              	.LBB594:
 2469              	.LBB592:
 2470              	.LBB575:
 2471              	.LBI575:
 2472              		.loc 1 395 13 is_stmt 1 view .LVU805
 2473              	.LBB576:
 2474              		.loc 1 404 5 view .LVU806
 2475 0026 2046     		mov	r0, r4
 2476 0028 FFF7FEFF 		bl	spi_lld_stop_abort
 2477              	.LVL134:
 2478              		.loc 1 407 5 view .LVU807
 2479 002c 6368     		ldr	r3, [r4, #4]
 2480 002e 9B68     		ldr	r3, [r3, #8]
 2481 0030 0BB1     		cbz	r3, .L171
 2482              		.loc 1 407 5 view .LVU808
 2483 0032 2046     		mov	r0, r4
 2484 0034 9847     		blx	r3
 2485              	.LVL135:
 2486              	.L171:
 2487              		.loc 1 407 5 view .LVU809
 2488              	.LBB577:
 2489              	.LBI577:
 2490              		.loc 3 595 20 view .LVU810
 2491              		.loc 3 597 3 view .LVU811
 2492              	.LBB578:
 2493              	.LBI578:
 2494              		.loc 4 416 20 view .LVU812
 2495              		.loc 4 418 3 view .LVU813
 2496              	.LBB579:
 2497              	.LBI579:
 2498              		.loc 5 879 27 view .LVU814
 2499              		.loc 5 881 3 view .LVU815
 2500              	.LBB580:
 2501              	.LBI580:
 2502              		.loc 5 840 27 view .LVU816
 2503              		.loc 5 848 3 view .LVU817
 2504              	.LBB581:
 2505              	.LBI581:
 2506              		.loc 6 491 27 view .LVU818
ARM GAS  C:\Users\DEVELO~1\AppData\Local\Temp\ccJK6Gr9.s 			page 45


 2507              	.LBB582:
 2508              		.loc 6 493 3 view .LVU819
 2509 0036 3023     		movs	r3, #48
 2510              		.syntax unified
 2511              	@ 493 "../../../os/common/ext/ARM/CMSIS/Core/Include/cmsis_gcc.h" 1
 2512 0038 83F31188 		MSR basepri, r3
 2513              	@ 0 "" 2
 2514              	.LVL136:
 2515              		.loc 6 493 3 is_stmt 0 view .LVU820
 2516              		.thumb
 2517              		.syntax unified
 2518              	.LBE582:
 2519              	.LBE581:
 2520              	.LBE580:
 2521              	.LBE579:
 2522              		.loc 4 419 35 is_stmt 1 view .LVU821
 2523              		.loc 4 420 30 view .LVU822
 2524              	.LBE578:
 2525              	.LBE577:
 2526              		.loc 1 407 5 view .LVU823
 2527              	.LBB583:
 2528              	.LBI583:
 2529              		.loc 3 837 20 view .LVU824
 2530              	.LBB584:
 2531              		.loc 3 839 3 view .LVU825
 2532 003c 6FF01201 		mvn	r1, #18
 2533 0040 0848     		ldr	r0, .L180+8
 2534 0042 FFF7FEFF 		bl	chThdResumeI
 2535              	.LVL137:
 2536              		.loc 3 839 3 is_stmt 0 view .LVU826
 2537              	.LBE584:
 2538              	.LBE583:
 2539              		.loc 1 407 5 is_stmt 1 view .LVU827
 2540              	.LBB585:
 2541              	.LBI585:
 2542              		.loc 3 606 20 view .LVU828
 2543              		.loc 3 608 3 view .LVU829
 2544              	.LBB586:
 2545              	.LBI586:
 2546              		.loc 4 438 20 view .LVU830
 2547              		.loc 4 440 32 view .LVU831
 2548              		.loc 4 441 34 view .LVU832
 2549              		.loc 4 442 3 view .LVU833
 2550              	.LBB587:
 2551              	.LBI587:
 2552              		.loc 5 890 27 view .LVU834
 2553              		.loc 5 892 3 view .LVU835
 2554              	.LBB588:
 2555              	.LBI588:
 2556              		.loc 5 864 27 view .LVU836
 2557              		.loc 5 867 3 view .LVU837
 2558              	.LBB589:
 2559              	.LBI589:
 2560              		.loc 6 491 27 view .LVU838
 2561              	.LBB590:
 2562              		.loc 6 493 3 view .LVU839
 2563 0046 0023     		movs	r3, #0
ARM GAS  C:\Users\DEVELO~1\AppData\Local\Temp\ccJK6Gr9.s 			page 46


 2564              		.syntax unified
 2565              	@ 493 "../../../os/common/ext/ARM/CMSIS/Core/Include/cmsis_gcc.h" 1
 2566 0048 83F31188 		MSR basepri, r3
 2567              	@ 0 "" 2
 2568              	.LVL138:
 2569              		.loc 6 493 3 is_stmt 0 view .LVU840
 2570              		.thumb
 2571              		.syntax unified
 2572              	.LBE590:
 2573              	.LBE589:
 2574              	.LBE588:
 2575              	.LBE587:
 2576              	.LBE586:
 2577              	.LBE585:
 2578              		.loc 1 407 5 is_stmt 1 view .LVU841
 2579              		.loc 1 407 51 view .LVU842
 2580              		.loc 1 407 51 is_stmt 0 view .LVU843
 2581              	.LBE576:
 2582              	.LBE575:
 2583              		.loc 1 407 5 is_stmt 1 view .LVU844
 2584              		.loc 1 407 51 view .LVU845
 2585              		.loc 1 407 51 is_stmt 0 view .LVU846
 2586              	.LBE592:
 2587              	.LBE594:
 2588              		.loc 1 558 3 is_stmt 1 view .LVU847
 2589              		.loc 1 558 3 view .LVU848
 2590 004c 0448     		ldr	r0, .L180+4
 2591 004e FFF7FEFF 		bl	__trace_isr_leave
 2592              	.LVL139:
 2593              		.loc 1 558 3 view .LVU849
 2594              		.loc 1 558 3 view .LVU850
 2595              		.loc 1 558 3 view .LVU851
 2596              		.loc 1 559 1 is_stmt 0 view .LVU852
 2597 0052 BDE81040 		pop	{r4, lr}
 2598              		.cfi_restore 14
 2599              		.cfi_restore 4
 2600              		.cfi_def_cfa_offset 0
 2601              		.loc 1 558 3 view .LVU853
 2602 0056 FFF7FEBF 		b	__port_irq_epilogue
 2603              	.LVL140:
 2604              	.L181:
 2605 005a 00BF     		.align	2
 2606              	.L180:
 2607 005c 00000000 		.word	.LANCHOR3
 2608 0060 00000000 		.word	.LANCHOR9
 2609 0064 08000000 		.word	.LANCHOR3+8
 2610              		.cfi_endproc
 2611              	.LFE463:
 2612              		.size	Vector190, .-Vector190
 2613              		.section	.text.Vector194,"ax",%progbits
 2614              		.align	1
 2615              		.p2align 2,,3
 2616              		.global	Vector194
 2617              		.syntax unified
 2618              		.thumb
 2619              		.thumb_func
 2620              		.type	Vector194, %function
ARM GAS  C:\Users\DEVELO~1\AppData\Local\Temp\ccJK6Gr9.s 			page 47


 2621              	Vector194:
 2622              	.LFB464:
 2623              		.loc 1 573 38 is_stmt 1 view -0
 2624              		.cfi_startproc
 2625              		@ args = 0, pretend = 0, frame = 0
 2626              		@ frame_needed = 0, uses_anonymous_args = 0
 2627              		.loc 1 575 3 view .LVU855
 2628              		.loc 1 575 3 view .LVU856
 2629              		.loc 1 575 3 view .LVU857
 2630              		.loc 1 575 3 view .LVU858
 2631              		.loc 1 575 3 view .LVU859
 2632              		.loc 1 573 38 is_stmt 0 view .LVU860
 2633 0000 10B5     		push	{r4, lr}
 2634              		.cfi_def_cfa_offset 8
 2635              		.cfi_offset 4, -8
 2636              		.cfi_offset 14, -4
 2637              	.LBB614:
 2638              	.LBB615:
 2639              		.loc 1 398 12 view .LVU861
 2640 0002 164C     		ldr	r4, .L193
 2641              	.LBE615:
 2642              	.LBE614:
 2643              		.loc 1 575 3 view .LVU862
 2644 0004 1648     		ldr	r0, .L193+4
 2645 0006 FFF7FEFF 		bl	__trace_isr_enter
 2646              	.LVL141:
 2647              		.loc 1 575 22 is_stmt 1 view .LVU863
 2648              		.loc 1 577 3 view .LVU864
 2649              	.LBB634:
 2650              	.LBI614:
 2651              		.loc 1 395 13 view .LVU865
 2652              	.LBB632:
 2653              		.loc 1 396 3 view .LVU866
 2654              		.loc 1 398 3 view .LVU867
 2655              		.loc 1 398 12 is_stmt 0 view .LVU868
 2656 000a E269     		ldr	r2, [r4, #28]
 2657              		.loc 1 398 17 view .LVU869
 2658 000c 5369     		ldr	r3, [r2, #20]
 2659              		.loc 1 398 33 view .LVU870
 2660 000e 1169     		ldr	r1, [r2, #16]
 2661              		.loc 1 398 6 view .LVU871
 2662 0010 0B40     		ands	r3, r3, r1
 2663              	.LVL142:
 2664              		.loc 1 399 3 is_stmt 1 view .LVU872
 2665              		.loc 1 399 19 is_stmt 0 view .LVU873
 2666 0012 9361     		str	r3, [r2, #24]
 2667              		.loc 1 401 3 is_stmt 1 view .LVU874
 2668              		.loc 1 401 6 is_stmt 0 view .LVU875
 2669 0014 5B06     		lsls	r3, r3, #25
 2670              	.LVL143:
 2671              		.loc 1 401 6 view .LVU876
 2672 0016 06D4     		bmi	.L192
 2673              		.loc 1 407 5 is_stmt 1 view .LVU877
 2674              		.loc 1 407 51 view .LVU878
 2675              	.LVL144:
 2676              		.loc 1 407 51 is_stmt 0 view .LVU879
 2677              	.LBE632:
ARM GAS  C:\Users\DEVELO~1\AppData\Local\Temp\ccJK6Gr9.s 			page 48


 2678              	.LBE634:
 2679              		.loc 1 579 3 is_stmt 1 view .LVU880
 2680              		.loc 1 579 3 view .LVU881
 2681 0018 1148     		ldr	r0, .L193+4
 2682 001a FFF7FEFF 		bl	__trace_isr_leave
 2683              	.LVL145:
 2684              		.loc 1 579 3 view .LVU882
 2685              		.loc 1 579 3 view .LVU883
 2686              		.loc 1 579 3 view .LVU884
 2687              		.loc 1 580 1 is_stmt 0 view .LVU885
 2688 001e BDE81040 		pop	{r4, lr}
 2689              		.cfi_remember_state
 2690              		.cfi_restore 14
 2691              		.cfi_restore 4
 2692              		.cfi_def_cfa_offset 0
 2693              		.loc 1 579 3 view .LVU886
 2694 0022 FFF7FEBF 		b	__port_irq_epilogue
 2695              	.LVL146:
 2696              	.L192:
 2697              		.cfi_restore_state
 2698              	.LBB635:
 2699              	.LBB633:
 2700              	.LBB616:
 2701              	.LBI616:
 2702              		.loc 1 395 13 is_stmt 1 view .LVU887
 2703              	.LBB617:
 2704              		.loc 1 404 5 view .LVU888
 2705 0026 2046     		mov	r0, r4
 2706 0028 FFF7FEFF 		bl	spi_lld_stop_abort
 2707              	.LVL147:
 2708              		.loc 1 407 5 view .LVU889
 2709 002c 6368     		ldr	r3, [r4, #4]
 2710 002e 9B68     		ldr	r3, [r3, #8]
 2711 0030 0BB1     		cbz	r3, .L184
 2712              		.loc 1 407 5 view .LVU890
 2713 0032 2046     		mov	r0, r4
 2714 0034 9847     		blx	r3
 2715              	.LVL148:
 2716              	.L184:
 2717              		.loc 1 407 5 view .LVU891
 2718              	.LBB618:
 2719              	.LBI618:
 2720              		.loc 3 595 20 view .LVU892
 2721              		.loc 3 597 3 view .LVU893
 2722              	.LBB619:
 2723              	.LBI619:
 2724              		.loc 4 416 20 view .LVU894
 2725              		.loc 4 418 3 view .LVU895
 2726              	.LBB620:
 2727              	.LBI620:
 2728              		.loc 5 879 27 view .LVU896
 2729              		.loc 5 881 3 view .LVU897
 2730              	.LBB621:
 2731              	.LBI621:
 2732              		.loc 5 840 27 view .LVU898
 2733              		.loc 5 848 3 view .LVU899
 2734              	.LBB622:
ARM GAS  C:\Users\DEVELO~1\AppData\Local\Temp\ccJK6Gr9.s 			page 49


 2735              	.LBI622:
 2736              		.loc 6 491 27 view .LVU900
 2737              	.LBB623:
 2738              		.loc 6 493 3 view .LVU901
 2739 0036 3023     		movs	r3, #48
 2740              		.syntax unified
 2741              	@ 493 "../../../os/common/ext/ARM/CMSIS/Core/Include/cmsis_gcc.h" 1
 2742 0038 83F31188 		MSR basepri, r3
 2743              	@ 0 "" 2
 2744              	.LVL149:
 2745              		.loc 6 493 3 is_stmt 0 view .LVU902
 2746              		.thumb
 2747              		.syntax unified
 2748              	.LBE623:
 2749              	.LBE622:
 2750              	.LBE621:
 2751              	.LBE620:
 2752              		.loc 4 419 35 is_stmt 1 view .LVU903
 2753              		.loc 4 420 30 view .LVU904
 2754              	.LBE619:
 2755              	.LBE618:
 2756              		.loc 1 407 5 view .LVU905
 2757              	.LBB624:
 2758              	.LBI624:
 2759              		.loc 3 837 20 view .LVU906
 2760              	.LBB625:
 2761              		.loc 3 839 3 view .LVU907
 2762 003c 6FF01201 		mvn	r1, #18
 2763 0040 0848     		ldr	r0, .L193+8
 2764 0042 FFF7FEFF 		bl	chThdResumeI
 2765              	.LVL150:
 2766              		.loc 3 839 3 is_stmt 0 view .LVU908
 2767              	.LBE625:
 2768              	.LBE624:
 2769              		.loc 1 407 5 is_stmt 1 view .LVU909
 2770              	.LBB626:
 2771              	.LBI626:
 2772              		.loc 3 606 20 view .LVU910
 2773              		.loc 3 608 3 view .LVU911
 2774              	.LBB627:
 2775              	.LBI627:
 2776              		.loc 4 438 20 view .LVU912
 2777              		.loc 4 440 32 view .LVU913
 2778              		.loc 4 441 34 view .LVU914
 2779              		.loc 4 442 3 view .LVU915
 2780              	.LBB628:
 2781              	.LBI628:
 2782              		.loc 5 890 27 view .LVU916
 2783              		.loc 5 892 3 view .LVU917
 2784              	.LBB629:
 2785              	.LBI629:
 2786              		.loc 5 864 27 view .LVU918
 2787              		.loc 5 867 3 view .LVU919
 2788              	.LBB630:
 2789              	.LBI630:
 2790              		.loc 6 491 27 view .LVU920
 2791              	.LBB631:
ARM GAS  C:\Users\DEVELO~1\AppData\Local\Temp\ccJK6Gr9.s 			page 50


 2792              		.loc 6 493 3 view .LVU921
 2793 0046 0023     		movs	r3, #0
 2794              		.syntax unified
 2795              	@ 493 "../../../os/common/ext/ARM/CMSIS/Core/Include/cmsis_gcc.h" 1
 2796 0048 83F31188 		MSR basepri, r3
 2797              	@ 0 "" 2
 2798              	.LVL151:
 2799              		.loc 6 493 3 is_stmt 0 view .LVU922
 2800              		.thumb
 2801              		.syntax unified
 2802              	.LBE631:
 2803              	.LBE630:
 2804              	.LBE629:
 2805              	.LBE628:
 2806              	.LBE627:
 2807              	.LBE626:
 2808              		.loc 1 407 5 is_stmt 1 view .LVU923
 2809              		.loc 1 407 51 view .LVU924
 2810              		.loc 1 407 51 is_stmt 0 view .LVU925
 2811              	.LBE617:
 2812              	.LBE616:
 2813              		.loc 1 407 5 is_stmt 1 view .LVU926
 2814              		.loc 1 407 51 view .LVU927
 2815              		.loc 1 407 51 is_stmt 0 view .LVU928
 2816              	.LBE633:
 2817              	.LBE635:
 2818              		.loc 1 579 3 is_stmt 1 view .LVU929
 2819              		.loc 1 579 3 view .LVU930
 2820 004c 0448     		ldr	r0, .L193+4
 2821 004e FFF7FEFF 		bl	__trace_isr_leave
 2822              	.LVL152:
 2823              		.loc 1 579 3 view .LVU931
 2824              		.loc 1 579 3 view .LVU932
 2825              		.loc 1 579 3 view .LVU933
 2826              		.loc 1 580 1 is_stmt 0 view .LVU934
 2827 0052 BDE81040 		pop	{r4, lr}
 2828              		.cfi_restore 14
 2829              		.cfi_restore 4
 2830              		.cfi_def_cfa_offset 0
 2831              		.loc 1 579 3 view .LVU935
 2832 0056 FFF7FEBF 		b	__port_irq_epilogue
 2833              	.LVL153:
 2834              	.L194:
 2835 005a 00BF     		.align	2
 2836              	.L193:
 2837 005c 00000000 		.word	.LANCHOR4
 2838 0060 00000000 		.word	.LANCHOR10
 2839 0064 08000000 		.word	.LANCHOR4+8
 2840              		.cfi_endproc
 2841              	.LFE464:
 2842              		.size	Vector194, .-Vector194
 2843              		.section	.text.Vector198,"ax",%progbits
 2844              		.align	1
 2845              		.p2align 2,,3
 2846              		.global	Vector198
 2847              		.syntax unified
 2848              		.thumb
ARM GAS  C:\Users\DEVELO~1\AppData\Local\Temp\ccJK6Gr9.s 			page 51


 2849              		.thumb_func
 2850              		.type	Vector198, %function
 2851              	Vector198:
 2852              	.LFB465:
 2853              		.loc 1 594 38 is_stmt 1 view -0
 2854              		.cfi_startproc
 2855              		@ args = 0, pretend = 0, frame = 0
 2856              		@ frame_needed = 0, uses_anonymous_args = 0
 2857              		.loc 1 596 3 view .LVU937
 2858              		.loc 1 596 3 view .LVU938
 2859              		.loc 1 596 3 view .LVU939
 2860              		.loc 1 596 3 view .LVU940
 2861              		.loc 1 596 3 view .LVU941
 2862              		.loc 1 594 38 is_stmt 0 view .LVU942
 2863 0000 10B5     		push	{r4, lr}
 2864              		.cfi_def_cfa_offset 8
 2865              		.cfi_offset 4, -8
 2866              		.cfi_offset 14, -4
 2867              	.LBB655:
 2868              	.LBB656:
 2869              		.loc 1 398 12 view .LVU943
 2870 0002 164C     		ldr	r4, .L206
 2871              	.LBE656:
 2872              	.LBE655:
 2873              		.loc 1 596 3 view .LVU944
 2874 0004 1648     		ldr	r0, .L206+4
 2875 0006 FFF7FEFF 		bl	__trace_isr_enter
 2876              	.LVL154:
 2877              		.loc 1 596 22 is_stmt 1 view .LVU945
 2878              		.loc 1 598 3 view .LVU946
 2879              	.LBB675:
 2880              	.LBI655:
 2881              		.loc 1 395 13 view .LVU947
 2882              	.LBB673:
 2883              		.loc 1 396 3 view .LVU948
 2884              		.loc 1 398 3 view .LVU949
 2885              		.loc 1 398 12 is_stmt 0 view .LVU950
 2886 000a E269     		ldr	r2, [r4, #28]
 2887              		.loc 1 398 17 view .LVU951
 2888 000c 5369     		ldr	r3, [r2, #20]
 2889              		.loc 1 398 33 view .LVU952
 2890 000e 1169     		ldr	r1, [r2, #16]
 2891              		.loc 1 398 6 view .LVU953
 2892 0010 0B40     		ands	r3, r3, r1
 2893              	.LVL155:
 2894              		.loc 1 399 3 is_stmt 1 view .LVU954
 2895              		.loc 1 399 19 is_stmt 0 view .LVU955
 2896 0012 9361     		str	r3, [r2, #24]
 2897              		.loc 1 401 3 is_stmt 1 view .LVU956
 2898              		.loc 1 401 6 is_stmt 0 view .LVU957
 2899 0014 5B06     		lsls	r3, r3, #25
 2900              	.LVL156:
 2901              		.loc 1 401 6 view .LVU958
 2902 0016 06D4     		bmi	.L205
 2903              		.loc 1 407 5 is_stmt 1 view .LVU959
 2904              		.loc 1 407 51 view .LVU960
 2905              	.LVL157:
ARM GAS  C:\Users\DEVELO~1\AppData\Local\Temp\ccJK6Gr9.s 			page 52


 2906              		.loc 1 407 51 is_stmt 0 view .LVU961
 2907              	.LBE673:
 2908              	.LBE675:
 2909              		.loc 1 600 3 is_stmt 1 view .LVU962
 2910              		.loc 1 600 3 view .LVU963
 2911 0018 1148     		ldr	r0, .L206+4
 2912 001a FFF7FEFF 		bl	__trace_isr_leave
 2913              	.LVL158:
 2914              		.loc 1 600 3 view .LVU964
 2915              		.loc 1 600 3 view .LVU965
 2916              		.loc 1 600 3 view .LVU966
 2917              		.loc 1 601 1 is_stmt 0 view .LVU967
 2918 001e BDE81040 		pop	{r4, lr}
 2919              		.cfi_remember_state
 2920              		.cfi_restore 14
 2921              		.cfi_restore 4
 2922              		.cfi_def_cfa_offset 0
 2923              		.loc 1 600 3 view .LVU968
 2924 0022 FFF7FEBF 		b	__port_irq_epilogue
 2925              	.LVL159:
 2926              	.L205:
 2927              		.cfi_restore_state
 2928              	.LBB676:
 2929              	.LBB674:
 2930              	.LBB657:
 2931              	.LBI657:
 2932              		.loc 1 395 13 is_stmt 1 view .LVU969
 2933              	.LBB658:
 2934              		.loc 1 404 5 view .LVU970
 2935 0026 2046     		mov	r0, r4
 2936 0028 FFF7FEFF 		bl	spi_lld_stop_abort
 2937              	.LVL160:
 2938              		.loc 1 407 5 view .LVU971
 2939 002c 6368     		ldr	r3, [r4, #4]
 2940 002e 9B68     		ldr	r3, [r3, #8]
 2941 0030 0BB1     		cbz	r3, .L197
 2942              		.loc 1 407 5 view .LVU972
 2943 0032 2046     		mov	r0, r4
 2944 0034 9847     		blx	r3
 2945              	.LVL161:
 2946              	.L197:
 2947              		.loc 1 407 5 view .LVU973
 2948              	.LBB659:
 2949              	.LBI659:
 2950              		.loc 3 595 20 view .LVU974
 2951              		.loc 3 597 3 view .LVU975
 2952              	.LBB660:
 2953              	.LBI660:
 2954              		.loc 4 416 20 view .LVU976
 2955              		.loc 4 418 3 view .LVU977
 2956              	.LBB661:
 2957              	.LBI661:
 2958              		.loc 5 879 27 view .LVU978
 2959              		.loc 5 881 3 view .LVU979
 2960              	.LBB662:
 2961              	.LBI662:
 2962              		.loc 5 840 27 view .LVU980
ARM GAS  C:\Users\DEVELO~1\AppData\Local\Temp\ccJK6Gr9.s 			page 53


 2963              		.loc 5 848 3 view .LVU981
 2964              	.LBB663:
 2965              	.LBI663:
 2966              		.loc 6 491 27 view .LVU982
 2967              	.LBB664:
 2968              		.loc 6 493 3 view .LVU983
 2969 0036 3023     		movs	r3, #48
 2970              		.syntax unified
 2971              	@ 493 "../../../os/common/ext/ARM/CMSIS/Core/Include/cmsis_gcc.h" 1
 2972 0038 83F31188 		MSR basepri, r3
 2973              	@ 0 "" 2
 2974              	.LVL162:
 2975              		.loc 6 493 3 is_stmt 0 view .LVU984
 2976              		.thumb
 2977              		.syntax unified
 2978              	.LBE664:
 2979              	.LBE663:
 2980              	.LBE662:
 2981              	.LBE661:
 2982              		.loc 4 419 35 is_stmt 1 view .LVU985
 2983              		.loc 4 420 30 view .LVU986
 2984              	.LBE660:
 2985              	.LBE659:
 2986              		.loc 1 407 5 view .LVU987
 2987              	.LBB665:
 2988              	.LBI665:
 2989              		.loc 3 837 20 view .LVU988
 2990              	.LBB666:
 2991              		.loc 3 839 3 view .LVU989
 2992 003c 6FF01201 		mvn	r1, #18
 2993 0040 0848     		ldr	r0, .L206+8
 2994 0042 FFF7FEFF 		bl	chThdResumeI
 2995              	.LVL163:
 2996              		.loc 3 839 3 is_stmt 0 view .LVU990
 2997              	.LBE666:
 2998              	.LBE665:
 2999              		.loc 1 407 5 is_stmt 1 view .LVU991
 3000              	.LBB667:
 3001              	.LBI667:
 3002              		.loc 3 606 20 view .LVU992
 3003              		.loc 3 608 3 view .LVU993
 3004              	.LBB668:
 3005              	.LBI668:
 3006              		.loc 4 438 20 view .LVU994
 3007              		.loc 4 440 32 view .LVU995
 3008              		.loc 4 441 34 view .LVU996
 3009              		.loc 4 442 3 view .LVU997
 3010              	.LBB669:
 3011              	.LBI669:
 3012              		.loc 5 890 27 view .LVU998
 3013              		.loc 5 892 3 view .LVU999
 3014              	.LBB670:
 3015              	.LBI670:
 3016              		.loc 5 864 27 view .LVU1000
 3017              		.loc 5 867 3 view .LVU1001
 3018              	.LBB671:
 3019              	.LBI671:
ARM GAS  C:\Users\DEVELO~1\AppData\Local\Temp\ccJK6Gr9.s 			page 54


 3020              		.loc 6 491 27 view .LVU1002
 3021              	.LBB672:
 3022              		.loc 6 493 3 view .LVU1003
 3023 0046 0023     		movs	r3, #0
 3024              		.syntax unified
 3025              	@ 493 "../../../os/common/ext/ARM/CMSIS/Core/Include/cmsis_gcc.h" 1
 3026 0048 83F31188 		MSR basepri, r3
 3027              	@ 0 "" 2
 3028              	.LVL164:
 3029              		.loc 6 493 3 is_stmt 0 view .LVU1004
 3030              		.thumb
 3031              		.syntax unified
 3032              	.LBE672:
 3033              	.LBE671:
 3034              	.LBE670:
 3035              	.LBE669:
 3036              	.LBE668:
 3037              	.LBE667:
 3038              		.loc 1 407 5 is_stmt 1 view .LVU1005
 3039              		.loc 1 407 51 view .LVU1006
 3040              		.loc 1 407 51 is_stmt 0 view .LVU1007
 3041              	.LBE658:
 3042              	.LBE657:
 3043              		.loc 1 407 5 is_stmt 1 view .LVU1008
 3044              		.loc 1 407 51 view .LVU1009
 3045              		.loc 1 407 51 is_stmt 0 view .LVU1010
 3046              	.LBE674:
 3047              	.LBE676:
 3048              		.loc 1 600 3 is_stmt 1 view .LVU1011
 3049              		.loc 1 600 3 view .LVU1012
 3050 004c 0448     		ldr	r0, .L206+4
 3051 004e FFF7FEFF 		bl	__trace_isr_leave
 3052              	.LVL165:
 3053              		.loc 1 600 3 view .LVU1013
 3054              		.loc 1 600 3 view .LVU1014
 3055              		.loc 1 600 3 view .LVU1015
 3056              		.loc 1 601 1 is_stmt 0 view .LVU1016
 3057 0052 BDE81040 		pop	{r4, lr}
 3058              		.cfi_restore 14
 3059              		.cfi_restore 4
 3060              		.cfi_def_cfa_offset 0
 3061              		.loc 1 600 3 view .LVU1017
 3062 0056 FFF7FEBF 		b	__port_irq_epilogue
 3063              	.LVL166:
 3064              	.L207:
 3065 005a 00BF     		.align	2
 3066              	.L206:
 3067 005c 00000000 		.word	.LANCHOR5
 3068 0060 00000000 		.word	.LANCHOR11
 3069 0064 08000000 		.word	.LANCHOR5+8
 3070              		.cfi_endproc
 3071              	.LFE465:
 3072              		.size	Vector198, .-Vector198
 3073              		.section	.text.spi_lld_init,"ax",%progbits
 3074              		.align	1
 3075              		.p2align 2,,3
 3076              		.global	spi_lld_init
ARM GAS  C:\Users\DEVELO~1\AppData\Local\Temp\ccJK6Gr9.s 			page 55


 3077              		.syntax unified
 3078              		.thumb
 3079              		.thumb_func
 3080              		.type	spi_lld_init, %function
 3081              	spi_lld_init:
 3082              	.LFB466:
 3083              		.loc 1 614 25 is_stmt 1 view -0
 3084              		.cfi_startproc
 3085              		@ args = 0, pretend = 0, frame = 0
 3086              		@ frame_needed = 0, uses_anonymous_args = 0
 3087              		.loc 1 617 3 view .LVU1019
 3088              		.loc 1 614 25 is_stmt 0 view .LVU1020
 3089 0000 2DE9F041 		push	{r4, r5, r6, r7, r8, lr}
 3090              		.cfi_def_cfa_offset 24
 3091              		.cfi_offset 4, -24
 3092              		.cfi_offset 5, -20
 3093              		.cfi_offset 6, -16
 3094              		.cfi_offset 7, -12
 3095              		.cfi_offset 8, -8
 3096              		.cfi_offset 14, -4
 3097              		.loc 1 617 3 view .LVU1021
 3098 0004 354D     		ldr	r5, .L210
 3099              		.loc 1 620 19 view .LVU1022
 3100 0006 0024     		movs	r4, #0
 3101              		.loc 1 624 19 view .LVU1023
 3102 0008 DFF80481 		ldr	r8, .L210+52
 3103              		.loc 1 617 3 view .LVU1024
 3104 000c 2846     		mov	r0, r5
 3105              		.loc 1 629 19 view .LVU1025
 3106 000e 344F     		ldr	r7, .L210+4
 3107              		.loc 1 617 3 view .LVU1026
 3108 0010 FFF7FEFF 		bl	spiObjectInit
 3109              	.LVL167:
 3110              		.loc 1 618 3 is_stmt 1 view .LVU1027
 3111              		.loc 1 618 19 is_stmt 0 view .LVU1028
 3112 0014 334B     		ldr	r3, .L210+8
 3113              		.loc 1 620 19 view .LVU1029
 3114 0016 85F82040 		strb	r4, [r5, #32]
 3115              		.loc 1 634 3 view .LVU1030
 3116 001a 0A21     		movs	r1, #10
 3117              		.loc 1 618 19 view .LVU1031
 3118 001c EB61     		str	r3, [r5, #28]
 3119              		.loc 1 620 3 is_stmt 1 view .LVU1032
 3120              		.loc 1 622 3 view .LVU1033
 3121              		.loc 1 623 3 view .LVU1034
 3122              		.loc 1 634 3 is_stmt 0 view .LVU1035
 3123 001e 2320     		movs	r0, #35
 3124              		.loc 1 622 19 view .LVU1036
 3125 0020 6C62     		str	r4, [r5, #36]
 3126              		.loc 1 629 19 view .LVU1037
 3127 0022 2F63     		str	r7, [r5, #48]
 3128              		.loc 1 705 3 view .LVU1038
 3129 0024 304E     		ldr	r6, .L210+12
 3130              		.loc 1 624 19 view .LVU1039
 3131 0026 C5E90A48 		strd	r4, r8, [r5, #40]
 3132              		.loc 1 629 3 is_stmt 1 view .LVU1040
 3133              		.loc 1 634 3 view .LVU1041
ARM GAS  C:\Users\DEVELO~1\AppData\Local\Temp\ccJK6Gr9.s 			page 56


 3134              		.loc 1 639 3 is_stmt 0 view .LVU1042
 3135 002a 304D     		ldr	r5, .L210+16
 3136              		.loc 1 634 3 view .LVU1043
 3137 002c FFF7FEFF 		bl	nvicEnableVector
 3138              	.LVL168:
 3139              		.loc 1 639 3 is_stmt 1 view .LVU1044
 3140 0030 2846     		mov	r0, r5
 3141 0032 FFF7FEFF 		bl	spiObjectInit
 3142              	.LVL169:
 3143              		.loc 1 640 3 view .LVU1045
 3144              		.loc 1 640 19 is_stmt 0 view .LVU1046
 3145 0036 2E4B     		ldr	r3, .L210+20
 3146              		.loc 1 642 19 view .LVU1047
 3147 0038 85F82040 		strb	r4, [r5, #32]
 3148              		.loc 1 656 3 view .LVU1048
 3149 003c 0A21     		movs	r1, #10
 3150              		.loc 1 640 19 view .LVU1049
 3151 003e EB61     		str	r3, [r5, #28]
 3152              		.loc 1 642 3 is_stmt 1 view .LVU1050
 3153              		.loc 1 644 3 view .LVU1051
 3154              		.loc 1 645 3 view .LVU1052
 3155              		.loc 1 656 3 is_stmt 0 view .LVU1053
 3156 0040 2420     		movs	r0, #36
 3157              		.loc 1 644 19 view .LVU1054
 3158 0042 6C62     		str	r4, [r5, #36]
 3159              		.loc 1 651 19 view .LVU1055
 3160 0044 2F63     		str	r7, [r5, #48]
 3161              		.loc 1 646 19 view .LVU1056
 3162 0046 C5E90A48 		strd	r4, r8, [r5, #40]
 3163              		.loc 1 651 3 is_stmt 1 view .LVU1057
 3164              		.loc 1 656 3 view .LVU1058
 3165              		.loc 1 661 3 is_stmt 0 view .LVU1059
 3166 004a 2A4D     		ldr	r5, .L210+24
 3167              		.loc 1 656 3 view .LVU1060
 3168 004c FFF7FEFF 		bl	nvicEnableVector
 3169              	.LVL170:
 3170              		.loc 1 661 3 is_stmt 1 view .LVU1061
 3171 0050 2846     		mov	r0, r5
 3172 0052 FFF7FEFF 		bl	spiObjectInit
 3173              	.LVL171:
 3174              		.loc 1 662 3 view .LVU1062
 3175              		.loc 1 662 19 is_stmt 0 view .LVU1063
 3176 0056 284B     		ldr	r3, .L210+28
 3177              		.loc 1 664 19 view .LVU1064
 3178 0058 85F82040 		strb	r4, [r5, #32]
 3179              		.loc 1 678 3 view .LVU1065
 3180 005c 0A21     		movs	r1, #10
 3181              		.loc 1 662 19 view .LVU1066
 3182 005e EB61     		str	r3, [r5, #28]
 3183              		.loc 1 664 3 is_stmt 1 view .LVU1067
 3184              		.loc 1 666 3 view .LVU1068
 3185              		.loc 1 667 3 view .LVU1069
 3186              		.loc 1 678 3 is_stmt 0 view .LVU1070
 3187 0060 3320     		movs	r0, #51
 3188              		.loc 1 666 19 view .LVU1071
 3189 0062 6C62     		str	r4, [r5, #36]
 3190              		.loc 1 673 19 view .LVU1072
ARM GAS  C:\Users\DEVELO~1\AppData\Local\Temp\ccJK6Gr9.s 			page 57


 3191 0064 2F63     		str	r7, [r5, #48]
 3192              		.loc 1 668 19 view .LVU1073
 3193 0066 C5E90A48 		strd	r4, r8, [r5, #40]
 3194              		.loc 1 673 3 is_stmt 1 view .LVU1074
 3195              		.loc 1 678 3 view .LVU1075
 3196              		.loc 1 683 3 is_stmt 0 view .LVU1076
 3197 006a 244D     		ldr	r5, .L210+32
 3198              		.loc 1 678 3 view .LVU1077
 3199 006c FFF7FEFF 		bl	nvicEnableVector
 3200              	.LVL172:
 3201              		.loc 1 683 3 is_stmt 1 view .LVU1078
 3202 0070 2846     		mov	r0, r5
 3203 0072 FFF7FEFF 		bl	spiObjectInit
 3204              	.LVL173:
 3205              		.loc 1 684 3 view .LVU1079
 3206              		.loc 1 684 19 is_stmt 0 view .LVU1080
 3207 0076 224B     		ldr	r3, .L210+36
 3208              		.loc 1 700 3 view .LVU1081
 3209 0078 0A21     		movs	r1, #10
 3210 007a 5420     		movs	r0, #84
 3211              		.loc 1 684 19 view .LVU1082
 3212 007c EB61     		str	r3, [r5, #28]
 3213              		.loc 1 686 3 is_stmt 1 view .LVU1083
 3214              		.loc 1 688 3 view .LVU1084
 3215              		.loc 1 689 3 view .LVU1085
 3216              		.loc 1 686 19 is_stmt 0 view .LVU1086
 3217 007e 85F82040 		strb	r4, [r5, #32]
 3218              		.loc 1 688 19 view .LVU1087
 3219 0082 6C62     		str	r4, [r5, #36]
 3220              		.loc 1 695 19 view .LVU1088
 3221 0084 2F63     		str	r7, [r5, #48]
 3222              		.loc 1 690 19 view .LVU1089
 3223 0086 C5E90A48 		strd	r4, r8, [r5, #40]
 3224              		.loc 1 695 3 is_stmt 1 view .LVU1090
 3225              		.loc 1 700 3 view .LVU1091
 3226 008a FFF7FEFF 		bl	nvicEnableVector
 3227              	.LVL174:
 3228              		.loc 1 705 3 view .LVU1092
 3229 008e 3046     		mov	r0, r6
 3230 0090 FFF7FEFF 		bl	spiObjectInit
 3231              	.LVL175:
 3232              		.loc 1 706 3 view .LVU1093
 3233              		.loc 1 727 3 is_stmt 0 view .LVU1094
 3234 0094 1B4D     		ldr	r5, .L210+40
 3235              		.loc 1 706 19 view .LVU1095
 3236 0096 1C4B     		ldr	r3, .L210+44
 3237              		.loc 1 722 3 view .LVU1096
 3238 0098 0A21     		movs	r1, #10
 3239 009a 5520     		movs	r0, #85
 3240              		.loc 1 708 19 view .LVU1097
 3241 009c 86F82040 		strb	r4, [r6, #32]
 3242              		.loc 1 706 19 view .LVU1098
 3243 00a0 F361     		str	r3, [r6, #28]
 3244              		.loc 1 708 3 is_stmt 1 view .LVU1099
 3245              		.loc 1 710 3 view .LVU1100
 3246              		.loc 1 711 3 view .LVU1101
 3247              		.loc 1 710 19 is_stmt 0 view .LVU1102
ARM GAS  C:\Users\DEVELO~1\AppData\Local\Temp\ccJK6Gr9.s 			page 58


 3248 00a2 7462     		str	r4, [r6, #36]
 3249              		.loc 1 717 19 view .LVU1103
 3250 00a4 3763     		str	r7, [r6, #48]
 3251              		.loc 1 712 19 view .LVU1104
 3252 00a6 C6E90A48 		strd	r4, r8, [r6, #40]
 3253              		.loc 1 717 3 is_stmt 1 view .LVU1105
 3254              		.loc 1 722 3 view .LVU1106
 3255 00aa FFF7FEFF 		bl	nvicEnableVector
 3256              	.LVL176:
 3257              		.loc 1 727 3 view .LVU1107
 3258 00ae 2846     		mov	r0, r5
 3259 00b0 FFF7FEFF 		bl	spiObjectInit
 3260              	.LVL177:
 3261              		.loc 1 728 3 view .LVU1108
 3262              		.loc 1 730 19 is_stmt 0 view .LVU1109
 3263 00b4 0123     		movs	r3, #1
 3264              		.loc 1 728 19 view .LVU1110
 3265 00b6 1549     		ldr	r1, .L210+48
 3266              		.loc 1 734 19 view .LVU1111
 3267 00b8 41F20A02 		movw	r2, #4106
 3268              		.loc 1 730 19 view .LVU1112
 3269 00bc 85F82030 		strb	r3, [r5, #32]
 3270              		.loc 1 738 19 view .LVU1113
 3271 00c0 41F21803 		movw	r3, #4120
 3272              		.loc 1 728 19 view .LVU1114
 3273 00c4 E961     		str	r1, [r5, #28]
 3274              		.loc 1 730 3 is_stmt 1 view .LVU1115
 3275              		.loc 1 732 3 view .LVU1116
 3276              		.loc 1 733 3 view .LVU1117
 3277              		.loc 1 742 3 is_stmt 0 view .LVU1118
 3278 00c6 5620     		movs	r0, #86
 3279              		.loc 1 732 19 view .LVU1119
 3280 00c8 6C62     		str	r4, [r5, #36]
 3281              		.loc 1 742 3 view .LVU1120
 3282 00ca 0A21     		movs	r1, #10
 3283              		.loc 1 738 19 view .LVU1121
 3284 00cc 2B63     		str	r3, [r5, #48]
 3285              		.loc 1 734 19 view .LVU1122
 3286 00ce C5E90A42 		strd	r4, r2, [r5, #40]
 3287              		.loc 1 738 3 is_stmt 1 view .LVU1123
 3288              		.loc 1 742 3 view .LVU1124
 3289              		.loc 1 745 1 is_stmt 0 view .LVU1125
 3290 00d2 BDE8F041 		pop	{r4, r5, r6, r7, r8, lr}
 3291              		.cfi_restore 14
 3292              		.cfi_restore 8
 3293              		.cfi_restore 7
 3294              		.cfi_restore 6
 3295              		.cfi_restore 5
 3296              		.cfi_restore 4
 3297              		.cfi_def_cfa_offset 0
 3298              		.loc 1 742 3 view .LVU1126
 3299 00d6 FFF7FEBF 		b	nvicEnableVector
 3300              	.LVL178:
 3301              	.L211:
 3302 00da 00BF     		.align	2
 3303              	.L210:
 3304 00dc 00000000 		.word	.LANCHOR0
ARM GAS  C:\Users\DEVELO~1\AppData\Local\Temp\ccJK6Gr9.s 			page 59


 3305 00e0 46000100 		.word	65606
 3306 00e4 00300140 		.word	1073819648
 3307 00e8 00000000 		.word	.LANCHOR4
 3308 00ec 00000000 		.word	.LANCHOR1
 3309 00f0 00380040 		.word	1073756160
 3310 00f4 00000000 		.word	.LANCHOR2
 3311 00f8 003C0040 		.word	1073757184
 3312 00fc 00000000 		.word	.LANCHOR3
 3313 0100 00340140 		.word	1073820672
 3314 0104 00000000 		.word	.LANCHOR5
 3315 0108 00500140 		.word	1073827840
 3316 010c 00140058 		.word	1476400128
 3317 0110 16000100 		.word	65558
 3318              		.cfi_endproc
 3319              	.LFE466:
 3320              		.size	spi_lld_init, .-spi_lld_init
 3321              		.section	.text.spi_lld_start,"ax",%progbits
 3322              		.align	1
 3323              		.p2align 2,,3
 3324              		.global	spi_lld_start
 3325              		.syntax unified
 3326              		.thumb
 3327              		.thumb_func
 3328              		.type	spi_lld_start, %function
 3329              	spi_lld_start:
 3330              	.LVL179:
 3331              	.LFB467:
 3332              		.loc 1 755 38 is_stmt 1 view -0
 3333              		.cfi_startproc
 3334              		@ args = 0, pretend = 0, frame = 0
 3335              		@ frame_needed = 0, uses_anonymous_args = 0
 3336              		.loc 1 756 3 view .LVU1128
 3337              		.loc 1 757 3 view .LVU1129
 3338              		.loc 1 760 3 view .LVU1130
 3339              		.loc 1 755 38 is_stmt 0 view .LVU1131
 3340 0000 10B5     		push	{r4, lr}
 3341              		.cfi_def_cfa_offset 8
 3342              		.cfi_offset 4, -8
 3343              		.cfi_offset 14, -4
 3344              		.loc 1 763 6 view .LVU1132
 3345 0002 0378     		ldrb	r3, [r0]	@ zero_extendqisi2
 3346              		.loc 1 760 18 view .LVU1133
 3347 0004 4FF0FF32 		mov	r2, #-1
 3348              		.loc 1 755 38 view .LVU1134
 3349 0008 0446     		mov	r4, r0
 3350              		.loc 1 763 6 view .LVU1135
 3351 000a 012B     		cmp	r3, #1
 3352              		.loc 1 760 18 view .LVU1136
 3353 000c 8263     		str	r2, [r0, #56]
 3354              		.loc 1 763 3 is_stmt 1 view .LVU1137
 3355              		.loc 1 763 6 is_stmt 0 view .LVU1138
 3356 000e 20D0     		beq	.L264
 3357              		.loc 1 892 61 is_stmt 1 discriminator 1 view .LVU1139
 3358              		.loc 1 898 3 discriminator 1 view .LVU1140
 3359              		.loc 1 898 16 is_stmt 0 discriminator 1 view .LVU1141
 3360 0010 4068     		ldr	r0, [r0, #4]
 3361              	.LVL180:
ARM GAS  C:\Users\DEVELO~1\AppData\Local\Temp\ccJK6Gr9.s 			page 60


 3362              		.loc 1 900 6 discriminator 1 view .LVU1142
 3363 0012 94F82020 		ldrb	r2, [r4, #32]	@ zero_extendqisi2
 3364              		.loc 1 898 31 discriminator 1 view .LVU1143
 3365 0016 4369     		ldr	r3, [r0, #20]
 3366 0018 03F01F03 		and	r3, r3, #31
 3367              		.loc 1 898 9 discriminator 1 view .LVU1144
 3368 001c 0133     		adds	r3, r3, #1
 3369              	.LVL181:
 3370              		.loc 1 900 3 is_stmt 1 discriminator 1 view .LVU1145
 3371              		.loc 1 900 6 is_stmt 0 discriminator 1 view .LVU1146
 3372 001e 002A     		cmp	r2, #0
 3373 0020 7BD1     		bne	.L230
 3374              	.L231:
 3375              		.loc 1 940 5 is_stmt 1 view .LVU1147
 3376              		.loc 1 940 8 is_stmt 0 view .LVU1148
 3377 0022 082B     		cmp	r3, #8
 3378              		.loc 1 943 49 view .LVU1149
 3379 0024 E26A     		ldr	r2, [r4, #44]
 3380              		.loc 1 940 8 view .LVU1150
 3381 0026 00F29D80 		bhi	.L237
 3382              		.loc 1 942 7 is_stmt 1 view .LVU1151
 3383              		.loc 1 945 49 is_stmt 0 view .LVU1152
 3384 002a 236B     		ldr	r3, [r4, #48]
 3385              	.LVL182:
 3386              		.loc 1 943 49 view .LVU1153
 3387 002c 22F4F042 		bic	r2, r2, #30720
 3388              		.loc 1 944 7 is_stmt 1 view .LVU1154
 3389              		.loc 1 945 49 is_stmt 0 view .LVU1155
 3390 0030 23F4F043 		bic	r3, r3, #30720
 3391              	.L238:
 3392              		.loc 1 961 5 is_stmt 1 view .LVU1156
 3393              		.loc 1 961 8 is_stmt 0 view .LVU1157
 3394 0034 0178     		ldrb	r1, [r0]	@ zero_extendqisi2
 3395 0036 0029     		cmp	r1, #0
 3396 0038 00F08F80 		beq	.L240
 3397              		.loc 1 962 7 is_stmt 1 view .LVU1158
 3398              		.loc 1 962 23 is_stmt 0 view .LVU1159
 3399 003c 42F48472 		orr	r2, r2, #264
 3400              		.loc 1 963 7 is_stmt 1 view .LVU1160
 3401              		.loc 1 963 23 is_stmt 0 view .LVU1161
 3402 0040 43F48473 		orr	r3, r3, #264
 3403              	.L236:
 3404              		.loc 1 973 3 view .LVU1162
 3405 0044 E169     		ldr	r1, [r4, #28]
 3406              		.loc 1 931 23 view .LVU1163
 3407 0046 C4E90B23 		strd	r2, r3, [r4, #44]
 3408              		.loc 1 973 3 is_stmt 1 view .LVU1164
 3409 004a FFF7FEFF 		bl	spi_lld_configure.isra.0
 3410              	.LVL183:
 3411              		.loc 1 975 3 view .LVU1165
 3412              		.loc 1 975 10 is_stmt 0 view .LVU1166
 3413 004e 0020     		movs	r0, #0
 3414              		.loc 1 976 1 view .LVU1167
 3415 0050 10BD     		pop	{r4, pc}
 3416              	.LVL184:
 3417              	.L264:
 3418              		.loc 1 766 5 is_stmt 1 view .LVU1168
ARM GAS  C:\Users\DEVELO~1\AppData\Local\Temp\ccJK6Gr9.s 			page 61


 3419              		.loc 1 770 10 view .LVU1169
 3420              		.loc 1 770 13 is_stmt 0 view .LVU1170
 3421 0052 C84B     		ldr	r3, .L271
 3422 0054 9842     		cmp	r0, r3
 3423 0056 00F0A680 		beq	.L265
 3424              		.loc 1 787 10 is_stmt 1 view .LVU1171
 3425              		.loc 1 787 13 is_stmt 0 view .LVU1172
 3426 005a C74B     		ldr	r3, .L271+4
 3427 005c 9842     		cmp	r0, r3
 3428 005e 00F01681 		beq	.L266
 3429              		.loc 1 804 10 is_stmt 1 view .LVU1173
 3430              		.loc 1 804 13 is_stmt 0 view .LVU1174
 3431 0062 C64B     		ldr	r3, .L271+8
 3432 0064 9842     		cmp	r0, r3
 3433 0066 00F0D880 		beq	.L267
 3434              		.loc 1 821 10 is_stmt 1 view .LVU1175
 3435              		.loc 1 821 13 is_stmt 0 view .LVU1176
 3436 006a C54B     		ldr	r3, .L271+12
 3437 006c 9842     		cmp	r0, r3
 3438 006e 00F04881 		beq	.L268
 3439              		.loc 1 838 10 is_stmt 1 view .LVU1177
 3440              		.loc 1 838 13 is_stmt 0 view .LVU1178
 3441 0072 C44B     		ldr	r3, .L271+16
 3442 0074 9842     		cmp	r0, r3
 3443 0076 00F09381 		beq	.L269
 3444              		.loc 1 855 10 is_stmt 1 view .LVU1179
 3445              		.loc 1 855 13 is_stmt 0 view .LVU1180
 3446 007a C34B     		ldr	r3, .L271+20
 3447 007c 9842     		cmp	r0, r3
 3448 007e 40F0C581 		bne	.L241
 3449              		.loc 1 856 7 is_stmt 1 view .LVU1181
 3450              	.LBB725:
 3451              	.LBI725:
 3452              		.loc 1 453 14 view .LVU1182
 3453              	.LVL185:
 3454              	.LBB726:
 3455              		.loc 1 456 3 view .LVU1183
 3456              		.loc 1 456 19 is_stmt 0 view .LVU1184
 3457 0082 0346     		mov	r3, r0
 3458 0084 C14A     		ldr	r2, .L271+24
 3459 0086 0A21     		movs	r1, #10
 3460 0088 0820     		movs	r0, #8
 3461              	.LVL186:
 3462              		.loc 1 456 19 view .LVU1185
 3463 008a FFF7FEFF 		bl	bdmaStreamAllocI
 3464              	.LVL187:
 3465              		.loc 1 456 17 view .LVU1186
 3466 008e 6062     		str	r0, [r4, #36]
 3467              		.loc 1 459 3 is_stmt 1 view .LVU1187
 3468              		.loc 1 459 6 is_stmt 0 view .LVU1188
 3469 0090 0028     		cmp	r0, #0
 3470 0092 00F0C181 		beq	.L261
 3471              		.loc 1 463 3 is_stmt 1 view .LVU1189
 3472              		.loc 1 463 19 is_stmt 0 view .LVU1190
 3473 0096 2346     		mov	r3, r4
 3474 0098 BD4A     		ldr	r2, .L271+28
 3475 009a 0A21     		movs	r1, #10
ARM GAS  C:\Users\DEVELO~1\AppData\Local\Temp\ccJK6Gr9.s 			page 62


 3476 009c 0820     		movs	r0, #8
 3477 009e FFF7FEFF 		bl	bdmaStreamAllocI
 3478              	.LVL188:
 3479              		.loc 1 463 17 view .LVU1191
 3480 00a2 A062     		str	r0, [r4, #40]
 3481              		.loc 1 466 3 is_stmt 1 view .LVU1192
 3482              		.loc 1 466 6 is_stmt 0 view .LVU1193
 3483 00a4 0028     		cmp	r0, #0
 3484 00a6 00F0B481 		beq	.L270
 3485              	.LVL189:
 3486              		.loc 1 466 6 view .LVU1194
 3487              	.LBE726:
 3488              	.LBE725:
 3489              		.loc 1 860 7 is_stmt 1 view .LVU1195
 3490              		.loc 1 863 7 view .LVU1196
 3491 00aa 0B21     		movs	r1, #11
 3492 00ac 606A     		ldr	r0, [r4, #36]
 3493 00ae FFF7FEFF 		bl	bdmaSetRequestSource
 3494              	.LVL190:
 3495              		.loc 1 864 7 view .LVU1197
 3496 00b2 0C21     		movs	r1, #12
 3497 00b4 A06A     		ldr	r0, [r4, #40]
 3498 00b6 FFF7FEFF 		bl	bdmaSetRequestSource
 3499              	.LVL191:
 3500              		.loc 1 866 7 view .LVU1198
 3501              	.LBB729:
 3502              	.LBI729:
 3503              		.loc 2 497 22 view .LVU1199
 3504              	.LBB730:
 3505              		.loc 2 501 3 view .LVU1200
 3506              		.loc 2 501 19 is_stmt 0 view .LVU1201
 3507 00ba B64B     		ldr	r3, .L271+32
 3508 00bc D3F8F420 		ldr	r2, [r3, #244]
 3509 00c0 42F02002 		orr	r2, r2, #32
 3510 00c4 C3F8F420 		str	r2, [r3, #244]
 3511              		.loc 2 502 3 is_stmt 1 view .LVU1202
 3512              		.loc 2 503 5 view .LVU1203
 3513              		.loc 2 503 23 is_stmt 0 view .LVU1204
 3514 00c8 D3F81C21 		ldr	r2, [r3, #284]
 3515 00cc 42F02002 		orr	r2, r2, #32
 3516 00d0 C3F81C21 		str	r2, [r3, #284]
 3517              		.loc 2 508 3 is_stmt 1 view .LVU1205
 3518 00d4 D3F81C21 		ldr	r2, [r3, #284]
 3519              	.LVL192:
 3520              		.loc 2 508 3 is_stmt 0 view .LVU1206
 3521              	.LBE730:
 3522              	.LBE729:
 3523              		.loc 1 867 7 is_stmt 1 view .LVU1207
 3524              	.LBB731:
 3525              	.LBI731:
 3526              		.loc 2 563 22 view .LVU1208
 3527              	.LBB732:
 3528              		.loc 2 575 3 view .LVU1209
 3529              	.LBB733:
 3530              	.LBI733:
 3531              		.loc 2 89 22 view .LVU1210
 3532              	.LBB734:
ARM GAS  C:\Users\DEVELO~1\AppData\Local\Temp\ccJK6Gr9.s 			page 63


 3533              		.loc 2 92 3 view .LVU1211
 3534              		.loc 2 92 17 is_stmt 0 view .LVU1212
 3535 00d8 D3F89C20 		ldr	r2, [r3, #156]
 3536 00dc 42F02002 		orr	r2, r2, #32
 3537 00e0 C3F89C20 		str	r2, [r3, #156]
 3538              		.loc 2 93 3 is_stmt 1 view .LVU1213
 3539              		.loc 2 93 17 is_stmt 0 view .LVU1214
 3540 00e4 D3F89C20 		ldr	r2, [r3, #156]
 3541 00e8 22F02002 		bic	r2, r2, #32
 3542 00ec C3F89C20 		str	r2, [r3, #156]
 3543              		.loc 2 94 3 is_stmt 1 view .LVU1215
 3544 00f0 D3F89C30 		ldr	r3, [r3, #156]
 3545              	.LVL193:
 3546              	.L218:
 3547              		.loc 2 94 3 is_stmt 0 view .LVU1216
 3548              	.LBE734:
 3549              	.LBE733:
 3550              	.LBE732:
 3551              	.LBE731:
 3552              		.loc 1 878 5 is_stmt 1 view .LVU1217
 3553              		.loc 1 882 7 is_stmt 0 view .LVU1218
 3554 00f4 E269     		ldr	r2, [r4, #28]
 3555              		.loc 1 878 8 view .LVU1219
 3556 00f6 94F82030 		ldrb	r3, [r4, #32]	@ zero_extendqisi2
 3557              		.loc 1 882 7 view .LVU1220
 3558 00fa 02F13001 		add	r1, r2, #48
 3559              		.loc 1 898 16 view .LVU1221
 3560 00fe 6068     		ldr	r0, [r4, #4]
 3561              		.loc 1 883 7 view .LVU1222
 3562 0100 2032     		adds	r2, r2, #32
 3563              		.loc 1 878 8 view .LVU1223
 3564 0102 002B     		cmp	r3, #0
 3565 0104 44D0     		beq	.L229
 3566              		.loc 1 882 7 is_stmt 1 view .LVU1224
 3567 0106 636A     		ldr	r3, [r4, #36]
 3568 0108 5B68     		ldr	r3, [r3, #4]
 3569 010a 9960     		str	r1, [r3, #8]
 3570              		.loc 1 882 63 view .LVU1225
 3571              		.loc 1 883 7 view .LVU1226
 3572              		.loc 1 898 31 is_stmt 0 view .LVU1227
 3573 010c 4369     		ldr	r3, [r0, #20]
 3574              		.loc 1 883 7 view .LVU1228
 3575 010e A16A     		ldr	r1, [r4, #40]
 3576              		.loc 1 898 31 view .LVU1229
 3577 0110 03F01F03 		and	r3, r3, #31
 3578              		.loc 1 883 7 view .LVU1230
 3579 0114 4968     		ldr	r1, [r1, #4]
 3580              		.loc 1 898 9 view .LVU1231
 3581 0116 0133     		adds	r3, r3, #1
 3582              		.loc 1 883 7 view .LVU1232
 3583 0118 8A60     		str	r2, [r1, #8]
 3584              		.loc 1 883 63 is_stmt 1 view .LVU1233
 3585              		.loc 1 892 61 view .LVU1234
 3586              		.loc 1 898 3 view .LVU1235
 3587              	.LVL194:
 3588              		.loc 1 900 3 view .LVU1236
 3589              	.L230:
ARM GAS  C:\Users\DEVELO~1\AppData\Local\Temp\ccJK6Gr9.s 			page 64


 3590              		.loc 1 904 5 view .LVU1237
 3591              		.loc 1 904 8 is_stmt 0 view .LVU1238
 3592 011a 082B     		cmp	r3, #8
 3593              		.loc 1 907 50 view .LVU1239
 3594 011c E26A     		ldr	r2, [r4, #44]
 3595              		.loc 1 904 8 view .LVU1240
 3596 011e 10D8     		bhi	.L232
 3597              		.loc 1 906 7 is_stmt 1 view .LVU1241
 3598              		.loc 1 909 50 is_stmt 0 view .LVU1242
 3599 0120 236B     		ldr	r3, [r4, #48]
 3600              	.LVL195:
 3601              		.loc 1 907 50 view .LVU1243
 3602 0122 22F47062 		bic	r2, r2, #3840
 3603              		.loc 1 908 7 is_stmt 1 view .LVU1244
 3604              		.loc 1 909 50 is_stmt 0 view .LVU1245
 3605 0126 23F47063 		bic	r3, r3, #3840
 3606              	.L233:
 3607              		.loc 1 925 5 is_stmt 1 view .LVU1246
 3608              		.loc 1 925 8 is_stmt 0 view .LVU1247
 3609 012a 0178     		ldrb	r1, [r0]	@ zero_extendqisi2
 3610 012c 21B1     		cbz	r1, .L235
 3611              		.loc 1 926 7 is_stmt 1 view .LVU1248
 3612              		.loc 1 926 23 is_stmt 0 view .LVU1249
 3613 012e 42F02402 		orr	r2, r2, #36
 3614              		.loc 1 927 7 is_stmt 1 view .LVU1250
 3615              		.loc 1 927 23 is_stmt 0 view .LVU1251
 3616 0132 43F02403 		orr	r3, r3, #36
 3617 0136 85E7     		b	.L236
 3618              	.L235:
 3619              		.loc 1 930 7 is_stmt 1 view .LVU1252
 3620              		.loc 1 930 23 is_stmt 0 view .LVU1253
 3621 0138 22F02402 		bic	r2, r2, #36
 3622              		.loc 1 931 7 is_stmt 1 view .LVU1254
 3623              		.loc 1 931 23 is_stmt 0 view .LVU1255
 3624 013c 23F02403 		bic	r3, r3, #36
 3625 0140 80E7     		b	.L236
 3626              	.LVL196:
 3627              	.L232:
 3628              		.loc 1 911 10 is_stmt 1 view .LVU1256
 3629              		.loc 1 911 13 is_stmt 0 view .LVU1257
 3630 0142 102B     		cmp	r3, #16
 3631              		.loc 1 915 42 view .LVU1258
 3632 0144 236B     		ldr	r3, [r4, #48]
 3633              	.LVL197:
 3634              		.loc 1 913 42 view .LVU1259
 3635 0146 22F47062 		bic	r2, r2, #3840
 3636              		.loc 1 915 42 view .LVU1260
 3637 014a 23F47063 		bic	r3, r3, #3840
 3638              		.loc 1 911 13 view .LVU1261
 3639 014e 1AD8     		bhi	.L234
 3640              		.loc 1 913 7 is_stmt 1 view .LVU1262
 3641              		.loc 1 914 51 is_stmt 0 view .LVU1263
 3642 0150 42F4A062 		orr	r2, r2, #1280
 3643              		.loc 1 915 7 is_stmt 1 view .LVU1264
 3644              		.loc 1 916 51 is_stmt 0 view .LVU1265
 3645 0154 43F4A063 		orr	r3, r3, #1280
 3646 0158 E7E7     		b	.L233
ARM GAS  C:\Users\DEVELO~1\AppData\Local\Temp\ccJK6Gr9.s 			page 65


 3647              	.L240:
 3648              		.loc 1 966 7 is_stmt 1 view .LVU1266
 3649              		.loc 1 966 23 is_stmt 0 view .LVU1267
 3650 015a 22F48472 		bic	r2, r2, #264
 3651              		.loc 1 967 7 is_stmt 1 view .LVU1268
 3652              		.loc 1 967 23 is_stmt 0 view .LVU1269
 3653 015e 23F48473 		bic	r3, r3, #264
 3654 0162 6FE7     		b	.L236
 3655              	.LVL198:
 3656              	.L237:
 3657              		.loc 1 947 10 is_stmt 1 view .LVU1270
 3658              		.loc 1 947 13 is_stmt 0 view .LVU1271
 3659 0164 102B     		cmp	r3, #16
 3660              		.loc 1 951 42 view .LVU1272
 3661 0166 236B     		ldr	r3, [r4, #48]
 3662              	.LVL199:
 3663              		.loc 1 949 42 view .LVU1273
 3664 0168 22F4F042 		bic	r2, r2, #30720
 3665              		.loc 1 951 42 view .LVU1274
 3666 016c 23F4F043 		bic	r3, r3, #30720
 3667              		.loc 1 947 13 view .LVU1275
 3668 0170 04D8     		bhi	.L239
 3669              		.loc 1 949 7 is_stmt 1 view .LVU1276
 3670              		.loc 1 950 50 is_stmt 0 view .LVU1277
 3671 0172 42F42052 		orr	r2, r2, #10240
 3672              		.loc 1 951 7 is_stmt 1 view .LVU1278
 3673              		.loc 1 952 50 is_stmt 0 view .LVU1279
 3674 0176 43F42053 		orr	r3, r3, #10240
 3675 017a 5BE7     		b	.L238
 3676              	.L239:
 3677              		.loc 1 956 7 is_stmt 1 view .LVU1280
 3678              		.loc 1 957 49 is_stmt 0 view .LVU1281
 3679 017c 42F4A042 		orr	r2, r2, #20480
 3680              		.loc 1 958 7 is_stmt 1 view .LVU1282
 3681              		.loc 1 959 49 is_stmt 0 view .LVU1283
 3682 0180 43F4A043 		orr	r3, r3, #20480
 3683 0184 56E7     		b	.L238
 3684              	.L234:
 3685              		.loc 1 920 7 is_stmt 1 view .LVU1284
 3686              		.loc 1 921 50 is_stmt 0 view .LVU1285
 3687 0186 42F42062 		orr	r2, r2, #2560
 3688              		.loc 1 922 7 is_stmt 1 view .LVU1286
 3689              		.loc 1 923 50 is_stmt 0 view .LVU1287
 3690 018a 43F42063 		orr	r3, r3, #2560
 3691 018e CCE7     		b	.L233
 3692              	.LVL200:
 3693              	.L229:
 3694              		.loc 1 891 7 is_stmt 1 view .LVU1288
 3695 0190 636A     		ldr	r3, [r4, #36]
 3696 0192 1B68     		ldr	r3, [r3]
 3697 0194 9960     		str	r1, [r3, #8]
 3698              		.loc 1 891 61 view .LVU1289
 3699              		.loc 1 892 7 view .LVU1290
 3700 0196 A16A     		ldr	r1, [r4, #40]
 3701              		.loc 1 898 31 is_stmt 0 view .LVU1291
 3702 0198 4369     		ldr	r3, [r0, #20]
 3703              		.loc 1 892 7 view .LVU1292
ARM GAS  C:\Users\DEVELO~1\AppData\Local\Temp\ccJK6Gr9.s 			page 66


 3704 019a 0968     		ldr	r1, [r1]
 3705              		.loc 1 898 31 view .LVU1293
 3706 019c 03F01F03 		and	r3, r3, #31
 3707              		.loc 1 892 7 view .LVU1294
 3708 01a0 8A60     		str	r2, [r1, #8]
 3709              		.loc 1 892 61 is_stmt 1 view .LVU1295
 3710              		.loc 1 898 3 view .LVU1296
 3711              		.loc 1 898 9 is_stmt 0 view .LVU1297
 3712 01a2 0133     		adds	r3, r3, #1
 3713              	.LVL201:
 3714              		.loc 1 900 3 is_stmt 1 view .LVU1298
 3715 01a4 3DE7     		b	.L231
 3716              	.LVL202:
 3717              	.L265:
 3718              		.loc 1 771 7 view .LVU1299
 3719              	.LBB735:
 3720              	.LBI735:
 3721              		.loc 1 421 14 view .LVU1300
 3722              	.LBB736:
 3723              		.loc 1 424 3 view .LVU1301
 3724              		.loc 1 424 18 is_stmt 0 view .LVU1302
 3725 01a6 0346     		mov	r3, r0
 3726 01a8 7B4A     		ldr	r2, .L271+36
 3727 01aa 0A21     		movs	r1, #10
 3728 01ac 1020     		movs	r0, #16
 3729              	.LVL203:
 3730              		.loc 1 424 18 view .LVU1303
 3731 01ae FFF7FEFF 		bl	dmaStreamAllocI
 3732              	.LVL204:
 3733              		.loc 1 424 16 view .LVU1304
 3734 01b2 6062     		str	r0, [r4, #36]
 3735              		.loc 1 427 3 is_stmt 1 view .LVU1305
 3736              		.loc 1 427 6 is_stmt 0 view .LVU1306
 3737 01b4 0028     		cmp	r0, #0
 3738 01b6 00F02F81 		beq	.L261
 3739              		.loc 1 431 3 is_stmt 1 view .LVU1307
 3740              		.loc 1 431 18 is_stmt 0 view .LVU1308
 3741 01ba 2346     		mov	r3, r4
 3742 01bc 774A     		ldr	r2, .L271+40
 3743 01be 0A21     		movs	r1, #10
 3744 01c0 1020     		movs	r0, #16
 3745 01c2 FFF7FEFF 		bl	dmaStreamAllocI
 3746              	.LVL205:
 3747              		.loc 1 431 16 view .LVU1309
 3748 01c6 A062     		str	r0, [r4, #40]
 3749              		.loc 1 434 3 is_stmt 1 view .LVU1310
 3750              		.loc 1 434 6 is_stmt 0 view .LVU1311
 3751 01c8 0028     		cmp	r0, #0
 3752 01ca 00F02881 		beq	.L263
 3753              	.LVL206:
 3754              		.loc 1 434 6 view .LVU1312
 3755              	.LBE736:
 3756              	.LBE735:
 3757              		.loc 1 775 7 is_stmt 1 view .LVU1313
 3758              		.loc 1 778 7 view .LVU1314
 3759 01ce 2521     		movs	r1, #37
 3760 01d0 606A     		ldr	r0, [r4, #36]
ARM GAS  C:\Users\DEVELO~1\AppData\Local\Temp\ccJK6Gr9.s 			page 67


 3761 01d2 FFF7FEFF 		bl	dmaSetRequestSource
 3762              	.LVL207:
 3763              		.loc 1 779 7 view .LVU1315
 3764 01d6 2621     		movs	r1, #38
 3765 01d8 A06A     		ldr	r0, [r4, #40]
 3766 01da FFF7FEFF 		bl	dmaSetRequestSource
 3767              	.LVL208:
 3768              		.loc 1 781 7 view .LVU1316
 3769              	.LBB737:
 3770              	.LBI737:
 3771              		.loc 2 319 22 view .LVU1317
 3772              	.LBB738:
 3773              		.loc 2 323 3 view .LVU1318
 3774              		.loc 2 323 19 is_stmt 0 view .LVU1319
 3775 01de 6D4B     		ldr	r3, .L271+32
 3776 01e0 D3F8F020 		ldr	r2, [r3, #240]
 3777 01e4 42F48052 		orr	r2, r2, #4096
 3778 01e8 C3F8F020 		str	r2, [r3, #240]
 3779              		.loc 2 324 3 is_stmt 1 view .LVU1320
 3780              		.loc 2 325 5 view .LVU1321
 3781              		.loc 2 325 23 is_stmt 0 view .LVU1322
 3782 01ec D3F81821 		ldr	r2, [r3, #280]
 3783 01f0 42F48052 		orr	r2, r2, #4096
 3784 01f4 C3F81821 		str	r2, [r3, #280]
 3785              		.loc 2 330 3 is_stmt 1 view .LVU1323
 3786 01f8 D3F81821 		ldr	r2, [r3, #280]
 3787              	.LVL209:
 3788              		.loc 2 330 3 is_stmt 0 view .LVU1324
 3789              	.LBE738:
 3790              	.LBE737:
 3791              		.loc 1 782 7 is_stmt 1 view .LVU1325
 3792              	.LBB739:
 3793              	.LBI739:
 3794              		.loc 2 385 22 view .LVU1326
 3795              	.LBB740:
 3796              		.loc 2 397 3 view .LVU1327
 3797              	.LBB741:
 3798              	.LBI741:
 3799              		.loc 2 73 22 view .LVU1328
 3800              	.LBB742:
 3801              		.loc 2 76 3 view .LVU1329
 3802              		.loc 2 76 17 is_stmt 0 view .LVU1330
 3803 01fc D3F89820 		ldr	r2, [r3, #152]
 3804 0200 42F48052 		orr	r2, r2, #4096
 3805 0204 C3F89820 		str	r2, [r3, #152]
 3806              		.loc 2 77 3 is_stmt 1 view .LVU1331
 3807              		.loc 2 77 17 is_stmt 0 view .LVU1332
 3808 0208 D3F89820 		ldr	r2, [r3, #152]
 3809 020c 22F48052 		bic	r2, r2, #4096
 3810 0210 C3F89820 		str	r2, [r3, #152]
 3811              		.loc 2 78 3 is_stmt 1 view .LVU1333
 3812 0214 D3F89830 		ldr	r3, [r3, #152]
 3813              	.LVL210:
 3814              		.loc 2 78 3 is_stmt 0 view .LVU1334
 3815              	.LBE742:
 3816              	.LBE741:
 3817              		.loc 2 398 1 view .LVU1335
ARM GAS  C:\Users\DEVELO~1\AppData\Local\Temp\ccJK6Gr9.s 			page 68


 3818 0218 6CE7     		b	.L218
 3819              	.LVL211:
 3820              	.L267:
 3821              		.loc 2 398 1 view .LVU1336
 3822              	.LBE740:
 3823              	.LBE739:
 3824              		.loc 1 805 7 is_stmt 1 view .LVU1337
 3825              	.LBB743:
 3826              	.LBI743:
 3827              		.loc 1 421 14 view .LVU1338
 3828              	.LBB744:
 3829              		.loc 1 424 3 view .LVU1339
 3830              		.loc 1 424 18 is_stmt 0 view .LVU1340
 3831 021a 0346     		mov	r3, r0
 3832 021c 5E4A     		ldr	r2, .L271+36
 3833 021e 0A21     		movs	r1, #10
 3834 0220 1020     		movs	r0, #16
 3835              	.LVL212:
 3836              		.loc 1 424 18 view .LVU1341
 3837 0222 FFF7FEFF 		bl	dmaStreamAllocI
 3838              	.LVL213:
 3839              		.loc 1 424 16 view .LVU1342
 3840 0226 6062     		str	r0, [r4, #36]
 3841              		.loc 1 427 3 is_stmt 1 view .LVU1343
 3842              		.loc 1 427 6 is_stmt 0 view .LVU1344
 3843 0228 0028     		cmp	r0, #0
 3844 022a 00F0F580 		beq	.L261
 3845              		.loc 1 431 3 is_stmt 1 view .LVU1345
 3846              		.loc 1 431 18 is_stmt 0 view .LVU1346
 3847 022e 2346     		mov	r3, r4
 3848 0230 5A4A     		ldr	r2, .L271+40
 3849 0232 0A21     		movs	r1, #10
 3850 0234 1020     		movs	r0, #16
 3851 0236 FFF7FEFF 		bl	dmaStreamAllocI
 3852              	.LVL214:
 3853              		.loc 1 431 16 view .LVU1347
 3854 023a A062     		str	r0, [r4, #40]
 3855              		.loc 1 434 3 is_stmt 1 view .LVU1348
 3856              		.loc 1 434 6 is_stmt 0 view .LVU1349
 3857 023c 0028     		cmp	r0, #0
 3858 023e 00F0EE80 		beq	.L263
 3859              	.LVL215:
 3860              		.loc 1 434 6 view .LVU1350
 3861              	.LBE744:
 3862              	.LBE743:
 3863              		.loc 1 809 7 is_stmt 1 view .LVU1351
 3864              		.loc 1 812 7 view .LVU1352
 3865 0242 3D21     		movs	r1, #61
 3866 0244 606A     		ldr	r0, [r4, #36]
 3867 0246 FFF7FEFF 		bl	dmaSetRequestSource
 3868              	.LVL216:
 3869              		.loc 1 813 7 view .LVU1353
 3870 024a 3E21     		movs	r1, #62
 3871 024c A06A     		ldr	r0, [r4, #40]
 3872 024e FFF7FEFF 		bl	dmaSetRequestSource
 3873              	.LVL217:
 3874              		.loc 1 815 7 view .LVU1354
ARM GAS  C:\Users\DEVELO~1\AppData\Local\Temp\ccJK6Gr9.s 			page 69


 3875              	.LBB745:
 3876              	.LBI745:
 3877              		.loc 2 141 22 view .LVU1355
 3878              	.LBB746:
 3879              		.loc 2 145 3 view .LVU1356
 3880              		.loc 2 145 20 is_stmt 0 view .LVU1357
 3881 0252 504B     		ldr	r3, .L271+32
 3882 0254 D3F8E820 		ldr	r2, [r3, #232]
 3883 0258 42F40042 		orr	r2, r2, #32768
 3884 025c C3F8E820 		str	r2, [r3, #232]
 3885              		.loc 2 146 3 is_stmt 1 view .LVU1358
 3886              		.loc 2 147 5 view .LVU1359
 3887              		.loc 2 147 24 is_stmt 0 view .LVU1360
 3888 0260 D3F81021 		ldr	r2, [r3, #272]
 3889 0264 42F40042 		orr	r2, r2, #32768
 3890 0268 C3F81021 		str	r2, [r3, #272]
 3891              		.loc 2 152 3 is_stmt 1 view .LVU1361
 3892 026c D3F81021 		ldr	r2, [r3, #272]
 3893              	.LVL218:
 3894              		.loc 2 152 3 is_stmt 0 view .LVU1362
 3895              	.LBE746:
 3896              	.LBE745:
 3897              		.loc 1 816 7 is_stmt 1 view .LVU1363
 3898              	.LBB747:
 3899              	.LBI747:
 3900              		.loc 2 207 22 view .LVU1364
 3901              	.LBB748:
 3902              		.loc 2 219 3 view .LVU1365
 3903              	.LBB749:
 3904              	.LBI749:
 3905              		.loc 2 57 22 view .LVU1366
 3906              	.LBB750:
 3907              		.loc 2 60 3 view .LVU1367
 3908              		.loc 2 60 18 is_stmt 0 view .LVU1368
 3909 0270 D3F89020 		ldr	r2, [r3, #144]
 3910 0274 42F40042 		orr	r2, r2, #32768
 3911 0278 C3F89020 		str	r2, [r3, #144]
 3912              		.loc 2 61 3 is_stmt 1 view .LVU1369
 3913              		.loc 2 61 18 is_stmt 0 view .LVU1370
 3914 027c D3F89020 		ldr	r2, [r3, #144]
 3915 0280 22F40042 		bic	r2, r2, #32768
 3916 0284 C3F89020 		str	r2, [r3, #144]
 3917              		.loc 2 62 3 is_stmt 1 view .LVU1371
 3918 0288 D3F89030 		ldr	r3, [r3, #144]
 3919              	.LVL219:
 3920              		.loc 2 62 3 is_stmt 0 view .LVU1372
 3921              	.LBE750:
 3922              	.LBE749:
 3923              		.loc 2 220 1 view .LVU1373
 3924 028c 32E7     		b	.L218
 3925              	.LVL220:
 3926              	.L266:
 3927              		.loc 2 220 1 view .LVU1374
 3928              	.LBE748:
 3929              	.LBE747:
 3930              		.loc 1 788 7 is_stmt 1 view .LVU1375
 3931              	.LBB751:
ARM GAS  C:\Users\DEVELO~1\AppData\Local\Temp\ccJK6Gr9.s 			page 70


 3932              	.LBI751:
 3933              		.loc 1 421 14 view .LVU1376
 3934              	.LBB752:
 3935              		.loc 1 424 3 view .LVU1377
 3936              		.loc 1 424 18 is_stmt 0 view .LVU1378
 3937 028e 0346     		mov	r3, r0
 3938 0290 414A     		ldr	r2, .L271+36
 3939 0292 0A21     		movs	r1, #10
 3940 0294 1020     		movs	r0, #16
 3941              	.LVL221:
 3942              		.loc 1 424 18 view .LVU1379
 3943 0296 FFF7FEFF 		bl	dmaStreamAllocI
 3944              	.LVL222:
 3945              		.loc 1 424 16 view .LVU1380
 3946 029a 6062     		str	r0, [r4, #36]
 3947              		.loc 1 427 3 is_stmt 1 view .LVU1381
 3948              		.loc 1 427 6 is_stmt 0 view .LVU1382
 3949 029c 0028     		cmp	r0, #0
 3950 029e 00F0BB80 		beq	.L261
 3951              		.loc 1 431 3 is_stmt 1 view .LVU1383
 3952              		.loc 1 431 18 is_stmt 0 view .LVU1384
 3953 02a2 2346     		mov	r3, r4
 3954 02a4 3D4A     		ldr	r2, .L271+40
 3955 02a6 0A21     		movs	r1, #10
 3956 02a8 1020     		movs	r0, #16
 3957 02aa FFF7FEFF 		bl	dmaStreamAllocI
 3958              	.LVL223:
 3959              		.loc 1 431 16 view .LVU1385
 3960 02ae A062     		str	r0, [r4, #40]
 3961              		.loc 1 434 3 is_stmt 1 view .LVU1386
 3962              		.loc 1 434 6 is_stmt 0 view .LVU1387
 3963 02b0 0028     		cmp	r0, #0
 3964 02b2 00F0B480 		beq	.L263
 3965              	.LVL224:
 3966              		.loc 1 434 6 view .LVU1388
 3967              	.LBE752:
 3968              	.LBE751:
 3969              		.loc 1 792 7 is_stmt 1 view .LVU1389
 3970              		.loc 1 795 7 view .LVU1390
 3971 02b6 2721     		movs	r1, #39
 3972 02b8 606A     		ldr	r0, [r4, #36]
 3973 02ba FFF7FEFF 		bl	dmaSetRequestSource
 3974              	.LVL225:
 3975              		.loc 1 796 7 view .LVU1391
 3976 02be 2821     		movs	r1, #40
 3977 02c0 A06A     		ldr	r0, [r4, #40]
 3978 02c2 FFF7FEFF 		bl	dmaSetRequestSource
 3979              	.LVL226:
 3980              		.loc 1 798 7 view .LVU1392
 3981              	.LBB753:
 3982              	.LBI753:
 3983              		.loc 2 141 22 view .LVU1393
 3984              	.LBB754:
 3985              		.loc 2 145 3 view .LVU1394
 3986              		.loc 2 145 20 is_stmt 0 view .LVU1395
 3987 02c6 334B     		ldr	r3, .L271+32
 3988 02c8 D3F8E820 		ldr	r2, [r3, #232]
ARM GAS  C:\Users\DEVELO~1\AppData\Local\Temp\ccJK6Gr9.s 			page 71


 3989 02cc 42F48042 		orr	r2, r2, #16384
 3990 02d0 C3F8E820 		str	r2, [r3, #232]
 3991              		.loc 2 146 3 is_stmt 1 view .LVU1396
 3992              		.loc 2 147 5 view .LVU1397
 3993              		.loc 2 147 24 is_stmt 0 view .LVU1398
 3994 02d4 D3F81021 		ldr	r2, [r3, #272]
 3995 02d8 42F48042 		orr	r2, r2, #16384
 3996 02dc C3F81021 		str	r2, [r3, #272]
 3997              		.loc 2 152 3 is_stmt 1 view .LVU1399
 3998 02e0 D3F81021 		ldr	r2, [r3, #272]
 3999              	.LVL227:
 4000              		.loc 2 152 3 is_stmt 0 view .LVU1400
 4001              	.LBE754:
 4002              	.LBE753:
 4003              		.loc 1 799 7 is_stmt 1 view .LVU1401
 4004              	.LBB755:
 4005              	.LBI755:
 4006              		.loc 2 207 22 view .LVU1402
 4007              	.LBB756:
 4008              		.loc 2 219 3 view .LVU1403
 4009              	.LBB757:
 4010              	.LBI757:
 4011              		.loc 2 57 22 view .LVU1404
 4012              	.LBB758:
 4013              		.loc 2 60 3 view .LVU1405
 4014              		.loc 2 60 18 is_stmt 0 view .LVU1406
 4015 02e4 D3F89020 		ldr	r2, [r3, #144]
 4016 02e8 42F48042 		orr	r2, r2, #16384
 4017 02ec C3F89020 		str	r2, [r3, #144]
 4018              		.loc 2 61 3 is_stmt 1 view .LVU1407
 4019              		.loc 2 61 18 is_stmt 0 view .LVU1408
 4020 02f0 D3F89020 		ldr	r2, [r3, #144]
 4021 02f4 22F48042 		bic	r2, r2, #16384
 4022 02f8 C3F89020 		str	r2, [r3, #144]
 4023              		.loc 2 62 3 is_stmt 1 view .LVU1409
 4024 02fc D3F89030 		ldr	r3, [r3, #144]
 4025              	.LVL228:
 4026              		.loc 2 62 3 is_stmt 0 view .LVU1410
 4027              	.LBE758:
 4028              	.LBE757:
 4029              		.loc 2 220 1 view .LVU1411
 4030 0300 F8E6     		b	.L218
 4031              	.LVL229:
 4032              	.L268:
 4033              		.loc 2 220 1 view .LVU1412
 4034              	.LBE756:
 4035              	.LBE755:
 4036              		.loc 1 822 7 is_stmt 1 view .LVU1413
 4037              	.LBB759:
 4038              	.LBI759:
 4039              		.loc 1 421 14 view .LVU1414
 4040              	.LBB760:
 4041              		.loc 1 424 3 view .LVU1415
 4042              		.loc 1 424 18 is_stmt 0 view .LVU1416
 4043 0302 0346     		mov	r3, r0
 4044 0304 244A     		ldr	r2, .L271+36
 4045 0306 0A21     		movs	r1, #10
ARM GAS  C:\Users\DEVELO~1\AppData\Local\Temp\ccJK6Gr9.s 			page 72


 4046 0308 1020     		movs	r0, #16
 4047              	.LVL230:
 4048              		.loc 1 424 18 view .LVU1417
 4049 030a FFF7FEFF 		bl	dmaStreamAllocI
 4050              	.LVL231:
 4051              		.loc 1 424 16 view .LVU1418
 4052 030e 6062     		str	r0, [r4, #36]
 4053              		.loc 1 427 3 is_stmt 1 view .LVU1419
 4054              		.loc 1 427 6 is_stmt 0 view .LVU1420
 4055 0310 0028     		cmp	r0, #0
 4056 0312 00F08180 		beq	.L261
 4057              		.loc 1 431 3 is_stmt 1 view .LVU1421
 4058              		.loc 1 431 18 is_stmt 0 view .LVU1422
 4059 0316 2346     		mov	r3, r4
 4060 0318 204A     		ldr	r2, .L271+40
 4061 031a 0A21     		movs	r1, #10
 4062 031c 1020     		movs	r0, #16
 4063 031e FFF7FEFF 		bl	dmaStreamAllocI
 4064              	.LVL232:
 4065              		.loc 1 431 16 view .LVU1423
 4066 0322 A062     		str	r0, [r4, #40]
 4067              		.loc 1 434 3 is_stmt 1 view .LVU1424
 4068              		.loc 1 434 6 is_stmt 0 view .LVU1425
 4069 0324 0028     		cmp	r0, #0
 4070 0326 7AD0     		beq	.L263
 4071              	.LVL233:
 4072              		.loc 1 434 6 view .LVU1426
 4073              	.LBE760:
 4074              	.LBE759:
 4075              		.loc 1 826 7 is_stmt 1 view .LVU1427
 4076              		.loc 1 829 7 view .LVU1428
 4077 0328 5321     		movs	r1, #83
 4078 032a 606A     		ldr	r0, [r4, #36]
 4079 032c FFF7FEFF 		bl	dmaSetRequestSource
 4080              	.LVL234:
 4081              		.loc 1 830 7 view .LVU1429
 4082 0330 5421     		movs	r1, #84
 4083 0332 A06A     		ldr	r0, [r4, #40]
 4084 0334 FFF7FEFF 		bl	dmaSetRequestSource
 4085              	.LVL235:
 4086              		.loc 1 832 7 view .LVU1430
 4087              	.LBB761:
 4088              	.LBI761:
 4089              		.loc 2 319 22 view .LVU1431
 4090              	.LBB762:
 4091              		.loc 2 323 3 view .LVU1432
 4092              		.loc 2 323 19 is_stmt 0 view .LVU1433
 4093 0338 164B     		ldr	r3, .L271+32
 4094 033a D3F8F020 		ldr	r2, [r3, #240]
 4095 033e 42F40052 		orr	r2, r2, #8192
 4096 0342 C3F8F020 		str	r2, [r3, #240]
 4097              		.loc 2 324 3 is_stmt 1 view .LVU1434
 4098              		.loc 2 325 5 view .LVU1435
 4099              		.loc 2 325 23 is_stmt 0 view .LVU1436
 4100 0346 D3F81821 		ldr	r2, [r3, #280]
 4101 034a 42F40052 		orr	r2, r2, #8192
 4102 034e C3F81821 		str	r2, [r3, #280]
ARM GAS  C:\Users\DEVELO~1\AppData\Local\Temp\ccJK6Gr9.s 			page 73


 4103              		.loc 2 330 3 is_stmt 1 view .LVU1437
 4104 0352 D3F81821 		ldr	r2, [r3, #280]
 4105              	.LVL236:
 4106              		.loc 2 330 3 is_stmt 0 view .LVU1438
 4107              	.LBE762:
 4108              	.LBE761:
 4109              		.loc 1 833 7 is_stmt 1 view .LVU1439
 4110              	.LBB763:
 4111              	.LBI763:
 4112              		.loc 2 385 22 view .LVU1440
 4113              	.LBB764:
 4114              		.loc 2 397 3 view .LVU1441
 4115              	.LBB765:
 4116              	.LBI765:
 4117              		.loc 2 73 22 view .LVU1442
 4118              	.LBB766:
 4119              		.loc 2 76 3 view .LVU1443
 4120              		.loc 2 76 17 is_stmt 0 view .LVU1444
 4121 0356 D3F89820 		ldr	r2, [r3, #152]
 4122 035a 42F40052 		orr	r2, r2, #8192
 4123 035e C3F89820 		str	r2, [r3, #152]
 4124              		.loc 2 77 3 is_stmt 1 view .LVU1445
 4125              		.loc 2 77 17 is_stmt 0 view .LVU1446
 4126 0362 D3F89820 		ldr	r2, [r3, #152]
 4127 0366 22F40052 		bic	r2, r2, #8192
 4128 036a C3F89820 		str	r2, [r3, #152]
 4129              		.loc 2 78 3 is_stmt 1 view .LVU1447
 4130 036e D3F89830 		ldr	r3, [r3, #152]
 4131              	.LVL237:
 4132              		.loc 2 78 3 is_stmt 0 view .LVU1448
 4133              	.LBE766:
 4134              	.LBE765:
 4135              		.loc 2 398 1 view .LVU1449
 4136 0372 BFE6     		b	.L218
 4137              	.L272:
 4138              		.align	2
 4139              	.L271:
 4140 0374 00000000 		.word	.LANCHOR0
 4141 0378 00000000 		.word	.LANCHOR1
 4142 037c 00000000 		.word	.LANCHOR2
 4143 0380 00000000 		.word	.LANCHOR3
 4144 0384 00000000 		.word	.LANCHOR4
 4145 0388 00000000 		.word	.LANCHOR5
 4146 038c 00000000 		.word	spi_lld_serve_bdma_rx_interrupt
 4147 0390 00000000 		.word	spi_lld_serve_bdma_tx_interrupt
 4148 0394 00440258 		.word	1476543488
 4149 0398 00000000 		.word	spi_lld_serve_dma_rx_interrupt
 4150 039c 00000000 		.word	spi_lld_serve_dma_tx_interrupt
 4151              	.LVL238:
 4152              	.L269:
 4153              		.loc 2 398 1 view .LVU1450
 4154              	.LBE764:
 4155              	.LBE763:
 4156              		.loc 1 839 7 is_stmt 1 view .LVU1451
 4157              	.LBB767:
 4158              	.LBI767:
 4159              		.loc 1 421 14 view .LVU1452
ARM GAS  C:\Users\DEVELO~1\AppData\Local\Temp\ccJK6Gr9.s 			page 74


 4160              	.LBB768:
 4161              		.loc 1 424 3 view .LVU1453
 4162              		.loc 1 424 18 is_stmt 0 view .LVU1454
 4163 03a0 0346     		mov	r3, r0
 4164 03a2 224A     		ldr	r2, .L273
 4165 03a4 0A21     		movs	r1, #10
 4166 03a6 1020     		movs	r0, #16
 4167              	.LVL239:
 4168              		.loc 1 424 18 view .LVU1455
 4169 03a8 FFF7FEFF 		bl	dmaStreamAllocI
 4170              	.LVL240:
 4171              		.loc 1 424 16 view .LVU1456
 4172 03ac 6062     		str	r0, [r4, #36]
 4173              		.loc 1 427 3 is_stmt 1 view .LVU1457
 4174              		.loc 1 427 6 is_stmt 0 view .LVU1458
 4175 03ae 98B3     		cbz	r0, .L261
 4176              		.loc 1 431 3 is_stmt 1 view .LVU1459
 4177              		.loc 1 431 18 is_stmt 0 view .LVU1460
 4178 03b0 2346     		mov	r3, r4
 4179 03b2 1F4A     		ldr	r2, .L273+4
 4180 03b4 0A21     		movs	r1, #10
 4181 03b6 1020     		movs	r0, #16
 4182 03b8 FFF7FEFF 		bl	dmaStreamAllocI
 4183              	.LVL241:
 4184              		.loc 1 431 16 view .LVU1461
 4185 03bc A062     		str	r0, [r4, #40]
 4186              		.loc 1 434 3 is_stmt 1 view .LVU1462
 4187              		.loc 1 434 6 is_stmt 0 view .LVU1463
 4188 03be 70B3     		cbz	r0, .L263
 4189              	.LVL242:
 4190              		.loc 1 434 6 view .LVU1464
 4191              	.LBE768:
 4192              	.LBE767:
 4193              		.loc 1 843 7 is_stmt 1 view .LVU1465
 4194              		.loc 1 846 7 view .LVU1466
 4195 03c0 5521     		movs	r1, #85
 4196 03c2 606A     		ldr	r0, [r4, #36]
 4197 03c4 FFF7FEFF 		bl	dmaSetRequestSource
 4198              	.LVL243:
 4199              		.loc 1 847 7 view .LVU1467
 4200 03c8 5621     		movs	r1, #86
 4201 03ca A06A     		ldr	r0, [r4, #40]
 4202 03cc FFF7FEFF 		bl	dmaSetRequestSource
 4203              	.LVL244:
 4204              		.loc 1 849 7 view .LVU1468
 4205              	.LBB771:
 4206              	.LBI771:
 4207              		.loc 2 319 22 view .LVU1469
 4208              	.LBB772:
 4209              		.loc 2 323 3 view .LVU1470
 4210              		.loc 2 323 19 is_stmt 0 view .LVU1471
 4211 03d0 184B     		ldr	r3, .L273+8
 4212 03d2 D3F8F020 		ldr	r2, [r3, #240]
 4213 03d6 42F48012 		orr	r2, r2, #1048576
 4214 03da C3F8F020 		str	r2, [r3, #240]
 4215              		.loc 2 324 3 is_stmt 1 view .LVU1472
 4216              		.loc 2 325 5 view .LVU1473
ARM GAS  C:\Users\DEVELO~1\AppData\Local\Temp\ccJK6Gr9.s 			page 75


 4217              		.loc 2 325 23 is_stmt 0 view .LVU1474
 4218 03de D3F81821 		ldr	r2, [r3, #280]
 4219 03e2 42F48012 		orr	r2, r2, #1048576
 4220 03e6 C3F81821 		str	r2, [r3, #280]
 4221              		.loc 2 330 3 is_stmt 1 view .LVU1475
 4222 03ea D3F81821 		ldr	r2, [r3, #280]
 4223              	.LVL245:
 4224              		.loc 2 330 3 is_stmt 0 view .LVU1476
 4225              	.LBE772:
 4226              	.LBE771:
 4227              		.loc 1 850 7 is_stmt 1 view .LVU1477
 4228              	.LBB773:
 4229              	.LBI773:
 4230              		.loc 2 385 22 view .LVU1478
 4231              	.LBB774:
 4232              		.loc 2 397 3 view .LVU1479
 4233              	.LBB775:
 4234              	.LBI775:
 4235              		.loc 2 73 22 view .LVU1480
 4236              	.LBB776:
 4237              		.loc 2 76 3 view .LVU1481
 4238              		.loc 2 76 17 is_stmt 0 view .LVU1482
 4239 03ee D3F89820 		ldr	r2, [r3, #152]
 4240 03f2 42F48012 		orr	r2, r2, #1048576
 4241 03f6 C3F89820 		str	r2, [r3, #152]
 4242              		.loc 2 77 3 is_stmt 1 view .LVU1483
 4243              		.loc 2 77 17 is_stmt 0 view .LVU1484
 4244 03fa D3F89820 		ldr	r2, [r3, #152]
 4245 03fe 22F48012 		bic	r2, r2, #1048576
 4246 0402 C3F89820 		str	r2, [r3, #152]
 4247              		.loc 2 78 3 is_stmt 1 view .LVU1485
 4248 0406 D3F89830 		ldr	r3, [r3, #152]
 4249              	.LVL246:
 4250              		.loc 2 78 3 is_stmt 0 view .LVU1486
 4251              	.LBE776:
 4252              	.LBE775:
 4253              		.loc 2 398 1 view .LVU1487
 4254 040a 73E6     		b	.L218
 4255              	.LVL247:
 4256              	.L241:
 4257              		.loc 2 398 1 view .LVU1488
 4258              	.LBE774:
 4259              	.LBE773:
 4260              		.loc 1 873 14 view .LVU1489
 4261 040c 6FF01400 		mvn	r0, #20
 4262              	.LVL248:
 4263              		.loc 1 976 1 view .LVU1490
 4264 0410 10BD     		pop	{r4, pc}
 4265              	.LVL249:
 4266              	.L270:
 4267              	.LBB777:
 4268              	.LBB727:
 4269              		.loc 1 467 5 is_stmt 1 view .LVU1491
 4270 0412 606A     		ldr	r0, [r4, #36]
 4271 0414 FFF7FEFF 		bl	bdmaStreamFreeI
 4272              	.LVL250:
 4273              	.L261:
ARM GAS  C:\Users\DEVELO~1\AppData\Local\Temp\ccJK6Gr9.s 			page 76


 4274              		.loc 1 468 5 view .LVU1492
 4275              		.loc 1 468 5 is_stmt 0 view .LVU1493
 4276              	.LBE727:
 4277              	.LBE777:
 4278              		.loc 1 860 7 is_stmt 1 view .LVU1494
 4279              	.LBB778:
 4280              	.LBB728:
 4281              		.loc 1 468 12 is_stmt 0 view .LVU1495
 4282 0418 6FF01000 		mvn	r0, #16
 4283              	.LBE728:
 4284              	.LBE778:
 4285              		.loc 1 976 1 view .LVU1496
 4286 041c 10BD     		pop	{r4, pc}
 4287              	.LVL251:
 4288              	.L263:
 4289              	.LBB779:
 4290              	.LBB769:
 4291              		.loc 1 435 5 is_stmt 1 view .LVU1497
 4292 041e 606A     		ldr	r0, [r4, #36]
 4293 0420 FFF7FEFF 		bl	dmaStreamFreeI
 4294              	.LVL252:
 4295              		.loc 1 436 5 view .LVU1498
 4296              		.loc 1 436 5 is_stmt 0 view .LVU1499
 4297              	.LBE769:
 4298              	.LBE779:
 4299              		.loc 1 843 7 is_stmt 1 view .LVU1500
 4300              	.LBB780:
 4301              	.LBB770:
 4302              		.loc 1 436 12 is_stmt 0 view .LVU1501
 4303 0424 6FF01000 		mvn	r0, #16
 4304              	.LBE770:
 4305              	.LBE780:
 4306              		.loc 1 976 1 view .LVU1502
 4307 0428 10BD     		pop	{r4, pc}
 4308              	.LVL253:
 4309              	.L274:
 4310              		.loc 1 976 1 view .LVU1503
 4311 042a 00BF     		.align	2
 4312              	.L273:
 4313 042c 00000000 		.word	spi_lld_serve_dma_rx_interrupt
 4314 0430 00000000 		.word	spi_lld_serve_dma_tx_interrupt
 4315 0434 00440258 		.word	1476543488
 4316              		.cfi_endproc
 4317              	.LFE467:
 4318              		.size	spi_lld_start, .-spi_lld_start
 4319              		.section	.text.spi_lld_stop,"ax",%progbits
 4320              		.align	1
 4321              		.p2align 2,,3
 4322              		.global	spi_lld_stop
 4323              		.syntax unified
 4324              		.thumb
 4325              		.thumb_func
 4326              		.type	spi_lld_stop, %function
 4327              	spi_lld_stop:
 4328              	.LVL254:
 4329              	.LFB468:
 4330              		.loc 1 985 36 is_stmt 1 view -0
ARM GAS  C:\Users\DEVELO~1\AppData\Local\Temp\ccJK6Gr9.s 			page 77


 4331              		.cfi_startproc
 4332              		@ args = 0, pretend = 0, frame = 0
 4333              		@ frame_needed = 0, uses_anonymous_args = 0
 4334              		.loc 1 988 3 view .LVU1505
 4335              		.loc 1 988 6 is_stmt 0 view .LVU1506
 4336 0000 0378     		ldrb	r3, [r0]	@ zero_extendqisi2
 4337 0002 022B     		cmp	r3, #2
 4338 0004 00D0     		beq	.L290
 4339 0006 7047     		bx	lr
 4340              	.L290:
 4341              		.loc 1 991 5 is_stmt 1 view .LVU1507
 4342              		.loc 1 985 36 is_stmt 0 view .LVU1508
 4343 0008 10B5     		push	{r4, lr}
 4344              		.cfi_def_cfa_offset 8
 4345              		.cfi_offset 4, -8
 4346              		.cfi_offset 14, -4
 4347 000a 0446     		mov	r4, r0
 4348              		.loc 1 991 5 view .LVU1509
 4349 000c FFF7FEFF 		bl	spi_lld_stop_abort
 4350              	.LVL255:
 4351              		.loc 1 994 5 is_stmt 1 view .LVU1510
 4352              		.loc 1 994 8 is_stmt 0 view .LVU1511
 4353 0010 94F82030 		ldrb	r3, [r4, #32]	@ zero_extendqisi2
 4354              		.loc 1 998 7 view .LVU1512
 4355 0014 606A     		ldr	r0, [r4, #36]
 4356              		.loc 1 994 8 view .LVU1513
 4357 0016 33BB     		cbnz	r3, .L291
 4358              		.loc 1 1007 7 is_stmt 1 view .LVU1514
 4359 0018 FFF7FEFF 		bl	dmaStreamFreeI
 4360              	.LVL256:
 4361              		.loc 1 1008 7 view .LVU1515
 4362 001c A06A     		ldr	r0, [r4, #40]
 4363 001e FFF7FEFF 		bl	dmaStreamFreeI
 4364              	.LVL257:
 4365              	.L279:
 4366              		.loc 1 1013 5 view .LVU1516
 4367              		.loc 1 1017 10 view .LVU1517
 4368              		.loc 1 1017 13 is_stmt 0 view .LVU1518
 4369 0022 3C4B     		ldr	r3, .L297
 4370 0024 9C42     		cmp	r4, r3
 4371 0026 24D0     		beq	.L292
 4372              		.loc 1 1023 10 is_stmt 1 view .LVU1519
 4373              		.loc 1 1023 13 is_stmt 0 view .LVU1520
 4374 0028 3B4B     		ldr	r3, .L297+4
 4375 002a 9C42     		cmp	r4, r3
 4376 002c 41D0     		beq	.L293
 4377              		.loc 1 1029 10 is_stmt 1 view .LVU1521
 4378              		.loc 1 1029 13 is_stmt 0 view .LVU1522
 4379 002e 3B4B     		ldr	r3, .L297+8
 4380 0030 9C42     		cmp	r4, r3
 4381 0032 4ED0     		beq	.L294
 4382              		.loc 1 1035 10 is_stmt 1 view .LVU1523
 4383              		.loc 1 1035 13 is_stmt 0 view .LVU1524
 4384 0034 3A4B     		ldr	r3, .L297+12
 4385 0036 9C42     		cmp	r4, r3
 4386 0038 2BD0     		beq	.L295
 4387              		.loc 1 1041 10 is_stmt 1 view .LVU1525
ARM GAS  C:\Users\DEVELO~1\AppData\Local\Temp\ccJK6Gr9.s 			page 78


 4388              		.loc 1 1041 13 is_stmt 0 view .LVU1526
 4389 003a 3A4B     		ldr	r3, .L297+16
 4390 003c 9C42     		cmp	r4, r3
 4391 003e 58D0     		beq	.L296
 4392              		.loc 1 1047 10 is_stmt 1 view .LVU1527
 4393              		.loc 1 1047 13 is_stmt 0 view .LVU1528
 4394 0040 394B     		ldr	r3, .L297+20
 4395 0042 9C42     		cmp	r4, r3
 4396 0044 0ED1     		bne	.L275
 4397              		.loc 1 1048 7 is_stmt 1 view .LVU1529
 4398              	.LVL258:
 4399              	.LBB781:
 4400              	.LBI781:
 4401              		.loc 2 529 22 view .LVU1530
 4402              	.LBB782:
 4403              		.loc 2 539 3 view .LVU1531
 4404              		.loc 2 539 19 is_stmt 0 view .LVU1532
 4405 0046 394B     		ldr	r3, .L297+24
 4406 0048 D3F8F420 		ldr	r2, [r3, #244]
 4407 004c 22F02002 		bic	r2, r2, #32
 4408 0050 C3F8F420 		str	r2, [r3, #244]
 4409              		.loc 2 540 3 is_stmt 1 view .LVU1533
 4410              		.loc 2 540 21 is_stmt 0 view .LVU1534
 4411 0054 D3F81C21 		ldr	r2, [r3, #284]
 4412 0058 22F02002 		bic	r2, r2, #32
 4413 005c C3F81C21 		str	r2, [r3, #284]
 4414              		.loc 2 541 3 is_stmt 1 view .LVU1535
 4415 0060 D3F81C31 		ldr	r3, [r3, #284]
 4416              	.LVL259:
 4417              		.loc 2 541 3 is_stmt 0 view .LVU1536
 4418              	.LBE782:
 4419              	.LBE781:
 4420              		.loc 1 1053 7 is_stmt 1 view .LVU1537
 4421              	.L275:
 4422              		.loc 1 1056 1 is_stmt 0 view .LVU1538
 4423 0064 10BD     		pop	{r4, pc}
 4424              	.LVL260:
 4425              	.L291:
 4426              		.loc 1 998 7 is_stmt 1 view .LVU1539
 4427 0066 FFF7FEFF 		bl	bdmaStreamFreeI
 4428              	.LVL261:
 4429              		.loc 1 999 7 view .LVU1540
 4430 006a A06A     		ldr	r0, [r4, #40]
 4431 006c FFF7FEFF 		bl	bdmaStreamFreeI
 4432              	.LVL262:
 4433 0070 D7E7     		b	.L279
 4434              	.L292:
 4435              		.loc 1 1018 7 view .LVU1541
 4436              	.LVL263:
 4437              	.LBB783:
 4438              	.LBI783:
 4439              		.loc 2 351 22 view .LVU1542
 4440              	.LBB784:
 4441              		.loc 2 361 3 view .LVU1543
 4442              		.loc 2 361 19 is_stmt 0 view .LVU1544
 4443 0072 2E4B     		ldr	r3, .L297+24
 4444 0074 D3F8F020 		ldr	r2, [r3, #240]
ARM GAS  C:\Users\DEVELO~1\AppData\Local\Temp\ccJK6Gr9.s 			page 79


 4445 0078 22F48052 		bic	r2, r2, #4096
 4446 007c C3F8F020 		str	r2, [r3, #240]
 4447              		.loc 2 362 3 is_stmt 1 view .LVU1545
 4448              		.loc 2 362 21 is_stmt 0 view .LVU1546
 4449 0080 D3F81821 		ldr	r2, [r3, #280]
 4450 0084 22F48052 		bic	r2, r2, #4096
 4451 0088 C3F81821 		str	r2, [r3, #280]
 4452              		.loc 2 363 3 is_stmt 1 view .LVU1547
 4453 008c D3F81831 		ldr	r3, [r3, #280]
 4454              	.LBE784:
 4455              	.LBE783:
 4456              		.loc 1 1056 1 is_stmt 0 view .LVU1548
 4457 0090 10BD     		pop	{r4, pc}
 4458              	.LVL264:
 4459              	.L295:
 4460              		.loc 1 1036 7 is_stmt 1 view .LVU1549
 4461              	.LBB785:
 4462              	.LBI785:
 4463              		.loc 2 351 22 view .LVU1550
 4464              	.LBB786:
 4465              		.loc 2 361 3 view .LVU1551
 4466              		.loc 2 361 19 is_stmt 0 view .LVU1552
 4467 0092 264B     		ldr	r3, .L297+24
 4468 0094 D3F8F020 		ldr	r2, [r3, #240]
 4469 0098 22F40052 		bic	r2, r2, #8192
 4470 009c C3F8F020 		str	r2, [r3, #240]
 4471              		.loc 2 362 3 is_stmt 1 view .LVU1553
 4472              		.loc 2 362 21 is_stmt 0 view .LVU1554
 4473 00a0 D3F81821 		ldr	r2, [r3, #280]
 4474 00a4 22F40052 		bic	r2, r2, #8192
 4475 00a8 C3F81821 		str	r2, [r3, #280]
 4476              		.loc 2 363 3 is_stmt 1 view .LVU1555
 4477 00ac D3F81831 		ldr	r3, [r3, #280]
 4478              	.LBE786:
 4479              	.LBE785:
 4480              		.loc 1 1056 1 is_stmt 0 view .LVU1556
 4481 00b0 10BD     		pop	{r4, pc}
 4482              	.LVL265:
 4483              	.L293:
 4484              		.loc 1 1024 7 is_stmt 1 view .LVU1557
 4485              	.LBB787:
 4486              	.LBI787:
 4487              		.loc 2 173 22 view .LVU1558
 4488              	.LBB788:
 4489              		.loc 2 183 3 view .LVU1559
 4490              		.loc 2 183 20 is_stmt 0 view .LVU1560
 4491 00b2 1E4B     		ldr	r3, .L297+24
 4492 00b4 D3F8E820 		ldr	r2, [r3, #232]
 4493 00b8 22F48042 		bic	r2, r2, #16384
 4494 00bc C3F8E820 		str	r2, [r3, #232]
 4495              		.loc 2 184 3 is_stmt 1 view .LVU1561
 4496              		.loc 2 184 22 is_stmt 0 view .LVU1562
 4497 00c0 D3F81021 		ldr	r2, [r3, #272]
 4498 00c4 22F48042 		bic	r2, r2, #16384
 4499 00c8 C3F81021 		str	r2, [r3, #272]
 4500              		.loc 2 185 3 is_stmt 1 view .LVU1563
 4501 00cc D3F81031 		ldr	r3, [r3, #272]
ARM GAS  C:\Users\DEVELO~1\AppData\Local\Temp\ccJK6Gr9.s 			page 80


 4502              	.LBE788:
 4503              	.LBE787:
 4504              		.loc 1 1056 1 is_stmt 0 view .LVU1564
 4505 00d0 10BD     		pop	{r4, pc}
 4506              	.LVL266:
 4507              	.L294:
 4508              		.loc 1 1030 7 is_stmt 1 view .LVU1565
 4509              	.LBB789:
 4510              	.LBI789:
 4511              		.loc 2 173 22 view .LVU1566
 4512              	.LBB790:
 4513              		.loc 2 183 3 view .LVU1567
 4514              		.loc 2 183 20 is_stmt 0 view .LVU1568
 4515 00d2 164B     		ldr	r3, .L297+24
 4516 00d4 D3F8E820 		ldr	r2, [r3, #232]
 4517 00d8 22F40042 		bic	r2, r2, #32768
 4518 00dc C3F8E820 		str	r2, [r3, #232]
 4519              		.loc 2 184 3 is_stmt 1 view .LVU1569
 4520              		.loc 2 184 22 is_stmt 0 view .LVU1570
 4521 00e0 D3F81021 		ldr	r2, [r3, #272]
 4522 00e4 22F40042 		bic	r2, r2, #32768
 4523 00e8 C3F81021 		str	r2, [r3, #272]
 4524              		.loc 2 185 3 is_stmt 1 view .LVU1571
 4525 00ec D3F81031 		ldr	r3, [r3, #272]
 4526              	.LBE790:
 4527              	.LBE789:
 4528              		.loc 1 1056 1 is_stmt 0 view .LVU1572
 4529 00f0 10BD     		pop	{r4, pc}
 4530              	.LVL267:
 4531              	.L296:
 4532              		.loc 1 1042 7 is_stmt 1 view .LVU1573
 4533              	.LBB791:
 4534              	.LBI791:
 4535              		.loc 2 351 22 view .LVU1574
 4536              	.LBB792:
 4537              		.loc 2 361 3 view .LVU1575
 4538              		.loc 2 361 19 is_stmt 0 view .LVU1576
 4539 00f2 0E4B     		ldr	r3, .L297+24
 4540 00f4 D3F8F020 		ldr	r2, [r3, #240]
 4541 00f8 22F48012 		bic	r2, r2, #1048576
 4542 00fc C3F8F020 		str	r2, [r3, #240]
 4543              		.loc 2 362 3 is_stmt 1 view .LVU1577
 4544              		.loc 2 362 21 is_stmt 0 view .LVU1578
 4545 0100 D3F81821 		ldr	r2, [r3, #280]
 4546 0104 22F48012 		bic	r2, r2, #1048576
 4547 0108 C3F81821 		str	r2, [r3, #280]
 4548              		.loc 2 363 3 is_stmt 1 view .LVU1579
 4549 010c D3F81831 		ldr	r3, [r3, #280]
 4550              	.LBE792:
 4551              	.LBE791:
 4552              		.loc 1 1056 1 is_stmt 0 view .LVU1580
 4553 0110 10BD     		pop	{r4, pc}
 4554              	.LVL268:
 4555              	.L298:
 4556              		.loc 1 1056 1 view .LVU1581
 4557 0112 00BF     		.align	2
 4558              	.L297:
ARM GAS  C:\Users\DEVELO~1\AppData\Local\Temp\ccJK6Gr9.s 			page 81


 4559 0114 00000000 		.word	.LANCHOR0
 4560 0118 00000000 		.word	.LANCHOR1
 4561 011c 00000000 		.word	.LANCHOR2
 4562 0120 00000000 		.word	.LANCHOR3
 4563 0124 00000000 		.word	.LANCHOR4
 4564 0128 00000000 		.word	.LANCHOR5
 4565 012c 00440258 		.word	1476543488
 4566              		.cfi_endproc
 4567              	.LFE468:
 4568              		.size	spi_lld_stop, .-spi_lld_stop
 4569              		.section	.text.spi_lld_ignore,"ax",%progbits
 4570              		.align	1
 4571              		.p2align 2,,3
 4572              		.global	spi_lld_ignore
 4573              		.syntax unified
 4574              		.thumb
 4575              		.thumb_func
 4576              		.type	spi_lld_ignore, %function
 4577              	spi_lld_ignore:
 4578              	.LVL269:
 4579              	.LFB469:
 4580              		.loc 1 1097 49 is_stmt 1 view -0
 4581              		.cfi_startproc
 4582              		@ args = 0, pretend = 0, frame = 0
 4583              		@ frame_needed = 0, uses_anonymous_args = 0
 4584              		@ link register save eliminated.
 4585              		.loc 1 1099 3 view .LVU1583
 4586              		.loc 1 1099 3 view .LVU1584
 4587              		.loc 1 1099 3 view .LVU1585
 4588              		.loc 1 1102 3 view .LVU1586
 4589              		.loc 1 1102 6 is_stmt 0 view .LVU1587
 4590 0000 90F82030 		ldrb	r3, [r0, #32]	@ zero_extendqisi2
 4591              		.loc 1 1097 49 view .LVU1588
 4592 0004 30B4     		push	{r4, r5}
 4593              		.cfi_def_cfa_offset 8
 4594              		.cfi_offset 4, -8
 4595              		.cfi_offset 5, -4
 4596              		.loc 1 1110 5 view .LVU1589
 4597 0006 D0E90925 		ldrd	r2, r5, [r0, #36]
 4598              		.loc 1 1108 5 view .LVU1590
 4599 000a C46A     		ldr	r4, [r0, #44]
 4600              		.loc 1 1102 6 view .LVU1591
 4601 000c FBB1     		cbz	r3, .L300
 4602              		.loc 1 1106 5 is_stmt 1 view .LVU1592
 4603 000e 00F13403 		add	r3, r0, #52
 4604 0012 5268     		ldr	r2, [r2, #4]
 4605 0014 D360     		str	r3, [r2, #12]
 4606              		.loc 1 1106 54 view .LVU1593
 4607              		.loc 1 1107 5 view .LVU1594
 4608              		.loc 1 1110 5 is_stmt 0 view .LVU1595
 4609 0016 6B68     		ldr	r3, [r5, #4]
 4610              	.L304:
 4611              		.loc 1 1124 5 view .LVU1596
 4612 0018 5160     		str	r1, [r2, #4]
 4613              		.loc 1 1124 49 is_stmt 1 view .LVU1597
 4614              		.loc 1 1125 5 view .LVU1598
 4615              		.loc 1 1127 5 is_stmt 0 view .LVU1599
ARM GAS  C:\Users\DEVELO~1\AppData\Local\Temp\ccJK6Gr9.s 			page 82


 4616 001a 00F13805 		add	r5, r0, #56
 4617              		.loc 1 1125 5 view .LVU1600
 4618 001e 1460     		str	r4, [r2]
 4619              		.loc 1 1125 52 is_stmt 1 view .LVU1601
 4620              		.loc 1 1127 5 view .LVU1602
 4621              		.loc 1 1129 5 is_stmt 0 view .LVU1603
 4622 0020 046B     		ldr	r4, [r0, #48]
 4623              		.loc 1 1127 5 view .LVU1604
 4624 0022 DD60     		str	r5, [r3, #12]
 4625              		.loc 1 1127 55 is_stmt 1 view .LVU1605
 4626              		.loc 1 1128 5 view .LVU1606
 4627 0024 5960     		str	r1, [r3, #4]
 4628              		.loc 1 1128 49 view .LVU1607
 4629              		.loc 1 1129 5 view .LVU1608
 4630 0026 1C60     		str	r4, [r3]
 4631              		.loc 1 1129 52 view .LVU1609
 4632              		.loc 1 1131 5 view .LVU1610
 4633 0028 1168     		ldr	r1, [r2]
 4634              	.LVL270:
 4635              		.loc 1 1131 5 is_stmt 0 view .LVU1611
 4636 002a 41F00101 		orr	r1, r1, #1
 4637 002e 1160     		str	r1, [r2]
 4638              		.loc 1 1131 34 is_stmt 1 view .LVU1612
 4639              		.loc 1 1132 5 view .LVU1613
 4640              		.loc 1 1132 34 view .LVU1614
 4641              		.loc 1 1136 3 view .LVU1615
 4642              	.LVL271:
 4643              	.LBB797:
 4644              	.LBI797:
 4645              		.loc 1 118 13 view .LVU1616
 4646              	.LBB798:
 4647              		.loc 1 120 3 view .LVU1617
 4648              	.LBE798:
 4649              	.LBE797:
 4650              		.loc 1 1132 5 is_stmt 0 view .LVU1618
 4651 0030 1A68     		ldr	r2, [r3]
 4652 0032 42F00102 		orr	r2, r2, #1
 4653 0036 1A60     		str	r2, [r3]
 4654              	.LBB802:
 4655              	.LBB801:
 4656              		.loc 1 120 20 view .LVU1619
 4657 0038 4368     		ldr	r3, [r0, #4]
 4658              		.loc 1 120 6 view .LVU1620
 4659 003a 5B78     		ldrb	r3, [r3, #1]	@ zero_extendqisi2
 4660 003c 23B9     		cbnz	r3, .L302
 4661 003e C269     		ldr	r2, [r0, #28]
 4662              	.LBB799:
 4663              	.LBI799:
 4664              		.loc 1 118 13 is_stmt 1 view .LVU1621
 4665              	.LVL272:
 4666              	.LBB800:
 4667              		.loc 1 121 5 view .LVU1622
 4668              		.loc 1 121 20 is_stmt 0 view .LVU1623
 4669 0040 1368     		ldr	r3, [r2]
 4670 0042 43F40073 		orr	r3, r3, #512
 4671 0046 1360     		str	r3, [r2]
 4672              	.L302:
ARM GAS  C:\Users\DEVELO~1\AppData\Local\Temp\ccJK6Gr9.s 			page 83


 4673              	.LVL273:
 4674              		.loc 1 121 20 view .LVU1624
 4675              	.LBE800:
 4676              	.LBE799:
 4677              	.LBE801:
 4678              	.LBE802:
 4679              		.loc 1 1138 3 is_stmt 1 view .LVU1625
 4680              		.loc 1 1139 1 is_stmt 0 view .LVU1626
 4681 0048 0020     		movs	r0, #0
 4682              	.LVL274:
 4683              		.loc 1 1139 1 view .LVU1627
 4684 004a 30BC     		pop	{r4, r5}
 4685              		.cfi_remember_state
 4686              		.cfi_restore 5
 4687              		.cfi_restore 4
 4688              		.cfi_def_cfa_offset 0
 4689              	.LVL275:
 4690              		.loc 1 1139 1 view .LVU1628
 4691 004c 7047     		bx	lr
 4692              	.LVL276:
 4693              	.L300:
 4694              		.cfi_restore_state
 4695              		.loc 1 1123 5 is_stmt 1 view .LVU1629
 4696 004e 00F13403 		add	r3, r0, #52
 4697 0052 1268     		ldr	r2, [r2]
 4698 0054 D360     		str	r3, [r2, #12]
 4699              		.loc 1 1123 53 view .LVU1630
 4700              		.loc 1 1124 5 view .LVU1631
 4701              		.loc 1 1127 5 is_stmt 0 view .LVU1632
 4702 0056 2B68     		ldr	r3, [r5]
 4703 0058 DEE7     		b	.L304
 4704              		.cfi_endproc
 4705              	.LFE469:
 4706              		.size	spi_lld_ignore, .-spi_lld_ignore
 4707 005a 00BF     		.section	.text.spi_lld_exchange,"ax",%progbits
 4708              		.align	1
 4709              		.p2align 2,,3
 4710              		.global	spi_lld_exchange
 4711              		.syntax unified
 4712              		.thumb
 4713              		.thumb_func
 4714              		.type	spi_lld_exchange, %function
 4715              	spi_lld_exchange:
 4716              	.LVL277:
 4717              	.LFB470:
 4718              		.loc 1 1158 56 is_stmt 1 view -0
 4719              		.cfi_startproc
 4720              		@ args = 0, pretend = 0, frame = 0
 4721              		@ frame_needed = 0, uses_anonymous_args = 0
 4722              		@ link register save eliminated.
 4723              		.loc 1 1160 3 view .LVU1634
 4724              		.loc 1 1160 3 view .LVU1635
 4725              		.loc 1 1160 3 view .LVU1636
 4726              		.loc 1 1163 3 view .LVU1637
 4727              		.loc 1 1158 56 is_stmt 0 view .LVU1638
 4728 0000 10B4     		push	{r4}
 4729              		.cfi_def_cfa_offset 4
ARM GAS  C:\Users\DEVELO~1\AppData\Local\Temp\ccJK6Gr9.s 			page 84


 4730              		.cfi_offset 4, -4
 4731              		.loc 1 1163 6 view .LVU1639
 4732 0002 90F82040 		ldrb	r4, [r0, #32]	@ zero_extendqisi2
 4733 0006 1CB3     		cbz	r4, .L306
 4734              		.loc 1 1167 5 is_stmt 1 view .LVU1640
 4735 0008 446A     		ldr	r4, [r0, #36]
 4736 000a 6468     		ldr	r4, [r4, #4]
 4737 000c E360     		str	r3, [r4, #12]
 4738              		.loc 1 1167 46 view .LVU1641
 4739              		.loc 1 1168 5 view .LVU1642
 4740              		.loc 1 1169 5 is_stmt 0 view .LVU1643
 4741 000e C36A     		ldr	r3, [r0, #44]
 4742              	.LVL278:
 4743              		.loc 1 1168 5 view .LVU1644
 4744 0010 6160     		str	r1, [r4, #4]
 4745              	.LVL279:
 4746              		.loc 1 1168 51 is_stmt 1 view .LVU1645
 4747              		.loc 1 1169 5 view .LVU1646
 4748 0012 43F08003 		orr	r3, r3, #128
 4749 0016 2360     		str	r3, [r4]
 4750              		.loc 1 1169 75 view .LVU1647
 4751              		.loc 1 1171 5 view .LVU1648
 4752 0018 836A     		ldr	r3, [r0, #40]
 4753 001a 5B68     		ldr	r3, [r3, #4]
 4754 001c DA60     		str	r2, [r3, #12]
 4755              		.loc 1 1171 46 view .LVU1649
 4756              		.loc 1 1172 5 view .LVU1650
 4757              		.loc 1 1173 5 is_stmt 0 view .LVU1651
 4758 001e 026B     		ldr	r2, [r0, #48]
 4759              	.LVL280:
 4760              		.loc 1 1172 5 view .LVU1652
 4761 0020 5960     		str	r1, [r3, #4]
 4762              	.LVL281:
 4763              		.loc 1 1172 51 is_stmt 1 view .LVU1653
 4764              		.loc 1 1173 5 view .LVU1654
 4765 0022 42F08002 		orr	r2, r2, #128
 4766              	.L310:
 4767              		.loc 1 1190 5 is_stmt 0 view .LVU1655
 4768 0026 1A60     		str	r2, [r3]
 4769              		.loc 1 1190 72 is_stmt 1 view .LVU1656
 4770              		.loc 1 1192 5 view .LVU1657
 4771 0028 2268     		ldr	r2, [r4]
 4772 002a 42F00102 		orr	r2, r2, #1
 4773 002e 2260     		str	r2, [r4]
 4774              		.loc 1 1192 34 view .LVU1658
 4775              		.loc 1 1193 5 view .LVU1659
 4776              		.loc 1 1193 34 view .LVU1660
 4777              		.loc 1 1197 3 view .LVU1661
 4778              	.LVL282:
 4779              	.LBB807:
 4780              	.LBI807:
 4781              		.loc 1 118 13 view .LVU1662
 4782              	.LBB808:
 4783              		.loc 1 120 3 view .LVU1663
 4784              	.LBE808:
 4785              	.LBE807:
 4786              		.loc 1 1193 5 is_stmt 0 view .LVU1664
ARM GAS  C:\Users\DEVELO~1\AppData\Local\Temp\ccJK6Gr9.s 			page 85


 4787 0030 1A68     		ldr	r2, [r3]
 4788 0032 42F00102 		orr	r2, r2, #1
 4789 0036 1A60     		str	r2, [r3]
 4790              	.LBB812:
 4791              	.LBB811:
 4792              		.loc 1 120 20 view .LVU1665
 4793 0038 4368     		ldr	r3, [r0, #4]
 4794              		.loc 1 120 6 view .LVU1666
 4795 003a 5B78     		ldrb	r3, [r3, #1]	@ zero_extendqisi2
 4796 003c 23B9     		cbnz	r3, .L308
 4797 003e C269     		ldr	r2, [r0, #28]
 4798              	.LBB809:
 4799              	.LBI809:
 4800              		.loc 1 118 13 is_stmt 1 view .LVU1667
 4801              	.LVL283:
 4802              	.LBB810:
 4803              		.loc 1 121 5 view .LVU1668
 4804              		.loc 1 121 20 is_stmt 0 view .LVU1669
 4805 0040 1368     		ldr	r3, [r2]
 4806 0042 43F40073 		orr	r3, r3, #512
 4807 0046 1360     		str	r3, [r2]
 4808              	.L308:
 4809              	.LVL284:
 4810              		.loc 1 121 20 view .LVU1670
 4811              	.LBE810:
 4812              	.LBE809:
 4813              	.LBE811:
 4814              	.LBE812:
 4815              		.loc 1 1199 3 is_stmt 1 view .LVU1671
 4816              		.loc 1 1200 1 is_stmt 0 view .LVU1672
 4817 0048 0020     		movs	r0, #0
 4818              	.LVL285:
 4819              		.loc 1 1200 1 view .LVU1673
 4820 004a 5DF8044B 		ldr	r4, [sp], #4
 4821              		.cfi_remember_state
 4822              		.cfi_restore 4
 4823              		.cfi_def_cfa_offset 0
 4824 004e 7047     		bx	lr
 4825              	.LVL286:
 4826              	.L306:
 4827              		.cfi_restore_state
 4828              		.loc 1 1184 5 is_stmt 1 view .LVU1674
 4829 0050 446A     		ldr	r4, [r0, #36]
 4830 0052 2468     		ldr	r4, [r4]
 4831 0054 E360     		str	r3, [r4, #12]
 4832              		.loc 1 1184 45 view .LVU1675
 4833              		.loc 1 1185 5 view .LVU1676
 4834              		.loc 1 1186 5 is_stmt 0 view .LVU1677
 4835 0056 C36A     		ldr	r3, [r0, #44]
 4836              	.LVL287:
 4837              		.loc 1 1185 5 view .LVU1678
 4838 0058 6160     		str	r1, [r4, #4]
 4839              	.LVL288:
 4840              		.loc 1 1185 49 is_stmt 1 view .LVU1679
 4841              		.loc 1 1186 5 view .LVU1680
 4842 005a 43F48063 		orr	r3, r3, #1024
 4843 005e 2360     		str	r3, [r4]
ARM GAS  C:\Users\DEVELO~1\AppData\Local\Temp\ccJK6Gr9.s 			page 86


 4844              		.loc 1 1186 72 view .LVU1681
 4845              		.loc 1 1188 5 view .LVU1682
 4846 0060 836A     		ldr	r3, [r0, #40]
 4847 0062 1B68     		ldr	r3, [r3]
 4848 0064 DA60     		str	r2, [r3, #12]
 4849              		.loc 1 1188 45 view .LVU1683
 4850              		.loc 1 1189 5 view .LVU1684
 4851              		.loc 1 1190 5 is_stmt 0 view .LVU1685
 4852 0066 026B     		ldr	r2, [r0, #48]
 4853              	.LVL289:
 4854              		.loc 1 1189 5 view .LVU1686
 4855 0068 5960     		str	r1, [r3, #4]
 4856              	.LVL290:
 4857              		.loc 1 1189 49 is_stmt 1 view .LVU1687
 4858              		.loc 1 1190 5 view .LVU1688
 4859 006a 42F48062 		orr	r2, r2, #1024
 4860 006e DAE7     		b	.L310
 4861              		.cfi_endproc
 4862              	.LFE470:
 4863              		.size	spi_lld_exchange, .-spi_lld_exchange
 4864              		.section	.text.spi_lld_send,"ax",%progbits
 4865              		.align	1
 4866              		.p2align 2,,3
 4867              		.global	spi_lld_send
 4868              		.syntax unified
 4869              		.thumb
 4870              		.thumb_func
 4871              		.type	spi_lld_send, %function
 4872              	spi_lld_send:
 4873              	.LVL291:
 4874              	.LFB471:
 4875              		.loc 1 1216 66 view -0
 4876              		.cfi_startproc
 4877              		@ args = 0, pretend = 0, frame = 0
 4878              		@ frame_needed = 0, uses_anonymous_args = 0
 4879              		@ link register save eliminated.
 4880              		.loc 1 1218 3 view .LVU1690
 4881              		.loc 1 1218 3 view .LVU1691
 4882              		.loc 1 1218 3 view .LVU1692
 4883              		.loc 1 1221 3 view .LVU1693
 4884              		.loc 1 1221 6 is_stmt 0 view .LVU1694
 4885 0000 90F82030 		ldrb	r3, [r0, #32]	@ zero_extendqisi2
 4886              		.loc 1 1216 66 view .LVU1695
 4887 0004 10B4     		push	{r4}
 4888              		.cfi_def_cfa_offset 4
 4889              		.cfi_offset 4, -4
 4890              		.loc 1 1225 5 view .LVU1696
 4891 0006 446A     		ldr	r4, [r0, #36]
 4892              		.loc 1 1221 6 view .LVU1697
 4893 0008 13B3     		cbz	r3, .L312
 4894              		.loc 1 1225 5 is_stmt 1 view .LVU1698
 4895 000a 6468     		ldr	r4, [r4, #4]
 4896 000c 00F13403 		add	r3, r0, #52
 4897 0010 E360     		str	r3, [r4, #12]
 4898              		.loc 1 1225 54 view .LVU1699
 4899              		.loc 1 1226 5 view .LVU1700
 4900              		.loc 1 1227 5 is_stmt 0 view .LVU1701
ARM GAS  C:\Users\DEVELO~1\AppData\Local\Temp\ccJK6Gr9.s 			page 87


 4901 0012 C36A     		ldr	r3, [r0, #44]
 4902              		.loc 1 1226 5 view .LVU1702
 4903 0014 6160     		str	r1, [r4, #4]
 4904              		.loc 1 1226 51 is_stmt 1 view .LVU1703
 4905              		.loc 1 1227 5 view .LVU1704
 4906 0016 2360     		str	r3, [r4]
 4907              		.loc 1 1227 54 view .LVU1705
 4908              		.loc 1 1229 5 view .LVU1706
 4909 0018 836A     		ldr	r3, [r0, #40]
 4910 001a 5B68     		ldr	r3, [r3, #4]
 4911 001c DA60     		str	r2, [r3, #12]
 4912              		.loc 1 1229 46 view .LVU1707
 4913              		.loc 1 1230 5 view .LVU1708
 4914              		.loc 1 1231 5 is_stmt 0 view .LVU1709
 4915 001e 026B     		ldr	r2, [r0, #48]
 4916              	.LVL292:
 4917              		.loc 1 1230 5 view .LVU1710
 4918 0020 5960     		str	r1, [r3, #4]
 4919              	.LVL293:
 4920              		.loc 1 1230 51 is_stmt 1 view .LVU1711
 4921              		.loc 1 1231 5 view .LVU1712
 4922 0022 42F08002 		orr	r2, r2, #128
 4923              	.L316:
 4924              		.loc 1 1248 5 is_stmt 0 view .LVU1713
 4925 0026 1A60     		str	r2, [r3]
 4926              		.loc 1 1248 72 is_stmt 1 view .LVU1714
 4927              		.loc 1 1250 5 view .LVU1715
 4928 0028 2268     		ldr	r2, [r4]
 4929 002a 42F00102 		orr	r2, r2, #1
 4930 002e 2260     		str	r2, [r4]
 4931              		.loc 1 1250 34 view .LVU1716
 4932              		.loc 1 1251 5 view .LVU1717
 4933              		.loc 1 1251 34 view .LVU1718
 4934              		.loc 1 1255 3 view .LVU1719
 4935              	.LVL294:
 4936              	.LBB817:
 4937              	.LBI817:
 4938              		.loc 1 118 13 view .LVU1720
 4939              	.LBB818:
 4940              		.loc 1 120 3 view .LVU1721
 4941              	.LBE818:
 4942              	.LBE817:
 4943              		.loc 1 1251 5 is_stmt 0 view .LVU1722
 4944 0030 1A68     		ldr	r2, [r3]
 4945 0032 42F00102 		orr	r2, r2, #1
 4946 0036 1A60     		str	r2, [r3]
 4947              	.LBB822:
 4948              	.LBB821:
 4949              		.loc 1 120 20 view .LVU1723
 4950 0038 4368     		ldr	r3, [r0, #4]
 4951              		.loc 1 120 6 view .LVU1724
 4952 003a 5B78     		ldrb	r3, [r3, #1]	@ zero_extendqisi2
 4953 003c 23B9     		cbnz	r3, .L314
 4954 003e C269     		ldr	r2, [r0, #28]
 4955              	.LBB819:
 4956              	.LBI819:
 4957              		.loc 1 118 13 is_stmt 1 view .LVU1725
ARM GAS  C:\Users\DEVELO~1\AppData\Local\Temp\ccJK6Gr9.s 			page 88


 4958              	.LVL295:
 4959              	.LBB820:
 4960              		.loc 1 121 5 view .LVU1726
 4961              		.loc 1 121 20 is_stmt 0 view .LVU1727
 4962 0040 1368     		ldr	r3, [r2]
 4963 0042 43F40073 		orr	r3, r3, #512
 4964 0046 1360     		str	r3, [r2]
 4965              	.L314:
 4966              	.LVL296:
 4967              		.loc 1 121 20 view .LVU1728
 4968              	.LBE820:
 4969              	.LBE819:
 4970              	.LBE821:
 4971              	.LBE822:
 4972              		.loc 1 1257 3 is_stmt 1 view .LVU1729
 4973              		.loc 1 1258 1 is_stmt 0 view .LVU1730
 4974 0048 0020     		movs	r0, #0
 4975              	.LVL297:
 4976              		.loc 1 1258 1 view .LVU1731
 4977 004a 5DF8044B 		ldr	r4, [sp], #4
 4978              		.cfi_remember_state
 4979              		.cfi_restore 4
 4980              		.cfi_def_cfa_offset 0
 4981 004e 7047     		bx	lr
 4982              	.LVL298:
 4983              	.L312:
 4984              		.cfi_restore_state
 4985              		.loc 1 1242 5 is_stmt 1 view .LVU1732
 4986 0050 2468     		ldr	r4, [r4]
 4987 0052 00F13403 		add	r3, r0, #52
 4988 0056 E360     		str	r3, [r4, #12]
 4989              		.loc 1 1242 53 view .LVU1733
 4990              		.loc 1 1243 5 view .LVU1734
 4991              		.loc 1 1244 5 is_stmt 0 view .LVU1735
 4992 0058 C36A     		ldr	r3, [r0, #44]
 4993              		.loc 1 1243 5 view .LVU1736
 4994 005a 6160     		str	r1, [r4, #4]
 4995              		.loc 1 1243 49 is_stmt 1 view .LVU1737
 4996              		.loc 1 1244 5 view .LVU1738
 4997 005c 2360     		str	r3, [r4]
 4998              		.loc 1 1244 52 view .LVU1739
 4999              		.loc 1 1246 5 view .LVU1740
 5000 005e 836A     		ldr	r3, [r0, #40]
 5001 0060 1B68     		ldr	r3, [r3]
 5002 0062 DA60     		str	r2, [r3, #12]
 5003              		.loc 1 1246 45 view .LVU1741
 5004              		.loc 1 1247 5 view .LVU1742
 5005              		.loc 1 1248 5 is_stmt 0 view .LVU1743
 5006 0064 026B     		ldr	r2, [r0, #48]
 5007              	.LVL299:
 5008              		.loc 1 1247 5 view .LVU1744
 5009 0066 5960     		str	r1, [r3, #4]
 5010              	.LVL300:
 5011              		.loc 1 1247 49 is_stmt 1 view .LVU1745
 5012              		.loc 1 1248 5 view .LVU1746
 5013 0068 42F48062 		orr	r2, r2, #1024
 5014 006c DBE7     		b	.L316
ARM GAS  C:\Users\DEVELO~1\AppData\Local\Temp\ccJK6Gr9.s 			page 89


 5015              		.cfi_endproc
 5016              	.LFE471:
 5017              		.size	spi_lld_send, .-spi_lld_send
 5018 006e 00BF     		.section	.text.spi_lld_receive,"ax",%progbits
 5019              		.align	1
 5020              		.p2align 2,,3
 5021              		.global	spi_lld_receive
 5022              		.syntax unified
 5023              		.thumb
 5024              		.thumb_func
 5025              		.type	spi_lld_receive, %function
 5026              	spi_lld_receive:
 5027              	.LVL301:
 5028              	.LFB472:
 5029              		.loc 1 1274 63 view -0
 5030              		.cfi_startproc
 5031              		@ args = 0, pretend = 0, frame = 0
 5032              		@ frame_needed = 0, uses_anonymous_args = 0
 5033              		@ link register save eliminated.
 5034              		.loc 1 1276 3 view .LVU1748
 5035              		.loc 1 1276 3 view .LVU1749
 5036              		.loc 1 1276 3 view .LVU1750
 5037              		.loc 1 1279 3 view .LVU1751
 5038              		.loc 1 1279 6 is_stmt 0 view .LVU1752
 5039 0000 90F82030 		ldrb	r3, [r0, #32]	@ zero_extendqisi2
 5040              		.loc 1 1274 63 view .LVU1753
 5041 0004 10B4     		push	{r4}
 5042              		.cfi_def_cfa_offset 4
 5043              		.cfi_offset 4, -4
 5044              		.loc 1 1283 5 view .LVU1754
 5045 0006 446A     		ldr	r4, [r0, #36]
 5046              		.loc 1 1279 6 view .LVU1755
 5047 0008 13B3     		cbz	r3, .L318
 5048              		.loc 1 1283 5 is_stmt 1 view .LVU1756
 5049              		.loc 1 1285 5 is_stmt 0 view .LVU1757
 5050 000a C36A     		ldr	r3, [r0, #44]
 5051              		.loc 1 1283 5 view .LVU1758
 5052 000c 6468     		ldr	r4, [r4, #4]
 5053              		.loc 1 1285 5 view .LVU1759
 5054 000e 43F08003 		orr	r3, r3, #128
 5055              		.loc 1 1283 5 view .LVU1760
 5056 0012 E260     		str	r2, [r4, #12]
 5057              		.loc 1 1283 46 is_stmt 1 view .LVU1761
 5058              		.loc 1 1284 5 view .LVU1762
 5059              		.loc 1 1287 5 is_stmt 0 view .LVU1763
 5060 0014 00F13802 		add	r2, r0, #56
 5061              	.LVL302:
 5062              		.loc 1 1284 5 view .LVU1764
 5063 0018 6160     		str	r1, [r4, #4]
 5064              	.LVL303:
 5065              		.loc 1 1284 51 is_stmt 1 view .LVU1765
 5066              		.loc 1 1285 5 view .LVU1766
 5067 001a 2360     		str	r3, [r4]
 5068              		.loc 1 1285 75 view .LVU1767
 5069              		.loc 1 1287 5 view .LVU1768
 5070 001c 836A     		ldr	r3, [r0, #40]
 5071 001e 5B68     		ldr	r3, [r3, #4]
ARM GAS  C:\Users\DEVELO~1\AppData\Local\Temp\ccJK6Gr9.s 			page 90


 5072              	.L322:
 5073              		.loc 1 1304 5 is_stmt 0 view .LVU1769
 5074 0020 DA60     		str	r2, [r3, #12]
 5075              		.loc 1 1304 55 is_stmt 1 view .LVU1770
 5076              		.loc 1 1305 5 view .LVU1771
 5077              		.loc 1 1306 5 is_stmt 0 view .LVU1772
 5078 0022 026B     		ldr	r2, [r0, #48]
 5079              		.loc 1 1305 5 view .LVU1773
 5080 0024 5960     		str	r1, [r3, #4]
 5081              		.loc 1 1305 49 is_stmt 1 view .LVU1774
 5082              		.loc 1 1306 5 view .LVU1775
 5083 0026 1A60     		str	r2, [r3]
 5084              		.loc 1 1306 52 view .LVU1776
 5085              		.loc 1 1308 5 view .LVU1777
 5086 0028 2268     		ldr	r2, [r4]
 5087 002a 42F00102 		orr	r2, r2, #1
 5088 002e 2260     		str	r2, [r4]
 5089              		.loc 1 1308 34 view .LVU1778
 5090              		.loc 1 1309 5 view .LVU1779
 5091              		.loc 1 1309 34 view .LVU1780
 5092              		.loc 1 1313 3 view .LVU1781
 5093              	.LVL304:
 5094              	.LBB827:
 5095              	.LBI827:
 5096              		.loc 1 118 13 view .LVU1782
 5097              	.LBB828:
 5098              		.loc 1 120 3 view .LVU1783
 5099              	.LBE828:
 5100              	.LBE827:
 5101              		.loc 1 1309 5 is_stmt 0 view .LVU1784
 5102 0030 1A68     		ldr	r2, [r3]
 5103 0032 42F00102 		orr	r2, r2, #1
 5104 0036 1A60     		str	r2, [r3]
 5105              	.LBB832:
 5106              	.LBB831:
 5107              		.loc 1 120 20 view .LVU1785
 5108 0038 4368     		ldr	r3, [r0, #4]
 5109              		.loc 1 120 6 view .LVU1786
 5110 003a 5B78     		ldrb	r3, [r3, #1]	@ zero_extendqisi2
 5111 003c 23B9     		cbnz	r3, .L320
 5112 003e C269     		ldr	r2, [r0, #28]
 5113              	.LBB829:
 5114              	.LBI829:
 5115              		.loc 1 118 13 is_stmt 1 view .LVU1787
 5116              	.LVL305:
 5117              	.LBB830:
 5118              		.loc 1 121 5 view .LVU1788
 5119              		.loc 1 121 20 is_stmt 0 view .LVU1789
 5120 0040 1368     		ldr	r3, [r2]
 5121 0042 43F40073 		orr	r3, r3, #512
 5122 0046 1360     		str	r3, [r2]
 5123              	.L320:
 5124              	.LVL306:
 5125              		.loc 1 121 20 view .LVU1790
 5126              	.LBE830:
 5127              	.LBE829:
 5128              	.LBE831:
ARM GAS  C:\Users\DEVELO~1\AppData\Local\Temp\ccJK6Gr9.s 			page 91


 5129              	.LBE832:
 5130              		.loc 1 1315 3 is_stmt 1 view .LVU1791
 5131              		.loc 1 1316 1 is_stmt 0 view .LVU1792
 5132 0048 0020     		movs	r0, #0
 5133              	.LVL307:
 5134              		.loc 1 1316 1 view .LVU1793
 5135 004a 5DF8044B 		ldr	r4, [sp], #4
 5136              		.cfi_remember_state
 5137              		.cfi_restore 4
 5138              		.cfi_def_cfa_offset 0
 5139 004e 7047     		bx	lr
 5140              	.LVL308:
 5141              	.L318:
 5142              		.cfi_restore_state
 5143              		.loc 1 1300 5 is_stmt 1 view .LVU1794
 5144              		.loc 1 1302 5 is_stmt 0 view .LVU1795
 5145 0050 C36A     		ldr	r3, [r0, #44]
 5146              		.loc 1 1300 5 view .LVU1796
 5147 0052 2468     		ldr	r4, [r4]
 5148              		.loc 1 1302 5 view .LVU1797
 5149 0054 43F48063 		orr	r3, r3, #1024
 5150              		.loc 1 1300 5 view .LVU1798
 5151 0058 E260     		str	r2, [r4, #12]
 5152              		.loc 1 1300 45 is_stmt 1 view .LVU1799
 5153              		.loc 1 1301 5 view .LVU1800
 5154              		.loc 1 1304 5 is_stmt 0 view .LVU1801
 5155 005a 00F13802 		add	r2, r0, #56
 5156              	.LVL309:
 5157              		.loc 1 1301 5 view .LVU1802
 5158 005e 6160     		str	r1, [r4, #4]
 5159              	.LVL310:
 5160              		.loc 1 1301 49 is_stmt 1 view .LVU1803
 5161              		.loc 1 1302 5 view .LVU1804
 5162 0060 2360     		str	r3, [r4]
 5163              		.loc 1 1302 72 view .LVU1805
 5164              		.loc 1 1304 5 view .LVU1806
 5165 0062 836A     		ldr	r3, [r0, #40]
 5166 0064 1B68     		ldr	r3, [r3]
 5167 0066 DBE7     		b	.L322
 5168              		.cfi_endproc
 5169              	.LFE472:
 5170              		.size	spi_lld_receive, .-spi_lld_receive
 5171              		.section	.text.spi_lld_stop_transfer,"ax",%progbits
 5172              		.align	1
 5173              		.p2align 2,,3
 5174              		.global	spi_lld_stop_transfer
 5175              		.syntax unified
 5176              		.thumb
 5177              		.thumb_func
 5178              		.type	spi_lld_stop_transfer, %function
 5179              	spi_lld_stop_transfer:
 5180              	.LVL311:
 5181              	.LFB473:
 5182              		.loc 1 1328 61 view -0
 5183              		.cfi_startproc
 5184              		@ args = 0, pretend = 0, frame = 0
 5185              		@ frame_needed = 0, uses_anonymous_args = 0
ARM GAS  C:\Users\DEVELO~1\AppData\Local\Temp\ccJK6Gr9.s 			page 92


 5186              		.loc 1 1329 3 view .LVU1808
 5187              		.loc 1 1332 3 view .LVU1809
 5188              		.loc 1 1328 61 is_stmt 0 view .LVU1810
 5189 0000 38B5     		push	{r3, r4, r5, lr}
 5190              		.cfi_def_cfa_offset 16
 5191              		.cfi_offset 3, -16
 5192              		.cfi_offset 4, -12
 5193              		.cfi_offset 5, -8
 5194              		.cfi_offset 14, -4
 5195              		.loc 1 1328 61 view .LVU1811
 5196 0002 0C46     		mov	r4, r1
 5197 0004 0546     		mov	r5, r0
 5198              		.loc 1 1332 9 view .LVU1812
 5199 0006 FFF7FEFF 		bl	spi_lld_stop_nicely
 5200              	.LVL312:
 5201              		.loc 1 1334 3 is_stmt 1 view .LVU1813
 5202              		.loc 1 1334 6 is_stmt 0 view .LVU1814
 5203 000a 34B1     		cbz	r4, .L323
 5204              		.loc 1 1336 5 is_stmt 1 view .LVU1815
 5205              		.loc 1 1336 8 is_stmt 0 view .LVU1816
 5206 000c 95F82030 		ldrb	r3, [r5, #32]	@ zero_extendqisi2
 5207 0010 23B1     		cbz	r3, .L325
 5208              		.loc 1 1340 7 is_stmt 1 view .LVU1817
 5209              		.loc 1 1340 16 is_stmt 0 view .LVU1818
 5210 0012 6B6A     		ldr	r3, [r5, #36]
 5211 0014 5B68     		ldr	r3, [r3, #4]
 5212 0016 5B68     		ldr	r3, [r3, #4]
 5213              		.loc 1 1340 14 view .LVU1819
 5214 0018 2360     		str	r3, [r4]
 5215              	.L323:
 5216              		.loc 1 1354 1 view .LVU1820
 5217 001a 38BD     		pop	{r3, r4, r5, pc}
 5218              	.LVL313:
 5219              	.L325:
 5220              		.loc 1 1348 7 is_stmt 1 view .LVU1821
 5221              		.loc 1 1348 16 is_stmt 0 view .LVU1822
 5222 001c 6B6A     		ldr	r3, [r5, #36]
 5223 001e 1B68     		ldr	r3, [r3]
 5224 0020 5B68     		ldr	r3, [r3, #4]
 5225              		.loc 1 1348 14 view .LVU1823
 5226 0022 2360     		str	r3, [r4]
 5227              		.loc 1 1353 3 is_stmt 1 view .LVU1824
 5228              		.loc 1 1354 1 is_stmt 0 view .LVU1825
 5229 0024 38BD     		pop	{r3, r4, r5, pc}
 5230              		.loc 1 1354 1 view .LVU1826
 5231              		.cfi_endproc
 5232              	.LFE473:
 5233              		.size	spi_lld_stop_transfer, .-spi_lld_stop_transfer
 5234 0026 00BF     		.section	.text.spi_lld_polled_exchange,"ax",%progbits
 5235              		.align	1
 5236              		.p2align 2,,3
 5237              		.global	spi_lld_polled_exchange
 5238              		.syntax unified
 5239              		.thumb
 5240              		.thumb_func
 5241              		.type	spi_lld_polled_exchange, %function
 5242              	spi_lld_polled_exchange:
ARM GAS  C:\Users\DEVELO~1\AppData\Local\Temp\ccJK6Gr9.s 			page 93


 5243              	.LVL314:
 5244              	.LFB474:
 5245              		.loc 1 1370 67 is_stmt 1 view -0
 5246              		.cfi_startproc
 5247              		@ args = 0, pretend = 0, frame = 0
 5248              		@ frame_needed = 0, uses_anonymous_args = 0
 5249              		@ link register save eliminated.
 5250              		.loc 1 1371 3 view .LVU1828
 5251              		.loc 1 1371 25 is_stmt 0 view .LVU1829
 5252 0000 C369     		ldr	r3, [r0, #28]
 5253              		.loc 1 1370 67 view .LVU1830
 5254 0002 10B4     		push	{r4}
 5255              		.cfi_def_cfa_offset 4
 5256              		.cfi_offset 4, -4
 5257              		.loc 1 1371 30 view .LVU1831
 5258 0004 9A68     		ldr	r2, [r3, #8]
 5259              	.LBB841:
 5260              	.LBB842:
 5261              		.loc 1 120 20 view .LVU1832
 5262 0006 4468     		ldr	r4, [r0, #4]
 5263              	.LBE842:
 5264              	.LBE841:
 5265              		.loc 1 1371 37 view .LVU1833
 5266 0008 02F01F0C 		and	ip, r2, #31
 5267              	.LBB847:
 5268              	.LBB845:
 5269              		.loc 1 120 20 view .LVU1834
 5270 000c 6478     		ldrb	r4, [r4, #1]	@ zero_extendqisi2
 5271              	.LBE845:
 5272              	.LBE847:
 5273              		.loc 1 1371 12 view .LVU1835
 5274 000e 0CF1010C 		add	ip, ip, #1
 5275              	.LVL315:
 5276              		.loc 1 1372 3 is_stmt 1 view .LVU1836
 5277              		.loc 1 1374 3 view .LVU1837
 5278              	.LBB848:
 5279              	.LBI841:
 5280              		.loc 1 118 13 view .LVU1838
 5281              	.LBB846:
 5282              		.loc 1 120 3 view .LVU1839
 5283              		.loc 1 120 6 is_stmt 0 view .LVU1840
 5284 0012 1CB9     		cbnz	r4, .L332
 5285              	.LBB843:
 5286              	.LBI843:
 5287              		.loc 1 118 13 is_stmt 1 view .LVU1841
 5288              	.LVL316:
 5289              	.LBB844:
 5290              		.loc 1 121 5 view .LVU1842
 5291              		.loc 1 121 20 is_stmt 0 view .LVU1843
 5292 0014 1A68     		ldr	r2, [r3]
 5293 0016 42F40072 		orr	r2, r2, #512
 5294 001a 1A60     		str	r2, [r3]
 5295              	.LVL317:
 5296              	.L332:
 5297              		.loc 1 121 20 view .LVU1844
 5298              	.LBE844:
 5299              	.LBE843:
ARM GAS  C:\Users\DEVELO~1\AppData\Local\Temp\ccJK6Gr9.s 			page 94


 5300              	.LBE846:
 5301              	.LBE848:
 5302              		.loc 1 1377 39 is_stmt 1 discriminator 1 view .LVU1845
 5303              		.loc 1 1377 20 is_stmt 0 discriminator 1 view .LVU1846
 5304 001c 5A69     		ldr	r2, [r3, #20]
 5305              		.loc 1 1377 39 discriminator 1 view .LVU1847
 5306 001e 9207     		lsls	r2, r2, #30
 5307 0020 FCD5     		bpl	.L332
 5308              		.loc 1 1382 3 is_stmt 1 view .LVU1848
 5309              		.loc 1 1382 6 is_stmt 0 view .LVU1849
 5310 0022 BCF1080F 		cmp	ip, #8
 5311 0026 19D8     		bhi	.L333
 5312              	.LBB849:
 5313              		.loc 1 1384 5 is_stmt 1 view .LVU1850
 5314              	.LVL318:
 5315              		.loc 1 1385 5 view .LVU1851
 5316              		.loc 1 1386 5 view .LVU1852
 5317              		.loc 1 1386 15 is_stmt 0 view .LVU1853
 5318 0028 C9B2     		uxtb	r1, r1
 5319              	.LVL319:
 5320              		.loc 1 1386 13 view .LVU1854
 5321 002a 83F82010 		strb	r1, [r3, #32]
 5322              		.loc 1 1387 5 is_stmt 1 view .LVU1855
 5323              		.loc 1 1387 17 is_stmt 0 view .LVU1856
 5324 002e C269     		ldr	r2, [r0, #28]
 5325              	.L334:
 5326              		.loc 1 1387 41 is_stmt 1 discriminator 1 view .LVU1857
 5327              		.loc 1 1387 22 is_stmt 0 discriminator 1 view .LVU1858
 5328 0030 5169     		ldr	r1, [r2, #20]
 5329              		.loc 1 1387 41 discriminator 1 view .LVU1859
 5330 0032 CC07     		lsls	r4, r1, #31
 5331 0034 FCD5     		bpl	.L334
 5332              		.loc 1 1389 5 is_stmt 1 view .LVU1860
 5333              	.LBE849:
 5334              	.LBB850:
 5335              	.LBB851:
 5336              		.loc 1 127 20 is_stmt 0 view .LVU1861
 5337 0036 4168     		ldr	r1, [r0, #4]
 5338              	.LBE851:
 5339              	.LBE850:
 5340              	.LBB855:
 5341              		.loc 1 1389 25 view .LVU1862
 5342 0038 93F83030 		ldrb	r3, [r3, #48]	@ zero_extendqisi2
 5343              	.LVL320:
 5344              		.loc 1 1389 25 view .LVU1863
 5345              	.LBE855:
 5346              	.LBB856:
 5347              	.LBB852:
 5348              		.loc 1 127 20 view .LVU1864
 5349 003c 4C78     		ldrb	r4, [r1, #1]	@ zero_extendqisi2
 5350              	.LBE852:
 5351              	.LBE856:
 5352              	.LBB857:
 5353              		.loc 1 1389 25 view .LVU1865
 5354 003e D8B2     		uxtb	r0, r3
 5355              	.LVL321:
 5356              	.L335:
ARM GAS  C:\Users\DEVELO~1\AppData\Local\Temp\ccJK6Gr9.s 			page 95


 5357              		.loc 1 1389 25 view .LVU1866
 5358              	.LBE857:
 5359              		.loc 1 1408 3 is_stmt 1 view .LVU1867
 5360              	.LBB858:
 5361              	.LBI850:
 5362              		.loc 1 125 13 view .LVU1868
 5363              	.LBB853:
 5364              		.loc 1 127 3 view .LVU1869
 5365              		.loc 1 127 6 is_stmt 0 view .LVU1870
 5366 0040 34B9     		cbnz	r4, .L341
 5367              		.loc 1 128 5 is_stmt 1 view .LVU1871
 5368              		.loc 1 128 20 is_stmt 0 view .LVU1872
 5369 0042 1368     		ldr	r3, [r2]
 5370 0044 43F48063 		orr	r3, r3, #1024
 5371 0048 1360     		str	r3, [r2]
 5372              		.loc 1 129 5 is_stmt 1 view .LVU1873
 5373              	.L340:
 5374              		.loc 1 130 5 view .LVU1874
 5375              		.loc 1 129 46 view .LVU1875
 5376              		.loc 1 129 22 is_stmt 0 view .LVU1876
 5377 004a 1368     		ldr	r3, [r2]
 5378              		.loc 1 129 46 view .LVU1877
 5379 004c 9B05     		lsls	r3, r3, #22
 5380 004e FCD4     		bmi	.L340
 5381              	.L341:
 5382              		.loc 1 132 3 is_stmt 1 view .LVU1878
 5383              		.loc 1 132 19 is_stmt 0 view .LVU1879
 5384 0050 4FF0FF33 		mov	r3, #-1
 5385              	.LBE853:
 5386              	.LBE858:
 5387              		.loc 1 1412 1 view .LVU1880
 5388 0054 5DF8044B 		ldr	r4, [sp], #4
 5389              		.cfi_remember_state
 5390              		.cfi_restore 4
 5391              		.cfi_def_cfa_offset 0
 5392              	.LBB859:
 5393              	.LBB854:
 5394              		.loc 1 132 19 view .LVU1881
 5395 0058 9361     		str	r3, [r2, #24]
 5396              	.LVL322:
 5397              		.loc 1 132 19 view .LVU1882
 5398              	.LBE854:
 5399              	.LBE859:
 5400              		.loc 1 1411 3 is_stmt 1 view .LVU1883
 5401              		.loc 1 1412 1 is_stmt 0 view .LVU1884
 5402 005a 7047     		bx	lr
 5403              	.LVL323:
 5404              	.L333:
 5405              		.cfi_restore_state
 5406              		.loc 1 1391 8 is_stmt 1 view .LVU1885
 5407              		.loc 1 1391 11 is_stmt 0 view .LVU1886
 5408 005c BCF1100F 		cmp	ip, #16
 5409 0060 08D8     		bhi	.L336
 5410              	.LBB860:
 5411              		.loc 1 1393 5 is_stmt 1 view .LVU1887
 5412              	.LVL324:
 5413              		.loc 1 1394 5 view .LVU1888
ARM GAS  C:\Users\DEVELO~1\AppData\Local\Temp\ccJK6Gr9.s 			page 96


 5414              		.loc 1 1395 5 view .LVU1889
 5415              		.loc 1 1395 16 is_stmt 0 view .LVU1890
 5416 0062 89B2     		uxth	r1, r1
 5417              	.LVL325:
 5418              		.loc 1 1395 14 view .LVU1891
 5419 0064 1984     		strh	r1, [r3, #32]	@ movhi
 5420              		.loc 1 1396 5 is_stmt 1 view .LVU1892
 5421              	.L337:
 5422              		.loc 1 1396 41 discriminator 1 view .LVU1893
 5423              		.loc 1 1396 22 is_stmt 0 discriminator 1 view .LVU1894
 5424 0066 5A69     		ldr	r2, [r3, #20]
 5425              		.loc 1 1396 41 discriminator 1 view .LVU1895
 5426 0068 D107     		lsls	r1, r2, #31
 5427 006a FCD5     		bpl	.L337
 5428              		.loc 1 1398 5 is_stmt 1 view .LVU1896
 5429              		.loc 1 1398 25 is_stmt 0 view .LVU1897
 5430 006c 188E     		ldrh	r0, [r3, #48]
 5431              	.LVL326:
 5432              		.loc 1 1398 25 view .LVU1898
 5433              	.LBE860:
 5434 006e 1A46     		mov	r2, r3
 5435              	.LBB861:
 5436 0070 80B2     		uxth	r0, r0
 5437              	.LVL327:
 5438              		.loc 1 1398 25 view .LVU1899
 5439              	.LBE861:
 5440 0072 E5E7     		b	.L335
 5441              	.LVL328:
 5442              	.L336:
 5443              		.loc 1 1402 5 is_stmt 1 view .LVU1900
 5444              		.loc 1 1402 21 is_stmt 0 view .LVU1901
 5445 0074 1962     		str	r1, [r3, #32]
 5446              		.loc 1 1403 5 is_stmt 1 view .LVU1902
 5447              	.L338:
 5448              		.loc 1 1403 41 discriminator 1 view .LVU1903
 5449              		.loc 1 1403 22 is_stmt 0 discriminator 1 view .LVU1904
 5450 0076 5A69     		ldr	r2, [r3, #20]
 5451              		.loc 1 1403 41 discriminator 1 view .LVU1905
 5452 0078 D207     		lsls	r2, r2, #31
 5453 007a FCD5     		bpl	.L338
 5454              		.loc 1 1405 5 is_stmt 1 view .LVU1906
 5455              		.loc 1 1405 13 is_stmt 0 view .LVU1907
 5456 007c 186B     		ldr	r0, [r3, #48]
 5457              	.LVL329:
 5458              		.loc 1 1405 13 view .LVU1908
 5459 007e 1A46     		mov	r2, r3
 5460 0080 DEE7     		b	.L335
 5461              		.cfi_endproc
 5462              	.LFE474:
 5463              		.size	spi_lld_polled_exchange, .-spi_lld_polled_exchange
 5464              		.global	SPID6
 5465              		.global	SPID5
 5466              		.global	SPID4
 5467              		.global	SPID3
 5468              		.global	SPID2
 5469              		.global	SPID1
 5470 0082 00BF     		.section	.bss.SPID1,"aw",%nobits
ARM GAS  C:\Users\DEVELO~1\AppData\Local\Temp\ccJK6Gr9.s 			page 97


 5471              		.align	2
 5472              		.set	.LANCHOR0,. + 0
 5473              		.type	SPID1, %object
 5474              		.size	SPID1, 60
 5475              	SPID1:
 5476 0000 00000000 		.space	60
 5476      00000000 
 5476      00000000 
 5476      00000000 
 5476      00000000 
 5477              		.section	.bss.SPID2,"aw",%nobits
 5478              		.align	2
 5479              		.set	.LANCHOR1,. + 0
 5480              		.type	SPID2, %object
 5481              		.size	SPID2, 60
 5482              	SPID2:
 5483 0000 00000000 		.space	60
 5483      00000000 
 5483      00000000 
 5483      00000000 
 5483      00000000 
 5484              		.section	.bss.SPID3,"aw",%nobits
 5485              		.align	2
 5486              		.set	.LANCHOR2,. + 0
 5487              		.type	SPID3, %object
 5488              		.size	SPID3, 60
 5489              	SPID3:
 5490 0000 00000000 		.space	60
 5490      00000000 
 5490      00000000 
 5490      00000000 
 5490      00000000 
 5491              		.section	.bss.SPID4,"aw",%nobits
 5492              		.align	2
 5493              		.set	.LANCHOR3,. + 0
 5494              		.type	SPID4, %object
 5495              		.size	SPID4, 60
 5496              	SPID4:
 5497 0000 00000000 		.space	60
 5497      00000000 
 5497      00000000 
 5497      00000000 
 5497      00000000 
 5498              		.section	.bss.SPID5,"aw",%nobits
 5499              		.align	2
 5500              		.set	.LANCHOR4,. + 0
 5501              		.type	SPID5, %object
 5502              		.size	SPID5, 60
 5503              	SPID5:
 5504 0000 00000000 		.space	60
 5504      00000000 
 5504      00000000 
 5504      00000000 
 5504      00000000 
 5505              		.section	.bss.SPID6,"aw",%nobits
 5506              		.align	2
 5507              		.set	.LANCHOR5,. + 0
ARM GAS  C:\Users\DEVELO~1\AppData\Local\Temp\ccJK6Gr9.s 			page 98


 5508              		.type	SPID6, %object
 5509              		.size	SPID6, 60
 5510              	SPID6:
 5511 0000 00000000 		.space	60
 5511      00000000 
 5511      00000000 
 5511      00000000 
 5511      00000000 
 5512              		.section	.rodata.__func__.0,"a"
 5513              		.align	2
 5514              		.set	.LANCHOR11,. + 0
 5515              		.type	__func__.0, %object
 5516              		.size	__func__.0, 10
 5517              	__func__.0:
 5518 0000 56656374 		.ascii	"Vector198\000"
 5518      6F723139 
 5518      3800
 5519              		.section	.rodata.__func__.1,"a"
 5520              		.align	2
 5521              		.set	.LANCHOR10,. + 0
 5522              		.type	__func__.1, %object
 5523              		.size	__func__.1, 10
 5524              	__func__.1:
 5525 0000 56656374 		.ascii	"Vector194\000"
 5525      6F723139 
 5525      3400
 5526              		.section	.rodata.__func__.2,"a"
 5527              		.align	2
 5528              		.set	.LANCHOR9,. + 0
 5529              		.type	__func__.2, %object
 5530              		.size	__func__.2, 10
 5531              	__func__.2:
 5532 0000 56656374 		.ascii	"Vector190\000"
 5532      6F723139 
 5532      3000
 5533              		.section	.rodata.__func__.3,"a"
 5534              		.align	2
 5535              		.set	.LANCHOR8,. + 0
 5536              		.type	__func__.3, %object
 5537              		.size	__func__.3, 10
 5538              	__func__.3:
 5539 0000 56656374 		.ascii	"Vector10C\000"
 5539      6F723130 
 5539      4300
 5540              		.section	.rodata.__func__.4,"a"
 5541              		.align	2
 5542              		.set	.LANCHOR7,. + 0
 5543              		.type	__func__.4, %object
 5544              		.size	__func__.4, 9
 5545              	__func__.4:
 5546 0000 56656374 		.ascii	"VectorD0\000"
 5546      6F724430 
 5546      00
 5547              		.section	.rodata.__func__.5,"a"
 5548              		.align	2
 5549              		.set	.LANCHOR6,. + 0
 5550              		.type	__func__.5, %object
ARM GAS  C:\Users\DEVELO~1\AppData\Local\Temp\ccJK6Gr9.s 			page 99


 5551              		.size	__func__.5, 9
 5552              	__func__.5:
 5553 0000 56656374 		.ascii	"VectorCC\000"
 5553      6F724343 
 5553      00
 5554              		.text
 5555              	.Letext0:
 5556              		.file 7 "c:\\chibistudio\\tools\\gnu tools arm embedded\\11.3 2022.08\\lib\\gcc\\arm-none-eabi\\11
 5557              		.file 8 "c:\\chibistudio\\tools\\gnu tools arm embedded\\11.3 2022.08\\arm-none-eabi\\include\\mac
 5558              		.file 9 "c:\\chibistudio\\tools\\gnu tools arm embedded\\11.3 2022.08\\arm-none-eabi\\include\\sys
 5559              		.file 10 "c:\\chibistudio\\tools\\gnu tools arm embedded\\11.3 2022.08\\arm-none-eabi\\include\\st
 5560              		.file 11 "../../../os/common/ports/ARM-common/include/chtypes.h"
 5561              		.file 12 "../../../os/rt/include/chearly.h"
 5562              		.file 13 "../../../os/rt/include/chobjects.h"
 5563              		.file 14 "../../../os/rt/include/chrfcu.h"
 5564              		.file 15 "../../../os/rt/include/chdebug.h"
 5565              		.file 16 "../../../os/rt/include/chtime.h"
 5566              		.file 17 "../../../os/rt/include/chtrace.h"
 5567              		.file 18 "../../../os/common/ext/ST/STM32H7xx/stm32h743xx.h"
 5568              		.file 19 "../../../os/rt/include/chlists.h"
 5569              		.file 20 "../../../os/rt/include/chsem.h"
 5570              		.file 21 "../../../os/rt/include/chmtx.h"
 5571              		.file 22 "../../../os/hal/ports/STM32/LLD/DMAv2/stm32_dma.h"
 5572              		.file 23 "../../../os/hal/ports/STM32/LLD/BDMAv1/stm32_bdma.h"
 5573              		.file 24 "../../../os/hal/ports/STM32/LLD/GPIOv2/stm32_gpio.h"
 5574              		.file 25 "../../../os/hal/ports/STM32/LLD/GPIOv2/hal_pal_lld.h"
 5575              		.file 26 "../../../os/hal/include/hal_spi_v2.h"
 5576              		.file 27 "../../../os/hal/ports/STM32/LLD/SPIv3/hal_spi_v2_lld.h"
 5577              		.file 28 "../../../os/hal/ports/common/ARMCMx/nvic.h"
 5578              		.file 29 "../../../os/rt/include/chthreads.h"