ARM GAS  C:\Users\DEVELO~1\AppData\Local\Temp\ccwOF1Wo.s 			page 1


   1              		.cpu cortex-m7
   2              		.arch armv7e-m
   3              		.fpu fpv5-d16
   4              		.eabi_attribute 28, 1
   5              		.eabi_attribute 20, 1
   6              		.eabi_attribute 21, 1
   7              		.eabi_attribute 23, 3
   8              		.eabi_attribute 24, 1
   9              		.eabi_attribute 25, 1
  10              		.eabi_attribute 26, 1
  11              		.eabi_attribute 30, 2
  12              		.eabi_attribute 34, 1
  13              		.eabi_attribute 18, 4
  14              		.file	"hal_pal.c"
  15              		.text
  16              	.Ltext0:
  17              		.cfi_sections	.debug_frame
  18              		.section	.text.palReadBus,"ax",%progbits
  19              		.align	1
  20              		.p2align 2,,3
  21              		.global	palReadBus
  22              		.syntax unified
  23              		.thumb
  24              		.thumb_func
  25              		.type	palReadBus, %function
  26              	palReadBus:
  27              	.LVL0:
  28              	.LFB448:
  29              		.file 1 "../../../os/hal/src/hal_pal.c"
  30              		.loc 1 65 43 view -0
  31              		.cfi_startproc
  32              		@ args = 0, pretend = 0, frame = 0
  33              		@ frame_needed = 0, uses_anonymous_args = 0
  34              		@ link register save eliminated.
  35              		.loc 1 67 3 view .LVU1
  36              		.loc 1 67 3 view .LVU2
  37              		.loc 1 67 3 view .LVU3
  38              		.loc 1 69 3 view .LVU4
  39              		.loc 1 69 10 is_stmt 0 view .LVU5
  40 0000 0368     		ldr	r3, [r0]
  41 0002 D0E90102 		ldrd	r0, r2, [r0, #4]
  42              	.LVL1:
  43              		.loc 1 69 10 view .LVU6
  44 0006 1B69     		ldr	r3, [r3, #16]
  45 0008 D340     		lsrs	r3, r3, r2
  46              		.loc 1 70 1 view .LVU7
  47 000a 1840     		ands	r0, r0, r3
  48 000c 7047     		bx	lr
  49              		.cfi_endproc
  50              	.LFE448:
  51              		.size	palReadBus, .-palReadBus
  52 000e 00BF     		.section	.text.palWriteBus,"ax",%progbits
  53              		.align	1
  54              		.p2align 2,,3
  55              		.global	palWriteBus
  56              		.syntax unified
  57              		.thumb
ARM GAS  C:\Users\DEVELO~1\AppData\Local\Temp\ccwOF1Wo.s 			page 2


  58              		.thumb_func
  59              		.type	palWriteBus, %function
  60              	palWriteBus:
  61              	.LVL2:
  62              	.LFB449:
  63              		.loc 1 90 55 is_stmt 1 view -0
  64              		.cfi_startproc
  65              		@ args = 0, pretend = 0, frame = 0
  66              		@ frame_needed = 0, uses_anonymous_args = 0
  67              		@ link register save eliminated.
  68              		.loc 1 92 3 view .LVU9
  69              		.loc 1 92 3 view .LVU10
  70              		.loc 1 92 3 view .LVU11
  71              	.LBB2:
  72              		.loc 1 94 3 view .LVU12
  73              	.LBE2:
  74              		.loc 1 90 55 is_stmt 0 view .LVU13
  75 0000 10B4     		push	{r4}
  76              		.cfi_def_cfa_offset 4
  77              		.cfi_offset 4, -4
  78              	.LBB3:
  79              		.loc 1 94 3 view .LVU14
  80 0002 D0E90142 		ldrd	r4, r2, [r0, #4]
  81 0006 0068     		ldr	r0, [r0]
  82              	.LVL3:
  83              		.loc 1 94 3 view .LVU15
  84 0008 24EA0103 		bic	r3, r4, r1
  85 000c 2140     		ands	r1, r1, r4
  86              	.LVL4:
  87              		.loc 1 94 3 view .LVU16
  88              	.LBE3:
  89              		.loc 1 95 1 view .LVU17
  90 000e 5DF8044B 		ldr	r4, [sp], #4
  91              		.cfi_restore 4
  92              		.cfi_def_cfa_offset 0
  93              	.LBB4:
  94              		.loc 1 94 3 view .LVU18
  95 0012 9140     		lsls	r1, r1, r2
  96 0014 1032     		adds	r2, r2, #16
  97 0016 9340     		lsls	r3, r3, r2
  98 0018 0B43     		orrs	r3, r3, r1
  99              	.LVL5:
 100              		.loc 1 94 3 is_stmt 1 view .LVU19
 101 001a 8361     		str	r3, [r0, #24]
 102              	.LBE4:
 103              		.loc 1 94 59 view .LVU20
 104              		.loc 1 95 1 is_stmt 0 view .LVU21
 105 001c 7047     		bx	lr
 106              		.cfi_endproc
 107              	.LFE449:
 108              		.size	palWriteBus, .-palWriteBus
 109 001e 00BF     		.section	.text.palSetBusMode,"ax",%progbits
 110              		.align	1
 111              		.p2align 2,,3
 112              		.global	palSetBusMode
 113              		.syntax unified
 114              		.thumb
ARM GAS  C:\Users\DEVELO~1\AppData\Local\Temp\ccwOF1Wo.s 			page 3


 115              		.thumb_func
 116              		.type	palSetBusMode, %function
 117              	palSetBusMode:
 118              	.LVL6:
 119              	.LFB450:
 120              		.loc 1 113 53 is_stmt 1 view -0
 121              		.cfi_startproc
 122              		@ args = 0, pretend = 0, frame = 0
 123              		@ frame_needed = 0, uses_anonymous_args = 0
 124              		@ link register save eliminated.
 125              		.loc 1 115 3 view .LVU23
 126              		.loc 1 115 3 view .LVU24
 127              		.loc 1 115 3 view .LVU25
 128              		.loc 1 117 3 view .LVU26
 129              		.loc 1 113 53 is_stmt 0 view .LVU27
 130 0000 0A46     		mov	r2, r1
 131              		.loc 1 117 3 view .LVU28
 132 0002 D0E90113 		ldrd	r1, r3, [r0, #4]
 133              	.LVL7:
 134              		.loc 1 117 3 view .LVU29
 135 0006 0068     		ldr	r0, [r0]
 136              	.LVL8:
 137              		.loc 1 117 3 view .LVU30
 138 0008 9940     		lsls	r1, r1, r3
 139 000a FFF7FEBF 		b	_pal_lld_setgroupmode
 140              	.LVL9:
 141              		.loc 1 117 3 view .LVU31
 142              		.cfi_endproc
 143              	.LFE450:
 144              		.size	palSetBusMode, .-palSetBusMode
 145 000e 00BF     		.text
 146              	.Letext0:
 147              		.file 2 "c:\\chibistudio\\tools\\gnu tools arm embedded\\11.3 2022.08\\arm-none-eabi\\include\\mac
 148              		.file 3 "c:\\chibistudio\\tools\\gnu tools arm embedded\\11.3 2022.08\\arm-none-eabi\\include\\sys
 149              		.file 4 "c:\\chibistudio\\tools\\gnu tools arm embedded\\11.3 2022.08\\arm-none-eabi\\include\\std
 150              		.file 5 "../../../os/hal/ports/STM32/LLD/GPIOv2/stm32_gpio.h"
 151              		.file 6 "../../../os/hal/ports/STM32/LLD/GPIOv2/hal_pal_lld.h"
 152              		.file 7 "../../../os/hal/include/hal_pal.h"