ARM GAS  C:\Users\DEVELO~1\AppData\Local\Temp\cc6AOfHy.s 			page 1


   1              		.cpu cortex-m7
   2              		.arch armv7e-m
   3              		.fpu fpv5-d16
   4              		.eabi_attribute 28, 1
   5              		.eabi_attribute 20, 1
   6              		.eabi_attribute 21, 1
   7              		.eabi_attribute 23, 3
   8              		.eabi_attribute 24, 1
   9              		.eabi_attribute 25, 1
  10              		.eabi_attribute 26, 1
  11              		.eabi_attribute 30, 2
  12              		.eabi_attribute 34, 1
  13              		.eabi_attribute 18, 4
  14              		.file	"hal_serial.c"
  15              		.text
  16              	.Ltext0:
  17              		.cfi_sections	.debug_frame
  18              		.section	.text._readt,"ax",%progbits
  19              		.align	1
  20              		.p2align 2,,3
  21              		.syntax unified
  22              		.thumb
  23              		.thumb_func
  24              		.type	_readt, %function
  25              	_readt:
  26              	.LVL0:
  27              	.LFB455:
  28              		.file 1 "./docs/ChibiOS/os/hal/src/hal_serial.c"
  29              		.loc 1 89 45 view -0
  30              		.cfi_startproc
  31              		@ args = 0, pretend = 0, frame = 0
  32              		@ frame_needed = 0, uses_anonymous_args = 0
  33              		@ link register save eliminated.
  34              		.loc 1 91 3 view .LVU1
  35              		.loc 1 91 10 is_stmt 0 view .LVU2
  36 0000 0C30     		adds	r0, r0, #12
  37              	.LVL1:
  38              		.loc 1 91 10 view .LVU3
  39 0002 FFF7FEBF 		b	iqReadTimeout
  40              	.LVL2:
  41              		.loc 1 91 10 view .LVU4
  42              		.cfi_endproc
  43              	.LFE455:
  44              		.size	_readt, .-_readt
  45 0006 00BF     		.section	.text._read,"ax",%progbits
  46              		.align	1
  47              		.p2align 2,,3
  48              		.syntax unified
  49              		.thumb
  50              		.thumb_func
  51              		.type	_read, %function
  52              	_read:
  53              	.LVL3:
  54              	.LFB449:
  55              		.loc 1 56 54 is_stmt 1 view -0
  56              		.cfi_startproc
  57              		@ args = 0, pretend = 0, frame = 0
ARM GAS  C:\Users\DEVELO~1\AppData\Local\Temp\cc6AOfHy.s 			page 2


  58              		@ frame_needed = 0, uses_anonymous_args = 0
  59              		@ link register save eliminated.
  60              		.loc 1 58 3 view .LVU6
  61              		.loc 1 58 10 is_stmt 0 view .LVU7
  62 0000 4FF0FF33 		mov	r3, #-1
  63 0004 0C30     		adds	r0, r0, #12
  64              	.LVL4:
  65              		.loc 1 58 10 view .LVU8
  66 0006 FFF7FEBF 		b	iqReadTimeout
  67              	.LVL5:
  68              		.loc 1 58 10 view .LVU9
  69              		.cfi_endproc
  70              	.LFE449:
  71              		.size	_read, .-_read
  72 000a 00BF     		.section	.text._writet,"ax",%progbits
  73              		.align	1
  74              		.p2align 2,,3
  75              		.syntax unified
  76              		.thumb
  77              		.thumb_func
  78              		.type	_writet, %function
  79              	_writet:
  80              	.LVL6:
  81              	.LFB454:
  82              		.loc 1 83 46 is_stmt 1 view -0
  83              		.cfi_startproc
  84              		@ args = 0, pretend = 0, frame = 0
  85              		@ frame_needed = 0, uses_anonymous_args = 0
  86              		@ link register save eliminated.
  87              		.loc 1 85 3 view .LVU11
  88              		.loc 1 85 10 is_stmt 0 view .LVU12
  89 0000 3030     		adds	r0, r0, #48
  90              	.LVL7:
  91              		.loc 1 85 10 view .LVU13
  92 0002 FFF7FEBF 		b	oqWriteTimeout
  93              	.LVL8:
  94              		.loc 1 85 10 view .LVU14
  95              		.cfi_endproc
  96              	.LFE454:
  97              		.size	_writet, .-_writet
  98 0006 00BF     		.section	.text._write,"ax",%progbits
  99              		.align	1
 100              		.p2align 2,,3
 101              		.syntax unified
 102              		.thumb
 103              		.thumb_func
 104              		.type	_write, %function
 105              	_write:
 106              	.LVL9:
 107              	.LFB448:
 108              		.loc 1 50 61 is_stmt 1 view -0
 109              		.cfi_startproc
 110              		@ args = 0, pretend = 0, frame = 0
 111              		@ frame_needed = 0, uses_anonymous_args = 0
 112              		@ link register save eliminated.
 113              		.loc 1 52 3 view .LVU16
 114              		.loc 1 52 10 is_stmt 0 view .LVU17
ARM GAS  C:\Users\DEVELO~1\AppData\Local\Temp\cc6AOfHy.s 			page 3


 115 0000 4FF0FF33 		mov	r3, #-1
 116 0004 3030     		adds	r0, r0, #48
 117              	.LVL10:
 118              		.loc 1 52 10 view .LVU18
 119 0006 FFF7FEBF 		b	oqWriteTimeout
 120              	.LVL11:
 121              		.loc 1 52 10 view .LVU19
 122              		.cfi_endproc
 123              	.LFE448:
 124              		.size	_write, .-_write
 125 000a 00BF     		.section	.text._gett,"ax",%progbits
 126              		.align	1
 127              		.p2align 2,,3
 128              		.syntax unified
 129              		.thumb
 130              		.thumb_func
 131              		.type	_gett, %function
 132              	_gett:
 133              	.LVL12:
 134              	.LFB453:
 135              		.loc 1 77 53 is_stmt 1 view -0
 136              		.cfi_startproc
 137              		@ args = 0, pretend = 0, frame = 0
 138              		@ frame_needed = 0, uses_anonymous_args = 0
 139              		@ link register save eliminated.
 140              		.loc 1 79 3 view .LVU21
 141              		.loc 1 79 10 is_stmt 0 view .LVU22
 142 0000 0C30     		adds	r0, r0, #12
 143              	.LVL13:
 144              		.loc 1 79 10 view .LVU23
 145 0002 FFF7FEBF 		b	iqGetTimeout
 146              	.LVL14:
 147              		.loc 1 79 10 view .LVU24
 148              		.cfi_endproc
 149              	.LFE453:
 150              		.size	_gett, .-_gett
 151 0006 00BF     		.section	.text._get,"ax",%progbits
 152              		.align	1
 153              		.p2align 2,,3
 154              		.syntax unified
 155              		.thumb
 156              		.thumb_func
 157              		.type	_get, %function
 158              	_get:
 159              	.LVL15:
 160              	.LFB451:
 161              		.loc 1 67 29 is_stmt 1 view -0
 162              		.cfi_startproc
 163              		@ args = 0, pretend = 0, frame = 0
 164              		@ frame_needed = 0, uses_anonymous_args = 0
 165              		@ link register save eliminated.
 166              		.loc 1 69 3 view .LVU26
 167              		.loc 1 69 10 is_stmt 0 view .LVU27
 168 0000 4FF0FF31 		mov	r1, #-1
 169 0004 0C30     		adds	r0, r0, #12
 170              	.LVL16:
 171              		.loc 1 69 10 view .LVU28
ARM GAS  C:\Users\DEVELO~1\AppData\Local\Temp\cc6AOfHy.s 			page 4


 172 0006 FFF7FEBF 		b	iqGetTimeout
 173              	.LVL17:
 174              		.loc 1 69 10 view .LVU29
 175              		.cfi_endproc
 176              	.LFE451:
 177              		.size	_get, .-_get
 178 000a 00BF     		.section	.text._putt,"ax",%progbits
 179              		.align	1
 180              		.p2align 2,,3
 181              		.syntax unified
 182              		.thumb
 183              		.thumb_func
 184              		.type	_putt, %function
 185              	_putt:
 186              	.LVL18:
 187              	.LFB452:
 188              		.loc 1 72 64 is_stmt 1 view -0
 189              		.cfi_startproc
 190              		@ args = 0, pretend = 0, frame = 0
 191              		@ frame_needed = 0, uses_anonymous_args = 0
 192              		@ link register save eliminated.
 193              		.loc 1 74 3 view .LVU31
 194              		.loc 1 74 10 is_stmt 0 view .LVU32
 195 0000 3030     		adds	r0, r0, #48
 196              	.LVL19:
 197              		.loc 1 74 10 view .LVU33
 198 0002 FFF7FEBF 		b	oqPutTimeout
 199              	.LVL20:
 200              		.loc 1 74 10 view .LVU34
 201              		.cfi_endproc
 202              	.LFE452:
 203              		.size	_putt, .-_putt
 204 0006 00BF     		.section	.text._put,"ax",%progbits
 205              		.align	1
 206              		.p2align 2,,3
 207              		.syntax unified
 208              		.thumb
 209              		.thumb_func
 210              		.type	_put, %function
 211              	_put:
 212              	.LVL21:
 213              	.LFB450:
 214              		.loc 1 62 40 is_stmt 1 view -0
 215              		.cfi_startproc
 216              		@ args = 0, pretend = 0, frame = 0
 217              		@ frame_needed = 0, uses_anonymous_args = 0
 218              		@ link register save eliminated.
 219              		.loc 1 64 3 view .LVU36
 220              		.loc 1 64 10 is_stmt 0 view .LVU37
 221 0000 4FF0FF32 		mov	r2, #-1
 222 0004 3030     		adds	r0, r0, #48
 223              	.LVL22:
 224              		.loc 1 64 10 view .LVU38
 225 0006 FFF7FEBF 		b	oqPutTimeout
 226              	.LVL23:
 227              		.loc 1 64 10 view .LVU39
 228              		.cfi_endproc
ARM GAS  C:\Users\DEVELO~1\AppData\Local\Temp\cc6AOfHy.s 			page 5


 229              	.LFE450:
 230              		.size	_put, .-_put
 231 000a 00BF     		.section	.text._ctl,"ax",%progbits
 232              		.align	1
 233              		.p2align 2,,3
 234              		.syntax unified
 235              		.thumb
 236              		.thumb_func
 237              		.type	_ctl, %function
 238              	_ctl:
 239              	.LFB467:
 240              		.cfi_startproc
 241              		@ args = 0, pretend = 0, frame = 0
 242              		@ frame_needed = 0, uses_anonymous_args = 0
 243              		@ link register save eliminated.
 244 0000 0129     		cmp	r1, #1
 245 0002 14BF     		ite	ne
 246 0004 6FF01300 		mvnne	r0, #19
 247 0008 0020     		moveq	r0, #0
 248 000a 7047     		bx	lr
 249              		.cfi_endproc
 250              	.LFE467:
 251              		.size	_ctl, .-_ctl
 252              		.section	.text.sdInit,"ax",%progbits
 253              		.align	1
 254              		.p2align 2,,3
 255              		.global	sdInit
 256              		.syntax unified
 257              		.thumb
 258              		.thumb_func
 259              		.type	sdInit, %function
 260              	sdInit:
 261              	.LFB457:
 262              		.loc 1 134 19 is_stmt 1 view -0
 263              		.cfi_startproc
 264              		@ args = 0, pretend = 0, frame = 0
 265              		@ frame_needed = 0, uses_anonymous_args = 0
 266              		@ link register save eliminated.
 267              		.loc 1 136 3 view .LVU41
 268 0000 FFF7FEBF 		b	sd_lld_init
 269              	.LVL24:
 270              		.cfi_endproc
 271              	.LFE457:
 272              		.size	sdInit, .-sdInit
 273              		.section	.text.sdObjectInit,"ax",%progbits
 274              		.align	1
 275              		.p2align 2,,3
 276              		.global	sdObjectInit
 277              		.syntax unified
 278              		.thumb
 279              		.thumb_func
 280              		.type	sdObjectInit, %function
 281              	sdObjectInit:
 282              	.LVL25:
 283              	.LFB458:
 284              		.loc 1 166 38 view -0
 285              		.cfi_startproc
ARM GAS  C:\Users\DEVELO~1\AppData\Local\Temp\cc6AOfHy.s 			page 6


 286              		@ args = 0, pretend = 0, frame = 0
 287              		@ frame_needed = 0, uses_anonymous_args = 0
 288              		.loc 1 168 3 view .LVU43
 289              		.loc 1 168 12 is_stmt 0 view .LVU44
 290 0000 044B     		ldr	r3, .L16
 291              		.loc 1 166 38 view .LVU45
 292 0002 10B5     		push	{r4, lr}
 293              		.cfi_def_cfa_offset 8
 294              		.cfi_offset 4, -8
 295              		.cfi_offset 14, -4
 296              		.loc 1 166 38 view .LVU46
 297 0004 0446     		mov	r4, r0
 298              		.loc 1 168 12 view .LVU47
 299 0006 40F8043B 		str	r3, [r0], #4
 300              	.LVL26:
 301              		.loc 1 169 3 is_stmt 1 view .LVU48
 302              	.LBB88:
 303              	.LBI88:
 304              		.file 2 "./docs/ChibiOS/os/hal/osal/rt-nil/osal.h"
 305              		.loc 2 932 20 view .LVU49
 306              	.LBB89:
 307              		.loc 2 934 3 view .LVU50
 308 000a FFF7FEFF 		bl	chEvtObjectInit
 309              	.LVL27:
 310              		.loc 2 934 3 is_stmt 0 view .LVU51
 311              	.LBE89:
 312              	.LBE88:
 313              		.loc 1 170 3 is_stmt 1 view .LVU52
 314              		.loc 1 170 14 is_stmt 0 view .LVU53
 315 000e 0123     		movs	r3, #1
 316 0010 2372     		strb	r3, [r4, #8]
 317              		.loc 1 171 1 view .LVU54
 318 0012 10BD     		pop	{r4, pc}
 319              	.LVL28:
 320              	.L17:
 321              		.loc 1 171 1 view .LVU55
 322              		.align	2
 323              	.L16:
 324 0014 00000000 		.word	.LANCHOR0
 325              		.cfi_endproc
 326              	.LFE458:
 327              		.size	sdObjectInit, .-sdObjectInit
 328              		.section	.text.sdStart,"ax",%progbits
 329              		.align	1
 330              		.p2align 2,,3
 331              		.global	sdStart
 332              		.syntax unified
 333              		.thumb
 334              		.thumb_func
 335              		.type	sdStart, %function
 336              	sdStart:
 337              	.LVL29:
 338              	.LFB459:
 339              		.loc 1 185 62 is_stmt 1 view -0
 340              		.cfi_startproc
 341              		@ args = 0, pretend = 0, frame = 0
 342              		@ frame_needed = 0, uses_anonymous_args = 0
ARM GAS  C:\Users\DEVELO~1\AppData\Local\Temp\cc6AOfHy.s 			page 7


 343              		.loc 1 186 3 view .LVU57
 344              		.loc 1 188 3 view .LVU58
 345              		.loc 1 188 3 view .LVU59
 346              		.loc 1 188 3 view .LVU60
 347              		.loc 1 190 3 view .LVU61
 348              	.LBB90:
 349              	.LBI90:
 350              		.loc 2 573 20 view .LVU62
 351              		.loc 2 575 3 view .LVU63
 352              	.LBB91:
 353              	.LBI91:
 354              		.file 3 "./docs/ChibiOS/os/rt/include/chsys.h"
 355              		.loc 3 372 20 view .LVU64
 356              		.loc 3 374 3 view .LVU65
 357              	.LBB92:
 358              	.LBI92:
 359              		.file 4 "./docs/ChibiOS/os/common/ports/ARMv7-M/chcore.h"
 360              		.loc 4 840 27 view .LVU66
 361              		.loc 4 848 3 view .LVU67
 362              	.LBB93:
 363              	.LBI93:
 364              		.file 5 "./docs/ChibiOS/os/common/ext/ARM/CMSIS/Core/Include/cmsis_gcc.h"
 365              		.loc 5 491 27 view .LVU68
 366              	.LBB94:
 367              		.loc 5 493 3 view .LVU69
 368              	.LBE94:
 369              	.LBE93:
 370              	.LBE92:
 371              	.LBE91:
 372              	.LBE90:
 373              		.loc 1 185 62 is_stmt 0 view .LVU70
 374 0000 10B5     		push	{r4, lr}
 375              		.cfi_def_cfa_offset 8
 376              		.cfi_offset 4, -8
 377              		.cfi_offset 14, -4
 378              	.LBB103:
 379              	.LBB101:
 380              	.LBB99:
 381              	.LBB97:
 382              	.LBB95:
 383              		.loc 5 493 3 view .LVU71
 384 0002 3023     		movs	r3, #48
 385              	.LBE95:
 386              	.LBE97:
 387              	.LBE99:
 388              	.LBE101:
 389              	.LBE103:
 390              		.loc 1 185 62 view .LVU72
 391 0004 0446     		mov	r4, r0
 392              	.LBB104:
 393              	.LBB102:
 394              	.LBB100:
 395              	.LBB98:
 396              	.LBB96:
 397              		.loc 5 493 3 view .LVU73
 398              		.syntax unified
 399              	@ 493 "./docs/ChibiOS/os/common/ext/ARM/CMSIS/Core/Include/cmsis_gcc.h" 1
ARM GAS  C:\Users\DEVELO~1\AppData\Local\Temp\cc6AOfHy.s 			page 8


 400 0006 83F31188 		MSR basepri, r3
 401              	@ 0 "" 2
 402              	.LVL30:
 403              		.loc 5 493 3 view .LVU74
 404              		.thumb
 405              		.syntax unified
 406              	.LBE96:
 407              	.LBE98:
 408              	.LBE100:
 409              		.loc 3 375 35 is_stmt 1 view .LVU75
 410              		.loc 3 376 21 view .LVU76
 411              	.LBE102:
 412              	.LBE104:
 413              		.loc 1 191 3 view .LVU77
 414              		.loc 1 191 3 view .LVU78
 415              		.loc 1 191 3 view .LVU79
 416              		.loc 1 203 3 view .LVU80
 417 000a FFF7FEFF 		bl	sd_lld_start
 418              	.LVL31:
 419              		.loc 1 204 3 view .LVU81
 420              		.loc 1 204 14 is_stmt 0 view .LVU82
 421 000e 0223     		movs	r3, #2
 422              	.LBB105:
 423              	.LBB106:
 424              	.LBB107:
 425              	.LBB108:
 426              	.LBB109:
 427              	.LBB110:
 428              		.loc 5 493 3 view .LVU83
 429 0010 0020     		movs	r0, #0
 430              	.LBE110:
 431              	.LBE109:
 432              	.LBE108:
 433              	.LBE107:
 434              	.LBE106:
 435              	.LBE105:
 436              		.loc 1 204 14 view .LVU84
 437 0012 2372     		strb	r3, [r4, #8]
 438              		.loc 1 205 3 is_stmt 1 view .LVU85
 439              	.LVL32:
 440              		.loc 1 208 3 view .LVU86
 441              	.LBB116:
 442              	.LBI105:
 443              		.loc 2 584 20 view .LVU87
 444              		.loc 2 586 3 view .LVU88
 445              	.LBB115:
 446              	.LBI106:
 447              		.loc 3 386 20 view .LVU89
 448              	.LBB114:
 449              		.loc 3 388 23 view .LVU90
 450              		.loc 3 389 34 view .LVU91
 451              		.loc 3 395 3 view .LVU92
 452              		.loc 3 395 3 view .LVU93
 453              		.loc 3 395 3 view .LVU94
 454              		.loc 3 399 3 view .LVU95
 455              	.LBB113:
 456              	.LBI108:
ARM GAS  C:\Users\DEVELO~1\AppData\Local\Temp\cc6AOfHy.s 			page 9


 457              		.loc 4 864 27 view .LVU96
 458              		.loc 4 867 3 view .LVU97
 459              	.LBB112:
 460              	.LBI109:
 461              		.loc 5 491 27 view .LVU98
 462              	.LBB111:
 463              		.loc 5 493 3 view .LVU99
 464              		.syntax unified
 465              	@ 493 "./docs/ChibiOS/os/common/ext/ARM/CMSIS/Core/Include/cmsis_gcc.h" 1
 466 0014 80F31188 		MSR basepri, r0
 467              	@ 0 "" 2
 468              	.LVL33:
 469              		.loc 5 493 3 is_stmt 0 view .LVU100
 470              		.thumb
 471              		.syntax unified
 472              	.LBE111:
 473              	.LBE112:
 474              	.LBE113:
 475              	.LBE114:
 476              	.LBE115:
 477              	.LBE116:
 478              		.loc 1 210 3 is_stmt 1 view .LVU101
 479              		.loc 1 211 1 is_stmt 0 view .LVU102
 480 0018 10BD     		pop	{r4, pc}
 481              		.loc 1 211 1 view .LVU103
 482              		.cfi_endproc
 483              	.LFE459:
 484              		.size	sdStart, .-sdStart
 485 001a 00BF     		.section	.text.sdStop,"ax",%progbits
 486              		.align	1
 487              		.p2align 2,,3
 488              		.global	sdStop
 489              		.syntax unified
 490              		.thumb
 491              		.thumb_func
 492              		.type	sdStop, %function
 493              	sdStop:
 494              	.LVL34:
 495              	.LFB460:
 496              		.loc 1 222 32 is_stmt 1 view -0
 497              		.cfi_startproc
 498              		@ args = 0, pretend = 0, frame = 0
 499              		@ frame_needed = 0, uses_anonymous_args = 0
 500              		.loc 1 224 3 view .LVU105
 501              		.loc 1 224 3 view .LVU106
 502              		.loc 1 224 3 view .LVU107
 503              		.loc 1 226 3 view .LVU108
 504              	.LBB117:
 505              	.LBI117:
 506              		.loc 2 573 20 view .LVU109
 507              		.loc 2 575 3 view .LVU110
 508              	.LBB118:
 509              	.LBI118:
 510              		.loc 3 372 20 view .LVU111
 511              		.loc 3 374 3 view .LVU112
 512              	.LBB119:
 513              	.LBI119:
ARM GAS  C:\Users\DEVELO~1\AppData\Local\Temp\cc6AOfHy.s 			page 10


 514              		.loc 4 840 27 view .LVU113
 515              		.loc 4 848 3 view .LVU114
 516              	.LBB120:
 517              	.LBI120:
 518              		.loc 5 491 27 view .LVU115
 519              	.LBB121:
 520              		.loc 5 493 3 view .LVU116
 521              	.LBE121:
 522              	.LBE120:
 523              	.LBE119:
 524              	.LBE118:
 525              	.LBE117:
 526              		.loc 1 222 32 is_stmt 0 view .LVU117
 527 0000 10B5     		push	{r4, lr}
 528              		.cfi_def_cfa_offset 8
 529              		.cfi_offset 4, -8
 530              		.cfi_offset 14, -4
 531              	.LBB130:
 532              	.LBB128:
 533              	.LBB126:
 534              	.LBB124:
 535              	.LBB122:
 536              		.loc 5 493 3 view .LVU118
 537 0002 3023     		movs	r3, #48
 538              	.LBE122:
 539              	.LBE124:
 540              	.LBE126:
 541              	.LBE128:
 542              	.LBE130:
 543              		.loc 1 222 32 view .LVU119
 544 0004 0446     		mov	r4, r0
 545              	.LBB131:
 546              	.LBB129:
 547              	.LBB127:
 548              	.LBB125:
 549              	.LBB123:
 550              		.loc 5 493 3 view .LVU120
 551              		.syntax unified
 552              	@ 493 "./docs/ChibiOS/os/common/ext/ARM/CMSIS/Core/Include/cmsis_gcc.h" 1
 553 0006 83F31188 		MSR basepri, r3
 554              	@ 0 "" 2
 555              	.LVL35:
 556              		.loc 5 493 3 view .LVU121
 557              		.thumb
 558              		.syntax unified
 559              	.LBE123:
 560              	.LBE125:
 561              	.LBE127:
 562              		.loc 3 375 35 is_stmt 1 view .LVU122
 563              		.loc 3 376 21 view .LVU123
 564              	.LBE129:
 565              	.LBE131:
 566              		.loc 1 228 3 view .LVU124
 567              		.loc 1 228 3 view .LVU125
 568              		.loc 1 228 3 view .LVU126
 569              		.loc 1 231 3 view .LVU127
 570 000a FFF7FEFF 		bl	sd_lld_stop
ARM GAS  C:\Users\DEVELO~1\AppData\Local\Temp\cc6AOfHy.s 			page 11


 571              	.LVL36:
 572              		.loc 1 232 3 view .LVU128
 573              		.loc 1 232 14 is_stmt 0 view .LVU129
 574 000e 0123     		movs	r3, #1
 575              		.loc 1 233 3 view .LVU130
 576 0010 04F13000 		add	r0, r4, #48
 577              		.loc 1 232 14 view .LVU131
 578 0014 2372     		strb	r3, [r4, #8]
 579              		.loc 1 233 3 is_stmt 1 view .LVU132
 580 0016 FFF7FEFF 		bl	oqResetI
 581              	.LVL37:
 582              		.loc 1 234 3 view .LVU133
 583 001a 04F10C00 		add	r0, r4, #12
 584 001e FFF7FEFF 		bl	iqResetI
 585              	.LVL38:
 586              		.loc 1 235 3 view .LVU134
 587              	.LBB132:
 588              	.LBI132:
 589              		.loc 2 680 20 view .LVU135
 590              	.LBB133:
 591              		.loc 2 682 3 view .LVU136
 592 0022 FFF7FEFF 		bl	chSchRescheduleS
 593              	.LVL39:
 594              	.LBE133:
 595              	.LBE132:
 596              		.loc 1 237 3 view .LVU137
 597              	.LBB134:
 598              	.LBI134:
 599              		.loc 2 584 20 view .LVU138
 600              		.loc 2 586 3 view .LVU139
 601              	.LBB135:
 602              	.LBI135:
 603              		.loc 3 386 20 view .LVU140
 604              	.LBB136:
 605              		.loc 3 388 23 view .LVU141
 606              		.loc 3 389 34 view .LVU142
 607              		.loc 3 395 3 view .LVU143
 608              		.loc 3 395 3 view .LVU144
 609              		.loc 3 395 3 view .LVU145
 610              		.loc 3 399 3 view .LVU146
 611              	.LBB137:
 612              	.LBI137:
 613              		.loc 4 864 27 view .LVU147
 614              		.loc 4 867 3 view .LVU148
 615              	.LBB138:
 616              	.LBI138:
 617              		.loc 5 491 27 view .LVU149
 618              	.LBB139:
 619              		.loc 5 493 3 view .LVU150
 620 0026 0023     		movs	r3, #0
 621              		.syntax unified
 622              	@ 493 "./docs/ChibiOS/os/common/ext/ARM/CMSIS/Core/Include/cmsis_gcc.h" 1
 623 0028 83F31188 		MSR basepri, r3
 624              	@ 0 "" 2
 625              	.LVL40:
 626              		.loc 5 493 3 is_stmt 0 view .LVU151
 627              		.thumb
ARM GAS  C:\Users\DEVELO~1\AppData\Local\Temp\cc6AOfHy.s 			page 12


 628              		.syntax unified
 629              	.LBE139:
 630              	.LBE138:
 631              	.LBE137:
 632              	.LBE136:
 633              	.LBE135:
 634              	.LBE134:
 635              		.loc 1 238 1 view .LVU152
 636 002c 10BD     		pop	{r4, pc}
 637              		.loc 1 238 1 view .LVU153
 638              		.cfi_endproc
 639              	.LFE460:
 640              		.size	sdStop, .-sdStop
 641 002e 00BF     		.section	.text.sdIncomingDataI,"ax",%progbits
 642              		.align	1
 643              		.p2align 2,,3
 644              		.global	sdIncomingDataI
 645              		.syntax unified
 646              		.thumb
 647              		.thumb_func
 648              		.type	sdIncomingDataI, %function
 649              	sdIncomingDataI:
 650              	.LVL41:
 651              	.LFB461:
 652              		.loc 1 256 52 is_stmt 1 view -0
 653              		.cfi_startproc
 654              		@ args = 0, pretend = 0, frame = 0
 655              		@ frame_needed = 0, uses_anonymous_args = 0
 656              		.loc 1 258 23 view .LVU155
 657              		.loc 1 259 3 view .LVU156
 658              		.loc 1 259 3 view .LVU157
 659              		.loc 1 259 3 view .LVU158
 660              		.loc 1 261 3 view .LVU159
 661              		.loc 1 256 52 is_stmt 0 view .LVU160
 662 0000 38B5     		push	{r3, r4, r5, lr}
 663              		.cfi_def_cfa_offset 16
 664              		.cfi_offset 3, -16
 665              		.cfi_offset 4, -12
 666              		.cfi_offset 5, -8
 667              		.cfi_offset 14, -4
 668              		.loc 1 261 7 view .LVU161
 669 0002 4369     		ldr	r3, [r0, #20]
 670              		.loc 1 256 52 view .LVU162
 671 0004 0446     		mov	r4, r0
 672 0006 0D46     		mov	r5, r1
 673              		.loc 1 261 6 view .LVU163
 674 0008 3BB1     		cbz	r3, .L26
 675              		.loc 1 262 43 is_stmt 1 discriminator 1 view .LVU164
 676              		.loc 1 263 3 discriminator 1 view .LVU165
 677              		.loc 1 263 7 is_stmt 0 discriminator 1 view .LVU166
 678 000a 2946     		mov	r1, r5
 679              	.LVL42:
 680              		.loc 1 263 7 discriminator 1 view .LVU167
 681 000c 04F10C00 		add	r0, r4, #12
 682              	.LVL43:
 683              		.loc 1 263 7 discriminator 1 view .LVU168
 684 0010 FFF7FEFF 		bl	iqPutI
ARM GAS  C:\Users\DEVELO~1\AppData\Local\Temp\cc6AOfHy.s 			page 13


 685              	.LVL44:
 686              		.loc 1 263 6 discriminator 1 view .LVU169
 687 0014 0028     		cmp	r0, #0
 688 0016 0BDB     		blt	.L27
 689              	.L22:
 690              		.loc 1 265 1 view .LVU170
 691 0018 38BD     		pop	{r3, r4, r5, pc}
 692              	.LVL45:
 693              	.L26:
 694              		.loc 1 262 5 is_stmt 1 view .LVU171
 695              	.LBB140:
 696              	.LBI140:
 697              		.loc 2 956 20 view .LVU172
 698              	.LBB141:
 699              		.loc 2 959 3 view .LVU173
 700 001a 0421     		movs	r1, #4
 701              	.LVL46:
 702              		.loc 2 959 3 is_stmt 0 view .LVU174
 703 001c 0844     		add	r0, r0, r1
 704              	.LVL47:
 705              		.loc 2 959 3 view .LVU175
 706 001e FFF7FEFF 		bl	chEvtBroadcastFlagsI
 707              	.LVL48:
 708              		.loc 2 959 3 view .LVU176
 709              	.LBE141:
 710              	.LBE140:
 711              		.loc 1 262 43 is_stmt 1 view .LVU177
 712              		.loc 1 263 3 view .LVU178
 713              		.loc 1 263 7 is_stmt 0 view .LVU179
 714 0022 2946     		mov	r1, r5
 715 0024 04F10C00 		add	r0, r4, #12
 716 0028 FFF7FEFF 		bl	iqPutI
 717              	.LVL49:
 718              		.loc 1 263 6 view .LVU180
 719 002c 0028     		cmp	r0, #0
 720 002e F3DA     		bge	.L22
 721              	.L27:
 722              		.loc 1 264 5 is_stmt 1 view .LVU181
 723              	.LVL50:
 724              	.LBB142:
 725              	.LBI142:
 726              		.loc 2 956 20 view .LVU182
 727              	.LBB143:
 728              		.loc 2 959 3 view .LVU183
 729 0030 201D     		adds	r0, r4, #4
 730              	.LVL51:
 731              		.loc 2 959 3 is_stmt 0 view .LVU184
 732 0032 4FF40061 		mov	r1, #2048
 733              	.LBE143:
 734              	.LBE142:
 735              		.loc 1 265 1 view .LVU185
 736 0036 BDE83840 		pop	{r3, r4, r5, lr}
 737              		.cfi_restore 14
 738              		.cfi_restore 5
 739              		.cfi_restore 4
 740              		.cfi_restore 3
 741              		.cfi_def_cfa_offset 0
ARM GAS  C:\Users\DEVELO~1\AppData\Local\Temp\cc6AOfHy.s 			page 14


 742              	.LVL52:
 743              	.LBB145:
 744              	.LBB144:
 745              		.loc 2 959 3 view .LVU186
 746 003a FFF7FEBF 		b	chEvtBroadcastFlagsI
 747              	.LVL53:
 748              		.loc 2 959 3 view .LVU187
 749              	.LBE144:
 750              	.LBE145:
 751              		.cfi_endproc
 752              	.LFE461:
 753              		.size	sdIncomingDataI, .-sdIncomingDataI
 754 003e 00BF     		.section	.text.sdRequestDataI,"ax",%progbits
 755              		.align	1
 756              		.p2align 2,,3
 757              		.global	sdRequestDataI
 758              		.syntax unified
 759              		.thumb
 760              		.thumb_func
 761              		.type	sdRequestDataI, %function
 762              	sdRequestDataI:
 763              	.LVL54:
 764              	.LFB462:
 765              		.loc 1 282 41 is_stmt 1 view -0
 766              		.cfi_startproc
 767              		@ args = 0, pretend = 0, frame = 0
 768              		@ frame_needed = 0, uses_anonymous_args = 0
 769              		.loc 1 283 3 view .LVU189
 770              		.loc 1 285 23 view .LVU190
 771              		.loc 1 286 3 view .LVU191
 772              		.loc 1 286 3 view .LVU192
 773              		.loc 1 286 3 view .LVU193
 774              		.loc 1 288 3 view .LVU194
 775              		.loc 1 282 41 is_stmt 0 view .LVU195
 776 0000 38B5     		push	{r3, r4, r5, lr}
 777              		.cfi_def_cfa_offset 16
 778              		.cfi_offset 3, -16
 779              		.cfi_offset 4, -12
 780              		.cfi_offset 5, -8
 781              		.cfi_offset 14, -4
 782              		.loc 1 282 41 view .LVU196
 783 0002 0546     		mov	r5, r0
 784              		.loc 1 288 7 view .LVU197
 785 0004 3030     		adds	r0, r0, #48
 786              	.LVL55:
 787              		.loc 1 288 7 view .LVU198
 788 0006 FFF7FEFF 		bl	oqGetI
 789              	.LVL56:
 790              		.loc 1 289 3 is_stmt 1 view .LVU199
 791              		.loc 1 289 6 is_stmt 0 view .LVU200
 792 000a 041E     		subs	r4, r0, #0
 793 000c 01DB     		blt	.L31
 794              		.loc 1 292 1 view .LVU201
 795 000e 2046     		mov	r0, r4
 796              		.loc 1 292 1 view .LVU202
 797 0010 38BD     		pop	{r3, r4, r5, pc}
 798              	.LVL57:
ARM GAS  C:\Users\DEVELO~1\AppData\Local\Temp\cc6AOfHy.s 			page 15


 799              	.L31:
 800              		.loc 1 290 5 is_stmt 1 view .LVU203
 801              	.LBB146:
 802              	.LBI146:
 803              		.loc 2 956 20 view .LVU204
 804              	.LBB147:
 805              		.loc 2 959 3 view .LVU205
 806 0012 281D     		adds	r0, r5, #4
 807              	.LVL58:
 808              		.loc 2 959 3 is_stmt 0 view .LVU206
 809 0014 0821     		movs	r1, #8
 810 0016 FFF7FEFF 		bl	chEvtBroadcastFlagsI
 811              	.LVL59:
 812              		.loc 2 959 3 view .LVU207
 813              	.LBE147:
 814              	.LBE146:
 815              		.loc 1 290 40 is_stmt 1 view .LVU208
 816              		.loc 1 291 3 view .LVU209
 817              		.loc 1 292 1 is_stmt 0 view .LVU210
 818 001a 2046     		mov	r0, r4
 819 001c 38BD     		pop	{r3, r4, r5, pc}
 820              		.loc 1 292 1 view .LVU211
 821              		.cfi_endproc
 822              	.LFE462:
 823              		.size	sdRequestDataI, .-sdRequestDataI
 824 001e 00BF     		.section	.text.sdPutWouldBlock,"ax",%progbits
 825              		.align	1
 826              		.p2align 2,,3
 827              		.global	sdPutWouldBlock
 828              		.syntax unified
 829              		.thumb
 830              		.thumb_func
 831              		.type	sdPutWouldBlock, %function
 832              	sdPutWouldBlock:
 833              	.LVL60:
 834              	.LFB463:
 835              		.loc 1 309 41 is_stmt 1 view -0
 836              		.cfi_startproc
 837              		@ args = 0, pretend = 0, frame = 0
 838              		@ frame_needed = 0, uses_anonymous_args = 0
 839              		@ link register save eliminated.
 840              		.loc 1 310 3 view .LVU213
 841              		.loc 1 312 3 view .LVU214
 842              	.LBB148:
 843              	.LBI148:
 844              		.loc 2 573 20 view .LVU215
 845              		.loc 2 575 3 view .LVU216
 846              	.LBB149:
 847              	.LBI149:
 848              		.loc 3 372 20 view .LVU217
 849              		.loc 3 374 3 view .LVU218
 850              	.LBB150:
 851              	.LBI150:
 852              		.loc 4 840 27 view .LVU219
 853              		.loc 4 848 3 view .LVU220
 854              	.LBB151:
 855              	.LBI151:
ARM GAS  C:\Users\DEVELO~1\AppData\Local\Temp\cc6AOfHy.s 			page 16


 856              		.loc 5 491 27 view .LVU221
 857              	.LBB152:
 858              		.loc 5 493 3 view .LVU222
 859 0000 3023     		movs	r3, #48
 860              		.syntax unified
 861              	@ 493 "./docs/ChibiOS/os/common/ext/ARM/CMSIS/Core/Include/cmsis_gcc.h" 1
 862 0002 83F31188 		MSR basepri, r3
 863              	@ 0 "" 2
 864              	.LVL61:
 865              		.loc 5 493 3 is_stmt 0 view .LVU223
 866              		.thumb
 867              		.syntax unified
 868              	.LBE152:
 869              	.LBE151:
 870              	.LBE150:
 871              		.loc 3 375 35 is_stmt 1 view .LVU224
 872              		.loc 3 376 21 view .LVU225
 873              	.LBE149:
 874              	.LBE148:
 875              		.loc 1 313 3 view .LVU226
 876              	.LBB153:
 877              	.LBB154:
 878              	.LBB155:
 879              	.LBB156:
 880              	.LBB157:
 881              	.LBB158:
 882              		.loc 5 493 3 is_stmt 0 view .LVU227
 883 0006 0023     		movs	r3, #0
 884              	.LBE158:
 885              	.LBE157:
 886              	.LBE156:
 887              	.LBE155:
 888              	.LBE154:
 889              	.LBE153:
 890              		.loc 1 313 7 view .LVU228
 891 0008 806B     		ldr	r0, [r0, #56]
 892              	.LVL62:
 893              		.loc 1 314 3 is_stmt 1 view .LVU229
 894              	.LBB164:
 895              	.LBI153:
 896              		.loc 2 584 20 view .LVU230
 897              		.loc 2 586 3 view .LVU231
 898              	.LBB163:
 899              	.LBI154:
 900              		.loc 3 386 20 view .LVU232
 901              	.LBB162:
 902              		.loc 3 388 23 view .LVU233
 903              		.loc 3 389 34 view .LVU234
 904              		.loc 3 395 3 view .LVU235
 905              		.loc 3 395 3 view .LVU236
 906              		.loc 3 395 3 view .LVU237
 907              		.loc 3 399 3 view .LVU238
 908              	.LBB161:
 909              	.LBI156:
 910              		.loc 4 864 27 view .LVU239
 911              		.loc 4 867 3 view .LVU240
 912              	.LBB160:
ARM GAS  C:\Users\DEVELO~1\AppData\Local\Temp\cc6AOfHy.s 			page 17


 913              	.LBI157:
 914              		.loc 5 491 27 view .LVU241
 915              	.LBB159:
 916              		.loc 5 493 3 view .LVU242
 917              		.syntax unified
 918              	@ 493 "./docs/ChibiOS/os/common/ext/ARM/CMSIS/Core/Include/cmsis_gcc.h" 1
 919 000a 83F31188 		MSR basepri, r3
 920              	@ 0 "" 2
 921              	.LVL63:
 922              		.loc 5 493 3 is_stmt 0 view .LVU243
 923              		.thumb
 924              		.syntax unified
 925              	.LBE159:
 926              	.LBE160:
 927              	.LBE161:
 928              	.LBE162:
 929              	.LBE163:
 930              	.LBE164:
 931              		.loc 1 316 3 is_stmt 1 view .LVU244
 932              		.loc 1 317 1 is_stmt 0 view .LVU245
 933 000e B0FA80F0 		clz	r0, r0
 934              	.LVL64:
 935              		.loc 1 317 1 view .LVU246
 936 0012 4009     		lsrs	r0, r0, #5
 937 0014 7047     		bx	lr
 938              		.cfi_endproc
 939              	.LFE463:
 940              		.size	sdPutWouldBlock, .-sdPutWouldBlock
 941 0016 00BF     		.section	.text.sdGetWouldBlock,"ax",%progbits
 942              		.align	1
 943              		.p2align 2,,3
 944              		.global	sdGetWouldBlock
 945              		.syntax unified
 946              		.thumb
 947              		.thumb_func
 948              		.type	sdGetWouldBlock, %function
 949              	sdGetWouldBlock:
 950              	.LVL65:
 951              	.LFB464:
 952              		.loc 1 334 41 is_stmt 1 view -0
 953              		.cfi_startproc
 954              		@ args = 0, pretend = 0, frame = 0
 955              		@ frame_needed = 0, uses_anonymous_args = 0
 956              		@ link register save eliminated.
 957              		.loc 1 335 3 view .LVU248
 958              		.loc 1 337 3 view .LVU249
 959              	.LBB165:
 960              	.LBI165:
 961              		.loc 2 573 20 view .LVU250
 962              		.loc 2 575 3 view .LVU251
 963              	.LBB166:
 964              	.LBI166:
 965              		.loc 3 372 20 view .LVU252
 966              		.loc 3 374 3 view .LVU253
 967              	.LBB167:
 968              	.LBI167:
 969              		.loc 4 840 27 view .LVU254
ARM GAS  C:\Users\DEVELO~1\AppData\Local\Temp\cc6AOfHy.s 			page 18


 970              		.loc 4 848 3 view .LVU255
 971              	.LBB168:
 972              	.LBI168:
 973              		.loc 5 491 27 view .LVU256
 974              	.LBB169:
 975              		.loc 5 493 3 view .LVU257
 976 0000 3023     		movs	r3, #48
 977              		.syntax unified
 978              	@ 493 "./docs/ChibiOS/os/common/ext/ARM/CMSIS/Core/Include/cmsis_gcc.h" 1
 979 0002 83F31188 		MSR basepri, r3
 980              	@ 0 "" 2
 981              	.LVL66:
 982              		.loc 5 493 3 is_stmt 0 view .LVU258
 983              		.thumb
 984              		.syntax unified
 985              	.LBE169:
 986              	.LBE168:
 987              	.LBE167:
 988              		.loc 3 375 35 is_stmt 1 view .LVU259
 989              		.loc 3 376 21 view .LVU260
 990              	.LBE166:
 991              	.LBE165:
 992              		.loc 1 338 3 view .LVU261
 993              	.LBB170:
 994              	.LBB171:
 995              	.LBB172:
 996              	.LBB173:
 997              	.LBB174:
 998              	.LBB175:
 999              		.loc 5 493 3 is_stmt 0 view .LVU262
 1000 0006 0023     		movs	r3, #0
 1001              	.LBE175:
 1002              	.LBE174:
 1003              	.LBE173:
 1004              	.LBE172:
 1005              	.LBE171:
 1006              	.LBE170:
 1007              		.loc 1 338 7 view .LVU263
 1008 0008 4069     		ldr	r0, [r0, #20]
 1009              	.LVL67:
 1010              		.loc 1 339 3 is_stmt 1 view .LVU264
 1011              	.LBB181:
 1012              	.LBI170:
 1013              		.loc 2 584 20 view .LVU265
 1014              		.loc 2 586 3 view .LVU266
 1015              	.LBB180:
 1016              	.LBI171:
 1017              		.loc 3 386 20 view .LVU267
 1018              	.LBB179:
 1019              		.loc 3 388 23 view .LVU268
 1020              		.loc 3 389 34 view .LVU269
 1021              		.loc 3 395 3 view .LVU270
 1022              		.loc 3 395 3 view .LVU271
 1023              		.loc 3 395 3 view .LVU272
 1024              		.loc 3 399 3 view .LVU273
 1025              	.LBB178:
 1026              	.LBI173:
ARM GAS  C:\Users\DEVELO~1\AppData\Local\Temp\cc6AOfHy.s 			page 19


 1027              		.loc 4 864 27 view .LVU274
 1028              		.loc 4 867 3 view .LVU275
 1029              	.LBB177:
 1030              	.LBI174:
 1031              		.loc 5 491 27 view .LVU276
 1032              	.LBB176:
 1033              		.loc 5 493 3 view .LVU277
 1034              		.syntax unified
 1035              	@ 493 "./docs/ChibiOS/os/common/ext/ARM/CMSIS/Core/Include/cmsis_gcc.h" 1
 1036 000a 83F31188 		MSR basepri, r3
 1037              	@ 0 "" 2
 1038              	.LVL68:
 1039              		.loc 5 493 3 is_stmt 0 view .LVU278
 1040              		.thumb
 1041              		.syntax unified
 1042              	.LBE176:
 1043              	.LBE177:
 1044              	.LBE178:
 1045              	.LBE179:
 1046              	.LBE180:
 1047              	.LBE181:
 1048              		.loc 1 341 3 is_stmt 1 view .LVU279
 1049              		.loc 1 342 1 is_stmt 0 view .LVU280
 1050 000e B0FA80F0 		clz	r0, r0
 1051              	.LVL69:
 1052              		.loc 1 342 1 view .LVU281
 1053 0012 4009     		lsrs	r0, r0, #5
 1054 0014 7047     		bx	lr
 1055              		.cfi_endproc
 1056              	.LFE464:
 1057              		.size	sdGetWouldBlock, .-sdGetWouldBlock
 1058 0016 00BF     		.section	.text.sdControl,"ax",%progbits
 1059              		.align	1
 1060              		.p2align 2,,3
 1061              		.global	sdControl
 1062              		.syntax unified
 1063              		.thumb
 1064              		.thumb_func
 1065              		.type	sdControl, %function
 1066              	sdControl:
 1067              	.LVL70:
 1068              	.LFB465:
 1069              		.loc 1 358 71 is_stmt 1 view -0
 1070              		.cfi_startproc
 1071              		@ args = 0, pretend = 0, frame = 0
 1072              		@ frame_needed = 0, uses_anonymous_args = 0
 1073              		@ link register save eliminated.
 1074              		.loc 1 360 3 view .LVU283
 1075              	.LBB182:
 1076              	.LBI182:
 1077              		.loc 1 94 14 view .LVU284
 1078              	.LBB183:
 1079              		.loc 1 95 3 view .LVU285
 1080              		.loc 1 97 3 view .LVU286
 1081              		.loc 1 97 3 view .LVU287
 1082              		.loc 1 97 3 view .LVU288
 1083              		.loc 1 99 3 view .LVU289
ARM GAS  C:\Users\DEVELO~1\AppData\Local\Temp\cc6AOfHy.s 			page 20


 1084              		.loc 1 113 10 is_stmt 0 view .LVU290
 1085 0000 0129     		cmp	r1, #1
 1086              	.LBE183:
 1087              	.LBE182:
 1088              		.loc 1 361 1 view .LVU291
 1089 0002 14BF     		ite	ne
 1090 0004 6FF01300 		mvnne	r0, #19
 1091              	.LVL71:
 1092              		.loc 1 361 1 view .LVU292
 1093 0008 0020     		moveq	r0, #0
 1094 000a 7047     		bx	lr
 1095              		.cfi_endproc
 1096              	.LFE465:
 1097              		.size	sdControl, .-sdControl
 1098              		.section	.rodata.vmt,"a"
 1099              		.align	2
 1100              		.set	.LANCHOR0,. + 0
 1101              		.type	vmt, %object
 1102              		.size	vmt, 40
 1103              	vmt:
 1104 0000 00000000 		.word	0
 1105 0004 00000000 		.word	_write
 1106 0008 00000000 		.word	_read
 1107 000c 00000000 		.word	_put
 1108 0010 00000000 		.word	_get
 1109 0014 00000000 		.word	_putt
 1110 0018 00000000 		.word	_gett
 1111 001c 00000000 		.word	_writet
 1112 0020 00000000 		.word	_readt
 1113 0024 00000000 		.word	_ctl
 1114              		.text
 1115              	.Letext0:
 1116              		.file 6 "c:\\chibistudio\\tools\\gnu tools arm embedded\\11.3 2022.08\\lib\\gcc\\arm-none-eabi\\11
 1117              		.file 7 "c:\\chibistudio\\tools\\gnu tools arm embedded\\11.3 2022.08\\arm-none-eabi\\include\\mac
 1118              		.file 8 "c:\\chibistudio\\tools\\gnu tools arm embedded\\11.3 2022.08\\arm-none-eabi\\include\\sys
 1119              		.file 9 "./docs/ChibiOS/os/common/ports/ARM-common/include/chtypes.h"
 1120              		.file 10 "./docs/ChibiOS/os/rt/include/chearly.h"
 1121              		.file 11 "./docs/ChibiOS/os/rt/include/chobjects.h"
 1122              		.file 12 "./docs/ChibiOS/os/rt/include/chrfcu.h"
 1123              		.file 13 "./docs/ChibiOS/os/rt/include/chdebug.h"
 1124              		.file 14 "./docs/ChibiOS/os/rt/include/chtime.h"
 1125              		.file 15 "./docs/ChibiOS/os/rt/include/chtrace.h"
 1126              		.file 16 "./docs/ChibiOS/os/common/ext/ST/STM32H7xx/stm32h743xx.h"
 1127              		.file 17 "./docs/ChibiOS/os/rt/include/chlists.h"
 1128              		.file 18 "./docs/ChibiOS/os/rt/include/chsem.h"
 1129              		.file 19 "./docs/ChibiOS/os/rt/include/chmtx.h"
 1130              		.file 20 "./docs/ChibiOS/os/rt/include/chevents.h"
 1131              		.file 21 "./docs/ChibiOS/os/hal/include/hal_queues.h"
 1132              		.file 22 "./docs/ChibiOS/os/hal/include/hal_serial.h"
 1133              		.file 23 "./docs/ChibiOS/os/hal/ports/STM32/LLD/USARTv3/hal_serial_lld.h"
 1134              		.file 24 "./docs/ChibiOS/os/rt/include/chschd.h"