ARM GAS  C:\Users\DEVELO~1\AppData\Local\Temp\ccJK6Gr9.s 			page 1


   1              		.cpu cortex-m7
   2              		.arch armv7e-m
   3              		.fpu fpv5-d16
   4              		.eabi_attribute 28, 1
   5              		.eabi_attribute 20, 1
   6              		.eabi_attribute 21, 1
   7              		.eabi_attribute 23, 3
   8              		.eabi_attribute 24, 1
   9              		.eabi_attribute 25, 1
  10              		.eabi_attribute 26, 1
  11              		.eabi_attribute 30, 2
  12              		.eabi_attribute 34, 1
  13              		.eabi_attribute 18, 4
  14              		.file	"hal_spi_v2_lld.c"
  15              		.text
  16              	.Ltext0:
  17              		.cfi_sections	.debug_frame
  18              		.section	.text.spi_lld_configure.isra.0,"ax",%progbits
  19              		.align	1
  20              		.p2align 2,,3
  21              		.syntax unified
  22              		.thumb
  23              		.thumb_func
  24              		.type	spi_lld_configure.isra.0, %function
  25              	spi_lld_configure.isra.0:
  26              	.LFB479:
  27              		.file 1 "../../../os/hal/ports/STM32/LLD/SPIv3/hal_spi_v2_lld.c"
  28              		.loc 1 99 13 view -0
  29              		.cfi_startproc
  30              		@ args = 0, pretend = 0, frame = 0
  31              		@ frame_needed = 0, uses_anonymous_args = 0
  32              		@ link register save eliminated.
  33              	.LVL0:
  34              		.loc 1 102 3 view .LVU1
  35              		.loc 1 102 19 is_stmt 0 view .LVU2
  36 0000 0022     		movs	r2, #0
  37              		.loc 1 107 38 view .LVU3
  38 0002 134B     		ldr	r3, .L6
  39              		.loc 1 102 19 view .LVU4
  40 0004 0A60     		str	r2, [r1]
  41              		.loc 1 103 3 is_stmt 1 view .LVU5
  42              		.loc 1 103 19 is_stmt 0 view .LVU6
  43 0006 4A60     		str	r2, [r1, #4]
  44              		.loc 1 104 3 is_stmt 1 view .LVU7
  45              		.loc 1 107 38 is_stmt 0 view .LVU8
  46 0008 4269     		ldr	r2, [r0, #20]
  47              		.loc 1 99 13 view .LVU9
  48 000a 10B4     		push	{r4}
  49              		.cfi_def_cfa_offset 4
  50              		.cfi_offset 4, -4
  51              		.loc 1 107 38 view .LVU10
  52 000c 1340     		ands	r3, r3, r2
  53              		.loc 1 104 19 view .LVU11
  54 000e 4024     		movs	r4, #64
  55              		.loc 1 108 6 view .LVU12
  56 0010 4278     		ldrb	r2, [r0, #1]	@ zero_extendqisi2
  57              		.loc 1 104 19 view .LVU13
ARM GAS  C:\Users\DEVELO~1\AppData\Local\Temp\ccJK6Gr9.s 			page 2


  58 0012 0C61     		str	r4, [r1, #16]
  59              		.loc 1 105 3 is_stmt 1 view .LVU14
  60              		.loc 1 107 38 is_stmt 0 view .LVU15
  61 0014 43F44043 		orr	r3, r3, #49152
  62              		.loc 1 105 19 view .LVU16
  63 0018 4FF0FF34 		mov	r4, #-1
  64 001c 8C61     		str	r4, [r1, #24]
  65              		.loc 1 106 3 is_stmt 1 view .LVU17
  66              		.loc 1 106 19 is_stmt 0 view .LVU18
  67 001e 8B60     		str	r3, [r1, #8]
  68              		.loc 1 108 3 is_stmt 1 view .LVU19
  69              		.loc 1 108 6 is_stmt 0 view .LVU20
  70 0020 4AB1     		cbz	r2, .L2
  71              		.loc 1 109 5 is_stmt 1 view .LVU21
  72              		.loc 1 109 42 is_stmt 0 view .LVU22
  73 0022 8369     		ldr	r3, [r0, #24]
  74              		.loc 1 116 1 view .LVU23
  75 0024 5DF8044B 		ldr	r4, [sp], #4
  76              		.cfi_remember_state
  77              		.cfi_restore 4
  78              		.cfi_def_cfa_offset 0
  79              		.loc 1 109 42 view .LVU24
  80 0028 23F4C023 		bic	r3, r3, #393216
  81              		.loc 1 109 21 view .LVU25
  82 002c CB60     		str	r3, [r1, #12]
  83              		.loc 1 115 3 is_stmt 1 view .LVU26
  84              		.loc 1 115 19 is_stmt 0 view .LVU27
  85 002e 40F20113 		movw	r3, #257
  86 0032 0B60     		str	r3, [r1]
  87              		.loc 1 116 1 view .LVU28
  88 0034 7047     		bx	lr
  89              	.L2:
  90              		.cfi_restore_state
  91              		.loc 1 112 5 is_stmt 1 view .LVU29
  92              		.loc 1 112 78 is_stmt 0 view .LVU30
  93 0036 8269     		ldr	r2, [r0, #24]
  94 0038 064B     		ldr	r3, .L6+4
  95              		.loc 1 116 1 view .LVU31
  96 003a 5DF8044B 		ldr	r4, [sp], #4
  97              		.cfi_restore 4
  98              		.cfi_def_cfa_offset 0
  99              		.loc 1 112 78 view .LVU32
 100 003e 1340     		ands	r3, r3, r2
 101 0040 43F00153 		orr	r3, r3, #541065216
 102              		.loc 1 112 21 view .LVU33
 103 0044 CB60     		str	r3, [r1, #12]
 104              		.loc 1 115 3 is_stmt 1 view .LVU34
 105              		.loc 1 115 19 is_stmt 0 view .LVU35
 106 0046 40F20113 		movw	r3, #257
 107 004a 0B60     		str	r3, [r1]
 108              		.loc 1 116 1 view .LVU36
 109 004c 7047     		bx	lr
 110              	.L7:
 111 004e 00BF     		.align	2
 112              	.L6:
 113 0050 1F3EFFFF 		.word	-49633
 114 0054 FFFFB9DF 		.word	-541458433
ARM GAS  C:\Users\DEVELO~1\AppData\Local\Temp\ccJK6Gr9.s 			page 3


 115              		.cfi_endproc
 116              	.LFE479:
 117              		.size	spi_lld_configure.isra.0, .-spi_lld_configure.isra.0
 118              		.section	.text.spi_lld_stop_abort,"ax",%progbits
 119              		.align	1
 120              		.p2align 2,,3
 121              		.syntax unified
 122              		.thumb
 123              		.thumb_func
 124              		.type	spi_lld_stop_abort, %function
 125              	spi_lld_stop_abort:
 126              	.LVL1:
 127              	.LFB451:
 128              		.loc 1 138 49 is_stmt 1 view -0
 129              		.cfi_startproc
 130              		@ args = 0, pretend = 0, frame = 0
 131              		@ frame_needed = 0, uses_anonymous_args = 0
 132              		@ link register save eliminated.
 133              		.loc 1 142 3 view .LVU38
 134              		.loc 1 142 6 is_stmt 0 view .LVU39
 135 0000 90F82030 		ldrb	r3, [r0, #32]	@ zero_extendqisi2
 136              		.loc 1 138 49 view .LVU40
 137 0004 10B4     		push	{r4}
 138              		.cfi_def_cfa_offset 4
 139              		.cfi_offset 4, -4
 140              		.loc 1 142 6 view .LVU41
 141 0006 002B     		cmp	r3, #0
 142 0008 38D0     		beq	.L9
 143              		.loc 1 146 5 is_stmt 1 view .LVU42
 144 000a 836A     		ldr	r3, [r0, #40]
 145 000c D3E90041 		ldrd	r4, r1, [r3]
 146 0010 0A68     		ldr	r2, [r1]
 147 0012 22F00F02 		bic	r2, r2, #15
 148 0016 0A60     		str	r2, [r1]
 149              		.loc 1 146 5 view .LVU43
 150 0018 197A     		ldrb	r1, [r3, #8]	@ zero_extendqisi2
 151 001a 0E23     		movs	r3, #14
 152              		.loc 1 147 5 is_stmt 0 view .LVU44
 153 001c 426A     		ldr	r2, [r0, #36]
 154              		.loc 1 146 5 view .LVU45
 155 001e 03FA01F1 		lsl	r1, r3, r1
 156 0022 6160     		str	r1, [r4, #4]
 157              		.loc 1 146 5 is_stmt 1 view .LVU46
 158              		.loc 1 146 37 view .LVU47
 159              		.loc 1 147 5 view .LVU48
 160 0024 5468     		ldr	r4, [r2, #4]
 161 0026 2168     		ldr	r1, [r4]
 162 0028 21F00F01 		bic	r1, r1, #15
 163 002c 2160     		str	r1, [r4]
 164              		.loc 1 147 5 view .LVU49
 165 002e 117A     		ldrb	r1, [r2, #8]	@ zero_extendqisi2
 166 0030 1268     		ldr	r2, [r2]
 167 0032 8B40     		lsls	r3, r3, r1
 168 0034 5360     		str	r3, [r2, #4]
 169              		.loc 1 147 5 view .LVU50
 170              		.loc 1 147 37 view .LVU51
 171              		.loc 1 156 5 view .LVU52
ARM GAS  C:\Users\DEVELO~1\AppData\Local\Temp\ccJK6Gr9.s 			page 4


 172              		.loc 1 156 35 view .LVU53
 173              		.loc 1 162 3 view .LVU54
 174              		.loc 1 166 8 view .LVU55
 175              		.loc 1 166 11 is_stmt 0 view .LVU56
 176 0036 534B     		ldr	r3, .L27
 177 0038 9842     		cmp	r0, r3
 178 003a 3ED0     		beq	.L22
 179              	.L13:
 180              		.loc 1 172 8 is_stmt 1 view .LVU57
 181              		.loc 1 172 11 is_stmt 0 view .LVU58
 182 003c 524B     		ldr	r3, .L27+4
 183 003e 9842     		cmp	r0, r3
 184 0040 50D0     		beq	.L23
 185              		.loc 1 178 8 is_stmt 1 view .LVU59
 186              		.loc 1 178 11 is_stmt 0 view .LVU60
 187 0042 524B     		ldr	r3, .L27+8
 188 0044 9842     		cmp	r0, r3
 189 0046 72D0     		beq	.L24
 190              		.loc 1 184 8 is_stmt 1 view .LVU61
 191              		.loc 1 184 11 is_stmt 0 view .LVU62
 192 0048 514B     		ldr	r3, .L27+12
 193 004a 9842     		cmp	r0, r3
 194 004c 00F08480 		beq	.L25
 195              		.loc 1 190 8 is_stmt 1 view .LVU63
 196              		.loc 1 190 11 is_stmt 0 view .LVU64
 197 0050 504B     		ldr	r3, .L27+16
 198 0052 9842     		cmp	r0, r3
 199 0054 5BD0     		beq	.L26
 200              		.loc 1 196 8 is_stmt 1 view .LVU65
 201              		.loc 1 196 11 is_stmt 0 view .LVU66
 202 0056 504B     		ldr	r3, .L27+20
 203 0058 9842     		cmp	r0, r3
 204 005a 52D1     		bne	.L14
 205              		.loc 1 197 5 is_stmt 1 view .LVU67
 206              	.LVL2:
 207              	.LBB283:
 208              	.LBI283:
 209              		.file 2 "../../../os/hal/ports/STM32/STM32H7xx/stm32_rcc.h"
 210              		.loc 2 563 22 view .LVU68
 211              	.LBB284:
 212              		.loc 2 575 3 view .LVU69
 213              	.LBB285:
 214              	.LBI285:
 215              		.loc 2 89 22 view .LVU70
 216              	.LBB286:
 217              		.loc 2 92 3 view .LVU71
 218              		.loc 2 92 17 is_stmt 0 view .LVU72
 219 005c 4F4B     		ldr	r3, .L27+24
 220 005e D3F89C20 		ldr	r2, [r3, #156]
 221 0062 42F02002 		orr	r2, r2, #32
 222 0066 C3F89C20 		str	r2, [r3, #156]
 223              		.loc 2 93 3 is_stmt 1 view .LVU73
 224              		.loc 2 93 17 is_stmt 0 view .LVU74
 225 006a D3F89C20 		ldr	r2, [r3, #156]
 226 006e 22F02002 		bic	r2, r2, #32
 227 0072 C3F89C20 		str	r2, [r3, #156]
 228              		.loc 2 94 3 is_stmt 1 view .LVU75
ARM GAS  C:\Users\DEVELO~1\AppData\Local\Temp\ccJK6Gr9.s 			page 5


 229 0076 D3F89C30 		ldr	r3, [r3, #156]
 230              	.LVL3:
 231              		.loc 2 94 3 is_stmt 0 view .LVU76
 232              	.LBE286:
 233              	.LBE285:
 234              		.loc 2 576 1 view .LVU77
 235 007a 42E0     		b	.L14
 236              	.LVL4:
 237              	.L9:
 238              		.loc 2 576 1 view .LVU78
 239              	.LBE284:
 240              	.LBE283:
 241              		.loc 1 155 5 is_stmt 1 view .LVU79
 242 007c 846A     		ldr	r4, [r0, #40]
 243 007e 2268     		ldr	r2, [r4]
 244 0080 1368     		ldr	r3, [r2]
 245 0082 23F01F03 		bic	r3, r3, #31
 246 0086 1360     		str	r3, [r2]
 247              		.loc 1 155 5 view .LVU80
 248              	.L11:
 249              		.loc 1 155 5 discriminator 2 view .LVU81
 250 0088 1368     		ldr	r3, [r2]
 251 008a D907     		lsls	r1, r3, #31
 252 008c FCD4     		bmi	.L11
 253              		.loc 1 155 5 discriminator 3 view .LVU82
 254 008e 227B     		ldrb	r2, [r4, #12]	@ zero_extendqisi2
 255 0090 3D23     		movs	r3, #61
 256              		.loc 1 156 5 is_stmt 0 discriminator 3 view .LVU83
 257 0092 416A     		ldr	r1, [r0, #36]
 258              		.loc 1 155 5 discriminator 3 view .LVU84
 259 0094 9340     		lsls	r3, r3, r2
 260 0096 6468     		ldr	r4, [r4, #4]
 261              		.loc 1 156 5 discriminator 3 view .LVU85
 262 0098 0A68     		ldr	r2, [r1]
 263              		.loc 1 155 5 discriminator 3 view .LVU86
 264 009a 2360     		str	r3, [r4]
 265              		.loc 1 155 5 is_stmt 1 discriminator 3 view .LVU87
 266              		.loc 1 155 35 discriminator 3 view .LVU88
 267              		.loc 1 156 5 discriminator 3 view .LVU89
 268 009c 1368     		ldr	r3, [r2]
 269 009e 23F01F03 		bic	r3, r3, #31
 270 00a2 1360     		str	r3, [r2]
 271              		.loc 1 156 5 discriminator 3 view .LVU90
 272              	.L12:
 273              		.loc 1 156 5 discriminator 2 view .LVU91
 274 00a4 1368     		ldr	r3, [r2]
 275 00a6 DB07     		lsls	r3, r3, #31
 276 00a8 FCD4     		bmi	.L12
 277              		.loc 1 156 5 discriminator 3 view .LVU92
 278 00aa 0C7B     		ldrb	r4, [r1, #12]	@ zero_extendqisi2
 279 00ac 3D23     		movs	r3, #61
 280 00ae 4A68     		ldr	r2, [r1, #4]
 281 00b0 A340     		lsls	r3, r3, r4
 282 00b2 1360     		str	r3, [r2]
 283              		.loc 1 156 5 discriminator 3 view .LVU93
 284              		.loc 1 156 35 discriminator 3 view .LVU94
 285              		.loc 1 162 3 discriminator 3 view .LVU95
ARM GAS  C:\Users\DEVELO~1\AppData\Local\Temp\ccJK6Gr9.s 			page 6


 286              		.loc 1 166 8 discriminator 3 view .LVU96
 287              		.loc 1 166 11 is_stmt 0 discriminator 3 view .LVU97
 288 00b4 334B     		ldr	r3, .L27
 289 00b6 9842     		cmp	r0, r3
 290 00b8 C0D1     		bne	.L13
 291              	.L22:
 292              		.loc 1 167 5 is_stmt 1 view .LVU98
 293              	.LVL5:
 294              	.LBB287:
 295              	.LBI287:
 296              		.loc 2 385 22 view .LVU99
 297              	.LBB288:
 298              		.loc 2 397 3 view .LVU100
 299              	.LBB289:
 300              	.LBI289:
 301              		.loc 2 73 22 view .LVU101
 302              	.LBB290:
 303              		.loc 2 76 3 view .LVU102
 304              		.loc 2 76 17 is_stmt 0 view .LVU103
 305 00ba 384B     		ldr	r3, .L27+24
 306              	.LBE290:
 307              	.LBE289:
 308              	.LBE288:
 309              	.LBE287:
 310              		.loc 1 206 3 view .LVU104
 311 00bc C169     		ldr	r1, [r0, #28]
 312              	.LBB300:
 313              	.LBB297:
 314              	.LBB294:
 315              	.LBB291:
 316              		.loc 2 76 17 view .LVU105
 317 00be D3F89820 		ldr	r2, [r3, #152]
 318              	.LBE291:
 319              	.LBE294:
 320              	.LBE297:
 321              	.LBE300:
 322              		.loc 1 206 3 view .LVU106
 323 00c2 4068     		ldr	r0, [r0, #4]
 324              	.LVL6:
 325              	.LBB301:
 326              	.LBB298:
 327              	.LBB295:
 328              	.LBB292:
 329              		.loc 2 76 17 view .LVU107
 330 00c4 42F48052 		orr	r2, r2, #4096
 331              	.LBE292:
 332              	.LBE295:
 333              	.LBE298:
 334              	.LBE301:
 335              		.loc 1 207 1 view .LVU108
 336 00c8 5DF8044B 		ldr	r4, [sp], #4
 337              		.cfi_remember_state
 338              		.cfi_restore 4
 339              		.cfi_def_cfa_offset 0
 340              	.LBB302:
 341              	.LBB299:
 342              	.LBB296:
ARM GAS  C:\Users\DEVELO~1\AppData\Local\Temp\ccJK6Gr9.s 			page 7


 343              	.LBB293:
 344              		.loc 2 76 17 view .LVU109
 345 00cc C3F89820 		str	r2, [r3, #152]
 346              		.loc 2 77 3 is_stmt 1 view .LVU110
 347              		.loc 2 77 17 is_stmt 0 view .LVU111
 348 00d0 D3F89820 		ldr	r2, [r3, #152]
 349 00d4 22F48052 		bic	r2, r2, #4096
 350 00d8 C3F89820 		str	r2, [r3, #152]
 351              		.loc 2 78 3 is_stmt 1 view .LVU112
 352 00dc D3F89830 		ldr	r3, [r3, #152]
 353              	.LVL7:
 354              		.loc 2 78 3 is_stmt 0 view .LVU113
 355              	.LBE293:
 356              	.LBE296:
 357              	.LBE299:
 358              	.LBE302:
 359              		.loc 1 202 5 is_stmt 1 view .LVU114
 360              		.loc 1 206 3 view .LVU115
 361 00e0 FFF7FEBF 		b	spi_lld_configure.isra.0
 362              	.LVL8:
 363              	.L23:
 364              		.cfi_restore_state
 365              		.loc 1 173 5 view .LVU116
 366              	.LBB303:
 367              	.LBI303:
 368              		.loc 2 207 22 view .LVU117
 369              	.LBB304:
 370              		.loc 2 219 3 view .LVU118
 371              	.LBB305:
 372              	.LBI305:
 373              		.loc 2 57 22 view .LVU119
 374              	.LBB306:
 375              		.loc 2 60 3 view .LVU120
 376              		.loc 2 60 18 is_stmt 0 view .LVU121
 377 00e4 2D4B     		ldr	r3, .L27+24
 378 00e6 D3F89020 		ldr	r2, [r3, #144]
 379 00ea 42F48042 		orr	r2, r2, #16384
 380 00ee C3F89020 		str	r2, [r3, #144]
 381              		.loc 2 61 3 is_stmt 1 view .LVU122
 382              		.loc 2 61 18 is_stmt 0 view .LVU123
 383 00f2 D3F89020 		ldr	r2, [r3, #144]
 384 00f6 22F48042 		bic	r2, r2, #16384
 385 00fa C3F89020 		str	r2, [r3, #144]
 386              		.loc 2 62 3 is_stmt 1 view .LVU124
 387 00fe D3F89030 		ldr	r3, [r3, #144]
 388              	.LVL9:
 389              	.L14:
 390              		.loc 2 62 3 is_stmt 0 view .LVU125
 391              	.LBE306:
 392              	.LBE305:
 393              	.LBE304:
 394              	.LBE303:
 395              		.loc 1 202 5 is_stmt 1 discriminator 5 view .LVU126
 396              		.loc 1 206 3 discriminator 5 view .LVU127
 397 0102 C169     		ldr	r1, [r0, #28]
 398              		.loc 1 207 1 is_stmt 0 discriminator 5 view .LVU128
 399 0104 5DF8044B 		ldr	r4, [sp], #4
ARM GAS  C:\Users\DEVELO~1\AppData\Local\Temp\ccJK6Gr9.s 			page 8


 400              		.cfi_remember_state
 401              		.cfi_restore 4
 402              		.cfi_def_cfa_offset 0
 403              		.loc 1 206 3 discriminator 5 view .LVU129
 404 0108 4068     		ldr	r0, [r0, #4]
 405              	.LVL10:
 406              		.loc 1 206 3 discriminator 5 view .LVU130
 407 010a FFF7FEBF 		b	spi_lld_configure.isra.0
 408              	.LVL11:
 409              	.L26:
 410              		.cfi_restore_state
 411              		.loc 1 191 5 is_stmt 1 view .LVU131
 412              	.LBB307:
 413              	.LBI307:
 414              		.loc 2 385 22 view .LVU132
 415              	.LBB308:
 416              		.loc 2 397 3 view .LVU133
 417              	.LBB309:
 418              	.LBI309:
 419              		.loc 2 73 22 view .LVU134
 420              	.LBB310:
 421              		.loc 2 76 3 view .LVU135
 422              		.loc 2 76 17 is_stmt 0 view .LVU136
 423 010e 234B     		ldr	r3, .L27+24
 424 0110 D3F89820 		ldr	r2, [r3, #152]
 425 0114 42F48012 		orr	r2, r2, #1048576
 426 0118 C3F89820 		str	r2, [r3, #152]
 427              		.loc 2 77 3 is_stmt 1 view .LVU137
 428              		.loc 2 77 17 is_stmt 0 view .LVU138
 429 011c D3F89820 		ldr	r2, [r3, #152]
 430 0120 22F48012 		bic	r2, r2, #1048576
 431 0124 C3F89820 		str	r2, [r3, #152]
 432              		.loc 2 78 3 is_stmt 1 view .LVU139
 433 0128 D3F89830 		ldr	r3, [r3, #152]
 434              	.LVL12:
 435              		.loc 2 78 3 is_stmt 0 view .LVU140
 436              	.LBE310:
 437              	.LBE309:
 438              		.loc 2 398 1 view .LVU141
 439 012c E9E7     		b	.L14
 440              	.LVL13:
 441              	.L24:
 442              		.loc 2 398 1 view .LVU142
 443              	.LBE308:
 444              	.LBE307:
 445              		.loc 1 179 5 is_stmt 1 view .LVU143
 446              	.LBB311:
 447              	.LBI311:
 448              		.loc 2 207 22 view .LVU144
 449              	.LBB312:
 450              		.loc 2 219 3 view .LVU145
 451              	.LBB313:
 452              	.LBI313:
 453              		.loc 2 57 22 view .LVU146
 454              	.LBB314:
 455              		.loc 2 60 3 view .LVU147
 456              		.loc 2 60 18 is_stmt 0 view .LVU148
ARM GAS  C:\Users\DEVELO~1\AppData\Local\Temp\ccJK6Gr9.s 			page 9


 457 012e 1B4B     		ldr	r3, .L27+24
 458              	.LBE314:
 459              	.LBE313:
 460              	.LBE312:
 461              	.LBE311:
 462              		.loc 1 206 3 view .LVU149
 463 0130 C169     		ldr	r1, [r0, #28]
 464              	.LBB324:
 465              	.LBB321:
 466              	.LBB318:
 467              	.LBB315:
 468              		.loc 2 60 18 view .LVU150
 469 0132 D3F89020 		ldr	r2, [r3, #144]
 470              	.LBE315:
 471              	.LBE318:
 472              	.LBE321:
 473              	.LBE324:
 474              		.loc 1 206 3 view .LVU151
 475 0136 4068     		ldr	r0, [r0, #4]
 476              	.LVL14:
 477              	.LBB325:
 478              	.LBB322:
 479              	.LBB319:
 480              	.LBB316:
 481              		.loc 2 60 18 view .LVU152
 482 0138 42F40042 		orr	r2, r2, #32768
 483              	.LBE316:
 484              	.LBE319:
 485              	.LBE322:
 486              	.LBE325:
 487              		.loc 1 207 1 view .LVU153
 488 013c 5DF8044B 		ldr	r4, [sp], #4
 489              		.cfi_remember_state
 490              		.cfi_restore 4
 491              		.cfi_def_cfa_offset 0
 492              	.LBB326:
 493              	.LBB323:
 494              	.LBB320:
 495              	.LBB317:
 496              		.loc 2 60 18 view .LVU154
 497 0140 C3F89020 		str	r2, [r3, #144]
 498              		.loc 2 61 3 is_stmt 1 view .LVU155
 499              		.loc 2 61 18 is_stmt 0 view .LVU156
 500 0144 D3F89020 		ldr	r2, [r3, #144]
 501 0148 22F40042 		bic	r2, r2, #32768
 502 014c C3F89020 		str	r2, [r3, #144]
 503              		.loc 2 62 3 is_stmt 1 view .LVU157
 504 0150 D3F89030 		ldr	r3, [r3, #144]
 505              	.LVL15:
 506              		.loc 2 62 3 is_stmt 0 view .LVU158
 507              	.LBE317:
 508              	.LBE320:
 509              	.LBE323:
 510              	.LBE326:
 511              		.loc 1 202 5 is_stmt 1 view .LVU159
 512              		.loc 1 206 3 view .LVU160
 513 0154 FFF7FEBF 		b	spi_lld_configure.isra.0
ARM GAS  C:\Users\DEVELO~1\AppData\Local\Temp\ccJK6Gr9.s 			page 10


 514              	.LVL16:
 515              	.L25:
 516              		.cfi_restore_state
 517              		.loc 1 185 5 view .LVU161
 518              	.LBB327:
 519              	.LBI327:
 520              		.loc 2 385 22 view .LVU162
 521              	.LBB328:
 522              		.loc 2 397 3 view .LVU163
 523              	.LBB329:
 524              	.LBI329:
 525              		.loc 2 73 22 view .LVU164
 526              	.LBB330:
 527              		.loc 2 76 3 view .LVU165
 528              		.loc 2 76 17 is_stmt 0 view .LVU166
 529 0158 104B     		ldr	r3, .L27+24
 530              	.LBE330:
 531              	.LBE329:
 532              	.LBE328:
 533              	.LBE327:
 534              		.loc 1 206 3 view .LVU167
 535 015a C169     		ldr	r1, [r0, #28]
 536              	.LBB340:
 537              	.LBB337:
 538              	.LBB334:
 539              	.LBB331:
 540              		.loc 2 76 17 view .LVU168
 541 015c D3F89820 		ldr	r2, [r3, #152]
 542              	.LBE331:
 543              	.LBE334:
 544              	.LBE337:
 545              	.LBE340:
 546              		.loc 1 206 3 view .LVU169
 547 0160 4068     		ldr	r0, [r0, #4]
 548              	.LVL17:
 549              	.LBB341:
 550              	.LBB338:
 551              	.LBB335:
 552              	.LBB332:
 553              		.loc 2 76 17 view .LVU170
 554 0162 42F40052 		orr	r2, r2, #8192
 555              	.LBE332:
 556              	.LBE335:
 557              	.LBE338:
 558              	.LBE341:
 559              		.loc 1 207 1 view .LVU171
 560 0166 5DF8044B 		ldr	r4, [sp], #4
 561              		.cfi_restore 4
 562              		.cfi_def_cfa_offset 0
 563              	.LBB342:
 564              	.LBB339:
 565              	.LBB336:
 566              	.LBB333:
 567              		.loc 2 76 17 view .LVU172
 568 016a C3F89820 		str	r2, [r3, #152]
 569              		.loc 2 77 3 is_stmt 1 view .LVU173
 570              		.loc 2 77 17 is_stmt 0 view .LVU174
ARM GAS  C:\Users\DEVELO~1\AppData\Local\Temp\ccJK6Gr9.s 			page 11


 571 016e D3F89820 		ldr	r2, [r3, #152]
 572 0172 22F40052 		bic	r2, r2, #8192
 573 0176 C3F89820 		str	r2, [r3, #152]
 574              		.loc 2 78 3 is_stmt 1 view .LVU175
 575 017a D3F89830 		ldr	r3, [r3, #152]
 576              	.LVL18:
 577              		.loc 2 78 3 is_stmt 0 view .LVU176
 578              	.LBE333:
 579              	.LBE336:
 580              	.LBE339:
 581              	.LBE342:
 582              		.loc 1 202 5 is_stmt 1 view .LVU177
 583              		.loc 1 206 3 view .LVU178
 584 017e FFF7FEBF 		b	spi_lld_configure.isra.0
 585              	.LVL19:
 586              	.L28:
 587 0182 00BF     		.align	2
 588              	.L27:
 589 0184 00000000 		.word	.LANCHOR0
 590 0188 00000000 		.word	.LANCHOR1
 591 018c 00000000 		.word	.LANCHOR2
 592 0190 00000000 		.word	.LANCHOR3
 593 0194 00000000 		.word	.LANCHOR4
 594 0198 00000000 		.word	.LANCHOR5
 595 019c 00440258 		.word	1476543488
 596              		.cfi_endproc
 597              	.LFE451:
 598              		.size	spi_lld_stop_abort, .-spi_lld_stop_abort
 599              		.section	.text.spi_lld_stop_nicely,"ax",%progbits
 600              		.align	1
 601              		.p2align 2,,3
 602              		.syntax unified
 603              		.thumb
 604              		.thumb_func
 605              		.type	spi_lld_stop_nicely, %function
 606              	spi_lld_stop_nicely:
 607              	.LVL20:
 608              	.LFB452:
 609              		.loc 1 214 51 view -0
 610              		.cfi_startproc
 611              		@ args = 0, pretend = 0, frame = 0
 612              		@ frame_needed = 0, uses_anonymous_args = 0
 613              		.loc 1 216 3 view .LVU180
 614              		.loc 1 216 19 is_stmt 0 view .LVU181
 615 0000 4368     		ldr	r3, [r0, #4]
 616              		.loc 1 216 6 view .LVU182
 617 0002 5B78     		ldrb	r3, [r3, #1]	@ zero_extendqisi2
 618              		.loc 1 214 51 view .LVU183
 619 0004 10B5     		push	{r4, lr}
 620              		.cfi_def_cfa_offset 8
 621              		.cfi_offset 4, -8
 622              		.cfi_offset 14, -4
 623              		.loc 1 216 6 view .LVU184
 624 0006 002B     		cmp	r3, #0
 625 0008 50D1     		bne	.L45
 626              		.loc 1 225 3 is_stmt 1 view .LVU185
 627              		.loc 1 225 6 is_stmt 0 view .LVU186
ARM GAS  C:\Users\DEVELO~1\AppData\Local\Temp\ccJK6Gr9.s 			page 12


 628 000a 90F82030 		ldrb	r3, [r0, #32]	@ zero_extendqisi2
 629 000e 0146     		mov	r1, r0
 630 0010 DBB1     		cbz	r3, .L32
 631              		.loc 1 229 5 is_stmt 1 view .LVU187
 632 0012 836A     		ldr	r3, [r0, #40]
 633 0014 D3E90040 		ldrd	r4, r0, [r3]
 634              	.LVL21:
 635              		.loc 1 229 5 is_stmt 0 view .LVU188
 636 0018 0268     		ldr	r2, [r0]
 637 001a 22F00F02 		bic	r2, r2, #15
 638 001e 0260     		str	r2, [r0]
 639              		.loc 1 229 5 is_stmt 1 view .LVU189
 640 0020 0E22     		movs	r2, #14
 641 0022 187A     		ldrb	r0, [r3, #8]	@ zero_extendqisi2
 642              		.loc 1 232 17 is_stmt 0 view .LVU190
 643 0024 CB69     		ldr	r3, [r1, #28]
 644              		.loc 1 229 5 view .LVU191
 645 0026 8240     		lsls	r2, r2, r0
 646 0028 6260     		str	r2, [r4, #4]
 647              		.loc 1 229 5 is_stmt 1 view .LVU192
 648              		.loc 1 229 37 view .LVU193
 649              		.loc 1 232 5 view .LVU194
 650              	.L33:
 651              		.loc 1 234 5 discriminator 1 view .LVU195
 652              		.loc 1 232 61 discriminator 1 view .LVU196
 653              		.loc 1 232 22 is_stmt 0 discriminator 1 view .LVU197
 654 002a 5A69     		ldr	r2, [r3, #20]
 655              		.loc 1 232 61 discriminator 1 view .LVU198
 656 002c 12F4604F 		tst	r2, #57344
 657 0030 FBD1     		bne	.L33
 658              		.loc 1 236 5 is_stmt 1 view .LVU199
 659 0032 496A     		ldr	r1, [r1, #36]
 660              	.LVL22:
 661              		.loc 1 236 5 is_stmt 0 view .LVU200
 662 0034 D1E90040 		ldrd	r4, r0, [r1]
 663 0038 0268     		ldr	r2, [r0]
 664 003a 22F00F02 		bic	r2, r2, #15
 665 003e 0260     		str	r2, [r0]
 666              		.loc 1 236 5 is_stmt 1 view .LVU201
 667 0040 0E22     		movs	r2, #14
 668 0042 097A     		ldrb	r1, [r1, #8]	@ zero_extendqisi2
 669 0044 8A40     		lsls	r2, r2, r1
 670 0046 6260     		str	r2, [r4, #4]
 671              		.loc 1 236 5 view .LVU202
 672              		.loc 1 236 37 view .LVU203
 673 0048 24E0     		b	.L34
 674              	.LVL23:
 675              	.L32:
 676              		.loc 1 244 5 view .LVU204
 677 004a 806A     		ldr	r0, [r0, #40]
 678              	.LVL24:
 679              		.loc 1 244 5 is_stmt 0 view .LVU205
 680 004c 0268     		ldr	r2, [r0]
 681 004e 1368     		ldr	r3, [r2]
 682 0050 23F01F03 		bic	r3, r3, #31
 683 0054 1360     		str	r3, [r2]
 684              		.loc 1 244 5 is_stmt 1 view .LVU206
ARM GAS  C:\Users\DEVELO~1\AppData\Local\Temp\ccJK6Gr9.s 			page 13


 685              	.L35:
 686              		.loc 1 244 5 discriminator 2 view .LVU207
 687 0056 1368     		ldr	r3, [r2]
 688 0058 DB07     		lsls	r3, r3, #31
 689 005a FCD4     		bmi	.L35
 690              		.loc 1 244 5 discriminator 3 view .LVU208
 691 005c 90F80CC0 		ldrb	ip, [r0, #12]	@ zero_extendqisi2
 692 0060 3D22     		movs	r2, #61
 693 0062 4068     		ldr	r0, [r0, #4]
 694 0064 02FA0CF2 		lsl	r2, r2, ip
 695              		.loc 1 247 17 is_stmt 0 discriminator 3 view .LVU209
 696 0068 CB69     		ldr	r3, [r1, #28]
 697              		.loc 1 244 5 discriminator 3 view .LVU210
 698 006a 0260     		str	r2, [r0]
 699              		.loc 1 244 5 is_stmt 1 discriminator 3 view .LVU211
 700              		.loc 1 244 35 discriminator 3 view .LVU212
 701              		.loc 1 247 5 discriminator 3 view .LVU213
 702              	.L36:
 703              		.loc 1 249 5 discriminator 1 view .LVU214
 704              		.loc 1 247 61 discriminator 1 view .LVU215
 705              		.loc 1 247 22 is_stmt 0 discriminator 1 view .LVU216
 706 006c 5A69     		ldr	r2, [r3, #20]
 707              		.loc 1 247 61 discriminator 1 view .LVU217
 708 006e 12F4604F 		tst	r2, #57344
 709 0072 FBD1     		bne	.L36
 710              		.loc 1 251 5 is_stmt 1 view .LVU218
 711 0074 486A     		ldr	r0, [r1, #36]
 712 0076 0168     		ldr	r1, [r0]
 713              	.LVL25:
 714              		.loc 1 251 5 is_stmt 0 view .LVU219
 715 0078 0A68     		ldr	r2, [r1]
 716 007a 22F01F02 		bic	r2, r2, #31
 717 007e 0A60     		str	r2, [r1]
 718              		.loc 1 251 5 is_stmt 1 view .LVU220
 719              	.L37:
 720              		.loc 1 251 5 discriminator 2 view .LVU221
 721 0080 0A68     		ldr	r2, [r1]
 722 0082 D407     		lsls	r4, r2, #31
 723 0084 FCD4     		bmi	.L37
 724              		.loc 1 251 5 discriminator 3 view .LVU222
 725 0086 90F80CC0 		ldrb	ip, [r0, #12]	@ zero_extendqisi2
 726 008a 3D22     		movs	r2, #61
 727 008c 4168     		ldr	r1, [r0, #4]
 728 008e 02FA0CF2 		lsl	r2, r2, ip
 729 0092 0A60     		str	r2, [r1]
 730              	.L34:
 731              		.loc 1 251 5 discriminator 4 view .LVU223
 732              		.loc 1 251 35 discriminator 4 view .LVU224
 733              		.loc 1 256 3 discriminator 4 view .LVU225
 734              	.LBB345:
 735              	.LBI345:
 736              		.loc 1 125 13 discriminator 4 view .LVU226
 737              	.LVL26:
 738              	.LBB346:
 739              		.loc 1 127 3 discriminator 4 view .LVU227
 740              		.loc 1 128 5 discriminator 4 view .LVU228
 741              		.loc 1 128 20 is_stmt 0 discriminator 4 view .LVU229
ARM GAS  C:\Users\DEVELO~1\AppData\Local\Temp\ccJK6Gr9.s 			page 14


 742 0094 1A68     		ldr	r2, [r3]
 743 0096 42F48062 		orr	r2, r2, #1024
 744 009a 1A60     		str	r2, [r3]
 745              		.loc 1 129 5 is_stmt 1 discriminator 4 view .LVU230
 746              	.L38:
 747              		.loc 1 130 5 view .LVU231
 748              		.loc 1 129 46 view .LVU232
 749              		.loc 1 129 22 is_stmt 0 view .LVU233
 750 009c 1A68     		ldr	r2, [r3]
 751              		.loc 1 129 46 view .LVU234
 752 009e 9205     		lsls	r2, r2, #22
 753 00a0 FCD4     		bmi	.L38
 754              		.loc 1 132 3 is_stmt 1 view .LVU235
 755              		.loc 1 132 19 is_stmt 0 view .LVU236
 756 00a2 4FF0FF32 		mov	r2, #-1
 757              	.LBE346:
 758              	.LBE345:
 759              		.loc 1 260 1 view .LVU237
 760 00a6 0020     		movs	r0, #0
 761              	.LBB348:
 762              	.LBB347:
 763              		.loc 1 132 19 view .LVU238
 764 00a8 9A61     		str	r2, [r3, #24]
 765              	.LVL27:
 766              		.loc 1 132 19 view .LVU239
 767              	.LBE347:
 768              	.LBE348:
 769              		.loc 1 260 1 view .LVU240
 770 00aa 10BD     		pop	{r4, pc}
 771              	.LVL28:
 772              	.L45:
 773              		.loc 1 218 5 is_stmt 1 view .LVU241
 774 00ac FFF7FEFF 		bl	spi_lld_stop_abort
 775              	.LVL29:
 776              		.loc 1 220 5 view .LVU242
 777              		.loc 1 260 1 is_stmt 0 view .LVU243
 778 00b0 0020     		movs	r0, #0
 779 00b2 10BD     		pop	{r4, pc}
 780              		.cfi_endproc
 781              	.LFE452:
 782              		.size	spi_lld_stop_nicely, .-spi_lld_stop_nicely
 783              		.section	.rodata.spi_lld_serve_dma_tx_interrupt.part.0.str1.4,"aMS",%progbits,1
 784              		.align	2
 785              	.LC0:
 786 0000 444D4120 		.ascii	"DMA failure\000"
 786      6661696C 
 786      75726500 
 787              		.section	.text.spi_lld_serve_dma_tx_interrupt.part.0,"ax",%progbits
 788              		.align	1
 789              		.p2align 2,,3
 790              		.syntax unified
 791              		.thumb
 792              		.thumb_func
 793              		.type	spi_lld_serve_dma_tx_interrupt.part.0, %function
 794              	spi_lld_serve_dma_tx_interrupt.part.0:
 795              	.LVL30:
 796              	.LFB477:
ARM GAS  C:\Users\DEVELO~1\AppData\Local\Temp\ccJK6Gr9.s 			page 15


 797              		.loc 1 373 13 is_stmt 1 view -0
 798              		.cfi_startproc
 799              		@ args = 0, pretend = 0, frame = 0
 800              		@ frame_needed = 0, uses_anonymous_args = 0
 801              		.loc 1 378 5 view .LVU245
 802              	.LBB349:
 803              	.LBI349:
 804              		.file 3 "../../../os/hal/osal/rt-nil/osal.h"
 805              		.loc 3 542 20 view .LVU246
 806              	.LBB350:
 807              		.loc 3 544 3 view .LVU247
 808              	.LBE350:
 809              	.LBE349:
 810              		.loc 1 373 13 is_stmt 0 view .LVU248
 811 0000 10B5     		push	{r4, lr}
 812              		.cfi_def_cfa_offset 8
 813              		.cfi_offset 4, -8
 814              		.cfi_offset 14, -4
 815              		.loc 1 373 13 view .LVU249
 816 0002 0446     		mov	r4, r0
 817              	.LBB352:
 818              	.LBB351:
 819              		.loc 3 544 3 view .LVU250
 820 0004 0B48     		ldr	r0, .L52
 821              	.LVL31:
 822              		.loc 3 544 3 view .LVU251
 823 0006 FFF7FEFF 		bl	chSysHalt
 824              	.LVL32:
 825              		.loc 3 544 3 view .LVU252
 826              	.LBE351:
 827              	.LBE352:
 828              		.loc 1 382 5 is_stmt 1 view .LVU253
 829 000a 2046     		mov	r0, r4
 830 000c FFF7FEFF 		bl	spi_lld_stop_abort
 831              	.LVL33:
 832              		.loc 1 385 5 view .LVU254
 833 0010 6368     		ldr	r3, [r4, #4]
 834 0012 9B68     		ldr	r3, [r3, #8]
 835 0014 0BB1     		cbz	r3, .L47
 836              		.loc 1 385 5 view .LVU255
 837 0016 2046     		mov	r0, r4
 838 0018 9847     		blx	r3
 839              	.LVL34:
 840              	.L47:
 841              		.loc 1 385 5 view .LVU256
 842              	.LBB353:
 843              	.LBI353:
 844              		.loc 3 595 20 view .LVU257
 845              		.loc 3 597 3 view .LVU258
 846              	.LBB354:
 847              	.LBI354:
 848              		.file 4 "../../../os/rt/include/chsys.h"
 849              		.loc 4 416 20 view .LVU259
 850              		.loc 4 418 3 view .LVU260
 851              	.LBB355:
 852              	.LBI355:
 853              		.file 5 "../../../os/common/ports/ARMv7-M/chcore.h"
ARM GAS  C:\Users\DEVELO~1\AppData\Local\Temp\ccJK6Gr9.s 			page 16


 854              		.loc 5 879 27 view .LVU261
 855              		.loc 5 881 3 view .LVU262
 856              	.LBB356:
 857              	.LBI356:
 858              		.loc 5 840 27 view .LVU263
 859              		.loc 5 848 3 view .LVU264
 860              	.LBB357:
 861              	.LBI357:
 862              		.file 6 "../../../os/common/ext/ARM/CMSIS/Core/Include/cmsis_gcc.h"
 863              		.loc 6 491 27 view .LVU265
 864              	.LBB358:
 865              		.loc 6 493 3 view .LVU266
 866 001a 3023     		movs	r3, #48
 867              		.syntax unified
 868              	@ 493 "../../../os/common/ext/ARM/CMSIS/Core/Include/cmsis_gcc.h" 1
 869 001c 83F31188 		MSR basepri, r3
 870              	@ 0 "" 2
 871              	.LVL35:
 872              		.loc 6 493 3 is_stmt 0 view .LVU267
 873              		.thumb
 874              		.syntax unified
 875              	.LBE358:
 876              	.LBE357:
 877              	.LBE356:
 878              	.LBE355:
 879              		.loc 4 419 35 is_stmt 1 view .LVU268
 880              		.loc 4 420 30 view .LVU269
 881              	.LBE354:
 882              	.LBE353:
 883              		.loc 1 385 5 view .LVU270
 884              	.LBB359:
 885              	.LBI359:
 886              		.loc 3 837 20 view .LVU271
 887              	.LBB360:
 888              		.loc 3 839 3 view .LVU272
 889 0020 6FF01201 		mvn	r1, #18
 890 0024 04F10800 		add	r0, r4, #8
 891              	.LVL36:
 892              		.loc 3 839 3 is_stmt 0 view .LVU273
 893 0028 FFF7FEFF 		bl	chThdResumeI
 894              	.LVL37:
 895              		.loc 3 839 3 view .LVU274
 896              	.LBE360:
 897              	.LBE359:
 898              		.loc 1 385 5 is_stmt 1 view .LVU275
 899              	.LBB361:
 900              	.LBI361:
 901              		.loc 3 606 20 view .LVU276
 902              		.loc 3 608 3 view .LVU277
 903              	.LBB362:
 904              	.LBI362:
 905              		.loc 4 438 20 view .LVU278
 906              		.loc 4 440 32 view .LVU279
 907              		.loc 4 441 34 view .LVU280
 908              		.loc 4 442 3 view .LVU281
 909              	.LBB363:
 910              	.LBI363:
ARM GAS  C:\Users\DEVELO~1\AppData\Local\Temp\ccJK6Gr9.s 			page 17


 911              		.loc 5 890 27 view .LVU282
 912              		.loc 5 892 3 view .LVU283
 913              	.LBB364:
 914              	.LBI364:
 915              		.loc 5 864 27 view .LVU284
 916              		.loc 5 867 3 view .LVU285
 917              	.LBB365:
 918              	.LBI365:
 919              		.loc 6 491 27 view .LVU286
 920              	.LBB366:
 921              		.loc 6 493 3 view .LVU287
 922 002c 0023     		movs	r3, #0
 923              		.syntax unified
 924              	@ 493 "../../../os/common/ext/ARM/CMSIS/Core/Include/cmsis_gcc.h" 1
 925 002e 83F31188 		MSR basepri, r3
 926              	@ 0 "" 2
 927              	.LVL38:
 928              		.loc 6 493 3 is_stmt 0 view .LVU288
 929              		.thumb
 930              		.syntax unified
 931              	.LBE366:
 932              	.LBE365:
 933              	.LBE364:
 934              	.LBE363:
 935              	.LBE362:
 936              	.LBE361:
 937              		.loc 1 385 5 is_stmt 1 view .LVU289
 938              		.loc 1 385 51 view .LVU290
 939              		.loc 1 387 1 is_stmt 0 view .LVU291
 940 0032 10BD     		pop	{r4, pc}
 941              	.LVL39:
 942              	.L53:
 943              		.loc 1 387 1 view .LVU292
 944              		.align	2
 945              	.L52:
 946 0034 00000000 		.word	.LC0
 947              		.cfi_endproc
 948              	.LFE477:
 949              		.size	spi_lld_serve_dma_tx_interrupt.part.0, .-spi_lld_serve_dma_tx_interrupt.part.0
 950              		.thumb_set spi_lld_serve_bdma_tx_interrupt.part.0,spi_lld_serve_dma_tx_interrupt.part.0
 951              		.section	.text.spi_lld_serve_bdma_tx_interrupt,"ax",%progbits
 952              		.align	1
 953              		.p2align 2,,3
 954              		.syntax unified
 955              		.thumb
 956              		.thumb_func
 957              		.type	spi_lld_serve_bdma_tx_interrupt, %function
 958              	spi_lld_serve_bdma_tx_interrupt:
 959              	.LVL40:
 960              	.LFB454:
 961              		.loc 1 309 78 is_stmt 1 view -0
 962              		.cfi_startproc
 963              		@ args = 0, pretend = 0, frame = 0
 964              		@ frame_needed = 0, uses_anonymous_args = 0
 965              		@ link register save eliminated.
 966              		.loc 1 312 3 view .LVU294
 967              		.loc 1 312 6 is_stmt 0 view .LVU295
ARM GAS  C:\Users\DEVELO~1\AppData\Local\Temp\ccJK6Gr9.s 			page 18


 968 0000 0B07     		lsls	r3, r1, #28
 969 0002 00D4     		bmi	.L56
 970              		.loc 1 323 1 view .LVU296
 971 0004 7047     		bx	lr
 972              	.L56:
 973 0006 FFF7FEBF 		b	spi_lld_serve_bdma_tx_interrupt.part.0
 974              	.LVL41:
 975              		.loc 1 323 1 view .LVU297
 976              		.cfi_endproc
 977              	.LFE454:
 978              		.size	spi_lld_serve_bdma_tx_interrupt, .-spi_lld_serve_bdma_tx_interrupt
 979 000a 00BF     		.section	.text.spi_lld_serve_dma_tx_interrupt,"ax",%progbits
 980              		.align	1
 981              		.p2align 2,,3
 982              		.syntax unified
 983              		.thumb
 984              		.thumb_func
 985              		.type	spi_lld_serve_dma_tx_interrupt, %function
 986              	spi_lld_serve_dma_tx_interrupt:
 987              	.LVL42:
 988              	.LFB456:
 989              		.loc 1 373 77 is_stmt 1 view -0
 990              		.cfi_startproc
 991              		@ args = 0, pretend = 0, frame = 0
 992              		@ frame_needed = 0, uses_anonymous_args = 0
 993              		@ link register save eliminated.
 994              		.loc 1 376 3 view .LVU299
 995              		.loc 1 376 6 is_stmt 0 view .LVU300
 996 0000 11F00C0F 		tst	r1, #12
 997 0004 00D1     		bne	.L59
 998              		.loc 1 387 1 view .LVU301
 999 0006 7047     		bx	lr
 1000              	.L59:
 1001 0008 FFF7FEBF 		b	spi_lld_serve_dma_tx_interrupt.part.0
 1002              	.LVL43:
 1003              		.loc 1 387 1 view .LVU302
 1004              		.cfi_endproc
 1005              	.LFE456:
 1006              		.size	spi_lld_serve_dma_tx_interrupt, .-spi_lld_serve_dma_tx_interrupt
 1007              		.section	.text.spi_lld_serve_dma_rx_interrupt,"ax",%progbits
 1008              		.align	1
 1009              		.p2align 2,,3
 1010              		.syntax unified
 1011              		.thumb
 1012              		.thumb_func
 1013              		.type	spi_lld_serve_dma_rx_interrupt, %function
 1014              	spi_lld_serve_dma_rx_interrupt:
 1015              	.LVL44:
 1016              	.LFB455:
 1017              		.loc 1 333 77 is_stmt 1 view -0
 1018              		.cfi_startproc
 1019              		@ args = 0, pretend = 0, frame = 0
 1020              		@ frame_needed = 0, uses_anonymous_args = 0
 1021              		.loc 1 336 3 view .LVU304
 1022              		.loc 1 336 6 is_stmt 0 view .LVU305
 1023 0000 11F00C0F 		tst	r1, #12
 1024              		.loc 1 333 77 view .LVU306
ARM GAS  C:\Users\DEVELO~1\AppData\Local\Temp\ccJK6Gr9.s 			page 19


 1025 0004 70B5     		push	{r4, r5, r6, lr}
 1026              		.cfi_def_cfa_offset 16
 1027              		.cfi_offset 4, -16
 1028              		.cfi_offset 5, -12
 1029              		.cfi_offset 6, -8
 1030              		.cfi_offset 14, -4
 1031              		.loc 1 333 77 view .LVU307
 1032 0006 0D46     		mov	r5, r1
 1033 0008 0446     		mov	r4, r0
 1034              		.loc 1 336 6 view .LVU308
 1035 000a 2DD1     		bne	.L91
 1036              	.LVL45:
 1037              	.L61:
 1038              		.loc 1 345 5 is_stmt 1 discriminator 4 view .LVU309
 1039              		.loc 1 345 51 discriminator 4 view .LVU310
 1040              		.loc 1 348 3 discriminator 4 view .LVU311
 1041              		.loc 1 348 11 is_stmt 0 discriminator 4 view .LVU312
 1042 000c 6668     		ldr	r6, [r4, #4]
 1043              		.loc 1 348 6 discriminator 4 view .LVU313
 1044 000e 3378     		ldrb	r3, [r6]	@ zero_extendqisi2
 1045 0010 93B1     		cbz	r3, .L63
 1046              		.loc 1 349 5 is_stmt 1 view .LVU314
 1047              		.loc 1 349 8 is_stmt 0 view .LVU315
 1048 0012 EA06     		lsls	r2, r5, #27
 1049 0014 03D5     		bpl	.L64
 1050              		.loc 1 351 7 is_stmt 1 view .LVU316
 1051 0016 7368     		ldr	r3, [r6, #4]
 1052 0018 6BB1     		cbz	r3, .L60
 1053              		.loc 1 351 7 discriminator 1 view .LVU317
 1054 001a 2046     		mov	r0, r4
 1055 001c 9847     		blx	r3
 1056              	.LVL46:
 1057              	.L64:
 1058              		.loc 1 351 32 discriminator 3 view .LVU318
 1059              		.loc 1 353 5 discriminator 3 view .LVU319
 1060              		.loc 1 353 8 is_stmt 0 discriminator 3 view .LVU320
 1061 001e AB06     		lsls	r3, r5, #26
 1062 0020 09D5     		bpl	.L60
 1063              		.loc 1 355 7 is_stmt 1 view .LVU321
 1064 0022 6368     		ldr	r3, [r4, #4]
 1065 0024 5B68     		ldr	r3, [r3, #4]
 1066 0026 33B1     		cbz	r3, .L60
 1067              		.loc 1 355 7 discriminator 1 view .LVU322
 1068 0028 0422     		movs	r2, #4
 1069 002a 2046     		mov	r0, r4
 1070 002c 2270     		strb	r2, [r4]
 1071              		.loc 1 355 7 discriminator 1 view .LVU323
 1072 002e 9847     		blx	r3
 1073              	.LVL47:
 1074              		.loc 1 355 7 discriminator 1 view .LVU324
 1075 0030 2378     		ldrb	r3, [r4]	@ zero_extendqisi2
 1076 0032 042B     		cmp	r3, #4
 1077 0034 30D0     		beq	.L92
 1078              	.L60:
 1079              		.loc 1 365 1 is_stmt 0 view .LVU325
 1080 0036 70BD     		pop	{r4, r5, r6, pc}
 1081              	.LVL48:
ARM GAS  C:\Users\DEVELO~1\AppData\Local\Temp\ccJK6Gr9.s 			page 20


 1082              	.L63:
 1083              		.loc 1 360 5 is_stmt 1 view .LVU326
 1084              		.loc 1 360 12 is_stmt 0 view .LVU327
 1085 0038 2046     		mov	r0, r4
 1086 003a FFF7FEFF 		bl	spi_lld_stop_nicely
 1087              	.LVL49:
 1088              		.loc 1 363 5 is_stmt 1 view .LVU328
 1089 003e 7368     		ldr	r3, [r6, #4]
 1090 0040 6BB3     		cbz	r3, .L67
 1091              		.loc 1 363 5 discriminator 1 view .LVU329
 1092 0042 0422     		movs	r2, #4
 1093 0044 2046     		mov	r0, r4
 1094 0046 2270     		strb	r2, [r4]
 1095              		.loc 1 363 5 discriminator 1 view .LVU330
 1096 0048 9847     		blx	r3
 1097              	.LVL50:
 1098              		.loc 1 363 5 discriminator 1 view .LVU331
 1099 004a 2378     		ldrb	r3, [r4]	@ zero_extendqisi2
 1100 004c 042B     		cmp	r3, #4
 1101 004e 26D0     		beq	.L67
 1102              	.L68:
 1103              		.loc 1 363 5 discriminator 4 view .LVU332
 1104              	.LBB367:
 1105              	.LBI367:
 1106              		.loc 3 595 20 discriminator 4 view .LVU333
 1107              		.loc 3 597 3 discriminator 4 view .LVU334
 1108              	.LBB368:
 1109              	.LBI368:
 1110              		.loc 4 416 20 discriminator 4 view .LVU335
 1111              		.loc 4 418 3 discriminator 4 view .LVU336
 1112              	.LBB369:
 1113              	.LBI369:
 1114              		.loc 5 879 27 discriminator 4 view .LVU337
 1115              		.loc 5 881 3 discriminator 4 view .LVU338
 1116              	.LBB370:
 1117              	.LBI370:
 1118              		.loc 5 840 27 discriminator 4 view .LVU339
 1119              		.loc 5 848 3 discriminator 4 view .LVU340
 1120              	.LVL51:
 1121              	.LBB371:
 1122              	.LBI371:
 1123              		.loc 6 491 27 discriminator 4 view .LVU341
 1124              	.LBB372:
 1125              		.loc 6 493 3 discriminator 4 view .LVU342
 1126 0050 3023     		movs	r3, #48
 1127              		.syntax unified
 1128              	@ 493 "../../../os/common/ext/ARM/CMSIS/Core/Include/cmsis_gcc.h" 1
 1129 0052 83F31188 		MSR basepri, r3
 1130              	@ 0 "" 2
 1131              	.LVL52:
 1132              		.loc 6 493 3 is_stmt 0 discriminator 4 view .LVU343
 1133              		.thumb
 1134              		.syntax unified
 1135              	.LBE372:
 1136              	.LBE371:
 1137              	.LBE370:
 1138              	.LBE369:
ARM GAS  C:\Users\DEVELO~1\AppData\Local\Temp\ccJK6Gr9.s 			page 21


 1139              		.loc 4 419 35 is_stmt 1 discriminator 4 view .LVU344
 1140              		.loc 4 420 30 discriminator 4 view .LVU345
 1141              	.LBE368:
 1142              	.LBE367:
 1143              		.loc 1 363 5 discriminator 4 view .LVU346
 1144              	.LBB373:
 1145              	.LBI373:
 1146              		.loc 3 837 20 discriminator 4 view .LVU347
 1147              	.LBB374:
 1148              		.loc 3 839 3 discriminator 4 view .LVU348
 1149 0056 0021     		movs	r1, #0
 1150 0058 04F10800 		add	r0, r4, #8
 1151              	.LVL53:
 1152              		.loc 3 839 3 is_stmt 0 discriminator 4 view .LVU349
 1153 005c FFF7FEFF 		bl	chThdResumeI
 1154              	.LVL54:
 1155              		.loc 3 839 3 discriminator 4 view .LVU350
 1156              	.LBE374:
 1157              	.LBE373:
 1158              		.loc 1 363 5 is_stmt 1 discriminator 4 view .LVU351
 1159              	.LBB375:
 1160              	.LBI375:
 1161              		.loc 3 606 20 discriminator 4 view .LVU352
 1162              	.LBB376:
 1163              		.loc 3 608 3 discriminator 4 view .LVU353
 1164              	.LBB377:
 1165              	.LBI377:
 1166              		.loc 4 438 20 discriminator 4 view .LVU354
 1167              		.loc 4 440 32 discriminator 4 view .LVU355
 1168              		.loc 4 441 34 discriminator 4 view .LVU356
 1169              		.loc 4 442 3 discriminator 4 view .LVU357
 1170              	.LBB378:
 1171              	.LBI378:
 1172              		.loc 5 890 27 discriminator 4 view .LVU358
 1173              		.loc 5 892 3 discriminator 4 view .LVU359
 1174              	.LBB379:
 1175              	.LBI379:
 1176              		.loc 5 864 27 discriminator 4 view .LVU360
 1177              		.loc 5 867 3 discriminator 4 view .LVU361
 1178              	.LBB380:
 1179              	.LBI380:
 1180              		.loc 6 491 27 discriminator 4 view .LVU362
 1181              	.LBB381:
 1182              		.loc 6 493 3 discriminator 4 view .LVU363
 1183 0060 0023     		movs	r3, #0
 1184              		.syntax unified
 1185              	@ 493 "../../../os/common/ext/ARM/CMSIS/Core/Include/cmsis_gcc.h" 1
 1186 0062 83F31188 		MSR basepri, r3
 1187              	@ 0 "" 2
 1188              	.LVL55:
 1189              		.loc 6 493 3 is_stmt 0 discriminator 4 view .LVU364
 1190              		.thumb
 1191              		.syntax unified
 1192              	.LBE381:
 1193              	.LBE380:
 1194              	.LBE379:
 1195              	.LBE378:
ARM GAS  C:\Users\DEVELO~1\AppData\Local\Temp\ccJK6Gr9.s 			page 22


 1196              	.LBE377:
 1197              	.LBE376:
 1198              	.LBE375:
 1199              		.loc 1 363 5 is_stmt 1 discriminator 4 view .LVU365
 1200              		.loc 1 363 34 discriminator 4 view .LVU366
 1201              		.loc 1 365 1 is_stmt 0 discriminator 4 view .LVU367
 1202 0066 70BD     		pop	{r4, r5, r6, pc}
 1203              	.LVL56:
 1204              	.L91:
 1205              		.loc 1 338 5 is_stmt 1 view .LVU368
 1206              	.LBB382:
 1207              	.LBI382:
 1208              		.loc 3 542 20 view .LVU369
 1209              	.LBB383:
 1210              		.loc 3 544 3 view .LVU370
 1211 0068 0E48     		ldr	r0, .L93
 1212              	.LVL57:
 1213              		.loc 3 544 3 is_stmt 0 view .LVU371
 1214 006a FFF7FEFF 		bl	chSysHalt
 1215              	.LVL58:
 1216              		.loc 3 544 3 view .LVU372
 1217              	.LBE383:
 1218              	.LBE382:
 1219              		.loc 1 342 5 is_stmt 1 view .LVU373
 1220 006e 2046     		mov	r0, r4
 1221 0070 FFF7FEFF 		bl	spi_lld_stop_abort
 1222              	.LVL59:
 1223              		.loc 1 345 5 view .LVU374
 1224 0074 6368     		ldr	r3, [r4, #4]
 1225 0076 9B68     		ldr	r3, [r3, #8]
 1226 0078 0BB1     		cbz	r3, .L62
 1227              		.loc 1 345 5 discriminator 1 view .LVU375
 1228 007a 2046     		mov	r0, r4
 1229 007c 9847     		blx	r3
 1230              	.LVL60:
 1231              	.L62:
 1232              		.loc 1 345 5 discriminator 3 view .LVU376
 1233              	.LBB384:
 1234              	.LBI384:
 1235              		.loc 3 595 20 discriminator 3 view .LVU377
 1236              		.loc 3 597 3 discriminator 3 view .LVU378
 1237              	.LBB385:
 1238              	.LBI385:
 1239              		.loc 4 416 20 discriminator 3 view .LVU379
 1240              		.loc 4 418 3 discriminator 3 view .LVU380
 1241              	.LBB386:
 1242              	.LBI386:
 1243              		.loc 5 879 27 discriminator 3 view .LVU381
 1244              		.loc 5 881 3 discriminator 3 view .LVU382
 1245              	.LBB387:
 1246              	.LBI387:
 1247              		.loc 5 840 27 discriminator 3 view .LVU383
 1248              		.loc 5 848 3 discriminator 3 view .LVU384
 1249              	.LBB388:
 1250              	.LBI388:
 1251              		.loc 6 491 27 discriminator 3 view .LVU385
 1252              	.LBB389:
ARM GAS  C:\Users\DEVELO~1\AppData\Local\Temp\ccJK6Gr9.s 			page 23


 1253              		.loc 6 493 3 discriminator 3 view .LVU386
 1254 007e 3023     		movs	r3, #48
 1255              		.syntax unified
 1256              	@ 493 "../../../os/common/ext/ARM/CMSIS/Core/Include/cmsis_gcc.h" 1
 1257 0080 83F31188 		MSR basepri, r3
 1258              	@ 0 "" 2
 1259              	.LVL61:
 1260              		.loc 6 493 3 is_stmt 0 discriminator 3 view .LVU387
 1261              		.thumb
 1262              		.syntax unified
 1263              	.LBE389:
 1264              	.LBE388:
 1265              	.LBE387:
 1266              	.LBE386:
 1267              		.loc 4 419 35 is_stmt 1 discriminator 3 view .LVU388
 1268              		.loc 4 420 30 discriminator 3 view .LVU389
 1269              	.LBE385:
 1270              	.LBE384:
 1271              		.loc 1 345 5 discriminator 3 view .LVU390
 1272              	.LBB390:
 1273              	.LBI390:
 1274              		.loc 3 837 20 discriminator 3 view .LVU391
 1275              	.LBB391:
 1276              		.loc 3 839 3 discriminator 3 view .LVU392
 1277 0084 6FF01201 		mvn	r1, #18
 1278 0088 04F10800 		add	r0, r4, #8
 1279              	.LVL62:
 1280              		.loc 3 839 3 is_stmt 0 discriminator 3 view .LVU393
 1281 008c FFF7FEFF 		bl	chThdResumeI
 1282              	.LVL63:
 1283              		.loc 3 839 3 discriminator 3 view .LVU394
 1284              	.LBE391:
 1285              	.LBE390:
 1286              		.loc 1 345 5 is_stmt 1 discriminator 3 view .LVU395
 1287              	.LBB392:
 1288              	.LBI392:
 1289              		.loc 3 606 20 discriminator 3 view .LVU396
 1290              	.LBB393:
 1291              		.loc 3 608 3 discriminator 3 view .LVU397
 1292              	.LBB394:
 1293              	.LBI394:
 1294              		.loc 4 438 20 discriminator 3 view .LVU398
 1295              		.loc 4 440 32 discriminator 3 view .LVU399
 1296              		.loc 4 441 34 discriminator 3 view .LVU400
 1297              		.loc 4 442 3 discriminator 3 view .LVU401
 1298              	.LBB395:
 1299              	.LBI395:
 1300              		.loc 5 890 27 discriminator 3 view .LVU402
 1301              		.loc 5 892 3 discriminator 3 view .LVU403
 1302              	.LBB396:
 1303              	.LBI396:
 1304              		.loc 5 864 27 discriminator 3 view .LVU404
 1305              		.loc 5 867 3 discriminator 3 view .LVU405
 1306              	.LBB397:
 1307              	.LBI397:
 1308              		.loc 6 491 27 discriminator 3 view .LVU406
 1309              	.LBB398:
ARM GAS  C:\Users\DEVELO~1\AppData\Local\Temp\ccJK6Gr9.s 			page 24


 1310              		.loc 6 493 3 discriminator 3 view .LVU407
 1311 0090 0023     		movs	r3, #0
 1312              		.syntax unified
 1313              	@ 493 "../../../os/common/ext/ARM/CMSIS/Core/Include/cmsis_gcc.h" 1
 1314 0092 83F31188 		MSR basepri, r3
 1315              	@ 0 "" 2
 1316              	.LVL64:
 1317              		.loc 6 493 3 is_stmt 0 discriminator 3 view .LVU408
 1318              		.thumb
 1319              		.syntax unified
 1320              	.LBE398:
 1321              	.LBE397:
 1322              	.LBE396:
 1323              	.LBE395:
 1324              	.LBE394:
 1325              		.loc 3 609 1 discriminator 3 view .LVU409
 1326 0096 B9E7     		b	.L61
 1327              	.L92:
 1328              		.loc 3 609 1 discriminator 3 view .LVU410
 1329              	.LBE393:
 1330              	.LBE392:
 1331              		.loc 1 355 7 is_stmt 1 discriminator 3 view .LVU411
 1332 0098 0323     		movs	r3, #3
 1333 009a 2370     		strb	r3, [r4]
 1334              		.loc 1 365 1 is_stmt 0 discriminator 3 view .LVU412
 1335 009c 70BD     		pop	{r4, r5, r6, pc}
 1336              	.LVL65:
 1337              	.L67:
 1338              		.loc 1 363 5 is_stmt 1 discriminator 3 view .LVU413
 1339 009e 0223     		movs	r3, #2
 1340 00a0 2370     		strb	r3, [r4]
 1341 00a2 D5E7     		b	.L68
 1342              	.L94:
 1343              		.align	2
 1344              	.L93:
 1345 00a4 00000000 		.word	.LC0
 1346              		.cfi_endproc
 1347              	.LFE455:
 1348              		.size	spi_lld_serve_dma_rx_interrupt, .-spi_lld_serve_dma_rx_interrupt
 1349              		.section	.text.spi_lld_serve_bdma_rx_interrupt,"ax",%progbits
 1350              		.align	1
 1351              		.p2align 2,,3
 1352              		.syntax unified
 1353              		.thumb
 1354              		.thumb_func
 1355              		.type	spi_lld_serve_bdma_rx_interrupt, %function
 1356              	spi_lld_serve_bdma_rx_interrupt:
 1357              	.LVL66:
 1358              	.LFB453:
 1359              		.loc 1 269 78 view -0
 1360              		.cfi_startproc
 1361              		@ args = 0, pretend = 0, frame = 0
 1362              		@ frame_needed = 0, uses_anonymous_args = 0
 1363              		.loc 1 272 3 view .LVU415
 1364              		.loc 1 269 78 is_stmt 0 view .LVU416
 1365 0000 70B5     		push	{r4, r5, r6, lr}
 1366              		.cfi_def_cfa_offset 16
ARM GAS  C:\Users\DEVELO~1\AppData\Local\Temp\ccJK6Gr9.s 			page 25


 1367              		.cfi_offset 4, -16
 1368              		.cfi_offset 5, -12
 1369              		.cfi_offset 6, -8
 1370              		.cfi_offset 14, -4
 1371              		.loc 1 269 78 view .LVU417
 1372 0002 0D46     		mov	r5, r1
 1373              		.loc 1 272 6 view .LVU418
 1374 0004 0907     		lsls	r1, r1, #28
 1375              	.LVL67:
 1376              		.loc 1 269 78 view .LVU419
 1377 0006 0446     		mov	r4, r0
 1378              		.loc 1 272 6 view .LVU420
 1379 0008 2DD4     		bmi	.L126
 1380              	.LVL68:
 1381              	.L96:
 1382              		.loc 1 281 5 is_stmt 1 discriminator 4 view .LVU421
 1383              		.loc 1 281 51 discriminator 4 view .LVU422
 1384              		.loc 1 284 3 discriminator 4 view .LVU423
 1385              		.loc 1 284 11 is_stmt 0 discriminator 4 view .LVU424
 1386 000a 6668     		ldr	r6, [r4, #4]
 1387              		.loc 1 284 6 discriminator 4 view .LVU425
 1388 000c 3378     		ldrb	r3, [r6]	@ zero_extendqisi2
 1389 000e 93B1     		cbz	r3, .L98
 1390              		.loc 1 285 5 is_stmt 1 view .LVU426
 1391              		.loc 1 285 8 is_stmt 0 view .LVU427
 1392 0010 6A07     		lsls	r2, r5, #29
 1393 0012 03D5     		bpl	.L99
 1394              		.loc 1 287 7 is_stmt 1 view .LVU428
 1395 0014 7368     		ldr	r3, [r6, #4]
 1396 0016 6BB1     		cbz	r3, .L95
 1397              		.loc 1 287 7 discriminator 1 view .LVU429
 1398 0018 2046     		mov	r0, r4
 1399 001a 9847     		blx	r3
 1400              	.LVL69:
 1401              	.L99:
 1402              		.loc 1 287 32 discriminator 3 view .LVU430
 1403              		.loc 1 289 5 discriminator 3 view .LVU431
 1404              		.loc 1 289 8 is_stmt 0 discriminator 3 view .LVU432
 1405 001c AB07     		lsls	r3, r5, #30
 1406 001e 09D5     		bpl	.L95
 1407              		.loc 1 291 7 is_stmt 1 view .LVU433
 1408 0020 6368     		ldr	r3, [r4, #4]
 1409 0022 5B68     		ldr	r3, [r3, #4]
 1410 0024 33B1     		cbz	r3, .L95
 1411              		.loc 1 291 7 discriminator 1 view .LVU434
 1412 0026 0422     		movs	r2, #4
 1413 0028 2046     		mov	r0, r4
 1414 002a 2270     		strb	r2, [r4]
 1415              		.loc 1 291 7 discriminator 1 view .LVU435
 1416 002c 9847     		blx	r3
 1417              	.LVL70:
 1418              		.loc 1 291 7 discriminator 1 view .LVU436
 1419 002e 2378     		ldrb	r3, [r4]	@ zero_extendqisi2
 1420 0030 042B     		cmp	r3, #4
 1421 0032 30D0     		beq	.L127
 1422              	.L95:
 1423              		.loc 1 301 1 is_stmt 0 view .LVU437
ARM GAS  C:\Users\DEVELO~1\AppData\Local\Temp\ccJK6Gr9.s 			page 26


 1424 0034 70BD     		pop	{r4, r5, r6, pc}
 1425              	.LVL71:
 1426              	.L98:
 1427              		.loc 1 296 5 is_stmt 1 view .LVU438
 1428              		.loc 1 296 12 is_stmt 0 view .LVU439
 1429 0036 2046     		mov	r0, r4
 1430 0038 FFF7FEFF 		bl	spi_lld_stop_nicely
 1431              	.LVL72:
 1432              		.loc 1 299 5 is_stmt 1 view .LVU440
 1433 003c 7368     		ldr	r3, [r6, #4]
 1434 003e 6BB3     		cbz	r3, .L102
 1435              		.loc 1 299 5 discriminator 1 view .LVU441
 1436 0040 0422     		movs	r2, #4
 1437 0042 2046     		mov	r0, r4
 1438 0044 2270     		strb	r2, [r4]
 1439              		.loc 1 299 5 discriminator 1 view .LVU442
 1440 0046 9847     		blx	r3
 1441              	.LVL73:
 1442              		.loc 1 299 5 discriminator 1 view .LVU443
 1443 0048 2378     		ldrb	r3, [r4]	@ zero_extendqisi2
 1444 004a 042B     		cmp	r3, #4
 1445 004c 26D0     		beq	.L102
 1446              	.L103:
 1447              		.loc 1 299 5 discriminator 4 view .LVU444
 1448              	.LBB399:
 1449              	.LBI399:
 1450              		.loc 3 595 20 discriminator 4 view .LVU445
 1451              		.loc 3 597 3 discriminator 4 view .LVU446
 1452              	.LBB400:
 1453              	.LBI400:
 1454              		.loc 4 416 20 discriminator 4 view .LVU447
 1455              		.loc 4 418 3 discriminator 4 view .LVU448
 1456              	.LBB401:
 1457              	.LBI401:
 1458              		.loc 5 879 27 discriminator 4 view .LVU449
 1459              		.loc 5 881 3 discriminator 4 view .LVU450
 1460              	.LBB402:
 1461              	.LBI402:
 1462              		.loc 5 840 27 discriminator 4 view .LVU451
 1463              		.loc 5 848 3 discriminator 4 view .LVU452
 1464              	.LVL74:
 1465              	.LBB403:
 1466              	.LBI403:
 1467              		.loc 6 491 27 discriminator 4 view .LVU453
 1468              	.LBB404:
 1469              		.loc 6 493 3 discriminator 4 view .LVU454
 1470 004e 3023     		movs	r3, #48
 1471              		.syntax unified
 1472              	@ 493 "../../../os/common/ext/ARM/CMSIS/Core/Include/cmsis_gcc.h" 1
 1473 0050 83F31188 		MSR basepri, r3
 1474              	@ 0 "" 2
 1475              	.LVL75:
 1476              		.loc 6 493 3 is_stmt 0 discriminator 4 view .LVU455
 1477              		.thumb
 1478              		.syntax unified
 1479              	.LBE404:
 1480              	.LBE403:
ARM GAS  C:\Users\DEVELO~1\AppData\Local\Temp\ccJK6Gr9.s 			page 27


 1481              	.LBE402:
 1482              	.LBE401:
 1483              		.loc 4 419 35 is_stmt 1 discriminator 4 view .LVU456
 1484              		.loc 4 420 30 discriminator 4 view .LVU457
 1485              	.LBE400:
 1486              	.LBE399:
 1487              		.loc 1 299 5 discriminator 4 view .LVU458
 1488              	.LBB405:
 1489              	.LBI405:
 1490              		.loc 3 837 20 discriminator 4 view .LVU459
 1491              	.LBB406:
 1492              		.loc 3 839 3 discriminator 4 view .LVU460
 1493 0054 0021     		movs	r1, #0
 1494 0056 04F10800 		add	r0, r4, #8
 1495              	.LVL76:
 1496              		.loc 3 839 3 is_stmt 0 discriminator 4 view .LVU461
 1497 005a FFF7FEFF 		bl	chThdResumeI
 1498              	.LVL77:
 1499              		.loc 3 839 3 discriminator 4 view .LVU462
 1500              	.LBE406:
 1501              	.LBE405:
 1502              		.loc 1 299 5 is_stmt 1 discriminator 4 view .LVU463
 1503              	.LBB407:
 1504              	.LBI407:
 1505              		.loc 3 606 20 discriminator 4 view .LVU464
 1506              	.LBB408:
 1507              		.loc 3 608 3 discriminator 4 view .LVU465
 1508              	.LBB409:
 1509              	.LBI409:
 1510              		.loc 4 438 20 discriminator 4 view .LVU466
 1511              		.loc 4 440 32 discriminator 4 view .LVU467
 1512              		.loc 4 441 34 discriminator 4 view .LVU468
 1513              		.loc 4 442 3 discriminator 4 view .LVU469
 1514              	.LBB410:
 1515              	.LBI410:
 1516              		.loc 5 890 27 discriminator 4 view .LVU470
 1517              		.loc 5 892 3 discriminator 4 view .LVU471
 1518              	.LBB411:
 1519              	.LBI411:
 1520              		.loc 5 864 27 discriminator 4 view .LVU472
 1521              		.loc 5 867 3 discriminator 4 view .LVU473
 1522              	.LBB412:
 1523              	.LBI412:
 1524              		.loc 6 491 27 discriminator 4 view .LVU474
 1525              	.LBB413:
 1526              		.loc 6 493 3 discriminator 4 view .LVU475
 1527 005e 0023     		movs	r3, #0
 1528              		.syntax unified
 1529              	@ 493 "../../../os/common/ext/ARM/CMSIS/Core/Include/cmsis_gcc.h" 1
 1530 0060 83F31188 		MSR basepri, r3
 1531              	@ 0 "" 2
 1532              	.LVL78:
 1533              		.loc 6 493 3 is_stmt 0 discriminator 4 view .LVU476
 1534              		.thumb
 1535              		.syntax unified
 1536              	.LBE413:
 1537              	.LBE412:
ARM GAS  C:\Users\DEVELO~1\AppData\Local\Temp\ccJK6Gr9.s 			page 28


 1538              	.LBE411:
 1539              	.LBE410:
 1540              	.LBE409:
 1541              	.LBE408:
 1542              	.LBE407:
 1543              		.loc 1 299 5 is_stmt 1 discriminator 4 view .LVU477
 1544              		.loc 1 299 34 discriminator 4 view .LVU478
 1545              		.loc 1 301 1 is_stmt 0 discriminator 4 view .LVU479
 1546 0064 70BD     		pop	{r4, r5, r6, pc}
 1547              	.LVL79:
 1548              	.L126:
 1549              		.loc 1 274 5 is_stmt 1 view .LVU480
 1550              	.LBB414:
 1551              	.LBI414:
 1552              		.loc 3 542 20 view .LVU481
 1553              	.LBB415:
 1554              		.loc 3 544 3 view .LVU482
 1555 0066 0F48     		ldr	r0, .L128
 1556              	.LVL80:
 1557              		.loc 3 544 3 is_stmt 0 view .LVU483
 1558 0068 FFF7FEFF 		bl	chSysHalt
 1559              	.LVL81:
 1560              		.loc 3 544 3 view .LVU484
 1561              	.LBE415:
 1562              	.LBE414:
 1563              		.loc 1 278 5 is_stmt 1 view .LVU485
 1564 006c 2046     		mov	r0, r4
 1565 006e FFF7FEFF 		bl	spi_lld_stop_abort
 1566              	.LVL82:
 1567              		.loc 1 281 5 view .LVU486
 1568 0072 6368     		ldr	r3, [r4, #4]
 1569 0074 9B68     		ldr	r3, [r3, #8]
 1570 0076 0BB1     		cbz	r3, .L97
 1571              		.loc 1 281 5 discriminator 1 view .LVU487
 1572 0078 2046     		mov	r0, r4
 1573 007a 9847     		blx	r3
 1574              	.LVL83:
 1575              	.L97:
 1576              		.loc 1 281 5 discriminator 3 view .LVU488
 1577              	.LBB416:
 1578              	.LBI416:
 1579              		.loc 3 595 20 discriminator 3 view .LVU489
 1580              		.loc 3 597 3 discriminator 3 view .LVU490
 1581              	.LBB417:
 1582              	.LBI417:
 1583              		.loc 4 416 20 discriminator 3 view .LVU491
 1584              		.loc 4 418 3 discriminator 3 view .LVU492
 1585              	.LBB418:
 1586              	.LBI418:
 1587              		.loc 5 879 27 discriminator 3 view .LVU493
 1588              		.loc 5 881 3 discriminator 3 view .LVU494
 1589              	.LBB419:
 1590              	.LBI419:
 1591              		.loc 5 840 27 discriminator 3 view .LVU495
 1592              		.loc 5 848 3 discriminator 3 view .LVU496
 1593              	.LBB420:
 1594              	.LBI420:
ARM GAS  C:\Users\DEVELO~1\AppData\Local\Temp\ccJK6Gr9.s 			page 29


 1595              		.loc 6 491 27 discriminator 3 view .LVU497
 1596              	.LBB421:
 1597              		.loc 6 493 3 discriminator 3 view .LVU498
 1598 007c 3023     		movs	r3, #48
 1599              		.syntax unified
 1600              	@ 493 "../../../os/common/ext/ARM/CMSIS/Core/Include/cmsis_gcc.h" 1
 1601 007e 83F31188 		MSR basepri, r3
 1602              	@ 0 "" 2
 1603              	.LVL84:
 1604              		.loc 6 493 3 is_stmt 0 discriminator 3 view .LVU499
 1605              		.thumb
 1606              		.syntax unified
 1607              	.LBE421:
 1608              	.LBE420:
 1609              	.LBE419:
 1610              	.LBE418:
 1611              		.loc 4 419 35 is_stmt 1 discriminator 3 view .LVU500
 1612              		.loc 4 420 30 discriminator 3 view .LVU501
 1613              	.LBE417:
 1614              	.LBE416:
 1615              		.loc 1 281 5 discriminator 3 view .LVU502
 1616              	.LBB422:
 1617              	.LBI422:
 1618              		.loc 3 837 20 discriminator 3 view .LVU503
 1619              	.LBB423:
 1620              		.loc 3 839 3 discriminator 3 view .LVU504
 1621 0082 6FF01201 		mvn	r1, #18
 1622 0086 04F10800 		add	r0, r4, #8
 1623              	.LVL85:
 1624              		.loc 3 839 3 is_stmt 0 discriminator 3 view .LVU505
 1625 008a FFF7FEFF 		bl	chThdResumeI
 1626              	.LVL86:
 1627              		.loc 3 839 3 discriminator 3 view .LVU506
 1628              	.LBE423:
 1629              	.LBE422:
 1630              		.loc 1 281 5 is_stmt 1 discriminator 3 view .LVU507
 1631              	.LBB424:
 1632              	.LBI424:
 1633              		.loc 3 606 20 discriminator 3 view .LVU508
 1634              	.LBB425:
 1635              		.loc 3 608 3 discriminator 3 view .LVU509
 1636              	.LBB426:
 1637              	.LBI426:
 1638              		.loc 4 438 20 discriminator 3 view .LVU510
 1639              		.loc 4 440 32 discriminator 3 view .LVU511
 1640              		.loc 4 441 34 discriminator 3 view .LVU512
 1641              		.loc 4 442 3 discriminator 3 view .LVU513
 1642              	.LBB427:
 1643              	.LBI427:
 1644              		.loc 5 890 27 discriminator 3 view .LVU514
 1645              		.loc 5 892 3 discriminator 3 view .LVU515
 1646              	.LBB428:
 1647              	.LBI428:
 1648              		.loc 5 864 27 discriminator 3 view .LVU516
 1649              		.loc 5 867 3 discriminator 3 view .LVU517
 1650              	.LBB429:
 1651              	.LBI429:
ARM GAS  C:\Users\DEVELO~1\AppData\Local\Temp\ccJK6Gr9.s 			page 30


 1652              		.loc 6 491 27 discriminator 3 view .LVU518
 1653              	.LBB430:
 1654              		.loc 6 493 3 discriminator 3 view .LVU519
 1655 008e 0023     		movs	r3, #0
 1656              		.syntax unified
 1657              	@ 493 "../../../os/common/ext/ARM/CMSIS/Core/Include/cmsis_gcc.h" 1
 1658 0090 83F31188 		MSR basepri, r3
 1659              	@ 0 "" 2
 1660              	.LVL87:
 1661              		.loc 6 493 3 is_stmt 0 discriminator 3 view .LVU520
 1662              		.thumb
 1663              		.syntax unified
 1664              	.LBE430:
 1665              	.LBE429:
 1666              	.LBE428:
 1667              	.LBE427:
 1668              	.LBE426:
 1669              		.loc 3 609 1 discriminator 3 view .LVU521
 1670 0094 B9E7     		b	.L96
 1671              	.L127:
 1672              		.loc 3 609 1 discriminator 3 view .LVU522
 1673              	.LBE425:
 1674              	.LBE424:
 1675              		.loc 1 291 7 is_stmt 1 discriminator 3 view .LVU523
 1676 0096 0323     		movs	r3, #3
 1677 0098 2370     		strb	r3, [r4]
 1678              		.loc 1 301 1 is_stmt 0 discriminator 3 view .LVU524
 1679 009a 70BD     		pop	{r4, r5, r6, pc}
 1680              	.LVL88:
 1681              	.L102:
 1682              		.loc 1 299 5 is_stmt 1 discriminator 3 view .LVU525
 1683 009c 0223     		movs	r3, #2
 1684 009e 2370     		strb	r3, [r4]
 1685 00a0 D5E7     		b	.L103
 1686              	.L129:
 1687 00a2 00BF     		.align	2
 1688              	.L128:
 1689 00a4 00000000 		.word	.LC0
 1690              		.cfi_endproc
 1691              	.LFE453:
 1692              		.size	spi_lld_serve_bdma_rx_interrupt, .-spi_lld_serve_bdma_rx_interrupt
 1693              		.section	.text.VectorCC,"ax",%progbits
 1694              		.align	1
 1695              		.p2align 2,,3
 1696              		.global	VectorCC
 1697              		.syntax unified
 1698              		.thumb
 1699              		.thumb_func
 1700              		.type	VectorCC, %function
 1701              	VectorCC:
 1702              	.LFB460:
 1703              		.loc 1 489 38 view -0
 1704              		.cfi_startproc
 1705              		@ args = 0, pretend = 0, frame = 0
 1706              		@ frame_needed = 0, uses_anonymous_args = 0
 1707              		.loc 1 491 3 view .LVU527
 1708              		.loc 1 491 3 view .LVU528
ARM GAS  C:\Users\DEVELO~1\AppData\Local\Temp\ccJK6Gr9.s 			page 31


 1709              		.loc 1 491 3 view .LVU529
 1710              		.loc 1 491 3 view .LVU530
 1711              		.loc 1 491 3 view .LVU531
 1712              		.loc 1 489 38 is_stmt 0 view .LVU532
 1713 0000 10B5     		push	{r4, lr}
 1714              		.cfi_def_cfa_offset 8
 1715              		.cfi_offset 4, -8
 1716              		.cfi_offset 14, -4
 1717              	.LBB450:
 1718              	.LBB451:
 1719              		.loc 1 398 12 view .LVU533
 1720 0002 164C     		ldr	r4, .L141
 1721              	.LBE451:
 1722              	.LBE450:
 1723              		.loc 1 491 3 view .LVU534
 1724 0004 1648     		ldr	r0, .L141+4
 1725 0006 FFF7FEFF 		bl	__trace_isr_enter
 1726              	.LVL89:
 1727              		.loc 1 491 22 is_stmt 1 view .LVU535
 1728              		.loc 1 493 3 view .LVU536
 1729              	.LBB470:
 1730              	.LBI450:
 1731              		.loc 1 395 13 view .LVU537
 1732              	.LBB468:
 1733              		.loc 1 396 3 view .LVU538
 1734              		.loc 1 398 3 view .LVU539
 1735              		.loc 1 398 12 is_stmt 0 view .LVU540
 1736 000a E269     		ldr	r2, [r4, #28]
 1737              		.loc 1 398 17 view .LVU541
 1738 000c 5369     		ldr	r3, [r2, #20]
 1739              		.loc 1 398 33 view .LVU542
 1740 000e 1169     		ldr	r1, [r2, #16]
 1741              		.loc 1 398 6 view .LVU543
 1742 0010 0B40     		ands	r3, r3, r1
 1743              	.LVL90:
 1744              		.loc 1 399 3 is_stmt 1 view .LVU544
 1745              		.loc 1 399 19 is_stmt 0 view .LVU545
 1746 0012 9361     		str	r3, [r2, #24]
 1747              		.loc 1 401 3 is_stmt 1 view .LVU546
 1748              		.loc 1 401 6 is_stmt 0 view .LVU547
 1749 0014 5B06     		lsls	r3, r3, #25
 1750              	.LVL91:
 1751              		.loc 1 401 6 view .LVU548
 1752 0016 06D4     		bmi	.L140
 1753              		.loc 1 407 5 is_stmt 1 view .LVU549
 1754              		.loc 1 407 51 view .LVU550
 1755              	.LVL92:
 1756              		.loc 1 407 51 is_stmt 0 view .LVU551
 1757              	.LBE468:
 1758              	.LBE470:
 1759              		.loc 1 495 3 is_stmt 1 view .LVU552
 1760              		.loc 1 495 3 view .LVU553
 1761 0018 1148     		ldr	r0, .L141+4
 1762 001a FFF7FEFF 		bl	__trace_isr_leave
 1763              	.LVL93:
 1764              		.loc 1 495 3 view .LVU554
 1765              		.loc 1 495 3 view .LVU555
ARM GAS  C:\Users\DEVELO~1\AppData\Local\Temp\ccJK6Gr9.s 			page 32


 1766              		.loc 1 495 3 view .LVU556
 1767              		.loc 1 496 1 is_stmt 0 view .LVU557
 1768 001e BDE81040 		pop	{r4, lr}
 1769              		.cfi_remember_state
 1770              		.cfi_restore 14
 1771              		.cfi_restore 4
 1772              		.cfi_def_cfa_offset 0
 1773              		.loc 1 495 3 view .LVU558
 1774 0022 FFF7FEBF 		b	__port_irq_epilogue
 1775              	.LVL94:
 1776              	.L140:
 1777              		.cfi_restore_state
 1778              	.LBB471:
 1779              	.LBB469:
 1780              	.LBB452:
 1781              	.LBI452:
 1782              		.loc 1 395 13 is_stmt 1 view .LVU559
 1783              	.LBB453:
 1784              		.loc 1 404 5 view .LVU560
 1785 0026 2046     		mov	r0, r4
 1786 0028 FFF7FEFF 		bl	spi_lld_stop_abort
 1787              	.LVL95:
 1788              		.loc 1 407 5 view .LVU561
 1789 002c 6368     		ldr	r3, [r4, #4]
 1790 002e 9B68     		ldr	r3, [r3, #8]
 1791 0030 0BB1     		cbz	r3, .L132
 1792              		.loc 1 407 5 view .LVU562
 1793 0032 2046     		mov	r0, r4
 1794 0034 9847     		blx	r3
 1795              	.LVL96:
 1796              	.L132:
 1797              		.loc 1 407 5 view .LVU563
 1798              	.LBB454:
 1799              	.LBI454:
 1800              		.loc 3 595 20 view .LVU564
 1801              		.loc 3 597 3 view .LVU565
 1802              	.LBB455:
 1803              	.LBI455:
 1804              		.loc 4 416 20 view .LVU566
 1805              		.loc 4 418 3 view .LVU567
 1806              	.LBB456:
 1807              	.LBI456:
 1808              		.loc 5 879 27 view .LVU568
 1809              		.loc 5 881 3 view .LVU569
 1810              	.LBB457:
 1811              	.LBI457:
 1812              		.loc 5 840 27 view .LVU570
 1813              		.loc 5 848 3 view .LVU571
 1814              	.LBB458:
 1815              	.LBI458:
 1816              		.loc 6 491 27 view .LVU572
 1817              	.LBB459:
 1818              		.loc 6 493 3 view .LVU573
 1819 0036 3023     		movs	r3, #48
 1820              		.syntax unified
 1821              	@ 493 "../../../os/common/ext/ARM/CMSIS/Core/Include/cmsis_gcc.h" 1
 1822 0038 83F31188 		MSR basepri, r3
ARM GAS  C:\Users\DEVELO~1\AppData\Local\Temp\ccJK6Gr9.s 			page 33


 1823              	@ 0 "" 2
 1824              	.LVL97:
 1825              		.loc 6 493 3 is_stmt 0 view .LVU574
 1826              		.thumb
 1827              		.syntax unified
 1828              	.LBE459:
 1829              	.LBE458:
 1830              	.LBE457:
 1831              	.LBE456:
 1832              		.loc 4 419 35 is_stmt 1 view .LVU575
 1833              		.loc 4 420 30 view .LVU576
 1834              	.LBE455:
 1835              	.LBE454:
 1836              		.loc 1 407 5 view .LVU577
 1837              	.LBB460:
 1838              	.LBI460:
 1839              		.loc 3 837 20 view .LVU578
 1840              	.LBB461:
 1841              		.loc 3 839 3 view .LVU579
 1842 003c 6FF01201 		mvn	r1, #18
 1843 0040 0848     		ldr	r0, .L141+8
 1844 0042 FFF7FEFF 		bl	chThdResumeI
 1845              	.LVL98:
 1846              		.loc 3 839 3 is_stmt 0 view .LVU580
 1847              	.LBE461:
 1848              	.LBE460:
 1849              		.loc 1 407 5 is_stmt 1 view .LVU581
 1850              	.LBB462:
 1851              	.LBI462:
 1852              		.loc 3 606 20 view .LVU582
 1853              		.loc 3 608 3 view .LVU583
 1854              	.LBB463:
 1855              	.LBI463:
 1856              		.loc 4 438 20 view .LVU584
 1857              		.loc 4 440 32 view .LVU585
 1858              		.loc 4 441 34 view .LVU586
 1859              		.loc 4 442 3 view .LVU587
 1860              	.LBB464:
 1861              	.LBI464:
 1862              		.loc 5 890 27 view .LVU588
 1863              		.loc 5 892 3 view .LVU589
 1864              	.LBB465:
 1865              	.LBI465:
 1866              		.loc 5 864 27 view .LVU590
 1867              		.loc 5 867 3 view .LVU591
 1868              	.LBB466:
 1869              	.LBI466:
 1870              		.loc 6 491 27 view .LVU592
 1871              	.LBB467:
 1872              		.loc 6 493 3 view .LVU593
 1873 0046 0023     		movs	r3, #0
 1874              		.syntax unified
 1875              	@ 493 "../../../os/common/ext/ARM/CMSIS/Core/Include/cmsis_gcc.h" 1
 1876 0048 83F31188 		MSR basepri, r3
 1877              	@ 0 "" 2
 1878              	.LVL99:
 1879              		.loc 6 493 3 is_stmt 0 view .LVU594
ARM GAS  C:\Users\DEVELO~1\AppData\Local\Temp\ccJK6Gr9.s 			page 34


 1880              		.thumb
 1881              		.syntax unified
 1882              	.LBE467:
 1883              	.LBE466:
 1884              	.LBE465:
 1885              	.LBE464:
 1886              	.LBE463:
 1887              	.LBE462:
 1888              		.loc 1 407 5 is_stmt 1 view .LVU595
 1889              		.loc 1 407 51 view .LVU596
 1890              		.loc 1 407 51 is_stmt 0 view .LVU597
 1891              	.LBE453:
 1892              	.LBE452:
 1893              		.loc 1 407 5 is_stmt 1 view .LVU598
 1894              		.loc 1 407 51 view .LVU599
 1895              		.loc 1 407 51 is_stmt 0 view .LVU600
 1896              	.LBE469:
 1897              	.LBE471:
 1898              		.loc 1 495 3 is_stmt 1 view .LVU601
 1899              		.loc 1 495 3 view .LVU602
 1900 004c 0448     		ldr	r0, .L141+4
 1901 004e FFF7FEFF 		bl	__trace_isr_leave
 1902              	.LVL100:
 1903              		.loc 1 495 3 view .LVU603
 1904              		.loc 1 495 3 view .LVU604
 1905              		.loc 1 495 3 view .LVU605
 1906              		.loc 1 496 1 is_stmt 0 view .LVU606
 1907 0052 BDE81040 		pop	{r4, lr}
 1908              		.cfi_restore 14
 1909              		.cfi_restore 4
 1910              		.cfi_def_cfa_offset 0
 1911              		.loc 1 495 3 view .LVU607
 1912 0056 FFF7FEBF 		b	__port_irq_epilogue
 1913              	.LVL101:
 1914              	.L142:
 1915 005a 00BF     		.align	2
 1916              	.L141:
 1917 005c 00000000 		.word	.LANCHOR0
 1918 0060 00000000 		.word	.LANCHOR6
 1919 0064 08000000 		.word	.LANCHOR0+8
 1920              		.cfi_endproc
 1921              	.LFE460:
 1922              		.size	VectorCC, .-VectorCC
 1923              		.section	.text.VectorD0,"ax",%progbits
 1924              		.align	1
 1925              		.p2align 2,,3
 1926              		.global	VectorD0
 1927              		.syntax unified
 1928              		.thumb
 1929              		.thumb_func
 1930              		.type	VectorD0, %function
 1931              	VectorD0:
 1932              	.LFB461:
 1933              		.loc 1 510 38 is_stmt 1 view -0
 1934              		.cfi_startproc
 1935              		@ args = 0, pretend = 0, frame = 0
 1936              		@ frame_needed = 0, uses_anonymous_args = 0
ARM GAS  C:\Users\DEVELO~1\AppData\Local\Temp\ccJK6Gr9.s 			page 35


 1937              		.loc 1 512 3 view .LVU609
 1938              		.loc 1 512 3 view .LVU610
 1939              		.loc 1 512 3 view .LVU611
 1940              		.loc 1 512 3 view .LVU612
 1941              		.loc 1 512 3 view .LVU613
 1942              		.loc 1 510 38 is_stmt 0 view .LVU614
 1943 0000 10B5     		push	{r4, lr}
 1944              		.cfi_def_cfa_offset 8
 1945              		.cfi_offset 4, -8
 1946              		.cfi_offset 14, -4
 1947              	.LBB491:
 1948              	.LBB492:
 1949              		.loc 1 398 12 view .LVU615
 1950 0002 164C     		ldr	r4, .L154
 1951              	.LBE492:
 1952              	.LBE491:
 1953              		.loc 1 512 3 view .LVU616
 1954 0004 1648     		ldr	r0, .L154+4
 1955 0006 FFF7FEFF 		bl	__trace_isr_enter
 1956              	.LVL102:
 1957              		.loc 1 512 22 is_stmt 1 view .LVU617
 1958              		.loc 1 514 3 view .LVU618
 1959              	.LBB511:
 1960              	.LBI491:
 1961              		.loc 1 395 13 view .LVU619
 1962              	.LBB509:
 1963              		.loc 1 396 3 view .LVU620
 1964              		.loc 1 398 3 view .LVU621
 1965              		.loc 1 398 12 is_stmt 0 view .LVU622
 1966 000a E269     		ldr	r2, [r4, #28]
 1967              		.loc 1 398 17 view .LVU623
 1968 000c 5369     		ldr	r3, [r2, #20]
 1969              		.loc 1 398 33 view .LVU624
 1970 000e 1169     		ldr	r1, [r2, #16]
 1971              		.loc 1 398 6 view .LVU625
 1972 0010 0B40     		ands	r3, r3, r1
 1973              	.LVL103:
 1974              		.loc 1 399 3 is_stmt 1 view .LVU626
 1975              		.loc 1 399 19 is_stmt 0 view .LVU627
 1976 0012 9361     		str	r3, [r2, #24]
 1977              		.loc 1 401 3 is_stmt 1 view .LVU628
 1978              		.loc 1 401 6 is_stmt 0 view .LVU629
 1979 0014 5B06     		lsls	r3, r3, #25
 1980              	.LVL104:
 1981              		.loc 1 401 6 view .LVU630
 1982 0016 06D4     		bmi	.L153
 1983              		.loc 1 407 5 is_stmt 1 view .LVU631
 1984              		.loc 1 407 51 view .LVU632
 1985              	.LVL105:
 1986              		.loc 1 407 51 is_stmt 0 view .LVU633
 1987              	.LBE509:
 1988              	.LBE511:
 1989              		.loc 1 516 3 is_stmt 1 view .LVU634
 1990              		.loc 1 516 3 view .LVU635
 1991 0018 1148     		ldr	r0, .L154+4
 1992 001a FFF7FEFF 		bl	__trace_isr_leave
 1993              	.LVL106:
ARM GAS  C:\Users\DEVELO~1\AppData\Local\Temp\ccJK6Gr9.s 			page 36


 1994              		.loc 1 516 3 view .LVU636
 1995              		.loc 1 516 3 view .LVU637
 1996              		.loc 1 516 3 view .LVU638
 1997              		.loc 1 517 1 is_stmt 0 view .LVU639
 1998 001e BDE81040 		pop	{r4, lr}
 1999              		.cfi_remember_state
 2000              		.cfi_restore 14
 2001              		.cfi_restore 4
 2002              		.cfi_def_cfa_offset 0
 2003              		.loc 1 516 3 view .LVU640
 2004 0022 FFF7FEBF 		b	__port_irq_epilogue
 2005              	.LVL107:
 2006              	.L153:
 2007              		.cfi_restore_state
 2008              	.LBB512:
 2009              	.LBB510:
 2010              	.LBB493:
 2011              	.LBI493:
 2012              		.loc 1 395 13 is_stmt 1 view .LVU641
 2013              	.LBB494:
 2014              		.loc 1 404 5 view .LVU642
 2015 0026 2046     		mov	r0, r4
 2016 0028 FFF7FEFF 		bl	spi_lld_stop_abort
 2017              	.LVL108:
 2018              		.loc 1 407 5 view .LVU643
 2019 002c 6368     		ldr	r3, [r4, #4]
 2020 002e 9B68     		ldr	r3, [r3, #8]
 2021 0030 0BB1     		cbz	r3, .L145
 2022              		.loc 1 407 5 view .LVU644
 2023 0032 2046     		mov	r0, r4
 2024 0034 9847     		blx	r3
 2025              	.LVL109:
 2026              	.L145:
 2027              		.loc 1 407 5 view .LVU645
 2028              	.LBB495:
 2029              	.LBI495:
 2030              		.loc 3 595 20 view .LVU646
 2031              		.loc 3 597 3 view .LVU647
 2032              	.LBB496:
 2033              	.LBI496:
 2034              		.loc 4 416 20 view .LVU648
 2035              		.loc 4 418 3 view .LVU649
 2036              	.LBB497:
 2037              	.LBI497:
 2038              		.loc 5 879 27 view .LVU650
 2039              		.loc 5 881 3 view .LVU651
 2040              	.LBB498:
 2041              	.LBI498:
 2042              		.loc 5 840 27 view .LVU652
 2043              		.loc 5 848 3 view .LVU653
 2044              	.LBB499:
 2045              	.LBI499:
 2046              		.loc 6 491 27 view .LVU654
 2047              	.LBB500:
 2048              		.loc 6 493 3 view .LVU655
 2049 0036 3023     		movs	r3, #48
 2050              		.syntax unified
ARM GAS  C:\Users\DEVELO~1\AppData\Local\Temp\ccJK6Gr9.s 			page 37


 2051              	@ 493 "../../../os/common/ext/ARM/CMSIS/Core/Include/cmsis_gcc.h" 1
 2052 0038 83F31188 		MSR basepri, r3
 2053              	@ 0 "" 2
 2054              	.LVL110:
 2055              		.loc 6 493 3 is_stmt 0 view .LVU656
 2056              		.thumb
 2057              		.syntax unified
 2058              	.LBE500:
 2059              	.LBE499:
 2060              	.LBE498:
 2061              	.LBE497:
 2062              		.loc 4 419 35 is_stmt 1 view .LVU657
 2063              		.loc 4 420 30 view .LVU658
 2064              	.LBE496:
 2065              	.LBE495:
 2066              		.loc 1 407 5 view .LVU659
 2067              	.LBB501:
 2068              	.LBI501:
 2069              		.loc 3 837 20 view .LVU660
 2070              	.LBB502:
 2071              		.loc 3 839 3 view .LVU661
 2072 003c 6FF01201 		mvn	r1, #18
 2073 0040 0848     		ldr	r0, .L154+8
 2074 0042 FFF7FEFF 		bl	chThdResumeI
 2075              	.LVL111:
 2076              		.loc 3 839 3 is_stmt 0 view .LVU662
 2077              	.LBE502:
 2078              	.LBE501:
 2079              		.loc 1 407 5 is_stmt 1 view .LVU663
 2080              	.LBB503:
 2081              	.LBI503:
 2082              		.loc 3 606 20 view .LVU664
 2083              		.loc 3 608 3 view .LVU665
 2084              	.LBB504:
 2085              	.LBI504:
 2086              		.loc 4 438 20 view .LVU666
 2087              		.loc 4 440 32 view .LVU667
 2088              		.loc 4 441 34 view .LVU668
 2089              		.loc 4 442 3 view .LVU669
 2090              	.LBB505:
 2091              	.LBI505:
 2092              		.loc 5 890 27 view .LVU670
 2093              		.loc 5 892 3 view .LVU671
 2094              	.LBB506:
 2095              	.LBI506:
 2096              		.loc 5 864 27 view .LVU672
 2097              		.loc 5 867 3 view .LVU673
 2098              	.LBB507:
 2099              	.LBI507:
 2100              		.loc 6 491 27 view .LVU674
 2101              	.LBB508:
 2102              		.loc 6 493 3 view .LVU675
 2103 0046 0023     		movs	r3, #0
 2104              		.syntax unified
 2105              	@ 493 "../../../os/common/ext/ARM/CMSIS/Core/Include/cmsis_gcc.h" 1
 2106 0048 83F31188 		MSR basepri, r3
 2107              	@ 0 "" 2
ARM GAS  C:\Users\DEVELO~1\AppData\Local\Temp\ccJK6Gr9.s 			page 38


 2108              	.LVL112:
 2109              		.loc 6 493 3 is_stmt 0 view .LVU676
 2110              		.thumb
 2111              		.syntax unified
 2112              	.LBE508:
 2113              	.LBE507:
 2114              	.LBE506:
 2115              	.LBE505:
 2116              	.LBE504:
 2117              	.LBE503:
 2118              		.loc 1 407 5 is_stmt 1 view .LVU677
 2119              		.loc 1 407 51 view .LVU678
 2120              		.loc 1 407 51 is_stmt 0 view .LVU679
 2121              	.LBE494:
 2122              	.LBE493:
 2123              		.loc 1 407 5 is_stmt 1 view .LVU680
 2124              		.loc 1 407 51 view .LVU681
 2125              		.loc 1 407 51 is_stmt 0 view .LVU682
 2126              	.LBE510:
 2127              	.LBE512:
 2128              		.loc 1 516 3 is_stmt 1 view .LVU683
 2129              		.loc 1 516 3 view .LVU684
 2130 004c 0448     		ldr	r0, .L154+4
 2131 004e FFF7FEFF 		bl	__trace_isr_leave
 2132              	.LVL113:
 2133              		.loc 1 516 3 view .LVU685
 2134              		.loc 1 516 3 view .LVU686
 2135              		.loc 1 516 3 view .LVU687
 2136              		.loc 1 517 1 is_stmt 0 view .LVU688
 2137 0052 BDE81040 		pop	{r4, lr}
 2138              		.cfi_restore 14
 2139              		.cfi_restore 4
 2140              		.cfi_def_cfa_offset 0
 2141              		.loc 1 516 3 view .LVU689
 2142 0056 FFF7FEBF 		b	__port_irq_epilogue
 2143              	.LVL114:
 2144              	.L155:
 2145 005a 00BF     		.align	2
 2146              	.L154:
 2147 005c 00000000 		.word	.LANCHOR1
 2148 0060 00000000 		.word	.LANCHOR7
 2149 0064 08000000 		.word	.LANCHOR1+8
 2150              		.cfi_endproc
 2151              	.LFE461:
 2152              		.size	VectorD0, .-VectorD0
 2153              		.section	.text.Vector10C,"ax",%progbits
 2154              		.align	1
 2155              		.p2align 2,,3
 2156              		.global	Vector10C
 2157              		.syntax unified
 2158              		.thumb
 2159              		.thumb_func
 2160              		.type	Vector10C, %function
 2161              	Vector10C:
 2162              	.LFB462:
 2163              		.loc 1 531 38 is_stmt 1 view -0
 2164              		.cfi_startproc
ARM GAS  C:\Users\DEVELO~1\AppData\Local\Temp\ccJK6Gr9.s 			page 39


 2165              		@ args = 0, pretend = 0, frame = 0
 2166              		@ frame_needed = 0, uses_anonymous_args = 0
 2167              		.loc 1 533 3 view .LVU691
 2168              		.loc 1 533 3 view .LVU692
 2169              		.loc 1 533 3 view .LVU693
 2170              		.loc 1 533 3 view .LVU694
 2171              		.loc 1 533 3 view .LVU695
 2172              		.loc 1 531 38 is_stmt 0 view .LVU696
 2173 0000 10B5     		push	{r4, lr}
 2174              		.cfi_def_cfa_offset 8
 2175              		.cfi_offset 4, -8
 2176              		.cfi_offset 14, -4
 2177              	.LBB532:
 2178              	.LBB533:
 2179              		.loc 1 398 12 view .LVU697
 2180 0002 164C     		ldr	r4, .L167
 2181              	.LBE533:
 2182              	.LBE532:
 2183              		.loc 1 533 3 view .LVU698
 2184 0004 1648     		ldr	r0, .L167+4
 2185 0006 FFF7FEFF 		bl	__trace_isr_enter
 2186              	.LVL115:
 2187              		.loc 1 533 22 is_stmt 1 view .LVU699
 2188              		.loc 1 535 3 view .LVU700
 2189              	.LBB552:
 2190              	.LBI532:
 2191              		.loc 1 395 13 view .LVU701
 2192              	.LBB550:
 2193              		.loc 1 396 3 view .LVU702
 2194              		.loc 1 398 3 view .LVU703
 2195              		.loc 1 398 12 is_stmt 0 view .LVU704
 2196 000a E269     		ldr	r2, [r4, #28]
 2197              		.loc 1 398 17 view .LVU705
 2198 000c 5369     		ldr	r3, [r2, #20]
 2199              		.loc 1 398 33 view .LVU706
 2200 000e 1169     		ldr	r1, [r2, #16]
 2201              		.loc 1 398 6 view .LVU707
 2202 0010 0B40     		ands	r3, r3, r1
 2203              	.LVL116:
 2204              		.loc 1 399 3 is_stmt 1 view .LVU708
 2205              		.loc 1 399 19 is_stmt 0 view .LVU709
 2206 0012 9361     		str	r3, [r2, #24]
 2207              		.loc 1 401 3 is_stmt 1 view .LVU710
 2208              		.loc 1 401 6 is_stmt 0 view .LVU711
 2209 0014 5B06     		lsls	r3, r3, #25
 2210              	.LVL117:
 2211              		.loc 1 401 6 view .LVU712
 2212 0016 06D4     		bmi	.L166
 2213              		.loc 1 407 5 is_stmt 1 view .LVU713
 2214              		.loc 1 407 51 view .LVU714
 2215              	.LVL118:
 2216              		.loc 1 407 51 is_stmt 0 view .LVU715
 2217              	.LBE550:
 2218              	.LBE552:
 2219              		.loc 1 537 3 is_stmt 1 view .LVU716
 2220              		.loc 1 537 3 view .LVU717
 2221 0018 1148     		ldr	r0, .L167+4
ARM GAS  C:\Users\DEVELO~1\AppData\Local\Temp\ccJK6Gr9.s 			page 40


 2222 001a FFF7FEFF 		bl	__trace_isr_leave
 2223              	.LVL119:
 2224              		.loc 1 537 3 view .LVU718
 2225              		.loc 1 537 3 view .LVU719
 2226              		.loc 1 537 3 view .LVU720
 2227              		.loc 1 538 1 is_stmt 0 view .LVU721
 2228 001e BDE81040 		pop	{r4, lr}
 2229              		.cfi_remember_state
 2230              		.cfi_restore 14
 2231              		.cfi_restore 4
 2232              		.cfi_def_cfa_offset 0
 2233              		.loc 1 537 3 view .LVU722
 2234 0022 FFF7FEBF 		b	__port_irq_epilogue
 2235              	.LVL120:
 2236              	.L166:
 2237              		.cfi_restore_state
 2238              	.LBB553:
 2239              	.LBB551:
 2240              	.LBB534:
 2241              	.LBI534:
 2242              		.loc 1 395 13 is_stmt 1 view .LVU723
 2243              	.LBB535:
 2244              		.loc 1 404 5 view .LVU724
 2245 0026 2046     		mov	r0, r4
 2246 0028 FFF7FEFF 		bl	spi_lld_stop_abort
 2247              	.LVL121:
 2248              		.loc 1 407 5 view .LVU725
 2249 002c 6368     		ldr	r3, [r4, #4]
 2250 002e 9B68     		ldr	r3, [r3, #8]
 2251 0030 0BB1     		cbz	r3, .L158
 2252              		.loc 1 407 5 view .LVU726
 2253 0032 2046     		mov	r0, r4
 2254 0034 9847     		blx	r3
 2255              	.LVL122:
 2256              	.L158:
 2257              		.loc 1 407 5 view .LVU727
 2258              	.LBB536:
 2259              	.LBI536:
 2260              		.loc 3 595 20 view .LVU728
 2261              		.loc 3 597 3 view .LVU729
 2262              	.LBB537:
 2263              	.LBI537:
 2264              		.loc 4 416 20 view .LVU730
 2265              		.loc 4 418 3 view .LVU731
 2266              	.LBB538:
 2267              	.LBI538:
 2268              		.loc 5 879 27 view .LVU732
 2269              		.loc 5 881 3 view .LVU733
 2270              	.LBB539:
 2271              	.LBI539:
 2272              		.loc 5 840 27 view .LVU734
 2273              		.loc 5 848 3 view .LVU735
 2274              	.LBB540:
 2275              	.LBI540:
 2276              		.loc 6 491 27 view .LVU736
 2277              	.LBB541:
 2278              		.loc 6 493 3 view .LVU737
ARM GAS  C:\Users\DEVELO~1\AppData\Local\Temp\ccJK6Gr9.s 			page 41


 2279 0036 3023     		movs	r3, #48
 2280              		.syntax unified
 2281              	@ 493 "../../../os/common/ext/ARM/CMSIS/Core/Include/cmsis_gcc.h" 1
 2282 0038 83F31188 		MSR basepri, r3
 2283              	@ 0 "" 2
 2284              	.LVL123:
 2285              		.loc 6 493 3 is_stmt 0 view .LVU738
 2286              		.thumb
 2287              		.syntax unified
 2288              	.LBE541:
 2289              	.LBE540:
 2290              	.LBE539:
 2291              	.LBE538:
 2292              		.loc 4 419 35 is_stmt 1 view .LVU739
 2293              		.loc 4 420 30 view .LVU740
 2294              	.LBE537:
 2295              	.LBE536:
 2296              		.loc 1 407 5 view .LVU741
 2297              	.LBB542:
 2298              	.LBI542:
 2299              		.loc 3 837 20 view .LVU742
 2300              	.LBB543:
 2301              		.loc 3 839 3 view .LVU743
 2302 003c 6FF01201 		mvn	r1, #18
 2303 0040 0848     		ldr	r0, .L167+8
 2304 0042 FFF7FEFF 		bl	chThdResumeI
 2305              	.LVL124:
 2306              		.loc 3 839 3 is_stmt 0 view .LVU744
 2307              	.LBE543:
 2308              	.LBE542:
 2309              		.loc 1 407 5 is_stmt 1 view .LVU745
 2310              	.LBB544:
 2311              	.LBI544:
 2312              		.loc 3 606 20 view .LVU746
 2313              		.loc 3 608 3 view .LVU747
 2314              	.LBB545:
 2315              	.LBI545:
 2316              		.loc 4 438 20 view .LVU748
 2317              		.loc 4 440 32 view .LVU749
 2318              		.loc 4 441 34 view .LVU750
 2319              		.loc 4 442 3 view .LVU751
 2320              	.LBB546:
 2321              	.LBI546:
 2322              		.loc 5 890 27 view .LVU752
 2323              		.loc 5 892 3 view .LVU753
 2324              	.LBB547:
 2325              	.LBI547:
 2326              		.loc 5 864 27 view .LVU754
 2327              		.loc 5 867 3 view .LVU755
 2328              	.LBB548:
 2329              	.LBI548:
 2330              		.loc 6 491 27 view .LVU756
 2331              	.LBB549:
 2332              		.loc 6 493 3 view .LVU757
 2333 0046 0023     		movs	r3, #0
 2334              		.syntax unified
 2335              	@ 493 "../../../os/common/ext/ARM/CMSIS/Core/Include/cmsis_gcc.h" 1
ARM GAS  C:\Users\DEVELO~1\AppData\Local\Temp\ccJK6Gr9.s 			page 42


 2336 0048 83F31188 		MSR basepri, r3
 2337              	@ 0 "" 2
 2338              	.LVL125:
 2339              		.loc 6 493 3 is_stmt 0 view .LVU758
 2340              		.thumb
 2341              		.syntax unified
 2342              	.LBE549:
 2343              	.LBE548:
 2344              	.LBE547:
 2345              	.LBE546:
 2346              	.LBE545:
 2347              	.LBE544:
 2348              		.loc 1 407 5 is_stmt 1 view .LVU759
 2349              		.loc 1 407 51 view .LVU760
 2350              		.loc 1 407 51 is_stmt 0 view .LVU761
 2351              	.LBE535:
 2352              	.LBE534:
 2353              		.loc 1 407 5 is_stmt 1 view .LVU762
 2354              		.loc 1 407 51 view .LVU763
 2355              		.loc 1 407 51 is_stmt 0 view .LVU764
 2356              	.LBE551:
 2357              	.LBE553:
 2358              		.loc 1 537 3 is_stmt 1 view .LVU765
 2359              		.loc 1 537 3 view .LVU766
 2360 004c 0448     		ldr	r0, .L167+4
 2361 004e FFF7FEFF 		bl	__trace_isr_leave
 2362              	.LVL126:
 2363              		.loc 1 537 3 view .LVU767
 2364              		.loc 1 537 3 view .LVU768
 2365              		.loc 1 537 3 view .LVU769
 2366              		.loc 1 538 1 is_stmt 0 view .LVU770
 2367 0052 BDE81040 		pop	{r4, lr}
 2368              		.cfi_restore 14
 2369              		.cfi_restore 4
 2370              		.cfi_def_cfa_offset 0
 2371              		.loc 1 537 3 view .LVU771
 2372 0056 FFF7FEBF 		b	__port_irq_epilogue
 2373              	.LVL127:
 2374              	.L168:
 2375 005a 00BF     		.align	2
 2376              	.L167:
 2377 005c 00000000 		.word	.LANCHOR2
 2378 0060 00000000 		.word	.LANCHOR8
 2379 0064 08000000 		.word	.LANCHOR2+8
 2380              		.cfi_endproc
 2381              	.LFE462:
 2382              		.size	Vector10C, .-Vector10C
 2383              		.section	.text.Vector190,"ax",%progbits
 2384              		.align	1
 2385              		.p2align 2,,3
 2386              		.global	Vector190
 2387              		.syntax unified
 2388              		.thumb
 2389              		.thumb_func
 2390              		.type	Vector190, %function
 2391              	Vector190:
 2392              	.LFB463:
ARM GAS  C:\Users\DEVELO~1\AppData\Local\Temp\ccJK6Gr9.s 			page 43


 2393              		.loc 1 552 38 is_stmt 1 view -0
 2394              		.cfi_startproc
 2395              		@ args = 0, pretend = 0, frame = 0
 2396              		@ frame_needed = 0, uses_anonymous_args = 0
 2397              		.loc 1 554 3 view .LVU773
 2398              		.loc 1 554 3 view .LVU774
 2399              		.loc 1 554 3 view .LVU775
 2400              		.loc 1 554 3 view .LVU776
 2401              		.loc 1 554 3 view .LVU777
 2402              		.loc 1 552 38 is_stmt 0 view .LVU778
 2403 0000 10B5     		push	{r4, lr}
 2404              		.cfi_def_cfa_offset 8
 2405              		.cfi_offset 4, -8
 2406              		.cfi_offset 14, -4
 2407              	.LBB573:
 2408              	.LBB574:
 2409              		.loc 1 398 12 view .LVU779
 2410 0002 164C     		ldr	r4, .L180
 2411              	.LBE574:
 2412              	.LBE573:
 2413              		.loc 1 554 3 view .LVU780
 2414 0004 1648     		ldr	r0, .L180+4
 2415 0006 FFF7FEFF 		bl	__trace_isr_enter
 2416              	.LVL128:
 2417              		.loc 1 554 22 is_stmt 1 view .LVU781
 2418              		.loc 1 556 3 view .LVU782
 2419              	.LBB593:
 2420              	.LBI573:
 2421              		.loc 1 395 13 view .LVU783
 2422              	.LBB591:
 2423              		.loc 1 396 3 view .LVU784
 2424              		.loc 1 398 3 view .LVU785
 2425              		.loc 1 398 12 is_stmt 0 view .LVU786
 2426 000a E269     		ldr	r2, [r4, #28]
 2427              		.loc 1 398 17 view .LVU787
 2428 000c 5369     		ldr	r3, [r2, #20]
 2429              		.loc 1 398 33 view .LVU788
 2430 000e 1169     		ldr	r1, [r2, #16]
 2431              		.loc 1 398 6 view .LVU789
 2432 0010 0B40     		ands	r3, r3, r1
 2433              	.LVL129:
 2434              		.loc 1 399 3 is_stmt 1 view .LVU790
 2435              		.loc 1 399 19 is_stmt 0 view .LVU791
 2436 0012 9361     		str	r3, [r2, #24]
 2437              		.loc 1 401 3 is_stmt 1 view .LVU792
 2438              		.loc 1 401 6 is_stmt 0 view .LVU793
 2439 0014 5B06     		lsls	r3, r3, #25
 2440              	.LVL130:
 2441              		.loc 1 401 6 view .LVU794
 2442 0016 06D4     		bmi	.L179
 2443              		.loc 1 407 5 is_stmt 1 view .LVU795
 2444              		.loc 1 407 51 view .LVU796
 2445              	.LVL131:
 2446              		.loc 1 407 51 is_stmt 0 view .LVU797
 2447              	.LBE591:
 2448              	.LBE593:
 2449              		.loc 1 558 3 is_stmt 1 view .LVU798
ARM GAS  C:\Users\DEVELO~1\AppData\Local\Temp\ccJK6Gr9.s 			page 44


 2450              		.loc 1 558 3 view .LVU799
 2451 0018 1148     		ldr	r0, .L180+4
 2452 001a FFF7FEFF 		bl	__trace_isr_leave
 2453              	.LVL132:
 2454              		.loc 1 558 3 view .LVU800
 2455              		.loc 1 558 3 view .LVU801
 2456              		.loc 1 558 3 view .LVU802
 2457              		.loc 1 559 1 is_stmt 0 view .LVU803
 2458 001e BDE81040 		pop	{r4, lr}
 2459              		.cfi_remember_state
 2460              		.cfi_restore 14
 2461              		.cfi_restore 4
 2462              		.cfi_def_cfa_offset 0
 2463              		.loc 1 558 3 view .LVU804
 2464 0022 FFF7FEBF 		b	__port_irq_epilogue
 2465              	.LVL133:
 2466              	.L179:
 2467              		.cfi_restore_state
 2468              	.LBB594:
 2469              	.LBB592:
 2470              	.LBB575:
 2471              	.LBI575:
 2472              		.loc 1 395 13 is_stmt 1 view .LVU805
 2473              	.LBB576:
 2474              		.loc 1 404 5 view .LVU806
 2475 0026 2046     		mov	r0, r4
 2476 0028 FFF7FEFF 		bl	spi_lld_stop_abort
 2477              	.LVL134:
 2478              		.loc 1 407 5 view .LVU807
 2479 002c 6368     		ldr	r3, [r4, #4]
 2480 002e 9B68     		ldr	r3, [r3, #8]
 2481 0030 0BB1     		cbz	r3, .L171
 2482              		.loc 1 407 5 view .LVU808
 2483 0032 2046     		mov	r0, r4
 2484 0034 9847     		blx	r3
 2485              	.LVL135:
 2486              	.L171:
 2487              		.loc 1 407 5 view .LVU809
 2488              	.LBB577:
 2489              	.LBI577:
 2490              		.loc 3 595 20 view .LVU810
 2491              		.loc 3 597 3 view .LVU811
 2492              	.LBB578:
 2493              	.LBI578:
 2494              		.loc 4 416 20 view .LVU812
 2495              		.loc 4 418 3 view .LVU813
 2496              	.LBB579:
 2497              	.LBI579:
 2498              		.loc 5 879 27 view .LVU814
 2499              		.loc 5 881 3 view .LVU815
 2500              	.LBB580:
 2501              	.LBI580:
 2502              		.loc 5 840 27 view .LVU816
 2503              		.loc 5 848 3 view .LVU817
 2504              	.LBB581:
 2505              	.LBI581:
 2506              		.loc 6 491 27 view .LVU818
ARM GAS  C:\Users\DEVELO~1\AppData\Local\Temp\ccJK6Gr9.s 			page 45


 2507              	.LBB582:
 2508              		.loc 6 493 3 view .LVU819
 2509 0036 3023     		movs	r3, #48
 2510              		.syntax unified
 2511              	@ 493 "../../../os/common/ext/ARM/CMSIS/Core/Include/cmsis_gcc.h" 1
 2512 0038 83F31188 		MSR basepri, r3
 2513              	@ 0 "" 2
 2514              	.LVL136:
 2515              		.loc 6 493 3 is_stmt 0 view .LVU820
 2516              		.thumb
 2517              		.syntax unified
 2518              	.LBE582:
 2519              	.LBE581:
 2520              	.LBE580:
 2521              	.LBE579:
 2522              		.loc 4 419 35 is_stmt 1 view .LVU821
 2523              		.loc 4 420 30 view .LVU822
 2524              	.LBE578:
 2525              	.LBE577:
 2526              		.loc 1 407 5 view .LVU823
 2527              	.LBB583:
 2528              	.LBI583:
 2529              		.loc 3 837 20 view .LVU824
 2530              	.LBB584:
 2531              		.loc 3 839 3 view .LVU825
 2532 003c 6FF01201 		mvn	r1, #18
 2533 0040 0848     		ldr	r0, .L180+8
 2534 0042 FFF7FEFF 		bl	chThdResumeI
 2535              	.LVL137:
 2536              		.loc 3 839 3 is_stmt 0 view .LVU826
 2537              	.LBE584:
 2538              	.LBE583:
 2539              		.loc 1 407 5 is_stmt 1 view .LVU827
 2540              	.LBB585:
 2541              	.LBI585:
 2542              		.loc 3 606 20 view .LVU828
 2543              		.loc 3 608 3 view .LVU829
 2544              	.LBB586:
 2545              	.LBI586:
 2546              		.loc 4 438 20 view .LVU830
 2547              		.loc 4 440 32 view .LVU831
 2548              		.loc 4 441 34 view .LVU832
 2549              		.loc 4 442 3 view .LVU833
 2550              	.LBB587:
 2551              	.LBI587:
 2552              		.loc 5 890 27 view .LVU834
 2553              		.loc 5 892 3 view .LVU835
 2554              	.LBB588:
 2555              	.LBI588:
 2556              		.loc 5 864 27 view .LVU836
 2557              		.loc 5 867 3 view .LVU837
 2558              	.LBB589:
 2559              	.LBI589:
 2560              		.loc 6 491 27 view .LVU838
 2561              	.LBB590:
 2562              		.loc 6 493 3 view .LVU839
 2563 0046 0023     		movs	r3, #0
ARM GAS  C:\Users\DEVELO~1\AppData\Local\Temp\ccJK6Gr9.s 			page 46


 2564              		.syntax unified
 2565              	@ 493 "../../../os/common/ext/ARM/CMSIS/Core/Include/cmsis_gcc.h" 1
 2566 0048 83F31188 		MSR basepri, r3
 2567              	@ 0 "" 2
 2568              	.LVL138:
 2569              		.loc 6 493 3 is_stmt 0 view .LVU840
 2570              		.thumb
 2571              		.syntax unified
 2572              	.LBE590:
 2573              	.LBE589:
 2574              	.LBE588:
 2575              	.LBE587:
 2576              	.LBE586:
 2577              	.LBE585:
 2578              		.loc 1 407 5 is_stmt 1 view .LVU841
 2579              		.loc 1 407 51 view .LVU842
 2580              		.loc 1 407 51 is_stmt 0 view .LVU843
 2581              	.LBE576:
 2582              	.LBE575:
 2583              		.loc 1 407 5 is_stmt 1 view .LVU844
 2584              		.loc 1 407 51 view .LVU845
 2585              		.loc 1 407 51 is_stmt 0 view .LVU846
 2586              	.LBE592:
 2587              	.LBE594:
 2588              		.loc 1 558 3 is_stmt 1 view .LVU847
 2589              		.loc 1 558 3 view .LVU848
 2590 004c 0448     		ldr	r0, .L180+4
 2591 004e FFF7FEFF 		bl	__trace_isr_leave
 2592              	.LVL139:
 2593              		.loc 1 558 3 view .LVU849
 2594              		.loc 1 558 3 view .LVU850
 2595              		.loc 1 558 3 view .LVU851
 2596              		.loc 1 559 1 is_stmt 0 view .LVU852
 2597 0052 BDE81040 		pop	{r4, lr}
 2598              		.cfi_restore 14
 2599              		.cfi_restore 4
 2600              		.cfi_def_cfa_offset 0
 2601              		.loc 1 558 3 view .LVU853
 2602 0056 FFF7FEBF 		b	__port_irq_epilogue
 2603              	.LVL140:
 2604              	.L181:
 2605 005a 00BF     		.align	2
 2606              	.L180:
 2607 005c 00000000 		.word	.LANCHOR3
 2608 0060 00000000 		.word	.LANCHOR9
 2609 0064 08000000 		.word	.LANCHOR3+8
 2610              		.cfi_endproc
 2611              	.LFE463:
 2612              		.size	Vector190, .-Vector190
 2613              		.section	.text.Vector194,"ax",%progbits
 2614              		.align	1
 2615              		.p2align 2,,3
 2616              		.global	Vector194
 2617              		.syntax unified
 2618              		.thumb
 2619              		.thumb_func
 2620              		.type	Vector194, %function
ARM GAS  C:\Users\DEVELO~1\AppData\Local\Temp\ccJK6Gr9.s 			page 47


 2621              	Vector194:
 2622              	.LFB464:
 2623              		.loc 1 573 38 is_stmt 1 view -0
 2624              		.cfi_startproc
 2625              		@ args = 0, pretend = 0, frame = 0
 2626              		@ frame_needed = 0, uses_anonymous_args = 0
 2627              		.loc 1 575 3 view .LVU855
 2628              		.loc 1 575 3 view .LVU856
 2629              		.loc 1 575 3 view .LVU857
 2630              		.loc 1 575 3 view .LVU858
 2631              		.loc 1 575 3 view .LVU859
 2632              		.loc 1 573 38 is_stmt 0 view .LVU860
 2633 0000 10B5     		push	{r4, lr}
 2634              		.cfi_def_cfa_offset 8
 2635              		.cfi_offset 4, -8
 2636              		.cfi_offset 14, -4
 2637              	.LBB614:
 2638              	.LBB615:
 2639              		.loc 1 398 12 view .LVU861
 2640 0002 164C     		ldr	r4, .L193
 2641              	.LBE615:
 2642              	.LBE614:
 2643              		.loc 1 575 3 view .LVU862
 2644 0004 1648     		ldr	r0, .L193+4
 2645 0006 FFF7FEFF 		bl	__trace_isr_enter
 2646              	.LVL141:
 2647              		.loc 1 575 22 is_stmt 1 view .LVU863
 2648              		.loc 1 577 3 view .LVU864
 2649              	.LBB634:
 2650              	.LBI614:
 2651              		.loc 1 395 13 view .LVU865
 2652              	.LBB632:
 2653              		.loc 1 396 3 view .LVU866
 2654              		.loc 1 398 3 view .LVU867
 2655              		.loc 1 398 12 is_stmt 0 view .LVU868
 2656 000a E269     		ldr	r2, [r4, #28]
 2657              		.loc 1 398 17 view .LVU869
 2658 000c 5369     		ldr	r3, [r2, #20]
 2659              		.loc 1 398 33 view .LVU870
 2660 000e 1169     		ldr	r1, [r2, #16]
 2661              		.loc 1 398 6 view .LVU871
 2662 0010 0B40     		ands	r3, r3, r1
 2663              	.LVL142:
 2664              		.loc 1 399 3 is_stmt 1 view .LVU872
 2665              		.loc 1 399 19 is_stmt 0 view .LVU873
 2666 0012 9361     		str	r3, [r2, #24]
 2667              		.loc 1 401 3 is_stmt 1 view .LVU874
 2668              		.loc 1 401 6 is_stmt 0 view .LVU875
 2669 0014 5B06     		lsls	r3, r3, #25
 2670              	.LVL143:
 2671              		.loc 1 401 6 view .LVU876
 2672 0016 06D4     		bmi	.L192
 2673              		.loc 1 407 5 is_stmt 1 view .LVU877
 2674              		.loc 1 407 51 view .LVU878
 2675              	.LVL144:
 2676              		.loc 1 407 51 is_stmt 0 view .LVU879
 2677              	.LBE632:
ARM GAS  C:\Users\DEVELO~1\AppData\Local\Temp\ccJK6Gr9.s 			page 48


 2678              	.LBE634:
 2679              		.loc 1 579 3 is_stmt 1 view .LVU880
 2680              		.loc 1 579 3 view .LVU881
 2681 0018 1148     		ldr	r0, .L193+4
 2682 001a FFF7FEFF 		bl	__trace_isr_leave
 2683              	.LVL145:
 2684              		.loc 1 579 3 view .LVU882
 2685              		.loc 1 579 3 view .LVU883
 2686              		.loc 1 579 3 view .LVU884
 2687              		.loc 1 580 1 is_stmt 0 view .LVU885
 2688 001e BDE81040 		pop	{r4, lr}
 2689              		.cfi_remember_state
 2690              		.cfi_restore 14
 2691              		.cfi_restore 4
 2692              		.cfi_def_cfa_offset 0
 2693              		.loc 1 579 3 view .LVU886
 2694 0022 FFF7FEBF 		b	__port_irq_epilogue
 2695              	.LVL146:
 2696              	.L192:
 2697              		.cfi_restore_state
 2698              	.LBB635:
 2699              	.LBB633:
 2700              	.LBB616:
 2701              	.LBI616:
 2702              		.loc 1 395 13 is_stmt 1 view .LVU887
 2703              	.LBB617:
 2704              		.loc 1 404 5 view .LVU888
 2705 0026 2046     		mov	r0, r4
 2706 0028 FFF7FEFF 		bl	spi_lld_stop_abort
 2707              	.LVL147:
 2708              		.loc 1 407 5 view .LVU889
 2709 002c 6368     		ldr	r3, [r4, #4]
 2710 002e 9B68     		ldr	r3, [r3, #8]
 2711 0030 0BB1     		cbz	r3, .L184
 2712              		.loc 1 407 5 view .LVU890
 2713 0032 2046     		mov	r0, r4
 2714 0034 9847     		blx	r3
 2715              	.LVL148:
 2716              	.L184:
 2717              		.loc 1 407 5 view .LVU891
 2718              	.LBB618:
 2719              	.LBI618:
 2720              		.loc 3 595 20 view .LVU892
 2721              		.loc 3 597 3 view .LVU893
 2722              	.LBB619:
 2723              	.LBI619:
 2724              		.loc 4 416 20 view .LVU894
 2725              		.loc 4 418 3 view .LVU895
 2726              	.LBB620:
 2727              	.LBI620:
 2728              		.loc 5 879 27 view .LVU896
 2729              		.loc 5 881 3 view .LVU897
 2730              	.LBB621:
 2731              	.LBI621:
 2732              		.loc 5 840 27 view .LVU898
 2733              		.loc 5 848 3 view .LVU899
 2734              	.LBB622:
ARM GAS  C:\Users\DEVELO~1\AppData\Local\Temp\ccJK6Gr9.s 			page 49


 2735              	.LBI622:
 2736              		.loc 6 491 27 view .LVU900
 2737              	.LBB623:
 2738              		.loc 6 493 3 view .LVU901
 2739 0036 3023     		movs	r3, #48
 2740              		.syntax unified
 2741              	@ 493 "../../../os/common/ext/ARM/CMSIS/Core/Include/cmsis_gcc.h" 1
 2742 0038 83F31188 		MSR basepri, r3
 2743              	@ 0 "" 2
 2744              	.LVL149:
 2745              		.loc 6 493 3 is_stmt 0 view .LVU902
 2746              		.thumb
 2747              		.syntax unified
 2748              	.LBE623:
 2749              	.LBE622:
 2750              	.LBE621:
 2751              	.LBE620:
 2752              		.loc 4 419 35 is_stmt 1 view .LVU903
 2753              		.loc 4 420 30 view .LVU904
 2754              	.LBE619:
 2755              	.LBE618:
 2756              		.loc 1 407 5 view .LVU905
 2757              	.LBB624:
 2758              	.LBI624:
 2759              		.loc 3 837 20 view .LVU906
 2760              	.LBB625:
 2761              		.loc 3 839 3 view .LVU907
 2762 003c 6FF01201 		mvn	r1, #18
 2763 0040 0848     		ldr	r0, .L193+8
 2764 0042 FFF7FEFF 		bl	chThdResumeI
 2765              	.LVL150:
 2766              		.loc 3 839 3 is_stmt 0 view .LVU908
 2767              	.LBE625:
 2768              	.LBE624:
 2769              		.loc 1 407 5 is_stmt 1 view .LVU909
 2770              	.LBB626:
 2771              	.LBI626:
 2772              		.loc 3 606 20 view .LVU910
 2773              		.loc 3 608 3 view .LVU911
 2774              	.LBB627:
 2775              	.LBI627:
 2776              		.loc 4 438 20 view .LVU912
 2777              		.loc 4 440 32 view .LVU913
 2778              		.loc 4 441 34 view .LVU914
 2779              		.loc 4 442 3 view .LVU915
 2780              	.LBB628:
 2781              	.LBI628:
 2782              		.loc 5 890 27 view .LVU916
 2783              		.loc 5 892 3 view .LVU917
 2784              	.LBB629:
 2785              	.LBI629:
 2786              		.loc 5 864 27 view .LVU918
 2787              		.loc 5 867 3 view .LVU919
 2788              	.LBB630:
 2789              	.LBI630:
 2790              		.loc 6 491 27 view .LVU920
 2791              	.LBB631:
ARM GAS  C:\Users\DEVELO~1\AppData\Local\Temp\ccJK6Gr9.s 			page 50


 2792              		.loc 6 493 3 view .LVU921
 2793 0046 0023     		movs	r3, #0
 2794              		.syntax unified
 2795              	@ 493 "../../../os/common/ext/ARM/CMSIS/Core/Include/cmsis_gcc.h" 1
 2796 0048 83F31188 		MSR basepri, r3
 2797              	@ 0 "" 2
 2798              	.LVL151:
 2799              		.loc 6 493 3 is_stmt 0 view .LVU922
 2800              		.thumb
 2801              		.syntax unified
 2802              	.LBE631:
 2803              	.LBE630:
 2804              	.LBE629:
 2805              	.LBE628:
 2806              	.LBE627:
 2807              	.LBE626:
 2808              		.loc 1 407 5 is_stmt 1 view .LVU923
 2809              		.loc 1 407 51 view .LVU924
 2810              		.loc 1 407 51 is_stmt 0 view .LVU925
 2811              	.LBE617:
 2812              	.LBE616:
 2813              		.loc 1 407 5 is_stmt 1 view .LVU926
 2814              		.loc 1 407 51 view .LVU927
 2815              		.loc 1 407 51 is_stmt 0 view .LVU928
 2816              	.LBE633:
 2817              	.LBE635:
 2818              		.loc 1 579 3 is_stmt 1 view .LVU929
 2819              		.loc 1 579 3 view .LVU930
 2820 004c 0448     		ldr	r0, .L193+4
 2821 004e FFF7FEFF 		bl	__trace_isr_leave
 2822              	.LVL152:
 2823              		.loc 1 579 3 view .LVU931
 2824              		.loc 1 579 3 view .LVU932
 2825              		.loc 1 579 3 view .LVU933
 2826              		.loc 1 580 1 is_stmt 0 view .LVU934
 2827 0052 BDE81040 		pop	{r4, lr}
 2828              		.cfi_restore 14
 2829              		.cfi_restore 4
 2830              		.cfi_def_cfa_offset 0
 2831              		.loc 1 579 3 view .LVU935
 2832 0056 FFF7FEBF 		b	__port_irq_epilogue
 2833              	.LVL153:
 2834              	.L194:
 2835 005a 00BF     		.align	2
 2836              	.L193:
 2837 005c 00000000 		.word	.LANCHOR4
 2838 0060 00000000 		.word	.LANCHOR10
 2839 0064 08000000 		.word	.LANCHOR4+8
 2840              		.cfi_endproc
 2841              	.LFE464:
 2842              		.size	Vector194, .-Vector194
 2843              		.section	.text.Vector198,"ax",%progbits
 2844              		.align	1
 2845              		.p2align 2,,3
 2846              		.global	Vector198
 2847              		.syntax unified
 2848              		.thumb
ARM GAS  C:\Users\DEVELO~1\AppData\Local\Temp\ccJK6Gr9.s 			page 51


 2849              		.thumb_func
 2850              		.type	Vector198, %function
 2851              	Vector198:
 2852              	.LFB465:
 2853              		.loc 1 594 38 is_stmt 1 view -0
 2854              		.cfi_startproc
 2855              		@ args = 0, pretend = 0, frame = 0
 2856              		@ frame_needed = 0, uses_anonymous_args = 0
 2857              		.loc 1 596 3 view .LVU937
 2858              		.loc 1 596 3 view .LVU938
 2859              		.loc 1 596 3 view .LVU939
 2860              		.loc 1 596 3 view .LVU940
 2861              		.loc 1 596 3 view .LVU941
 2862              		.loc 1 594 38 is_stmt 0 view .LVU942
 2863 0000 10B5     		push	{r4, lr}
 2864              		.cfi_def_cfa_offset 8
 2865              		.cfi_offset 4, -8
 2866              		.cfi_offset 14, -4
 2867              	.LBB655:
 2868              	.LBB656:
 2869              		.loc 1 398 12 view .LVU943
 2870 0002 164C     		ldr	r4, .L206
 2871              	.LBE656:
 2872              	.LBE655:
 2873              		.loc 1 596 3 view .LVU944
 2874 0004 1648     		ldr	r0, .L206+4
 2875 0006 FFF7FEFF 		bl	__trace_isr_enter
 2876              	.LVL154:
 2877              		.loc 1 596 22 is_stmt 1 view .LVU945
 2878              		.loc 1 598 3 view .LVU946
 2879              	.LBB675:
 2880              	.LBI655:
 2881              		.loc 1 395 13 view .LVU947
 2882              	.LBB673:
 2883              		.loc 1 396 3 view .LVU948
 2884              		.loc 1 398 3 view .LVU949
 2885              		.loc 1 398 12 is_stmt 0 view .LVU950
 2886 000a E269     		ldr	r2, [r4, #28]
 2887              		.loc 1 398 17 view .LVU951
 2888 000c 5369     		ldr	r3, [r2, #20]
 2889              		.loc 1 398 33 view .LVU952
 2890 000e 1169     		ldr	r1, [r2, #16]
 2891              		.loc 1 398 6 view .LVU953
 2892 0010 0B40     		ands	r3, r3, r1
 2893              	.LVL155:
 2894              		.loc 1 399 3 is_stmt 1 view .LVU954
 2895              		.loc 1 399 19 is_stmt 0 view .LVU955
 2896 0012 9361     		str	r3, [r2, #24]
 2897              		.loc 1 401 3 is_stmt 1 view .LVU956
 2898              		.loc 1 401 6 is_stmt 0 view .LVU957
 2899 0014 5B06     		lsls	r3, r3, #25
 2900              	.LVL156:
 2901              		.loc 1 401 6 view .LVU958
 2902 0016 06D4     		bmi	.L205
 2903              		.loc 1 407 5 is_stmt 1 view .LVU959
 2904              		.loc 1 407 51 view .LVU960
 2905              	.LVL157:
ARM GAS  C:\Users\DEVELO~1\AppData\Local\Temp\ccJK6Gr9.s 			page 52


 2906              		.loc 1 407 51 is_stmt 0 view .LVU961
 2907              	.LBE673:
 2908              	.LBE675:
 2909              		.loc 1 600 3 is_stmt 1 view .LVU962
 2910              		.loc 1 600 3 view .LVU963
 2911 0018 1148     		ldr	r0, .L206+4
 2912 001a FFF7FEFF 		bl	__trace_isr_leave
 2913              	.LVL158:
 2914              		.loc 1 600 3 view .LVU964
 2915              		.loc 1 600 3 view .LVU965
 2916              		.loc 1 600 3 view .LVU966
 2917              		.loc 1 601 1 is_stmt 0 view .LVU967
 2918 001e BDE81040 		pop	{r4, lr}
 2919              		.cfi_remember_state
 2920              		.cfi_restore 14
 2921              		.cfi_restore 4
 2922              		.cfi_def_cfa_offset 0
 2923              		.loc 1 600 3 view .LVU968
 2924 0022 FFF7FEBF 		b	__port_irq_epilogue
 2925              	.LVL159:
 2926              	.L205:
 2927              		.cfi_restore_state
 2928              	.LBB676:
 2929              	.LBB674:
 2930              	.LBB657:
 2931              	.LBI657:
 2932              		.loc 1 395 13 is_stmt 1 view .LVU969
 2933              	.LBB658:
 2934              		.loc 1 404 5 view .LVU970
 2935 0026 2046     		mov	r0, r4
 2936 0028 FFF7FEFF 		bl	spi_lld_stop_abort
 2937              	.LVL160:
 2938              		.loc 1 407 5 view .LVU971
 2939 002c 6368     		ldr	r3, [r4, #4]
 2940 002e 9B68     		ldr	r3, [r3, #8]
 2941 0030 0BB1     		cbz	r3, .L197
 2942              		.loc 1 407 5 view .LVU972
 2943 0032 2046     		mov	r0, r4
 2944 0034 9847     		blx	r3
 2945              	.LVL161:
 2946              	.L197:
 2947              		.loc 1 407 5 view .LVU973
 2948              	.LBB659:
 2949              	.LBI659:
 2950              		.loc 3 595 20 view .LVU974
 2951              		.loc 3 597 3 view .LVU975
 2952              	.LBB660:
 2953              	.LBI660:
 2954              		.loc 4 416 20 view .LVU976
 2955              		.loc 4 418 3 view .LVU977
 2956              	.LBB661:
 2957              	.LBI661:
 2958              		.loc 5 879 27 view .LVU978
 2959              		.loc 5 881 3 view .LVU979
 2960              	.LBB662:
 2961              	.LBI662:
 2962              		.loc 5 840 27 view .LVU980
ARM GAS  C:\Users\DEVELO~1\AppData\Local\Temp\ccJK6Gr9.s 			page 53


 2963              		.loc 5 848 3 view .LVU981
 2964              	.LBB663:
 2965              	.LBI663:
 2966              		.loc 6 491 27 view .LVU982
 2967              	.LBB664:
 2968              		.loc 6 493 3 view .LVU983
 2969 0036 3023     		movs	r3, #48
 2970              		.syntax unified
 2971              	@ 493 "../../../os/common/ext/ARM/CMSIS/Core/Include/cmsis_gcc.h" 1
 2972 0038 83F31188 		MSR basepri, r3
 2973              	@ 0 "" 2
 2974              	.LVL162:
 2975              		.loc 6 493 3 is_stmt 0 view .LVU984
 2976              		.thumb
 2977              		.syntax unified
 2978              	.LBE664:
 2979              	.LBE663:
 2980              	.LBE662:
 2981              	.LBE661:
 2982              		.loc 4 419 35 is_stmt 1 view .LVU985
 2983              		.loc 4 420 30 view .LVU986
 2984              	.LBE660:
 2985              	.LBE659:
 2986              		.loc 1 407 5 view .LVU987
 2987              	.LBB665:
 2988              	.LBI665:
 2989              		.loc 3 837 20 view .LVU988
 2990              	.LBB666:
 2991              		.loc 3 839 3 view .LVU989
 2992 003c 6FF01201 		mvn	r1, #18
 2993 0040 0848     		ldr	r0, .L206+8
 2994 0042 FFF7FEFF 		bl	chThdResumeI
 2995              	.LVL163:
 2996              		.loc 3 839 3 is_stmt 0 view .LVU990
 2997              	.LBE666:
 2998              	.LBE665:
 2999              		.loc 1 407 5 is_stmt 1 view .LVU991
 3000              	.LBB667:
 3001              	.LBI667:
 3002              		.loc 3 606 20 view .LVU992
 3003              		.loc 3 608 3 view .LVU993
 3004              	.LBB668:
 3005              	.LBI668:
 3006              		.loc 4 438 20 view .LVU994
 3007              		.loc 4 440 32 view .LVU995
 3008              		.loc 4 441 34 view .LVU996
 3009              		.loc 4 442 3 view .LVU997
 3010              	.LBB669:
 3011              	.LBI669:
 3012              		.loc 5 890 27 view .LVU998
 3013              		.loc 5 892 3 view .LVU999
 3014              	.LBB670:
 3015              	.LBI670:
 3016              		.loc 5 864 27 view .LVU1000
 3017              		.loc 5 867 3 view .LVU1001
 3018              	.LBB671:
 3019              	.LBI671:
ARM GAS  C:\Users\DEVELO~1\AppData\Local\Temp\ccJK6Gr9.s 			page 54


 3020              		.loc 6 491 27 view .LVU1002
 3021              	.LBB672:
 3022              		.loc 6 493 3 view .LVU1003
 3023 0046 0023     		movs	r3, #0
 3024              		.syntax unified
 3025              	@ 493 "../../../os/common/ext/ARM/CMSIS/Core/Include/cmsis_gcc.h" 1
 3026 0048 83F31188 		MSR basepri, r3
 3027              	@ 0 "" 2
 3028              	.LVL164:
 3029              		.loc 6 493 3 is_stmt 0 view .LVU1004
 3030              		.thumb
 3031              		.syntax unified
 3032              	.LBE672:
 3033              	.LBE671:
 3034              	.LBE670:
 3035              	.LBE669:
 3036              	.LBE668:
 3037              	.LBE667:
 3038              		.loc 1 407 5 is_stmt 1 view .LVU1005
 3039              		.loc 1 407 51 view .LVU1006
 3040              		.loc 1 407 51 is_stmt 0 view .LVU1007
 3041              	.LBE658:
 3042              	.LBE657:
 3043              		.loc 1 407 5 is_stmt 1 view .LVU1008
 3044              		.loc 1 407 51 view .LVU1009
 3045              		.loc 1 407 51 is_stmt 0 view .LVU1010
 3046              	.LBE674:
 3047              	.LBE676:
 3048              		.loc 1 600 3 is_stmt 1 view .LVU1011
 3049              		.loc 1 600 3 view .LVU1012
 3050 004c 0448     		ldr	r0, .L206+4
 3051 004e FFF7FEFF 		bl	__trace_isr_leave
 3052              	.LVL165:
 3053              		.loc 1 600 3 view .LVU1013
 3054              		.loc 1 600 3 view .LVU1014
 3055              		.loc 1 600 3 view .LVU1015
 3056              		.loc 1 601 1 is_stmt 0 view .LVU1016
 3057 0052 BDE81040 		pop	{r4, lr}
 3058              		.cfi_restore 14
 3059              		.cfi_restore 4
 3060              		.cfi_def_cfa_offset 0
 3061              		.loc 1 600 3 view .LVU1017
 3062 0056 FFF7FEBF 		b	__port_irq_epilogue
 3063              	.LVL166:
 3064              	.L207:
 3065 005a 00BF     		.align	2
 3066              	.L206:
 3067 005c 00000000 		.word	.LANCHOR5
 3068 0060 00000000 		.word	.LANCHOR11
 3069 0064 08000000 		.word	.LANCHOR5+8
 3070              		.cfi_endproc
 3071              	.LFE465:
 3072              		.size	Vector198, .-Vector198
 3073              		.section	.text.spi_lld_init,"ax",%progbits
 3074              		.align	1
 3075              		.p2align 2,,3
 3076              		.global	spi_lld_init
ARM GAS  C:\Users\DEVELO~1\AppData\Local\Temp\ccJK6Gr9.s 			page 55


 3077              		.syntax unified
 3078              		.thumb
 3079              		.thumb_func
 3080              		.type	spi_lld_init, %function
 3081              	spi_lld_init:
 3082              	.LFB466:
 3083              		.loc 1 614 25 is_stmt 1 view -0
 3084              		.cfi_startproc
 3085              		@ args = 0, pretend = 0, frame = 0
 3086              		@ frame_needed = 0, uses_anonymous_args = 0
 3087              		.loc 1 617 3 view .LVU1019
 3088              		.loc 1 614 25 is_stmt 0 view .LVU1020
 3089 0000 2DE9F041 		push	{r4, r5, r6, r7, r8, lr}
 3090              		.cfi_def_cfa_offset 24
 3091              		.cfi_offset 4, -24
 3092              		.cfi_offset 5, -20
 3093              		.cfi_offset 6, -16
 3094              		.cfi_offset 7, -12
 3095              		.cfi_offset 8, -8
 3096              		.cfi_offset 14, -4
 3097              		.loc 1 617 3 view .LVU1021
 3098 0004 354D     		ldr	r5, .L210
 3099              		.loc 1 620 19 view .LVU1022
 3100 0006 0024     		movs	r4, #0
 3101              		.loc 1 624 19 view .LVU1023
 3102 0008 DFF80481 		ldr	r8, .L210+52
 3103              		.loc 1 617 3 view .LVU1024
 3104 000c 2846     		mov	r0, r5
 3105              		.loc 1 629 19 view .LVU1025
 3106 000e 344F     		ldr	r7, .L210+4
 3107              		.loc 1 617 3 view .LVU1026
 3108 0010 FFF7FEFF 		bl	spiObjectInit
 3109              	.LVL167:
 3110              		.loc 1 618 3 is_stmt 1 view .LVU1027
 3111              		.loc 1 618 19 is_stmt 0 view .LVU1028
 3112 0014 334B     		ldr	r3, .L210+8
 3113              		.loc 1 620 19 view .LVU1029
 3114 0016 85F82040 		strb	r4, [r5, #32]
 3115              		.loc 1 634 3 view .LVU1030
 3116 001a 0A21     		movs	r1, #10
 3117              		.loc 1 618 19 view .LVU1031
 3118 001c EB61     		str	r3, [r5, #28]
 3119              		.loc 1 620 3 is_stmt 1 view .LVU1032
 3120              		.loc 1 622 3 view .LVU1033
 3121              		.loc 1 623 3 view .LVU1034
 3122              		.loc 1 634 3 is_stmt 0 view .LVU1035
 3123 001e 2320     		movs	r0, #35
 3124              		.loc 1 622 19 view .LVU1036
 3125 0020 6C62     		str	r4, [r5, #36]
 3126              		.loc 1 629 19 view .LVU1037
 3127 0022 2F63     		str	r7, [r5, #48]
 3128              		.loc 1 705 3 view .LVU1038
 3129 0024 304E     		ldr	r6, .L210+12
 3130              		.loc 1 624 19 view .LVU1039
 3131 0026 C5E90A48 		strd	r4, r8, [r5, #40]
 3132              		.loc 1 629 3 is_stmt 1 view .LVU1040
 3133              		.loc 1 634 3 view .LVU1041
ARM GAS  C:\Users\DEVELO~1\AppData\Local\Temp\ccJK6Gr9.s 			page 56


 3134              		.loc 1 639 3 is_stmt 0 view .LVU1042
 3135 002a 304D     		ldr	r5, .L210+16
 3136              		.loc 1 634 3 view .LVU1043
 3137 002c FFF7FEFF 		bl	nvicEnableVector
 3138              	.LVL168:
 3139              		.loc 1 639 3 is_stmt 1 view .LVU1044
 3140 0030 2846     		mov	r0, r5
 3141 0032 FFF7FEFF 		bl	spiObjectInit
 3142              	.LVL169:
 3143              		.loc 1 640 3 view .LVU1045
 3144              		.loc 1 640 19 is_stmt 0 view .LVU1046
 3145 0036 2E4B     		ldr	r3, .L210+20
 3146              		.loc 1 642 19 view .LVU1047
 3147 0038 85F82040 		strb	r4, [r5, #32]
 3148              		.loc 1 656 3 view .LVU1048
 3149 003c 0A21     		movs	r1, #10
 3150              		.loc 1 640 19 view .LVU1049
 3151 003e EB61     		str	r3, [r5, #28]
 3152              		.loc 1 642 3 is_stmt 1 view .LVU1050
 3153              		.loc 1 644 3 view .LVU1051
 3154              		.loc 1 645 3 view .LVU1052
 3155              		.loc 1 656 3 is_stmt 0 view .LVU1053
 3156 0040 2420     		movs	r0, #36
 3157              		.loc 1 644 19 view .LVU1054
 3158 0042 6C62     		str	r4, [r5, #36]
 3159              		.loc 1 651 19 view .LVU1055
 3160 0044 2F63     		str	r7, [r5, #48]
 3161              		.loc 1 646 19 view .LVU1056
 3162 0046 C5E90A48 		strd	r4, r8, [r5, #40]
 3163              		.loc 1 651 3 is_stmt 1 view .LVU1057
 3164              		.loc 1 656 3 view .LVU1058
 3165              		.loc 1 661 3 is_stmt 0 view .LVU1059
 3166 004a 2A4D     		ldr	r5, .L210+24
 3167              		.loc 1 656 3 view .LVU1060
 3168 004c FFF7FEFF 		bl	nvicEnableVector
 3169              	.LVL170:
 3170              		.loc 1 661 3 is_stmt 1 view .LVU1061
 3171 0050 2846     		mov	r0, r5
 3172 0052 FFF7FEFF 		bl	spiObjectInit
 3173              	.LVL171:
 3174              		.loc 1 662 3 view .LVU1062
 3175              		.loc 1 662 19 is_stmt 0 view .LVU1063
 3176 0056 284B     		ldr	r3, .L210+28
 3177              		.loc 1 664 19 view .LVU1064
 3178 0058 85F82040 		strb	r4, [r5, #32]
 3179              		.loc 1 678 3 view .LVU1065
 3180 005c 0A21     		movs	r1, #10
 3181              		.loc 1 662 19 view .LVU1066
 3182 005e EB61     		str	r3, [r5, #28]
 3183              		.loc 1 664 3 is_stmt 1 view .LVU1067
 3184              		.loc 1 666 3 view .LVU1068
 3185              		.loc 1 667 3 view .LVU1069
 3186              		.loc 1 678 3 is_stmt 0 view .LVU1070
 3187 0060 3320     		movs	r0, #51
 3188              		.loc 1 666 19 view .LVU1071
 3189 0062 6C62     		str	r4, [r5, #36]
 3190              		.loc 1 673 19 view .LVU1072
ARM GAS  C:\Users\DEVELO~1\AppData\Local\Temp\ccJK6Gr9.s 			page 57


 3191 0064 2F63     		str	r7, [r5, #48]
 3192              		.loc 1 668 19 view .LVU1073
 3193 0066 C5E90A48 		strd	r4, r8, [r5, #40]
 3194              		.loc 1 673 3 is_stmt 1 view .LVU1074
 3195              		.loc 1 678 3 view .LVU1075
 3196              		.loc 1 683 3 is_stmt 0 view .LVU1076
 3197 006a 244D     		ldr	r5, .L210+32
 3198              		.loc 1 678 3 view .LVU1077
 3199 006c FFF7FEFF 		bl	nvicEnableVector
 3200              	.LVL172:
 3201              		.loc 1 683 3 is_stmt 1 view .LVU1078
 3202 0070 2846     		mov	r0, r5
 3203 0072 FFF7FEFF 		bl	spiObjectInit
 3204              	.LVL173:
 3205              		.loc 1 684 3 view .LVU1079
 3206              		.loc 1 684 19 is_stmt 0 view .LVU1080
 3207 0076 224B     		ldr	r3, .L210+36
 3208              		.loc 1 700 3 view .LVU1081
 3209 0078 0A21     		movs	r1, #10
 3210 007a 5420     		movs	r0, #84
 3211              		.loc 1 684 19 view .LVU1082
 3212 007c EB61     		str	r3, [r5, #28]
 3213              		.loc 1 686 3 is_stmt 1 view .LVU1083
 3214              		.loc 1 688 3 view .LVU1084
 3215              		.loc 1 689 3 view .LVU1085
 3216              		.loc 1 686 19 is_stmt 0 view .LVU1086
 3217 007e 85F82040 		strb	r4, [r5, #32]
 3218              		.loc 1 688 19 view .LVU1087
 3219 0082 6C62     		str	r4, [r5, #36]
 3220              		.loc 1 695 19 view .LVU1088
 3221 0084 2F63     		str	r7, [r5, #48]
 3222              		.loc 1 690 19 view .LVU1089
 3223 0086 C5E90A48 		strd	r4, r8, [r5, #40]
 3224              		.loc 1 695 3 is_stmt 1 view .LVU1090
 3225              		.loc 1 700 3 view .LVU1091
 3226 008a FFF7FEFF 		bl	nvicEnableVector
 3227              	.LVL174:
 3228              		.loc 1 705 3 view .LVU1092
 3229 008e 3046     		mov	r0, r6
 3230 0090 FFF7FEFF 		bl	spiObjectInit
 3231              	.LVL175:
 3232              		.loc 1 706 3 view .LVU1093
 3233              		.loc 1 727 3 is_stmt 0 view .LVU1094
 3234 0094 1B4D     		ldr	r5, .L210+40
 3235              		.loc 1 706 19 view .LVU1095
 3236 0096 1C4B     		ldr	r3, .L210+44
 3237              		.loc 1 722 3 view .LVU1096
 3238 0098 0A21     		movs	r1, #10
 3239 009a 5520     		movs	r0, #85
 3240              		.loc 1 708 19 view .LVU1097
 3241 009c 86F82040 		strb	r4, [r6, #32]
 3242              		.loc 1 706 19 view .LVU1098
 3243 00a0 F361     		str	r3, [r6, #28]
 3244              		.loc 1 708 3 is_stmt 1 view .LVU1099
 3245              		.loc 1 710 3 view .LVU1100
 3246              		.loc 1 711 3 view .LVU1101
 3247              		.loc 1 710 19 is_stmt 0 view .LVU1102
ARM GAS  C:\Users\DEVELO~1\AppData\Local\Temp\ccJK6Gr9.s 			page 58


 3248 00a2 7462     		str	r4, [r6, #36]
 3249              		.loc 1 717 19 view .LVU1103
 3250 00a4 3763     		str	r7, [r6, #48]
 3251              		.loc 1 712 19 view .LVU1104
 3252 00a6 C6E90A48 		strd	r4, r8, [r6, #40]
 3253              		.loc 1 717 3 is_stmt 1 view .LVU1105
 3254              		.loc 1 722 3 view .LVU1106
 3255 00aa FFF7FEFF 		bl	nvicEnableVector
 3256              	.LVL176:
 3257              		.loc 1 727 3 view .LVU1107
 3258 00ae 2846     		mov	r0, r5
 3259 00b0 FFF7FEFF 		bl	spiObjectInit
 3260              	.LVL177:
 3261              		.loc 1 728 3 view .LVU1108
 3262              		.loc 1 730 19 is_stmt 0 view .LVU1109
 3263 00b4 0123     		movs	r3, #1
 3264              		.loc 1 728 19 view .LVU1110
 3265 00b6 1549     		ldr	r1, .L210+48
 3266              		.loc 1 734 19 view .LVU1111
 3267 00b8 41F20A02 		movw	r2, #4106
 3268              		.loc 1 730 19 view .LVU1112
 3269 00bc 85F82030 		strb	r3, [r5, #32]
 3270              		.loc 1 738 19 view .LVU1113
 3271 00c0 41F21803 		movw	r3, #4120
 3272              		.loc 1 728 19 view .LVU1114
 3273 00c4 E961     		str	r1, [r5, #28]
 3274              		.loc 1 730 3 is_stmt 1 view .LVU1115
 3275              		.loc 1 732 3 view .LVU1116
 3276              		.loc 1 733 3 view .LVU1117
 3277              		.loc 1 742 3 is_stmt 0 view .LVU1118
 3278 00c6 5620     		movs	r0, #86
 3279              		.loc 1 732 19 view .LVU1119
 3280 00c8 6C62     		str	r4, [r5, #36]
 3281              		.loc 1 742 3 view .LVU1120
 3282 00ca 0A21     		movs	r1, #10
 3283              		.loc 1 738 19 view .LVU1121
 3284 00cc 2B63     		str	r3, [r5, #48]
 3285              		.loc 1 734 19 view .LVU1122
 3286 00ce C5E90A42 		strd	r4, r2, [r5, #40]
 3287              		.loc 1 738 3 is_stmt 1 view .LVU1123
 3288              		.loc 1 742 3 view .LVU1124
 3289              		.loc 1 745 1 is_stmt 0 view .LVU1125
 3290 00d2 BDE8F041 		pop	{r4, r5, r6, r7, r8, lr}
 3291              		.cfi_restore 14
 3292              		.cfi_restore 8
 3293              		.cfi_restore 7
 3294              		.cfi_restore 6
 3295              		.cfi_restore 5
 3296              		.cfi_restore 4
 3297              		.cfi_def_cfa_offset 0
 3298              		.loc 1 742 3 view .LVU1126
 3299 00d6 FFF7FEBF 		b	nvicEnableVector
 3300              	.LVL178:
 3301              	.L211:
 3302 00da 00BF     		.align	2
 3303              	.L210:
 3304 00dc 00000000 		.word	.LANCHOR0
ARM GAS  C:\Users\DEVELO~1\AppData\Local\Temp\ccJK6Gr9.s 			page 59


 3305 00e0 46000100 		.word	65606
 3306 00e4 00300140 		.word	1073819648
 3307 00e8 00000000 		.word	.LANCHOR4
 3308 00ec 00000000 		.word	.LANCHOR1
 3309 00f0 00380040 		.word	1073756160
 3310 00f4 00000000 		.word	.LANCHOR2
 3311 00f8 003C0040 		.word	1073757184
 3312 00fc 00000000 		.word	.LANCHOR3
 3313 0100 00340140 		.word	1073820672
 3314 0104 00000000 		.word	.LANCHOR5
 3315 0108 00500140 		.word	1073827840
 3316 010c 00140058 		.word	1476400128
 3317 0110 16000100 		.word	65558
 3318              		.cfi_endproc
 3319              	.LFE466:
 3320              		.size	spi_lld_init, .-spi_lld_init
 3321              		.section	.text.spi_lld_start,"ax",%progbits
 3322              		.align	1
 3323              		.p2align 2,,3
 3324              		.global	spi_lld_start
 3325              		.syntax unified
 3326              		.thumb
 3327              		.thumb_func
 3328              		.type	spi_lld_start, %function
 3329              	spi_lld_start:
 3330              	.LVL179:
 3331              	.LFB467:
 3332              		.loc 1 755 38 is_stmt 1 view -0
 3333              		.cfi_startproc
 3334              		@ args = 0, pretend = 0, frame = 0
 3335              		@ frame_needed = 0, uses_anonymous_args = 0
 3336              		.loc 1 756 3 view .LVU1128
 3337              		.loc 1 757 3 view .LVU1129
 3338              		.loc 1 760 3 view .LVU1130
 3339              		.loc 1 755 38 is_stmt 0 view .LVU1131
 3340 0000 10B5     		push	{r4, lr}
 3341              		.cfi_def_cfa_offset 8
 3342              		.cfi_offset 4, -8
 3343              		.cfi_offset 14, -4
 3344              		.loc 1 763 6 view .LVU1132
 3345 0002 0378     		ldrb	r3, [r0]	@ zero_extendqisi2
 3346              		.loc 1 760 18 view .LVU1133
 3347 0004 4FF0FF32 		mov	r2, #-1
 3348              		.loc 1 755 38 view .LVU1134
 3349 0008 0446     		mov	r4, r0
 3350              		.loc 1 763 6 view .LVU1135
 3351 000a 012B     		cmp	r3, #1
 3352              		.loc 1 760 18 view .LVU1136
 3353 000c 8263     		str	r2, [r0, #56]
 3354              		.loc 1 763 3 is_stmt 1 view .LVU1137
 3355              		.loc 1 763 6 is_stmt 0 view .LVU1138
 3356 000e 20D0     		beq	.L264
 3357              		.loc 1 892 61 is_stmt 1 discriminator 1 view .LVU1139
 3358              		.loc 1 898 3 discriminator 1 view .LVU1140
 3359              		.loc 1 898 16 is_stmt 0 discriminator 1 view .LVU1141
 3360 0010 4068     		ldr	r0, [r0, #4]
 3361              	.LVL180:
ARM GAS  C:\Users\DEVELO~1\AppData\Local\Temp\ccJK6Gr9.s 			page 60


 3362              		.loc 1 900 6 discriminator 1 view .LVU1142
 3363 0012 94F82020 		ldrb	r2, [r4, #32]	@ zero_extendqisi2
 3364              		.loc 1 898 31 discriminator 1 view .LVU1143
 3365 0016 4369     		ldr	r3, [r0, #20]
 3366 0018 03F01F03 		and	r3, r3, #31
 3367              		.loc 1 898 9 discriminator 1 view .LVU1144
 3368 001c 0133     		adds	r3, r3, #1
 3369              	.LVL181:
 3370              		.loc 1 900 3 is_stmt 1 discriminator 1 view .LVU1145
 3371              		.loc 1 900 6 is_stmt 0 discriminator 1 view .LVU1146
 3372 001e 002A     		cmp	r2, #0
 3373 0020 7BD1     		bne	.L230
 3374              	.L231:
 3375              		.loc 1 940 5 is_stmt 1 view .LVU1147
 3376              		.loc 1 940 8 is_stmt 0 view .LVU1148
 3377 0022 082B     		cmp	r3, #8
 3378              		.loc 1 943 49 view .LVU1149
 3379 0024 E26A     		ldr	r2, [r4, #44]
 3380              		.loc 1 940 8 view .LVU1150
 3381 0026 00F29D80 		bhi	.L237
 3382              		.loc 1 942 7 is_stmt 1 view .LVU1151
 3383              		.loc 1 945 49 is_stmt 0 view .LVU1152
 3384 002a 236B     		ldr	r3, [r4, #48]
 3385              	.LVL182:
 3386              		.loc 1 943 49 view .LVU1153
 3387 002c 22F4F042 		bic	r2, r2, #30720
 3388              		.loc 1 944 7 is_stmt 1 view .LVU1154
 3389              		.loc 1 945 49 is_stmt 0 view .LVU1155
 3390 0030 23F4F043 		bic	r3, r3, #30720
 3391              	.L238:
 3392              		.loc 1 961 5 is_stmt 1 view .LVU1156
 3393              		.loc 1 961 8 is_stmt 0 view .LVU1157
 3394 0034 0178     		ldrb	r1, [r0]	@ zero_extendqisi2
 3395 0036 0029     		cmp	r1, #0
 3396 0038 00F08F80 		beq	.L240
 3397              		.loc 1 962 7 is_stmt 1 view .LVU1158
 3398              		.loc 1 962 23 is_stmt 0 view .LVU1159
 3399 003c 42F48472 		orr	r2, r2, #264
 3400              		.loc 1 963 7 is_stmt 1 view .LVU1160
 3401              		.loc 1 963 23 is_stmt 0 view .LVU1161
 3402 0040 43F48473 		orr	r3, r3, #264
 3403              	.L236:
 3404              		.loc 1 973 3 view .LVU1162
 3405 0044 E169     		ldr	r1, [r4, #28]
 3406              		.loc 1 931 23 view .LVU1163
 3407 0046 C4E90B23 		strd	r2, r3, [r4, #44]
 3408              		.loc 1 973 3 is_stmt 1 view .LVU1164
 3409 004a FFF7FEFF 		bl	spi_lld_configure.isra.0
 3410              	.LVL183:
 3411              		.loc 1 975 3 view .LVU1165
 3412              		.loc 1 975 10 is_stmt 0 view .LVU1166
 3413 004e 0020     		movs	r0, #0
 3414              		.loc 1 976 1 view .LVU1167
 3415 0050 10BD     		pop	{r4, pc}
 3416              	.LVL184:
 3417              	.L264:
 3418              		.loc 1 766 5 is_stmt 1 view .LVU1168
ARM GAS  C:\Users\DEVELO~1\AppData\Local\Temp\ccJK6Gr9.s 			page 61


 3419              		.loc 1 770 10 view .LVU1169
 3420              		.loc 1 770 13 is_stmt 0 view .LVU1170
 3421 0052 C84B     		ldr	r3, .L271
 3422 0054 9842     		cmp	r0, r3
 3423 0056 00F0A680 		beq	.L265
 3424              		.loc 1 787 10 is_stmt 1 view .LVU1171
 3425              		.loc 1 787 13 is_stmt 0 view .LVU1172
 3426 005a C74B     		ldr	r3, .L271+4
 3427 005c 9842     		cmp	r0, r3
 3428 005e 00F01681 		beq	.L266
 3429              		.loc 1 804 10 is_stmt 1 view .LVU1173
 3430              		.loc 1 804 13 is_stmt 0 view .LVU1174
 3431 0062 C64B     		ldr	r3, .L271+8
 3432 0064 9842     		cmp	r0, r3
 3433 0066 00F0D880 		beq	.L267
 3434              		.loc 1 821 10 is_stmt 1 view .LVU1175
 3435              		.loc 1 821 13 is_stmt 0 view .LVU1176
 3436 006a C54B     		ldr	r3, .L271+12
 3437 006c 9842     		cmp	r0, r3
 3438 006e 00F04881 		beq	.L268
 3439              		.loc 1 838 10 is_stmt 1 view .LVU1177
 3440              		.loc 1 838 13 is_stmt 0 view .LVU1178
 3441 0072 C44B     		ldr	r3, .L271+16
 3442 0074 9842     		cmp	r0, r3
 3443 0076 00F09381 		beq	.L269
 3444              		.loc 1 855 10 is_stmt 1 view .LVU1179
 3445              		.loc 1 855 13 is_stmt 0 view .LVU1180
 3446 007a C34B     		ldr	r3, .L271+20
 3447 007c 9842     		cmp	r0, r3
 3448 007e 40F0C581 		bne	.L241
 3449              		.loc 1 856 7 is_stmt 1 view .LVU1181
 3450              	.LBB725:
 3451              	.LBI725:
 3452              		.loc 1 453 14 view .LVU1182
 3453              	.LVL185:
 3454              	.LBB726:
 3455              		.loc 1 456 3 view .LVU1183
 3456              		.loc 1 456 19 is_stmt 0 view .LVU1184
 3457 0082 0346     		mov	r3, r0
 3458 0084 C14A     		ldr	r2, .L271+24
 3459 0086 0A21     		movs	r1, #10
 3460 0088 0820     		movs	r0, #8
 3461              	.LVL186:
 3462              		.loc 1 456 19 view .LVU1185
 3463 008a FFF7FEFF 		bl	bdmaStreamAllocI
 3464              	.LVL187:
 3465              		.loc 1 456 17 view .LVU1186
 3466 008e 6062     		str	r0, [r4, #36]
 3467              		.loc 1 459 3 is_stmt 1 view .LVU1187
 3468              		.loc 1 459 6 is_stmt 0 view .LVU1188
 3469 0090 0028     		cmp	r0, #0
 3470 0092 00F0C181 		beq	.L261
 3471              		.loc 1 463 3 is_stmt 1 view .LVU1189
 3472              		.loc 1 463 19 is_stmt 0 view .LVU1190
 3473 0096 2346     		mov	r3, r4
 3474 0098 BD4A     		ldr	r2, .L271+28
 3475 009a 0A21     		movs	r1, #10
ARM GAS  C:\Users\DEVELO~1\AppData\Local\Temp\ccJK6Gr9.s 			page 62


 3476 009c 0820     		movs	r0, #8
 3477 009e FFF7FEFF 		bl	bdmaStreamAllocI
 3478              	.LVL188:
 3479              		.loc 1 463 17 view .LVU1191
 3480 00a2 A062     		str	r0, [r4, #40]
 3481              		.loc 1 466 3 is_stmt 1 view .LVU1192
 3482              		.loc 1 466 6 is_stmt 0 view .LVU1193
 3483 00a4 0028     		cmp	r0, #0
 3484 00a6 00F0B481 		beq	.L270
 3485              	.LVL189:
 3486              		.loc 1 466 6 view .LVU1194
 3487              	.LBE726:
 3488              	.LBE725:
 3489              		.loc 1 860 7 is_stmt 1 view .LVU1195
 3490              		.loc 1 863 7 view .LVU1196
 3491 00aa 0B21     		movs	r1, #11
 3492 00ac 606A     		ldr	r0, [r4, #36]
 3493 00ae FFF7FEFF 		bl	bdmaSetRequestSource
 3494              	.LVL190:
 3495              		.loc 1 864 7 view .LVU1197
 3496 00b2 0C21     		movs	r1, #12
 3497 00b4 A06A     		ldr	r0, [r4, #40]
 3498 00b6 FFF7FEFF 		bl	bdmaSetRequestSource
 3499              	.LVL191:
 3500              		.loc 1 866 7 view .LVU1198
 3501              	.LBB729:
 3502              	.LBI729:
 3503              		.loc 2 497 22 view .LVU1199
 3504              	.LBB730:
 3505              		.loc 2 501 3 view .LVU1200
 3506              		.loc 2 501 19 is_stmt 0 view .LVU1201
 3507 00ba B64B     		ldr	r3, .L271+32
 3508 00bc D3F8F420 		ldr	r2, [r3, #244]
 3509 00c0 42F02002 		orr	r2, r2, #32
 3510 00c4 C3F8F420 		str	r2, [r3, #244]
 3511              		.loc 2 502 3 is_stmt 1 view .LVU1202
 3512              		.loc 2 503 5 view .LVU1203
 3513              		.loc 2 503 23 is_stmt 0 view .LVU1204
 3514 00c8 D3F81C21 		ldr	r2, [r3, #284]
 3515 00cc 42F02002 		orr	r2, r2, #32
 3516 00d0 C3F81C21 		str	r2, [r3, #284]
 3517              		.loc 2 508 3 is_stmt 1 view .LVU1205
 3518 00d4 D3F81C21 		ldr	r2, [r3, #284]
 3519              	.LVL192:
 3520              		.loc 2 508 3 is_stmt 0 view .LVU1206
 3521              	.LBE730:
 3522              	.LBE729:
 3523              		.loc 1 867 7 is_stmt 1 view .LVU1207
 3524              	.LBB731:
 3525              	.LBI731:
 3526              		.loc 2 563 22 view .LVU1208
 3527              	.LBB732:
 3528              		.loc 2 575 3 view .LVU1209
 3529              	.LBB733:
 3530              	.LBI733:
 3531              		.loc 2 89 22 view .LVU1210
 3532              	.LBB734:
ARM GAS  C:\Users\DEVELO~1\AppData\Local\Temp\ccJK6Gr9.s 			page 63


 3533              		.loc 2 92 3 view .LVU1211
 3534              		.loc 2 92 17 is_stmt 0 view .LVU1212
 3535 00d8 D3F89C20 		ldr	r2, [r3, #156]
 3536 00dc 42F02002 		orr	r2, r2, #32
 3537 00e0 C3F89C20 		str	r2, [r3, #156]
 3538              		.loc 2 93 3 is_stmt 1 view .LVU1213
 3539              		.loc 2 93 17 is_stmt 0 view .LVU1214
 3540 00e4 D3F89C20 		ldr	r2, [r3, #156]
 3541 00e8 22F02002 		bic	r2, r2, #32
 3542 00ec C3F89C20 		str	r2, [r3, #156]
 3543              		.loc 2 94 3 is_stmt 1 view .LVU1215
 3544 00f0 D3F89C30 		ldr	r3, [r3, #156]
 3545              	.LVL193:
 3546              	.L218:
 3547              		.loc 2 94 3 is_stmt 0 view .LVU1216
 3548              	.LBE734:
 3549              	.LBE733:
 3550              	.LBE732:
 3551              	.LBE731:
 3552              		.loc 1 878 5 is_stmt 1 view .LVU1217
 3553              		.loc 1 882 7 is_stmt 0 view .LVU1218
 3554 00f4 E269     		ldr	r2, [r4, #28]
 3555              		.loc 1 878 8 view .LVU1219
 3556 00f6 94F82030 		ldrb	r3, [r4, #32]	@ zero_extendqisi2
 3557              		.loc 1 882 7 view .LVU1220
 3558 00fa 02F13001 		add	r1, r2, #48
 3559              		.loc 1 898 16 view .LVU1221
 3560 00fe 6068     		ldr	r0, [r4, #4]
 3561              		.loc 1 883 7 view .LVU1222
 3562 0100 2032     		adds	r2, r2, #32
 3563              		.loc 1 878 8 view .LVU1223
 3564 0102 002B     		cmp	r3, #0
 3565 0104 44D0     		beq	.L229
 3566              		.loc 1 882 7 is_stmt 1 view .LVU1224
 3567 0106 636A     		ldr	r3, [r4, #36]
 3568 0108 5B68     		ldr	r3, [r3, #4]
 3569 010a 9960     		str	r1, [r3, #8]
 3570              		.loc 1 882 63 view .LVU1225
 3571              		.loc 1 883 7 view .LVU1226
 3572              		.loc 1 898 31 is_stmt 0 view .LVU1227
 3573 010c 4369     		ldr	r3, [r0, #20]
 3574              		.loc 1 883 7 view .LVU1228
 3575 010e A16A     		ldr	r1, [r4, #40]
 3576              		.loc 1 898 31 view .LVU1229
 3577 0110 03F01F03 		and	r3, r3, #31
 3578              		.loc 1 883 7 view .LVU1230
 3579 0114 4968     		ldr	r1, [r1, #4]
 3580              		.loc 1 898 9 view .LVU1231
 3581 0116 0133     		adds	r3, r3, #1
 3582              		.loc 1 883 7 view .LVU1232
 3583 0118 8A60     		str	r2, [r1, #8]
 3584              		.loc 1 883 63 is_stmt 1 view .LVU1233
 3585              		.loc 1 892 61 view .LVU1234
 3586              		.loc 1 898 3 view .LVU1235
 3587              	.LVL194:
 3588              		.loc 1 900 3 view .LVU1236
 3589              	.L230:
ARM GAS  C:\Users\DEVELO~1\AppData\Local\Temp\ccJK6Gr9.s 			page 64


 3590              		.loc 1 904 5 view .LVU1237
 3591              		.loc 1 904 8 is_stmt 0 view .LVU1238
 3592 011a 082B     		cmp	r3, #8
 3593              		.loc 1 907 50 view .LVU1239
 3594 011c E26A     		ldr	r2, [r4, #44]
 3595              		.loc 1 904 8 view .LVU1240
 3596 011e 10D8     		bhi	.L232
 3597              		.loc 1 906 7 is_stmt 1 view .LVU1241
 3598              		.loc 1 909 50 is_stmt 0 view .LVU1242
 3599 0120 236B     		ldr	r3, [r4, #48]
 3600              	.LVL195:
 3601              		.loc 1 907 50 view .LVU1243
 3602 0122 22F47062 		bic	r2, r2, #3840
 3603              		.loc 1 908 7 is_stmt 1 view .LVU1244
 3604              		.loc 1 909 50 is_stmt 0 view .LVU1245
 3605 0126 23F47063 		bic	r3, r3, #3840
 3606              	.L233:
 3607              		.loc 1 925 5 is_stmt 1 view .LVU1246
 3608              		.loc 1 925 8 is_stmt 0 view .LVU1247
 3609 012a 0178     		ldrb	r1, [r0]	@ zero_extendqisi2
 3610 012c 21B1     		cbz	r1, .L235
 3611              		.loc 1 926 7 is_stmt 1 view .LVU1248
 3612              		.loc 1 926 23 is_stmt 0 view .LVU1249
 3613 012e 42F02402 		orr	r2, r2, #36
 3614              		.loc 1 927 7 is_stmt 1 view .LVU1250
 3615              		.loc 1 927 23 is_stmt 0 view .LVU1251
 3616 0132 43F02403 		orr	r3, r3, #36
 3617 0136 85E7     		b	.L236
 3618              	.L235:
 3619              		.loc 1 930 7 is_stmt 1 view .LVU1252
 3620              		.loc 1 930 23 is_stmt 0 view .LVU1253
 3621 0138 22F02402 		bic	r2, r2, #36
 3622              		.loc 1 931 7 is_stmt 1 view .LVU1254
 3623              		.loc 1 931 23 is_stmt 0 view .LVU1255
 3624 013c 23F02403 		bic	r3, r3, #36
 3625 0140 80E7     		b	.L236
 3626              	.LVL196:
 3627              	.L232:
 3628              		.loc 1 911 10 is_stmt 1 view .LVU1256
 3629              		.loc 1 911 13 is_stmt 0 view .LVU1257
 3630 0142 102B     		cmp	r3, #16
 3631              		.loc 1 915 42 view .LVU1258
 3632 0144 236B     		ldr	r3, [r4, #48]
 3633              	.LVL197:
 3634              		.loc 1 913 42 view .LVU1259
 3635 0146 22F47062 		bic	r2, r2, #3840
 3636              		.loc 1 915 42 view .LVU1260
 3637 014a 23F47063 		bic	r3, r3, #3840
 3638              		.loc 1 911 13 view .LVU1261
 3639 014e 1AD8     		bhi	.L234
 3640              		.loc 1 913 7 is_stmt 1 view .LVU1262
 3641              		.loc 1 914 51 is_stmt 0 view .LVU1263
 3642 0150 42F4A062 		orr	r2, r2, #1280
 3643              		.loc 1 915 7 is_stmt 1 view .LVU1264
 3644              		.loc 1 916 51 is_stmt 0 view .LVU1265
 3645 0154 43F4A063 		orr	r3, r3, #1280
 3646 0158 E7E7     		b	.L233
ARM GAS  C:\Users\DEVELO~1\AppData\Local\Temp\ccJK6Gr9.s 			page 65


 3647              	.L240:
 3648              		.loc 1 966 7 is_stmt 1 view .LVU1266
 3649              		.loc 1 966 23 is_stmt 0 view .LVU1267
 3650 015a 22F48472 		bic	r2, r2, #264
 3651              		.loc 1 967 7 is_stmt 1 view .LVU1268
 3652              		.loc 1 967 23 is_stmt 0 view .LVU1269
 3653 015e 23F48473 		bic	r3, r3, #264
 3654 0162 6FE7     		b	.L236
 3655              	.LVL198:
 3656              	.L237:
 3657              		.loc 1 947 10 is_stmt 1 view .LVU1270
 3658              		.loc 1 947 13 is_stmt 0 view .LVU1271
 3659 0164 102B     		cmp	r3, #16
 3660              		.loc 1 951 42 view .LVU1272
 3661 0166 236B     		ldr	r3, [r4, #48]
 3662              	.LVL199:
 3663              		.loc 1 949 42 view .LVU1273
 3664 0168 22F4F042 		bic	r2, r2, #30720
 3665              		.loc 1 951 42 view .LVU1274
 3666 016c 23F4F043 		bic	r3, r3, #30720
 3667              		.loc 1 947 13 view .LVU1275
 3668 0170 04D8     		bhi	.L239
 3669              		.loc 1 949 7 is_stmt 1 view .LVU1276
 3670              		.loc 1 950 50 is_stmt 0 view .LVU1277
 3671 0172 42F42052 		orr	r2, r2, #10240
 3672              		.loc 1 951 7 is_stmt 1 view .LVU1278
 3673              		.loc 1 952 50 is_stmt 0 view .LVU1279
 3674 0176 43F42053 		orr	r3, r3, #10240
 3675 017a 5BE7     		b	.L238
 3676              	.L239:
 3677              		.loc 1 956 7 is_stmt 1 view .LVU1280
 3678              		.loc 1 957 49 is_stmt 0 view .LVU1281
 3679 017c 42F4A042 		orr	r2, r2, #20480
 3680              		.loc 1 958 7 is_stmt 1 view .LVU1282
 3681              		.loc 1 959 49 is_stmt 0 view .LVU1283
 3682 0180 43F4A043 		orr	r3, r3, #20480
 3683 0184 56E7     		b	.L238
 3684              	.L234:
 3685              		.loc 1 920 7 is_stmt 1 view .LVU1284
 3686              		.loc 1 921 50 is_stmt 0 view .LVU1285
 3687 0186 42F42062 		orr	r2, r2, #2560
 3688              		.loc 1 922 7 is_stmt 1 view .LVU1286
 3689              		.loc 1 923 50 is_stmt 0 view .LVU1287
 3690 018a 43F42063 		orr	r3, r3, #2560
 3691 018e CCE7     		b	.L233
 3692              	.LVL200:
 3693              	.L229:
 3694              		.loc 1 891 7 is_stmt 1 view .LVU1288
 3695 0190 636A     		ldr	r3, [r4, #36]
 3696 0192 1B68     		ldr	r3, [r3]
 3697 0194 9960     		str	r1, [r3, #8]
 3698              		.loc 1 891 61 view .LVU1289
 3699              		.loc 1 892 7 view .LVU1290
 3700 0196 A16A     		ldr	r1, [r4, #40]
 3701              		.loc 1 898 31 is_stmt 0 view .LVU1291
 3702 0198 4369     		ldr	r3, [r0, #20]
 3703              		.loc 1 892 7 view .LVU1292
ARM GAS  C:\Users\DEVELO~1\AppData\Local\Temp\ccJK6Gr9.s 			page 66


 3704 019a 0968     		ldr	r1, [r1]
 3705              		.loc 1 898 31 view .LVU1293
 3706 019c 03F01F03 		and	r3, r3, #31
 3707              		.loc 1 892 7 view .LVU1294
 3708 01a0 8A60     		str	r2, [r1, #8]
 3709              		.loc 1 892 61 is_stmt 1 view .LVU1295
 3710              		.loc 1 898 3 view .LVU1296
 3711              		.loc 1 898 9 is_stmt 0 view .LVU1297
 3712 01a2 0133     		adds	r3, r3, #1
 3713              	.LVL201:
 3714              		.loc 1 900 3 is_stmt 1 view .LVU1298
 3715 01a4 3DE7     		b	.L231
 3716              	.LVL202:
 3717              	.L265:
 3718              		.loc 1 771 7 view .LVU1299
 3719              	.LBB735:
 3720              	.LBI735:
 3721              		.loc 1 421 14 view .LVU1300
 3722              	.LBB736:
 3723              		.loc 1 424 3 view .LVU1301
 3724              		.loc 1 424 18 is_stmt 0 view .LVU1302
 3725 01a6 0346     		mov	r3, r0
 3726 01a8 7B4A     		ldr	r2, .L271+36
 3727 01aa 0A21     		movs	r1, #10
 3728 01ac 1020     		movs	r0, #16
 3729              	.LVL203:
 3730              		.loc 1 424 18 view .LVU1303
 3731 01ae FFF7FEFF 		bl	dmaStreamAllocI
 3732              	.LVL204:
 3733              		.loc 1 424 16 view .LVU1304
 3734 01b2 6062     		str	r0, [r4, #36]
 3735              		.loc 1 427 3 is_stmt 1 view .LVU1305
 3736              		.loc 1 427 6 is_stmt 0 view .LVU1306
 3737 01b4 0028     		cmp	r0, #0
 3738 01b6 00F02F81 		beq	.L261
 3739              		.loc 1 431 3 is_stmt 1 view .LVU1307
 3740              		.loc 1 431 18 is_stmt 0 view .LVU1308
 3741 01ba 2346     		mov	r3, r4
 3742 01bc 774A     		ldr	r2, .L271+40
 3743 01be 0A21     		movs	r1, #10
 3744 01c0 1020     		movs	r0, #16
 3745 01c2 FFF7FEFF 		bl	dmaStreamAllocI
 3746              	.LVL205:
 3747              		.loc 1 431 16 view .LVU1309
 3748 01c6 A062     		str	r0, [r4, #40]
 3749              		.loc 1 434 3 is_stmt 1 view .LVU1310
 3750              		.loc 1 434 6 is_stmt 0 view .LVU1311
 3751 01c8 0028     		cmp	r0, #0
 3752 01ca 00F02881 		beq	.L263
 3753              	.LVL206:
 3754              		.loc 1 434 6 view .LVU1312
 3755              	.LBE736:
 3756              	.LBE735:
 3757              		.loc 1 775 7 is_stmt 1 view .LVU1313
 3758              		.loc 1 778 7 view .LVU1314
 3759 01ce 2521     		movs	r1, #37
 3760 01d0 606A     		ldr	r0, [r4, #36]
ARM GAS  C:\Users\DEVELO~1\AppData\Local\Temp\ccJK6Gr9.s 			page 67


 3761 01d2 FFF7FEFF 		bl	dmaSetRequestSource
 3762              	.LVL207:
 3763              		.loc 1 779 7 view .LVU1315
 3764 01d6 2621     		movs	r1, #38
 3765 01d8 A06A     		ldr	r0, [r4, #40]
 3766 01da FFF7FEFF 		bl	dmaSetRequestSource
 3767              	.LVL208:
 3768              		.loc 1 781 7 view .LVU1316
 3769              	.LBB737:
 3770              	.LBI737:
 3771              		.loc 2 319 22 view .LVU1317
 3772              	.LBB738:
 3773              		.loc 2 323 3 view .LVU1318
 3774              		.loc 2 323 19 is_stmt 0 view .LVU1319
 3775 01de 6D4B     		ldr	r3, .L271+32
 3776 01e0 D3F8F020 		ldr	r2, [r3, #240]
 3777 01e4 42F48052 		orr	r2, r2, #4096
 3778 01e8 C3F8F020 		str	r2, [r3, #240]
 3779              		.loc 2 324 3 is_stmt 1 view .LVU1320
 3780              		.loc 2 325 5 view .LVU1321
 3781              		.loc 2 325 23 is_stmt 0 view .LVU1322
 3782 01ec D3F81821 		ldr	r2, [r3, #280]
 3783 01f0 42F48052 		orr	r2, r2, #4096
 3784 01f4 C3F81821 		str	r2, [r3, #280]
 3785              		.loc 2 330 3 is_stmt 1 view .LVU1323
 3786 01f8 D3F81821 		ldr	r2, [r3, #280]
 3787              	.LVL209:
 3788              		.loc 2 330 3 is_stmt 0 view .LVU1324
 3789              	.LBE738:
 3790              	.LBE737:
 3791              		.loc 1 782 7 is_stmt 1 view .LVU1325
 3792              	.LBB739:
 3793              	.LBI739:
 3794              		.loc 2 385 22 view .LVU1326
 3795              	.LBB740:
 3796              		.loc 2 397 3 view .LVU1327
 3797              	.LBB741:
 3798              	.LBI741:
 3799              		.loc 2 73 22 view .LVU1328
 3800              	.LBB742:
 3801              		.loc 2 76 3 view .LVU1329
 3802              		.loc 2 76 17 is_stmt 0 view .LVU1330
 3803 01fc D3F89820 		ldr	r2, [r3, #152]
 3804 0200 42F48052 		orr	r2, r2, #4096
 3805 0204 C3F89820 		str	r2, [r3, #152]
 3806              		.loc 2 77 3 is_stmt 1 view .LVU1331
 3807              		.loc 2 77 17 is_stmt 0 view .LVU1332
 3808 0208 D3F89820 		ldr	r2, [r3, #152]
 3809 020c 22F48052 		bic	r2, r2, #4096
 3810 0210 C3F89820 		str	r2, [r3, #152]
 3811              		.loc 2 78 3 is_stmt 1 view .LVU1333
 3812 0214 D3F89830 		ldr	r3, [r3, #152]
 3813              	.LVL210:
 3814              		.loc 2 78 3 is_stmt 0 view .LVU1334
 3815              	.LBE742:
 3816              	.LBE741:
 3817              		.loc 2 398 1 view .LVU1335
ARM GAS  C:\Users\DEVELO~1\AppData\Local\Temp\ccJK6Gr9.s 			page 68


 3818 0218 6CE7     		b	.L218
 3819              	.LVL211:
 3820              	.L267:
 3821              		.loc 2 398 1 view .LVU1336
 3822              	.LBE740:
 3823              	.LBE739:
 3824              		.loc 1 805 7 is_stmt 1 view .LVU1337
 3825              	.LBB743:
 3826              	.LBI743:
 3827              		.loc 1 421 14 view .LVU1338
 3828              	.LBB744:
 3829              		.loc 1 424 3 view .LVU1339
 3830              		.loc 1 424 18 is_stmt 0 view .LVU1340
 3831 021a 0346     		mov	r3, r0
 3832 021c 5E4A     		ldr	r2, .L271+36
 3833 021e 0A21     		movs	r1, #10
 3834 0220 1020     		movs	r0, #16
 3835              	.LVL212:
 3836              		.loc 1 424 18 view .LVU1341
 3837 0222 FFF7FEFF 		bl	dmaStreamAllocI
 3838              	.LVL213:
 3839              		.loc 1 424 16 view .LVU1342
 3840 0226 6062     		str	r0, [r4, #36]
 3841              		.loc 1 427 3 is_stmt 1 view .LVU1343
 3842              		.loc 1 427 6 is_stmt 0 view .LVU1344
 3843 0228 0028     		cmp	r0, #0
 3844 022a 00F0F580 		beq	.L261
 3845              		.loc 1 431 3 is_stmt 1 view .LVU1345
 3846              		.loc 1 431 18 is_stmt 0 view .LVU1346
 3847 022e 2346     		mov	r3, r4
 3848 0230 5A4A     		ldr	r2, .L271+40
 3849 0232 0A21     		movs	r1, #10
 3850 0234 1020     		movs	r0, #16
 3851 0236 FFF7FEFF 		bl	dmaStreamAllocI
 3852              	.LVL214:
 3853              		.loc 1 431 16 view .LVU1347
 3854 023a A062     		str	r0, [r4, #40]
 3855              		.loc 1 434 3 is_stmt 1 view .LVU1348
 3856              		.loc 1 434 6 is_stmt 0 view .LVU1349
 3857 023c 0028     		cmp	r0, #0
 3858 023e 00F0EE80 		beq	.L263
 3859              	.LVL215:
 3860              		.loc 1 434 6 view .LVU1350
 3861              	.LBE744:
 3862              	.LBE743:
 3863              		.loc 1 809 7 is_stmt 1 view .LVU1351
 3864              		.loc 1 812 7 view .LVU1352
 3865 0242 3D21     		movs	r1, #61
 3866 0244 606A     		ldr	r0, [r4, #36]
 3867 0246 FFF7FEFF 		bl	dmaSetRequestSource
 3868              	.LVL216:
 3869              		.loc 1 813 7 view .LVU1353
 3870 024a 3E21     		movs	r1, #62
 3871 024c A06A     		ldr	r0, [r4, #40]
 3872 024e FFF7FEFF 		bl	dmaSetRequestSource
 3873              	.LVL217:
 3874              		.loc 1 815 7 view .LVU1354
ARM GAS  C:\Users\DEVELO~1\AppData\Local\Temp\ccJK6Gr9.s 			page 69


 3875              	.LBB745:
 3876              	.LBI745:
 3877              		.loc 2 141 22 view .LVU1355
 3878              	.LBB746:
 3879              		.loc 2 145 3 view .LVU1356
 3880              		.loc 2 145 20 is_stmt 0 view .LVU1357
 3881 0252 504B     		ldr	r3, .L271+32
 3882 0254 D3F8E820 		ldr	r2, [r3, #232]
 3883 0258 42F40042 		orr	r2, r2, #32768
 3884 025c C3F8E820 		str	r2, [r3, #232]
 3885              		.loc 2 146 3 is_stmt 1 view .LVU1358
 3886              		.loc 2 147 5 view .LVU1359
 3887              		.loc 2 147 24 is_stmt 0 view .LVU1360
 3888 0260 D3F81021 		ldr	r2, [r3, #272]
 3889 0264 42F40042 		orr	r2, r2, #32768
 3890 0268 C3F81021 		str	r2, [r3, #272]
 3891              		.loc 2 152 3 is_stmt 1 view .LVU1361
 3892 026c D3F81021 		ldr	r2, [r3, #272]
 3893              	.LVL218:
 3894              		.loc 2 152 3 is_stmt 0 view .LVU1362
 3895              	.LBE746:
 3896              	.LBE745:
 3897              		.loc 1 816 7 is_stmt 1 view .LVU1363
 3898              	.LBB747:
 3899              	.LBI747:
 3900              		.loc 2 207 22 view .LVU1364
 3901              	.LBB748:
 3902              		.loc 2 219 3 view .LVU1365
 3903              	.LBB749:
 3904              	.LBI749:
 3905              		.loc 2 57 22 view .LVU1366
 3906              	.LBB750:
 3907              		.loc 2 60 3 view .LVU1367
 3908              		.loc 2 60 18 is_stmt 0 view .LVU1368
 3909 0270 D3F89020 		ldr	r2, [r3, #144]
 3910 0274 42F40042 		orr	r2, r2, #32768
 3911 0278 C3F89020 		str	r2, [r3, #144]
 3912              		.loc 2 61 3 is_stmt 1 view .LVU1369
 3913              		.loc 2 61 18 is_stmt 0 view .LVU1370
 3914 027c D3F89020 		ldr	r2, [r3, #144]
 3915 0280 22F40042 		bic	r2, r2, #32768
 3916 0284 C3F89020 		str	r2, [r3, #144]
 3917              		.loc 2 62 3 is_stmt 1 view .LVU1371
 3918 0288 D3F89030 		ldr	r3, [r3, #144]
 3919              	.LVL219:
 3920              		.loc 2 62 3 is_stmt 0 view .LVU1372
 3921              	.LBE750:
 3922              	.LBE749:
 3923              		.loc 2 220 1 view .LVU1373
 3924 028c 32E7     		b	.L218
 3925              	.LVL220:
 3926              	.L266:
 3927              		.loc 2 220 1 view .LVU1374
 3928              	.LBE748:
 3929              	.LBE747:
 3930              		.loc 1 788 7 is_stmt 1 view .LVU1375
 3931              	.LBB751:
ARM GAS  C:\Users\DEVELO~1\AppData\Local\Temp\ccJK6Gr9.s 			page 70


 3932              	.LBI751:
 3933              		.loc 1 421 14 view .LVU1376
 3934              	.LBB752:
 3935              		.loc 1 424 3 view .LVU1377
 3936              		.loc 1 424 18 is_stmt 0 view .LVU1378
 3937 028e 0346     		mov	r3, r0
 3938 0290 414A     		ldr	r2, .L271+36
 3939 0292 0A21     		movs	r1, #10
 3940 0294 1020     		movs	r0, #16
 3941              	.LVL221:
 3942              		.loc 1 424 18 view .LVU1379
 3943 0296 FFF7FEFF 		bl	dmaStreamAllocI
 3944              	.LVL222:
 3945              		.loc 1 424 16 view .LVU1380
 3946 029a 6062     		str	r0, [r4, #36]
 3947              		.loc 1 427 3 is_stmt 1 view .LVU1381
 3948              		.loc 1 427 6 is_stmt 0 view .LVU1382
 3949 029c 0028     		cmp	r0, #0
 3950 029e 00F0BB80 		beq	.L261
 3951              		.loc 1 431 3 is_stmt 1 view .LVU1383
 3952              		.loc 1 431 18 is_stmt 0 view .LVU1384
 3953 02a2 2346     		mov	r3, r4
 3954 02a4 3D4A     		ldr	r2, .L271+40
 3955 02a6 0A21     		movs	r1, #10
 3956 02a8 1020     		movs	r0, #16
 3957 02aa FFF7FEFF 		bl	dmaStreamAllocI
 3958              	.LVL223:
 3959              		.loc 1 431 16 view .LVU1385
 3960 02ae A062     		str	r0, [r4, #40]
 3961              		.loc 1 434 3 is_stmt 1 view .LVU1386
 3962              		.loc 1 434 6 is_stmt 0 view .LVU1387
 3963 02b0 0028     		cmp	r0, #0
 3964 02b2 00F0B480 		beq	.L263
 3965              	.LVL224:
 3966              		.loc 1 434 6 view .LVU1388
 3967              	.LBE752:
 3968              	.LBE751:
 3969              		.loc 1 792 7 is_stmt 1 view .LVU1389
 3970              		.loc 1 795 7 view .LVU1390
 3971 02b6 2721     		movs	r1, #39
 3972 02b8 606A     		ldr	r0, [r4, #36]
 3973 02ba FFF7FEFF 		bl	dmaSetRequestSource
 3974              	.LVL225:
 3975              		.loc 1 796 7 view .LVU1391
 3976 02be 2821     		movs	r1, #40
 3977 02c0 A06A     		ldr	r0, [r4, #40]
 3978 02c2 FFF7FEFF 		bl	dmaSetRequestSource
 3979              	.LVL226:
 3980              		.loc 1 798 7 view .LVU1392
 3981              	.LBB753:
 3982              	.LBI753:
 3983              		.loc 2 141 22 view .LVU1393
 3984              	.LBB754:
 3985              		.loc 2 145 3 view .LVU1394
 3986              		.loc 2 145 20 is_stmt 0 view .LVU1395
 3987 02c6 334B     		ldr	r3, .L271+32
 3988 02c8 D3F8E820 		ldr	r2, [r3, #232]
ARM GAS  C:\Users\DEVELO~1\AppData\Local\Temp\ccJK6Gr9.s 			page 71


 3989 02cc 42F48042 		orr	r2, r2, #16384
 3990 02d0 C3F8E820 		str	r2, [r3, #232]
 3991              		.loc 2 146 3 is_stmt 1 view .LVU1396
 3992              		.loc 2 147 5 view .LVU1397
 3993              		.loc 2 147 24 is_stmt 0 view .LVU1398
 3994 02d4 D3F81021 		ldr	r2, [r3, #272]
 3995 02d8 42F48042 		orr	r2, r2, #16384
 3996 02dc C3F81021 		str	r2, [r3, #272]
 3997              		.loc 2 152 3 is_stmt 1 view .LVU1399
 3998 02e0 D3F81021 		ldr	r2, [r3, #272]
 3999              	.LVL227:
 4000              		.loc 2 152 3 is_stmt 0 view .LVU1400
 4001              	.LBE754:
 4002              	.LBE753:
 4003              		.loc 1 799 7 is_stmt 1 view .LVU1401
 4004              	.LBB755:
 4005              	.LBI755:
 4006              		.loc 2 207 22 view .LVU1402
 4007              	.LBB756:
 4008              		.loc 2 219 3 view .LVU1403
 4009              	.LBB757:
 4010              	.LBI757:
 4011              		.loc 2 57 22 view .LVU1404
 4012              	.LBB758:
 4013              		.loc 2 60 3 view .LVU1405
 4014              		.loc 2 60 18 is_stmt 0 view .LVU1406
 4015 02e4 D3F89020 		ldr	r2, [r3, #144]
 4016 02e8 42F48042 		orr	r2, r2, #16384
 4017 02ec C3F89020 		str	r2, [r3, #144]
 4018              		.loc 2 61 3 is_stmt 1 view .LVU1407
 4019              		.loc 2 61 18 is_stmt 0 view .LVU1408
 4020 02f0 D3F89020 		ldr	r2, [r3, #144]
 4021 02f4 22F48042 		bic	r2, r2, #16384
 4022 02f8 C3F89020 		str	r2, [r3, #144]
 4023              		.loc 2 62 3 is_stmt 1 view .LVU1409
 4024 02fc D3F89030 		ldr	r3, [r3, #144]
 4025              	.LVL228:
 4026              		.loc 2 62 3 is_stmt 0 view .LVU1410
 4027              	.LBE758:
 4028              	.LBE757:
 4029              		.loc 2 220 1 view .LVU1411
 4030 0300 F8E6     		b	.L218
 4031              	.LVL229:
 4032              	.L268:
 4033              		.loc 2 220 1 view .LVU1412
 4034              	.LBE756:
 4035              	.LBE755:
 4036              		.loc 1 822 7 is_stmt 1 view .LVU1413
 4037              	.LBB759:
 4038              	.LBI759:
 4039              		.loc 1 421 14 view .LVU1414
 4040              	.LBB760:
 4041              		.loc 1 424 3 view .LVU1415
 4042              		.loc 1 424 18 is_stmt 0 view .LVU1416
 4043 0302 0346     		mov	r3, r0
 4044 0304 244A     		ldr	r2, .L271+36
 4045 0306 0A21     		movs	r1, #10
ARM GAS  C:\Users\DEVELO~1\AppData\Local\Temp\ccJK6Gr9.s 			page 72


 4046 0308 1020     		movs	r0, #16
 4047              	.LVL230:
 4048              		.loc 1 424 18 view .LVU1417
 4049 030a FFF7FEFF 		bl	dmaStreamAllocI
 4050              	.LVL231:
 4051              		.loc 1 424 16 view .LVU1418
 4052 030e 6062     		str	r0, [r4, #36]
 4053              		.loc 1 427 3 is_stmt 1 view .LVU1419
 4054              		.loc 1 427 6 is_stmt 0 view .LVU1420
 4055 0310 0028     		cmp	r0, #0
 4056 0312 00F08180 		beq	.L261
 4057              		.loc 1 431 3 is_stmt 1 view .LVU1421
 4058              		.loc 1 431 18 is_stmt 0 view .LVU1422
 4059 0316 2346     		mov	r3, r4
 4060 0318 204A     		ldr	r2, .L271+40
 4061 031a 0A21     		movs	r1, #10
 4062 031c 1020     		movs	r0, #16
 4063 031e FFF7FEFF 		bl	dmaStreamAllocI
 4064              	.LVL232:
 4065              		.loc 1 431 16 view .LVU1423
 4066 0322 A062     		str	r0, [r4, #40]
 4067              		.loc 1 434 3 is_stmt 1 view .LVU1424
 4068              		.loc 1 434 6 is_stmt 0 view .LVU1425
 4069 0324 0028     		cmp	r0, #0
 4070 0326 7AD0     		beq	.L263
 4071              	.LVL233:
 4072              		.loc 1 434 6 view .LVU1426
 4073              	.LBE760:
 4074              	.LBE759:
 4075              		.loc 1 826 7 is_stmt 1 view .LVU1427
 4076              		.loc 1 829 7 view .LVU1428
 4077 0328 5321     		movs	r1, #83
 4078 032a 606A     		ldr	r0, [r4, #36]
 4079 032c FFF7FEFF 		bl	dmaSetRequestSource
 4080              	.LVL234:
 4081              		.loc 1 830 7 view .LVU1429
 4082 0330 5421     		movs	r1, #84
 4083 0332 A06A     		ldr	r0, [r4, #40]
 4084 0334 FFF7FEFF 		bl	dmaSetRequestSource
 4085              	.LVL235:
 4086              		.loc 1 832 7 view .LVU1430
 4087              	.LBB761:
 4088              	.LBI761:
 4089              		.loc 2 319 22 view .LVU1431
 4090              	.LBB762:
 4091              		.loc 2 323 3 view .LVU1432
 4092              		.loc 2 323 19 is_stmt 0 view .LVU1433
 4093 0338 164B     		ldr	r3, .L271+32
 4094 033a D3F8F020 		ldr	r2, [r3, #240]
 4095 033e 42F40052 		orr	r2, r2, #8192
 4096 0342 C3F8F020 		str	r2, [r3, #240]
 4097              		.loc 2 324 3 is_stmt 1 view .LVU1434
 4098              		.loc 2 325 5 view .LVU1435
 4099              		.loc 2 325 23 is_stmt 0 view .LVU1436
 4100 0346 D3F81821 		ldr	r2, [r3, #280]
 4101 034a 42F40052 		orr	r2, r2, #8192
 4102 034e C3F81821 		str	r2, [r3, #280]
ARM GAS  C:\Users\DEVELO~1\AppData\Local\Temp\ccJK6Gr9.s 			page 73


 4103              		.loc 2 330 3 is_stmt 1 view .LVU1437
 4104 0352 D3F81821 		ldr	r2, [r3, #280]
 4105              	.LVL236:
 4106              		.loc 2 330 3 is_stmt 0 view .LVU1438
 4107              	.LBE762:
 4108              	.LBE761:
 4109              		.loc 1 833 7 is_stmt 1 view .LVU1439
 4110              	.LBB763:
 4111              	.LBI763:
 4112              		.loc 2 385 22 view .LVU1440
 4113              	.LBB764:
 4114              		.loc 2 397 3 view .LVU1441
 4115              	.LBB765:
 4116              	.LBI765:
 4117              		.loc 2 73 22 view .LVU1442
 4118              	.LBB766:
 4119              		.loc 2 76 3 view .LVU1443
 4120              		.loc 2 76 17 is_stmt 0 view .LVU1444
 4121 0356 D3F89820 		ldr	r2, [r3, #152]
 4122 035a 42F40052 		orr	r2, r2, #8192
 4123 035e C3F89820 		str	r2, [r3, #152]
 4124              		.loc 2 77 3 is_stmt 1 view .LVU1445
 4125              		.loc 2 77 17 is_stmt 0 view .LVU1446
 4126 0362 D3F89820 		ldr	r2, [r3, #152]
 4127 0366 22F40052 		bic	r2, r2, #8192
 4128 036a C3F89820 		str	r2, [r3, #152]
 4129              		.loc 2 78 3 is_stmt 1 view .LVU1447
 4130 036e D3F89830 		ldr	r3, [r3, #152]
 4131              	.LVL237:
 4132              		.loc 2 78 3 is_stmt 0 view .LVU1448
 4133              	.LBE766:
 4134              	.LBE765:
 4135              		.loc 2 398 1 view .LVU1449
 4136 0372 BFE6     		b	.L218
 4137              	.L272:
 4138              		.align	2
 4139              	.L271:
 4140 0374 00000000 		.word	.LANCHOR0
 4141 0378 00000000 		.word	.LANCHOR1
 4142 037c 00000000 		.word	.LANCHOR2
 4143 0380 00000000 		.word	.LANCHOR3
 4144 0384 00000000 		.word	.LANCHOR4
 4145 0388 00000000 		.word	.LANCHOR5
 4146 038c 00000000 		.word	spi_lld_serve_bdma_rx_interrupt
 4147 0390 00000000 		.word	spi_lld_serve_bdma_tx_interrupt
 4148 0394 00440258 		.word	1476543488
 4149 0398 00000000 		.word	spi_lld_serve_dma_rx_interrupt
 4150 039c 00000000 		.word	spi_lld_serve_dma_tx_interrupt
 4151              	.LVL238:
 4152              	.L269:
 4153              		.loc 2 398 1 view .LVU1450
 4154              	.LBE764:
 4155              	.LBE763:
 4156              		.loc 1 839 7 is_stmt 1 view .LVU1451
 4157              	.LBB767:
 4158              	.LBI767:
 4159              		.loc 1 421 14 view .LVU1452
ARM GAS  C:\Users\DEVELO~1\AppData\Local\Temp\ccJK6Gr9.s 			page 74


 4160              	.LBB768:
 4161              		.loc 1 424 3 view .LVU1453
 4162              		.loc 1 424 18 is_stmt 0 view .LVU1454
 4163 03a0 0346     		mov	r3, r0
 4164 03a2 224A     		ldr	r2, .L273
 4165 03a4 0A21     		movs	r1, #10
 4166 03a6 1020     		movs	r0, #16
 4167              	.LVL239:
 4168              		.loc 1 424 18 view .LVU1455
 4169 03a8 FFF7FEFF 		bl	dmaStreamAllocI
 4170              	.LVL240:
 4171              		.loc 1 424 16 view .LVU1456
 4172 03ac 6062     		str	r0, [r4, #36]
 4173              		.loc 1 427 3 is_stmt 1 view .LVU1457
 4174              		.loc 1 427 6 is_stmt 0 view .LVU1458
 4175 03ae 98B3     		cbz	r0, .L261
 4176              		.loc 1 431 3 is_stmt 1 view .LVU1459
 4177              		.loc 1 431 18 is_stmt 0 view .LVU1460
 4178 03b0 2346     		mov	r3, r4
 4179 03b2 1F4A     		ldr	r2, .L273+4
 4180 03b4 0A21     		movs	r1, #10
 4181 03b6 1020     		movs	r0, #16
 4182 03b8 FFF7FEFF 		bl	dmaStreamAllocI
 4183              	.LVL241:
 4184              		.loc 1 431 16 view .LVU1461
 4185 03bc A062     		str	r0, [r4, #40]
 4186              		.loc 1 434 3 is_stmt 1 view .LVU1462
 4187              		.loc 1 434 6 is_stmt 0 view .LVU1463
 4188 03be 70B3     		cbz	r0, .L263
 4189              	.LVL242:
 4190              		.loc 1 434 6 view .LVU1464
 4191              	.LBE768:
 4192              	.LBE767:
 4193              		.loc 1 843 7 is_stmt 1 view .LVU1465
 4194              		.loc 1 846 7 view .LVU1466
 4195 03c0 5521     		movs	r1, #85
 4196 03c2 606A     		ldr	r0, [r4, #36]
 4197 03c4 FFF7FEFF 		bl	dmaSetRequestSource
 4198              	.LVL243:
 4199              		.loc 1 847 7 view .LVU1467
 4200 03c8 5621     		movs	r1, #86
 4201 03ca A06A     		ldr	r0, [r4, #40]
 4202 03cc FFF7FEFF 		bl	dmaSetRequestSource
 4203              	.LVL244:
 4204              		.loc 1 849 7 view .LVU1468
 4205              	.LBB771:
 4206              	.LBI771:
 4207              		.loc 2 319 22 view .LVU1469
 4208              	.LBB772:
 4209              		.loc 2 323 3 view .LVU1470
 4210              		.loc 2 323 19 is_stmt 0 view .LVU1471
 4211 03d0 184B     		ldr	r3, .L273+8
 4212 03d2 D3F8F020 		ldr	r2, [r3, #240]
 4213 03d6 42F48012 		orr	r2, r2, #1048576
 4214 03da C3F8F020 		str	r2, [r3, #240]
 4215              		.loc 2 324 3 is_stmt 1 view .LVU1472
 4216              		.loc 2 325 5 view .LVU1473
ARM GAS  C:\Users\DEVELO~1\AppData\Local\Temp\ccJK6Gr9.s 			page 75


 4217              		.loc 2 325 23 is_stmt 0 view .LVU1474
 4218 03de D3F81821 		ldr	r2, [r3, #280]
 4219 03e2 42F48012 		orr	r2, r2, #1048576
 4220 03e6 C3F81821 		str	r2, [r3, #280]
 4221              		.loc 2 330 3 is_stmt 1 view .LVU1475
 4222 03ea D3F81821 		ldr	r2, [r3, #280]
 4223              	.LVL245:
 4224              		.loc 2 330 3 is_stmt 0 view .LVU1476
 4225              	.LBE772:
 4226              	.LBE771:
 4227              		.loc 1 850 7 is_stmt 1 view .LVU1477
 4228              	.LBB773:
 4229              	.LBI773:
 4230              		.loc 2 385 22 view .LVU1478
 4231              	.LBB774:
 4232              		.loc 2 397 3 view .LVU1479
 4233              	.LBB775:
 4234              	.LBI775:
 4235              		.loc 2 73 22 view .LVU1480
 4236              	.LBB776:
 4237              		.loc 2 76 3 view .LVU1481
 4238              		.loc 2 76 17 is_stmt 0 view .LVU1482
 4239 03ee D3F89820 		ldr	r2, [r3, #152]
 4240 03f2 42F48012 		orr	r2, r2, #1048576
 4241 03f6 C3F89820 		str	r2, [r3, #152]
 4242              		.loc 2 77 3 is_stmt 1 view .LVU1483
 4243              		.loc 2 77 17 is_stmt 0 view .LVU1484
 4244 03fa D3F89820 		ldr	r2, [r3, #152]
 4245 03fe 22F48012 		bic	r2, r2, #1048576
 4246 0402 C3F89820 		str	r2, [r3, #152]
 4247              		.loc 2 78 3 is_stmt 1 view .LVU1485
 4248 0406 D3F89830 		ldr	r3, [r3, #152]
 4249              	.LVL246:
 4250              		.loc 2 78 3 is_stmt 0 view .LVU1486
 4251              	.LBE776:
 4252              	.LBE775:
 4253              		.loc 2 398 1 view .LVU1487
 4254 040a 73E6     		b	.L218
 4255              	.LVL247:
 4256              	.L241:
 4257              		.loc 2 398 1 view .LVU1488
 4258              	.LBE774:
 4259              	.LBE773:
 4260              		.loc 1 873 14 view .LVU1489
 4261 040c 6FF01400 		mvn	r0, #20
 4262              	.LVL248:
 4263              		.loc 1 976 1 view .LVU1490
 4264 0410 10BD     		pop	{r4, pc}
 4265              	.LVL249:
 4266              	.L270:
 4267              	.LBB777:
 4268              	.LBB727:
 4269              		.loc 1 467 5 is_stmt 1 view .LVU1491
 4270 0412 606A     		ldr	r0, [r4, #36]
 4271 0414 FFF7FEFF 		bl	bdmaStreamFreeI
 4272              	.LVL250:
 4273              	.L261:
ARM GAS  C:\Users\DEVELO~1\AppData\Local\Temp\ccJK6Gr9.s 			page 76


 4274              		.loc 1 468 5 view .LVU1492
 4275              		.loc 1 468 5 is_stmt 0 view .LVU1493
 4276              	.LBE727:
 4277              	.LBE777:
 4278              		.loc 1 860 7 is_stmt 1 view .LVU1494
 4279              	.LBB778:
 4280              	.LBB728:
 4281              		.loc 1 468 12 is_stmt 0 view .LVU1495
 4282 0418 6FF01000 		mvn	r0, #16
 4283              	.LBE728:
 4284              	.LBE778:
 4285              		.loc 1 976 1 view .LVU1496
 4286 041c 10BD     		pop	{r4, pc}
 4287              	.LVL251:
 4288              	.L263:
 4289              	.LBB779:
 4290              	.LBB769:
 4291              		.loc 1 435 5 is_stmt 1 view .LVU1497
 4292 041e 606A     		ldr	r0, [r4, #36]
 4293 0420 FFF7FEFF 		bl	dmaStreamFreeI
 4294              	.LVL252:
 4295              		.loc 1 436 5 view .LVU1498
 4296              		.loc 1 436 5 is_stmt 0 view .LVU1499
 4297              	.LBE769:
 4298              	.LBE779:
 4299              		.loc 1 843 7 is_stmt 1 view .LVU1500
 4300              	.LBB780:
 4301              	.LBB770:
 4302              		.loc 1 436 12 is_stmt 0 view .LVU1501
 4303 0424 6FF01000 		mvn	r0, #16
 4304              	.LBE770:
 4305              	.LBE780:
 4306              		.loc 1 976 1 view .LVU1502
 4307 0428 10BD     		pop	{r4, pc}
 4308              	.LVL253:
 4309              	.L274:
 4310              		.loc 1 976 1 view .LVU1503
 4311 042a 00BF     		.align	2
 4312              	.L273:
 4313 042c 00000000 		.word	spi_lld_serve_dma_rx_interrupt
 4314 0430 00000000 		.word	spi_lld_serve_dma_tx_interrupt
 4315 0434 00440258 		.word	1476543488
 4316              		.cfi_endproc
 4317              	.LFE467:
 4318              		.size	spi_lld_start, .-spi_lld_start
 4319              		.section	.text.spi_lld_stop,"ax",%progbits
 4320              		.align	1
 4321              		.p2align 2,,3
 4322              		.global	spi_lld_stop
 4323              		.syntax unified
 4324              		.thumb
 4325              		.thumb_func
 4326              		.type	spi_lld_stop, %function
 4327              	spi_lld_stop:
 4328              	.LVL254:
 4329              	.LFB468:
 4330              		.loc 1 985 36 is_stmt 1 view -0
ARM GAS  C:\Users\DEVELO~1\AppData\Local\Temp\ccJK6Gr9.s 			page 77


 4331              		.cfi_startproc
 4332              		@ args = 0, pretend = 0, frame = 0
 4333              		@ frame_needed = 0, uses_anonymous_args = 0
 4334              		.loc 1 988 3 view .LVU1505
 4335              		.loc 1 988 6 is_stmt 0 view .LVU1506
 4336 0000 0378     		ldrb	r3, [r0]	@ zero_extendqisi2
 4337 0002 022B     		cmp	r3, #2
 4338 0004 00D0     		beq	.L290
 4339 0006 7047     		bx	lr
 4340              	.L290:
 4341              		.loc 1 991 5 is_stmt 1 view .LVU1507
 4342              		.loc 1 985 36 is_stmt 0 view .LVU1508
 4343 0008 10B5     		push	{r4, lr}
 4344              		.cfi_def_cfa_offset 8
 4345              		.cfi_offset 4, -8
 4346              		.cfi_offset 14, -4
 4347 000a 0446     		mov	r4, r0
 4348              		.loc 1 991 5 view .LVU1509
 4349 000c FFF7FEFF 		bl	spi_lld_stop_abort
 4350              	.LVL255:
 4351              		.loc 1 994 5 is_stmt 1 view .LVU1510
 4352              		.loc 1 994 8 is_stmt 0 view .LVU1511
 4353 0010 94F82030 		ldrb	r3, [r4, #32]	@ zero_extendqisi2
 4354              		.loc 1 998 7 view .LVU1512
 4355 0014 606A     		ldr	r0, [r4, #36]
 4356              		.loc 1 994 8 view .LVU1513
 4357 0016 33BB     		cbnz	r3, .L291
 4358              		.loc 1 1007 7 is_stmt 1 view .LVU1514
 4359 0018 FFF7FEFF 		bl	dmaStreamFreeI
 4360              	.LVL256:
 4361              		.loc 1 1008 7 view .LVU1515
 4362 001c A06A     		ldr	r0, [r4, #40]
 4363 001e FFF7FEFF 		bl	dmaStreamFreeI
 4364              	.LVL257:
 4365              	.L279:
 4366              		.loc 1 1013 5 view .LVU1516
 4367              		.loc 1 1017 10 view .LVU1517
 4368              		.loc 1 1017 13 is_stmt 0 view .LVU1518
 4369 0022 3C4B     		ldr	r3, .L297
 4370 0024 9C42     		cmp	r4, r3
 4371 0026 24D0     		beq	.L292
 4372              		.loc 1 1023 10 is_stmt 1 view .LVU1519
 4373              		.loc 1 1023 13 is_stmt 0 view .LVU1520
 4374 0028 3B4B     		ldr	r3, .L297+4
 4375 002a 9C42     		cmp	r4, r3
 4376 002c 41D0     		beq	.L293
 4377              		.loc 1 1029 10 is_stmt 1 view .LVU1521
 4378              		.loc 1 1029 13 is_stmt 0 view .LVU1522
 4379 002e 3B4B     		ldr	r3, .L297+8
 4380 0030 9C42     		cmp	r4, r3
 4381 0032 4ED0     		beq	.L294
 4382              		.loc 1 1035 10 is_stmt 1 view .LVU1523
 4383              		.loc 1 1035 13 is_stmt 0 view .LVU1524
 4384 0034 3A4B     		ldr	r3, .L297+12
 4385 0036 9C42     		cmp	r4, r3
 4386 0038 2BD0     		beq	.L295
 4387              		.loc 1 1041 10 is_stmt 1 view .LVU1525
ARM GAS  C:\Users\DEVELO~1\AppData\Local\Temp\ccJK6Gr9.s 			page 78


 4388              		.loc 1 1041 13 is_stmt 0 view .LVU1526
 4389 003a 3A4B     		ldr	r3, .L297+16
 4390 003c 9C42     		cmp	r4, r3
 4391 003e 58D0     		beq	.L296
 4392              		.loc 1 1047 10 is_stmt 1 view .LVU1527
 4393              		.loc 1 1047 13 is_stmt 0 view .LVU1528
 4394 0040 394B     		ldr	r3, .L297+20
 4395 0042 9C42     		cmp	r4, r3
 4396 0044 0ED1     		bne	.L275
 4397              		.loc 1 1048 7 is_stmt 1 view .LVU1529
 4398              	.LVL258:
 4399              	.LBB781:
 4400              	.LBI781:
 4401              		.loc 2 529 22 view .LVU1530
 4402              	.LBB782:
 4403              		.loc 2 539 3 view .LVU1531
 4404              		.loc 2 539 19 is_stmt 0 view .LVU1532
 4405 0046 394B     		ldr	r3, .L297+24
 4406 0048 D3F8F420 		ldr	r2, [r3, #244]
 4407 004c 22F02002 		bic	r2, r2, #32
 4408 0050 C3F8F420 		str	r2, [r3, #244]
 4409              		.loc 2 540 3 is_stmt 1 view .LVU1533
 4410              		.loc 2 540 21 is_stmt 0 view .LVU1534
 4411 0054 D3F81C21 		ldr	r2, [r3, #284]
 4412 0058 22F02002 		bic	r2, r2, #32
 4413 005c C3F81C21 		str	r2, [r3, #284]
 4414              		.loc 2 541 3 is_stmt 1 view .LVU1535
 4415 0060 D3F81C31 		ldr	r3, [r3, #284]
 4416              	.LVL259:
 4417              		.loc 2 541 3 is_stmt 0 view .LVU1536
 4418              	.LBE782:
 4419              	.LBE781:
 4420              		.loc 1 1053 7 is_stmt 1 view .LVU1537
 4421              	.L275:
 4422              		.loc 1 1056 1 is_stmt 0 view .LVU1538
 4423 0064 10BD     		pop	{r4, pc}
 4424              	.LVL260:
 4425              	.L291:
 4426              		.loc 1 998 7 is_stmt 1 view .LVU1539
 4427 0066 FFF7FEFF 		bl	bdmaStreamFreeI
 4428              	.LVL261:
 4429              		.loc 1 999 7 view .LVU1540
 4430 006a A06A     		ldr	r0, [r4, #40]
 4431 006c FFF7FEFF 		bl	bdmaStreamFreeI
 4432              	.LVL262:
 4433 0070 D7E7     		b	.L279
 4434              	.L292:
 4435              		.loc 1 1018 7 view .LVU1541
 4436              	.LVL263:
 4437              	.LBB783:
 4438              	.LBI783:
 4439              		.loc 2 351 22 view .LVU1542
 4440              	.LBB784:
 4441              		.loc 2 361 3 view .LVU1543
 4442              		.loc 2 361 19 is_stmt 0 view .LVU1544
 4443 0072 2E4B     		ldr	r3, .L297+24
 4444 0074 D3F8F020 		ldr	r2, [r3, #240]
ARM GAS  C:\Users\DEVELO~1\AppData\Local\Temp\ccJK6Gr9.s 			page 79


 4445 0078 22F48052 		bic	r2, r2, #4096
 4446 007c C3F8F020 		str	r2, [r3, #240]
 4447              		.loc 2 362 3 is_stmt 1 view .LVU1545
 4448              		.loc 2 362 21 is_stmt 0 view .LVU1546
 4449 0080 D3F81821 		ldr	r2, [r3, #280]
 4450 0084 22F48052 		bic	r2, r2, #4096
 4451 0088 C3F81821 		str	r2, [r3, #280]
 4452              		.loc 2 363 3 is_stmt 1 view .LVU1547
 4453 008c D3F81831 		ldr	r3, [r3, #280]
 4454              	.LBE784:
 4455              	.LBE783:
 4456              		.loc 1 1056 1 is_stmt 0 view .LVU1548
 4457 0090 10BD     		pop	{r4, pc}
 4458              	.LVL264:
 4459              	.L295:
 4460              		.loc 1 1036 7 is_stmt 1 view .LVU1549
 4461              	.LBB785:
 4462              	.LBI785:
 4463              		.loc 2 351 22 view .LVU1550
 4464              	.LBB786:
 4465              		.loc 2 361 3 view .LVU1551
 4466              		.loc 2 361 19 is_stmt 0 view .LVU1552
 4467 0092 264B     		ldr	r3, .L297+24
 4468 0094 D3F8F020 		ldr	r2, [r3, #240]
 4469 0098 22F40052 		bic	r2, r2, #8192
 4470 009c C3F8F020 		str	r2, [r3, #240]
 4471              		.loc 2 362 3 is_stmt 1 view .LVU1553
 4472              		.loc 2 362 21 is_stmt 0 view .LVU1554
 4473 00a0 D3F81821 		ldr	r2, [r3, #280]
 4474 00a4 22F40052 		bic	r2, r2, #8192
 4475 00a8 C3F81821 		str	r2, [r3, #280]
 4476              		.loc 2 363 3 is_stmt 1 view .LVU1555
 4477 00ac D3F81831 		ldr	r3, [r3, #280]
 4478              	.LBE786:
 4479              	.LBE785:
 4480              		.loc 1 1056 1 is_stmt 0 view .LVU1556
 4481 00b0 10BD     		pop	{r4, pc}
 4482              	.LVL265:
 4483              	.L293:
 4484              		.loc 1 1024 7 is_stmt 1 view .LVU1557
 4485              	.LBB787:
 4486              	.LBI787:
 4487              		.loc 2 173 22 view .LVU1558
 4488              	.LBB788:
 4489              		.loc 2 183 3 view .LVU1559
 4490              		.loc 2 183 20 is_stmt 0 view .LVU1560
 4491 00b2 1E4B     		ldr	r3, .L297+24
 4492 00b4 D3F8E820 		ldr	r2, [r3, #232]
 4493 00b8 22F48042 		bic	r2, r2, #16384
 4494 00bc C3F8E820 		str	r2, [r3, #232]
 4495              		.loc 2 184 3 is_stmt 1 view .LVU1561
 4496              		.loc 2 184 22 is_stmt 0 view .LVU1562
 4497 00c0 D3F81021 		ldr	r2, [r3, #272]
 4498 00c4 22F48042 		bic	r2, r2, #16384
 4499 00c8 C3F81021 		str	r2, [r3, #272]
 4500              		.loc 2 185 3 is_stmt 1 view .LVU1563
 4501 00cc D3F81031 		ldr	r3, [r3, #272]
ARM GAS  C:\Users\DEVELO~1\AppData\Local\Temp\ccJK6Gr9.s 			page 80


 4502              	.LBE788:
 4503              	.LBE787:
 4504              		.loc 1 1056 1 is_stmt 0 view .LVU1564
 4505 00d0 10BD     		pop	{r4, pc}
 4506              	.LVL266:
 4507              	.L294:
 4508              		.loc 1 1030 7 is_stmt 1 view .LVU1565
 4509              	.LBB789:
 4510              	.LBI789:
 4511              		.loc 2 173 22 view .LVU1566
 4512              	.LBB790:
 4513              		.loc 2 183 3 view .LVU1567
 4514              		.loc 2 183 20 is_stmt 0 view .LVU1568
 4515 00d2 164B     		ldr	r3, .L297+24
 4516 00d4 D3F8E820 		ldr	r2, [r3, #232]
 4517 00d8 22F40042 		bic	r2, r2, #32768
 4518 00dc C3F8E820 		str	r2, [r3, #232]
 4519              		.loc 2 184 3 is_stmt 1 view .LVU1569
 4520              		.loc 2 184 22 is_stmt 0 view .LVU1570
 4521 00e0 D3F81021 		ldr	r2, [r3, #272]
 4522 00e4 22F40042 		bic	r2, r2, #32768
 4523 00e8 C3F81021 		str	r2, [r3, #272]
 4524              		.loc 2 185 3 is_stmt 1 view .LVU1571
 4525 00ec D3F81031 		ldr	r3, [r3, #272]
 4526              	.LBE790:
 4527              	.LBE789:
 4528              		.loc 1 1056 1 is_stmt 0 view .LVU1572
 4529 00f0 10BD     		pop	{r4, pc}
 4530              	.LVL267:
 4531              	.L296:
 4532              		.loc 1 1042 7 is_stmt 1 view .LVU1573
 4533              	.LBB791:
 4534              	.LBI791:
 4535              		.loc 2 351 22 view .LVU1574
 4536              	.LBB792:
 4537              		.loc 2 361 3 view .LVU1575
 4538              		.loc 2 361 19 is_stmt 0 view .LVU1576
 4539 00f2 0E4B     		ldr	r3, .L297+24
 4540 00f4 D3F8F020 		ldr	r2, [r3, #240]
 4541 00f8 22F48012 		bic	r2, r2, #1048576
 4542 00fc C3F8F020 		str	r2, [r3, #240]
 4543              		.loc 2 362 3 is_stmt 1 view .LVU1577
 4544              		.loc 2 362 21 is_stmt 0 view .LVU1578
 4545 0100 D3F81821 		ldr	r2, [r3, #280]
 4546 0104 22F48012 		bic	r2, r2, #1048576
 4547 0108 C3F81821 		str	r2, [r3, #280]
 4548              		.loc 2 363 3 is_stmt 1 view .LVU1579
 4549 010c D3F81831 		ldr	r3, [r3, #280]
 4550              	.LBE792:
 4551              	.LBE791:
 4552              		.loc 1 1056 1 is_stmt 0 view .LVU1580
 4553 0110 10BD     		pop	{r4, pc}
 4554              	.LVL268:
 4555              	.L298:
 4556              		.loc 1 1056 1 view .LVU1581
 4557 0112 00BF     		.align	2
 4558              	.L297:
ARM GAS  C:\Users\DEVELO~1\AppData\Local\Temp\ccJK6Gr9.s 			page 81


 4559 0114 00000000 		.word	.LANCHOR0
 4560 0118 00000000 		.word	.LANCHOR1
 4561 011c 00000000 		.word	.LANCHOR2
 4562 0120 00000000 		.word	.LANCHOR3
 4563 0124 00000000 		.word	.LANCHOR4
 4564 0128 00000000 		.word	.LANCHOR5
 4565 012c 00440258 		.word	1476543488
 4566              		.cfi_endproc
 4567              	.LFE468:
 4568              		.size	spi_lld_stop, .-spi_lld_stop
 4569              		.section	.text.spi_lld_ignore,"ax",%progbits
 4570              		.align	1
 4571              		.p2align 2,,3
 4572              		.global	spi_lld_ignore
 4573              		.syntax unified
 4574              		.thumb
 4575              		.thumb_func
 4576              		.type	spi_lld_ignore, %function
 4577              	spi_lld_ignore:
 4578              	.LVL269:
 4579              	.LFB469:
 4580              		.loc 1 1097 49 is_stmt 1 view -0
 4581              		.cfi_startproc
 4582              		@ args = 0, pretend = 0, frame = 0
 4583              		@ frame_needed = 0, uses_anonymous_args = 0
 4584              		@ link register save eliminated.
 4585              		.loc 1 1099 3 view .LVU1583
 4586              		.loc 1 1099 3 view .LVU1584
 4587              		.loc 1 1099 3 view .LVU1585
 4588              		.loc 1 1102 3 view .LVU1586
 4589              		.loc 1 1102 6 is_stmt 0 view .LVU1587
 4590 0000 90F82030 		ldrb	r3, [r0, #32]	@ zero_extendqisi2
 4591              		.loc 1 1097 49 view .LVU1588
 4592 0004 30B4     		push	{r4, r5}
 4593              		.cfi_def_cfa_offset 8
 4594              		.cfi_offset 4, -8
 4595              		.cfi_offset 5, -4
 4596              		.loc 1 1110 5 view .LVU1589
 4597 0006 D0E90925 		ldrd	r2, r5, [r0, #36]
 4598              		.loc 1 1108 5 view .LVU1590
 4599 000a C46A     		ldr	r4, [r0, #44]
 4600              		.loc 1 1102 6 view .LVU1591
 4601 000c FBB1     		cbz	r3, .L300
 4602              		.loc 1 1106 5 is_stmt 1 view .LVU1592
 4603 000e 00F13403 		add	r3, r0, #52
 4604 0012 5268     		ldr	r2, [r2, #4]
 4605 0014 D360     		str	r3, [r2, #12]
 4606              		.loc 1 1106 54 view .LVU1593
 4607              		.loc 1 1107 5 view .LVU1594
 4608              		.loc 1 1110 5 is_stmt 0 view .LVU1595
 4609 0016 6B68     		ldr	r3, [r5, #4]
 4610              	.L304:
 4611              		.loc 1 1124 5 view .LVU1596
 4612 0018 5160     		str	r1, [r2, #4]
 4613              		.loc 1 1124 49 is_stmt 1 view .LVU1597
 4614              		.loc 1 1125 5 view .LVU1598
 4615              		.loc 1 1127 5 is_stmt 0 view .LVU1599
ARM GAS  C:\Users\DEVELO~1\AppData\Local\Temp\ccJK6Gr9.s 			page 82


 4616 001a 00F13805 		add	r5, r0, #56
 4617              		.loc 1 1125 5 view .LVU1600
 4618 001e 1460     		str	r4, [r2]
 4619              		.loc 1 1125 52 is_stmt 1 view .LVU1601
 4620              		.loc 1 1127 5 view .LVU1602
 4621              		.loc 1 1129 5 is_stmt 0 view .LVU1603
 4622 0020 046B     		ldr	r4, [r0, #48]
 4623              		.loc 1 1127 5 view .LVU1604
 4624 0022 DD60     		str	r5, [r3, #12]
 4625              		.loc 1 1127 55 is_stmt 1 view .LVU1605
 4626              		.loc 1 1128 5 view .LVU1606
 4627 0024 5960     		str	r1, [r3, #4]
 4628              		.loc 1 1128 49 view .LVU1607
 4629              		.loc 1 1129 5 view .LVU1608
 4630 0026 1C60     		str	r4, [r3]
 4631              		.loc 1 1129 52 view .LVU1609
 4632              		.loc 1 1131 5 view .LVU1610
 4633 0028 1168     		ldr	r1, [r2]
 4634              	.LVL270:
 4635              		.loc 1 1131 5 is_stmt 0 view .LVU1611
 4636 002a 41F00101 		orr	r1, r1, #1
 4637 002e 1160     		str	r1, [r2]
 4638              		.loc 1 1131 34 is_stmt 1 view .LVU1612
 4639              		.loc 1 1132 5 view .LVU1613
 4640              		.loc 1 1132 34 view .LVU1614
 4641              		.loc 1 1136 3 view .LVU1615
 4642              	.LVL271:
 4643              	.LBB797:
 4644              	.LBI797:
 4645              		.loc 1 118 13 view .LVU1616
 4646              	.LBB798:
 4647              		.loc 1 120 3 view .LVU1617
 4648              	.LBE798:
 4649              	.LBE797:
 4650              		.loc 1 1132 5 is_stmt 0 view .LVU1618
 4651 0030 1A68     		ldr	r2, [r3]
 4652 0032 42F00102 		orr	r2, r2, #1
 4653 0036 1A60     		str	r2, [r3]
 4654              	.LBB802:
 4655              	.LBB801:
 4656              		.loc 1 120 20 view .LVU1619
 4657 0038 4368     		ldr	r3, [r0, #4]
 4658              		.loc 1 120 6 view .LVU1620
 4659 003a 5B78     		ldrb	r3, [r3, #1]	@ zero_extendqisi2
 4660 003c 23B9     		cbnz	r3, .L302
 4661 003e C269     		ldr	r2, [r0, #28]
 4662              	.LBB799:
 4663              	.LBI799:
 4664              		.loc 1 118 13 is_stmt 1 view .LVU1621
 4665              	.LVL272:
 4666              	.LBB800:
 4667              		.loc 1 121 5 view .LVU1622
 4668              		.loc 1 121 20 is_stmt 0 view .LVU1623
 4669 0040 1368     		ldr	r3, [r2]
 4670 0042 43F40073 		orr	r3, r3, #512
 4671 0046 1360     		str	r3, [r2]
 4672              	.L302:
ARM GAS  C:\Users\DEVELO~1\AppData\Local\Temp\ccJK6Gr9.s 			page 83


 4673              	.LVL273:
 4674              		.loc 1 121 20 view .LVU1624
 4675              	.LBE800:
 4676              	.LBE799:
 4677              	.LBE801:
 4678              	.LBE802:
 4679              		.loc 1 1138 3 is_stmt 1 view .LVU1625
 4680              		.loc 1 1139 1 is_stmt 0 view .LVU1626
 4681 0048 0020     		movs	r0, #0
 4682              	.LVL274:
 4683              		.loc 1 1139 1 view .LVU1627
 4684 004a 30BC     		pop	{r4, r5}
 4685              		.cfi_remember_state
 4686              		.cfi_restore 5
 4687              		.cfi_restore 4
 4688              		.cfi_def_cfa_offset 0
 4689              	.LVL275:
 4690              		.loc 1 1139 1 view .LVU1628
 4691 004c 7047     		bx	lr
 4692              	.LVL276:
 4693              	.L300:
 4694              		.cfi_restore_state
 4695              		.loc 1 1123 5 is_stmt 1 view .LVU1629
 4696 004e 00F13403 		add	r3, r0, #52
 4697 0052 1268     		ldr	r2, [r2]
 4698 0054 D360     		str	r3, [r2, #12]
 4699              		.loc 1 1123 53 view .LVU1630
 4700              		.loc 1 1124 5 view .LVU1631
 4701              		.loc 1 1127 5 is_stmt 0 view .LVU1632
 4702 0056 2B68     		ldr	r3, [r5]
 4703 0058 DEE7     		b	.L304
 4704              		.cfi_endproc
 4705              	.LFE469:
 4706              		.size	spi_lld_ignore, .-spi_lld_ignore
 4707 005a 00BF     		.section	.text.spi_lld_exchange,"ax",%progbits
 4708              		.align	1
 4709              		.p2align 2,,3
 4710              		.global	spi_lld_exchange
 4711              		.syntax unified
 4712              		.thumb
 4713              		.thumb_func
 4714              		.type	spi_lld_exchange, %function
 4715              	spi_lld_exchange:
 4716              	.LVL277:
 4717              	.LFB470:
 4718              		.loc 1 1158 56 is_stmt 1 view -0
 4719              		.cfi_startproc
 4720              		@ args = 0, pretend = 0, frame = 0
 4721              		@ frame_needed = 0, uses_anonymous_args = 0
 4722              		@ link register save eliminated.
 4723              		.loc 1 1160 3 view .LVU1634
 4724              		.loc 1 1160 3 view .LVU1635
 4725              		.loc 1 1160 3 view .LVU1636
 4726              		.loc 1 1163 3 view .LVU1637
 4727              		.loc 1 1158 56 is_stmt 0 view .LVU1638
 4728 0000 10B4     		push	{r4}
 4729              		.cfi_def_cfa_offset 4
ARM GAS  C:\Users\DEVELO~1\AppData\Local\Temp\ccJK6Gr9.s 			page 84


 4730              		.cfi_offset 4, -4
 4731              		.loc 1 1163 6 view .LVU1639
 4732 0002 90F82040 		ldrb	r4, [r0, #32]	@ zero_extendqisi2
 4733 0006 1CB3     		cbz	r4, .L306
 4734              		.loc 1 1167 5 is_stmt 1 view .LVU1640
 4735 0008 446A     		ldr	r4, [r0, #36]
 4736 000a 6468     		ldr	r4, [r4, #4]
 4737 000c E360     		str	r3, [r4, #12]
 4738              		.loc 1 1167 46 view .LVU1641
 4739              		.loc 1 1168 5 view .LVU1642
 4740              		.loc 1 1169 5 is_stmt 0 view .LVU1643
 4741 000e C36A     		ldr	r3, [r0, #44]
 4742              	.LVL278:
 4743              		.loc 1 1168 5 view .LVU1644
 4744 0010 6160     		str	r1, [r4, #4]
 4745              	.LVL279:
 4746              		.loc 1 1168 51 is_stmt 1 view .LVU1645
 4747              		.loc 1 1169 5 view .LVU1646
 4748 0012 43F08003 		orr	r3, r3, #128
 4749 0016 2360     		str	r3, [r4]
 4750              		.loc 1 1169 75 view .LVU1647
 4751              		.loc 1 1171 5 view .LVU1648
 4752 0018 836A     		ldr	r3, [r0, #40]
 4753 001a 5B68     		ldr	r3, [r3, #4]
 4754 001c DA60     		str	r2, [r3, #12]
 4755              		.loc 1 1171 46 view .LVU1649
 4756              		.loc 1 1172 5 view .LVU1650
 4757              		.loc 1 1173 5 is_stmt 0 view .LVU1651
 4758 001e 026B     		ldr	r2, [r0, #48]
 4759              	.LVL280:
 4760              		.loc 1 1172 5 view .LVU1652
 4761 0020 5960     		str	r1, [r3, #4]
 4762              	.LVL281:
 4763              		.loc 1 1172 51 is_stmt 1 view .LVU1653
 4764              		.loc 1 1173 5 view .LVU1654
 4765 0022 42F08002 		orr	r2, r2, #128
 4766              	.L310:
 4767              		.loc 1 1190 5 is_stmt 0 view .LVU1655
 4768 0026 1A60     		str	r2, [r3]
 4769              		.loc 1 1190 72 is_stmt 1 view .LVU1656
 4770              		.loc 1 1192 5 view .LVU1657
 4771 0028 2268     		ldr	r2, [r4]
 4772 002a 42F00102 		orr	r2, r2, #1
 4773 002e 2260     		str	r2, [r4]
 4774              		.loc 1 1192 34 view .LVU1658
 4775              		.loc 1 1193 5 view .LVU1659
 4776              		.loc 1 1193 34 view .LVU1660
 4777              		.loc 1 1197 3 view .LVU1661
 4778              	.LVL282:
 4779              	.LBB807:
 4780              	.LBI807:
 4781              		.loc 1 118 13 view .LVU1662
 4782              	.LBB808:
 4783              		.loc 1 120 3 view .LVU1663
 4784              	.LBE808:
 4785              	.LBE807:
 4786              		.loc 1 1193 5 is_stmt 0 view .LVU1664
ARM GAS  C:\Users\DEVELO~1\AppData\Local\Temp\ccJK6Gr9.s 			page 85


 4787 0030 1A68     		ldr	r2, [r3]
 4788 0032 42F00102 		orr	r2, r2, #1
 4789 0036 1A60     		str	r2, [r3]
 4790              	.LBB812:
 4791              	.LBB811:
 4792              		.loc 1 120 20 view .LVU1665
 4793 0038 4368     		ldr	r3, [r0, #4]
 4794              		.loc 1 120 6 view .LVU1666
 4795 003a 5B78     		ldrb	r3, [r3, #1]	@ zero_extendqisi2
 4796 003c 23B9     		cbnz	r3, .L308
 4797 003e C269     		ldr	r2, [r0, #28]
 4798              	.LBB809:
 4799              	.LBI809:
 4800              		.loc 1 118 13 is_stmt 1 view .LVU1667
 4801              	.LVL283:
 4802              	.LBB810:
 4803              		.loc 1 121 5 view .LVU1668
 4804              		.loc 1 121 20 is_stmt 0 view .LVU1669
 4805 0040 1368     		ldr	r3, [r2]
 4806 0042 43F40073 		orr	r3, r3, #512
 4807 0046 1360     		str	r3, [r2]
 4808              	.L308:
 4809              	.LVL284:
 4810              		.loc 1 121 20 view .LVU1670
 4811              	.LBE810:
 4812              	.LBE809:
 4813              	.LBE811:
 4814              	.LBE812:
 4815              		.loc 1 1199 3 is_stmt 1 view .LVU1671
 4816              		.loc 1 1200 1 is_stmt 0 view .LVU1672
 4817 0048 0020     		movs	r0, #0
 4818              	.LVL285:
 4819              		.loc 1 1200 1 view .LVU1673
 4820 004a 5DF8044B 		ldr	r4, [sp], #4
 4821              		.cfi_remember_state
 4822              		.cfi_restore 4
 4823              		.cfi_def_cfa_offset 0
 4824 004e 7047     		bx	lr
 4825              	.LVL286:
 4826              	.L306:
 4827              		.cfi_restore_state
 4828              		.loc 1 1184 5 is_stmt 1 view .LVU1674
 4829 0050 446A     		ldr	r4, [r0, #36]
 4830 0052 2468     		ldr	r4, [r4]
 4831 0054 E360     		str	r3, [r4, #12]
 4832              		.loc 1 1184 45 view .LVU1675
 4833              		.loc 1 1185 5 view .LVU1676
 4834              		.loc 1 1186 5 is_stmt 0 view .LVU1677
 4835 0056 C36A     		ldr	r3, [r0, #44]
 4836              	.LVL287:
 4837              		.loc 1 1185 5 view .LVU1678
 4838 0058 6160     		str	r1, [r4, #4]
 4839              	.LVL288:
 4840              		.loc 1 1185 49 is_stmt 1 view .LVU1679
 4841              		.loc 1 1186 5 view .LVU1680
 4842 005a 43F48063 		orr	r3, r3, #1024
 4843 005e 2360     		str	r3, [r4]
ARM GAS  C:\Users\DEVELO~1\AppData\Local\Temp\ccJK6Gr9.s 			page 86


 4844              		.loc 1 1186 72 view .LVU1681
 4845              		.loc 1 1188 5 view .LVU1682
 4846 0060 836A     		ldr	r3, [r0, #40]
 4847 0062 1B68     		ldr	r3, [r3]
 4848 0064 DA60     		str	r2, [r3, #12]
 4849              		.loc 1 1188 45 view .LVU1683
 4850              		.loc 1 1189 5 view .LVU1684
 4851              		.loc 1 1190 5 is_stmt 0 view .LVU1685
 4852 0066 026B     		ldr	r2, [r0, #48]
 4853              	.LVL289:
 4854              		.loc 1 1189 5 view .LVU1686
 4855 0068 5960     		str	r1, [r3, #4]
 4856              	.LVL290:
 4857              		.loc 1 1189 49 is_stmt 1 view .LVU1687
 4858              		.loc 1 1190 5 view .LVU1688
 4859 006a 42F48062 		orr	r2, r2, #1024
 4860 006e DAE7     		b	.L310
 4861              		.cfi_endproc
 4862              	.LFE470:
 4863              		.size	spi_lld_exchange, .-spi_lld_exchange
 4864              		.section	.text.spi_lld_send,"ax",%progbits
 4865              		.align	1
 4866              		.p2align 2,,3
 4867              		.global	spi_lld_send
 4868              		.syntax unified
 4869              		.thumb
 4870              		.thumb_func
 4871              		.type	spi_lld_send, %function
 4872              	spi_lld_send:
 4873              	.LVL291:
 4874              	.LFB471:
 4875              		.loc 1 1216 66 view -0
 4876              		.cfi_startproc
 4877              		@ args = 0, pretend = 0, frame = 0
 4878              		@ frame_needed = 0, uses_anonymous_args = 0
 4879              		@ link register save eliminated.
 4880              		.loc 1 1218 3 view .LVU1690
 4881              		.loc 1 1218 3 view .LVU1691
 4882              		.loc 1 1218 3 view .LVU1692
 4883              		.loc 1 1221 3 view .LVU1693
 4884              		.loc 1 1221 6 is_stmt 0 view .LVU1694
 4885 0000 90F82030 		ldrb	r3, [r0, #32]	@ zero_extendqisi2
 4886              		.loc 1 1216 66 view .LVU1695
 4887 0004 10B4     		push	{r4}
 4888              		.cfi_def_cfa_offset 4
 4889              		.cfi_offset 4, -4
 4890              		.loc 1 1225 5 view .LVU1696
 4891 0006 446A     		ldr	r4, [r0, #36]
 4892              		.loc 1 1221 6 view .LVU1697
 4893 0008 13B3     		cbz	r3, .L312
 4894              		.loc 1 1225 5 is_stmt 1 view .LVU1698
 4895 000a 6468     		ldr	r4, [r4, #4]
 4896 000c 00F13403 		add	r3, r0, #52
 4897 0010 E360     		str	r3, [r4, #12]
 4898              		.loc 1 1225 54 view .LVU1699
 4899              		.loc 1 1226 5 view .LVU1700
 4900              		.loc 1 1227 5 is_stmt 0 view .LVU1701
ARM GAS  C:\Users\DEVELO~1\AppData\Local\Temp\ccJK6Gr9.s 			page 87


 4901 0012 C36A     		ldr	r3, [r0, #44]
 4902              		.loc 1 1226 5 view .LVU1702
 4903 0014 6160     		str	r1, [r4, #4]
 4904              		.loc 1 1226 51 is_stmt 1 view .LVU1703
 4905              		.loc 1 1227 5 view .LVU1704
 4906 0016 2360     		str	r3, [r4]
 4907              		.loc 1 1227 54 view .LVU1705
 4908              		.loc 1 1229 5 view .LVU1706
 4909 0018 836A     		ldr	r3, [r0, #40]
 4910 001a 5B68     		ldr	r3, [r3, #4]
 4911 001c DA60     		str	r2, [r3, #12]
 4912              		.loc 1 1229 46 view .LVU1707
 4913              		.loc 1 1230 5 view .LVU1708
 4914              		.loc 1 1231 5 is_stmt 0 view .LVU1709
 4915 001e 026B     		ldr	r2, [r0, #48]
 4916              	.LVL292:
 4917              		.loc 1 1230 5 view .LVU1710
 4918 0020 5960     		str	r1, [r3, #4]
 4919              	.LVL293:
 4920              		.loc 1 1230 51 is_stmt 1 view .LVU1711
 4921              		.loc 1 1231 5 view .LVU1712
 4922 0022 42F08002 		orr	r2, r2, #128
 4923              	.L316:
 4924              		.loc 1 1248 5 is_stmt 0 view .LVU1713
 4925 0026 1A60     		str	r2, [r3]
 4926              		.loc 1 1248 72 is_stmt 1 view .LVU1714
 4927              		.loc 1 1250 5 view .LVU1715
 4928 0028 2268     		ldr	r2, [r4]
 4929 002a 42F00102 		orr	r2, r2, #1
 4930 002e 2260     		str	r2, [r4]
 4931              		.loc 1 1250 34 view .LVU1716
 4932              		.loc 1 1251 5 view .LVU1717
 4933              		.loc 1 1251 34 view .LVU1718
 4934              		.loc 1 1255 3 view .LVU1719
 4935              	.LVL294:
 4936              	.LBB817:
 4937              	.LBI817:
 4938              		.loc 1 118 13 view .LVU1720
 4939              	.LBB818:
 4940              		.loc 1 120 3 view .LVU1721
 4941              	.LBE818:
 4942              	.LBE817:
 4943              		.loc 1 1251 5 is_stmt 0 view .LVU1722
 4944 0030 1A68     		ldr	r2, [r3]
 4945 0032 42F00102 		orr	r2, r2, #1
 4946 0036 1A60     		str	r2, [r3]
 4947              	.LBB822:
 4948              	.LBB821:
 4949              		.loc 1 120 20 view .LVU1723
 4950 0038 4368     		ldr	r3, [r0, #4]
 4951              		.loc 1 120 6 view .LVU1724
 4952 003a 5B78     		ldrb	r3, [r3, #1]	@ zero_extendqisi2
 4953 003c 23B9     		cbnz	r3, .L314
 4954 003e C269     		ldr	r2, [r0, #28]
 4955              	.LBB819:
 4956              	.LBI819:
 4957              		.loc 1 118 13 is_stmt 1 view .LVU1725
ARM GAS  C:\Users\DEVELO~1\AppData\Local\Temp\ccJK6Gr9.s 			page 88


 4958              	.LVL295:
 4959              	.LBB820:
 4960              		.loc 1 121 5 view .LVU1726
 4961              		.loc 1 121 20 is_stmt 0 view .LVU1727
 4962 0040 1368     		ldr	r3, [r2]
 4963 0042 43F40073 		orr	r3, r3, #512
 4964 0046 1360     		str	r3, [r2]
 4965              	.L314:
 4966              	.LVL296:
 4967              		.loc 1 121 20 view .LVU1728
 4968              	.LBE820:
 4969              	.LBE819:
 4970              	.LBE821:
 4971              	.LBE822:
 4972              		.loc 1 1257 3 is_stmt 1 view .LVU1729
 4973              		.loc 1 1258 1 is_stmt 0 view .LVU1730
 4974 0048 0020     		movs	r0, #0
 4975              	.LVL297:
 4976              		.loc 1 1258 1 view .LVU1731
 4977 004a 5DF8044B 		ldr	r4, [sp], #4
 4978              		.cfi_remember_state
 4979              		.cfi_restore 4
 4980              		.cfi_def_cfa_offset 0
 4981 004e 7047     		bx	lr
 4982              	.LVL298:
 4983              	.L312:
 4984              		.cfi_restore_state
 4985              		.loc 1 1242 5 is_stmt 1 view .LVU1732
 4986 0050 2468     		ldr	r4, [r4]
 4987 0052 00F13403 		add	r3, r0, #52
 4988 0056 E360     		str	r3, [r4, #12]
 4989              		.loc 1 1242 53 view .LVU1733
 4990              		.loc 1 1243 5 view .LVU1734
 4991              		.loc 1 1244 5 is_stmt 0 view .LVU1735
 4992 0058 C36A     		ldr	r3, [r0, #44]
 4993              		.loc 1 1243 5 view .LVU1736
 4994 005a 6160     		str	r1, [r4, #4]
 4995              		.loc 1 1243 49 is_stmt 1 view .LVU1737
 4996              		.loc 1 1244 5 view .LVU1738
 4997 005c 2360     		str	r3, [r4]
 4998              		.loc 1 1244 52 view .LVU1739
 4999              		.loc 1 1246 5 view .LVU1740
 5000 005e 836A     		ldr	r3, [r0, #40]
 5001 0060 1B68     		ldr	r3, [r3]
 5002 0062 DA60     		str	r2, [r3, #12]
 5003              		.loc 1 1246 45 view .LVU1741
 5004              		.loc 1 1247 5 view .LVU1742
 5005              		.loc 1 1248 5 is_stmt 0 view .LVU1743
 5006 0064 026B     		ldr	r2, [r0, #48]
 5007              	.LVL299:
 5008              		.loc 1 1247 5 view .LVU1744
 5009 0066 5960     		str	r1, [r3, #4]
 5010              	.LVL300:
 5011              		.loc 1 1247 49 is_stmt 1 view .LVU1745
 5012              		.loc 1 1248 5 view .LVU1746
 5013 0068 42F48062 		orr	r2, r2, #1024
 5014 006c DBE7     		b	.L316
ARM GAS  C:\Users\DEVELO~1\AppData\Local\Temp\ccJK6Gr9.s 			page 89


 5015              		.cfi_endproc
 5016              	.LFE471:
 5017              		.size	spi_lld_send, .-spi_lld_send
 5018 006e 00BF     		.section	.text.spi_lld_receive,"ax",%progbits
 5019              		.align	1
 5020              		.p2align 2,,3
 5021              		.global	spi_lld_receive
 5022              		.syntax unified
 5023              		.thumb
 5024              		.thumb_func
 5025              		.type	spi_lld_receive, %function
 5026              	spi_lld_receive:
 5027              	.LVL301:
 5028              	.LFB472:
 5029              		.loc 1 1274 63 view -0
 5030              		.cfi_startproc
 5031              		@ args = 0, pretend = 0, frame = 0
 5032              		@ frame_needed = 0, uses_anonymous_args = 0
 5033              		@ link register save eliminated.
 5034              		.loc 1 1276 3 view .LVU1748
 5035              		.loc 1 1276 3 view .LVU1749
 5036              		.loc 1 1276 3 view .LVU1750
 5037              		.loc 1 1279 3 view .LVU1751
 5038              		.loc 1 1279 6 is_stmt 0 view .LVU1752
 5039 0000 90F82030 		ldrb	r3, [r0, #32]	@ zero_extendqisi2
 5040              		.loc 1 1274 63 view .LVU1753
 5041 0004 10B4     		push	{r4}
 5042              		.cfi_def_cfa_offset 4
 5043              		.cfi_offset 4, -4
 5044              		.loc 1 1283 5 view .LVU1754
 5045 0006 446A     		ldr	r4, [r0, #36]
 5046              		.loc 1 1279 6 view .LVU1755
 5047 0008 13B3     		cbz	r3, .L318
 5048              		.loc 1 1283 5 is_stmt 1 view .LVU1756
 5049              		.loc 1 1285 5 is_stmt 0 view .LVU1757
 5050 000a C36A     		ldr	r3, [r0, #44]
 5051              		.loc 1 1283 5 view .LVU1758
 5052 000c 6468     		ldr	r4, [r4, #4]
 5053              		.loc 1 1285 5 view .LVU1759
 5054 000e 43F08003 		orr	r3, r3, #128
 5055              		.loc 1 1283 5 view .LVU1760
 5056 0012 E260     		str	r2, [r4, #12]
 5057              		.loc 1 1283 46 is_stmt 1 view .LVU1761
 5058              		.loc 1 1284 5 view .LVU1762
 5059              		.loc 1 1287 5 is_stmt 0 view .LVU1763
 5060 0014 00F13802 		add	r2, r0, #56
 5061              	.LVL302:
 5062              		.loc 1 1284 5 view .LVU1764
 5063 0018 6160     		str	r1, [r4, #4]
 5064              	.LVL303:
 5065              		.loc 1 1284 51 is_stmt 1 view .LVU1765
 5066              		.loc 1 1285 5 view .LVU1766
 5067 001a 2360     		str	r3, [r4]
 5068              		.loc 1 1285 75 view .LVU1767
 5069              		.loc 1 1287 5 view .LVU1768
 5070 001c 836A     		ldr	r3, [r0, #40]
 5071 001e 5B68     		ldr	r3, [r3, #4]
ARM GAS  C:\Users\DEVELO~1\AppData\Local\Temp\ccJK6Gr9.s 			page 90


 5072              	.L322:
 5073              		.loc 1 1304 5 is_stmt 0 view .LVU1769
 5074 0020 DA60     		str	r2, [r3, #12]
 5075              		.loc 1 1304 55 is_stmt 1 view .LVU1770
 5076              		.loc 1 1305 5 view .LVU1771
 5077              		.loc 1 1306 5 is_stmt 0 view .LVU1772
 5078 0022 026B     		ldr	r2, [r0, #48]
 5079              		.loc 1 1305 5 view .LVU1773
 5080 0024 5960     		str	r1, [r3, #4]
 5081              		.loc 1 1305 49 is_stmt 1 view .LVU1774
 5082              		.loc 1 1306 5 view .LVU1775
 5083 0026 1A60     		str	r2, [r3]
 5084              		.loc 1 1306 52 view .LVU1776
 5085              		.loc 1 1308 5 view .LVU1777
 5086 0028 2268     		ldr	r2, [r4]
 5087 002a 42F00102 		orr	r2, r2, #1
 5088 002e 2260     		str	r2, [r4]
 5089              		.loc 1 1308 34 view .LVU1778
 5090              		.loc 1 1309 5 view .LVU1779
 5091              		.loc 1 1309 34 view .LVU1780
 5092              		.loc 1 1313 3 view .LVU1781
 5093              	.LVL304:
 5094              	.LBB827:
 5095              	.LBI827:
 5096              		.loc 1 118 13 view .LVU1782
 5097              	.LBB828:
 5098              		.loc 1 120 3 view .LVU1783
 5099              	.LBE828:
 5100              	.LBE827:
 5101              		.loc 1 1309 5 is_stmt 0 view .LVU1784
 5102 0030 1A68     		ldr	r2, [r3]
 5103 0032 42F00102 		orr	r2, r2, #1
 5104 0036 1A60     		str	r2, [r3]
 5105              	.LBB832:
 5106              	.LBB831:
 5107              		.loc 1 120 20 view .LVU1785
 5108 0038 4368     		ldr	r3, [r0, #4]
 5109              		.loc 1 120 6 view .LVU1786
 5110 003a 5B78     		ldrb	r3, [r3, #1]	@ zero_extendqisi2
 5111 003c 23B9     		cbnz	r3, .L320
 5112 003e C269     		ldr	r2, [r0, #28]
 5113              	.LBB829:
 5114              	.LBI829:
 5115              		.loc 1 118 13 is_stmt 1 view .LVU1787
 5116              	.LVL305:
 5117              	.LBB830:
 5118              		.loc 1 121 5 view .LVU1788
 5119              		.loc 1 121 20 is_stmt 0 view .LVU1789
 5120 0040 1368     		ldr	r3, [r2]
 5121 0042 43F40073 		orr	r3, r3, #512
 5122 0046 1360     		str	r3, [r2]
 5123              	.L320:
 5124              	.LVL306:
 5125              		.loc 1 121 20 view .LVU1790
 5126              	.LBE830:
 5127              	.LBE829:
 5128              	.LBE831:
ARM GAS  C:\Users\DEVELO~1\AppData\Local\Temp\ccJK6Gr9.s 			page 91


 5129              	.LBE832:
 5130              		.loc 1 1315 3 is_stmt 1 view .LVU1791
 5131              		.loc 1 1316 1 is_stmt 0 view .LVU1792
 5132 0048 0020     		movs	r0, #0
 5133              	.LVL307:
 5134              		.loc 1 1316 1 view .LVU1793
 5135 004a 5DF8044B 		ldr	r4, [sp], #4
 5136              		.cfi_remember_state
 5137              		.cfi_restore 4
 5138              		.cfi_def_cfa_offset 0
 5139 004e 7047     		bx	lr
 5140              	.LVL308:
 5141              	.L318:
 5142              		.cfi_restore_state
 5143              		.loc 1 1300 5 is_stmt 1 view .LVU1794
 5144              		.loc 1 1302 5 is_stmt 0 view .LVU1795
 5145 0050 C36A     		ldr	r3, [r0, #44]
 5146              		.loc 1 1300 5 view .LVU1796
 5147 0052 2468     		ldr	r4, [r4]
 5148              		.loc 1 1302 5 view .LVU1797
 5149 0054 43F48063 		orr	r3, r3, #1024
 5150              		.loc 1 1300 5 view .LVU1798
 5151 0058 E260     		str	r2, [r4, #12]
 5152              		.loc 1 1300 45 is_stmt 1 view .LVU1799
 5153              		.loc 1 1301 5 view .LVU1800
 5154              		.loc 1 1304 5 is_stmt 0 view .LVU1801
 5155 005a 00F13802 		add	r2, r0, #56
 5156              	.LVL309:
 5157              		.loc 1 1301 5 view .LVU1802
 5158 005e 6160     		str	r1, [r4, #4]
 5159              	.LVL310:
 5160              		.loc 1 1301 49 is_stmt 1 view .LVU1803
 5161              		.loc 1 1302 5 view .LVU1804
 5162 0060 2360     		str	r3, [r4]
 5163              		.loc 1 1302 72 view .LVU1805
 5164              		.loc 1 1304 5 view .LVU1806
 5165 0062 836A     		ldr	r3, [r0, #40]
 5166 0064 1B68     		ldr	r3, [r3]
 5167 0066 DBE7     		b	.L322
 5168              		.cfi_endproc
 5169              	.LFE472:
 5170              		.size	spi_lld_receive, .-spi_lld_receive
 5171              		.section	.text.spi_lld_stop_transfer,"ax",%progbits
 5172              		.align	1
 5173              		.p2align 2,,3
 5174              		.global	spi_lld_stop_transfer
 5175              		.syntax unified
 5176              		.thumb
 5177              		.thumb_func
 5178              		.type	spi_lld_stop_transfer, %function
 5179              	spi_lld_stop_transfer:
 5180              	.LVL311:
 5181              	.LFB473:
 5182              		.loc 1 1328 61 view -0
 5183              		.cfi_startproc
 5184              		@ args = 0, pretend = 0, frame = 0
 5185              		@ frame_needed = 0, uses_anonymous_args = 0
ARM GAS  C:\Users\DEVELO~1\AppData\Local\Temp\ccJK6Gr9.s 			page 92


 5186              		.loc 1 1329 3 view .LVU1808
 5187              		.loc 1 1332 3 view .LVU1809
 5188              		.loc 1 1328 61 is_stmt 0 view .LVU1810
 5189 0000 38B5     		push	{r3, r4, r5, lr}
 5190              		.cfi_def_cfa_offset 16
 5191              		.cfi_offset 3, -16
 5192              		.cfi_offset 4, -12
 5193              		.cfi_offset 5, -8
 5194              		.cfi_offset 14, -4
 5195              		.loc 1 1328 61 view .LVU1811
 5196 0002 0C46     		mov	r4, r1
 5197 0004 0546     		mov	r5, r0
 5198              		.loc 1 1332 9 view .LVU1812
 5199 0006 FFF7FEFF 		bl	spi_lld_stop_nicely
 5200              	.LVL312:
 5201              		.loc 1 1334 3 is_stmt 1 view .LVU1813
 5202              		.loc 1 1334 6 is_stmt 0 view .LVU1814
 5203 000a 34B1     		cbz	r4, .L323
 5204              		.loc 1 1336 5 is_stmt 1 view .LVU1815
 5205              		.loc 1 1336 8 is_stmt 0 view .LVU1816
 5206 000c 95F82030 		ldrb	r3, [r5, #32]	@ zero_extendqisi2
 5207 0010 23B1     		cbz	r3, .L325
 5208              		.loc 1 1340 7 is_stmt 1 view .LVU1817
 5209              		.loc 1 1340 16 is_stmt 0 view .LVU1818
 5210 0012 6B6A     		ldr	r3, [r5, #36]
 5211 0014 5B68     		ldr	r3, [r3, #4]
 5212 0016 5B68     		ldr	r3, [r3, #4]
 5213              		.loc 1 1340 14 view .LVU1819
 5214 0018 2360     		str	r3, [r4]
 5215              	.L323:
 5216              		.loc 1 1354 1 view .LVU1820
 5217 001a 38BD     		pop	{r3, r4, r5, pc}
 5218              	.LVL313:
 5219              	.L325:
 5220              		.loc 1 1348 7 is_stmt 1 view .LVU1821
 5221              		.loc 1 1348 16 is_stmt 0 view .LVU1822
 5222 001c 6B6A     		ldr	r3, [r5, #36]
 5223 001e 1B68     		ldr	r3, [r3]
 5224 0020 5B68     		ldr	r3, [r3, #4]
 5225              		.loc 1 1348 14 view .LVU1823
 5226 0022 2360     		str	r3, [r4]
 5227              		.loc 1 1353 3 is_stmt 1 view .LVU1824
 5228              		.loc 1 1354 1 is_stmt 0 view .LVU1825
 5229 0024 38BD     		pop	{r3, r4, r5, pc}
 5230              		.loc 1 1354 1 view .LVU1826
 5231              		.cfi_endproc
 5232              	.LFE473:
 5233              		.size	spi_lld_stop_transfer, .-spi_lld_stop_transfer
 5234 0026 00BF     		.section	.text.spi_lld_polled_exchange,"ax",%progbits
 5235              		.align	1
 5236              		.p2align 2,,3
 5237              		.global	spi_lld_polled_exchange
 5238              		.syntax unified
 5239              		.thumb
 5240              		.thumb_func
 5241              		.type	spi_lld_polled_exchange, %function
 5242              	spi_lld_polled_exchange:
ARM GAS  C:\Users\DEVELO~1\AppData\Local\Temp\ccJK6Gr9.s 			page 93


 5243              	.LVL314:
 5244              	.LFB474:
 5245              		.loc 1 1370 67 is_stmt 1 view -0
 5246              		.cfi_startproc
 5247              		@ args = 0, pretend = 0, frame = 0
 5248              		@ frame_needed = 0, uses_anonymous_args = 0
 5249              		@ link register save eliminated.
 5250              		.loc 1 1371 3 view .LVU1828
 5251              		.loc 1 1371 25 is_stmt 0 view .LVU1829
 5252 0000 C369     		ldr	r3, [r0, #28]
 5253              		.loc 1 1370 67 view .LVU1830
 5254 0002 10B4     		push	{r4}
 5255              		.cfi_def_cfa_offset 4
 5256              		.cfi_offset 4, -4
 5257              		.loc 1 1371 30 view .LVU1831
 5258 0004 9A68     		ldr	r2, [r3, #8]
 5259              	.LBB841:
 5260              	.LBB842:
 5261              		.loc 1 120 20 view .LVU1832
 5262 0006 4468     		ldr	r4, [r0, #4]
 5263              	.LBE842:
 5264              	.LBE841:
 5265              		.loc 1 1371 37 view .LVU1833
 5266 0008 02F01F0C 		and	ip, r2, #31
 5267              	.LBB847:
 5268              	.LBB845:
 5269              		.loc 1 120 20 view .LVU1834
 5270 000c 6478     		ldrb	r4, [r4, #1]	@ zero_extendqisi2
 5271              	.LBE845:
 5272              	.LBE847:
 5273              		.loc 1 1371 12 view .LVU1835
 5274 000e 0CF1010C 		add	ip, ip, #1
 5275              	.LVL315:
 5276              		.loc 1 1372 3 is_stmt 1 view .LVU1836
 5277              		.loc 1 1374 3 view .LVU1837
 5278              	.LBB848:
 5279              	.LBI841:
 5280              		.loc 1 118 13 view .LVU1838
 5281              	.LBB846:
 5282              		.loc 1 120 3 view .LVU1839
 5283              		.loc 1 120 6 is_stmt 0 view .LVU1840
 5284 0012 1CB9     		cbnz	r4, .L332
 5285              	.LBB843:
 5286              	.LBI843:
 5287              		.loc 1 118 13 is_stmt 1 view .LVU1841
 5288              	.LVL316:
 5289              	.LBB844:
 5290              		.loc 1 121 5 view .LVU1842
 5291              		.loc 1 121 20 is_stmt 0 view .LVU1843
 5292 0014 1A68     		ldr	r2, [r3]
 5293 0016 42F40072 		orr	r2, r2, #512
 5294 001a 1A60     		str	r2, [r3]
 5295              	.LVL317:
 5296              	.L332:
 5297              		.loc 1 121 20 view .LVU1844
 5298              	.LBE844:
 5299              	.LBE843:
ARM GAS  C:\Users\DEVELO~1\AppData\Local\Temp\ccJK6Gr9.s 			page 94


 5300              	.LBE846:
 5301              	.LBE848:
 5302              		.loc 1 1377 39 is_stmt 1 discriminator 1 view .LVU1845
 5303              		.loc 1 1377 20 is_stmt 0 discriminator 1 view .LVU1846
 5304 001c 5A69     		ldr	r2, [r3, #20]
 5305              		.loc 1 1377 39 discriminator 1 view .LVU1847
 5306 001e 9207     		lsls	r2, r2, #30
 5307 0020 FCD5     		bpl	.L332
 5308              		.loc 1 1382 3 is_stmt 1 view .LVU1848
 5309              		.loc 1 1382 6 is_stmt 0 view .LVU1849
 5310 0022 BCF1080F 		cmp	ip, #8
 5311 0026 19D8     		bhi	.L333
 5312              	.LBB849:
 5313              		.loc 1 1384 5 is_stmt 1 view .LVU1850
 5314              	.LVL318:
 5315              		.loc 1 1385 5 view .LVU1851
 5316              		.loc 1 1386 5 view .LVU1852
 5317              		.loc 1 1386 15 is_stmt 0 view .LVU1853
 5318 0028 C9B2     		uxtb	r1, r1
 5319              	.LVL319:
 5320              		.loc 1 1386 13 view .LVU1854
 5321 002a 83F82010 		strb	r1, [r3, #32]
 5322              		.loc 1 1387 5 is_stmt 1 view .LVU1855
 5323              		.loc 1 1387 17 is_stmt 0 view .LVU1856
 5324 002e C269     		ldr	r2, [r0, #28]
 5325              	.L334:
 5326              		.loc 1 1387 41 is_stmt 1 discriminator 1 view .LVU1857
 5327              		.loc 1 1387 22 is_stmt 0 discriminator 1 view .LVU1858
 5328 0030 5169     		ldr	r1, [r2, #20]
 5329              		.loc 1 1387 41 discriminator 1 view .LVU1859
 5330 0032 CC07     		lsls	r4, r1, #31
 5331 0034 FCD5     		bpl	.L334
 5332              		.loc 1 1389 5 is_stmt 1 view .LVU1860
 5333              	.LBE849:
 5334              	.LBB850:
 5335              	.LBB851:
 5336              		.loc 1 127 20 is_stmt 0 view .LVU1861
 5337 0036 4168     		ldr	r1, [r0, #4]
 5338              	.LBE851:
 5339              	.LBE850:
 5340              	.LBB855:
 5341              		.loc 1 1389 25 view .LVU1862
 5342 0038 93F83030 		ldrb	r3, [r3, #48]	@ zero_extendqisi2
 5343              	.LVL320:
 5344              		.loc 1 1389 25 view .LVU1863
 5345              	.LBE855:
 5346              	.LBB856:
 5347              	.LBB852:
 5348              		.loc 1 127 20 view .LVU1864
 5349 003c 4C78     		ldrb	r4, [r1, #1]	@ zero_extendqisi2
 5350              	.LBE852:
 5351              	.LBE856:
 5352              	.LBB857:
 5353              		.loc 1 1389 25 view .LVU1865
 5354 003e D8B2     		uxtb	r0, r3
 5355              	.LVL321:
 5356              	.L335:
ARM GAS  C:\Users\DEVELO~1\AppData\Local\Temp\ccJK6Gr9.s 			page 95


 5357              		.loc 1 1389 25 view .LVU1866
 5358              	.LBE857:
 5359              		.loc 1 1408 3 is_stmt 1 view .LVU1867
 5360              	.LBB858:
 5361              	.LBI850:
 5362              		.loc 1 125 13 view .LVU1868
 5363              	.LBB853:
 5364              		.loc 1 127 3 view .LVU1869
 5365              		.loc 1 127 6 is_stmt 0 view .LVU1870
 5366 0040 34B9     		cbnz	r4, .L341
 5367              		.loc 1 128 5 is_stmt 1 view .LVU1871
 5368              		.loc 1 128 20 is_stmt 0 view .LVU1872
 5369 0042 1368     		ldr	r3, [r2]
 5370 0044 43F48063 		orr	r3, r3, #1024
 5371 0048 1360     		str	r3, [r2]
 5372              		.loc 1 129 5 is_stmt 1 view .LVU1873
 5373              	.L340:
 5374              		.loc 1 130 5 view .LVU1874
 5375              		.loc 1 129 46 view .LVU1875
 5376              		.loc 1 129 22 is_stmt 0 view .LVU1876
 5377 004a 1368     		ldr	r3, [r2]
 5378              		.loc 1 129 46 view .LVU1877
 5379 004c 9B05     		lsls	r3, r3, #22
 5380 004e FCD4     		bmi	.L340
 5381              	.L341:
 5382              		.loc 1 132 3 is_stmt 1 view .LVU1878
 5383              		.loc 1 132 19 is_stmt 0 view .LVU1879
 5384 0050 4FF0FF33 		mov	r3, #-1
 5385              	.LBE853:
 5386              	.LBE858:
 5387              		.loc 1 1412 1 view .LVU1880
 5388 0054 5DF8044B 		ldr	r4, [sp], #4
 5389              		.cfi_remember_state
 5390              		.cfi_restore 4
 5391              		.cfi_def_cfa_offset 0
 5392              	.LBB859:
 5393              	.LBB854:
 5394              		.loc 1 132 19 view .LVU1881
 5395 0058 9361     		str	r3, [r2, #24]
 5396              	.LVL322:
 5397              		.loc 1 132 19 view .LVU1882
 5398              	.LBE854:
 5399              	.LBE859:
 5400              		.loc 1 1411 3 is_stmt 1 view .LVU1883
 5401              		.loc 1 1412 1 is_stmt 0 view .LVU1884
 5402 005a 7047     		bx	lr
 5403              	.LVL323:
 5404              	.L333:
 5405              		.cfi_restore_state
 5406              		.loc 1 1391 8 is_stmt 1 view .LVU1885
 5407              		.loc 1 1391 11 is_stmt 0 view .LVU1886
 5408 005c BCF1100F 		cmp	ip, #16
 5409 0060 08D8     		bhi	.L336
 5410              	.LBB860:
 5411              		.loc 1 1393 5 is_stmt 1 view .LVU1887
 5412              	.LVL324:
 5413              		.loc 1 1394 5 view .LVU1888
ARM GAS  C:\Users\DEVELO~1\AppData\Local\Temp\ccJK6Gr9.s 			page 96


 5414              		.loc 1 1395 5 view .LVU1889
 5415              		.loc 1 1395 16 is_stmt 0 view .LVU1890
 5416 0062 89B2     		uxth	r1, r1
 5417              	.LVL325:
 5418              		.loc 1 1395 14 view .LVU1891
 5419 0064 1984     		strh	r1, [r3, #32]	@ movhi
 5420              		.loc 1 1396 5 is_stmt 1 view .LVU1892
 5421              	.L337:
 5422              		.loc 1 1396 41 discriminator 1 view .LVU1893
 5423              		.loc 1 1396 22 is_stmt 0 discriminator 1 view .LVU1894
 5424 0066 5A69     		ldr	r2, [r3, #20]
 5425              		.loc 1 1396 41 discriminator 1 view .LVU1895
 5426 0068 D107     		lsls	r1, r2, #31
 5427 006a FCD5     		bpl	.L337
 5428              		.loc 1 1398 5 is_stmt 1 view .LVU1896
 5429              		.loc 1 1398 25 is_stmt 0 view .LVU1897
 5430 006c 188E     		ldrh	r0, [r3, #48]
 5431              	.LVL326:
 5432              		.loc 1 1398 25 view .LVU1898
 5433              	.LBE860:
 5434 006e 1A46     		mov	r2, r3
 5435              	.LBB861:
 5436 0070 80B2     		uxth	r0, r0
 5437              	.LVL327:
 5438              		.loc 1 1398 25 view .LVU1899
 5439              	.LBE861:
 5440 0072 E5E7     		b	.L335
 5441              	.LVL328:
 5442              	.L336:
 5443              		.loc 1 1402 5 is_stmt 1 view .LVU1900
 5444              		.loc 1 1402 21 is_stmt 0 view .LVU1901
 5445 0074 1962     		str	r1, [r3, #32]
 5446              		.loc 1 1403 5 is_stmt 1 view .LVU1902
 5447              	.L338:
 5448              		.loc 1 1403 41 discriminator 1 view .LVU1903
 5449              		.loc 1 1403 22 is_stmt 0 discriminator 1 view .LVU1904
 5450 0076 5A69     		ldr	r2, [r3, #20]
 5451              		.loc 1 1403 41 discriminator 1 view .LVU1905
 5452 0078 D207     		lsls	r2, r2, #31
 5453 007a FCD5     		bpl	.L338
 5454              		.loc 1 1405 5 is_stmt 1 view .LVU1906
 5455              		.loc 1 1405 13 is_stmt 0 view .LVU1907
 5456 007c 186B     		ldr	r0, [r3, #48]
 5457              	.LVL329:
 5458              		.loc 1 1405 13 view .LVU1908
 5459 007e 1A46     		mov	r2, r3
 5460 0080 DEE7     		b	.L335
 5461              		.cfi_endproc
 5462              	.LFE474:
 5463              		.size	spi_lld_polled_exchange, .-spi_lld_polled_exchange
 5464              		.global	SPID6
 5465              		.global	SPID5
 5466              		.global	SPID4
 5467              		.global	SPID3
 5468              		.global	SPID2
 5469              		.global	SPID1
 5470 0082 00BF     		.section	.bss.SPID1,"aw",%nobits
ARM GAS  C:\Users\DEVELO~1\AppData\Local\Temp\ccJK6Gr9.s 			page 97


 5471              		.align	2
 5472              		.set	.LANCHOR0,. + 0
 5473              		.type	SPID1, %object
 5474              		.size	SPID1, 60
 5475              	SPID1:
 5476 0000 00000000 		.space	60
 5476      00000000 
 5476      00000000 
 5476      00000000 
 5476      00000000 
 5477              		.section	.bss.SPID2,"aw",%nobits
 5478              		.align	2
 5479              		.set	.LANCHOR1,. + 0
 5480              		.type	SPID2, %object
 5481              		.size	SPID2, 60
 5482              	SPID2:
 5483 0000 00000000 		.space	60
 5483      00000000 
 5483      00000000 
 5483      00000000 
 5483      00000000 
 5484              		.section	.bss.SPID3,"aw",%nobits
 5485              		.align	2
 5486              		.set	.LANCHOR2,. + 0
 5487              		.type	SPID3, %object
 5488              		.size	SPID3, 60
 5489              	SPID3:
 5490 0000 00000000 		.space	60
 5490      00000000 
 5490      00000000 
 5490      00000000 
 5490      00000000 
 5491              		.section	.bss.SPID4,"aw",%nobits
 5492              		.align	2
 5493              		.set	.LANCHOR3,. + 0
 5494              		.type	SPID4, %object
 5495              		.size	SPID4, 60
 5496              	SPID4:
 5497 0000 00000000 		.space	60
 5497      00000000 
 5497      00000000 
 5497      00000000 
 5497      00000000 
 5498              		.section	.bss.SPID5,"aw",%nobits
 5499              		.align	2
 5500              		.set	.LANCHOR4,. + 0
 5501              		.type	SPID5, %object
 5502              		.size	SPID5, 60
 5503              	SPID5:
 5504 0000 00000000 		.space	60
 5504      00000000 
 5504      00000000 
 5504      00000000 
 5504      00000000 
 5505              		.section	.bss.SPID6,"aw",%nobits
 5506              		.align	2
 5507              		.set	.LANCHOR5,. + 0
ARM GAS  C:\Users\DEVELO~1\AppData\Local\Temp\ccJK6Gr9.s 			page 98


 5508              		.type	SPID6, %object
 5509              		.size	SPID6, 60
 5510              	SPID6:
 5511 0000 00000000 		.space	60
 5511      00000000 
 5511      00000000 
 5511      00000000 
 5511      00000000 
 5512              		.section	.rodata.__func__.0,"a"
 5513              		.align	2
 5514              		.set	.LANCHOR11,. + 0
 5515              		.type	__func__.0, %object
 5516              		.size	__func__.0, 10
 5517              	__func__.0:
 5518 0000 56656374 		.ascii	"Vector198\000"
 5518      6F723139 
 5518      3800
 5519              		.section	.rodata.__func__.1,"a"
 5520              		.align	2
 5521              		.set	.LANCHOR10,. + 0
 5522              		.type	__func__.1, %object
 5523              		.size	__func__.1, 10
 5524              	__func__.1:
 5525 0000 56656374 		.ascii	"Vector194\000"
 5525      6F723139 
 5525      3400
 5526              		.section	.rodata.__func__.2,"a"
 5527              		.align	2
 5528              		.set	.LANCHOR9,. + 0
 5529              		.type	__func__.2, %object
 5530              		.size	__func__.2, 10
 5531              	__func__.2:
 5532 0000 56656374 		.ascii	"Vector190\000"
 5532      6F723139 
 5532      3000
 5533              		.section	.rodata.__func__.3,"a"
 5534              		.align	2
 5535              		.set	.LANCHOR8,. + 0
 5536              		.type	__func__.3, %object
 5537              		.size	__func__.3, 10
 5538              	__func__.3:
 5539 0000 56656374 		.ascii	"Vector10C\000"
 5539      6F723130 
 5539      4300
 5540              		.section	.rodata.__func__.4,"a"
 5541              		.align	2
 5542              		.set	.LANCHOR7,. + 0
 5543              		.type	__func__.4, %object
 5544              		.size	__func__.4, 9
 5545              	__func__.4:
 5546 0000 56656374 		.ascii	"VectorD0\000"
 5546      6F724430 
 5546      00
 5547              		.section	.rodata.__func__.5,"a"
 5548              		.align	2
 5549              		.set	.LANCHOR6,. + 0
 5550              		.type	__func__.5, %object
ARM GAS  C:\Users\DEVELO~1\AppData\Local\Temp\ccJK6Gr9.s 			page 99


 5551              		.size	__func__.5, 9
 5552              	__func__.5:
 5553 0000 56656374 		.ascii	"VectorCC\000"
 5553      6F724343 
 5553      00
 5554              		.text
 5555              	.Letext0:
 5556              		.file 7 "c:\\chibistudio\\tools\\gnu tools arm embedded\\11.3 2022.08\\lib\\gcc\\arm-none-eabi\\11
 5557              		.file 8 "c:\\chibistudio\\tools\\gnu tools arm embedded\\11.3 2022.08\\arm-none-eabi\\include\\mac
 5558              		.file 9 "c:\\chibistudio\\tools\\gnu tools arm embedded\\11.3 2022.08\\arm-none-eabi\\include\\sys
 5559              		.file 10 "c:\\chibistudio\\tools\\gnu tools arm embedded\\11.3 2022.08\\arm-none-eabi\\include\\st
 5560              		.file 11 "../../../os/common/ports/ARM-common/include/chtypes.h"
 5561              		.file 12 "../../../os/rt/include/chearly.h"
 5562              		.file 13 "../../../os/rt/include/chobjects.h"
 5563              		.file 14 "../../../os/rt/include/chrfcu.h"
 5564              		.file 15 "../../../os/rt/include/chdebug.h"
 5565              		.file 16 "../../../os/rt/include/chtime.h"
 5566              		.file 17 "../../../os/rt/include/chtrace.h"
 5567              		.file 18 "../../../os/common/ext/ST/STM32H7xx/stm32h743xx.h"
 5568              		.file 19 "../../../os/rt/include/chlists.h"
 5569              		.file 20 "../../../os/rt/include/chsem.h"
 5570              		.file 21 "../../../os/rt/include/chmtx.h"
 5571              		.file 22 "../../../os/hal/ports/STM32/LLD/DMAv2/stm32_dma.h"
 5572              		.file 23 "../../../os/hal/ports/STM32/LLD/BDMAv1/stm32_bdma.h"
 5573              		.file 24 "../../../os/hal/ports/STM32/LLD/GPIOv2/stm32_gpio.h"
 5574              		.file 25 "../../../os/hal/ports/STM32/LLD/GPIOv2/hal_pal_lld.h"
 5575              		.file 26 "../../../os/hal/include/hal_spi_v2.h"
 5576              		.file 27 "../../../os/hal/ports/STM32/LLD/SPIv3/hal_spi_v2_lld.h"
 5577              		.file 28 "../../../os/hal/ports/common/ARMCMx/nvic.h"
 5578              		.file 29 "../../../os/rt/include/chthreads.h"
 5579              		.section	.debug_info,"",%progbits
 5580              	.Ldebug_info0:
 5581 0000 F5420000 		.4byte	0x42f5
 5582 0004 0500     		.2byte	0x5
 5583 0006 01       		.byte	0x1
 5584 0007 04       		.byte	0x4
 5585 0008 00000000 		.4byte	.Ldebug_abbrev0
 5586 000c 48       		.uleb128 0x48
 5587 000d F9070000 		.4byte	.LASF345
 5588 0011 1D       		.byte	0x1d
 5589 0012 F20D0000 		.4byte	.LASF346
 5590 0016 39060000 		.4byte	.LASF347
 5591 001a 7B010000 		.4byte	.LLRL198
 5592 001e 00000000 		.4byte	0
 5593 0022 00000000 		.4byte	.Ldebug_line0
 5594 0026 49       		.uleb128 0x49
 5595 0027 04       		.byte	0x4
 5596 0028 05       		.byte	0x5
 5597 0029 696E7400 		.ascii	"int\000"
 5598 002d 08       		.uleb128 0x8
 5599 002e CA040000 		.4byte	.LASF4
 5600 0032 07       		.byte	0x7
 5601 0033 D1       		.byte	0xd1
 5602 0034 17       		.byte	0x17
 5603 0035 39000000 		.4byte	0x39
 5604 0039 13       		.uleb128 0x13
 5605 003a 04       		.byte	0x4
ARM GAS  C:\Users\DEVELO~1\AppData\Local\Temp\ccJK6Gr9.s 			page 100


 5606 003b 07       		.byte	0x7
 5607 003c FA000000 		.4byte	.LASF0
 5608 0040 13       		.uleb128 0x13
 5609 0041 08       		.byte	0x8
 5610 0042 05       		.byte	0x5
 5611 0043 49070000 		.4byte	.LASF1
 5612 0047 13       		.uleb128 0x13
 5613 0048 08       		.byte	0x8
 5614 0049 04       		.byte	0x4
 5615 004a 56090000 		.4byte	.LASF2
 5616 004e 13       		.uleb128 0x13
 5617 004f 01       		.byte	0x1
 5618 0050 06       		.byte	0x6
 5619 0051 CD0D0000 		.4byte	.LASF3
 5620 0055 08       		.uleb128 0x8
 5621 0056 6A0B0000 		.4byte	.LASF5
 5622 005a 08       		.byte	0x8
 5623 005b 2B       		.byte	0x2b
 5624 005c 18       		.byte	0x18
 5625 005d 61000000 		.4byte	0x61
 5626 0061 13       		.uleb128 0x13
 5627 0062 01       		.byte	0x1
 5628 0063 08       		.byte	0x8
 5629 0064 9E0C0000 		.4byte	.LASF6
 5630 0068 13       		.uleb128 0x13
 5631 0069 02       		.byte	0x2
 5632 006a 05       		.byte	0x5
 5633 006b 180A0000 		.4byte	.LASF7
 5634 006f 08       		.uleb128 0x8
 5635 0070 09040000 		.4byte	.LASF8
 5636 0074 08       		.byte	0x8
 5637 0075 39       		.byte	0x39
 5638 0076 19       		.byte	0x19
 5639 0077 7B000000 		.4byte	0x7b
 5640 007b 13       		.uleb128 0x13
 5641 007c 02       		.byte	0x2
 5642 007d 07       		.byte	0x7
 5643 007e 290E0000 		.4byte	.LASF9
 5644 0082 08       		.uleb128 0x8
 5645 0083 0A060000 		.4byte	.LASF10
 5646 0087 08       		.byte	0x8
 5647 0088 4D       		.byte	0x4d
 5648 0089 18       		.byte	0x18
 5649 008a 8E000000 		.4byte	0x8e
 5650 008e 13       		.uleb128 0x13
 5651 008f 04       		.byte	0x4
 5652 0090 05       		.byte	0x5
 5653 0091 0A000000 		.4byte	.LASF11
 5654 0095 08       		.uleb128 0x8
 5655 0096 B40C0000 		.4byte	.LASF12
 5656 009a 08       		.byte	0x8
 5657 009b 4F       		.byte	0x4f
 5658 009c 19       		.byte	0x19
 5659 009d A1000000 		.4byte	0xa1
 5660 00a1 13       		.uleb128 0x13
 5661 00a2 04       		.byte	0x4
 5662 00a3 07       		.byte	0x7
ARM GAS  C:\Users\DEVELO~1\AppData\Local\Temp\ccJK6Gr9.s 			page 101


 5663 00a4 D30B0000 		.4byte	.LASF13
 5664 00a8 08       		.uleb128 0x8
 5665 00a9 9A060000 		.4byte	.LASF14
 5666 00ad 08       		.byte	0x8
 5667 00ae 69       		.byte	0x69
 5668 00af 19       		.byte	0x19
 5669 00b0 B4000000 		.4byte	0xb4
 5670 00b4 13       		.uleb128 0x13
 5671 00b5 08       		.byte	0x8
 5672 00b6 07       		.byte	0x7
 5673 00b7 9F030000 		.4byte	.LASF15
 5674 00bb 08       		.uleb128 0x8
 5675 00bc AE060000 		.4byte	.LASF16
 5676 00c0 09       		.byte	0x9
 5677 00c1 18       		.byte	0x18
 5678 00c2 13       		.byte	0x13
 5679 00c3 55000000 		.4byte	0x55
 5680 00c7 2A       		.uleb128 0x2a
 5681 00c8 BB000000 		.4byte	0xbb
 5682 00cc 08       		.uleb128 0x8
 5683 00cd 62090000 		.4byte	.LASF17
 5684 00d1 09       		.byte	0x9
 5685 00d2 24       		.byte	0x24
 5686 00d3 14       		.byte	0x14
 5687 00d4 6F000000 		.4byte	0x6f
 5688 00d8 2A       		.uleb128 0x2a
 5689 00d9 CC000000 		.4byte	0xcc
 5690 00dd 08       		.uleb128 0x8
 5691 00de 0B0C0000 		.4byte	.LASF18
 5692 00e2 09       		.byte	0x9
 5693 00e3 2C       		.byte	0x2c
 5694 00e4 13       		.byte	0x13
 5695 00e5 82000000 		.4byte	0x82
 5696 00e9 08       		.uleb128 0x8
 5697 00ea 0C010000 		.4byte	.LASF19
 5698 00ee 09       		.byte	0x9
 5699 00ef 30       		.byte	0x30
 5700 00f0 14       		.byte	0x14
 5701 00f1 95000000 		.4byte	0x95
 5702 00f5 2A       		.uleb128 0x2a
 5703 00f6 E9000000 		.4byte	0xe9
 5704 00fa 08       		.uleb128 0x8
 5705 00fb 900D0000 		.4byte	.LASF20
 5706 00ff 09       		.byte	0x9
 5707 0100 3C       		.byte	0x3c
 5708 0101 14       		.byte	0x14
 5709 0102 A8000000 		.4byte	0xa8
 5710 0106 2A       		.uleb128 0x2a
 5711 0107 FA000000 		.4byte	0xfa
 5712 010b 08       		.uleb128 0x8
 5713 010c 57070000 		.4byte	.LASF21
 5714 0110 0A       		.byte	0xa
 5715 0111 34       		.byte	0x34
 5716 0112 1F       		.byte	0x1f
 5717 0113 39000000 		.4byte	0x39
 5718 0117 08       		.uleb128 0x8
 5719 0118 88000000 		.4byte	.LASF22
ARM GAS  C:\Users\DEVELO~1\AppData\Local\Temp\ccJK6Gr9.s 			page 102


 5720 011c 0B       		.byte	0xb
 5721 011d 48       		.byte	0x48
 5722 011e 1D       		.byte	0x1d
 5723 011f FA000000 		.4byte	0xfa
 5724 0123 08       		.uleb128 0x8
 5725 0124 1A040000 		.4byte	.LASF23
 5726 0128 0C       		.byte	0xc
 5727 0129 50       		.byte	0x50
 5728 012a 19       		.byte	0x19
 5729 012b 17010000 		.4byte	0x117
 5730 012f 08       		.uleb128 0x8
 5731 0130 0D090000 		.4byte	.LASF24
 5732 0134 0C       		.byte	0xc
 5733 0135 53       		.byte	0x53
 5734 0136 19       		.byte	0x19
 5735 0137 BB000000 		.4byte	0xbb
 5736 013b 08       		.uleb128 0x8
 5737 013c 77060000 		.4byte	.LASF25
 5738 0140 0C       		.byte	0xc
 5739 0141 54       		.byte	0x54
 5740 0142 19       		.byte	0x19
 5741 0143 BB000000 		.4byte	0xbb
 5742 0147 08       		.uleb128 0x8
 5743 0148 B20B0000 		.4byte	.LASF26
 5744 014c 0C       		.byte	0xc
 5745 014d 55       		.byte	0x55
 5746 014e 19       		.byte	0x19
 5747 014f BB000000 		.4byte	0xbb
 5748 0153 08       		.uleb128 0x8
 5749 0154 65030000 		.4byte	.LASF27
 5750 0158 0C       		.byte	0xc
 5751 0159 57       		.byte	0x57
 5752 015a 19       		.byte	0x19
 5753 015b E9000000 		.4byte	0xe9
 5754 015f 08       		.uleb128 0x8
 5755 0160 64070000 		.4byte	.LASF28
 5756 0164 0C       		.byte	0xc
 5757 0165 58       		.byte	0x58
 5758 0166 19       		.byte	0x19
 5759 0167 DD000000 		.4byte	0xdd
 5760 016b 08       		.uleb128 0x8
 5761 016c F8020000 		.4byte	.LASF29
 5762 0170 0C       		.byte	0xc
 5763 0171 5A       		.byte	0x5a
 5764 0172 19       		.byte	0x19
 5765 0173 E9000000 		.4byte	0xe9
 5766 0177 08       		.uleb128 0x8
 5767 0178 14040000 		.4byte	.LASF30
 5768 017c 0C       		.byte	0xc
 5769 017d 5C       		.byte	0x5c
 5770 017e 19       		.byte	0x19
 5771 017f DD000000 		.4byte	0xdd
 5772 0183 08       		.uleb128 0x8
 5773 0184 5C0F0000 		.4byte	.LASF31
 5774 0188 0C       		.byte	0xc
 5775 0189 80       		.byte	0x80
 5776 018a 12       		.byte	0x12
ARM GAS  C:\Users\DEVELO~1\AppData\Local\Temp\ccJK6Gr9.s 			page 103


 5777 018b 39000000 		.4byte	0x39
 5778 018f 08       		.uleb128 0x8
 5779 0190 96040000 		.4byte	.LASF32
 5780 0194 0C       		.byte	0xc
 5781 0195 85       		.byte	0x85
 5782 0196 1A       		.byte	0x1a
 5783 0197 9B010000 		.4byte	0x19b
 5784 019b 10       		.uleb128 0x10
 5785 019c E8060000 		.4byte	.LASF49
 5786 01a0 50       		.byte	0x50
 5787 01a1 0D       		.byte	0xd
 5788 01a2 A9       		.byte	0xa9
 5789 01a3 08       		.byte	0x8
 5790 01a4 97020000 		.4byte	0x297
 5791 01a8 0F       		.uleb128 0xf
 5792 01a9 68647200 		.ascii	"hdr\000"
 5793 01ad 0D       		.byte	0xd
 5794 01ae BA       		.byte	0xba
 5795 01af 05       		.byte	0x5
 5796 01b0 6C0E0000 		.4byte	0xe6c
 5797 01b4 00       		.byte	0
 5798 01b5 0F       		.uleb128 0xf
 5799 01b6 63747800 		.ascii	"ctx\000"
 5800 01ba 0D       		.byte	0xd
 5801 01bb BE       		.byte	0xbe
 5802 01bc 21       		.byte	0x21
 5803 01bd BD0C0000 		.4byte	0xcbd
 5804 01c1 0C       		.byte	0xc
 5805 01c2 05       		.uleb128 0x5
 5806 01c3 52040000 		.4byte	.LASF33
 5807 01c7 0D       		.byte	0xd
 5808 01c8 C2       		.byte	0xc2
 5809 01c9 22       		.byte	0x22
 5810 01ca 710F0000 		.4byte	0xf71
 5811 01ce 10       		.byte	0x10
 5812 01cf 05       		.uleb128 0x5
 5813 01d0 32060000 		.4byte	.LASF34
 5814 01d4 0D       		.byte	0xd
 5815 01d5 C8       		.byte	0xc8
 5816 01d6 22       		.byte	0x22
 5817 01d7 760F0000 		.4byte	0xf76
 5818 01db 14       		.byte	0x14
 5819 01dc 05       		.uleb128 0x5
 5820 01dd 34070000 		.4byte	.LASF35
 5821 01e1 0D       		.byte	0xd
 5822 01e2 CD       		.byte	0xcd
 5823 01e3 21       		.byte	0x21
 5824 01e4 760F0000 		.4byte	0xf76
 5825 01e8 18       		.byte	0x18
 5826 01e9 05       		.uleb128 0x5
 5827 01ea 5F0D0000 		.4byte	.LASF36
 5828 01ee 0D       		.byte	0xd
 5829 01ef D1       		.byte	0xd1
 5830 01f0 21       		.byte	0x21
 5831 01f1 3B010000 		.4byte	0x13b
 5832 01f5 1C       		.byte	0x1c
 5833 01f6 05       		.uleb128 0x5
ARM GAS  C:\Users\DEVELO~1\AppData\Local\Temp\ccJK6Gr9.s 			page 104


 5834 01f7 C7000000 		.4byte	.LASF37
 5835 01fb 0D       		.byte	0xd
 5836 01fc D5       		.byte	0xd5
 5837 01fd 21       		.byte	0x21
 5838 01fe 2F010000 		.4byte	0x12f
 5839 0202 1D       		.byte	0x1d
 5840 0203 05       		.uleb128 0x5
 5841 0204 50010000 		.4byte	.LASF38
 5842 0208 0D       		.byte	0xd
 5843 0209 DA       		.byte	0xda
 5844 020a 21       		.byte	0x21
 5845 020b 47010000 		.4byte	0x147
 5846 020f 1E       		.byte	0x1e
 5847 0210 05       		.uleb128 0x5
 5848 0211 740B0000 		.4byte	.LASF39
 5849 0215 0D       		.byte	0xd
 5850 0216 DE       		.byte	0xde
 5851 0217 22       		.byte	0x22
 5852 0218 8D030000 		.4byte	0x38d
 5853 021c 20       		.byte	0x20
 5854 021d 05       		.uleb128 0x5
 5855 021e 2D070000 		.4byte	.LASF40
 5856 0222 0D       		.byte	0xd
 5857 0223 E2       		.byte	0xe2
 5858 0224 21       		.byte	0x21
 5859 0225 0A0D0000 		.4byte	0xd0a
 5860 0229 24       		.byte	0x24
 5861 022a 05       		.uleb128 0x5
 5862 022b 80000000 		.4byte	.LASF41
 5863 022f 0D       		.byte	0xd
 5864 0230 E8       		.byte	0xe8
 5865 0231 21       		.byte	0x21
 5866 0232 500E0000 		.4byte	0xe50
 5867 0236 2C       		.byte	0x2c
 5868 0237 05       		.uleb128 0x5
 5869 0238 34050000 		.4byte	.LASF42
 5870 023c 0D       		.byte	0xd
 5871 023d EE       		.byte	0xee
 5872 023e 22       		.byte	0x22
 5873 023f F0030000 		.4byte	0x3f0
 5874 0243 30       		.byte	0x30
 5875 0244 09       		.uleb128 0x9
 5876 0245 7500     		.ascii	"u\000"
 5877 0247 0D       		.byte	0xd
 5878 0248 3F01     		.2byte	0x13f
 5879 024a 21       		.byte	0x21
 5880 024b 9A0E0000 		.4byte	0xe9a
 5881 024f 34       		.byte	0x34
 5882 0250 04       		.uleb128 0x4
 5883 0251 BF0C0000 		.4byte	.LASF43
 5884 0255 0D       		.byte	0xd
 5885 0256 4401     		.2byte	0x144
 5886 0258 21       		.byte	0x21
 5887 0259 DE0C0000 		.4byte	0xcde
 5888 025d 38       		.byte	0x38
 5889 025e 04       		.uleb128 0x4
 5890 025f D0060000 		.4byte	.LASF44
ARM GAS  C:\Users\DEVELO~1\AppData\Local\Temp\ccJK6Gr9.s 			page 105


 5891 0263 0D       		.byte	0xd
 5892 0264 4A01     		.2byte	0x14a
 5893 0266 21       		.byte	0x21
 5894 0267 0A0D0000 		.4byte	0xd0a
 5895 026b 3C       		.byte	0x3c
 5896 026c 04       		.uleb128 0x4
 5897 026d F1000000 		.4byte	.LASF45
 5898 0271 0D       		.byte	0xd
 5899 0272 5001     		.2byte	0x150
 5900 0274 21       		.byte	0x21
 5901 0275 6B010000 		.4byte	0x16b
 5902 0279 44       		.byte	0x44
 5903 027a 04       		.uleb128 0x4
 5904 027b 6A040000 		.4byte	.LASF46
 5905 027f 0D       		.byte	0xd
 5906 0280 5701     		.2byte	0x157
 5907 0282 22       		.byte	0x22
 5908 0283 6C0F0000 		.4byte	0xf6c
 5909 0287 48       		.byte	0x48
 5910 0288 04       		.uleb128 0x4
 5911 0289 D7000000 		.4byte	.LASF47
 5912 028d 0D       		.byte	0xd
 5913 028e 5B01     		.2byte	0x15b
 5914 0290 21       		.byte	0x21
 5915 0291 53010000 		.4byte	0x153
 5916 0295 4C       		.byte	0x4c
 5917 0296 00       		.byte	0
 5918 0297 08       		.uleb128 0x8
 5919 0298 820D0000 		.4byte	.LASF48
 5920 029c 0C       		.byte	0xc
 5921 029d 8A       		.byte	0x8a
 5922 029e 1F       		.byte	0x1f
 5923 029f A3020000 		.4byte	0x2a3
 5924 02a3 4A       		.uleb128 0x4a
 5925 02a4 6B050000 		.4byte	.LASF50
 5926 02a8 F008     		.2byte	0x8f0
 5927 02aa 0D       		.byte	0xd
 5928 02ab 9701     		.2byte	0x197
 5929 02ad 08       		.byte	0x8
 5930 02ae 3F030000 		.4byte	0x33f
 5931 02b2 04       		.uleb128 0x4
 5932 02b3 160B0000 		.4byte	.LASF51
 5933 02b7 0D       		.byte	0xd
 5934 02b8 9B01     		.2byte	0x19b
 5935 02ba 21       		.byte	0x21
 5936 02bb A60F0000 		.4byte	0xfa6
 5937 02bf 00       		.byte	0
 5938 02c0 04       		.uleb128 0x4
 5939 02c1 49010000 		.4byte	.LASF52
 5940 02c5 0D       		.byte	0xd
 5941 02c6 9F01     		.2byte	0x19f
 5942 02c8 21       		.byte	0x21
 5943 02c9 110E0000 		.4byte	0xe11
 5944 02cd 10       		.byte	0x10
 5945 02ce 04       		.uleb128 0x4
 5946 02cf A30D0000 		.4byte	.LASF53
 5947 02d3 0D       		.byte	0xd
ARM GAS  C:\Users\DEVELO~1\AppData\Local\Temp\ccJK6Gr9.s 			page 106


 5948 02d4 A601     		.2byte	0x1a6
 5949 02d6 21       		.byte	0x21
 5950 02d7 380E0000 		.4byte	0xe38
 5951 02db 30       		.byte	0x30
 5952 02dc 04       		.uleb128 0x4
 5953 02dd 35010000 		.4byte	.LASF54
 5954 02e1 0D       		.byte	0xd
 5955 02e2 AB01     		.2byte	0x1ab
 5956 02e4 21       		.byte	0x21
 5957 02e5 83010000 		.4byte	0x183
 5958 02e9 38       		.byte	0x38
 5959 02ea 04       		.uleb128 0x4
 5960 02eb 89040000 		.4byte	.LASF55
 5961 02ef 0D       		.byte	0xd
 5962 02f0 B101     		.2byte	0x1b1
 5963 02f2 21       		.byte	0x21
 5964 02f3 66030000 		.4byte	0x366
 5965 02f7 3C       		.byte	0x3c
 5966 02f8 04       		.uleb128 0x4
 5967 02f9 C2090000 		.4byte	.LASF56
 5968 02fd 0D       		.byte	0xd
 5969 02fe B601     		.2byte	0x1b6
 5970 0300 22       		.byte	0x22
 5971 0301 1A100000 		.4byte	0x101a
 5972 0305 40       		.byte	0x40
 5973 0306 04       		.uleb128 0x4
 5974 0307 1F090000 		.4byte	.LASF57
 5975 030b 0D       		.byte	0xd
 5976 030c BA01     		.2byte	0x1ba
 5977 030e 21       		.byte	0x21
 5978 030f 8F010000 		.4byte	0x18f
 5979 0313 44       		.byte	0x44
 5980 0314 04       		.uleb128 0x4
 5981 0315 540D0000 		.4byte	.LASF58
 5982 0319 0D       		.byte	0xd
 5983 031a BF01     		.2byte	0x1bf
 5984 031c 21       		.byte	0x21
 5985 031d 8F010000 		.4byte	0x18f
 5986 0321 94       		.byte	0x94
 5987 0322 09       		.uleb128 0x9
 5988 0323 64626700 		.ascii	"dbg\000"
 5989 0327 0D       		.byte	0xd
 5990 0328 C401     		.2byte	0x1c4
 5991 032a 21       		.byte	0x21
 5992 032b A3030000 		.4byte	0x3a3
 5993 032f E4       		.byte	0xe4
 5994 0330 04       		.uleb128 0x4
 5995 0331 200C0000 		.4byte	.LASF59
 5996 0335 0D       		.byte	0xd
 5997 0336 C901     		.2byte	0x1c9
 5998 0338 21       		.byte	0x21
 5999 0339 52050000 		.4byte	0x552
 6000 033d E8       		.byte	0xe8
 6001 033e 00       		.byte	0
 6002 033f 08       		.uleb128 0x8
 6003 0340 FE050000 		.4byte	.LASF60
 6004 0344 0E       		.byte	0xe
ARM GAS  C:\Users\DEVELO~1\AppData\Local\Temp\ccJK6Gr9.s 			page 107


 6005 0345 3F       		.byte	0x3f
 6006 0346 12       		.byte	0x12
 6007 0347 E9000000 		.4byte	0xe9
 6008 034b 10       		.uleb128 0x10
 6009 034c 4B050000 		.4byte	.LASF61
 6010 0350 04       		.byte	0x4
 6011 0351 0E       		.byte	0xe
 6012 0352 44       		.byte	0x44
 6013 0353 10       		.byte	0x10
 6014 0354 66030000 		.4byte	0x366
 6015 0358 05       		.uleb128 0x5
 6016 0359 F4070000 		.4byte	.LASF62
 6017 035d 0E       		.byte	0xe
 6018 035e 48       		.byte	0x48
 6019 035f 21       		.byte	0x21
 6020 0360 3F030000 		.4byte	0x33f
 6021 0364 00       		.byte	0
 6022 0365 00       		.byte	0
 6023 0366 08       		.uleb128 0x8
 6024 0367 130C0000 		.4byte	.LASF63
 6025 036b 0E       		.byte	0xe
 6026 036c 49       		.byte	0x49
 6027 036d 03       		.byte	0x3
 6028 036e 4B030000 		.4byte	0x34b
 6029 0372 10       		.uleb128 0x10
 6030 0373 8D020000 		.4byte	.LASF64
 6031 0377 04       		.byte	0x4
 6032 0378 0F       		.byte	0xf
 6033 0379 3E       		.byte	0x3e
 6034 037a 10       		.byte	0x10
 6035 037b 8D030000 		.4byte	0x38d
 6036 037f 05       		.uleb128 0x5
 6037 0380 DD0C0000 		.4byte	.LASF65
 6038 0384 0F       		.byte	0xf
 6039 0385 46       		.byte	0x46
 6040 0386 24       		.byte	0x24
 6041 0387 92030000 		.4byte	0x392
 6042 038b 00       		.byte	0
 6043 038c 00       		.byte	0
 6044 038d 0A       		.uleb128 0xa
 6045 038e 9E030000 		.4byte	0x39e
 6046 0392 2A       		.uleb128 0x2a
 6047 0393 8D030000 		.4byte	0x38d
 6048 0397 13       		.uleb128 0x13
 6049 0398 01       		.byte	0x1
 6050 0399 08       		.byte	0x8
 6051 039a E9050000 		.4byte	.LASF66
 6052 039e 11       		.uleb128 0x11
 6053 039f 97030000 		.4byte	0x397
 6054 03a3 08       		.uleb128 0x8
 6055 03a4 3A070000 		.4byte	.LASF67
 6056 03a8 0F       		.byte	0xf
 6057 03a9 51       		.byte	0x51
 6058 03aa 03       		.byte	0x3
 6059 03ab 72030000 		.4byte	0x372
 6060 03af 08       		.uleb128 0x8
 6061 03b0 CD000000 		.4byte	.LASF68
ARM GAS  C:\Users\DEVELO~1\AppData\Local\Temp\ccJK6Gr9.s 			page 108


 6062 03b4 10       		.byte	0x10
 6063 03b5 6D       		.byte	0x6d
 6064 03b6 12       		.byte	0x12
 6065 03b7 E9000000 		.4byte	0xe9
 6066 03bb 08       		.uleb128 0x8
 6067 03bc C2080000 		.4byte	.LASF69
 6068 03c0 10       		.byte	0x10
 6069 03c1 79       		.byte	0x79
 6070 03c2 12       		.byte	0x12
 6071 03c3 E9000000 		.4byte	0xe9
 6072 03c7 1A       		.uleb128 0x1a
 6073 03c8 08       		.byte	0x8
 6074 03c9 11       		.byte	0x11
 6075 03ca 83       		.byte	0x83
 6076 03cb 05       		.byte	0x5
 6077 03cc EB030000 		.4byte	0x3eb
 6078 03d0 0F       		.uleb128 0xf
 6079 03d1 6E747000 		.ascii	"ntp\000"
 6080 03d5 11       		.byte	0x11
 6081 03d6 87       		.byte	0x87
 6082 03d7 1E       		.byte	0x1e
 6083 03d8 EB030000 		.4byte	0x3eb
 6084 03dc 00       		.byte	0
 6085 03dd 05       		.uleb128 0x5
 6086 03de 70010000 		.4byte	.LASF70
 6087 03e2 11       		.byte	0x11
 6088 03e3 8B       		.byte	0x8b
 6089 03e4 1E       		.byte	0x1e
 6090 03e5 F0030000 		.4byte	0x3f0
 6091 03e9 04       		.byte	0x4
 6092 03ea 00       		.byte	0
 6093 03eb 0A       		.uleb128 0xa
 6094 03ec 8F010000 		.4byte	0x18f
 6095 03f0 4B       		.uleb128 0x4b
 6096 03f1 04       		.byte	0x4
 6097 03f2 1A       		.uleb128 0x1a
 6098 03f3 08       		.byte	0x8
 6099 03f4 11       		.byte	0x11
 6100 03f5 90       		.byte	0x90
 6101 03f6 05       		.byte	0x5
 6102 03f7 15040000 		.4byte	0x415
 6103 03fb 0F       		.uleb128 0xf
 6104 03fc 747000   		.ascii	"tp\000"
 6105 03ff 11       		.byte	0x11
 6106 0400 94       		.byte	0x94
 6107 0401 1E       		.byte	0x1e
 6108 0402 EB030000 		.4byte	0x3eb
 6109 0406 00       		.byte	0
 6110 0407 0F       		.uleb128 0xf
 6111 0408 6D736700 		.ascii	"msg\000"
 6112 040c 11       		.byte	0x11
 6113 040d 98       		.byte	0x98
 6114 040e 1D       		.byte	0x1d
 6115 040f 5F010000 		.4byte	0x15f
 6116 0413 04       		.byte	0x4
 6117 0414 00       		.byte	0
 6118 0415 1A       		.uleb128 0x1a
ARM GAS  C:\Users\DEVELO~1\AppData\Local\Temp\ccJK6Gr9.s 			page 109


 6119 0416 04       		.byte	0x4
 6120 0417 11       		.byte	0x11
 6121 0418 9D       		.byte	0x9d
 6122 0419 05       		.byte	0x5
 6123 041a 2C040000 		.4byte	0x42c
 6124 041e 05       		.uleb128 0x5
 6125 041f 740B0000 		.4byte	.LASF39
 6126 0423 11       		.byte	0x11
 6127 0424 A1       		.byte	0xa1
 6128 0425 1E       		.byte	0x1e
 6129 0426 8D030000 		.4byte	0x38d
 6130 042a 00       		.byte	0
 6131 042b 00       		.byte	0
 6132 042c 1A       		.uleb128 0x1a
 6133 042d 04       		.byte	0x4
 6134 042e 11       		.byte	0x11
 6135 042f A6       		.byte	0xa6
 6136 0430 05       		.byte	0x5
 6137 0431 43040000 		.4byte	0x443
 6138 0435 05       		.uleb128 0x5
 6139 0436 F4030000 		.4byte	.LASF71
 6140 043a 11       		.byte	0x11
 6141 043b AA       		.byte	0xaa
 6142 043c 1E       		.byte	0x1e
 6143 043d 8D030000 		.4byte	0x38d
 6144 0441 00       		.byte	0
 6145 0442 00       		.byte	0
 6146 0443 1A       		.uleb128 0x1a
 6147 0444 08       		.byte	0x8
 6148 0445 11       		.byte	0x11
 6149 0446 AF       		.byte	0xaf
 6150 0447 05       		.byte	0x5
 6151 0448 67040000 		.4byte	0x467
 6152 044c 0F       		.uleb128 0xf
 6153 044d 75703100 		.ascii	"up1\000"
 6154 0451 11       		.byte	0x11
 6155 0452 B3       		.byte	0xb3
 6156 0453 1E       		.byte	0x1e
 6157 0454 F0030000 		.4byte	0x3f0
 6158 0458 00       		.byte	0
 6159 0459 0F       		.uleb128 0xf
 6160 045a 75703200 		.ascii	"up2\000"
 6161 045e 11       		.byte	0x11
 6162 045f B7       		.byte	0xb7
 6163 0460 1E       		.byte	0x1e
 6164 0461 F0030000 		.4byte	0x3f0
 6165 0465 04       		.byte	0x4
 6166 0466 00       		.byte	0
 6167 0467 34       		.uleb128 0x34
 6168 0468 08       		.byte	0x8
 6169 0469 11       		.byte	0x11
 6170 046a 7F       		.byte	0x7f
 6171 046b 03       		.byte	0x3
 6172 046c AC040000 		.4byte	0x4ac
 6173 0470 23       		.uleb128 0x23
 6174 0471 737700   		.ascii	"sw\000"
 6175 0474 11       		.byte	0x11
ARM GAS  C:\Users\DEVELO~1\AppData\Local\Temp\ccJK6Gr9.s 			page 110


 6176 0475 8C       		.byte	0x8c
 6177 0476 07       		.byte	0x7
 6178 0477 C7030000 		.4byte	0x3c7
 6179 047b 23       		.uleb128 0x23
 6180 047c 72647900 		.ascii	"rdy\000"
 6181 0480 11       		.byte	0x11
 6182 0481 99       		.byte	0x99
 6183 0482 07       		.byte	0x7
 6184 0483 F2030000 		.4byte	0x3f2
 6185 0487 23       		.uleb128 0x23
 6186 0488 69737200 		.ascii	"isr\000"
 6187 048c 11       		.byte	0x11
 6188 048d A2       		.byte	0xa2
 6189 048e 07       		.byte	0x7
 6190 048f 15040000 		.4byte	0x415
 6191 0493 24       		.uleb128 0x24
 6192 0494 9A030000 		.4byte	.LASF72
 6193 0498 11       		.byte	0x11
 6194 0499 AB       		.byte	0xab
 6195 049a 07       		.byte	0x7
 6196 049b 2C040000 		.4byte	0x42c
 6197 049f 24       		.uleb128 0x24
 6198 04a0 BB040000 		.4byte	.LASF73
 6199 04a4 11       		.byte	0x11
 6200 04a5 B8       		.byte	0xb8
 6201 04a6 07       		.byte	0x7
 6202 04a7 43040000 		.4byte	0x443
 6203 04ab 00       		.byte	0
 6204 04ac 1A       		.uleb128 0x1a
 6205 04ad 10       		.byte	0x10
 6206 04ae 11       		.byte	0x11
 6207 04af 6C       		.byte	0x6c
 6208 04b0 09       		.byte	0x9
 6209 04b1 F2040000 		.4byte	0x4f2
 6210 04b5 39       		.uleb128 0x39
 6211 04b6 840C0000 		.4byte	.LASF74
 6212 04ba 70       		.byte	0x70
 6213 04bb E9000000 		.4byte	0xe9
 6214 04bf 03       		.byte	0x3
 6215 04c0 00       		.byte	0
 6216 04c1 39       		.uleb128 0x39
 6217 04c2 5F0D0000 		.4byte	.LASF36
 6218 04c6 74       		.byte	0x74
 6219 04c7 E9000000 		.4byte	0xe9
 6220 04cb 05       		.byte	0x5
 6221 04cc 03       		.byte	0x3
 6222 04cd 39       		.uleb128 0x39
 6223 04ce F20B0000 		.4byte	.LASF75
 6224 04d2 7A       		.byte	0x7a
 6225 04d3 E9000000 		.4byte	0xe9
 6226 04d7 18       		.byte	0x18
 6227 04d8 08       		.byte	0x8
 6228 04d9 05       		.uleb128 0x5
 6229 04da 3B040000 		.4byte	.LASF76
 6230 04de 11       		.byte	0x11
 6231 04df 7E       		.byte	0x7e
 6232 04e0 19       		.byte	0x19
ARM GAS  C:\Users\DEVELO~1\AppData\Local\Temp\ccJK6Gr9.s 			page 111


 6233 04e1 AF030000 		.4byte	0x3af
 6234 04e5 04       		.byte	0x4
 6235 04e6 0F       		.uleb128 0xf
 6236 04e7 7500     		.ascii	"u\000"
 6237 04e9 11       		.byte	0x11
 6238 04ea B9       		.byte	0xb9
 6239 04eb 05       		.byte	0x5
 6240 04ec 67040000 		.4byte	0x467
 6241 04f0 08       		.byte	0x8
 6242 04f1 00       		.byte	0
 6243 04f2 08       		.uleb128 0x8
 6244 04f3 1A030000 		.4byte	.LASF77
 6245 04f7 11       		.byte	0x11
 6246 04f8 BA       		.byte	0xba
 6247 04f9 03       		.byte	0x3
 6248 04fa AC040000 		.4byte	0x4ac
 6249 04fe 4C       		.uleb128 0x4c
 6250 04ff 0808     		.2byte	0x808
 6251 0501 11       		.byte	0x11
 6252 0502 C0       		.byte	0xc0
 6253 0503 09       		.byte	0x9
 6254 0504 3D050000 		.4byte	0x53d
 6255 0508 05       		.uleb128 0x5
 6256 0509 15010000 		.4byte	.LASF78
 6257 050d 11       		.byte	0x11
 6258 050e C4       		.byte	0xc4
 6259 050f 19       		.byte	0x19
 6260 0510 CC000000 		.4byte	0xcc
 6261 0514 00       		.byte	0
 6262 0515 05       		.uleb128 0x5
 6263 0516 D1070000 		.4byte	.LASF79
 6264 051a 11       		.byte	0x11
 6265 051b C8       		.byte	0xc8
 6266 051c 19       		.byte	0x19
 6267 051d CC000000 		.4byte	0xcc
 6268 0521 02       		.byte	0x2
 6269 0522 0F       		.uleb128 0xf
 6270 0523 70747200 		.ascii	"ptr\000"
 6271 0527 11       		.byte	0x11
 6272 0528 CC       		.byte	0xcc
 6273 0529 1A       		.byte	0x1a
 6274 052a 3D050000 		.4byte	0x53d
 6275 052e 04       		.byte	0x4
 6276 052f 05       		.uleb128 0x5
 6277 0530 E0000000 		.4byte	.LASF80
 6278 0534 11       		.byte	0x11
 6279 0535 D0       		.byte	0xd0
 6280 0536 19       		.byte	0x19
 6281 0537 42050000 		.4byte	0x542
 6282 053b 08       		.byte	0x8
 6283 053c 00       		.byte	0
 6284 053d 0A       		.uleb128 0xa
 6285 053e F2040000 		.4byte	0x4f2
 6286 0542 14       		.uleb128 0x14
 6287 0543 F2040000 		.4byte	0x4f2
 6288 0547 52050000 		.4byte	0x552
 6289 054b 15       		.uleb128 0x15
ARM GAS  C:\Users\DEVELO~1\AppData\Local\Temp\ccJK6Gr9.s 			page 112


 6290 054c 39000000 		.4byte	0x39
 6291 0550 7F       		.byte	0x7f
 6292 0551 00       		.byte	0
 6293 0552 08       		.uleb128 0x8
 6294 0553 E7080000 		.4byte	.LASF81
 6295 0557 11       		.byte	0x11
 6296 0558 D1       		.byte	0xd1
 6297 0559 03       		.byte	0x3
 6298 055a FE040000 		.4byte	0x4fe
 6299 055e 14       		.uleb128 0x14
 6300 055f E9000000 		.4byte	0xe9
 6301 0563 6E050000 		.4byte	0x56e
 6302 0567 15       		.uleb128 0x15
 6303 0568 39000000 		.4byte	0x39
 6304 056c 03       		.byte	0x3
 6305 056d 00       		.byte	0
 6306 056e 2B       		.uleb128 0x2b
 6307 056f 18       		.byte	0x18
 6308 0570 12       		.byte	0x12
 6309 0571 3002     		.2byte	0x230
 6310 0573 CB050000 		.4byte	0x5cb
 6311 0577 09       		.uleb128 0x9
 6312 0578 435200   		.ascii	"CR\000"
 6313 057b 12       		.byte	0x12
 6314 057c 3202     		.2byte	0x232
 6315 057e 11       		.byte	0x11
 6316 057f F5000000 		.4byte	0xf5
 6317 0583 00       		.byte	0
 6318 0584 04       		.uleb128 0x4
 6319 0585 FE010000 		.4byte	.LASF82
 6320 0589 12       		.byte	0x12
 6321 058a 3302     		.2byte	0x233
 6322 058c 11       		.byte	0x11
 6323 058d F5000000 		.4byte	0xf5
 6324 0591 04       		.byte	0x4
 6325 0592 09       		.uleb128 0x9
 6326 0593 50415200 		.ascii	"PAR\000"
 6327 0597 12       		.byte	0x12
 6328 0598 3402     		.2byte	0x234
 6329 059a 11       		.byte	0x11
 6330 059b F5000000 		.4byte	0xf5
 6331 059f 08       		.byte	0x8
 6332 05a0 04       		.uleb128 0x4
 6333 05a1 66050000 		.4byte	.LASF83
 6334 05a5 12       		.byte	0x12
 6335 05a6 3502     		.2byte	0x235
 6336 05a8 11       		.byte	0x11
 6337 05a9 F5000000 		.4byte	0xf5
 6338 05ad 0C       		.byte	0xc
 6339 05ae 04       		.uleb128 0x4
 6340 05af 8B0B0000 		.4byte	.LASF84
 6341 05b3 12       		.byte	0x12
 6342 05b4 3602     		.2byte	0x236
 6343 05b6 11       		.byte	0x11
 6344 05b7 F5000000 		.4byte	0xf5
 6345 05bb 10       		.byte	0x10
 6346 05bc 09       		.uleb128 0x9
ARM GAS  C:\Users\DEVELO~1\AppData\Local\Temp\ccJK6Gr9.s 			page 113


 6347 05bd 46435200 		.ascii	"FCR\000"
 6348 05c1 12       		.byte	0x12
 6349 05c2 3702     		.2byte	0x237
 6350 05c4 11       		.byte	0x11
 6351 05c5 F5000000 		.4byte	0xf5
 6352 05c9 14       		.byte	0x14
 6353 05ca 00       		.byte	0
 6354 05cb 19       		.uleb128 0x19
 6355 05cc BE070000 		.4byte	.LASF85
 6356 05d0 12       		.byte	0x12
 6357 05d1 3802     		.2byte	0x238
 6358 05d3 03       		.byte	0x3
 6359 05d4 6E050000 		.4byte	0x56e
 6360 05d8 2B       		.uleb128 0x2b
 6361 05d9 14       		.byte	0x14
 6362 05da 12       		.byte	0x12
 6363 05db 4202     		.2byte	0x242
 6364 05dd 28060000 		.4byte	0x628
 6365 05e1 09       		.uleb128 0x9
 6366 05e2 43435200 		.ascii	"CCR\000"
 6367 05e6 12       		.byte	0x12
 6368 05e7 4402     		.2byte	0x244
 6369 05e9 11       		.byte	0x11
 6370 05ea F5000000 		.4byte	0xf5
 6371 05ee 00       		.byte	0
 6372 05ef 04       		.uleb128 0x4
 6373 05f0 7A020000 		.4byte	.LASF86
 6374 05f4 12       		.byte	0x12
 6375 05f5 4502     		.2byte	0x245
 6376 05f7 11       		.byte	0x11
 6377 05f8 F5000000 		.4byte	0xf5
 6378 05fc 04       		.byte	0x4
 6379 05fd 04       		.uleb128 0x4
 6380 05fe AB0D0000 		.4byte	.LASF87
 6381 0602 12       		.byte	0x12
 6382 0603 4602     		.2byte	0x246
 6383 0605 11       		.byte	0x11
 6384 0606 F5000000 		.4byte	0xf5
 6385 060a 08       		.byte	0x8
 6386 060b 04       		.uleb128 0x4
 6387 060c EC0D0000 		.4byte	.LASF88
 6388 0610 12       		.byte	0x12
 6389 0611 4702     		.2byte	0x247
 6390 0613 11       		.byte	0x11
 6391 0614 F5000000 		.4byte	0xf5
 6392 0618 0C       		.byte	0xc
 6393 0619 04       		.uleb128 0x4
 6394 061a F10A0000 		.4byte	.LASF89
 6395 061e 12       		.byte	0x12
 6396 061f 4802     		.2byte	0x248
 6397 0621 11       		.byte	0x11
 6398 0622 F5000000 		.4byte	0xf5
 6399 0626 10       		.byte	0x10
 6400 0627 00       		.byte	0
 6401 0628 19       		.uleb128 0x19
 6402 0629 74070000 		.4byte	.LASF90
 6403 062d 12       		.byte	0x12
ARM GAS  C:\Users\DEVELO~1\AppData\Local\Temp\ccJK6Gr9.s 			page 114


 6404 062e 4902     		.2byte	0x249
 6405 0630 03       		.byte	0x3
 6406 0631 D8050000 		.4byte	0x5d8
 6407 0635 2B       		.uleb128 0x2b
 6408 0636 08       		.byte	0x8
 6409 0637 12       		.byte	0x12
 6410 0638 4B02     		.2byte	0x24b
 6411 063a 5B060000 		.4byte	0x65b
 6412 063e 09       		.uleb128 0x9
 6413 063f 49535200 		.ascii	"ISR\000"
 6414 0643 12       		.byte	0x12
 6415 0644 4D02     		.2byte	0x24d
 6416 0646 11       		.byte	0x11
 6417 0647 F5000000 		.4byte	0xf5
 6418 064b 00       		.byte	0
 6419 064c 04       		.uleb128 0x4
 6420 064d 3C0E0000 		.4byte	.LASF91
 6421 0651 12       		.byte	0x12
 6422 0652 4E02     		.2byte	0x24e
 6423 0654 11       		.byte	0x11
 6424 0655 F5000000 		.4byte	0xf5
 6425 0659 04       		.byte	0x4
 6426 065a 00       		.byte	0
 6427 065b 19       		.uleb128 0x19
 6428 065c 25000000 		.4byte	.LASF92
 6429 0660 12       		.byte	0x12
 6430 0661 4F02     		.2byte	0x24f
 6431 0663 03       		.byte	0x3
 6432 0664 35060000 		.4byte	0x635
 6433 0668 2B       		.uleb128 0x2b
 6434 0669 04       		.byte	0x4
 6435 066a 12       		.byte	0x12
 6436 066b 5102     		.2byte	0x251
 6437 066d 80060000 		.4byte	0x680
 6438 0671 09       		.uleb128 0x9
 6439 0672 43435200 		.ascii	"CCR\000"
 6440 0676 12       		.byte	0x12
 6441 0677 5302     		.2byte	0x253
 6442 0679 12       		.byte	0x12
 6443 067a F5000000 		.4byte	0xf5
 6444 067e 00       		.byte	0
 6445 067f 00       		.byte	0
 6446 0680 19       		.uleb128 0x19
 6447 0681 F6080000 		.4byte	.LASF93
 6448 0685 12       		.byte	0x12
 6449 0686 5402     		.2byte	0x254
 6450 0688 02       		.byte	0x2
 6451 0689 68060000 		.4byte	0x668
 6452 068d 14       		.uleb128 0x14
 6453 068e E9000000 		.4byte	0xe9
 6454 0692 9D060000 		.4byte	0x69d
 6455 0696 15       		.uleb128 0x15
 6456 0697 39000000 		.4byte	0x39
 6457 069b 08       		.byte	0x8
 6458 069c 00       		.byte	0
 6459 069d 14       		.uleb128 0x14
 6460 069e E9000000 		.4byte	0xe9
ARM GAS  C:\Users\DEVELO~1\AppData\Local\Temp\ccJK6Gr9.s 			page 115


 6461 06a2 AD060000 		.4byte	0x6ad
 6462 06a6 15       		.uleb128 0x15
 6463 06a7 39000000 		.4byte	0x39
 6464 06ab 02       		.byte	0x2
 6465 06ac 00       		.byte	0
 6466 06ad 4D       		.uleb128 0x4d
 6467 06ae 3001     		.2byte	0x130
 6468 06b0 12       		.byte	0x12
 6469 06b1 CE04     		.2byte	0x4ce
 6470 06b3 09       		.byte	0x9
 6471 06b4 460A0000 		.4byte	0xa46
 6472 06b8 09       		.uleb128 0x9
 6473 06b9 435200   		.ascii	"CR\000"
 6474 06bc 12       		.byte	0x12
 6475 06bd D004     		.2byte	0x4d0
 6476 06bf 10       		.byte	0x10
 6477 06c0 F5000000 		.4byte	0xf5
 6478 06c4 00       		.byte	0
 6479 06c5 04       		.uleb128 0x4
 6480 06c6 BA090000 		.4byte	.LASF94
 6481 06ca 12       		.byte	0x12
 6482 06cb D104     		.2byte	0x4d1
 6483 06cd 10       		.byte	0x10
 6484 06ce F5000000 		.4byte	0xf5
 6485 06d2 04       		.byte	0x4
 6486 06d3 04       		.uleb128 0x4
 6487 06d4 55010000 		.4byte	.LASF95
 6488 06d8 12       		.byte	0x12
 6489 06d9 D204     		.2byte	0x4d2
 6490 06db 10       		.byte	0x10
 6491 06dc F5000000 		.4byte	0xf5
 6492 06e0 08       		.byte	0x8
 6493 06e1 04       		.uleb128 0x4
 6494 06e2 AC0C0000 		.4byte	.LASF96
 6495 06e6 12       		.byte	0x12
 6496 06e7 D304     		.2byte	0x4d3
 6497 06e9 10       		.byte	0x10
 6498 06ea F5000000 		.4byte	0xf5
 6499 06ee 0C       		.byte	0xc
 6500 06ef 04       		.uleb128 0x4
 6501 06f0 110B0000 		.4byte	.LASF97
 6502 06f4 12       		.byte	0x12
 6503 06f5 D404     		.2byte	0x4d4
 6504 06f7 10       		.byte	0x10
 6505 06f8 F5000000 		.4byte	0xf5
 6506 06fc 10       		.byte	0x10
 6507 06fd 04       		.uleb128 0x4
 6508 06fe EA090000 		.4byte	.LASF98
 6509 0702 12       		.byte	0x12
 6510 0703 D504     		.2byte	0x4d5
 6511 0705 0F       		.byte	0xf
 6512 0706 E9000000 		.4byte	0xe9
 6513 070a 14       		.byte	0x14
 6514 070b 04       		.uleb128 0x4
 6515 070c BA0B0000 		.4byte	.LASF99
 6516 0710 12       		.byte	0x12
 6517 0711 D604     		.2byte	0x4d6
ARM GAS  C:\Users\DEVELO~1\AppData\Local\Temp\ccJK6Gr9.s 			page 116


 6518 0713 10       		.byte	0x10
 6519 0714 F5000000 		.4byte	0xf5
 6520 0718 18       		.byte	0x18
 6521 0719 04       		.uleb128 0x4
 6522 071a 80060000 		.4byte	.LASF100
 6523 071e 12       		.byte	0x12
 6524 071f D704     		.2byte	0x4d7
 6525 0721 10       		.byte	0x10
 6526 0722 F5000000 		.4byte	0xf5
 6527 0726 1C       		.byte	0x1c
 6528 0727 04       		.uleb128 0x4
 6529 0728 3D010000 		.4byte	.LASF101
 6530 072c 12       		.byte	0x12
 6531 072d D804     		.2byte	0x4d8
 6532 072f 10       		.byte	0x10
 6533 0730 F5000000 		.4byte	0xf5
 6534 0734 20       		.byte	0x20
 6535 0735 04       		.uleb128 0x4
 6536 0736 F4090000 		.4byte	.LASF102
 6537 073a 12       		.byte	0x12
 6538 073b D904     		.2byte	0x4d9
 6539 073d 0F       		.byte	0xf
 6540 073e E9000000 		.4byte	0xe9
 6541 0742 24       		.byte	0x24
 6542 0743 04       		.uleb128 0x4
 6543 0744 810B0000 		.4byte	.LASF103
 6544 0748 12       		.byte	0x12
 6545 0749 DA04     		.2byte	0x4da
 6546 074b 10       		.byte	0x10
 6547 074c F5000000 		.4byte	0xf5
 6548 0750 28       		.byte	0x28
 6549 0751 04       		.uleb128 0x4
 6550 0752 790B0000 		.4byte	.LASF104
 6551 0756 12       		.byte	0x12
 6552 0757 DB04     		.2byte	0x4db
 6553 0759 10       		.byte	0x10
 6554 075a F5000000 		.4byte	0xf5
 6555 075e 2C       		.byte	0x2c
 6556 075f 04       		.uleb128 0x4
 6557 0760 530C0000 		.4byte	.LASF105
 6558 0764 12       		.byte	0x12
 6559 0765 DC04     		.2byte	0x4dc
 6560 0767 10       		.byte	0x10
 6561 0768 F5000000 		.4byte	0xf5
 6562 076c 30       		.byte	0x30
 6563 076d 04       		.uleb128 0x4
 6564 076e 34030000 		.4byte	.LASF106
 6565 0772 12       		.byte	0x12
 6566 0773 DD04     		.2byte	0x4dd
 6567 0775 10       		.byte	0x10
 6568 0776 F5000000 		.4byte	0xf5
 6569 077a 34       		.byte	0x34
 6570 077b 04       		.uleb128 0x4
 6571 077c D9060000 		.4byte	.LASF107
 6572 0780 12       		.byte	0x12
 6573 0781 DE04     		.2byte	0x4de
 6574 0783 10       		.byte	0x10
ARM GAS  C:\Users\DEVELO~1\AppData\Local\Temp\ccJK6Gr9.s 			page 117


 6575 0784 F5000000 		.4byte	0xf5
 6576 0788 38       		.byte	0x38
 6577 0789 04       		.uleb128 0x4
 6578 078a 1E060000 		.4byte	.LASF108
 6579 078e 12       		.byte	0x12
 6580 078f DF04     		.2byte	0x4df
 6581 0791 10       		.byte	0x10
 6582 0792 F5000000 		.4byte	0xf5
 6583 0796 3C       		.byte	0x3c
 6584 0797 04       		.uleb128 0x4
 6585 0798 A1010000 		.4byte	.LASF109
 6586 079c 12       		.byte	0x12
 6587 079d E004     		.2byte	0x4e0
 6588 079f 10       		.byte	0x10
 6589 07a0 F5000000 		.4byte	0xf5
 6590 07a4 40       		.byte	0x40
 6591 07a5 04       		.uleb128 0x4
 6592 07a6 E7000000 		.4byte	.LASF110
 6593 07aa 12       		.byte	0x12
 6594 07ab E104     		.2byte	0x4e1
 6595 07ad 10       		.byte	0x10
 6596 07ae F5000000 		.4byte	0xf5
 6597 07b2 44       		.byte	0x44
 6598 07b3 04       		.uleb128 0x4
 6599 07b4 FE090000 		.4byte	.LASF111
 6600 07b8 12       		.byte	0x12
 6601 07b9 E204     		.2byte	0x4e2
 6602 07bb 10       		.byte	0x10
 6603 07bc E9000000 		.4byte	0xe9
 6604 07c0 48       		.byte	0x48
 6605 07c1 04       		.uleb128 0x4
 6606 07c2 090B0000 		.4byte	.LASF112
 6607 07c6 12       		.byte	0x12
 6608 07c7 E304     		.2byte	0x4e3
 6609 07c9 11       		.byte	0x11
 6610 07ca F5000000 		.4byte	0xf5
 6611 07ce 4C       		.byte	0x4c
 6612 07cf 04       		.uleb128 0x4
 6613 07d0 92050000 		.4byte	.LASF113
 6614 07d4 12       		.byte	0x12
 6615 07d5 E404     		.2byte	0x4e4
 6616 07d7 11       		.byte	0x11
 6617 07d8 F5000000 		.4byte	0xf5
 6618 07dc 50       		.byte	0x50
 6619 07dd 04       		.uleb128 0x4
 6620 07de A5060000 		.4byte	.LASF114
 6621 07e2 12       		.byte	0x12
 6622 07e3 E504     		.2byte	0x4e5
 6623 07e5 11       		.byte	0x11
 6624 07e6 F5000000 		.4byte	0xf5
 6625 07ea 54       		.byte	0x54
 6626 07eb 04       		.uleb128 0x4
 6627 07ec B00D0000 		.4byte	.LASF115
 6628 07f0 12       		.byte	0x12
 6629 07f1 E604     		.2byte	0x4e6
 6630 07f3 11       		.byte	0x11
 6631 07f4 F5000000 		.4byte	0xf5
ARM GAS  C:\Users\DEVELO~1\AppData\Local\Temp\ccJK6Gr9.s 			page 118


 6632 07f8 58       		.byte	0x58
 6633 07f9 04       		.uleb128 0x4
 6634 07fa 080A0000 		.4byte	.LASF116
 6635 07fe 12       		.byte	0x12
 6636 07ff E704     		.2byte	0x4e7
 6637 0801 10       		.byte	0x10
 6638 0802 E9000000 		.4byte	0xe9
 6639 0806 5C       		.byte	0x5c
 6640 0807 04       		.uleb128 0x4
 6641 0808 B6060000 		.4byte	.LASF117
 6642 080c 12       		.byte	0x12
 6643 080d E804     		.2byte	0x4e8
 6644 080f 11       		.byte	0x11
 6645 0810 F5000000 		.4byte	0xf5
 6646 0814 60       		.byte	0x60
 6647 0815 04       		.uleb128 0x4
 6648 0816 0D020000 		.4byte	.LASF118
 6649 081a 12       		.byte	0x12
 6650 081b E904     		.2byte	0x4e9
 6651 081d 11       		.byte	0x11
 6652 081e F5000000 		.4byte	0xf5
 6653 0822 64       		.byte	0x64
 6654 0823 04       		.uleb128 0x4
 6655 0824 B5090000 		.4byte	.LASF119
 6656 0828 12       		.byte	0x12
 6657 0829 EA04     		.2byte	0x4ea
 6658 082b 11       		.byte	0x11
 6659 082c F5000000 		.4byte	0xf5
 6660 0830 68       		.byte	0x68
 6661 0831 04       		.uleb128 0x4
 6662 0832 A50E0000 		.4byte	.LASF120
 6663 0836 12       		.byte	0x12
 6664 0837 EB04     		.2byte	0x4eb
 6665 0839 0F       		.byte	0xf
 6666 083a E9000000 		.4byte	0xe9
 6667 083e 6C       		.byte	0x6c
 6668 083f 04       		.uleb128 0x4
 6669 0840 44010000 		.4byte	.LASF121
 6670 0844 12       		.byte	0x12
 6671 0845 EC04     		.2byte	0x4ec
 6672 0847 11       		.byte	0x11
 6673 0848 F5000000 		.4byte	0xf5
 6674 084c 70       		.byte	0x70
 6675 084d 09       		.uleb128 0x9
 6676 084e 43535200 		.ascii	"CSR\000"
 6677 0852 12       		.byte	0x12
 6678 0853 ED04     		.2byte	0x4ed
 6679 0855 11       		.byte	0x11
 6680 0856 F5000000 		.4byte	0xf5
 6681 085a 74       		.byte	0x74
 6682 085b 04       		.uleb128 0x4
 6683 085c AF0E0000 		.4byte	.LASF122
 6684 0860 12       		.byte	0x12
 6685 0861 EE04     		.2byte	0x4ee
 6686 0863 0F       		.byte	0xf
 6687 0864 E9000000 		.4byte	0xe9
 6688 0868 78       		.byte	0x78
ARM GAS  C:\Users\DEVELO~1\AppData\Local\Temp\ccJK6Gr9.s 			page 119


 6689 0869 04       		.uleb128 0x4
 6690 086a 58040000 		.4byte	.LASF123
 6691 086e 12       		.byte	0x12
 6692 086f EF04     		.2byte	0x4ef
 6693 0871 10       		.byte	0x10
 6694 0872 F5000000 		.4byte	0xf5
 6695 0876 7C       		.byte	0x7c
 6696 0877 04       		.uleb128 0x4
 6697 0878 A8080000 		.4byte	.LASF124
 6698 087c 12       		.byte	0x12
 6699 087d F004     		.2byte	0x4f0
 6700 087f 10       		.byte	0x10
 6701 0880 F5000000 		.4byte	0xf5
 6702 0884 80       		.byte	0x80
 6703 0885 04       		.uleb128 0x4
 6704 0886 75090000 		.4byte	.LASF125
 6705 088a 12       		.byte	0x12
 6706 088b F104     		.2byte	0x4f1
 6707 088d 10       		.byte	0x10
 6708 088e F5000000 		.4byte	0xf5
 6709 0892 84       		.byte	0x84
 6710 0893 04       		.uleb128 0x4
 6711 0894 A60A0000 		.4byte	.LASF126
 6712 0898 12       		.byte	0x12
 6713 0899 F204     		.2byte	0x4f2
 6714 089b 10       		.byte	0x10
 6715 089c F5000000 		.4byte	0xf5
 6716 08a0 88       		.byte	0x88
 6717 08a1 04       		.uleb128 0x4
 6718 08a2 800A0000 		.4byte	.LASF127
 6719 08a6 12       		.byte	0x12
 6720 08a7 F304     		.2byte	0x4f3
 6721 08a9 10       		.byte	0x10
 6722 08aa F5000000 		.4byte	0xf5
 6723 08ae 8C       		.byte	0x8c
 6724 08af 04       		.uleb128 0x4
 6725 08b0 6D030000 		.4byte	.LASF128
 6726 08b4 12       		.byte	0x12
 6727 08b5 F404     		.2byte	0x4f4
 6728 08b7 10       		.byte	0x10
 6729 08b8 F5000000 		.4byte	0xf5
 6730 08bc 90       		.byte	0x90
 6731 08bd 04       		.uleb128 0x4
 6732 08be 00000000 		.4byte	.LASF129
 6733 08c2 12       		.byte	0x12
 6734 08c3 F504     		.2byte	0x4f5
 6735 08c5 10       		.byte	0x10
 6736 08c6 F5000000 		.4byte	0xf5
 6737 08ca 94       		.byte	0x94
 6738 08cb 04       		.uleb128 0x4
 6739 08cc AD000000 		.4byte	.LASF130
 6740 08d0 12       		.byte	0x12
 6741 08d1 F604     		.2byte	0x4f6
 6742 08d3 10       		.byte	0x10
 6743 08d4 F5000000 		.4byte	0xf5
 6744 08d8 98       		.byte	0x98
 6745 08d9 04       		.uleb128 0x4
ARM GAS  C:\Users\DEVELO~1\AppData\Local\Temp\ccJK6Gr9.s 			page 120


 6746 08da 3B050000 		.4byte	.LASF131
 6747 08de 12       		.byte	0x12
 6748 08df F704     		.2byte	0x4f7
 6749 08e1 10       		.byte	0x10
 6750 08e2 F5000000 		.4byte	0xf5
 6751 08e6 9C       		.byte	0x9c
 6752 08e7 09       		.uleb128 0x9
 6753 08e8 47435200 		.ascii	"GCR\000"
 6754 08ec 12       		.byte	0x12
 6755 08ed F804     		.2byte	0x4f8
 6756 08ef 10       		.byte	0x10
 6757 08f0 F5000000 		.4byte	0xf5
 6758 08f4 A0       		.byte	0xa0
 6759 08f5 04       		.uleb128 0x4
 6760 08f6 220A0000 		.4byte	.LASF132
 6761 08fa 12       		.byte	0x12
 6762 08fb F904     		.2byte	0x4f9
 6763 08fd 0F       		.byte	0xf
 6764 08fe E9000000 		.4byte	0xe9
 6765 0902 A4       		.byte	0xa4
 6766 0903 04       		.uleb128 0x4
 6767 0904 120A0000 		.4byte	.LASF133
 6768 0908 12       		.byte	0x12
 6769 0909 FA04     		.2byte	0x4fa
 6770 090b 10       		.byte	0x10
 6771 090c F5000000 		.4byte	0xf5
 6772 0910 A8       		.byte	0xa8
 6773 0911 04       		.uleb128 0x4
 6774 0912 0D0D0000 		.4byte	.LASF134
 6775 0916 12       		.byte	0x12
 6776 0917 FB04     		.2byte	0x4fb
 6777 0919 0F       		.byte	0xf
 6778 091a 8D060000 		.4byte	0x68d
 6779 091e AC       		.byte	0xac
 6780 091f 09       		.uleb128 0x9
 6781 0920 52535200 		.ascii	"RSR\000"
 6782 0924 12       		.byte	0x12
 6783 0925 FC04     		.2byte	0x4fc
 6784 0927 10       		.byte	0x10
 6785 0928 F5000000 		.4byte	0xf5
 6786 092c D0       		.byte	0xd0
 6787 092d 04       		.uleb128 0x4
 6788 092e 7A050000 		.4byte	.LASF135
 6789 0932 12       		.byte	0x12
 6790 0933 FD04     		.2byte	0x4fd
 6791 0935 10       		.byte	0x10
 6792 0936 F5000000 		.4byte	0xf5
 6793 093a D4       		.byte	0xd4
 6794 093b 04       		.uleb128 0x4
 6795 093c 5D030000 		.4byte	.LASF136
 6796 0940 12       		.byte	0x12
 6797 0941 FE04     		.2byte	0x4fe
 6798 0943 10       		.byte	0x10
 6799 0944 F5000000 		.4byte	0xf5
 6800 0948 D8       		.byte	0xd8
 6801 0949 04       		.uleb128 0x4
 6802 094a 030C0000 		.4byte	.LASF137
ARM GAS  C:\Users\DEVELO~1\AppData\Local\Temp\ccJK6Gr9.s 			page 121


 6803 094e 12       		.byte	0x12
 6804 094f FF04     		.2byte	0x4ff
 6805 0951 10       		.byte	0x10
 6806 0952 F5000000 		.4byte	0xf5
 6807 0956 DC       		.byte	0xdc
 6808 0957 04       		.uleb128 0x4
 6809 0958 9D0E0000 		.4byte	.LASF138
 6810 095c 12       		.byte	0x12
 6811 095d 0005     		.2byte	0x500
 6812 095f 10       		.byte	0x10
 6813 0960 F5000000 		.4byte	0xf5
 6814 0964 E0       		.byte	0xe0
 6815 0965 04       		.uleb128 0x4
 6816 0966 65020000 		.4byte	.LASF139
 6817 096a 12       		.byte	0x12
 6818 096b 0105     		.2byte	0x501
 6819 096d 10       		.byte	0x10
 6820 096e F5000000 		.4byte	0xf5
 6821 0972 E4       		.byte	0xe4
 6822 0973 04       		.uleb128 0x4
 6823 0974 B2040000 		.4byte	.LASF140
 6824 0978 12       		.byte	0x12
 6825 0979 0205     		.2byte	0x502
 6826 097b 10       		.byte	0x10
 6827 097c F5000000 		.4byte	0xf5
 6828 0980 E8       		.byte	0xe8
 6829 0981 04       		.uleb128 0x4
 6830 0982 4E0A0000 		.4byte	.LASF141
 6831 0986 12       		.byte	0x12
 6832 0987 0305     		.2byte	0x503
 6833 0989 10       		.byte	0x10
 6834 098a F5000000 		.4byte	0xf5
 6835 098e EC       		.byte	0xec
 6836 098f 04       		.uleb128 0x4
 6837 0990 D0080000 		.4byte	.LASF142
 6838 0994 12       		.byte	0x12
 6839 0995 0405     		.2byte	0x504
 6840 0997 10       		.byte	0x10
 6841 0998 F5000000 		.4byte	0xf5
 6842 099c F0       		.byte	0xf0
 6843 099d 04       		.uleb128 0x4
 6844 099e 620B0000 		.4byte	.LASF143
 6845 09a2 12       		.byte	0x12
 6846 09a3 0505     		.2byte	0x505
 6847 09a5 10       		.byte	0x10
 6848 09a6 F5000000 		.4byte	0xf5
 6849 09aa F4       		.byte	0xf4
 6850 09ab 04       		.uleb128 0x4
 6851 09ac 180D0000 		.4byte	.LASF144
 6852 09b0 12       		.byte	0x12
 6853 09b1 0605     		.2byte	0x506
 6854 09b3 10       		.byte	0x10
 6855 09b4 E9000000 		.4byte	0xe9
 6856 09b8 F8       		.byte	0xf8
 6857 09b9 04       		.uleb128 0x4
 6858 09ba 900B0000 		.4byte	.LASF145
 6859 09be 12       		.byte	0x12
ARM GAS  C:\Users\DEVELO~1\AppData\Local\Temp\ccJK6Gr9.s 			page 122


 6860 09bf 0705     		.2byte	0x507
 6861 09c1 10       		.byte	0x10
 6862 09c2 F5000000 		.4byte	0xf5
 6863 09c6 FC       		.byte	0xfc
 6864 09c7 1B       		.uleb128 0x1b
 6865 09c8 15090000 		.4byte	.LASF146
 6866 09cc 0805     		.2byte	0x508
 6867 09ce 10       		.byte	0x10
 6868 09cf F5000000 		.4byte	0xf5
 6869 09d3 0001     		.2byte	0x100
 6870 09d5 1B       		.uleb128 0x1b
 6871 09d6 1D020000 		.4byte	.LASF147
 6872 09da 0905     		.2byte	0x509
 6873 09dc 10       		.byte	0x10
 6874 09dd F5000000 		.4byte	0xf5
 6875 09e1 0401     		.2byte	0x104
 6876 09e3 1B       		.uleb128 0x1b
 6877 09e4 14060000 		.4byte	.LASF148
 6878 09e8 0A05     		.2byte	0x50a
 6879 09ea 10       		.byte	0x10
 6880 09eb F5000000 		.4byte	0xf5
 6881 09ef 0801     		.2byte	0x108
 6882 09f1 1B       		.uleb128 0x1b
 6883 09f2 440A0000 		.4byte	.LASF149
 6884 09f6 0B05     		.2byte	0x50b
 6885 09f8 10       		.byte	0x10
 6886 09f9 F5000000 		.4byte	0xf5
 6887 09fd 0C01     		.2byte	0x10c
 6888 09ff 1B       		.uleb128 0x1b
 6889 0a00 B6030000 		.4byte	.LASF150
 6890 0a04 0C05     		.2byte	0x50c
 6891 0a06 10       		.byte	0x10
 6892 0a07 F5000000 		.4byte	0xf5
 6893 0a0b 1001     		.2byte	0x110
 6894 0a0d 1B       		.uleb128 0x1b
 6895 0a0e F90E0000 		.4byte	.LASF151
 6896 0a12 0D05     		.2byte	0x50d
 6897 0a14 10       		.byte	0x10
 6898 0a15 F5000000 		.4byte	0xf5
 6899 0a19 1401     		.2byte	0x114
 6900 0a1b 1B       		.uleb128 0x1b
 6901 0a1c A3000000 		.4byte	.LASF152
 6902 0a20 0E05     		.2byte	0x50e
 6903 0a22 10       		.byte	0x10
 6904 0a23 F5000000 		.4byte	0xf5
 6905 0a27 1801     		.2byte	0x118
 6906 0a29 1B       		.uleb128 0x1b
 6907 0a2a C0040000 		.4byte	.LASF153
 6908 0a2e 0F05     		.2byte	0x50f
 6909 0a30 10       		.byte	0x10
 6910 0a31 F5000000 		.4byte	0xf5
 6911 0a35 1C01     		.2byte	0x11c
 6912 0a37 1B       		.uleb128 0x1b
 6913 0a38 230D0000 		.4byte	.LASF154
 6914 0a3c 1005     		.2byte	0x510
 6915 0a3e 0F       		.byte	0xf
 6916 0a3f 5E050000 		.4byte	0x55e
ARM GAS  C:\Users\DEVELO~1\AppData\Local\Temp\ccJK6Gr9.s 			page 123


 6917 0a43 2001     		.2byte	0x120
 6918 0a45 00       		.byte	0
 6919 0a46 19       		.uleb128 0x19
 6920 0a47 5B010000 		.4byte	.LASF155
 6921 0a4b 12       		.byte	0x12
 6922 0a4c 1205     		.2byte	0x512
 6923 0a4e 03       		.byte	0x3
 6924 0a4f AD060000 		.4byte	0x6ad
 6925 0a53 2B       		.uleb128 0x2b
 6926 0a54 54       		.byte	0x54
 6927 0a55 12       		.byte	0x12
 6928 0a56 C405     		.2byte	0x5c4
 6929 0a58 4A0B0000 		.4byte	0xb4a
 6930 0a5c 09       		.uleb128 0x9
 6931 0a5d 43523100 		.ascii	"CR1\000"
 6932 0a61 12       		.byte	0x12
 6933 0a62 C605     		.2byte	0x5c6
 6934 0a64 11       		.byte	0x11
 6935 0a65 F5000000 		.4byte	0xf5
 6936 0a69 00       		.byte	0
 6937 0a6a 09       		.uleb128 0x9
 6938 0a6b 43523200 		.ascii	"CR2\000"
 6939 0a6f 12       		.byte	0x12
 6940 0a70 C705     		.2byte	0x5c7
 6941 0a72 11       		.byte	0x11
 6942 0a73 F5000000 		.4byte	0xf5
 6943 0a77 04       		.byte	0x4
 6944 0a78 04       		.uleb128 0x4
 6945 0a79 760A0000 		.4byte	.LASF156
 6946 0a7d 12       		.byte	0x12
 6947 0a7e C805     		.2byte	0x5c8
 6948 0a80 11       		.byte	0x11
 6949 0a81 F5000000 		.4byte	0xf5
 6950 0a85 08       		.byte	0x8
 6951 0a86 04       		.uleb128 0x4
 6952 0a87 7B0A0000 		.4byte	.LASF157
 6953 0a8b 12       		.byte	0x12
 6954 0a8c C905     		.2byte	0x5c9
 6955 0a8e 11       		.byte	0x11
 6956 0a8f F5000000 		.4byte	0xf5
 6957 0a93 0C       		.byte	0xc
 6958 0a94 09       		.uleb128 0x9
 6959 0a95 49455200 		.ascii	"IER\000"
 6960 0a99 12       		.byte	0x12
 6961 0a9a CA05     		.2byte	0x5ca
 6962 0a9c 11       		.byte	0x11
 6963 0a9d F5000000 		.4byte	0xf5
 6964 0aa1 10       		.byte	0x10
 6965 0aa2 09       		.uleb128 0x9
 6966 0aa3 535200   		.ascii	"SR\000"
 6967 0aa6 12       		.byte	0x12
 6968 0aa7 CB05     		.2byte	0x5cb
 6969 0aa9 11       		.byte	0x11
 6970 0aaa F5000000 		.4byte	0xf5
 6971 0aae 14       		.byte	0x14
 6972 0aaf 04       		.uleb128 0x4
 6973 0ab0 3C0E0000 		.4byte	.LASF91
ARM GAS  C:\Users\DEVELO~1\AppData\Local\Temp\ccJK6Gr9.s 			page 124


 6974 0ab4 12       		.byte	0x12
 6975 0ab5 CC05     		.2byte	0x5cc
 6976 0ab7 11       		.byte	0x11
 6977 0ab8 F5000000 		.4byte	0xf5
 6978 0abc 18       		.byte	0x18
 6979 0abd 04       		.uleb128 0x4
 6980 0abe E0090000 		.4byte	.LASF158
 6981 0ac2 12       		.byte	0x12
 6982 0ac3 CD05     		.2byte	0x5cd
 6983 0ac5 11       		.byte	0x11
 6984 0ac6 E9000000 		.4byte	0xe9
 6985 0aca 1C       		.byte	0x1c
 6986 0acb 04       		.uleb128 0x4
 6987 0acc F2060000 		.4byte	.LASF159
 6988 0ad0 12       		.byte	0x12
 6989 0ad1 CE05     		.2byte	0x5ce
 6990 0ad3 11       		.byte	0x11
 6991 0ad4 F5000000 		.4byte	0xf5
 6992 0ad8 20       		.byte	0x20
 6993 0ad9 04       		.uleb128 0x4
 6994 0ada EA090000 		.4byte	.LASF98
 6995 0ade 12       		.byte	0x12
 6996 0adf CF05     		.2byte	0x5cf
 6997 0ae1 11       		.byte	0x11
 6998 0ae2 9D060000 		.4byte	0x69d
 6999 0ae6 24       		.byte	0x24
 7000 0ae7 04       		.uleb128 0x4
 7001 0ae8 D8040000 		.4byte	.LASF160
 7002 0aec 12       		.byte	0x12
 7003 0aed D005     		.2byte	0x5d0
 7004 0aef 11       		.byte	0x11
 7005 0af0 F5000000 		.4byte	0xf5
 7006 0af4 30       		.byte	0x30
 7007 0af5 04       		.uleb128 0x4
 7008 0af6 F4090000 		.4byte	.LASF102
 7009 0afa 12       		.byte	0x12
 7010 0afb D105     		.2byte	0x5d1
 7011 0afd 11       		.byte	0x11
 7012 0afe 9D060000 		.4byte	0x69d
 7013 0b02 34       		.byte	0x34
 7014 0b03 04       		.uleb128 0x4
 7015 0b04 6E0A0000 		.4byte	.LASF161
 7016 0b08 12       		.byte	0x12
 7017 0b09 D205     		.2byte	0x5d2
 7018 0b0b 11       		.byte	0x11
 7019 0b0c F5000000 		.4byte	0xf5
 7020 0b10 40       		.byte	0x40
 7021 0b11 04       		.uleb128 0x4
 7022 0b12 2F010000 		.4byte	.LASF162
 7023 0b16 12       		.byte	0x12
 7024 0b17 D305     		.2byte	0x5d3
 7025 0b19 11       		.byte	0x11
 7026 0b1a F5000000 		.4byte	0xf5
 7027 0b1e 44       		.byte	0x44
 7028 0b1f 04       		.uleb128 0x4
 7029 0b20 5F020000 		.4byte	.LASF163
 7030 0b24 12       		.byte	0x12
ARM GAS  C:\Users\DEVELO~1\AppData\Local\Temp\ccJK6Gr9.s 			page 125


 7031 0b25 D405     		.2byte	0x5d4
 7032 0b27 11       		.byte	0x11
 7033 0b28 F5000000 		.4byte	0xf5
 7034 0b2c 48       		.byte	0x48
 7035 0b2d 04       		.uleb128 0x4
 7036 0b2e AF0A0000 		.4byte	.LASF164
 7037 0b32 12       		.byte	0x12
 7038 0b33 D505     		.2byte	0x5d5
 7039 0b35 11       		.byte	0x11
 7040 0b36 F5000000 		.4byte	0xf5
 7041 0b3a 4C       		.byte	0x4c
 7042 0b3b 04       		.uleb128 0x4
 7043 0b3c 4C0D0000 		.4byte	.LASF165
 7044 0b40 12       		.byte	0x12
 7045 0b41 D605     		.2byte	0x5d6
 7046 0b43 11       		.byte	0x11
 7047 0b44 F5000000 		.4byte	0xf5
 7048 0b48 50       		.byte	0x50
 7049 0b49 00       		.byte	0
 7050 0b4a 19       		.uleb128 0x19
 7051 0b4b 6C0D0000 		.4byte	.LASF166
 7052 0b4f 12       		.byte	0x12
 7053 0b50 D805     		.2byte	0x5d8
 7054 0b52 03       		.byte	0x3
 7055 0b53 530A0000 		.4byte	0xa53
 7056 0b57 36       		.uleb128 0x36
 7057 0b58 570A0000 		.4byte	.LASF167
 7058 0b5c 64       		.byte	0x64
 7059 0b5d 05       		.byte	0x5
 7060 0b5e 3F02     		.2byte	0x23f
 7061 0b60 08       		.byte	0x8
 7062 0b61 BD0C0000 		.4byte	0xcbd
 7063 0b65 09       		.uleb128 0x9
 7064 0b66 73313600 		.ascii	"s16\000"
 7065 0b6a 05       		.byte	0x5
 7066 0b6b 4102     		.2byte	0x241
 7067 0b6d 11       		.byte	0x11
 7068 0b6e E9000000 		.4byte	0xe9
 7069 0b72 00       		.byte	0
 7070 0b73 09       		.uleb128 0x9
 7071 0b74 73313700 		.ascii	"s17\000"
 7072 0b78 05       		.byte	0x5
 7073 0b79 4202     		.2byte	0x242
 7074 0b7b 11       		.byte	0x11
 7075 0b7c E9000000 		.4byte	0xe9
 7076 0b80 04       		.byte	0x4
 7077 0b81 09       		.uleb128 0x9
 7078 0b82 73313800 		.ascii	"s18\000"
 7079 0b86 05       		.byte	0x5
 7080 0b87 4302     		.2byte	0x243
 7081 0b89 11       		.byte	0x11
 7082 0b8a E9000000 		.4byte	0xe9
 7083 0b8e 08       		.byte	0x8
 7084 0b8f 09       		.uleb128 0x9
 7085 0b90 73313900 		.ascii	"s19\000"
 7086 0b94 05       		.byte	0x5
 7087 0b95 4402     		.2byte	0x244
ARM GAS  C:\Users\DEVELO~1\AppData\Local\Temp\ccJK6Gr9.s 			page 126


 7088 0b97 11       		.byte	0x11
 7089 0b98 E9000000 		.4byte	0xe9
 7090 0b9c 0C       		.byte	0xc
 7091 0b9d 09       		.uleb128 0x9
 7092 0b9e 73323000 		.ascii	"s20\000"
 7093 0ba2 05       		.byte	0x5
 7094 0ba3 4502     		.2byte	0x245
 7095 0ba5 11       		.byte	0x11
 7096 0ba6 E9000000 		.4byte	0xe9
 7097 0baa 10       		.byte	0x10
 7098 0bab 09       		.uleb128 0x9
 7099 0bac 73323100 		.ascii	"s21\000"
 7100 0bb0 05       		.byte	0x5
 7101 0bb1 4602     		.2byte	0x246
 7102 0bb3 11       		.byte	0x11
 7103 0bb4 E9000000 		.4byte	0xe9
 7104 0bb8 14       		.byte	0x14
 7105 0bb9 09       		.uleb128 0x9
 7106 0bba 73323200 		.ascii	"s22\000"
 7107 0bbe 05       		.byte	0x5
 7108 0bbf 4702     		.2byte	0x247
 7109 0bc1 11       		.byte	0x11
 7110 0bc2 E9000000 		.4byte	0xe9
 7111 0bc6 18       		.byte	0x18
 7112 0bc7 09       		.uleb128 0x9
 7113 0bc8 73323300 		.ascii	"s23\000"
 7114 0bcc 05       		.byte	0x5
 7115 0bcd 4802     		.2byte	0x248
 7116 0bcf 11       		.byte	0x11
 7117 0bd0 E9000000 		.4byte	0xe9
 7118 0bd4 1C       		.byte	0x1c
 7119 0bd5 09       		.uleb128 0x9
 7120 0bd6 73323400 		.ascii	"s24\000"
 7121 0bda 05       		.byte	0x5
 7122 0bdb 4902     		.2byte	0x249
 7123 0bdd 11       		.byte	0x11
 7124 0bde E9000000 		.4byte	0xe9
 7125 0be2 20       		.byte	0x20
 7126 0be3 09       		.uleb128 0x9
 7127 0be4 73323500 		.ascii	"s25\000"
 7128 0be8 05       		.byte	0x5
 7129 0be9 4A02     		.2byte	0x24a
 7130 0beb 11       		.byte	0x11
 7131 0bec E9000000 		.4byte	0xe9
 7132 0bf0 24       		.byte	0x24
 7133 0bf1 09       		.uleb128 0x9
 7134 0bf2 73323600 		.ascii	"s26\000"
 7135 0bf6 05       		.byte	0x5
 7136 0bf7 4B02     		.2byte	0x24b
 7137 0bf9 11       		.byte	0x11
 7138 0bfa E9000000 		.4byte	0xe9
 7139 0bfe 28       		.byte	0x28
 7140 0bff 09       		.uleb128 0x9
 7141 0c00 73323700 		.ascii	"s27\000"
 7142 0c04 05       		.byte	0x5
 7143 0c05 4C02     		.2byte	0x24c
 7144 0c07 11       		.byte	0x11
ARM GAS  C:\Users\DEVELO~1\AppData\Local\Temp\ccJK6Gr9.s 			page 127


 7145 0c08 E9000000 		.4byte	0xe9
 7146 0c0c 2C       		.byte	0x2c
 7147 0c0d 09       		.uleb128 0x9
 7148 0c0e 73323800 		.ascii	"s28\000"
 7149 0c12 05       		.byte	0x5
 7150 0c13 4D02     		.2byte	0x24d
 7151 0c15 11       		.byte	0x11
 7152 0c16 E9000000 		.4byte	0xe9
 7153 0c1a 30       		.byte	0x30
 7154 0c1b 09       		.uleb128 0x9
 7155 0c1c 73323900 		.ascii	"s29\000"
 7156 0c20 05       		.byte	0x5
 7157 0c21 4E02     		.2byte	0x24e
 7158 0c23 11       		.byte	0x11
 7159 0c24 E9000000 		.4byte	0xe9
 7160 0c28 34       		.byte	0x34
 7161 0c29 09       		.uleb128 0x9
 7162 0c2a 73333000 		.ascii	"s30\000"
 7163 0c2e 05       		.byte	0x5
 7164 0c2f 4F02     		.2byte	0x24f
 7165 0c31 11       		.byte	0x11
 7166 0c32 E9000000 		.4byte	0xe9
 7167 0c36 38       		.byte	0x38
 7168 0c37 09       		.uleb128 0x9
 7169 0c38 73333100 		.ascii	"s31\000"
 7170 0c3c 05       		.byte	0x5
 7171 0c3d 5002     		.2byte	0x250
 7172 0c3f 11       		.byte	0x11
 7173 0c40 E9000000 		.4byte	0xe9
 7174 0c44 3C       		.byte	0x3c
 7175 0c45 09       		.uleb128 0x9
 7176 0c46 723400   		.ascii	"r4\000"
 7177 0c49 05       		.byte	0x5
 7178 0c4a 5202     		.2byte	0x252
 7179 0c4c 11       		.byte	0x11
 7180 0c4d E9000000 		.4byte	0xe9
 7181 0c51 40       		.byte	0x40
 7182 0c52 09       		.uleb128 0x9
 7183 0c53 723500   		.ascii	"r5\000"
 7184 0c56 05       		.byte	0x5
 7185 0c57 5302     		.2byte	0x253
 7186 0c59 11       		.byte	0x11
 7187 0c5a E9000000 		.4byte	0xe9
 7188 0c5e 44       		.byte	0x44
 7189 0c5f 09       		.uleb128 0x9
 7190 0c60 723600   		.ascii	"r6\000"
 7191 0c63 05       		.byte	0x5
 7192 0c64 5402     		.2byte	0x254
 7193 0c66 11       		.byte	0x11
 7194 0c67 E9000000 		.4byte	0xe9
 7195 0c6b 48       		.byte	0x48
 7196 0c6c 09       		.uleb128 0x9
 7197 0c6d 723700   		.ascii	"r7\000"
 7198 0c70 05       		.byte	0x5
 7199 0c71 5502     		.2byte	0x255
 7200 0c73 11       		.byte	0x11
 7201 0c74 E9000000 		.4byte	0xe9
ARM GAS  C:\Users\DEVELO~1\AppData\Local\Temp\ccJK6Gr9.s 			page 128


 7202 0c78 4C       		.byte	0x4c
 7203 0c79 09       		.uleb128 0x9
 7204 0c7a 723800   		.ascii	"r8\000"
 7205 0c7d 05       		.byte	0x5
 7206 0c7e 5602     		.2byte	0x256
 7207 0c80 11       		.byte	0x11
 7208 0c81 E9000000 		.4byte	0xe9
 7209 0c85 50       		.byte	0x50
 7210 0c86 09       		.uleb128 0x9
 7211 0c87 723900   		.ascii	"r9\000"
 7212 0c8a 05       		.byte	0x5
 7213 0c8b 5702     		.2byte	0x257
 7214 0c8d 11       		.byte	0x11
 7215 0c8e E9000000 		.4byte	0xe9
 7216 0c92 54       		.byte	0x54
 7217 0c93 09       		.uleb128 0x9
 7218 0c94 72313000 		.ascii	"r10\000"
 7219 0c98 05       		.byte	0x5
 7220 0c99 5802     		.2byte	0x258
 7221 0c9b 11       		.byte	0x11
 7222 0c9c E9000000 		.4byte	0xe9
 7223 0ca0 58       		.byte	0x58
 7224 0ca1 09       		.uleb128 0x9
 7225 0ca2 72313100 		.ascii	"r11\000"
 7226 0ca6 05       		.byte	0x5
 7227 0ca7 5902     		.2byte	0x259
 7228 0ca9 11       		.byte	0x11
 7229 0caa E9000000 		.4byte	0xe9
 7230 0cae 5C       		.byte	0x5c
 7231 0caf 09       		.uleb128 0x9
 7232 0cb0 6C7200   		.ascii	"lr\000"
 7233 0cb3 05       		.byte	0x5
 7234 0cb4 5A02     		.2byte	0x25a
 7235 0cb6 11       		.byte	0x11
 7236 0cb7 E9000000 		.4byte	0xe9
 7237 0cbb 60       		.byte	0x60
 7238 0cbc 00       		.byte	0
 7239 0cbd 36       		.uleb128 0x36
 7240 0cbe BB010000 		.4byte	.LASF168
 7241 0cc2 04       		.byte	0x4
 7242 0cc3 05       		.byte	0x5
 7243 0cc4 6302     		.2byte	0x263
 7244 0cc6 08       		.byte	0x8
 7245 0cc7 D90C0000 		.4byte	0xcd9
 7246 0ccb 09       		.uleb128 0x9
 7247 0ccc 737000   		.ascii	"sp\000"
 7248 0ccf 05       		.byte	0x5
 7249 0cd0 6402     		.2byte	0x264
 7250 0cd2 1A       		.byte	0x1a
 7251 0cd3 D90C0000 		.4byte	0xcd9
 7252 0cd7 00       		.byte	0
 7253 0cd8 00       		.byte	0
 7254 0cd9 0A       		.uleb128 0xa
 7255 0cda 570B0000 		.4byte	0xb57
 7256 0cde 08       		.uleb128 0x8
 7257 0cdf 6B090000 		.4byte	.LASF169
 7258 0ce3 13       		.byte	0x13
ARM GAS  C:\Users\DEVELO~1\AppData\Local\Temp\ccJK6Gr9.s 			page 129


 7259 0ce4 32       		.byte	0x32
 7260 0ce5 18       		.byte	0x18
 7261 0ce6 EA0C0000 		.4byte	0xcea
 7262 0cea 10       		.uleb128 0x10
 7263 0ceb 47020000 		.4byte	.LASF170
 7264 0cef 04       		.byte	0x4
 7265 0cf0 13       		.byte	0x13
 7266 0cf1 38       		.byte	0x38
 7267 0cf2 08       		.byte	0x8
 7268 0cf3 050D0000 		.4byte	0xd05
 7269 0cf7 05       		.uleb128 0x5
 7270 0cf8 07010000 		.4byte	.LASF171
 7271 0cfc 13       		.byte	0x13
 7272 0cfd 39       		.byte	0x39
 7273 0cfe 1A       		.byte	0x1a
 7274 0cff 050D0000 		.4byte	0xd05
 7275 0d03 00       		.byte	0
 7276 0d04 00       		.byte	0
 7277 0d05 0A       		.uleb128 0xa
 7278 0d06 DE0C0000 		.4byte	0xcde
 7279 0d0a 08       		.uleb128 0x8
 7280 0d0b DB010000 		.4byte	.LASF172
 7281 0d0f 13       		.byte	0x13
 7282 0d10 3F       		.byte	0x3f
 7283 0d11 19       		.byte	0x19
 7284 0d12 160D0000 		.4byte	0xd16
 7285 0d16 10       		.uleb128 0x10
 7286 0d17 700C0000 		.4byte	.LASF173
 7287 0d1b 08       		.byte	0x8
 7288 0d1c 13       		.byte	0x13
 7289 0d1d 45       		.byte	0x45
 7290 0d1e 08       		.byte	0x8
 7291 0d1f 3E0D0000 		.4byte	0xd3e
 7292 0d23 05       		.uleb128 0x5
 7293 0d24 07010000 		.4byte	.LASF171
 7294 0d28 13       		.byte	0x13
 7295 0d29 46       		.byte	0x46
 7296 0d2a 1A       		.byte	0x1a
 7297 0d2b 3E0D0000 		.4byte	0xd3e
 7298 0d2f 00       		.byte	0
 7299 0d30 05       		.uleb128 0x5
 7300 0d31 18020000 		.4byte	.LASF174
 7301 0d35 13       		.byte	0x13
 7302 0d36 47       		.byte	0x47
 7303 0d37 1A       		.byte	0x1a
 7304 0d38 3E0D0000 		.4byte	0xd3e
 7305 0d3c 04       		.byte	0x4
 7306 0d3d 00       		.byte	0
 7307 0d3e 0A       		.uleb128 0xa
 7308 0d3f 0A0D0000 		.4byte	0xd0a
 7309 0d43 08       		.uleb128 0x8
 7310 0d44 FA040000 		.4byte	.LASF175
 7311 0d48 13       		.byte	0x13
 7312 0d49 4E       		.byte	0x4e
 7313 0d4a 22       		.byte	0x22
 7314 0d4b 4F0D0000 		.4byte	0xd4f
 7315 0d4f 10       		.uleb128 0x10
ARM GAS  C:\Users\DEVELO~1\AppData\Local\Temp\ccJK6Gr9.s 			page 130


 7316 0d50 340C0000 		.4byte	.LASF176
 7317 0d54 0C       		.byte	0xc
 7318 0d55 13       		.byte	0x13
 7319 0d56 55       		.byte	0x55
 7320 0d57 08       		.byte	0x8
 7321 0d58 840D0000 		.4byte	0xd84
 7322 0d5c 05       		.uleb128 0x5
 7323 0d5d 07010000 		.4byte	.LASF171
 7324 0d61 13       		.byte	0x13
 7325 0d62 56       		.byte	0x56
 7326 0d63 1A       		.byte	0x1a
 7327 0d64 840D0000 		.4byte	0xd84
 7328 0d68 00       		.byte	0
 7329 0d69 05       		.uleb128 0x5
 7330 0d6a 18020000 		.4byte	.LASF174
 7331 0d6e 13       		.byte	0x13
 7332 0d6f 57       		.byte	0x57
 7333 0d70 1A       		.byte	0x1a
 7334 0d71 840D0000 		.4byte	0xd84
 7335 0d75 04       		.byte	0x4
 7336 0d76 05       		.uleb128 0x5
 7337 0d77 B6050000 		.4byte	.LASF177
 7338 0d7b 13       		.byte	0x13
 7339 0d7c 58       		.byte	0x58
 7340 0d7d 19       		.byte	0x19
 7341 0d7e 53010000 		.4byte	0x153
 7342 0d82 08       		.byte	0x8
 7343 0d83 00       		.byte	0
 7344 0d84 0A       		.uleb128 0xa
 7345 0d85 430D0000 		.4byte	0xd43
 7346 0d89 08       		.uleb128 0x8
 7347 0d8a EE050000 		.4byte	.LASF178
 7348 0d8e 13       		.byte	0x13
 7349 0d8f 5F       		.byte	0x5f
 7350 0d90 1E       		.byte	0x1e
 7351 0d91 950D0000 		.4byte	0xd95
 7352 0d95 10       		.uleb128 0x10
 7353 0d96 DC020000 		.4byte	.LASF179
 7354 0d9a 0C       		.byte	0xc
 7355 0d9b 13       		.byte	0x13
 7356 0d9c 64       		.byte	0x64
 7357 0d9d 08       		.byte	0x8
 7358 0d9e CA0D0000 		.4byte	0xdca
 7359 0da2 05       		.uleb128 0x5
 7360 0da3 07010000 		.4byte	.LASF171
 7361 0da7 13       		.byte	0x13
 7362 0da8 65       		.byte	0x65
 7363 0da9 1A       		.byte	0x1a
 7364 0daa CA0D0000 		.4byte	0xdca
 7365 0dae 00       		.byte	0
 7366 0daf 05       		.uleb128 0x5
 7367 0db0 18020000 		.4byte	.LASF174
 7368 0db4 13       		.byte	0x13
 7369 0db5 66       		.byte	0x66
 7370 0db6 1A       		.byte	0x1a
 7371 0db7 CA0D0000 		.4byte	0xdca
 7372 0dbb 04       		.byte	0x4
ARM GAS  C:\Users\DEVELO~1\AppData\Local\Temp\ccJK6Gr9.s 			page 131


 7373 0dbc 05       		.uleb128 0x5
 7374 0dbd E60D0000 		.4byte	.LASF180
 7375 0dc1 13       		.byte	0x13
 7376 0dc2 67       		.byte	0x67
 7377 0dc3 19       		.byte	0x19
 7378 0dc4 BB030000 		.4byte	0x3bb
 7379 0dc8 08       		.byte	0x8
 7380 0dc9 00       		.byte	0
 7381 0dca 0A       		.uleb128 0xa
 7382 0dcb 890D0000 		.4byte	0xd89
 7383 0dcf 10       		.uleb128 0x10
 7384 0dd0 72040000 		.4byte	.LASF181
 7385 0dd4 20       		.byte	0x20
 7386 0dd5 0D       		.byte	0xd
 7387 0dd6 64       		.byte	0x64
 7388 0dd7 10       		.byte	0x10
 7389 0dd8 110E0000 		.4byte	0xe11
 7390 0ddc 05       		.uleb128 0x5
 7391 0ddd EB0A0000 		.4byte	.LASF182
 7392 0de1 0D       		.byte	0xd
 7393 0de2 68       		.byte	0x68
 7394 0de3 21       		.byte	0x21
 7395 0de4 890D0000 		.4byte	0xd89
 7396 0de8 00       		.byte	0
 7397 0de9 05       		.uleb128 0x5
 7398 0dea 000B0000 		.4byte	.LASF183
 7399 0dee 0D       		.byte	0xd
 7400 0def 73       		.byte	0x73
 7401 0df0 21       		.byte	0x21
 7402 0df1 AF030000 		.4byte	0x3af
 7403 0df5 0C       		.byte	0xc
 7404 0df6 05       		.uleb128 0x5
 7405 0df7 6A070000 		.4byte	.LASF184
 7406 0dfb 0D       		.byte	0xd
 7407 0dfc 7B       		.byte	0x7b
 7408 0dfd 21       		.byte	0x21
 7409 0dfe BB030000 		.4byte	0x3bb
 7410 0e02 10       		.byte	0x10
 7411 0e03 05       		.uleb128 0x5
 7412 0e04 03020000 		.4byte	.LASF185
 7413 0e08 0D       		.byte	0xd
 7414 0e09 81       		.byte	0x81
 7415 0e0a 21       		.byte	0x21
 7416 0e0b 06010000 		.4byte	0x106
 7417 0e0f 18       		.byte	0x18
 7418 0e10 00       		.byte	0
 7419 0e11 08       		.uleb128 0x8
 7420 0e12 C70C0000 		.4byte	.LASF186
 7421 0e16 0D       		.byte	0xd
 7422 0e17 83       		.byte	0x83
 7423 0e18 03       		.byte	0x3
 7424 0e19 CF0D0000 		.4byte	0xdcf
 7425 0e1d 10       		.uleb128 0x10
 7426 0e1e 97000000 		.4byte	.LASF187
 7427 0e22 08       		.byte	0x8
 7428 0e23 0D       		.byte	0xd
 7429 0e24 88       		.byte	0x88
ARM GAS  C:\Users\DEVELO~1\AppData\Local\Temp\ccJK6Gr9.s 			page 132


 7430 0e25 10       		.byte	0x10
 7431 0e26 380E0000 		.4byte	0xe38
 7432 0e2a 05       		.uleb128 0x5
 7433 0e2b 1A0C0000 		.4byte	.LASF188
 7434 0e2f 0D       		.byte	0xd
 7435 0e30 8C       		.byte	0x8c
 7436 0e31 21       		.byte	0x21
 7437 0e32 0A0D0000 		.4byte	0xd0a
 7438 0e36 00       		.byte	0
 7439 0e37 00       		.byte	0
 7440 0e38 08       		.uleb128 0x8
 7441 0e39 89070000 		.4byte	.LASF189
 7442 0e3d 0D       		.byte	0xd
 7443 0e3e 8D       		.byte	0x8d
 7444 0e3f 03       		.byte	0x3
 7445 0e40 1D0E0000 		.4byte	0xe1d
 7446 0e44 08       		.uleb128 0x8
 7447 0e45 55000000 		.4byte	.LASF190
 7448 0e49 0D       		.byte	0xd
 7449 0e4a 92       		.byte	0x92
 7450 0e4b 14       		.byte	0x14
 7451 0e4c EB030000 		.4byte	0x3eb
 7452 0e50 08       		.uleb128 0x8
 7453 0e51 B1080000 		.4byte	.LASF191
 7454 0e55 0D       		.byte	0xd
 7455 0e56 A1       		.byte	0xa1
 7456 0e57 10       		.byte	0x10
 7457 0e58 5C0E0000 		.4byte	0xe5c
 7458 0e5c 0A       		.uleb128 0xa
 7459 0e5d 610E0000 		.4byte	0xe61
 7460 0e61 3A       		.uleb128 0x3a
 7461 0e62 6C0E0000 		.4byte	0xe6c
 7462 0e66 0B       		.uleb128 0xb
 7463 0e67 EB030000 		.4byte	0x3eb
 7464 0e6b 00       		.byte	0
 7465 0e6c 34       		.uleb128 0x34
 7466 0e6d 0C       		.byte	0xc
 7467 0e6e 0D       		.byte	0xd
 7468 0e6f AD       		.byte	0xad
 7469 0e70 03       		.byte	0x3
 7470 0e71 9A0E0000 		.4byte	0xe9a
 7471 0e75 24       		.uleb128 0x24
 7472 0e76 A5020000 		.4byte	.LASF192
 7473 0e7a 0D       		.byte	0xd
 7474 0e7b B1       		.byte	0xb1
 7475 0e7c 21       		.byte	0x21
 7476 0e7d DE0C0000 		.4byte	0xcde
 7477 0e81 24       		.uleb128 0x24
 7478 0e82 1A0C0000 		.4byte	.LASF188
 7479 0e86 0D       		.byte	0xd
 7480 0e87 B5       		.byte	0xb5
 7481 0e88 21       		.byte	0x21
 7482 0e89 0A0D0000 		.4byte	0xd0a
 7483 0e8d 24       		.uleb128 0x24
 7484 0e8e 02040000 		.4byte	.LASF193
 7485 0e92 0D       		.byte	0xd
 7486 0e93 B9       		.byte	0xb9
ARM GAS  C:\Users\DEVELO~1\AppData\Local\Temp\ccJK6Gr9.s 			page 133


 7487 0e94 21       		.byte	0x21
 7488 0e95 430D0000 		.4byte	0xd43
 7489 0e99 00       		.byte	0
 7490 0e9a 4E       		.uleb128 0x4e
 7491 0e9b 04       		.byte	0x4
 7492 0e9c 0D       		.byte	0xd
 7493 0e9d 0201     		.2byte	0x102
 7494 0e9f 03       		.byte	0x3
 7495 0ea0 050F0000 		.4byte	0xf05
 7496 0ea4 1F       		.uleb128 0x1f
 7497 0ea5 D1040000 		.4byte	.LASF194
 7498 0ea9 0901     		.2byte	0x109
 7499 0eab 21       		.byte	0x21
 7500 0eac 5F010000 		.4byte	0x15f
 7501 0eb0 1F       		.uleb128 0x1f
 7502 0eb1 250F0000 		.4byte	.LASF195
 7503 0eb5 1001     		.2byte	0x110
 7504 0eb7 21       		.byte	0x21
 7505 0eb8 5F010000 		.4byte	0x15f
 7506 0ebc 1F       		.uleb128 0x1f
 7507 0ebd 70010000 		.4byte	.LASF70
 7508 0ec1 1701     		.2byte	0x117
 7509 0ec3 22       		.byte	0x22
 7510 0ec4 F0030000 		.4byte	0x3f0
 7511 0ec8 1F       		.uleb128 0x1f
 7512 0ec9 040F0000 		.4byte	.LASF196
 7513 0ecd 1E01     		.2byte	0x11e
 7514 0ecf 22       		.byte	0x22
 7515 0ed0 050F0000 		.4byte	0xf05
 7516 0ed4 1F       		.uleb128 0x1f
 7517 0ed5 F0020000 		.4byte	.LASF197
 7518 0ed9 2301     		.2byte	0x123
 7519 0edb 21       		.byte	0x21
 7520 0edc 5F010000 		.4byte	0x15f
 7521 0ee0 1F       		.uleb128 0x1f
 7522 0ee1 2D0C0000 		.4byte	.LASF198
 7523 0ee5 2C01     		.2byte	0x12c
 7524 0ee7 22       		.byte	0x22
 7525 0ee8 320F0000 		.4byte	0xf32
 7526 0eec 1F       		.uleb128 0x1f
 7527 0eed 45000000 		.4byte	.LASF199
 7528 0ef1 3501     		.2byte	0x135
 7529 0ef3 22       		.byte	0x22
 7530 0ef4 6C0F0000 		.4byte	0xf6c
 7531 0ef8 1F       		.uleb128 0x1f
 7532 0ef9 650D0000 		.4byte	.LASF200
 7533 0efd 3D01     		.2byte	0x13d
 7534 0eff 21       		.byte	0x21
 7535 0f00 6B010000 		.4byte	0x16b
 7536 0f04 00       		.byte	0
 7537 0f05 0A       		.uleb128 0xa
 7538 0f06 440E0000 		.4byte	0xe44
 7539 0f0a 10       		.uleb128 0x10
 7540 0f0b 460C0000 		.4byte	.LASF201
 7541 0f0f 0C       		.byte	0xc
 7542 0f10 14       		.byte	0x14
 7543 0f11 34       		.byte	0x34
ARM GAS  C:\Users\DEVELO~1\AppData\Local\Temp\ccJK6Gr9.s 			page 134


 7544 0f12 10       		.byte	0x10
 7545 0f13 320F0000 		.4byte	0xf32
 7546 0f17 05       		.uleb128 0x5
 7547 0f18 1A0C0000 		.4byte	.LASF188
 7548 0f1c 14       		.byte	0x14
 7549 0f1d 35       		.byte	0x35
 7550 0f1e 19       		.byte	0x19
 7551 0f1f 0A0D0000 		.4byte	0xd0a
 7552 0f23 00       		.byte	0
 7553 0f24 0F       		.uleb128 0xf
 7554 0f25 636E7400 		.ascii	"cnt\000"
 7555 0f29 14       		.byte	0x14
 7556 0f2a 37       		.byte	0x37
 7557 0f2b 19       		.byte	0x19
 7558 0f2c 77010000 		.4byte	0x177
 7559 0f30 08       		.byte	0x8
 7560 0f31 00       		.byte	0
 7561 0f32 0A       		.uleb128 0xa
 7562 0f33 0A0F0000 		.4byte	0xf0a
 7563 0f37 10       		.uleb128 0x10
 7564 0f38 53050000 		.4byte	.LASF202
 7565 0f3c 10       		.byte	0x10
 7566 0f3d 15       		.byte	0x15
 7567 0f3e 39       		.byte	0x39
 7568 0f3f 08       		.byte	0x8
 7569 0f40 6C0F0000 		.4byte	0xf6c
 7570 0f44 05       		.uleb128 0x5
 7571 0f45 1A0C0000 		.4byte	.LASF188
 7572 0f49 15       		.byte	0x15
 7573 0f4a 3A       		.byte	0x3a
 7574 0f4b 19       		.byte	0x19
 7575 0f4c 0A0D0000 		.4byte	0xd0a
 7576 0f50 00       		.byte	0
 7577 0f51 05       		.uleb128 0x5
 7578 0f52 52040000 		.4byte	.LASF33
 7579 0f56 15       		.byte	0x15
 7580 0f57 3C       		.byte	0x3c
 7581 0f58 1A       		.byte	0x1a
 7582 0f59 EB030000 		.4byte	0x3eb
 7583 0f5d 08       		.byte	0x8
 7584 0f5e 05       		.uleb128 0x5
 7585 0f5f 07010000 		.4byte	.LASF171
 7586 0f63 15       		.byte	0x15
 7587 0f64 3E       		.byte	0x3e
 7588 0f65 1A       		.byte	0x1a
 7589 0f66 2B100000 		.4byte	0x102b
 7590 0f6a 0C       		.byte	0xc
 7591 0f6b 00       		.byte	0
 7592 0f6c 0A       		.uleb128 0xa
 7593 0f6d 370F0000 		.4byte	0xf37
 7594 0f71 0A       		.uleb128 0xa
 7595 0f72 97020000 		.4byte	0x297
 7596 0f76 0A       		.uleb128 0xa
 7597 0f77 23010000 		.4byte	0x123
 7598 0f7b 36       		.uleb128 0x36
 7599 0f7c E6010000 		.4byte	.LASF203
 7600 0f80 10       		.byte	0x10
ARM GAS  C:\Users\DEVELO~1\AppData\Local\Temp\ccJK6Gr9.s 			page 135


 7601 0f81 0D       		.byte	0xd
 7602 0f82 6C01     		.2byte	0x16c
 7603 0f84 10       		.byte	0x10
 7604 0f85 A60F0000 		.4byte	0xfa6
 7605 0f89 04       		.uleb128 0x4
 7606 0f8a 02040000 		.4byte	.LASF193
 7607 0f8e 0D       		.byte	0xd
 7608 0f8f 7101     		.2byte	0x171
 7609 0f91 21       		.byte	0x21
 7610 0f92 430D0000 		.4byte	0xd43
 7611 0f96 00       		.byte	0
 7612 0f97 04       		.uleb128 0x4
 7613 0f98 4F0E0000 		.4byte	.LASF204
 7614 0f9c 0D       		.byte	0xd
 7615 0f9d 7501     		.2byte	0x175
 7616 0f9f 22       		.byte	0x22
 7617 0fa0 EB030000 		.4byte	0x3eb
 7618 0fa4 0C       		.byte	0xc
 7619 0fa5 00       		.byte	0
 7620 0fa6 19       		.uleb128 0x19
 7621 0fa7 E50B0000 		.4byte	.LASF205
 7622 0fab 0D       		.byte	0xd
 7623 0fac 7601     		.2byte	0x176
 7624 0fae 03       		.byte	0x3
 7625 0faf 7B0F0000 		.4byte	0xf7b
 7626 0fb3 36       		.uleb128 0x36
 7627 0fb4 D50A0000 		.4byte	.LASF206
 7628 0fb8 14       		.byte	0x14
 7629 0fb9 0D       		.byte	0xd
 7630 0fba 7B01     		.2byte	0x17b
 7631 0fbc 10       		.byte	0x10
 7632 0fbd 08100000 		.4byte	0x1008
 7633 0fc1 04       		.uleb128 0x4
 7634 0fc2 740B0000 		.4byte	.LASF39
 7635 0fc6 0D       		.byte	0xd
 7636 0fc7 7F01     		.2byte	0x17f
 7637 0fc9 22       		.byte	0x22
 7638 0fca 8D030000 		.4byte	0x38d
 7639 0fce 00       		.byte	0
 7640 0fcf 04       		.uleb128 0x4
 7641 0fd0 13000000 		.4byte	.LASF207
 7642 0fd4 0D       		.byte	0xd
 7643 0fd5 8301     		.2byte	0x183
 7644 0fd7 22       		.byte	0x22
 7645 0fd8 760F0000 		.4byte	0xf76
 7646 0fdc 04       		.byte	0x4
 7647 0fdd 04       		.uleb128 0x4
 7648 0fde CA0A0000 		.4byte	.LASF208
 7649 0fe2 0D       		.byte	0xd
 7650 0fe3 8701     		.2byte	0x187
 7651 0fe5 22       		.byte	0x22
 7652 0fe6 760F0000 		.4byte	0xf76
 7653 0fea 08       		.byte	0x8
 7654 0feb 04       		.uleb128 0x4
 7655 0fec D8080000 		.4byte	.LASF209
 7656 0ff0 0D       		.byte	0xd
 7657 0ff1 8C01     		.2byte	0x18c
ARM GAS  C:\Users\DEVELO~1\AppData\Local\Temp\ccJK6Gr9.s 			page 136


 7658 0ff3 22       		.byte	0x22
 7659 0ff4 760F0000 		.4byte	0xf76
 7660 0ff8 0C       		.byte	0xc
 7661 0ff9 04       		.uleb128 0x4
 7662 0ffa D6070000 		.4byte	.LASF210
 7663 0ffe 0D       		.byte	0xd
 7664 0fff 9001     		.2byte	0x190
 7665 1001 22       		.byte	0x22
 7666 1002 760F0000 		.4byte	0xf76
 7667 1006 10       		.byte	0x10
 7668 1007 00       		.byte	0
 7669 1008 19       		.uleb128 0x19
 7670 1009 85030000 		.4byte	.LASF211
 7671 100d 0D       		.byte	0xd
 7672 100e 9201     		.2byte	0x192
 7673 1010 03       		.byte	0x3
 7674 1011 B30F0000 		.4byte	0xfb3
 7675 1015 11       		.uleb128 0x11
 7676 1016 08100000 		.4byte	0x1008
 7677 101a 0A       		.uleb128 0xa
 7678 101b 15100000 		.4byte	0x1015
 7679 101f 08       		.uleb128 0x8
 7680 1020 C9090000 		.4byte	.LASF212
 7681 1024 15       		.byte	0x15
 7682 1025 34       		.byte	0x34
 7683 1026 19       		.byte	0x19
 7684 1027 370F0000 		.4byte	0xf37
 7685 102b 0A       		.uleb128 0xa
 7686 102c 1F100000 		.4byte	0x101f
 7687 1030 13       		.uleb128 0x13
 7688 1031 01       		.byte	0x1
 7689 1032 02       		.byte	0x2
 7690 1033 18050000 		.4byte	.LASF213
 7691 1037 0A       		.uleb128 0xa
 7692 1038 3C100000 		.4byte	0x103c
 7693 103c 3A       		.uleb128 0x3a
 7694 103d 4C100000 		.4byte	0x104c
 7695 1041 0B       		.uleb128 0xb
 7696 1042 F0030000 		.4byte	0x3f0
 7697 1046 0B       		.uleb128 0xb
 7698 1047 E9000000 		.4byte	0xe9
 7699 104b 00       		.byte	0
 7700 104c 19       		.uleb128 0x19
 7701 104d A7050000 		.4byte	.LASF214
 7702 1051 16       		.byte	0x16
 7703 1052 A201     		.2byte	0x1a2
 7704 1054 10       		.byte	0x10
 7705 1055 37100000 		.4byte	0x1037
 7706 1059 2B       		.uleb128 0x2b
 7707 105a 10       		.byte	0x10
 7708 105b 16       		.byte	0x16
 7709 105c A701     		.2byte	0x1a7
 7710 105e B7100000 		.4byte	0x10b7
 7711 1062 04       		.uleb128 0x4
 7712 1063 6C0F0000 		.4byte	.LASF215
 7713 1067 16       		.byte	0x16
 7714 1068 A801     		.2byte	0x1a8
ARM GAS  C:\Users\DEVELO~1\AppData\Local\Temp\ccJK6Gr9.s 			page 137


 7715 106a 1A       		.byte	0x1a
 7716 106b B7100000 		.4byte	0x10b7
 7717 106f 00       		.byte	0
 7718 1070 04       		.uleb128 0x4
 7719 1071 0C030000 		.4byte	.LASF216
 7720 1075 16       		.byte	0x16
 7721 1076 A901     		.2byte	0x1a9
 7722 1078 1A       		.byte	0x1a
 7723 1079 BC100000 		.4byte	0x10bc
 7724 107d 04       		.byte	0x4
 7725 107e 09       		.uleb128 0x9
 7726 107f 6D757800 		.ascii	"mux\000"
 7727 1083 16       		.byte	0x16
 7728 1084 AB01     		.2byte	0x1ab
 7729 1086 1B       		.byte	0x1b
 7730 1087 C1100000 		.4byte	0x10c1
 7731 108b 08       		.byte	0x8
 7732 108c 04       		.uleb128 0x4
 7733 108d 2E030000 		.4byte	.LASF217
 7734 1091 16       		.byte	0x16
 7735 1092 AF01     		.2byte	0x1af
 7736 1094 19       		.byte	0x19
 7737 1095 BB000000 		.4byte	0xbb
 7738 1099 0C       		.byte	0xc
 7739 109a 04       		.uleb128 0x4
 7740 109b 2E0F0000 		.4byte	.LASF218
 7741 109f 16       		.byte	0x16
 7742 10a0 B101     		.2byte	0x1b1
 7743 10a2 19       		.byte	0x19
 7744 10a3 BB000000 		.4byte	0xbb
 7745 10a7 0D       		.byte	0xd
 7746 10a8 04       		.uleb128 0x4
 7747 10a9 FB030000 		.4byte	.LASF219
 7748 10ad 16       		.byte	0x16
 7749 10ae B201     		.2byte	0x1b2
 7750 10b0 19       		.byte	0x19
 7751 10b1 BB000000 		.4byte	0xbb
 7752 10b5 0E       		.byte	0xe
 7753 10b6 00       		.byte	0
 7754 10b7 0A       		.uleb128 0xa
 7755 10b8 CB050000 		.4byte	0x5cb
 7756 10bc 0A       		.uleb128 0xa
 7757 10bd F5000000 		.4byte	0xf5
 7758 10c1 0A       		.uleb128 0xa
 7759 10c2 80060000 		.4byte	0x680
 7760 10c6 19       		.uleb128 0x19
 7761 10c7 87060000 		.4byte	.LASF220
 7762 10cb 16       		.byte	0x16
 7763 10cc B301     		.2byte	0x1b3
 7764 10ce 03       		.byte	0x3
 7765 10cf 59100000 		.4byte	0x1059
 7766 10d3 11       		.uleb128 0x11
 7767 10d4 C6100000 		.4byte	0x10c6
 7768 10d8 08       		.uleb128 0x8
 7769 10d9 4F020000 		.4byte	.LASF221
 7770 10dd 17       		.byte	0x17
 7771 10de E0       		.byte	0xe0
ARM GAS  C:\Users\DEVELO~1\AppData\Local\Temp\ccJK6Gr9.s 			page 138


 7772 10df 10       		.byte	0x10
 7773 10e0 37100000 		.4byte	0x1037
 7774 10e4 1A       		.uleb128 0x1a
 7775 10e5 14       		.byte	0x14
 7776 10e6 17       		.byte	0x17
 7777 10e7 E5       		.byte	0xe5
 7778 10e8 09       		.byte	0x9
 7779 10e9 3C110000 		.4byte	0x113c
 7780 10ed 05       		.uleb128 0x5
 7781 10ee 32000000 		.4byte	.LASF222
 7782 10f2 17       		.byte	0x17
 7783 10f3 E6       		.byte	0xe6
 7784 10f4 1E       		.byte	0x1e
 7785 10f5 3C110000 		.4byte	0x113c
 7786 10f9 00       		.byte	0
 7787 10fa 05       		.uleb128 0x5
 7788 10fb 89090000 		.4byte	.LASF223
 7789 10ff 17       		.byte	0x17
 7790 1100 E7       		.byte	0xe7
 7791 1101 1E       		.byte	0x1e
 7792 1102 41110000 		.4byte	0x1141
 7793 1106 04       		.byte	0x4
 7794 1107 05       		.uleb128 0x5
 7795 1108 2E030000 		.4byte	.LASF217
 7796 110c 17       		.byte	0x17
 7797 110d E8       		.byte	0xe8
 7798 110e 1D       		.byte	0x1d
 7799 110f BB000000 		.4byte	0xbb
 7800 1113 08       		.byte	0x8
 7801 1114 0F       		.uleb128 0xf
 7802 1115 6D757800 		.ascii	"mux\000"
 7803 1119 17       		.byte	0x17
 7804 111a EA       		.byte	0xea
 7805 111b 1E       		.byte	0x1e
 7806 111c C1100000 		.4byte	0x10c1
 7807 1120 0C       		.byte	0xc
 7808 1121 05       		.uleb128 0x5
 7809 1122 2E0F0000 		.4byte	.LASF218
 7810 1126 17       		.byte	0x17
 7811 1127 EB       		.byte	0xeb
 7812 1128 1D       		.byte	0x1d
 7813 1129 BB000000 		.4byte	0xbb
 7814 112d 10       		.byte	0x10
 7815 112e 05       		.uleb128 0x5
 7816 112f FB030000 		.4byte	.LASF219
 7817 1133 17       		.byte	0x17
 7818 1134 EC       		.byte	0xec
 7819 1135 1D       		.byte	0x1d
 7820 1136 BB000000 		.4byte	0xbb
 7821 113a 11       		.byte	0x11
 7822 113b 00       		.byte	0
 7823 113c 0A       		.uleb128 0xa
 7824 113d 5B060000 		.4byte	0x65b
 7825 1141 0A       		.uleb128 0xa
 7826 1142 28060000 		.4byte	0x628
 7827 1146 08       		.uleb128 0x8
 7828 1147 D40E0000 		.4byte	.LASF224
ARM GAS  C:\Users\DEVELO~1\AppData\Local\Temp\ccJK6Gr9.s 			page 139


 7829 114b 17       		.byte	0x17
 7830 114c ED       		.byte	0xed
 7831 114d 03       		.byte	0x3
 7832 114e E4100000 		.4byte	0x10e4
 7833 1152 11       		.uleb128 0x11
 7834 1153 46110000 		.4byte	0x1146
 7835 1157 1A       		.uleb128 0x1a
 7836 1158 04       		.byte	0x4
 7837 1159 18       		.byte	0x18
 7838 115a 5B       		.byte	0x5b
 7839 115b 05       		.byte	0x5
 7840 115c 7B110000 		.4byte	0x117b
 7841 1160 0F       		.uleb128 0xf
 7842 1161 73657400 		.ascii	"set\000"
 7843 1165 18       		.byte	0x18
 7844 1166 5C       		.byte	0x5c
 7845 1167 19       		.byte	0x19
 7846 1168 CC000000 		.4byte	0xcc
 7847 116c 00       		.byte	0
 7848 116d 05       		.uleb128 0x5
 7849 116e 1F000000 		.4byte	.LASF225
 7850 1172 18       		.byte	0x18
 7851 1173 5D       		.byte	0x5d
 7852 1174 19       		.byte	0x19
 7853 1175 CC000000 		.4byte	0xcc
 7854 1179 02       		.byte	0x2
 7855 117a 00       		.byte	0
 7856 117b 34       		.uleb128 0x34
 7857 117c 04       		.byte	0x4
 7858 117d 18       		.byte	0x18
 7859 117e 59       		.byte	0x59
 7860 117f 0C       		.byte	0xc
 7861 1180 99110000 		.4byte	0x1199
 7862 1184 23       		.uleb128 0x23
 7863 1185 5700     		.ascii	"W\000"
 7864 1187 18       		.byte	0x18
 7865 1188 5A       		.byte	0x5a
 7866 1189 19       		.byte	0x19
 7867 118a E9000000 		.4byte	0xe9
 7868 118e 23       		.uleb128 0x23
 7869 118f 4800     		.ascii	"H\000"
 7870 1191 18       		.byte	0x18
 7871 1192 5E       		.byte	0x5e
 7872 1193 07       		.byte	0x7
 7873 1194 57110000 		.4byte	0x1157
 7874 1198 00       		.byte	0
 7875 1199 2A       		.uleb128 0x2a
 7876 119a 7B110000 		.4byte	0x117b
 7877 119e 1A       		.uleb128 0x1a
 7878 119f 28       		.byte	0x28
 7879 11a0 18       		.byte	0x18
 7880 11a1 51       		.byte	0x51
 7881 11a2 09       		.byte	0x9
 7882 11a3 2A120000 		.4byte	0x122a
 7883 11a7 05       		.uleb128 0x5
 7884 11a8 2E050000 		.4byte	.LASF226
 7885 11ac 18       		.byte	0x18
ARM GAS  C:\Users\DEVELO~1\AppData\Local\Temp\ccJK6Gr9.s 			page 140


 7886 11ad 53       		.byte	0x53
 7887 11ae 19       		.byte	0x19
 7888 11af F5000000 		.4byte	0xf5
 7889 11b3 00       		.byte	0
 7890 11b4 05       		.uleb128 0x5
 7891 11b5 B50A0000 		.4byte	.LASF227
 7892 11b9 18       		.byte	0x18
 7893 11ba 54       		.byte	0x54
 7894 11bb 19       		.byte	0x19
 7895 11bc F5000000 		.4byte	0xf5
 7896 11c0 04       		.byte	0x4
 7897 11c1 05       		.uleb128 0x5
 7898 11c2 2A090000 		.4byte	.LASF228
 7899 11c6 18       		.byte	0x18
 7900 11c7 55       		.byte	0x55
 7901 11c8 19       		.byte	0x19
 7902 11c9 F5000000 		.4byte	0xf5
 7903 11cd 08       		.byte	0x8
 7904 11ce 05       		.uleb128 0x5
 7905 11cf 9B050000 		.4byte	.LASF229
 7906 11d3 18       		.byte	0x18
 7907 11d4 56       		.byte	0x56
 7908 11d5 19       		.byte	0x19
 7909 11d6 F5000000 		.4byte	0xf5
 7910 11da 0C       		.byte	0xc
 7911 11db 0F       		.uleb128 0xf
 7912 11dc 49445200 		.ascii	"IDR\000"
 7913 11e0 18       		.byte	0x18
 7914 11e1 57       		.byte	0x57
 7915 11e2 19       		.byte	0x19
 7916 11e3 F5000000 		.4byte	0xf5
 7917 11e7 10       		.byte	0x10
 7918 11e8 0F       		.uleb128 0xf
 7919 11e9 4F445200 		.ascii	"ODR\000"
 7920 11ed 18       		.byte	0x18
 7921 11ee 58       		.byte	0x58
 7922 11ef 19       		.byte	0x19
 7923 11f0 F5000000 		.4byte	0xf5
 7924 11f4 14       		.byte	0x14
 7925 11f5 05       		.uleb128 0x5
 7926 11f6 68000000 		.4byte	.LASF230
 7927 11fa 18       		.byte	0x18
 7928 11fb 5F       		.byte	0x5f
 7929 11fc 05       		.byte	0x5
 7930 11fd 99110000 		.4byte	0x1199
 7931 1201 18       		.byte	0x18
 7932 1202 05       		.uleb128 0x5
 7933 1203 50090000 		.4byte	.LASF231
 7934 1207 18       		.byte	0x18
 7935 1208 60       		.byte	0x60
 7936 1209 19       		.byte	0x19
 7937 120a F5000000 		.4byte	0xf5
 7938 120e 1C       		.byte	0x1c
 7939 120f 05       		.uleb128 0x5
 7940 1210 8D050000 		.4byte	.LASF232
 7941 1214 18       		.byte	0x18
 7942 1215 61       		.byte	0x61
ARM GAS  C:\Users\DEVELO~1\AppData\Local\Temp\ccJK6Gr9.s 			page 141


 7943 1216 19       		.byte	0x19
 7944 1217 F5000000 		.4byte	0xf5
 7945 121b 20       		.byte	0x20
 7946 121c 05       		.uleb128 0x5
 7947 121d 40040000 		.4byte	.LASF233
 7948 1221 18       		.byte	0x18
 7949 1222 62       		.byte	0x62
 7950 1223 19       		.byte	0x19
 7951 1224 F5000000 		.4byte	0xf5
 7952 1228 24       		.byte	0x24
 7953 1229 00       		.byte	0
 7954 122a 08       		.uleb128 0x8
 7955 122b 45040000 		.4byte	.LASF234
 7956 122f 18       		.byte	0x18
 7957 1230 63       		.byte	0x63
 7958 1231 03       		.byte	0x3
 7959 1232 9E110000 		.4byte	0x119e
 7960 1236 08       		.uleb128 0x8
 7961 1237 82050000 		.4byte	.LASF235
 7962 123b 19       		.byte	0x19
 7963 123c D9       		.byte	0xd9
 7964 123d 18       		.byte	0x18
 7965 123e 42120000 		.4byte	0x1242
 7966 1242 0A       		.uleb128 0xa
 7967 1243 2A120000 		.4byte	0x122a
 7968 1247 0A       		.uleb128 0xa
 7969 1248 D3100000 		.4byte	0x10d3
 7970 124c 4F       		.uleb128 0x4f
 7971 124d 07       		.byte	0x7
 7972 124e 01       		.byte	0x1
 7973 124f 61000000 		.4byte	0x61
 7974 1253 1A       		.byte	0x1a
 7975 1254 76       		.byte	0x76
 7976 1255 0E       		.byte	0xe
 7977 1256 79120000 		.4byte	0x1279
 7978 125a 35       		.uleb128 0x35
 7979 125b 7E090000 		.4byte	.LASF236
 7980 125f 00       		.byte	0
 7981 1260 35       		.uleb128 0x35
 7982 1261 FA0B0000 		.4byte	.LASF237
 7983 1265 01       		.byte	0x1
 7984 1266 35       		.uleb128 0x35
 7985 1267 480B0000 		.4byte	.LASF238
 7986 126b 02       		.byte	0x2
 7987 126c 35       		.uleb128 0x35
 7988 126d 790C0000 		.4byte	.LASF239
 7989 1271 03       		.byte	0x3
 7990 1272 35       		.uleb128 0x35
 7991 1273 180F0000 		.4byte	.LASF240
 7992 1277 04       		.byte	0x4
 7993 1278 00       		.byte	0
 7994 1279 08       		.uleb128 0x8
 7995 127a 630A0000 		.4byte	.LASF241
 7996 127e 1A       		.byte	0x1a
 7997 127f 7C       		.byte	0x7c
 7998 1280 03       		.byte	0x3
 7999 1281 4C120000 		.4byte	0x124c
ARM GAS  C:\Users\DEVELO~1\AppData\Local\Temp\ccJK6Gr9.s 			page 142


 8000 1285 08       		.uleb128 0x8
 8001 1286 990D0000 		.4byte	.LASF242
 8002 128a 1A       		.byte	0x1a
 8003 128b 81       		.byte	0x81
 8004 128c 1F       		.byte	0x1f
 8005 128d 91120000 		.4byte	0x1291
 8006 1291 10       		.uleb128 0x10
 8007 1292 2C040000 		.4byte	.LASF243
 8008 1296 3C       		.byte	0x3c
 8009 1297 1A       		.byte	0x1a
 8010 1298 D8       		.byte	0xd8
 8011 1299 08       		.byte	0x8
 8012 129a 39130000 		.4byte	0x1339
 8013 129e 05       		.uleb128 0x5
 8014 129f 5F0D0000 		.4byte	.LASF36
 8015 12a3 1A       		.byte	0x1a
 8016 12a4 DC       		.byte	0xdc
 8017 12a5 1D       		.byte	0x1d
 8018 12a6 79120000 		.4byte	0x1279
 8019 12aa 00       		.byte	0
 8020 12ab 05       		.uleb128 0x5
 8021 12ac C2090000 		.4byte	.LASF56
 8022 12b0 1A       		.byte	0x1a
 8023 12b1 E0       		.byte	0xe0
 8024 12b2 1E       		.byte	0x1e
 8025 12b3 6C140000 		.4byte	0x146c
 8026 12b7 04       		.byte	0x4
 8027 12b8 05       		.uleb128 0x5
 8028 12b9 410E0000 		.4byte	.LASF244
 8029 12bd 1A       		.byte	0x1a
 8030 12be E5       		.byte	0xe5
 8031 12bf 1D       		.byte	0x1d
 8032 12c0 440E0000 		.4byte	0xe44
 8033 12c4 08       		.byte	0x8
 8034 12c5 05       		.uleb128 0x5
 8035 12c6 28030000 		.4byte	.LASF245
 8036 12ca 1A       		.byte	0x1a
 8037 12cb EB       		.byte	0xeb
 8038 12cc 1D       		.byte	0x1d
 8039 12cd 1F100000 		.4byte	0x101f
 8040 12d1 0C       		.byte	0xc
 8041 12d2 0F       		.uleb128 0xf
 8042 12d3 73706900 		.ascii	"spi\000"
 8043 12d7 1A       		.byte	0x1a
 8044 12d8 F1       		.byte	0xf1
 8045 12d9 03       		.byte	0x3
 8046 12da 71140000 		.4byte	0x1471
 8047 12de 1C       		.byte	0x1c
 8048 12df 05       		.uleb128 0x5
 8049 12e0 950E0000 		.4byte	.LASF246
 8050 12e4 1A       		.byte	0x1a
 8051 12e5 F1       		.byte	0xf1
 8052 12e6 03       		.byte	0x3
 8053 12e7 30100000 		.4byte	0x1030
 8054 12eb 20       		.byte	0x20
 8055 12ec 0F       		.uleb128 0xf
 8056 12ed 727800   		.ascii	"rx\000"
ARM GAS  C:\Users\DEVELO~1\AppData\Local\Temp\ccJK6Gr9.s 			page 143


 8057 12f0 1A       		.byte	0x1a
 8058 12f1 F1       		.byte	0xf1
 8059 12f2 03       		.byte	0x3
 8060 12f3 23140000 		.4byte	0x1423
 8061 12f7 24       		.byte	0x24
 8062 12f8 0F       		.uleb128 0xf
 8063 12f9 747800   		.ascii	"tx\000"
 8064 12fc 1A       		.byte	0x1a
 8065 12fd F1       		.byte	0xf1
 8066 12fe 03       		.byte	0x3
 8067 12ff 4A140000 		.4byte	0x144a
 8068 1303 28       		.byte	0x28
 8069 1304 05       		.uleb128 0x5
 8070 1305 E70C0000 		.4byte	.LASF247
 8071 1309 1A       		.byte	0x1a
 8072 130a F1       		.byte	0xf1
 8073 130b 03       		.byte	0x3
 8074 130c E9000000 		.4byte	0xe9
 8075 1310 2C       		.byte	0x2c
 8076 1311 05       		.uleb128 0x5
 8077 1312 28060000 		.4byte	.LASF248
 8078 1316 1A       		.byte	0x1a
 8079 1317 F1       		.byte	0xf1
 8080 1318 03       		.byte	0x3
 8081 1319 E9000000 		.4byte	0xe9
 8082 131d 30       		.byte	0x30
 8083 131e 05       		.uleb128 0x5
 8084 131f 110F0000 		.4byte	.LASF249
 8085 1323 1A       		.byte	0x1a
 8086 1324 F1       		.byte	0xf1
 8087 1325 03       		.byte	0x3
 8088 1326 E9000000 		.4byte	0xe9
 8089 132a 34       		.byte	0x34
 8090 132b 05       		.uleb128 0x5
 8091 132c F70A0000 		.4byte	.LASF250
 8092 1330 1A       		.byte	0x1a
 8093 1331 F1       		.byte	0xf1
 8094 1332 03       		.byte	0x3
 8095 1333 E9000000 		.4byte	0xe9
 8096 1337 38       		.byte	0x38
 8097 1338 00       		.byte	0
 8098 1339 08       		.uleb128 0x8
 8099 133a 5C050000 		.4byte	.LASF251
 8100 133e 1A       		.byte	0x1a
 8101 133f 86       		.byte	0x86
 8102 1340 1F       		.byte	0x1f
 8103 1341 4A130000 		.4byte	0x134a
 8104 1345 11       		.uleb128 0x11
 8105 1346 39130000 		.4byte	0x1339
 8106 134a 10       		.uleb128 0x10
 8107 134b 99080000 		.4byte	.LASF252
 8108 134f 1C       		.byte	0x1c
 8109 1350 1A       		.byte	0x1a
 8110 1351 9F       		.byte	0x9f
 8111 1352 08       		.byte	0x8
 8112 1353 C0130000 		.4byte	0x13c0
 8113 1357 05       		.uleb128 0x5
ARM GAS  C:\Users\DEVELO~1\AppData\Local\Temp\ccJK6Gr9.s 			page 144


 8114 1358 4C000000 		.4byte	.LASF253
 8115 135c 1A       		.byte	0x1a
 8116 135d A4       		.byte	0xa4
 8117 135e 1D       		.byte	0x1d
 8118 135f 30100000 		.4byte	0x1030
 8119 1363 00       		.byte	0
 8120 1364 05       		.uleb128 0x5
 8121 1365 A1050000 		.4byte	.LASF254
 8122 1369 1A       		.byte	0x1a
 8123 136a AA       		.byte	0xaa
 8124 136b 1D       		.byte	0x1d
 8125 136c 30100000 		.4byte	0x1030
 8126 1370 01       		.byte	0x1
 8127 1371 05       		.uleb128 0x5
 8128 1372 400B0000 		.4byte	.LASF255
 8129 1376 1A       		.byte	0x1a
 8130 1377 AF       		.byte	0xaf
 8131 1378 1D       		.byte	0x1d
 8132 1379 C0130000 		.4byte	0x13c0
 8133 137d 04       		.byte	0x4
 8134 137e 05       		.uleb128 0x5
 8135 137f 67010000 		.4byte	.LASF256
 8136 1383 1A       		.byte	0x1a
 8137 1384 B3       		.byte	0xb3
 8138 1385 1D       		.byte	0x1d
 8139 1386 C0130000 		.4byte	0x13c0
 8140 138a 08       		.byte	0x8
 8141 138b 05       		.uleb128 0x5
 8142 138c AA020000 		.4byte	.LASF257
 8143 1390 1A       		.byte	0x1a
 8144 1391 CA       		.byte	0xca
 8145 1392 1D       		.byte	0x1d
 8146 1393 36120000 		.4byte	0x1236
 8147 1397 0C       		.byte	0xc
 8148 1398 05       		.uleb128 0x5
 8149 1399 730F0000 		.4byte	.LASF258
 8150 139d 1A       		.byte	0x1a
 8151 139e CF       		.byte	0xcf
 8152 139f 1D       		.byte	0x1d
 8153 13a0 0B010000 		.4byte	0x10b
 8154 13a4 10       		.byte	0x10
 8155 13a5 05       		.uleb128 0x5
 8156 13a6 8B0E0000 		.4byte	.LASF259
 8157 13aa 1A       		.byte	0x1a
 8158 13ab D2       		.byte	0xd2
 8159 13ac 03       		.byte	0x3
 8160 13ad E9000000 		.4byte	0xe9
 8161 13b1 14       		.byte	0x14
 8162 13b2 05       		.uleb128 0x5
 8163 13b3 900E0000 		.4byte	.LASF260
 8164 13b7 1A       		.byte	0x1a
 8165 13b8 D2       		.byte	0xd2
 8166 13b9 03       		.byte	0x3
 8167 13ba E9000000 		.4byte	0xe9
 8168 13be 18       		.byte	0x18
 8169 13bf 00       		.byte	0
 8170 13c0 08       		.uleb128 0x8
ARM GAS  C:\Users\DEVELO~1\AppData\Local\Temp\ccJK6Gr9.s 			page 145


 8171 13c1 9D020000 		.4byte	.LASF261
 8172 13c5 1A       		.byte	0x1a
 8173 13c6 8E       		.byte	0x8e
 8174 13c7 10       		.byte	0x10
 8175 13c8 CC130000 		.4byte	0x13cc
 8176 13cc 0A       		.uleb128 0xa
 8177 13cd D1130000 		.4byte	0x13d1
 8178 13d1 3A       		.uleb128 0x3a
 8179 13d2 DC130000 		.4byte	0x13dc
 8180 13d6 0B       		.uleb128 0xb
 8181 13d7 DC130000 		.4byte	0x13dc
 8182 13db 00       		.byte	0
 8183 13dc 0A       		.uleb128 0xa
 8184 13dd 85120000 		.4byte	0x1285
 8185 13e1 2C       		.uleb128 0x2c
 8186 13e2 91090000 		.4byte	.LASF262
 8187 13e6 4A02     		.2byte	0x24a
 8188 13e8 85120000 		.4byte	0x1285
 8189 13ec 2C       		.uleb128 0x2c
 8190 13ed 97090000 		.4byte	.LASF263
 8191 13f1 4E02     		.2byte	0x24e
 8192 13f3 85120000 		.4byte	0x1285
 8193 13f7 2C       		.uleb128 0x2c
 8194 13f8 9D090000 		.4byte	.LASF264
 8195 13fc 5202     		.2byte	0x252
 8196 13fe 85120000 		.4byte	0x1285
 8197 1402 2C       		.uleb128 0x2c
 8198 1403 A3090000 		.4byte	.LASF265
 8199 1407 5602     		.2byte	0x256
 8200 1409 85120000 		.4byte	0x1285
 8201 140d 2C       		.uleb128 0x2c
 8202 140e A9090000 		.4byte	.LASF266
 8203 1412 5A02     		.2byte	0x25a
 8204 1414 85120000 		.4byte	0x1285
 8205 1418 2C       		.uleb128 0x2c
 8206 1419 AF090000 		.4byte	.LASF267
 8207 141d 5E02     		.2byte	0x25e
 8208 141f 85120000 		.4byte	0x1285
 8209 1423 34       		.uleb128 0x34
 8210 1424 04       		.byte	0x4
 8211 1425 1A       		.byte	0x1a
 8212 1426 F1       		.byte	0xf1
 8213 1427 03       		.byte	0x3
 8214 1428 45140000 		.4byte	0x1445
 8215 142c 23       		.uleb128 0x23
 8216 142d 646D6100 		.ascii	"dma\000"
 8217 1431 1A       		.byte	0x1a
 8218 1432 F1       		.byte	0xf1
 8219 1433 03       		.byte	0x3
 8220 1434 47120000 		.4byte	0x1247
 8221 1438 24       		.uleb128 0x24
 8222 1439 32000000 		.4byte	.LASF222
 8223 143d 1A       		.byte	0x1a
 8224 143e F1       		.byte	0xf1
 8225 143f 03       		.byte	0x3
 8226 1440 45140000 		.4byte	0x1445
 8227 1444 00       		.byte	0
ARM GAS  C:\Users\DEVELO~1\AppData\Local\Temp\ccJK6Gr9.s 			page 146


 8228 1445 0A       		.uleb128 0xa
 8229 1446 52110000 		.4byte	0x1152
 8230 144a 34       		.uleb128 0x34
 8231 144b 04       		.byte	0x4
 8232 144c 1A       		.byte	0x1a
 8233 144d F1       		.byte	0xf1
 8234 144e 03       		.byte	0x3
 8235 144f 6C140000 		.4byte	0x146c
 8236 1453 23       		.uleb128 0x23
 8237 1454 646D6100 		.ascii	"dma\000"
 8238 1458 1A       		.byte	0x1a
 8239 1459 F1       		.byte	0xf1
 8240 145a 03       		.byte	0x3
 8241 145b 47120000 		.4byte	0x1247
 8242 145f 24       		.uleb128 0x24
 8243 1460 32000000 		.4byte	.LASF222
 8244 1464 1A       		.byte	0x1a
 8245 1465 F1       		.byte	0xf1
 8246 1466 03       		.byte	0x3
 8247 1467 45140000 		.4byte	0x1445
 8248 146b 00       		.byte	0
 8249 146c 0A       		.uleb128 0xa
 8250 146d 45130000 		.4byte	0x1345
 8251 1471 0A       		.uleb128 0xa
 8252 1472 4A0B0000 		.4byte	0xb4a
 8253 1476 2D       		.uleb128 0x2d
 8254 1477 E1130000 		.4byte	0x13e1
 8255 147b 3F       		.byte	0x3f
 8256 147c 05       		.uleb128 0x5
 8257 147d 03       		.byte	0x3
 8258 147e 00000000 		.4byte	SPID1
 8259 1482 2D       		.uleb128 0x2d
 8260 1483 EC130000 		.4byte	0x13ec
 8261 1487 44       		.byte	0x44
 8262 1488 05       		.uleb128 0x5
 8263 1489 03       		.byte	0x3
 8264 148a 00000000 		.4byte	SPID2
 8265 148e 2D       		.uleb128 0x2d
 8266 148f F7130000 		.4byte	0x13f7
 8267 1493 49       		.byte	0x49
 8268 1494 05       		.uleb128 0x5
 8269 1495 03       		.byte	0x3
 8270 1496 00000000 		.4byte	SPID3
 8271 149a 2D       		.uleb128 0x2d
 8272 149b 02140000 		.4byte	0x1402
 8273 149f 4E       		.byte	0x4e
 8274 14a0 05       		.uleb128 0x5
 8275 14a1 03       		.byte	0x3
 8276 14a2 00000000 		.4byte	SPID4
 8277 14a6 2D       		.uleb128 0x2d
 8278 14a7 0D140000 		.4byte	0x140d
 8279 14ab 53       		.byte	0x53
 8280 14ac 05       		.uleb128 0x5
 8281 14ad 03       		.byte	0x3
 8282 14ae 00000000 		.4byte	SPID5
 8283 14b2 2D       		.uleb128 0x2d
 8284 14b3 18140000 		.4byte	0x1418
ARM GAS  C:\Users\DEVELO~1\AppData\Local\Temp\ccJK6Gr9.s 			page 147


 8285 14b7 58       		.byte	0x58
 8286 14b8 05       		.uleb128 0x5
 8287 14b9 03       		.byte	0x3
 8288 14ba 00000000 		.4byte	SPID6
 8289 14be 2E       		.uleb128 0x2e
 8290 14bf 1F010000 		.4byte	.LASF268
 8291 14c3 17       		.byte	0x17
 8292 14c4 D501     		.2byte	0x1d5
 8293 14c6 D0140000 		.4byte	0x14d0
 8294 14ca 0B       		.uleb128 0xb
 8295 14cb 45140000 		.4byte	0x1445
 8296 14cf 00       		.byte	0
 8297 14d0 42       		.uleb128 0x42
 8298 14d1 AA010000 		.4byte	.LASF271
 8299 14d5 17       		.byte	0x17
 8300 14d6 CD01     		.2byte	0x1cd
 8301 14d8 1E       		.byte	0x1e
 8302 14d9 45140000 		.4byte	0x1445
 8303 14dd F6140000 		.4byte	0x14f6
 8304 14e1 0B       		.uleb128 0xb
 8305 14e2 E9000000 		.4byte	0xe9
 8306 14e6 0B       		.uleb128 0xb
 8307 14e7 E9000000 		.4byte	0xe9
 8308 14eb 0B       		.uleb128 0xb
 8309 14ec D8100000 		.4byte	0x10d8
 8310 14f0 0B       		.uleb128 0xb
 8311 14f1 F0030000 		.4byte	0x3f0
 8312 14f5 00       		.byte	0
 8313 14f6 37       		.uleb128 0x37
 8314 14f7 780D0000 		.4byte	.LASF269
 8315 14fb 0C       		.byte	0xc
 8316 14fc E6       		.byte	0xe6
 8317 14fd 07150000 		.4byte	0x1507
 8318 1501 0B       		.uleb128 0xb
 8319 1502 8D030000 		.4byte	0x38d
 8320 1506 00       		.byte	0
 8321 1507 2E       		.uleb128 0x2e
 8322 1508 38020000 		.4byte	.LASF270
 8323 150c 16       		.byte	0x16
 8324 150d A402     		.2byte	0x2a4
 8325 150f 19150000 		.4byte	0x1519
 8326 1513 0B       		.uleb128 0xb
 8327 1514 47120000 		.4byte	0x1247
 8328 1518 00       		.byte	0
 8329 1519 42       		.uleb128 0x42
 8330 151a 520B0000 		.4byte	.LASF272
 8331 151e 16       		.byte	0x16
 8332 151f 9C02     		.2byte	0x29c
 8333 1521 1D       		.byte	0x1d
 8334 1522 47120000 		.4byte	0x1247
 8335 1526 3F150000 		.4byte	0x153f
 8336 152a 0B       		.uleb128 0xb
 8337 152b E9000000 		.4byte	0xe9
 8338 152f 0B       		.uleb128 0xb
 8339 1530 E9000000 		.4byte	0xe9
 8340 1534 0B       		.uleb128 0xb
 8341 1535 4C100000 		.4byte	0x104c
ARM GAS  C:\Users\DEVELO~1\AppData\Local\Temp\ccJK6Gr9.s 			page 148


 8342 1539 0B       		.uleb128 0xb
 8343 153a F0030000 		.4byte	0x3f0
 8344 153e 00       		.byte	0
 8345 153f 2E       		.uleb128 0x2e
 8346 1540 BB060000 		.4byte	.LASF273
 8347 1544 17       		.byte	0x17
 8348 1545 D701     		.2byte	0x1d7
 8349 1547 56150000 		.4byte	0x1556
 8350 154b 0B       		.uleb128 0xb
 8351 154c 45140000 		.4byte	0x1445
 8352 1550 0B       		.uleb128 0xb
 8353 1551 E9000000 		.4byte	0xe9
 8354 1555 00       		.byte	0
 8355 1556 2E       		.uleb128 0x2e
 8356 1557 5C0C0000 		.4byte	.LASF274
 8357 155b 16       		.byte	0x16
 8358 155c A702     		.2byte	0x2a7
 8359 155e 6D150000 		.4byte	0x156d
 8360 1562 0B       		.uleb128 0xb
 8361 1563 47120000 		.4byte	0x1247
 8362 1567 0B       		.uleb128 0xb
 8363 1568 E9000000 		.4byte	0xe9
 8364 156c 00       		.byte	0
 8365 156d 37       		.uleb128 0x37
 8366 156e E80E0000 		.4byte	.LASF275
 8367 1572 1C       		.byte	0x1c
 8368 1573 4F       		.byte	0x4f
 8369 1574 83150000 		.4byte	0x1583
 8370 1578 0B       		.uleb128 0xb
 8371 1579 E9000000 		.4byte	0xe9
 8372 157d 0B       		.uleb128 0xb
 8373 157e E9000000 		.4byte	0xe9
 8374 1582 00       		.byte	0
 8375 1583 2E       		.uleb128 0x2e
 8376 1584 BE020000 		.4byte	.LASF276
 8377 1588 1A       		.byte	0x1a
 8378 1589 E201     		.2byte	0x1e2
 8379 158b 95150000 		.4byte	0x1595
 8380 158f 0B       		.uleb128 0xb
 8381 1590 DC130000 		.4byte	0x13dc
 8382 1594 00       		.byte	0
 8383 1595 2E       		.uleb128 0x2e
 8384 1596 B1020000 		.4byte	.LASF277
 8385 159a 1D       		.byte	0x1d
 8386 159b D401     		.2byte	0x1d4
 8387 159d AC150000 		.4byte	0x15ac
 8388 15a1 0B       		.uleb128 0xb
 8389 15a2 050F0000 		.4byte	0xf05
 8390 15a6 0B       		.uleb128 0xb
 8391 15a7 5F010000 		.4byte	0x15f
 8392 15ab 00       		.byte	0
 8393 15ac 50       		.uleb128 0x50
 8394 15ad 19070000 		.4byte	.LASF348
 8395 15b1 05       		.byte	0x5
 8396 15b2 0303     		.2byte	0x303
 8397 15b4 08       		.byte	0x8
 8398 15b5 37       		.uleb128 0x37
ARM GAS  C:\Users\DEVELO~1\AppData\Local\Temp\ccJK6Gr9.s 			page 149


 8399 15b6 C10B0000 		.4byte	.LASF278
 8400 15ba 11       		.byte	0x11
 8401 15bb FF       		.byte	0xff
 8402 15bc C6150000 		.4byte	0x15c6
 8403 15c0 0B       		.uleb128 0xb
 8404 15c1 8D030000 		.4byte	0x38d
 8405 15c5 00       		.byte	0
 8406 15c6 37       		.uleb128 0x37
 8407 15c7 B90E0000 		.4byte	.LASF279
 8408 15cb 11       		.byte	0x11
 8409 15cc FE       		.byte	0xfe
 8410 15cd D7150000 		.4byte	0x15d7
 8411 15d1 0B       		.uleb128 0xb
 8412 15d2 8D030000 		.4byte	0x38d
 8413 15d6 00       		.byte	0
 8414 15d7 25       		.uleb128 0x25
 8415 15d8 2C0A0000 		.4byte	.LASF288
 8416 15dc 5A05     		.2byte	0x55a
 8417 15de 0A       		.byte	0xa
 8418 15df E9000000 		.4byte	0xe9
 8419 15e3 00000000 		.4byte	.LFB474
 8420 15e7 82000000 		.4byte	.LFE474-.LFB474
 8421 15eb 01       		.uleb128 0x1
 8422 15ec 9C       		.byte	0x9c
 8423 15ed 10170000 		.4byte	0x1710
 8424 15f1 0E       		.uleb128 0xe
 8425 15f2 570F0000 		.4byte	.LASF280
 8426 15f6 5A05     		.2byte	0x55a
 8427 15f8 2D       		.byte	0x2d
 8428 15f9 DC130000 		.4byte	0x13dc
 8429 15fd 18000000 		.4byte	.LLST184
 8430 1601 0C000000 		.4byte	.LVUS184
 8431 1605 0E       		.uleb128 0xe
 8432 1606 B80D0000 		.4byte	.LASF281
 8433 160a 5A05     		.2byte	0x55a
 8434 160c 3C       		.byte	0x3c
 8435 160d E9000000 		.4byte	0xe9
 8436 1611 50000000 		.4byte	.LLST185
 8437 1615 46000000 		.4byte	.LVUS185
 8438 1619 26       		.uleb128 0x26
 8439 161a EA020000 		.4byte	.LASF282
 8440 161e 5B05     		.2byte	0x55b
 8441 1620 0C       		.byte	0xc
 8442 1621 E9000000 		.4byte	0xe9
 8443 1625 78000000 		.4byte	.LLST186
 8444 1629 76000000 		.4byte	.LVUS186
 8445 162d 26       		.uleb128 0x26
 8446 162e 04030000 		.4byte	.LASF283
 8447 1632 5C05     		.2byte	0x55c
 8448 1634 0C       		.byte	0xc
 8449 1635 E9000000 		.4byte	0xe9
 8450 1639 87000000 		.4byte	.LLST187
 8451 163d 81000000 		.4byte	.LVUS187
 8452 1641 43       		.uleb128 0x43
 8453 1642 4E010000 		.4byte	.LLRL190
 8454 1646 73160000 		.4byte	0x1673
 8455 164a 26       		.uleb128 0x26
ARM GAS  C:\Users\DEVELO~1\AppData\Local\Temp\ccJK6Gr9.s 			page 150


 8456 164b 44050000 		.4byte	.LASF284
 8457 164f 6805     		.2byte	0x568
 8458 1651 17       		.byte	0x17
 8459 1652 10170000 		.4byte	0x1710
 8460 1656 9E000000 		.4byte	.LLST191
 8461 165a 9C000000 		.4byte	.LVUS191
 8462 165e 26       		.uleb128 0x26
 8463 165f 0A0F0000 		.4byte	.LASF285
 8464 1663 6905     		.2byte	0x569
 8465 1665 17       		.byte	0x17
 8466 1666 10170000 		.4byte	0x1710
 8467 166a AB000000 		.4byte	.LLST192
 8468 166e A9000000 		.4byte	.LVUS192
 8469 1672 00       		.byte	0
 8470 1673 43       		.uleb128 0x43
 8471 1674 6F010000 		.4byte	.LLRL195
 8472 1678 A5160000 		.4byte	0x16a5
 8473 167c 26       		.uleb128 0x26
 8474 167d 950A0000 		.4byte	.LASF286
 8475 1681 7105     		.2byte	0x571
 8476 1683 18       		.byte	0x18
 8477 1684 15170000 		.4byte	0x1715
 8478 1688 B8000000 		.4byte	.LLST196
 8479 168c B6000000 		.4byte	.LVUS196
 8480 1690 26       		.uleb128 0x26
 8481 1691 24040000 		.4byte	.LASF287
 8482 1695 7205     		.2byte	0x572
 8483 1697 18       		.byte	0x18
 8484 1698 15170000 		.4byte	0x1715
 8485 169c C5000000 		.4byte	.LLST197
 8486 16a0 C3000000 		.4byte	.LVUS197
 8487 16a4 00       		.byte	0
 8488 16a5 18       		.uleb128 0x18
 8489 16a6 343E0000 		.4byte	0x3e34
 8490 16aa 12000000 		.4byte	.LBI841
 8491 16ae 0200     		.2byte	.LVU1838
 8492 16b0 3F010000 		.4byte	.LLRL188
 8493 16b4 5E05     		.2byte	0x55e
 8494 16b6 03       		.byte	0x3
 8495 16b7 EA160000 		.4byte	0x16ea
 8496 16bb 02       		.uleb128 0x2
 8497 16bc 413E0000 		.4byte	0x3e41
 8498 16c0 D2000000 		.4byte	.LLST189
 8499 16c4 D0000000 		.4byte	.LVUS189
 8500 16c8 20       		.uleb128 0x20
 8501 16c9 343E0000 		.4byte	0x3e34
 8502 16cd 14000000 		.4byte	.LBI843
 8503 16d1 0000     		.2byte	.LVU1841
 8504 16d3 14000000 		.4byte	.LBB843
 8505 16d7 08000000 		.4byte	.LBE843-.LBB843
 8506 16db 01       		.byte	0x1
 8507 16dc 76       		.byte	0x76
 8508 16dd 0D       		.byte	0xd
 8509 16de 12       		.uleb128 0x12
 8510 16df 413E0000 		.4byte	0x3e41
 8511 16e3 12       		.uleb128 0x12
 8512 16e4 413E0000 		.4byte	0x3e41
ARM GAS  C:\Users\DEVELO~1\AppData\Local\Temp\ccJK6Gr9.s 			page 151


 8513 16e8 00       		.byte	0
 8514 16e9 00       		.byte	0
 8515 16ea 27       		.uleb128 0x27
 8516 16eb 1A3E0000 		.4byte	0x3e1a
 8517 16ef 40000000 		.4byte	.LBI850
 8518 16f3 0200     		.2byte	.LVU1868
 8519 16f5 5D010000 		.4byte	.LLRL193
 8520 16f9 01       		.byte	0x1
 8521 16fa 8005     		.2byte	0x580
 8522 16fc 12       		.uleb128 0x12
 8523 16fd 273E0000 		.4byte	0x3e27
 8524 1701 02       		.uleb128 0x2
 8525 1702 273E0000 		.4byte	0x3e27
 8526 1706 DD000000 		.4byte	.LLST194
 8527 170a DB000000 		.4byte	.LVUS194
 8528 170e 00       		.byte	0
 8529 170f 00       		.byte	0
 8530 1710 0A       		.uleb128 0xa
 8531 1711 C7000000 		.4byte	0xc7
 8532 1715 0A       		.uleb128 0xa
 8533 1716 D8000000 		.4byte	0xd8
 8534 171a 25       		.uleb128 0x25
 8535 171b CA030000 		.4byte	.LASF289
 8536 171f 3005     		.2byte	0x530
 8537 1721 07       		.byte	0x7
 8538 1722 5F010000 		.4byte	0x15f
 8539 1726 00000000 		.4byte	.LFB473
 8540 172a 26000000 		.4byte	.LFE473-.LFB473
 8541 172e 01       		.uleb128 0x1
 8542 172f 9C       		.byte	0x9c
 8543 1730 80170000 		.4byte	0x1780
 8544 1734 0E       		.uleb128 0xe
 8545 1735 570F0000 		.4byte	.LASF280
 8546 1739 3005     		.2byte	0x530
 8547 173b 28       		.byte	0x28
 8548 173c DC130000 		.4byte	0x13dc
 8549 1740 ED000000 		.4byte	.LLST181
 8550 1744 E9000000 		.4byte	.LVUS181
 8551 1748 0E       		.uleb128 0xe
 8552 1749 E2060000 		.4byte	.LASF290
 8553 174d 3005     		.2byte	0x530
 8554 174f 36       		.byte	0x36
 8555 1750 80170000 		.4byte	0x1780
 8556 1754 01010000 		.4byte	.LLST182
 8557 1758 FD000000 		.4byte	.LVUS182
 8558 175c 44       		.uleb128 0x44
 8559 175d 6D736700 		.ascii	"msg\000"
 8560 1761 3105     		.2byte	0x531
 8561 1763 5F010000 		.4byte	0x15f
 8562 1767 13010000 		.4byte	.LLST183
 8563 176b 11010000 		.4byte	.LVUS183
 8564 176f 0D       		.uleb128 0xd
 8565 1770 0A000000 		.4byte	.LVL312
 8566 1774 5F3B0000 		.4byte	0x3b5f
 8567 1778 01       		.uleb128 0x1
 8568 1779 01       		.uleb128 0x1
 8569 177a 50       		.byte	0x50
ARM GAS  C:\Users\DEVELO~1\AppData\Local\Temp\ccJK6Gr9.s 			page 152


 8570 177b 02       		.uleb128 0x2
 8571 177c 75       		.byte	0x75
 8572 177d 00       		.sleb128 0
 8573 177e 00       		.byte	0
 8574 177f 00       		.byte	0
 8575 1780 0A       		.uleb128 0xa
 8576 1781 2D000000 		.4byte	0x2d
 8577 1785 25       		.uleb128 0x25
 8578 1786 E4070000 		.4byte	.LASF291
 8579 178a FA04     		.2byte	0x4fa
 8580 178c 07       		.byte	0x7
 8581 178d 5F010000 		.4byte	0x15f
 8582 1791 00000000 		.4byte	.LFB472
 8583 1795 68000000 		.4byte	.LFE472-.LFB472
 8584 1799 01       		.uleb128 0x1
 8585 179a 9C       		.byte	0x9c
 8586 179b 1E180000 		.4byte	0x181e
 8587 179f 0E       		.uleb128 0xe
 8588 17a0 570F0000 		.4byte	.LASF280
 8589 17a4 FA04     		.2byte	0x4fa
 8590 17a6 22       		.byte	0x22
 8591 17a7 DC130000 		.4byte	0x13dc
 8592 17ab 22010000 		.4byte	.LLST177
 8593 17af 1C010000 		.4byte	.LVUS177
 8594 17b3 3B       		.uleb128 0x3b
 8595 17b4 6E00     		.ascii	"n\000"
 8596 17b6 FA04     		.2byte	0x4fa
 8597 17b8 2F       		.byte	0x2f
 8598 17b9 2D000000 		.4byte	0x2d
 8599 17bd 01       		.uleb128 0x1
 8600 17be 51       		.byte	0x51
 8601 17bf 0E       		.uleb128 0xe
 8602 17c0 660F0000 		.4byte	.LASF292
 8603 17c4 FA04     		.2byte	0x4fa
 8604 17c6 38       		.byte	0x38
 8605 17c7 F0030000 		.4byte	0x3f0
 8606 17cb 46010000 		.4byte	.LLST178
 8607 17cf 3A010000 		.4byte	.LVUS178
 8608 17d3 28       		.uleb128 0x28
 8609 17d4 570E0000 		.4byte	.LASF295
 8610 17d8 2E180000 		.4byte	0x182e
 8611 17dc 27       		.uleb128 0x27
 8612 17dd 343E0000 		.4byte	0x3e34
 8613 17e1 30000000 		.4byte	.LBI827
 8614 17e5 0400     		.2byte	.LVU1782
 8615 17e7 33010000 		.4byte	.LLRL179
 8616 17eb 01       		.byte	0x1
 8617 17ec 2105     		.2byte	0x521
 8618 17ee 02       		.uleb128 0x2
 8619 17ef 413E0000 		.4byte	0x3e41
 8620 17f3 74010000 		.4byte	.LLST180
 8621 17f7 72010000 		.4byte	.LVUS180
 8622 17fb 20       		.uleb128 0x20
 8623 17fc 343E0000 		.4byte	0x3e34
 8624 1800 40000000 		.4byte	.LBI829
 8625 1804 0000     		.2byte	.LVU1787
 8626 1806 40000000 		.4byte	.LBB829
ARM GAS  C:\Users\DEVELO~1\AppData\Local\Temp\ccJK6Gr9.s 			page 153


 8627 180a 08000000 		.4byte	.LBE829-.LBB829
 8628 180e 01       		.byte	0x1
 8629 180f 76       		.byte	0x76
 8630 1810 0D       		.byte	0xd
 8631 1811 12       		.uleb128 0x12
 8632 1812 413E0000 		.4byte	0x3e41
 8633 1816 12       		.uleb128 0x12
 8634 1817 413E0000 		.4byte	0x3e41
 8635 181b 00       		.byte	0
 8636 181c 00       		.byte	0
 8637 181d 00       		.byte	0
 8638 181e 14       		.uleb128 0x14
 8639 181f 9E030000 		.4byte	0x39e
 8640 1823 2E180000 		.4byte	0x182e
 8641 1827 15       		.uleb128 0x15
 8642 1828 39000000 		.4byte	0x39
 8643 182c 0F       		.byte	0xf
 8644 182d 00       		.byte	0
 8645 182e 11       		.uleb128 0x11
 8646 182f 1E180000 		.4byte	0x181e
 8647 1833 25       		.uleb128 0x25
 8648 1834 D90D0000 		.4byte	.LASF293
 8649 1838 C004     		.2byte	0x4c0
 8650 183a 07       		.byte	0x7
 8651 183b 5F010000 		.4byte	0x15f
 8652 183f 00000000 		.4byte	.LFB471
 8653 1843 6E000000 		.4byte	.LFE471-.LFB471
 8654 1847 01       		.uleb128 0x1
 8655 1848 9C       		.byte	0x9c
 8656 1849 CC180000 		.4byte	0x18cc
 8657 184d 0E       		.uleb128 0xe
 8658 184e 570F0000 		.4byte	.LASF280
 8659 1852 C004     		.2byte	0x4c0
 8660 1854 1F       		.byte	0x1f
 8661 1855 DC130000 		.4byte	0x13dc
 8662 1859 83010000 		.4byte	.LLST173
 8663 185d 7D010000 		.4byte	.LVUS173
 8664 1861 3B       		.uleb128 0x3b
 8665 1862 6E00     		.ascii	"n\000"
 8666 1864 C004     		.2byte	0x4c0
 8667 1866 2C       		.byte	0x2c
 8668 1867 2D000000 		.4byte	0x2d
 8669 186b 01       		.uleb128 0x1
 8670 186c 51       		.byte	0x51
 8671 186d 0E       		.uleb128 0xe
 8672 186e 12020000 		.4byte	.LASF294
 8673 1872 C004     		.2byte	0x4c0
 8674 1874 3B       		.byte	0x3b
 8675 1875 CC180000 		.4byte	0x18cc
 8676 1879 A7010000 		.4byte	.LLST174
 8677 187d 9B010000 		.4byte	.LVUS174
 8678 1881 28       		.uleb128 0x28
 8679 1882 570E0000 		.4byte	.LASF295
 8680 1886 E2180000 		.4byte	0x18e2
 8681 188a 27       		.uleb128 0x27
 8682 188b 343E0000 		.4byte	0x3e34
 8683 188f 30000000 		.4byte	.LBI817
ARM GAS  C:\Users\DEVELO~1\AppData\Local\Temp\ccJK6Gr9.s 			page 154


 8684 1893 0400     		.2byte	.LVU1720
 8685 1895 27010000 		.4byte	.LLRL175
 8686 1899 01       		.byte	0x1
 8687 189a E704     		.2byte	0x4e7
 8688 189c 02       		.uleb128 0x2
 8689 189d 413E0000 		.4byte	0x3e41
 8690 18a1 D5010000 		.4byte	.LLST176
 8691 18a5 D3010000 		.4byte	.LVUS176
 8692 18a9 20       		.uleb128 0x20
 8693 18aa 343E0000 		.4byte	0x3e34
 8694 18ae 40000000 		.4byte	.LBI819
 8695 18b2 0000     		.2byte	.LVU1725
 8696 18b4 40000000 		.4byte	.LBB819
 8697 18b8 08000000 		.4byte	.LBE819-.LBB819
 8698 18bc 01       		.byte	0x1
 8699 18bd 76       		.byte	0x76
 8700 18be 0D       		.byte	0xd
 8701 18bf 12       		.uleb128 0x12
 8702 18c0 413E0000 		.4byte	0x3e41
 8703 18c4 12       		.uleb128 0x12
 8704 18c5 413E0000 		.4byte	0x3e41
 8705 18c9 00       		.byte	0
 8706 18ca 00       		.byte	0
 8707 18cb 00       		.byte	0
 8708 18cc 0A       		.uleb128 0xa
 8709 18cd D1180000 		.4byte	0x18d1
 8710 18d1 51       		.uleb128 0x51
 8711 18d2 14       		.uleb128 0x14
 8712 18d3 9E030000 		.4byte	0x39e
 8713 18d7 E2180000 		.4byte	0x18e2
 8714 18db 15       		.uleb128 0x15
 8715 18dc 39000000 		.4byte	0x39
 8716 18e0 0C       		.byte	0xc
 8717 18e1 00       		.byte	0
 8718 18e2 11       		.uleb128 0x11
 8719 18e3 D2180000 		.4byte	0x18d2
 8720 18e7 25       		.uleb128 0x25
 8721 18e8 B6000000 		.4byte	.LASF296
 8722 18ec 8504     		.2byte	0x485
 8723 18ee 07       		.byte	0x7
 8724 18ef 5F010000 		.4byte	0x15f
 8725 18f3 00000000 		.4byte	.LFB470
 8726 18f7 70000000 		.4byte	.LFE470-.LFB470
 8727 18fb 01       		.uleb128 0x1
 8728 18fc 9C       		.byte	0x9c
 8729 18fd 94190000 		.4byte	0x1994
 8730 1901 0E       		.uleb128 0xe
 8731 1902 570F0000 		.4byte	.LASF280
 8732 1906 8504     		.2byte	0x485
 8733 1908 23       		.byte	0x23
 8734 1909 DC130000 		.4byte	0x13dc
 8735 190d E4010000 		.4byte	.LLST168
 8736 1911 DE010000 		.4byte	.LVUS168
 8737 1915 3B       		.uleb128 0x3b
 8738 1916 6E00     		.ascii	"n\000"
 8739 1918 8504     		.2byte	0x485
 8740 191a 30       		.byte	0x30
ARM GAS  C:\Users\DEVELO~1\AppData\Local\Temp\ccJK6Gr9.s 			page 155


 8741 191b 2D000000 		.4byte	0x2d
 8742 191f 01       		.uleb128 0x1
 8743 1920 51       		.byte	0x51
 8744 1921 0E       		.uleb128 0xe
 8745 1922 12020000 		.4byte	.LASF294
 8746 1926 8604     		.2byte	0x486
 8747 1928 24       		.byte	0x24
 8748 1929 CC180000 		.4byte	0x18cc
 8749 192d 08020000 		.4byte	.LLST169
 8750 1931 FC010000 		.4byte	.LVUS169
 8751 1935 0E       		.uleb128 0xe
 8752 1936 660F0000 		.4byte	.LASF292
 8753 193a 8604     		.2byte	0x486
 8754 193c 31       		.byte	0x31
 8755 193d F0030000 		.4byte	0x3f0
 8756 1941 40020000 		.4byte	.LLST170
 8757 1945 34020000 		.4byte	.LVUS170
 8758 1949 28       		.uleb128 0x28
 8759 194a 570E0000 		.4byte	.LASF295
 8760 194e A4190000 		.4byte	0x19a4
 8761 1952 27       		.uleb128 0x27
 8762 1953 343E0000 		.4byte	0x3e34
 8763 1957 30000000 		.4byte	.LBI807
 8764 195b 0400     		.2byte	.LVU1662
 8765 195d 1B010000 		.4byte	.LLRL171
 8766 1961 01       		.byte	0x1
 8767 1962 AD04     		.2byte	0x4ad
 8768 1964 02       		.uleb128 0x2
 8769 1965 413E0000 		.4byte	0x3e41
 8770 1969 6E020000 		.4byte	.LLST172
 8771 196d 6C020000 		.4byte	.LVUS172
 8772 1971 20       		.uleb128 0x20
 8773 1972 343E0000 		.4byte	0x3e34
 8774 1976 40000000 		.4byte	.LBI809
 8775 197a 0000     		.2byte	.LVU1667
 8776 197c 40000000 		.4byte	.LBB809
 8777 1980 08000000 		.4byte	.LBE809-.LBB809
 8778 1984 01       		.byte	0x1
 8779 1985 76       		.byte	0x76
 8780 1986 0D       		.byte	0xd
 8781 1987 12       		.uleb128 0x12
 8782 1988 413E0000 		.4byte	0x3e41
 8783 198c 12       		.uleb128 0x12
 8784 198d 413E0000 		.4byte	0x3e41
 8785 1991 00       		.byte	0
 8786 1992 00       		.byte	0
 8787 1993 00       		.byte	0
 8788 1994 14       		.uleb128 0x14
 8789 1995 9E030000 		.4byte	0x39e
 8790 1999 A4190000 		.4byte	0x19a4
 8791 199d 15       		.uleb128 0x15
 8792 199e 39000000 		.4byte	0x39
 8793 19a2 10       		.byte	0x10
 8794 19a3 00       		.byte	0
 8795 19a4 11       		.uleb128 0x11
 8796 19a5 94190000 		.4byte	0x1994
 8797 19a9 25       		.uleb128 0x25
ARM GAS  C:\Users\DEVELO~1\AppData\Local\Temp\ccJK6Gr9.s 			page 156


 8798 19aa D1090000 		.4byte	.LASF297
 8799 19ae 4904     		.2byte	0x449
 8800 19b0 07       		.byte	0x7
 8801 19b1 5F010000 		.4byte	0x15f
 8802 19b5 00000000 		.4byte	.LFB469
 8803 19b9 5A000000 		.4byte	.LFE469-.LFB469
 8804 19bd 01       		.uleb128 0x1
 8805 19be 9C       		.byte	0x9c
 8806 19bf 351A0000 		.4byte	0x1a35
 8807 19c3 0E       		.uleb128 0xe
 8808 19c4 570F0000 		.4byte	.LASF280
 8809 19c8 4904     		.2byte	0x449
 8810 19ca 21       		.byte	0x21
 8811 19cb DC130000 		.4byte	0x13dc
 8812 19cf 7F020000 		.4byte	.LLST164
 8813 19d3 77020000 		.4byte	.LVUS164
 8814 19d7 52       		.uleb128 0x52
 8815 19d8 6E00     		.ascii	"n\000"
 8816 19da 01       		.byte	0x1
 8817 19db 4904     		.2byte	0x449
 8818 19dd 2E       		.byte	0x2e
 8819 19de 2D000000 		.4byte	0x2d
 8820 19e2 A4020000 		.4byte	.LLST165
 8821 19e6 9E020000 		.4byte	.LVUS165
 8822 19ea 28       		.uleb128 0x28
 8823 19eb 570E0000 		.4byte	.LASF295
 8824 19ef 451A0000 		.4byte	0x1a45
 8825 19f3 27       		.uleb128 0x27
 8826 19f4 343E0000 		.4byte	0x3e34
 8827 19f8 30000000 		.4byte	.LBI797
 8828 19fc 0400     		.2byte	.LVU1616
 8829 19fe 0F010000 		.4byte	.LLRL166
 8830 1a02 01       		.byte	0x1
 8831 1a03 7004     		.2byte	0x470
 8832 1a05 02       		.uleb128 0x2
 8833 1a06 413E0000 		.4byte	0x3e41
 8834 1a0a BE020000 		.4byte	.LLST167
 8835 1a0e BC020000 		.4byte	.LVUS167
 8836 1a12 20       		.uleb128 0x20
 8837 1a13 343E0000 		.4byte	0x3e34
 8838 1a17 40000000 		.4byte	.LBI799
 8839 1a1b 0000     		.2byte	.LVU1621
 8840 1a1d 40000000 		.4byte	.LBB799
 8841 1a21 08000000 		.4byte	.LBE799-.LBB799
 8842 1a25 01       		.byte	0x1
 8843 1a26 76       		.byte	0x76
 8844 1a27 0D       		.byte	0xd
 8845 1a28 12       		.uleb128 0x12
 8846 1a29 413E0000 		.4byte	0x3e41
 8847 1a2d 12       		.uleb128 0x12
 8848 1a2e 413E0000 		.4byte	0x3e41
 8849 1a32 00       		.byte	0
 8850 1a33 00       		.byte	0
 8851 1a34 00       		.byte	0
 8852 1a35 14       		.uleb128 0x14
 8853 1a36 9E030000 		.4byte	0x39e
 8854 1a3a 451A0000 		.4byte	0x1a45
ARM GAS  C:\Users\DEVELO~1\AppData\Local\Temp\ccJK6Gr9.s 			page 157


 8855 1a3e 15       		.uleb128 0x15
 8856 1a3f 39000000 		.4byte	0x39
 8857 1a43 0E       		.byte	0xe
 8858 1a44 00       		.byte	0
 8859 1a45 11       		.uleb128 0x11
 8860 1a46 351A0000 		.4byte	0x1a35
 8861 1a4a 21       		.uleb128 0x21
 8862 1a4b 600E0000 		.4byte	.LASF299
 8863 1a4f D903     		.2byte	0x3d9
 8864 1a51 06       		.byte	0x6
 8865 1a52 00000000 		.4byte	.LFB468
 8866 1a56 30010000 		.4byte	.LFE468-.LFB468
 8867 1a5a 01       		.uleb128 0x1
 8868 1a5b 9C       		.byte	0x9c
 8869 1a5c A21B0000 		.4byte	0x1ba2
 8870 1a60 0E       		.uleb128 0xe
 8871 1a61 570F0000 		.4byte	.LASF280
 8872 1a65 D903     		.2byte	0x3d9
 8873 1a67 1E       		.byte	0x1e
 8874 1a68 DC130000 		.4byte	0x13dc
 8875 1a6c CD020000 		.4byte	.LLST158
 8876 1a70 C7020000 		.4byte	.LVUS158
 8877 1a74 28       		.uleb128 0x28
 8878 1a75 570E0000 		.4byte	.LASF295
 8879 1a79 E2180000 		.4byte	0x18e2
 8880 1a7d 07       		.uleb128 0x7
 8881 1a7e 843E0000 		.4byte	0x3e84
 8882 1a82 46000000 		.4byte	.LBI781
 8883 1a86 0100     		.2byte	.LVU1530
 8884 1a88 46000000 		.4byte	.LBB781
 8885 1a8c 1E000000 		.4byte	.LBE781-.LBB781
 8886 1a90 1804     		.2byte	0x418
 8887 1a92 07       		.byte	0x7
 8888 1a93 A51A0000 		.4byte	0x1aa5
 8889 1a97 02       		.uleb128 0x2
 8890 1a98 923E0000 		.4byte	0x3e92
 8891 1a9c EA020000 		.4byte	.LLST159
 8892 1aa0 E8020000 		.4byte	.LVUS159
 8893 1aa4 00       		.byte	0
 8894 1aa5 07       		.uleb128 0x7
 8895 1aa6 E43E0000 		.4byte	0x3ee4
 8896 1aaa 72000000 		.4byte	.LBI783
 8897 1aae 0100     		.2byte	.LVU1542
 8898 1ab0 72000000 		.4byte	.LBB783
 8899 1ab4 1E000000 		.4byte	.LBE783-.LBB783
 8900 1ab8 FA03     		.2byte	0x3fa
 8901 1aba 07       		.byte	0x7
 8902 1abb CD1A0000 		.4byte	0x1acd
 8903 1abf 02       		.uleb128 0x2
 8904 1ac0 F23E0000 		.4byte	0x3ef2
 8905 1ac4 F7020000 		.4byte	.LLST160
 8906 1ac8 F5020000 		.4byte	.LVUS160
 8907 1acc 00       		.byte	0
 8908 1acd 07       		.uleb128 0x7
 8909 1ace E43E0000 		.4byte	0x3ee4
 8910 1ad2 92000000 		.4byte	.LBI785
 8911 1ad6 0100     		.2byte	.LVU1550
ARM GAS  C:\Users\DEVELO~1\AppData\Local\Temp\ccJK6Gr9.s 			page 158


 8912 1ad8 92000000 		.4byte	.LBB785
 8913 1adc 1E000000 		.4byte	.LBE785-.LBB785
 8914 1ae0 0C04     		.2byte	0x40c
 8915 1ae2 07       		.byte	0x7
 8916 1ae3 F51A0000 		.4byte	0x1af5
 8917 1ae7 02       		.uleb128 0x2
 8918 1ae8 F23E0000 		.4byte	0x3ef2
 8919 1aec 05030000 		.4byte	.LLST161
 8920 1af0 03030000 		.4byte	.LVUS161
 8921 1af4 00       		.byte	0
 8922 1af5 07       		.uleb128 0x7
 8923 1af6 423F0000 		.4byte	0x3f42
 8924 1afa B2000000 		.4byte	.LBI787
 8925 1afe 0100     		.2byte	.LVU1558
 8926 1b00 B2000000 		.4byte	.LBB787
 8927 1b04 1E000000 		.4byte	.LBE787-.LBB787
 8928 1b08 0004     		.2byte	0x400
 8929 1b0a 07       		.byte	0x7
 8930 1b0b 1D1B0000 		.4byte	0x1b1d
 8931 1b0f 02       		.uleb128 0x2
 8932 1b10 4F3F0000 		.4byte	0x3f4f
 8933 1b14 13030000 		.4byte	.LLST162
 8934 1b18 11030000 		.4byte	.LVUS162
 8935 1b1c 00       		.byte	0
 8936 1b1d 07       		.uleb128 0x7
 8937 1b1e 423F0000 		.4byte	0x3f42
 8938 1b22 D2000000 		.4byte	.LBI789
 8939 1b26 0100     		.2byte	.LVU1566
 8940 1b28 D2000000 		.4byte	.LBB789
 8941 1b2c 1E000000 		.4byte	.LBE789-.LBB789
 8942 1b30 0604     		.2byte	0x406
 8943 1b32 07       		.byte	0x7
 8944 1b33 451B0000 		.4byte	0x1b45
 8945 1b37 02       		.uleb128 0x2
 8946 1b38 4F3F0000 		.4byte	0x3f4f
 8947 1b3c 21030000 		.4byte	.LLST163
 8948 1b40 1F030000 		.4byte	.LVUS163
 8949 1b44 00       		.byte	0
 8950 1b45 07       		.uleb128 0x7
 8951 1b46 E43E0000 		.4byte	0x3ee4
 8952 1b4a F2000000 		.4byte	.LBI791
 8953 1b4e 0100     		.2byte	.LVU1574
 8954 1b50 F2000000 		.4byte	.LBB791
 8955 1b54 1E000000 		.4byte	.LBE791-.LBB791
 8956 1b58 1204     		.2byte	0x412
 8957 1b5a 07       		.byte	0x7
 8958 1b5b 691B0000 		.4byte	0x1b69
 8959 1b5f 53       		.uleb128 0x53
 8960 1b60 F23E0000 		.4byte	0x3ef2
 8961 1b64 00001000 		.4byte	0x100000
 8962 1b68 00       		.byte	0
 8963 1b69 06       		.uleb128 0x6
 8964 1b6a 10000000 		.4byte	.LVL255
 8965 1b6e BF3B0000 		.4byte	0x3bbf
 8966 1b72 7D1B0000 		.4byte	0x1b7d
 8967 1b76 01       		.uleb128 0x1
 8968 1b77 01       		.uleb128 0x1
ARM GAS  C:\Users\DEVELO~1\AppData\Local\Temp\ccJK6Gr9.s 			page 159


 8969 1b78 50       		.byte	0x50
 8970 1b79 02       		.uleb128 0x2
 8971 1b7a 74       		.byte	0x74
 8972 1b7b 00       		.sleb128 0
 8973 1b7c 00       		.byte	0
 8974 1b7d 29       		.uleb128 0x29
 8975 1b7e 1C000000 		.4byte	.LVL256
 8976 1b82 07150000 		.4byte	0x1507
 8977 1b86 29       		.uleb128 0x29
 8978 1b87 22000000 		.4byte	.LVL257
 8979 1b8b 07150000 		.4byte	0x1507
 8980 1b8f 29       		.uleb128 0x29
 8981 1b90 6A000000 		.4byte	.LVL261
 8982 1b94 BE140000 		.4byte	0x14be
 8983 1b98 29       		.uleb128 0x29
 8984 1b99 70000000 		.4byte	.LVL262
 8985 1b9d BE140000 		.4byte	0x14be
 8986 1ba1 00       		.byte	0
 8987 1ba2 25       		.uleb128 0x25
 8988 1ba3 77030000 		.4byte	.LASF298
 8989 1ba7 F302     		.2byte	0x2f3
 8990 1ba9 07       		.byte	0x7
 8991 1baa 5F010000 		.4byte	0x15f
 8992 1bae 00000000 		.4byte	.LFB467
 8993 1bb2 38040000 		.4byte	.LFE467-.LFB467
 8994 1bb6 01       		.uleb128 0x1
 8995 1bb7 9C       		.byte	0x9c
 8996 1bb8 B1230000 		.4byte	0x23b1
 8997 1bbc 0E       		.uleb128 0xe
 8998 1bbd 570F0000 		.4byte	.LASF280
 8999 1bc1 F302     		.2byte	0x2f3
 9000 1bc3 20       		.byte	0x20
 9001 1bc4 DC130000 		.4byte	0x13dc
 9002 1bc8 4F030000 		.4byte	.LLST105
 9003 1bcc 2D030000 		.4byte	.LVUS105
 9004 1bd0 26       		.uleb128 0x26
 9005 1bd1 EA020000 		.4byte	.LASF282
 9006 1bd5 F402     		.2byte	0x2f4
 9007 1bd7 0C       		.byte	0xc
 9008 1bd8 E9000000 		.4byte	0xe9
 9009 1bdc D4030000 		.4byte	.LLST106
 9010 1be0 CA030000 		.4byte	.LVUS106
 9011 1be4 44       		.uleb128 0x44
 9012 1be5 6D736700 		.ascii	"msg\000"
 9013 1be9 F502     		.2byte	0x2f5
 9014 1beb 5F010000 		.4byte	0x15f
 9015 1bef 0D040000 		.4byte	.LLST107
 9016 1bf3 FB030000 		.4byte	.LVUS107
 9017 1bf7 28       		.uleb128 0x28
 9018 1bf8 570E0000 		.4byte	.LASF295
 9019 1bfc C1230000 		.4byte	0x23c1
 9020 1c00 18       		.uleb128 0x18
 9021 1c01 39330000 		.4byte	0x3339
 9022 1c05 82000000 		.4byte	.LBI725
 9023 1c09 0100     		.2byte	.LVU1182
 9024 1c0b EA000000 		.4byte	.LLRL108
 9025 1c0f 5803     		.2byte	0x358
ARM GAS  C:\Users\DEVELO~1\AppData\Local\Temp\ccJK6Gr9.s 			page 160


 9026 1c11 0D       		.byte	0xd
 9027 1c12 A21C0000 		.4byte	0x1ca2
 9028 1c16 02       		.uleb128 0x2
 9029 1c17 48330000 		.4byte	0x3348
 9030 1c1b 5F040000 		.4byte	.LLST109
 9031 1c1f 5B040000 		.4byte	.LVUS109
 9032 1c23 02       		.uleb128 0x2
 9033 1c24 55330000 		.4byte	0x3355
 9034 1c28 7F040000 		.4byte	.LLST110
 9035 1c2c 7B040000 		.4byte	.LVUS110
 9036 1c30 02       		.uleb128 0x2
 9037 1c31 62330000 		.4byte	0x3362
 9038 1c35 7F040000 		.4byte	.LLST110
 9039 1c39 7B040000 		.4byte	.LVUS110
 9040 1c3d 02       		.uleb128 0x2
 9041 1c3e 6F330000 		.4byte	0x336f
 9042 1c42 97040000 		.4byte	.LLST112
 9043 1c46 93040000 		.4byte	.LVUS112
 9044 1c4a 06       		.uleb128 0x6
 9045 1c4b 8E000000 		.4byte	.LVL187
 9046 1c4f D0140000 		.4byte	0x14d0
 9047 1c53 711C0000 		.4byte	0x1c71
 9048 1c57 01       		.uleb128 0x1
 9049 1c58 01       		.uleb128 0x1
 9050 1c59 50       		.byte	0x50
 9051 1c5a 01       		.uleb128 0x1
 9052 1c5b 38       		.byte	0x38
 9053 1c5c 01       		.uleb128 0x1
 9054 1c5d 01       		.uleb128 0x1
 9055 1c5e 51       		.byte	0x51
 9056 1c5f 01       		.uleb128 0x1
 9057 1c60 3A       		.byte	0x3a
 9058 1c61 01       		.uleb128 0x1
 9059 1c62 01       		.uleb128 0x1
 9060 1c63 52       		.byte	0x52
 9061 1c64 05       		.uleb128 0x5
 9062 1c65 03       		.byte	0x3
 9063 1c66 00000000 		.4byte	spi_lld_serve_bdma_rx_interrupt
 9064 1c6a 01       		.uleb128 0x1
 9065 1c6b 01       		.uleb128 0x1
 9066 1c6c 53       		.byte	0x53
 9067 1c6d 02       		.uleb128 0x2
 9068 1c6e 74       		.byte	0x74
 9069 1c6f 00       		.sleb128 0
 9070 1c70 00       		.byte	0
 9071 1c71 06       		.uleb128 0x6
 9072 1c72 A2000000 		.4byte	.LVL188
 9073 1c76 D0140000 		.4byte	0x14d0
 9074 1c7a 981C0000 		.4byte	0x1c98
 9075 1c7e 01       		.uleb128 0x1
 9076 1c7f 01       		.uleb128 0x1
 9077 1c80 50       		.byte	0x50
 9078 1c81 01       		.uleb128 0x1
 9079 1c82 38       		.byte	0x38
 9080 1c83 01       		.uleb128 0x1
 9081 1c84 01       		.uleb128 0x1
 9082 1c85 51       		.byte	0x51
ARM GAS  C:\Users\DEVELO~1\AppData\Local\Temp\ccJK6Gr9.s 			page 161


 9083 1c86 01       		.uleb128 0x1
 9084 1c87 3A       		.byte	0x3a
 9085 1c88 01       		.uleb128 0x1
 9086 1c89 01       		.uleb128 0x1
 9087 1c8a 52       		.byte	0x52
 9088 1c8b 05       		.uleb128 0x5
 9089 1c8c 03       		.byte	0x3
 9090 1c8d 00000000 		.4byte	spi_lld_serve_bdma_tx_interrupt
 9091 1c91 01       		.uleb128 0x1
 9092 1c92 01       		.uleb128 0x1
 9093 1c93 53       		.byte	0x53
 9094 1c94 02       		.uleb128 0x2
 9095 1c95 74       		.byte	0x74
 9096 1c96 00       		.sleb128 0
 9097 1c97 00       		.byte	0
 9098 1c98 29       		.uleb128 0x29
 9099 1c99 18040000 		.4byte	.LVL250
 9100 1c9d BE140000 		.4byte	0x14be
 9101 1ca1 00       		.byte	0
 9102 1ca2 07       		.uleb128 0x7
 9103 1ca3 A03E0000 		.4byte	0x3ea0
 9104 1ca7 BA000000 		.4byte	.LBI729
 9105 1cab 0100     		.2byte	.LVU1199
 9106 1cad BA000000 		.4byte	.LBB729
 9107 1cb1 1E000000 		.4byte	.LBE729-.LBB729
 9108 1cb5 6203     		.2byte	0x362
 9109 1cb7 07       		.byte	0x7
 9110 1cb8 D71C0000 		.4byte	0x1cd7
 9111 1cbc 02       		.uleb128 0x2
 9112 1cbd BB3E0000 		.4byte	0x3ebb
 9113 1cc1 AD040000 		.4byte	.LLST113
 9114 1cc5 AB040000 		.4byte	.LVUS113
 9115 1cc9 02       		.uleb128 0x2
 9116 1cca AE3E0000 		.4byte	0x3eae
 9117 1cce B9040000 		.4byte	.LLST114
 9118 1cd2 B7040000 		.4byte	.LVUS114
 9119 1cd6 00       		.byte	0
 9120 1cd7 07       		.uleb128 0x7
 9121 1cd8 683E0000 		.4byte	0x3e68
 9122 1cdc D8000000 		.4byte	.LBI731
 9123 1ce0 0200     		.2byte	.LVU1208
 9124 1ce2 D8000000 		.4byte	.LBB731
 9125 1ce6 1C000000 		.4byte	.LBE731-.LBB731
 9126 1cea 6303     		.2byte	0x363
 9127 1cec 07       		.byte	0x7
 9128 1ced 241D0000 		.4byte	0x1d24
 9129 1cf1 02       		.uleb128 0x2
 9130 1cf2 763E0000 		.4byte	0x3e76
 9131 1cf6 C6040000 		.4byte	.LLST115
 9132 1cfa C4040000 		.4byte	.LVUS115
 9133 1cfe 03       		.uleb128 0x3
 9134 1cff 813F0000 		.4byte	0x3f81
 9135 1d03 D8000000 		.4byte	.LBI733
 9136 1d07 0400     		.2byte	.LVU1210
 9137 1d09 D8000000 		.4byte	.LBB733
 9138 1d0d 1C000000 		.4byte	.LBE733-.LBB733
 9139 1d11 02       		.byte	0x2
ARM GAS  C:\Users\DEVELO~1\AppData\Local\Temp\ccJK6Gr9.s 			page 162


 9140 1d12 3F02     		.2byte	0x23f
 9141 1d14 03       		.byte	0x3
 9142 1d15 02       		.uleb128 0x2
 9143 1d16 8E3F0000 		.4byte	0x3f8e
 9144 1d1a D3040000 		.4byte	.LLST116
 9145 1d1e D1040000 		.4byte	.LVUS116
 9146 1d22 00       		.byte	0
 9147 1d23 00       		.byte	0
 9148 1d24 07       		.uleb128 0x7
 9149 1d25 7D330000 		.4byte	0x337d
 9150 1d29 A6010000 		.4byte	.LBI735
 9151 1d2d 0100     		.2byte	.LVU1300
 9152 1d2f A6010000 		.4byte	.LBB735
 9153 1d33 28000000 		.4byte	.LBE735-.LBB735
 9154 1d37 0303     		.2byte	0x303
 9155 1d39 0D       		.byte	0xd
 9156 1d3a BD1D0000 		.4byte	0x1dbd
 9157 1d3e 02       		.uleb128 0x2
 9158 1d3f 99330000 		.4byte	0x3399
 9159 1d43 E0040000 		.4byte	.LLST117
 9160 1d47 DE040000 		.4byte	.LVUS117
 9161 1d4b 02       		.uleb128 0x2
 9162 1d4c A6330000 		.4byte	0x33a6
 9163 1d50 E0040000 		.4byte	.LLST117
 9164 1d54 DE040000 		.4byte	.LVUS117
 9165 1d58 02       		.uleb128 0x2
 9166 1d59 B3330000 		.4byte	0x33b3
 9167 1d5d EC040000 		.4byte	.LLST119
 9168 1d61 EA040000 		.4byte	.LVUS119
 9169 1d65 02       		.uleb128 0x2
 9170 1d66 8C330000 		.4byte	0x338c
 9171 1d6a F8040000 		.4byte	.LLST120
 9172 1d6e F6040000 		.4byte	.LVUS120
 9173 1d72 06       		.uleb128 0x6
 9174 1d73 B2010000 		.4byte	.LVL204
 9175 1d77 19150000 		.4byte	0x1519
 9176 1d7b 991D0000 		.4byte	0x1d99
 9177 1d7f 01       		.uleb128 0x1
 9178 1d80 01       		.uleb128 0x1
 9179 1d81 50       		.byte	0x50
 9180 1d82 01       		.uleb128 0x1
 9181 1d83 40       		.byte	0x40
 9182 1d84 01       		.uleb128 0x1
 9183 1d85 01       		.uleb128 0x1
 9184 1d86 51       		.byte	0x51
 9185 1d87 01       		.uleb128 0x1
 9186 1d88 3A       		.byte	0x3a
 9187 1d89 01       		.uleb128 0x1
 9188 1d8a 01       		.uleb128 0x1
 9189 1d8b 52       		.byte	0x52
 9190 1d8c 05       		.uleb128 0x5
 9191 1d8d 03       		.byte	0x3
 9192 1d8e 00000000 		.4byte	spi_lld_serve_dma_rx_interrupt
 9193 1d92 01       		.uleb128 0x1
 9194 1d93 01       		.uleb128 0x1
 9195 1d94 53       		.byte	0x53
 9196 1d95 02       		.uleb128 0x2
ARM GAS  C:\Users\DEVELO~1\AppData\Local\Temp\ccJK6Gr9.s 			page 163


 9197 1d96 74       		.byte	0x74
 9198 1d97 00       		.sleb128 0
 9199 1d98 00       		.byte	0
 9200 1d99 0D       		.uleb128 0xd
 9201 1d9a C6010000 		.4byte	.LVL205
 9202 1d9e 19150000 		.4byte	0x1519
 9203 1da2 01       		.uleb128 0x1
 9204 1da3 01       		.uleb128 0x1
 9205 1da4 50       		.byte	0x50
 9206 1da5 01       		.uleb128 0x1
 9207 1da6 40       		.byte	0x40
 9208 1da7 01       		.uleb128 0x1
 9209 1da8 01       		.uleb128 0x1
 9210 1da9 51       		.byte	0x51
 9211 1daa 01       		.uleb128 0x1
 9212 1dab 3A       		.byte	0x3a
 9213 1dac 01       		.uleb128 0x1
 9214 1dad 01       		.uleb128 0x1
 9215 1dae 52       		.byte	0x52
 9216 1daf 05       		.uleb128 0x5
 9217 1db0 03       		.byte	0x3
 9218 1db1 00000000 		.4byte	spi_lld_serve_dma_tx_interrupt
 9219 1db5 01       		.uleb128 0x1
 9220 1db6 01       		.uleb128 0x1
 9221 1db7 53       		.byte	0x53
 9222 1db8 02       		.uleb128 0x2
 9223 1db9 74       		.byte	0x74
 9224 1dba 00       		.sleb128 0
 9225 1dbb 00       		.byte	0
 9226 1dbc 00       		.byte	0
 9227 1dbd 07       		.uleb128 0x7
 9228 1dbe 003F0000 		.4byte	0x3f00
 9229 1dc2 DE010000 		.4byte	.LBI737
 9230 1dc6 0100     		.2byte	.LVU1317
 9231 1dc8 DE010000 		.4byte	.LBB737
 9232 1dcc 1E000000 		.4byte	.LBE737-.LBB737
 9233 1dd0 0D03     		.2byte	0x30d
 9234 1dd2 07       		.byte	0x7
 9235 1dd3 F21D0000 		.4byte	0x1df2
 9236 1dd7 02       		.uleb128 0x2
 9237 1dd8 1B3F0000 		.4byte	0x3f1b
 9238 1ddc 08050000 		.4byte	.LLST121
 9239 1de0 06050000 		.4byte	.LVUS121
 9240 1de4 02       		.uleb128 0x2
 9241 1de5 0E3F0000 		.4byte	0x3f0e
 9242 1de9 14050000 		.4byte	.LLST122
 9243 1ded 12050000 		.4byte	.LVUS122
 9244 1df1 00       		.byte	0
 9245 1df2 07       		.uleb128 0x7
 9246 1df3 C83E0000 		.4byte	0x3ec8
 9247 1df7 FC010000 		.4byte	.LBI739
 9248 1dfb 0200     		.2byte	.LVU1326
 9249 1dfd FC010000 		.4byte	.LBB739
 9250 1e01 1E000000 		.4byte	.LBE739-.LBB739
 9251 1e05 0E03     		.2byte	0x30e
 9252 1e07 07       		.byte	0x7
 9253 1e08 3F1E0000 		.4byte	0x1e3f
ARM GAS  C:\Users\DEVELO~1\AppData\Local\Temp\ccJK6Gr9.s 			page 164


 9254 1e0c 02       		.uleb128 0x2
 9255 1e0d D63E0000 		.4byte	0x3ed6
 9256 1e11 22050000 		.4byte	.LLST123
 9257 1e15 20050000 		.4byte	.LVUS123
 9258 1e19 03       		.uleb128 0x3
 9259 1e1a 9B3F0000 		.4byte	0x3f9b
 9260 1e1e FC010000 		.4byte	.LBI741
 9261 1e22 0400     		.2byte	.LVU1328
 9262 1e24 FC010000 		.4byte	.LBB741
 9263 1e28 1C000000 		.4byte	.LBE741-.LBB741
 9264 1e2c 02       		.byte	0x2
 9265 1e2d 8D01     		.2byte	0x18d
 9266 1e2f 03       		.byte	0x3
 9267 1e30 02       		.uleb128 0x2
 9268 1e31 A83F0000 		.4byte	0x3fa8
 9269 1e35 30050000 		.4byte	.LLST124
 9270 1e39 2E050000 		.4byte	.LVUS124
 9271 1e3d 00       		.byte	0
 9272 1e3e 00       		.byte	0
 9273 1e3f 07       		.uleb128 0x7
 9274 1e40 7D330000 		.4byte	0x337d
 9275 1e44 1A020000 		.4byte	.LBI743
 9276 1e48 0200     		.2byte	.LVU1338
 9277 1e4a 1A020000 		.4byte	.LBB743
 9278 1e4e 28000000 		.4byte	.LBE743-.LBB743
 9279 1e52 2503     		.2byte	0x325
 9280 1e54 0D       		.byte	0xd
 9281 1e55 D81E0000 		.4byte	0x1ed8
 9282 1e59 02       		.uleb128 0x2
 9283 1e5a 99330000 		.4byte	0x3399
 9284 1e5e 3E050000 		.4byte	.LLST125
 9285 1e62 3C050000 		.4byte	.LVUS125
 9286 1e66 02       		.uleb128 0x2
 9287 1e67 A6330000 		.4byte	0x33a6
 9288 1e6b 3E050000 		.4byte	.LLST125
 9289 1e6f 3C050000 		.4byte	.LVUS125
 9290 1e73 02       		.uleb128 0x2
 9291 1e74 B3330000 		.4byte	0x33b3
 9292 1e78 4A050000 		.4byte	.LLST127
 9293 1e7c 48050000 		.4byte	.LVUS127
 9294 1e80 02       		.uleb128 0x2
 9295 1e81 8C330000 		.4byte	0x338c
 9296 1e85 56050000 		.4byte	.LLST128
 9297 1e89 54050000 		.4byte	.LVUS128
 9298 1e8d 06       		.uleb128 0x6
 9299 1e8e 26020000 		.4byte	.LVL213
 9300 1e92 19150000 		.4byte	0x1519
 9301 1e96 B41E0000 		.4byte	0x1eb4
 9302 1e9a 01       		.uleb128 0x1
 9303 1e9b 01       		.uleb128 0x1
 9304 1e9c 50       		.byte	0x50
 9305 1e9d 01       		.uleb128 0x1
 9306 1e9e 40       		.byte	0x40
 9307 1e9f 01       		.uleb128 0x1
 9308 1ea0 01       		.uleb128 0x1
 9309 1ea1 51       		.byte	0x51
 9310 1ea2 01       		.uleb128 0x1
ARM GAS  C:\Users\DEVELO~1\AppData\Local\Temp\ccJK6Gr9.s 			page 165


 9311 1ea3 3A       		.byte	0x3a
 9312 1ea4 01       		.uleb128 0x1
 9313 1ea5 01       		.uleb128 0x1
 9314 1ea6 52       		.byte	0x52
 9315 1ea7 05       		.uleb128 0x5
 9316 1ea8 03       		.byte	0x3
 9317 1ea9 00000000 		.4byte	spi_lld_serve_dma_rx_interrupt
 9318 1ead 01       		.uleb128 0x1
 9319 1eae 01       		.uleb128 0x1
 9320 1eaf 53       		.byte	0x53
 9321 1eb0 02       		.uleb128 0x2
 9322 1eb1 74       		.byte	0x74
 9323 1eb2 00       		.sleb128 0
 9324 1eb3 00       		.byte	0
 9325 1eb4 0D       		.uleb128 0xd
 9326 1eb5 3A020000 		.4byte	.LVL214
 9327 1eb9 19150000 		.4byte	0x1519
 9328 1ebd 01       		.uleb128 0x1
 9329 1ebe 01       		.uleb128 0x1
 9330 1ebf 50       		.byte	0x50
 9331 1ec0 01       		.uleb128 0x1
 9332 1ec1 40       		.byte	0x40
 9333 1ec2 01       		.uleb128 0x1
 9334 1ec3 01       		.uleb128 0x1
 9335 1ec4 51       		.byte	0x51
 9336 1ec5 01       		.uleb128 0x1
 9337 1ec6 3A       		.byte	0x3a
 9338 1ec7 01       		.uleb128 0x1
 9339 1ec8 01       		.uleb128 0x1
 9340 1ec9 52       		.byte	0x52
 9341 1eca 05       		.uleb128 0x5
 9342 1ecb 03       		.byte	0x3
 9343 1ecc 00000000 		.4byte	spi_lld_serve_dma_tx_interrupt
 9344 1ed0 01       		.uleb128 0x1
 9345 1ed1 01       		.uleb128 0x1
 9346 1ed2 53       		.byte	0x53
 9347 1ed3 02       		.uleb128 0x2
 9348 1ed4 74       		.byte	0x74
 9349 1ed5 00       		.sleb128 0
 9350 1ed6 00       		.byte	0
 9351 1ed7 00       		.byte	0
 9352 1ed8 07       		.uleb128 0x7
 9353 1ed9 5C3F0000 		.4byte	0x3f5c
 9354 1edd 52020000 		.4byte	.LBI745
 9355 1ee1 0100     		.2byte	.LVU1355
 9356 1ee3 52020000 		.4byte	.LBB745
 9357 1ee7 1E000000 		.4byte	.LBE745-.LBB745
 9358 1eeb 2F03     		.2byte	0x32f
 9359 1eed 07       		.byte	0x7
 9360 1eee 0D1F0000 		.4byte	0x1f0d
 9361 1ef2 02       		.uleb128 0x2
 9362 1ef3 753F0000 		.4byte	0x3f75
 9363 1ef7 66050000 		.4byte	.LLST129
 9364 1efb 64050000 		.4byte	.LVUS129
 9365 1eff 02       		.uleb128 0x2
 9366 1f00 693F0000 		.4byte	0x3f69
 9367 1f04 72050000 		.4byte	.LLST130
ARM GAS  C:\Users\DEVELO~1\AppData\Local\Temp\ccJK6Gr9.s 			page 166


 9368 1f08 70050000 		.4byte	.LVUS130
 9369 1f0c 00       		.byte	0
 9370 1f0d 07       		.uleb128 0x7
 9371 1f0e 283F0000 		.4byte	0x3f28
 9372 1f12 70020000 		.4byte	.LBI747
 9373 1f16 0200     		.2byte	.LVU1364
 9374 1f18 70020000 		.4byte	.LBB747
 9375 1f1c 1E000000 		.4byte	.LBE747-.LBB747
 9376 1f20 3003     		.2byte	0x330
 9377 1f22 07       		.byte	0x7
 9378 1f23 591F0000 		.4byte	0x1f59
 9379 1f27 02       		.uleb128 0x2
 9380 1f28 353F0000 		.4byte	0x3f35
 9381 1f2c 80050000 		.4byte	.LLST131
 9382 1f30 7E050000 		.4byte	.LVUS131
 9383 1f34 20       		.uleb128 0x20
 9384 1f35 B53F0000 		.4byte	0x3fb5
 9385 1f39 70020000 		.4byte	.LBI749
 9386 1f3d 0400     		.2byte	.LVU1366
 9387 1f3f 70020000 		.4byte	.LBB749
 9388 1f43 1C000000 		.4byte	.LBE749-.LBB749
 9389 1f47 02       		.byte	0x2
 9390 1f48 DB       		.byte	0xdb
 9391 1f49 03       		.byte	0x3
 9392 1f4a 02       		.uleb128 0x2
 9393 1f4b C23F0000 		.4byte	0x3fc2
 9394 1f4f 8E050000 		.4byte	.LLST132
 9395 1f53 8C050000 		.4byte	.LVUS132
 9396 1f57 00       		.byte	0
 9397 1f58 00       		.byte	0
 9398 1f59 07       		.uleb128 0x7
 9399 1f5a 7D330000 		.4byte	0x337d
 9400 1f5e 8E020000 		.4byte	.LBI751
 9401 1f62 0200     		.2byte	.LVU1376
 9402 1f64 8E020000 		.4byte	.LBB751
 9403 1f68 28000000 		.4byte	.LBE751-.LBB751
 9404 1f6c 1403     		.2byte	0x314
 9405 1f6e 0D       		.byte	0xd
 9406 1f6f F21F0000 		.4byte	0x1ff2
 9407 1f73 02       		.uleb128 0x2
 9408 1f74 99330000 		.4byte	0x3399
 9409 1f78 9C050000 		.4byte	.LLST133
 9410 1f7c 9A050000 		.4byte	.LVUS133
 9411 1f80 02       		.uleb128 0x2
 9412 1f81 A6330000 		.4byte	0x33a6
 9413 1f85 9C050000 		.4byte	.LLST133
 9414 1f89 9A050000 		.4byte	.LVUS133
 9415 1f8d 02       		.uleb128 0x2
 9416 1f8e B3330000 		.4byte	0x33b3
 9417 1f92 A8050000 		.4byte	.LLST135
 9418 1f96 A6050000 		.4byte	.LVUS135
 9419 1f9a 02       		.uleb128 0x2
 9420 1f9b 8C330000 		.4byte	0x338c
 9421 1f9f B4050000 		.4byte	.LLST136
 9422 1fa3 B2050000 		.4byte	.LVUS136
 9423 1fa7 06       		.uleb128 0x6
 9424 1fa8 9A020000 		.4byte	.LVL222
ARM GAS  C:\Users\DEVELO~1\AppData\Local\Temp\ccJK6Gr9.s 			page 167


 9425 1fac 19150000 		.4byte	0x1519
 9426 1fb0 CE1F0000 		.4byte	0x1fce
 9427 1fb4 01       		.uleb128 0x1
 9428 1fb5 01       		.uleb128 0x1
 9429 1fb6 50       		.byte	0x50
 9430 1fb7 01       		.uleb128 0x1
 9431 1fb8 40       		.byte	0x40
 9432 1fb9 01       		.uleb128 0x1
 9433 1fba 01       		.uleb128 0x1
 9434 1fbb 51       		.byte	0x51
 9435 1fbc 01       		.uleb128 0x1
 9436 1fbd 3A       		.byte	0x3a
 9437 1fbe 01       		.uleb128 0x1
 9438 1fbf 01       		.uleb128 0x1
 9439 1fc0 52       		.byte	0x52
 9440 1fc1 05       		.uleb128 0x5
 9441 1fc2 03       		.byte	0x3
 9442 1fc3 00000000 		.4byte	spi_lld_serve_dma_rx_interrupt
 9443 1fc7 01       		.uleb128 0x1
 9444 1fc8 01       		.uleb128 0x1
 9445 1fc9 53       		.byte	0x53
 9446 1fca 02       		.uleb128 0x2
 9447 1fcb 74       		.byte	0x74
 9448 1fcc 00       		.sleb128 0
 9449 1fcd 00       		.byte	0
 9450 1fce 0D       		.uleb128 0xd
 9451 1fcf AE020000 		.4byte	.LVL223
 9452 1fd3 19150000 		.4byte	0x1519
 9453 1fd7 01       		.uleb128 0x1
 9454 1fd8 01       		.uleb128 0x1
 9455 1fd9 50       		.byte	0x50
 9456 1fda 01       		.uleb128 0x1
 9457 1fdb 40       		.byte	0x40
 9458 1fdc 01       		.uleb128 0x1
 9459 1fdd 01       		.uleb128 0x1
 9460 1fde 51       		.byte	0x51
 9461 1fdf 01       		.uleb128 0x1
 9462 1fe0 3A       		.byte	0x3a
 9463 1fe1 01       		.uleb128 0x1
 9464 1fe2 01       		.uleb128 0x1
 9465 1fe3 52       		.byte	0x52
 9466 1fe4 05       		.uleb128 0x5
 9467 1fe5 03       		.byte	0x3
 9468 1fe6 00000000 		.4byte	spi_lld_serve_dma_tx_interrupt
 9469 1fea 01       		.uleb128 0x1
 9470 1feb 01       		.uleb128 0x1
 9471 1fec 53       		.byte	0x53
 9472 1fed 02       		.uleb128 0x2
 9473 1fee 74       		.byte	0x74
 9474 1fef 00       		.sleb128 0
 9475 1ff0 00       		.byte	0
 9476 1ff1 00       		.byte	0
 9477 1ff2 07       		.uleb128 0x7
 9478 1ff3 5C3F0000 		.4byte	0x3f5c
 9479 1ff7 C6020000 		.4byte	.LBI753
 9480 1ffb 0100     		.2byte	.LVU1393
 9481 1ffd C6020000 		.4byte	.LBB753
ARM GAS  C:\Users\DEVELO~1\AppData\Local\Temp\ccJK6Gr9.s 			page 168


 9482 2001 1E000000 		.4byte	.LBE753-.LBB753
 9483 2005 1E03     		.2byte	0x31e
 9484 2007 07       		.byte	0x7
 9485 2008 27200000 		.4byte	0x2027
 9486 200c 02       		.uleb128 0x2
 9487 200d 753F0000 		.4byte	0x3f75
 9488 2011 C4050000 		.4byte	.LLST137
 9489 2015 C2050000 		.4byte	.LVUS137
 9490 2019 02       		.uleb128 0x2
 9491 201a 693F0000 		.4byte	0x3f69
 9492 201e D0050000 		.4byte	.LLST138
 9493 2022 CE050000 		.4byte	.LVUS138
 9494 2026 00       		.byte	0
 9495 2027 07       		.uleb128 0x7
 9496 2028 283F0000 		.4byte	0x3f28
 9497 202c E4020000 		.4byte	.LBI755
 9498 2030 0200     		.2byte	.LVU1402
 9499 2032 E4020000 		.4byte	.LBB755
 9500 2036 1E000000 		.4byte	.LBE755-.LBB755
 9501 203a 1F03     		.2byte	0x31f
 9502 203c 07       		.byte	0x7
 9503 203d 73200000 		.4byte	0x2073
 9504 2041 02       		.uleb128 0x2
 9505 2042 353F0000 		.4byte	0x3f35
 9506 2046 DE050000 		.4byte	.LLST139
 9507 204a DC050000 		.4byte	.LVUS139
 9508 204e 20       		.uleb128 0x20
 9509 204f B53F0000 		.4byte	0x3fb5
 9510 2053 E4020000 		.4byte	.LBI757
 9511 2057 0400     		.2byte	.LVU1404
 9512 2059 E4020000 		.4byte	.LBB757
 9513 205d 1C000000 		.4byte	.LBE757-.LBB757
 9514 2061 02       		.byte	0x2
 9515 2062 DB       		.byte	0xdb
 9516 2063 03       		.byte	0x3
 9517 2064 02       		.uleb128 0x2
 9518 2065 C23F0000 		.4byte	0x3fc2
 9519 2069 EC050000 		.4byte	.LLST140
 9520 206d EA050000 		.4byte	.LVUS140
 9521 2071 00       		.byte	0
 9522 2072 00       		.byte	0
 9523 2073 07       		.uleb128 0x7
 9524 2074 7D330000 		.4byte	0x337d
 9525 2078 02030000 		.4byte	.LBI759
 9526 207c 0200     		.2byte	.LVU1414
 9527 207e 02030000 		.4byte	.LBB759
 9528 2082 26000000 		.4byte	.LBE759-.LBB759
 9529 2086 3603     		.2byte	0x336
 9530 2088 0D       		.byte	0xd
 9531 2089 0C210000 		.4byte	0x210c
 9532 208d 02       		.uleb128 0x2
 9533 208e 99330000 		.4byte	0x3399
 9534 2092 FA050000 		.4byte	.LLST141
 9535 2096 F8050000 		.4byte	.LVUS141
 9536 209a 02       		.uleb128 0x2
 9537 209b A6330000 		.4byte	0x33a6
 9538 209f FA050000 		.4byte	.LLST141
ARM GAS  C:\Users\DEVELO~1\AppData\Local\Temp\ccJK6Gr9.s 			page 169


 9539 20a3 F8050000 		.4byte	.LVUS141
 9540 20a7 02       		.uleb128 0x2
 9541 20a8 B3330000 		.4byte	0x33b3
 9542 20ac 06060000 		.4byte	.LLST143
 9543 20b0 04060000 		.4byte	.LVUS143
 9544 20b4 02       		.uleb128 0x2
 9545 20b5 8C330000 		.4byte	0x338c
 9546 20b9 12060000 		.4byte	.LLST144
 9547 20bd 10060000 		.4byte	.LVUS144
 9548 20c1 06       		.uleb128 0x6
 9549 20c2 0E030000 		.4byte	.LVL231
 9550 20c6 19150000 		.4byte	0x1519
 9551 20ca E8200000 		.4byte	0x20e8
 9552 20ce 01       		.uleb128 0x1
 9553 20cf 01       		.uleb128 0x1
 9554 20d0 50       		.byte	0x50
 9555 20d1 01       		.uleb128 0x1
 9556 20d2 40       		.byte	0x40
 9557 20d3 01       		.uleb128 0x1
 9558 20d4 01       		.uleb128 0x1
 9559 20d5 51       		.byte	0x51
 9560 20d6 01       		.uleb128 0x1
 9561 20d7 3A       		.byte	0x3a
 9562 20d8 01       		.uleb128 0x1
 9563 20d9 01       		.uleb128 0x1
 9564 20da 52       		.byte	0x52
 9565 20db 05       		.uleb128 0x5
 9566 20dc 03       		.byte	0x3
 9567 20dd 00000000 		.4byte	spi_lld_serve_dma_rx_interrupt
 9568 20e1 01       		.uleb128 0x1
 9569 20e2 01       		.uleb128 0x1
 9570 20e3 53       		.byte	0x53
 9571 20e4 02       		.uleb128 0x2
 9572 20e5 74       		.byte	0x74
 9573 20e6 00       		.sleb128 0
 9574 20e7 00       		.byte	0
 9575 20e8 0D       		.uleb128 0xd
 9576 20e9 22030000 		.4byte	.LVL232
 9577 20ed 19150000 		.4byte	0x1519
 9578 20f1 01       		.uleb128 0x1
 9579 20f2 01       		.uleb128 0x1
 9580 20f3 50       		.byte	0x50
 9581 20f4 01       		.uleb128 0x1
 9582 20f5 40       		.byte	0x40
 9583 20f6 01       		.uleb128 0x1
 9584 20f7 01       		.uleb128 0x1
 9585 20f8 51       		.byte	0x51
 9586 20f9 01       		.uleb128 0x1
 9587 20fa 3A       		.byte	0x3a
 9588 20fb 01       		.uleb128 0x1
 9589 20fc 01       		.uleb128 0x1
 9590 20fd 52       		.byte	0x52
 9591 20fe 05       		.uleb128 0x5
 9592 20ff 03       		.byte	0x3
 9593 2100 00000000 		.4byte	spi_lld_serve_dma_tx_interrupt
 9594 2104 01       		.uleb128 0x1
 9595 2105 01       		.uleb128 0x1
ARM GAS  C:\Users\DEVELO~1\AppData\Local\Temp\ccJK6Gr9.s 			page 170


 9596 2106 53       		.byte	0x53
 9597 2107 02       		.uleb128 0x2
 9598 2108 74       		.byte	0x74
 9599 2109 00       		.sleb128 0
 9600 210a 00       		.byte	0
 9601 210b 00       		.byte	0
 9602 210c 07       		.uleb128 0x7
 9603 210d 003F0000 		.4byte	0x3f00
 9604 2111 38030000 		.4byte	.LBI761
 9605 2115 0100     		.2byte	.LVU1431
 9606 2117 38030000 		.4byte	.LBB761
 9607 211b 1E000000 		.4byte	.LBE761-.LBB761
 9608 211f 4003     		.2byte	0x340
 9609 2121 07       		.byte	0x7
 9610 2122 41210000 		.4byte	0x2141
 9611 2126 02       		.uleb128 0x2
 9612 2127 1B3F0000 		.4byte	0x3f1b
 9613 212b 22060000 		.4byte	.LLST145
 9614 212f 20060000 		.4byte	.LVUS145
 9615 2133 02       		.uleb128 0x2
 9616 2134 0E3F0000 		.4byte	0x3f0e
 9617 2138 2E060000 		.4byte	.LLST146
 9618 213c 2C060000 		.4byte	.LVUS146
 9619 2140 00       		.byte	0
 9620 2141 07       		.uleb128 0x7
 9621 2142 C83E0000 		.4byte	0x3ec8
 9622 2146 56030000 		.4byte	.LBI763
 9623 214a 0200     		.2byte	.LVU1440
 9624 214c 56030000 		.4byte	.LBB763
 9625 2150 4A000000 		.4byte	.LBE763-.LBB763
 9626 2154 4103     		.2byte	0x341
 9627 2156 07       		.byte	0x7
 9628 2157 8E210000 		.4byte	0x218e
 9629 215b 02       		.uleb128 0x2
 9630 215c D63E0000 		.4byte	0x3ed6
 9631 2160 3C060000 		.4byte	.LLST147
 9632 2164 3A060000 		.4byte	.LVUS147
 9633 2168 03       		.uleb128 0x3
 9634 2169 9B3F0000 		.4byte	0x3f9b
 9635 216d 56030000 		.4byte	.LBI765
 9636 2171 0400     		.2byte	.LVU1442
 9637 2173 56030000 		.4byte	.LBB765
 9638 2177 1C000000 		.4byte	.LBE765-.LBB765
 9639 217b 02       		.byte	0x2
 9640 217c 8D01     		.2byte	0x18d
 9641 217e 03       		.byte	0x3
 9642 217f 02       		.uleb128 0x2
 9643 2180 A83F0000 		.4byte	0x3fa8
 9644 2184 4A060000 		.4byte	.LLST148
 9645 2188 48060000 		.4byte	.LVUS148
 9646 218c 00       		.byte	0
 9647 218d 00       		.byte	0
 9648 218e 18       		.uleb128 0x18
 9649 218f 7D330000 		.4byte	0x337d
 9650 2193 A0030000 		.4byte	.LBI767
 9651 2197 0200     		.2byte	.LVU1452
 9652 2199 FD000000 		.4byte	.LLRL149
ARM GAS  C:\Users\DEVELO~1\AppData\Local\Temp\ccJK6Gr9.s 			page 171


 9653 219d 4703     		.2byte	0x347
 9654 219f 0D       		.byte	0xd
 9655 21a0 30220000 		.4byte	0x2230
 9656 21a4 02       		.uleb128 0x2
 9657 21a5 99330000 		.4byte	0x3399
 9658 21a9 58060000 		.4byte	.LLST150
 9659 21ad 56060000 		.4byte	.LVUS150
 9660 21b1 02       		.uleb128 0x2
 9661 21b2 A6330000 		.4byte	0x33a6
 9662 21b6 58060000 		.4byte	.LLST150
 9663 21ba 56060000 		.4byte	.LVUS150
 9664 21be 02       		.uleb128 0x2
 9665 21bf B3330000 		.4byte	0x33b3
 9666 21c3 64060000 		.4byte	.LLST152
 9667 21c7 62060000 		.4byte	.LVUS152
 9668 21cb 02       		.uleb128 0x2
 9669 21cc 8C330000 		.4byte	0x338c
 9670 21d0 70060000 		.4byte	.LLST153
 9671 21d4 6E060000 		.4byte	.LVUS153
 9672 21d8 06       		.uleb128 0x6
 9673 21d9 AC030000 		.4byte	.LVL240
 9674 21dd 19150000 		.4byte	0x1519
 9675 21e1 FF210000 		.4byte	0x21ff
 9676 21e5 01       		.uleb128 0x1
 9677 21e6 01       		.uleb128 0x1
 9678 21e7 50       		.byte	0x50
 9679 21e8 01       		.uleb128 0x1
 9680 21e9 40       		.byte	0x40
 9681 21ea 01       		.uleb128 0x1
 9682 21eb 01       		.uleb128 0x1
 9683 21ec 51       		.byte	0x51
 9684 21ed 01       		.uleb128 0x1
 9685 21ee 3A       		.byte	0x3a
 9686 21ef 01       		.uleb128 0x1
 9687 21f0 01       		.uleb128 0x1
 9688 21f1 52       		.byte	0x52
 9689 21f2 05       		.uleb128 0x5
 9690 21f3 03       		.byte	0x3
 9691 21f4 00000000 		.4byte	spi_lld_serve_dma_rx_interrupt
 9692 21f8 01       		.uleb128 0x1
 9693 21f9 01       		.uleb128 0x1
 9694 21fa 53       		.byte	0x53
 9695 21fb 02       		.uleb128 0x2
 9696 21fc 74       		.byte	0x74
 9697 21fd 00       		.sleb128 0
 9698 21fe 00       		.byte	0
 9699 21ff 06       		.uleb128 0x6
 9700 2200 BC030000 		.4byte	.LVL241
 9701 2204 19150000 		.4byte	0x1519
 9702 2208 26220000 		.4byte	0x2226
 9703 220c 01       		.uleb128 0x1
 9704 220d 01       		.uleb128 0x1
 9705 220e 50       		.byte	0x50
 9706 220f 01       		.uleb128 0x1
 9707 2210 40       		.byte	0x40
 9708 2211 01       		.uleb128 0x1
 9709 2212 01       		.uleb128 0x1
ARM GAS  C:\Users\DEVELO~1\AppData\Local\Temp\ccJK6Gr9.s 			page 172


 9710 2213 51       		.byte	0x51
 9711 2214 01       		.uleb128 0x1
 9712 2215 3A       		.byte	0x3a
 9713 2216 01       		.uleb128 0x1
 9714 2217 01       		.uleb128 0x1
 9715 2218 52       		.byte	0x52
 9716 2219 05       		.uleb128 0x5
 9717 221a 03       		.byte	0x3
 9718 221b 00000000 		.4byte	spi_lld_serve_dma_tx_interrupt
 9719 221f 01       		.uleb128 0x1
 9720 2220 01       		.uleb128 0x1
 9721 2221 53       		.byte	0x53
 9722 2222 02       		.uleb128 0x2
 9723 2223 74       		.byte	0x74
 9724 2224 00       		.sleb128 0
 9725 2225 00       		.byte	0
 9726 2226 29       		.uleb128 0x29
 9727 2227 24040000 		.4byte	.LVL252
 9728 222b 07150000 		.4byte	0x1507
 9729 222f 00       		.byte	0
 9730 2230 07       		.uleb128 0x7
 9731 2231 003F0000 		.4byte	0x3f00
 9732 2235 D0030000 		.4byte	.LBI771
 9733 2239 0100     		.2byte	.LVU1469
 9734 223b D0030000 		.4byte	.LBB771
 9735 223f 1E000000 		.4byte	.LBE771-.LBB771
 9736 2243 5103     		.2byte	0x351
 9737 2245 07       		.byte	0x7
 9738 2246 65220000 		.4byte	0x2265
 9739 224a 02       		.uleb128 0x2
 9740 224b 1B3F0000 		.4byte	0x3f1b
 9741 224f 80060000 		.4byte	.LLST154
 9742 2253 7E060000 		.4byte	.LVUS154
 9743 2257 02       		.uleb128 0x2
 9744 2258 0E3F0000 		.4byte	0x3f0e
 9745 225c 8C060000 		.4byte	.LLST155
 9746 2260 8A060000 		.4byte	.LVUS155
 9747 2264 00       		.byte	0
 9748 2265 07       		.uleb128 0x7
 9749 2266 C83E0000 		.4byte	0x3ec8
 9750 226a EE030000 		.4byte	.LBI773
 9751 226e 0200     		.2byte	.LVU1478
 9752 2270 EE030000 		.4byte	.LBB773
 9753 2274 1E000000 		.4byte	.LBE773-.LBB773
 9754 2278 5203     		.2byte	0x352
 9755 227a 07       		.byte	0x7
 9756 227b B2220000 		.4byte	0x22b2
 9757 227f 02       		.uleb128 0x2
 9758 2280 D63E0000 		.4byte	0x3ed6
 9759 2284 9A060000 		.4byte	.LLST156
 9760 2288 98060000 		.4byte	.LVUS156
 9761 228c 03       		.uleb128 0x3
 9762 228d 9B3F0000 		.4byte	0x3f9b
 9763 2291 EE030000 		.4byte	.LBI775
 9764 2295 0400     		.2byte	.LVU1480
 9765 2297 EE030000 		.4byte	.LBB775
 9766 229b 1C000000 		.4byte	.LBE775-.LBB775
ARM GAS  C:\Users\DEVELO~1\AppData\Local\Temp\ccJK6Gr9.s 			page 173


 9767 229f 02       		.byte	0x2
 9768 22a0 8D01     		.2byte	0x18d
 9769 22a2 03       		.byte	0x3
 9770 22a3 02       		.uleb128 0x2
 9771 22a4 A83F0000 		.4byte	0x3fa8
 9772 22a8 A8060000 		.4byte	.LLST157
 9773 22ac A6060000 		.4byte	.LVUS157
 9774 22b0 00       		.byte	0
 9775 22b1 00       		.byte	0
 9776 22b2 06       		.uleb128 0x6
 9777 22b3 4E000000 		.4byte	.LVL183
 9778 22b7 78400000 		.4byte	0x4078
 9779 22bb C6220000 		.4byte	0x22c6
 9780 22bf 01       		.uleb128 0x1
 9781 22c0 01       		.uleb128 0x1
 9782 22c1 51       		.byte	0x51
 9783 22c2 02       		.uleb128 0x2
 9784 22c3 71       		.byte	0x71
 9785 22c4 00       		.sleb128 0
 9786 22c5 00       		.byte	0
 9787 22c6 06       		.uleb128 0x6
 9788 22c7 B2000000 		.4byte	.LVL190
 9789 22cb 3F150000 		.4byte	0x153f
 9790 22cf D9220000 		.4byte	0x22d9
 9791 22d3 01       		.uleb128 0x1
 9792 22d4 01       		.uleb128 0x1
 9793 22d5 51       		.byte	0x51
 9794 22d6 01       		.uleb128 0x1
 9795 22d7 3B       		.byte	0x3b
 9796 22d8 00       		.byte	0
 9797 22d9 06       		.uleb128 0x6
 9798 22da BA000000 		.4byte	.LVL191
 9799 22de 3F150000 		.4byte	0x153f
 9800 22e2 EC220000 		.4byte	0x22ec
 9801 22e6 01       		.uleb128 0x1
 9802 22e7 01       		.uleb128 0x1
 9803 22e8 51       		.byte	0x51
 9804 22e9 01       		.uleb128 0x1
 9805 22ea 3C       		.byte	0x3c
 9806 22eb 00       		.byte	0
 9807 22ec 06       		.uleb128 0x6
 9808 22ed D6010000 		.4byte	.LVL207
 9809 22f1 56150000 		.4byte	0x1556
 9810 22f5 00230000 		.4byte	0x2300
 9811 22f9 01       		.uleb128 0x1
 9812 22fa 01       		.uleb128 0x1
 9813 22fb 51       		.byte	0x51
 9814 22fc 02       		.uleb128 0x2
 9815 22fd 08       		.byte	0x8
 9816 22fe 25       		.byte	0x25
 9817 22ff 00       		.byte	0
 9818 2300 06       		.uleb128 0x6
 9819 2301 DE010000 		.4byte	.LVL208
 9820 2305 56150000 		.4byte	0x1556
 9821 2309 14230000 		.4byte	0x2314
 9822 230d 01       		.uleb128 0x1
 9823 230e 01       		.uleb128 0x1
ARM GAS  C:\Users\DEVELO~1\AppData\Local\Temp\ccJK6Gr9.s 			page 174


 9824 230f 51       		.byte	0x51
 9825 2310 02       		.uleb128 0x2
 9826 2311 08       		.byte	0x8
 9827 2312 26       		.byte	0x26
 9828 2313 00       		.byte	0
 9829 2314 06       		.uleb128 0x6
 9830 2315 4A020000 		.4byte	.LVL216
 9831 2319 56150000 		.4byte	0x1556
 9832 231d 28230000 		.4byte	0x2328
 9833 2321 01       		.uleb128 0x1
 9834 2322 01       		.uleb128 0x1
 9835 2323 51       		.byte	0x51
 9836 2324 02       		.uleb128 0x2
 9837 2325 08       		.byte	0x8
 9838 2326 3D       		.byte	0x3d
 9839 2327 00       		.byte	0
 9840 2328 06       		.uleb128 0x6
 9841 2329 52020000 		.4byte	.LVL217
 9842 232d 56150000 		.4byte	0x1556
 9843 2331 3C230000 		.4byte	0x233c
 9844 2335 01       		.uleb128 0x1
 9845 2336 01       		.uleb128 0x1
 9846 2337 51       		.byte	0x51
 9847 2338 02       		.uleb128 0x2
 9848 2339 08       		.byte	0x8
 9849 233a 3E       		.byte	0x3e
 9850 233b 00       		.byte	0
 9851 233c 06       		.uleb128 0x6
 9852 233d BE020000 		.4byte	.LVL225
 9853 2341 56150000 		.4byte	0x1556
 9854 2345 50230000 		.4byte	0x2350
 9855 2349 01       		.uleb128 0x1
 9856 234a 01       		.uleb128 0x1
 9857 234b 51       		.byte	0x51
 9858 234c 02       		.uleb128 0x2
 9859 234d 08       		.byte	0x8
 9860 234e 27       		.byte	0x27
 9861 234f 00       		.byte	0
 9862 2350 06       		.uleb128 0x6
 9863 2351 C6020000 		.4byte	.LVL226
 9864 2355 56150000 		.4byte	0x1556
 9865 2359 64230000 		.4byte	0x2364
 9866 235d 01       		.uleb128 0x1
 9867 235e 01       		.uleb128 0x1
 9868 235f 51       		.byte	0x51
 9869 2360 02       		.uleb128 0x2
 9870 2361 08       		.byte	0x8
 9871 2362 28       		.byte	0x28
 9872 2363 00       		.byte	0
 9873 2364 06       		.uleb128 0x6
 9874 2365 30030000 		.4byte	.LVL234
 9875 2369 56150000 		.4byte	0x1556
 9876 236d 78230000 		.4byte	0x2378
 9877 2371 01       		.uleb128 0x1
 9878 2372 01       		.uleb128 0x1
 9879 2373 51       		.byte	0x51
 9880 2374 02       		.uleb128 0x2
ARM GAS  C:\Users\DEVELO~1\AppData\Local\Temp\ccJK6Gr9.s 			page 175


 9881 2375 08       		.byte	0x8
 9882 2376 53       		.byte	0x53
 9883 2377 00       		.byte	0
 9884 2378 06       		.uleb128 0x6
 9885 2379 38030000 		.4byte	.LVL235
 9886 237d 56150000 		.4byte	0x1556
 9887 2381 8C230000 		.4byte	0x238c
 9888 2385 01       		.uleb128 0x1
 9889 2386 01       		.uleb128 0x1
 9890 2387 51       		.byte	0x51
 9891 2388 02       		.uleb128 0x2
 9892 2389 08       		.byte	0x8
 9893 238a 54       		.byte	0x54
 9894 238b 00       		.byte	0
 9895 238c 06       		.uleb128 0x6
 9896 238d C8030000 		.4byte	.LVL243
 9897 2391 56150000 		.4byte	0x1556
 9898 2395 A0230000 		.4byte	0x23a0
 9899 2399 01       		.uleb128 0x1
 9900 239a 01       		.uleb128 0x1
 9901 239b 51       		.byte	0x51
 9902 239c 02       		.uleb128 0x2
 9903 239d 08       		.byte	0x8
 9904 239e 55       		.byte	0x55
 9905 239f 00       		.byte	0
 9906 23a0 0D       		.uleb128 0xd
 9907 23a1 D0030000 		.4byte	.LVL244
 9908 23a5 56150000 		.4byte	0x1556
 9909 23a9 01       		.uleb128 0x1
 9910 23aa 01       		.uleb128 0x1
 9911 23ab 51       		.byte	0x51
 9912 23ac 02       		.uleb128 0x2
 9913 23ad 08       		.byte	0x8
 9914 23ae 56       		.byte	0x56
 9915 23af 00       		.byte	0
 9916 23b0 00       		.byte	0
 9917 23b1 14       		.uleb128 0x14
 9918 23b2 9E030000 		.4byte	0x39e
 9919 23b6 C1230000 		.4byte	0x23c1
 9920 23ba 15       		.uleb128 0x15
 9921 23bb 39000000 		.4byte	0x39
 9922 23bf 0D       		.byte	0xd
 9923 23c0 00       		.byte	0
 9924 23c1 11       		.uleb128 0x11
 9925 23c2 B1230000 		.4byte	0x23b1
 9926 23c6 21       		.uleb128 0x21
 9927 23c7 CB050000 		.4byte	.LASF300
 9928 23cb 6602     		.2byte	0x266
 9929 23cd 06       		.byte	0x6
 9930 23ce 00000000 		.4byte	.LFB466
 9931 23d2 14010000 		.4byte	.LFE466-.LFB466
 9932 23d6 01       		.uleb128 0x1
 9933 23d7 9C       		.byte	0x9c
 9934 23d8 E7240000 		.4byte	0x24e7
 9935 23dc 06       		.uleb128 0x6
 9936 23dd 14000000 		.4byte	.LVL167
 9937 23e1 83150000 		.4byte	0x1583
ARM GAS  C:\Users\DEVELO~1\AppData\Local\Temp\ccJK6Gr9.s 			page 176


 9938 23e5 F0230000 		.4byte	0x23f0
 9939 23e9 01       		.uleb128 0x1
 9940 23ea 01       		.uleb128 0x1
 9941 23eb 50       		.byte	0x50
 9942 23ec 02       		.uleb128 0x2
 9943 23ed 75       		.byte	0x75
 9944 23ee 00       		.sleb128 0
 9945 23ef 00       		.byte	0
 9946 23f0 06       		.uleb128 0x6
 9947 23f1 30000000 		.4byte	.LVL168
 9948 23f5 6D150000 		.4byte	0x156d
 9949 23f9 09240000 		.4byte	0x2409
 9950 23fd 01       		.uleb128 0x1
 9951 23fe 01       		.uleb128 0x1
 9952 23ff 50       		.byte	0x50
 9953 2400 02       		.uleb128 0x2
 9954 2401 08       		.byte	0x8
 9955 2402 23       		.byte	0x23
 9956 2403 01       		.uleb128 0x1
 9957 2404 01       		.uleb128 0x1
 9958 2405 51       		.byte	0x51
 9959 2406 01       		.uleb128 0x1
 9960 2407 3A       		.byte	0x3a
 9961 2408 00       		.byte	0
 9962 2409 06       		.uleb128 0x6
 9963 240a 36000000 		.4byte	.LVL169
 9964 240e 83150000 		.4byte	0x1583
 9965 2412 1D240000 		.4byte	0x241d
 9966 2416 01       		.uleb128 0x1
 9967 2417 01       		.uleb128 0x1
 9968 2418 50       		.byte	0x50
 9969 2419 02       		.uleb128 0x2
 9970 241a 75       		.byte	0x75
 9971 241b 00       		.sleb128 0
 9972 241c 00       		.byte	0
 9973 241d 06       		.uleb128 0x6
 9974 241e 50000000 		.4byte	.LVL170
 9975 2422 6D150000 		.4byte	0x156d
 9976 2426 36240000 		.4byte	0x2436
 9977 242a 01       		.uleb128 0x1
 9978 242b 01       		.uleb128 0x1
 9979 242c 50       		.byte	0x50
 9980 242d 02       		.uleb128 0x2
 9981 242e 08       		.byte	0x8
 9982 242f 24       		.byte	0x24
 9983 2430 01       		.uleb128 0x1
 9984 2431 01       		.uleb128 0x1
 9985 2432 51       		.byte	0x51
 9986 2433 01       		.uleb128 0x1
 9987 2434 3A       		.byte	0x3a
 9988 2435 00       		.byte	0
 9989 2436 06       		.uleb128 0x6
 9990 2437 56000000 		.4byte	.LVL171
 9991 243b 83150000 		.4byte	0x1583
 9992 243f 4A240000 		.4byte	0x244a
 9993 2443 01       		.uleb128 0x1
 9994 2444 01       		.uleb128 0x1
ARM GAS  C:\Users\DEVELO~1\AppData\Local\Temp\ccJK6Gr9.s 			page 177


 9995 2445 50       		.byte	0x50
 9996 2446 02       		.uleb128 0x2
 9997 2447 75       		.byte	0x75
 9998 2448 00       		.sleb128 0
 9999 2449 00       		.byte	0
 10000 244a 06       		.uleb128 0x6
 10001 244b 70000000 		.4byte	.LVL172
 10002 244f 6D150000 		.4byte	0x156d
 10003 2453 63240000 		.4byte	0x2463
 10004 2457 01       		.uleb128 0x1
 10005 2458 01       		.uleb128 0x1
 10006 2459 50       		.byte	0x50
 10007 245a 02       		.uleb128 0x2
 10008 245b 08       		.byte	0x8
 10009 245c 33       		.byte	0x33
 10010 245d 01       		.uleb128 0x1
 10011 245e 01       		.uleb128 0x1
 10012 245f 51       		.byte	0x51
 10013 2460 01       		.uleb128 0x1
 10014 2461 3A       		.byte	0x3a
 10015 2462 00       		.byte	0
 10016 2463 06       		.uleb128 0x6
 10017 2464 76000000 		.4byte	.LVL173
 10018 2468 83150000 		.4byte	0x1583
 10019 246c 77240000 		.4byte	0x2477
 10020 2470 01       		.uleb128 0x1
 10021 2471 01       		.uleb128 0x1
 10022 2472 50       		.byte	0x50
 10023 2473 02       		.uleb128 0x2
 10024 2474 75       		.byte	0x75
 10025 2475 00       		.sleb128 0
 10026 2476 00       		.byte	0
 10027 2477 06       		.uleb128 0x6
 10028 2478 8E000000 		.4byte	.LVL174
 10029 247c 6D150000 		.4byte	0x156d
 10030 2480 90240000 		.4byte	0x2490
 10031 2484 01       		.uleb128 0x1
 10032 2485 01       		.uleb128 0x1
 10033 2486 50       		.byte	0x50
 10034 2487 02       		.uleb128 0x2
 10035 2488 08       		.byte	0x8
 10036 2489 54       		.byte	0x54
 10037 248a 01       		.uleb128 0x1
 10038 248b 01       		.uleb128 0x1
 10039 248c 51       		.byte	0x51
 10040 248d 01       		.uleb128 0x1
 10041 248e 3A       		.byte	0x3a
 10042 248f 00       		.byte	0
 10043 2490 06       		.uleb128 0x6
 10044 2491 94000000 		.4byte	.LVL175
 10045 2495 83150000 		.4byte	0x1583
 10046 2499 A4240000 		.4byte	0x24a4
 10047 249d 01       		.uleb128 0x1
 10048 249e 01       		.uleb128 0x1
 10049 249f 50       		.byte	0x50
 10050 24a0 02       		.uleb128 0x2
 10051 24a1 76       		.byte	0x76
ARM GAS  C:\Users\DEVELO~1\AppData\Local\Temp\ccJK6Gr9.s 			page 178


 10052 24a2 00       		.sleb128 0
 10053 24a3 00       		.byte	0
 10054 24a4 06       		.uleb128 0x6
 10055 24a5 AE000000 		.4byte	.LVL176
 10056 24a9 6D150000 		.4byte	0x156d
 10057 24ad BD240000 		.4byte	0x24bd
 10058 24b1 01       		.uleb128 0x1
 10059 24b2 01       		.uleb128 0x1
 10060 24b3 50       		.byte	0x50
 10061 24b4 02       		.uleb128 0x2
 10062 24b5 08       		.byte	0x8
 10063 24b6 55       		.byte	0x55
 10064 24b7 01       		.uleb128 0x1
 10065 24b8 01       		.uleb128 0x1
 10066 24b9 51       		.byte	0x51
 10067 24ba 01       		.uleb128 0x1
 10068 24bb 3A       		.byte	0x3a
 10069 24bc 00       		.byte	0
 10070 24bd 06       		.uleb128 0x6
 10071 24be B4000000 		.4byte	.LVL177
 10072 24c2 83150000 		.4byte	0x1583
 10073 24c6 D1240000 		.4byte	0x24d1
 10074 24ca 01       		.uleb128 0x1
 10075 24cb 01       		.uleb128 0x1
 10076 24cc 50       		.byte	0x50
 10077 24cd 02       		.uleb128 0x2
 10078 24ce 75       		.byte	0x75
 10079 24cf 00       		.sleb128 0
 10080 24d0 00       		.byte	0
 10081 24d1 3C       		.uleb128 0x3c
 10082 24d2 DA000000 		.4byte	.LVL178
 10083 24d6 6D150000 		.4byte	0x156d
 10084 24da 01       		.uleb128 0x1
 10085 24db 01       		.uleb128 0x1
 10086 24dc 50       		.byte	0x50
 10087 24dd 02       		.uleb128 0x2
 10088 24de 08       		.byte	0x8
 10089 24df 56       		.byte	0x56
 10090 24e0 01       		.uleb128 0x1
 10091 24e1 01       		.uleb128 0x1
 10092 24e2 51       		.byte	0x51
 10093 24e3 01       		.uleb128 0x1
 10094 24e4 3A       		.byte	0x3a
 10095 24e5 00       		.byte	0
 10096 24e6 00       		.byte	0
 10097 24e7 21       		.uleb128 0x21
 10098 24e8 0E050000 		.4byte	.LASF301
 10099 24ec 5202     		.2byte	0x252
 10100 24ee 01       		.byte	0x1
 10101 24ef 00000000 		.4byte	.LFB465
 10102 24f3 68000000 		.4byte	.LFE465-.LFB465
 10103 24f7 01       		.uleb128 0x1
 10104 24f8 9C       		.byte	0x9c
 10105 24f9 43270000 		.4byte	0x2743
 10106 24fd 2F       		.uleb128 0x2f
 10107 24fe 570E0000 		.4byte	.LASF295
 10108 2502 53270000 		.4byte	0x2753
ARM GAS  C:\Users\DEVELO~1\AppData\Local\Temp\ccJK6Gr9.s 			page 179


 10109 2506 05       		.uleb128 0x5
 10110 2507 03       		.byte	0x3
 10111 2508 00000000 		.4byte	__func__.0
 10112 250c 18       		.uleb128 0x18
 10113 250d C1330000 		.4byte	0x33c1
 10114 2511 0A000000 		.4byte	.LBI655
 10115 2515 0200     		.2byte	.LVU947
 10116 2517 DB000000 		.4byte	.LLRL97
 10117 251b 5602     		.2byte	0x256
 10118 251d 03       		.byte	0x3
 10119 251e EB260000 		.4byte	0x26eb
 10120 2522 02       		.uleb128 0x2
 10121 2523 CF330000 		.4byte	0x33cf
 10122 2527 B8060000 		.4byte	.LLST98
 10123 252b B4060000 		.4byte	.LVUS98
 10124 252f 30       		.uleb128 0x30
 10125 2530 DB000000 		.4byte	.LLRL97
 10126 2534 31       		.uleb128 0x31
 10127 2535 DC330000 		.4byte	0x33dc
 10128 2539 D8060000 		.4byte	.LLST99
 10129 253d D2060000 		.4byte	.LVUS99
 10130 2541 03       		.uleb128 0x3
 10131 2542 C1330000 		.4byte	0x33c1
 10132 2546 26000000 		.4byte	.LBI657
 10133 254a 0000     		.2byte	.LVU969
 10134 254c 26000000 		.4byte	.LBB657
 10135 2550 26000000 		.4byte	.LBE657-.LBB657
 10136 2554 01       		.byte	0x1
 10137 2555 8B01     		.2byte	0x18b
 10138 2557 0D       		.byte	0xd
 10139 2558 02       		.uleb128 0x2
 10140 2559 CF330000 		.4byte	0x33cf
 10141 255d F1060000 		.4byte	.LLST100
 10142 2561 EF060000 		.4byte	.LVUS100
 10143 2565 32       		.uleb128 0x32
 10144 2566 DC330000 		.4byte	0x33dc
 10145 256a 07       		.uleb128 0x7
 10146 256b 01400000 		.4byte	0x4001
 10147 256f 36000000 		.4byte	.LBI659
 10148 2573 0100     		.2byte	.LVU974
 10149 2575 36000000 		.4byte	.LBB659
 10150 2579 06000000 		.4byte	.LBE659-.LBB659
 10151 257d 9701     		.2byte	0x197
 10152 257f 05       		.byte	0x5
 10153 2580 F2250000 		.4byte	0x25f2
 10154 2584 03       		.uleb128 0x3
 10155 2585 2F400000 		.4byte	0x402f
 10156 2589 36000000 		.4byte	.LBI660
 10157 258d 0300     		.2byte	.LVU976
 10158 258f 36000000 		.4byte	.LBB660
 10159 2593 06000000 		.4byte	.LBE660-.LBB660
 10160 2597 03       		.byte	0x3
 10161 2598 5502     		.2byte	0x255
 10162 259a 03       		.byte	0x3
 10163 259b 03       		.uleb128 0x3
 10164 259c 41400000 		.4byte	0x4041
 10165 25a0 36000000 		.4byte	.LBI661
ARM GAS  C:\Users\DEVELO~1\AppData\Local\Temp\ccJK6Gr9.s 			page 180


 10166 25a4 0500     		.2byte	.LVU978
 10167 25a6 36000000 		.4byte	.LBB661
 10168 25aa 06000000 		.4byte	.LBE661-.LBB661
 10169 25ae 04       		.byte	0x4
 10170 25af A201     		.2byte	0x1a2
 10171 25b1 03       		.byte	0x3
 10172 25b2 03       		.uleb128 0x3
 10173 25b3 53400000 		.4byte	0x4053
 10174 25b7 36000000 		.4byte	.LBI662
 10175 25bb 0700     		.2byte	.LVU980
 10176 25bd 36000000 		.4byte	.LBB662
 10177 25c1 06000000 		.4byte	.LBE662-.LBB662
 10178 25c5 05       		.byte	0x5
 10179 25c6 7103     		.2byte	0x371
 10180 25c8 03       		.byte	0x3
 10181 25c9 03       		.uleb128 0x3
 10182 25ca 5C400000 		.4byte	0x405c
 10183 25ce 36000000 		.4byte	.LBI663
 10184 25d2 0900     		.2byte	.LVU982
 10185 25d4 36000000 		.4byte	.LBB663
 10186 25d8 06000000 		.4byte	.LBE663-.LBB663
 10187 25dc 05       		.byte	0x5
 10188 25dd 5003     		.2byte	0x350
 10189 25df 03       		.byte	0x3
 10190 25e0 02       		.uleb128 0x2
 10191 25e1 6A400000 		.4byte	0x406a
 10192 25e5 01070000 		.4byte	.LLST101
 10193 25e9 FF060000 		.4byte	.LVUS101
 10194 25ed 00       		.byte	0
 10195 25ee 00       		.byte	0
 10196 25ef 00       		.byte	0
 10197 25f0 00       		.byte	0
 10198 25f1 00       		.byte	0
 10199 25f2 07       		.uleb128 0x7
 10200 25f3 CF3F0000 		.4byte	0x3fcf
 10201 25f7 3C000000 		.4byte	.LBI665
 10202 25fb 0400     		.2byte	.LVU988
 10203 25fd 3C000000 		.4byte	.LBB665
 10204 2601 0A000000 		.4byte	.LBE665-.LBB665
 10205 2605 9701     		.2byte	0x197
 10206 2607 05       		.byte	0x5
 10207 2608 40260000 		.4byte	0x2640
 10208 260c 02       		.uleb128 0x2
 10209 260d EA3F0000 		.4byte	0x3fea
 10210 2611 0E070000 		.4byte	.LLST102
 10211 2615 0C070000 		.4byte	.LVUS102
 10212 2619 02       		.uleb128 0x2
 10213 261a DD3F0000 		.4byte	0x3fdd
 10214 261e 1B070000 		.4byte	.LLST103
 10215 2622 19070000 		.4byte	.LVUS103
 10216 2626 0D       		.uleb128 0xd
 10217 2627 46000000 		.4byte	.LVL163
 10218 262b 95150000 		.4byte	0x1595
 10219 262f 01       		.uleb128 0x1
 10220 2630 01       		.uleb128 0x1
 10221 2631 50       		.byte	0x50
 10222 2632 05       		.uleb128 0x5
ARM GAS  C:\Users\DEVELO~1\AppData\Local\Temp\ccJK6Gr9.s 			page 181


 10223 2633 03       		.byte	0x3
 10224 2634 08000000 		.4byte	.LANCHOR5+8
 10225 2638 01       		.uleb128 0x1
 10226 2639 01       		.uleb128 0x1
 10227 263a 51       		.byte	0x51
 10228 263b 02       		.uleb128 0x2
 10229 263c 09       		.byte	0x9
 10230 263d ED       		.byte	0xed
 10231 263e 00       		.byte	0
 10232 263f 00       		.byte	0
 10233 2640 07       		.uleb128 0x7
 10234 2641 F83F0000 		.4byte	0x3ff8
 10235 2645 46000000 		.4byte	.LBI667
 10236 2649 0200     		.2byte	.LVU992
 10237 264b 46000000 		.4byte	.LBB667
 10238 264f 06000000 		.4byte	.LBE667-.LBB667
 10239 2653 9701     		.2byte	0x197
 10240 2655 05       		.byte	0x5
 10241 2656 C8260000 		.4byte	0x26c8
 10242 265a 03       		.uleb128 0x3
 10243 265b 26400000 		.4byte	0x4026
 10244 265f 46000000 		.4byte	.LBI668
 10245 2663 0400     		.2byte	.LVU994
 10246 2665 46000000 		.4byte	.LBB668
 10247 2669 06000000 		.4byte	.LBE668-.LBB668
 10248 266d 03       		.byte	0x3
 10249 266e 6002     		.2byte	0x260
 10250 2670 03       		.byte	0x3
 10251 2671 03       		.uleb128 0x3
 10252 2672 38400000 		.4byte	0x4038
 10253 2676 46000000 		.4byte	.LBI669
 10254 267a 0800     		.2byte	.LVU998
 10255 267c 46000000 		.4byte	.LBB669
 10256 2680 06000000 		.4byte	.LBE669-.LBB669
 10257 2684 04       		.byte	0x4
 10258 2685 BA01     		.2byte	0x1ba
 10259 2687 03       		.byte	0x3
 10260 2688 03       		.uleb128 0x3
 10261 2689 4A400000 		.4byte	0x404a
 10262 268d 46000000 		.4byte	.LBI670
 10263 2691 0A00     		.2byte	.LVU1000
 10264 2693 46000000 		.4byte	.LBB670
 10265 2697 06000000 		.4byte	.LBE670-.LBB670
 10266 269b 05       		.byte	0x5
 10267 269c 7C03     		.2byte	0x37c
 10268 269e 03       		.byte	0x3
 10269 269f 03       		.uleb128 0x3
 10270 26a0 5C400000 		.4byte	0x405c
 10271 26a4 46000000 		.4byte	.LBI671
 10272 26a8 0C00     		.2byte	.LVU1002
 10273 26aa 46000000 		.4byte	.LBB671
 10274 26ae 06000000 		.4byte	.LBE671-.LBB671
 10275 26b2 05       		.byte	0x5
 10276 26b3 6303     		.2byte	0x363
 10277 26b5 03       		.byte	0x3
 10278 26b6 02       		.uleb128 0x2
 10279 26b7 6A400000 		.4byte	0x406a
ARM GAS  C:\Users\DEVELO~1\AppData\Local\Temp\ccJK6Gr9.s 			page 182


 10280 26bb 2B070000 		.4byte	.LLST104
 10281 26bf 29070000 		.4byte	.LVUS104
 10282 26c3 00       		.byte	0
 10283 26c4 00       		.byte	0
 10284 26c5 00       		.byte	0
 10285 26c6 00       		.byte	0
 10286 26c7 00       		.byte	0
 10287 26c8 06       		.uleb128 0x6
 10288 26c9 2C000000 		.4byte	.LVL160
 10289 26cd BF3B0000 		.4byte	0x3bbf
 10290 26d1 DC260000 		.4byte	0x26dc
 10291 26d5 01       		.uleb128 0x1
 10292 26d6 01       		.uleb128 0x1
 10293 26d7 50       		.byte	0x50
 10294 26d8 02       		.uleb128 0x2
 10295 26d9 74       		.byte	0x74
 10296 26da 00       		.sleb128 0
 10297 26db 00       		.byte	0
 10298 26dc 1C       		.uleb128 0x1c
 10299 26dd 36000000 		.4byte	.LVL161
 10300 26e1 01       		.uleb128 0x1
 10301 26e2 01       		.uleb128 0x1
 10302 26e3 50       		.byte	0x50
 10303 26e4 02       		.uleb128 0x2
 10304 26e5 74       		.byte	0x74
 10305 26e6 00       		.sleb128 0
 10306 26e7 00       		.byte	0
 10307 26e8 00       		.byte	0
 10308 26e9 00       		.byte	0
 10309 26ea 00       		.byte	0
 10310 26eb 06       		.uleb128 0x6
 10311 26ec 0A000000 		.4byte	.LVL154
 10312 26f0 C6150000 		.4byte	0x15c6
 10313 26f4 02270000 		.4byte	0x2702
 10314 26f8 01       		.uleb128 0x1
 10315 26f9 01       		.uleb128 0x1
 10316 26fa 50       		.byte	0x50
 10317 26fb 05       		.uleb128 0x5
 10318 26fc 03       		.byte	0x3
 10319 26fd 00000000 		.4byte	.LANCHOR11
 10320 2701 00       		.byte	0
 10321 2702 06       		.uleb128 0x6
 10322 2703 1E000000 		.4byte	.LVL158
 10323 2707 B5150000 		.4byte	0x15b5
 10324 270b 19270000 		.4byte	0x2719
 10325 270f 01       		.uleb128 0x1
 10326 2710 01       		.uleb128 0x1
 10327 2711 50       		.byte	0x50
 10328 2712 05       		.uleb128 0x5
 10329 2713 03       		.byte	0x3
 10330 2714 00000000 		.4byte	.LANCHOR11
 10331 2718 00       		.byte	0
 10332 2719 16       		.uleb128 0x16
 10333 271a 26000000 		.4byte	.LVL159
 10334 271e AC150000 		.4byte	0x15ac
 10335 2722 06       		.uleb128 0x6
 10336 2723 52000000 		.4byte	.LVL165
ARM GAS  C:\Users\DEVELO~1\AppData\Local\Temp\ccJK6Gr9.s 			page 183


 10337 2727 B5150000 		.4byte	0x15b5
 10338 272b 39270000 		.4byte	0x2739
 10339 272f 01       		.uleb128 0x1
 10340 2730 01       		.uleb128 0x1
 10341 2731 50       		.byte	0x50
 10342 2732 05       		.uleb128 0x5
 10343 2733 03       		.byte	0x3
 10344 2734 00000000 		.4byte	.LANCHOR11
 10345 2738 00       		.byte	0
 10346 2739 16       		.uleb128 0x16
 10347 273a 5A000000 		.4byte	.LVL166
 10348 273e AC150000 		.4byte	0x15ac
 10349 2742 00       		.byte	0
 10350 2743 14       		.uleb128 0x14
 10351 2744 9E030000 		.4byte	0x39e
 10352 2748 53270000 		.4byte	0x2753
 10353 274c 15       		.uleb128 0x15
 10354 274d 39000000 		.4byte	0x39
 10355 2751 09       		.byte	0x9
 10356 2752 00       		.byte	0
 10357 2753 11       		.uleb128 0x11
 10358 2754 43270000 		.4byte	0x2743
 10359 2758 21       		.uleb128 0x21
 10360 2759 F0040000 		.4byte	.LASF302
 10361 275d 3D02     		.2byte	0x23d
 10362 275f 01       		.byte	0x1
 10363 2760 00000000 		.4byte	.LFB464
 10364 2764 68000000 		.4byte	.LFE464-.LFB464
 10365 2768 01       		.uleb128 0x1
 10366 2769 9C       		.byte	0x9c
 10367 276a B4290000 		.4byte	0x29b4
 10368 276e 2F       		.uleb128 0x2f
 10369 276f 570E0000 		.4byte	.LASF295
 10370 2773 53270000 		.4byte	0x2753
 10371 2777 05       		.uleb128 0x5
 10372 2778 03       		.byte	0x3
 10373 2779 00000000 		.4byte	__func__.1
 10374 277d 18       		.uleb128 0x18
 10375 277e C1330000 		.4byte	0x33c1
 10376 2782 0A000000 		.4byte	.LBI614
 10377 2786 0200     		.2byte	.LVU865
 10378 2788 CC000000 		.4byte	.LLRL89
 10379 278c 4102     		.2byte	0x241
 10380 278e 03       		.byte	0x3
 10381 278f 5C290000 		.4byte	0x295c
 10382 2793 02       		.uleb128 0x2
 10383 2794 CF330000 		.4byte	0x33cf
 10384 2798 39070000 		.4byte	.LLST90
 10385 279c 35070000 		.4byte	.LVUS90
 10386 27a0 30       		.uleb128 0x30
 10387 27a1 CC000000 		.4byte	.LLRL89
 10388 27a5 31       		.uleb128 0x31
 10389 27a6 DC330000 		.4byte	0x33dc
 10390 27aa 59070000 		.4byte	.LLST91
 10391 27ae 53070000 		.4byte	.LVUS91
 10392 27b2 03       		.uleb128 0x3
 10393 27b3 C1330000 		.4byte	0x33c1
ARM GAS  C:\Users\DEVELO~1\AppData\Local\Temp\ccJK6Gr9.s 			page 184


 10394 27b7 26000000 		.4byte	.LBI616
 10395 27bb 0000     		.2byte	.LVU887
 10396 27bd 26000000 		.4byte	.LBB616
 10397 27c1 26000000 		.4byte	.LBE616-.LBB616
 10398 27c5 01       		.byte	0x1
 10399 27c6 8B01     		.2byte	0x18b
 10400 27c8 0D       		.byte	0xd
 10401 27c9 02       		.uleb128 0x2
 10402 27ca CF330000 		.4byte	0x33cf
 10403 27ce 72070000 		.4byte	.LLST92
 10404 27d2 70070000 		.4byte	.LVUS92
 10405 27d6 32       		.uleb128 0x32
 10406 27d7 DC330000 		.4byte	0x33dc
 10407 27db 07       		.uleb128 0x7
 10408 27dc 01400000 		.4byte	0x4001
 10409 27e0 36000000 		.4byte	.LBI618
 10410 27e4 0100     		.2byte	.LVU892
 10411 27e6 36000000 		.4byte	.LBB618
 10412 27ea 06000000 		.4byte	.LBE618-.LBB618
 10413 27ee 9701     		.2byte	0x197
 10414 27f0 05       		.byte	0x5
 10415 27f1 63280000 		.4byte	0x2863
 10416 27f5 03       		.uleb128 0x3
 10417 27f6 2F400000 		.4byte	0x402f
 10418 27fa 36000000 		.4byte	.LBI619
 10419 27fe 0300     		.2byte	.LVU894
 10420 2800 36000000 		.4byte	.LBB619
 10421 2804 06000000 		.4byte	.LBE619-.LBB619
 10422 2808 03       		.byte	0x3
 10423 2809 5502     		.2byte	0x255
 10424 280b 03       		.byte	0x3
 10425 280c 03       		.uleb128 0x3
 10426 280d 41400000 		.4byte	0x4041
 10427 2811 36000000 		.4byte	.LBI620
 10428 2815 0500     		.2byte	.LVU896
 10429 2817 36000000 		.4byte	.LBB620
 10430 281b 06000000 		.4byte	.LBE620-.LBB620
 10431 281f 04       		.byte	0x4
 10432 2820 A201     		.2byte	0x1a2
 10433 2822 03       		.byte	0x3
 10434 2823 03       		.uleb128 0x3
 10435 2824 53400000 		.4byte	0x4053
 10436 2828 36000000 		.4byte	.LBI621
 10437 282c 0700     		.2byte	.LVU898
 10438 282e 36000000 		.4byte	.LBB621
 10439 2832 06000000 		.4byte	.LBE621-.LBB621
 10440 2836 05       		.byte	0x5
 10441 2837 7103     		.2byte	0x371
 10442 2839 03       		.byte	0x3
 10443 283a 03       		.uleb128 0x3
 10444 283b 5C400000 		.4byte	0x405c
 10445 283f 36000000 		.4byte	.LBI622
 10446 2843 0900     		.2byte	.LVU900
 10447 2845 36000000 		.4byte	.LBB622
 10448 2849 06000000 		.4byte	.LBE622-.LBB622
 10449 284d 05       		.byte	0x5
 10450 284e 5003     		.2byte	0x350
ARM GAS  C:\Users\DEVELO~1\AppData\Local\Temp\ccJK6Gr9.s 			page 185


 10451 2850 03       		.byte	0x3
 10452 2851 02       		.uleb128 0x2
 10453 2852 6A400000 		.4byte	0x406a
 10454 2856 82070000 		.4byte	.LLST93
 10455 285a 80070000 		.4byte	.LVUS93
 10456 285e 00       		.byte	0
 10457 285f 00       		.byte	0
 10458 2860 00       		.byte	0
 10459 2861 00       		.byte	0
 10460 2862 00       		.byte	0
 10461 2863 07       		.uleb128 0x7
 10462 2864 CF3F0000 		.4byte	0x3fcf
 10463 2868 3C000000 		.4byte	.LBI624
 10464 286c 0400     		.2byte	.LVU906
 10465 286e 3C000000 		.4byte	.LBB624
 10466 2872 0A000000 		.4byte	.LBE624-.LBB624
 10467 2876 9701     		.2byte	0x197
 10468 2878 05       		.byte	0x5
 10469 2879 B1280000 		.4byte	0x28b1
 10470 287d 02       		.uleb128 0x2
 10471 287e EA3F0000 		.4byte	0x3fea
 10472 2882 8F070000 		.4byte	.LLST94
 10473 2886 8D070000 		.4byte	.LVUS94
 10474 288a 02       		.uleb128 0x2
 10475 288b DD3F0000 		.4byte	0x3fdd
 10476 288f 9C070000 		.4byte	.LLST95
 10477 2893 9A070000 		.4byte	.LVUS95
 10478 2897 0D       		.uleb128 0xd
 10479 2898 46000000 		.4byte	.LVL150
 10480 289c 95150000 		.4byte	0x1595
 10481 28a0 01       		.uleb128 0x1
 10482 28a1 01       		.uleb128 0x1
 10483 28a2 50       		.byte	0x50
 10484 28a3 05       		.uleb128 0x5
 10485 28a4 03       		.byte	0x3
 10486 28a5 08000000 		.4byte	.LANCHOR4+8
 10487 28a9 01       		.uleb128 0x1
 10488 28aa 01       		.uleb128 0x1
 10489 28ab 51       		.byte	0x51
 10490 28ac 02       		.uleb128 0x2
 10491 28ad 09       		.byte	0x9
 10492 28ae ED       		.byte	0xed
 10493 28af 00       		.byte	0
 10494 28b0 00       		.byte	0
 10495 28b1 07       		.uleb128 0x7
 10496 28b2 F83F0000 		.4byte	0x3ff8
 10497 28b6 46000000 		.4byte	.LBI626
 10498 28ba 0200     		.2byte	.LVU910
 10499 28bc 46000000 		.4byte	.LBB626
 10500 28c0 06000000 		.4byte	.LBE626-.LBB626
 10501 28c4 9701     		.2byte	0x197
 10502 28c6 05       		.byte	0x5
 10503 28c7 39290000 		.4byte	0x2939
 10504 28cb 03       		.uleb128 0x3
 10505 28cc 26400000 		.4byte	0x4026
 10506 28d0 46000000 		.4byte	.LBI627
 10507 28d4 0400     		.2byte	.LVU912
ARM GAS  C:\Users\DEVELO~1\AppData\Local\Temp\ccJK6Gr9.s 			page 186


 10508 28d6 46000000 		.4byte	.LBB627
 10509 28da 06000000 		.4byte	.LBE627-.LBB627
 10510 28de 03       		.byte	0x3
 10511 28df 6002     		.2byte	0x260
 10512 28e1 03       		.byte	0x3
 10513 28e2 03       		.uleb128 0x3
 10514 28e3 38400000 		.4byte	0x4038
 10515 28e7 46000000 		.4byte	.LBI628
 10516 28eb 0800     		.2byte	.LVU916
 10517 28ed 46000000 		.4byte	.LBB628
 10518 28f1 06000000 		.4byte	.LBE628-.LBB628
 10519 28f5 04       		.byte	0x4
 10520 28f6 BA01     		.2byte	0x1ba
 10521 28f8 03       		.byte	0x3
 10522 28f9 03       		.uleb128 0x3
 10523 28fa 4A400000 		.4byte	0x404a
 10524 28fe 46000000 		.4byte	.LBI629
 10525 2902 0A00     		.2byte	.LVU918
 10526 2904 46000000 		.4byte	.LBB629
 10527 2908 06000000 		.4byte	.LBE629-.LBB629
 10528 290c 05       		.byte	0x5
 10529 290d 7C03     		.2byte	0x37c
 10530 290f 03       		.byte	0x3
 10531 2910 03       		.uleb128 0x3
 10532 2911 5C400000 		.4byte	0x405c
 10533 2915 46000000 		.4byte	.LBI630
 10534 2919 0C00     		.2byte	.LVU920
 10535 291b 46000000 		.4byte	.LBB630
 10536 291f 06000000 		.4byte	.LBE630-.LBB630
 10537 2923 05       		.byte	0x5
 10538 2924 6303     		.2byte	0x363
 10539 2926 03       		.byte	0x3
 10540 2927 02       		.uleb128 0x2
 10541 2928 6A400000 		.4byte	0x406a
 10542 292c AC070000 		.4byte	.LLST96
 10543 2930 AA070000 		.4byte	.LVUS96
 10544 2934 00       		.byte	0
 10545 2935 00       		.byte	0
 10546 2936 00       		.byte	0
 10547 2937 00       		.byte	0
 10548 2938 00       		.byte	0
 10549 2939 06       		.uleb128 0x6
 10550 293a 2C000000 		.4byte	.LVL147
 10551 293e BF3B0000 		.4byte	0x3bbf
 10552 2942 4D290000 		.4byte	0x294d
 10553 2946 01       		.uleb128 0x1
 10554 2947 01       		.uleb128 0x1
 10555 2948 50       		.byte	0x50
 10556 2949 02       		.uleb128 0x2
 10557 294a 74       		.byte	0x74
 10558 294b 00       		.sleb128 0
 10559 294c 00       		.byte	0
 10560 294d 1C       		.uleb128 0x1c
 10561 294e 36000000 		.4byte	.LVL148
 10562 2952 01       		.uleb128 0x1
 10563 2953 01       		.uleb128 0x1
 10564 2954 50       		.byte	0x50
ARM GAS  C:\Users\DEVELO~1\AppData\Local\Temp\ccJK6Gr9.s 			page 187


 10565 2955 02       		.uleb128 0x2
 10566 2956 74       		.byte	0x74
 10567 2957 00       		.sleb128 0
 10568 2958 00       		.byte	0
 10569 2959 00       		.byte	0
 10570 295a 00       		.byte	0
 10571 295b 00       		.byte	0
 10572 295c 06       		.uleb128 0x6
 10573 295d 0A000000 		.4byte	.LVL141
 10574 2961 C6150000 		.4byte	0x15c6
 10575 2965 73290000 		.4byte	0x2973
 10576 2969 01       		.uleb128 0x1
 10577 296a 01       		.uleb128 0x1
 10578 296b 50       		.byte	0x50
 10579 296c 05       		.uleb128 0x5
 10580 296d 03       		.byte	0x3
 10581 296e 00000000 		.4byte	.LANCHOR10
 10582 2972 00       		.byte	0
 10583 2973 06       		.uleb128 0x6
 10584 2974 1E000000 		.4byte	.LVL145
 10585 2978 B5150000 		.4byte	0x15b5
 10586 297c 8A290000 		.4byte	0x298a
 10587 2980 01       		.uleb128 0x1
 10588 2981 01       		.uleb128 0x1
 10589 2982 50       		.byte	0x50
 10590 2983 05       		.uleb128 0x5
 10591 2984 03       		.byte	0x3
 10592 2985 00000000 		.4byte	.LANCHOR10
 10593 2989 00       		.byte	0
 10594 298a 16       		.uleb128 0x16
 10595 298b 26000000 		.4byte	.LVL146
 10596 298f AC150000 		.4byte	0x15ac
 10597 2993 06       		.uleb128 0x6
 10598 2994 52000000 		.4byte	.LVL152
 10599 2998 B5150000 		.4byte	0x15b5
 10600 299c AA290000 		.4byte	0x29aa
 10601 29a0 01       		.uleb128 0x1
 10602 29a1 01       		.uleb128 0x1
 10603 29a2 50       		.byte	0x50
 10604 29a3 05       		.uleb128 0x5
 10605 29a4 03       		.byte	0x3
 10606 29a5 00000000 		.4byte	.LANCHOR10
 10607 29a9 00       		.byte	0
 10608 29aa 16       		.uleb128 0x16
 10609 29ab 5A000000 		.4byte	.LVL153
 10610 29af AC150000 		.4byte	0x15ac
 10611 29b3 00       		.byte	0
 10612 29b4 21       		.uleb128 0x21
 10613 29b5 F4010000 		.4byte	.LASF303
 10614 29b9 2802     		.2byte	0x228
 10615 29bb 01       		.byte	0x1
 10616 29bc 00000000 		.4byte	.LFB463
 10617 29c0 68000000 		.4byte	.LFE463-.LFB463
 10618 29c4 01       		.uleb128 0x1
 10619 29c5 9C       		.byte	0x9c
 10620 29c6 102C0000 		.4byte	0x2c10
 10621 29ca 2F       		.uleb128 0x2f
ARM GAS  C:\Users\DEVELO~1\AppData\Local\Temp\ccJK6Gr9.s 			page 188


 10622 29cb 570E0000 		.4byte	.LASF295
 10623 29cf 53270000 		.4byte	0x2753
 10624 29d3 05       		.uleb128 0x5
 10625 29d4 03       		.byte	0x3
 10626 29d5 00000000 		.4byte	__func__.2
 10627 29d9 18       		.uleb128 0x18
 10628 29da C1330000 		.4byte	0x33c1
 10629 29de 0A000000 		.4byte	.LBI573
 10630 29e2 0200     		.2byte	.LVU783
 10631 29e4 BD000000 		.4byte	.LLRL81
 10632 29e8 2C02     		.2byte	0x22c
 10633 29ea 03       		.byte	0x3
 10634 29eb B82B0000 		.4byte	0x2bb8
 10635 29ef 02       		.uleb128 0x2
 10636 29f0 CF330000 		.4byte	0x33cf
 10637 29f4 BA070000 		.4byte	.LLST82
 10638 29f8 B6070000 		.4byte	.LVUS82
 10639 29fc 30       		.uleb128 0x30
 10640 29fd BD000000 		.4byte	.LLRL81
 10641 2a01 31       		.uleb128 0x31
 10642 2a02 DC330000 		.4byte	0x33dc
 10643 2a06 DA070000 		.4byte	.LLST83
 10644 2a0a D4070000 		.4byte	.LVUS83
 10645 2a0e 03       		.uleb128 0x3
 10646 2a0f C1330000 		.4byte	0x33c1
 10647 2a13 26000000 		.4byte	.LBI575
 10648 2a17 0000     		.2byte	.LVU805
 10649 2a19 26000000 		.4byte	.LBB575
 10650 2a1d 26000000 		.4byte	.LBE575-.LBB575
 10651 2a21 01       		.byte	0x1
 10652 2a22 8B01     		.2byte	0x18b
 10653 2a24 0D       		.byte	0xd
 10654 2a25 02       		.uleb128 0x2
 10655 2a26 CF330000 		.4byte	0x33cf
 10656 2a2a F3070000 		.4byte	.LLST84
 10657 2a2e F1070000 		.4byte	.LVUS84
 10658 2a32 32       		.uleb128 0x32
 10659 2a33 DC330000 		.4byte	0x33dc
 10660 2a37 07       		.uleb128 0x7
 10661 2a38 01400000 		.4byte	0x4001
 10662 2a3c 36000000 		.4byte	.LBI577
 10663 2a40 0100     		.2byte	.LVU810
 10664 2a42 36000000 		.4byte	.LBB577
 10665 2a46 06000000 		.4byte	.LBE577-.LBB577
 10666 2a4a 9701     		.2byte	0x197
 10667 2a4c 05       		.byte	0x5
 10668 2a4d BF2A0000 		.4byte	0x2abf
 10669 2a51 03       		.uleb128 0x3
 10670 2a52 2F400000 		.4byte	0x402f
 10671 2a56 36000000 		.4byte	.LBI578
 10672 2a5a 0300     		.2byte	.LVU812
 10673 2a5c 36000000 		.4byte	.LBB578
 10674 2a60 06000000 		.4byte	.LBE578-.LBB578
 10675 2a64 03       		.byte	0x3
 10676 2a65 5502     		.2byte	0x255
 10677 2a67 03       		.byte	0x3
 10678 2a68 03       		.uleb128 0x3
ARM GAS  C:\Users\DEVELO~1\AppData\Local\Temp\ccJK6Gr9.s 			page 189


 10679 2a69 41400000 		.4byte	0x4041
 10680 2a6d 36000000 		.4byte	.LBI579
 10681 2a71 0500     		.2byte	.LVU814
 10682 2a73 36000000 		.4byte	.LBB579
 10683 2a77 06000000 		.4byte	.LBE579-.LBB579
 10684 2a7b 04       		.byte	0x4
 10685 2a7c A201     		.2byte	0x1a2
 10686 2a7e 03       		.byte	0x3
 10687 2a7f 03       		.uleb128 0x3
 10688 2a80 53400000 		.4byte	0x4053
 10689 2a84 36000000 		.4byte	.LBI580
 10690 2a88 0700     		.2byte	.LVU816
 10691 2a8a 36000000 		.4byte	.LBB580
 10692 2a8e 06000000 		.4byte	.LBE580-.LBB580
 10693 2a92 05       		.byte	0x5
 10694 2a93 7103     		.2byte	0x371
 10695 2a95 03       		.byte	0x3
 10696 2a96 03       		.uleb128 0x3
 10697 2a97 5C400000 		.4byte	0x405c
 10698 2a9b 36000000 		.4byte	.LBI581
 10699 2a9f 0900     		.2byte	.LVU818
 10700 2aa1 36000000 		.4byte	.LBB581
 10701 2aa5 06000000 		.4byte	.LBE581-.LBB581
 10702 2aa9 05       		.byte	0x5
 10703 2aaa 5003     		.2byte	0x350
 10704 2aac 03       		.byte	0x3
 10705 2aad 02       		.uleb128 0x2
 10706 2aae 6A400000 		.4byte	0x406a
 10707 2ab2 03080000 		.4byte	.LLST85
 10708 2ab6 01080000 		.4byte	.LVUS85
 10709 2aba 00       		.byte	0
 10710 2abb 00       		.byte	0
 10711 2abc 00       		.byte	0
 10712 2abd 00       		.byte	0
 10713 2abe 00       		.byte	0
 10714 2abf 07       		.uleb128 0x7
 10715 2ac0 CF3F0000 		.4byte	0x3fcf
 10716 2ac4 3C000000 		.4byte	.LBI583
 10717 2ac8 0400     		.2byte	.LVU824
 10718 2aca 3C000000 		.4byte	.LBB583
 10719 2ace 0A000000 		.4byte	.LBE583-.LBB583
 10720 2ad2 9701     		.2byte	0x197
 10721 2ad4 05       		.byte	0x5
 10722 2ad5 0D2B0000 		.4byte	0x2b0d
 10723 2ad9 02       		.uleb128 0x2
 10724 2ada EA3F0000 		.4byte	0x3fea
 10725 2ade 10080000 		.4byte	.LLST86
 10726 2ae2 0E080000 		.4byte	.LVUS86
 10727 2ae6 02       		.uleb128 0x2
 10728 2ae7 DD3F0000 		.4byte	0x3fdd
 10729 2aeb 1D080000 		.4byte	.LLST87
 10730 2aef 1B080000 		.4byte	.LVUS87
 10731 2af3 0D       		.uleb128 0xd
 10732 2af4 46000000 		.4byte	.LVL137
 10733 2af8 95150000 		.4byte	0x1595
 10734 2afc 01       		.uleb128 0x1
 10735 2afd 01       		.uleb128 0x1
ARM GAS  C:\Users\DEVELO~1\AppData\Local\Temp\ccJK6Gr9.s 			page 190


 10736 2afe 50       		.byte	0x50
 10737 2aff 05       		.uleb128 0x5
 10738 2b00 03       		.byte	0x3
 10739 2b01 08000000 		.4byte	.LANCHOR3+8
 10740 2b05 01       		.uleb128 0x1
 10741 2b06 01       		.uleb128 0x1
 10742 2b07 51       		.byte	0x51
 10743 2b08 02       		.uleb128 0x2
 10744 2b09 09       		.byte	0x9
 10745 2b0a ED       		.byte	0xed
 10746 2b0b 00       		.byte	0
 10747 2b0c 00       		.byte	0
 10748 2b0d 07       		.uleb128 0x7
 10749 2b0e F83F0000 		.4byte	0x3ff8
 10750 2b12 46000000 		.4byte	.LBI585
 10751 2b16 0200     		.2byte	.LVU828
 10752 2b18 46000000 		.4byte	.LBB585
 10753 2b1c 06000000 		.4byte	.LBE585-.LBB585
 10754 2b20 9701     		.2byte	0x197
 10755 2b22 05       		.byte	0x5
 10756 2b23 952B0000 		.4byte	0x2b95
 10757 2b27 03       		.uleb128 0x3
 10758 2b28 26400000 		.4byte	0x4026
 10759 2b2c 46000000 		.4byte	.LBI586
 10760 2b30 0400     		.2byte	.LVU830
 10761 2b32 46000000 		.4byte	.LBB586
 10762 2b36 06000000 		.4byte	.LBE586-.LBB586
 10763 2b3a 03       		.byte	0x3
 10764 2b3b 6002     		.2byte	0x260
 10765 2b3d 03       		.byte	0x3
 10766 2b3e 03       		.uleb128 0x3
 10767 2b3f 38400000 		.4byte	0x4038
 10768 2b43 46000000 		.4byte	.LBI587
 10769 2b47 0800     		.2byte	.LVU834
 10770 2b49 46000000 		.4byte	.LBB587
 10771 2b4d 06000000 		.4byte	.LBE587-.LBB587
 10772 2b51 04       		.byte	0x4
 10773 2b52 BA01     		.2byte	0x1ba
 10774 2b54 03       		.byte	0x3
 10775 2b55 03       		.uleb128 0x3
 10776 2b56 4A400000 		.4byte	0x404a
 10777 2b5a 46000000 		.4byte	.LBI588
 10778 2b5e 0A00     		.2byte	.LVU836
 10779 2b60 46000000 		.4byte	.LBB588
 10780 2b64 06000000 		.4byte	.LBE588-.LBB588
 10781 2b68 05       		.byte	0x5
 10782 2b69 7C03     		.2byte	0x37c
 10783 2b6b 03       		.byte	0x3
 10784 2b6c 03       		.uleb128 0x3
 10785 2b6d 5C400000 		.4byte	0x405c
 10786 2b71 46000000 		.4byte	.LBI589
 10787 2b75 0C00     		.2byte	.LVU838
 10788 2b77 46000000 		.4byte	.LBB589
 10789 2b7b 06000000 		.4byte	.LBE589-.LBB589
 10790 2b7f 05       		.byte	0x5
 10791 2b80 6303     		.2byte	0x363
 10792 2b82 03       		.byte	0x3
ARM GAS  C:\Users\DEVELO~1\AppData\Local\Temp\ccJK6Gr9.s 			page 191


 10793 2b83 02       		.uleb128 0x2
 10794 2b84 6A400000 		.4byte	0x406a
 10795 2b88 2D080000 		.4byte	.LLST88
 10796 2b8c 2B080000 		.4byte	.LVUS88
 10797 2b90 00       		.byte	0
 10798 2b91 00       		.byte	0
 10799 2b92 00       		.byte	0
 10800 2b93 00       		.byte	0
 10801 2b94 00       		.byte	0
 10802 2b95 06       		.uleb128 0x6
 10803 2b96 2C000000 		.4byte	.LVL134
 10804 2b9a BF3B0000 		.4byte	0x3bbf
 10805 2b9e A92B0000 		.4byte	0x2ba9
 10806 2ba2 01       		.uleb128 0x1
 10807 2ba3 01       		.uleb128 0x1
 10808 2ba4 50       		.byte	0x50
 10809 2ba5 02       		.uleb128 0x2
 10810 2ba6 74       		.byte	0x74
 10811 2ba7 00       		.sleb128 0
 10812 2ba8 00       		.byte	0
 10813 2ba9 1C       		.uleb128 0x1c
 10814 2baa 36000000 		.4byte	.LVL135
 10815 2bae 01       		.uleb128 0x1
 10816 2baf 01       		.uleb128 0x1
 10817 2bb0 50       		.byte	0x50
 10818 2bb1 02       		.uleb128 0x2
 10819 2bb2 74       		.byte	0x74
 10820 2bb3 00       		.sleb128 0
 10821 2bb4 00       		.byte	0
 10822 2bb5 00       		.byte	0
 10823 2bb6 00       		.byte	0
 10824 2bb7 00       		.byte	0
 10825 2bb8 06       		.uleb128 0x6
 10826 2bb9 0A000000 		.4byte	.LVL128
 10827 2bbd C6150000 		.4byte	0x15c6
 10828 2bc1 CF2B0000 		.4byte	0x2bcf
 10829 2bc5 01       		.uleb128 0x1
 10830 2bc6 01       		.uleb128 0x1
 10831 2bc7 50       		.byte	0x50
 10832 2bc8 05       		.uleb128 0x5
 10833 2bc9 03       		.byte	0x3
 10834 2bca 00000000 		.4byte	.LANCHOR9
 10835 2bce 00       		.byte	0
 10836 2bcf 06       		.uleb128 0x6
 10837 2bd0 1E000000 		.4byte	.LVL132
 10838 2bd4 B5150000 		.4byte	0x15b5
 10839 2bd8 E62B0000 		.4byte	0x2be6
 10840 2bdc 01       		.uleb128 0x1
 10841 2bdd 01       		.uleb128 0x1
 10842 2bde 50       		.byte	0x50
 10843 2bdf 05       		.uleb128 0x5
 10844 2be0 03       		.byte	0x3
 10845 2be1 00000000 		.4byte	.LANCHOR9
 10846 2be5 00       		.byte	0
 10847 2be6 16       		.uleb128 0x16
 10848 2be7 26000000 		.4byte	.LVL133
 10849 2beb AC150000 		.4byte	0x15ac
ARM GAS  C:\Users\DEVELO~1\AppData\Local\Temp\ccJK6Gr9.s 			page 192


 10850 2bef 06       		.uleb128 0x6
 10851 2bf0 52000000 		.4byte	.LVL139
 10852 2bf4 B5150000 		.4byte	0x15b5
 10853 2bf8 062C0000 		.4byte	0x2c06
 10854 2bfc 01       		.uleb128 0x1
 10855 2bfd 01       		.uleb128 0x1
 10856 2bfe 50       		.byte	0x50
 10857 2bff 05       		.uleb128 0x5
 10858 2c00 03       		.byte	0x3
 10859 2c01 00000000 		.4byte	.LANCHOR9
 10860 2c05 00       		.byte	0
 10861 2c06 16       		.uleb128 0x16
 10862 2c07 5A000000 		.4byte	.LVL140
 10863 2c0b AC150000 		.4byte	0x15ac
 10864 2c0f 00       		.byte	0
 10865 2c10 21       		.uleb128 0x21
 10866 2c11 B4070000 		.4byte	.LASF304
 10867 2c15 1302     		.2byte	0x213
 10868 2c17 01       		.byte	0x1
 10869 2c18 00000000 		.4byte	.LFB462
 10870 2c1c 68000000 		.4byte	.LFE462-.LFB462
 10871 2c20 01       		.uleb128 0x1
 10872 2c21 9C       		.byte	0x9c
 10873 2c22 6C2E0000 		.4byte	0x2e6c
 10874 2c26 2F       		.uleb128 0x2f
 10875 2c27 570E0000 		.4byte	.LASF295
 10876 2c2b 53270000 		.4byte	0x2753
 10877 2c2f 05       		.uleb128 0x5
 10878 2c30 03       		.byte	0x3
 10879 2c31 00000000 		.4byte	__func__.3
 10880 2c35 18       		.uleb128 0x18
 10881 2c36 C1330000 		.4byte	0x33c1
 10882 2c3a 0A000000 		.4byte	.LBI532
 10883 2c3e 0200     		.2byte	.LVU701
 10884 2c40 AE000000 		.4byte	.LLRL73
 10885 2c44 1702     		.2byte	0x217
 10886 2c46 03       		.byte	0x3
 10887 2c47 142E0000 		.4byte	0x2e14
 10888 2c4b 02       		.uleb128 0x2
 10889 2c4c CF330000 		.4byte	0x33cf
 10890 2c50 3B080000 		.4byte	.LLST74
 10891 2c54 37080000 		.4byte	.LVUS74
 10892 2c58 30       		.uleb128 0x30
 10893 2c59 AE000000 		.4byte	.LLRL73
 10894 2c5d 31       		.uleb128 0x31
 10895 2c5e DC330000 		.4byte	0x33dc
 10896 2c62 5B080000 		.4byte	.LLST75
 10897 2c66 55080000 		.4byte	.LVUS75
 10898 2c6a 03       		.uleb128 0x3
 10899 2c6b C1330000 		.4byte	0x33c1
 10900 2c6f 26000000 		.4byte	.LBI534
 10901 2c73 0000     		.2byte	.LVU723
 10902 2c75 26000000 		.4byte	.LBB534
 10903 2c79 26000000 		.4byte	.LBE534-.LBB534
 10904 2c7d 01       		.byte	0x1
 10905 2c7e 8B01     		.2byte	0x18b
 10906 2c80 0D       		.byte	0xd
ARM GAS  C:\Users\DEVELO~1\AppData\Local\Temp\ccJK6Gr9.s 			page 193


 10907 2c81 02       		.uleb128 0x2
 10908 2c82 CF330000 		.4byte	0x33cf
 10909 2c86 74080000 		.4byte	.LLST76
 10910 2c8a 72080000 		.4byte	.LVUS76
 10911 2c8e 32       		.uleb128 0x32
 10912 2c8f DC330000 		.4byte	0x33dc
 10913 2c93 07       		.uleb128 0x7
 10914 2c94 01400000 		.4byte	0x4001
 10915 2c98 36000000 		.4byte	.LBI536
 10916 2c9c 0100     		.2byte	.LVU728
 10917 2c9e 36000000 		.4byte	.LBB536
 10918 2ca2 06000000 		.4byte	.LBE536-.LBB536
 10919 2ca6 9701     		.2byte	0x197
 10920 2ca8 05       		.byte	0x5
 10921 2ca9 1B2D0000 		.4byte	0x2d1b
 10922 2cad 03       		.uleb128 0x3
 10923 2cae 2F400000 		.4byte	0x402f
 10924 2cb2 36000000 		.4byte	.LBI537
 10925 2cb6 0300     		.2byte	.LVU730
 10926 2cb8 36000000 		.4byte	.LBB537
 10927 2cbc 06000000 		.4byte	.LBE537-.LBB537
 10928 2cc0 03       		.byte	0x3
 10929 2cc1 5502     		.2byte	0x255
 10930 2cc3 03       		.byte	0x3
 10931 2cc4 03       		.uleb128 0x3
 10932 2cc5 41400000 		.4byte	0x4041
 10933 2cc9 36000000 		.4byte	.LBI538
 10934 2ccd 0500     		.2byte	.LVU732
 10935 2ccf 36000000 		.4byte	.LBB538
 10936 2cd3 06000000 		.4byte	.LBE538-.LBB538
 10937 2cd7 04       		.byte	0x4
 10938 2cd8 A201     		.2byte	0x1a2
 10939 2cda 03       		.byte	0x3
 10940 2cdb 03       		.uleb128 0x3
 10941 2cdc 53400000 		.4byte	0x4053
 10942 2ce0 36000000 		.4byte	.LBI539
 10943 2ce4 0700     		.2byte	.LVU734
 10944 2ce6 36000000 		.4byte	.LBB539
 10945 2cea 06000000 		.4byte	.LBE539-.LBB539
 10946 2cee 05       		.byte	0x5
 10947 2cef 7103     		.2byte	0x371
 10948 2cf1 03       		.byte	0x3
 10949 2cf2 03       		.uleb128 0x3
 10950 2cf3 5C400000 		.4byte	0x405c
 10951 2cf7 36000000 		.4byte	.LBI540
 10952 2cfb 0900     		.2byte	.LVU736
 10953 2cfd 36000000 		.4byte	.LBB540
 10954 2d01 06000000 		.4byte	.LBE540-.LBB540
 10955 2d05 05       		.byte	0x5
 10956 2d06 5003     		.2byte	0x350
 10957 2d08 03       		.byte	0x3
 10958 2d09 02       		.uleb128 0x2
 10959 2d0a 6A400000 		.4byte	0x406a
 10960 2d0e 84080000 		.4byte	.LLST77
 10961 2d12 82080000 		.4byte	.LVUS77
 10962 2d16 00       		.byte	0
 10963 2d17 00       		.byte	0
ARM GAS  C:\Users\DEVELO~1\AppData\Local\Temp\ccJK6Gr9.s 			page 194


 10964 2d18 00       		.byte	0
 10965 2d19 00       		.byte	0
 10966 2d1a 00       		.byte	0
 10967 2d1b 07       		.uleb128 0x7
 10968 2d1c CF3F0000 		.4byte	0x3fcf
 10969 2d20 3C000000 		.4byte	.LBI542
 10970 2d24 0400     		.2byte	.LVU742
 10971 2d26 3C000000 		.4byte	.LBB542
 10972 2d2a 0A000000 		.4byte	.LBE542-.LBB542
 10973 2d2e 9701     		.2byte	0x197
 10974 2d30 05       		.byte	0x5
 10975 2d31 692D0000 		.4byte	0x2d69
 10976 2d35 02       		.uleb128 0x2
 10977 2d36 EA3F0000 		.4byte	0x3fea
 10978 2d3a 91080000 		.4byte	.LLST78
 10979 2d3e 8F080000 		.4byte	.LVUS78
 10980 2d42 02       		.uleb128 0x2
 10981 2d43 DD3F0000 		.4byte	0x3fdd
 10982 2d47 9E080000 		.4byte	.LLST79
 10983 2d4b 9C080000 		.4byte	.LVUS79
 10984 2d4f 0D       		.uleb128 0xd
 10985 2d50 46000000 		.4byte	.LVL124
 10986 2d54 95150000 		.4byte	0x1595
 10987 2d58 01       		.uleb128 0x1
 10988 2d59 01       		.uleb128 0x1
 10989 2d5a 50       		.byte	0x50
 10990 2d5b 05       		.uleb128 0x5
 10991 2d5c 03       		.byte	0x3
 10992 2d5d 08000000 		.4byte	.LANCHOR2+8
 10993 2d61 01       		.uleb128 0x1
 10994 2d62 01       		.uleb128 0x1
 10995 2d63 51       		.byte	0x51
 10996 2d64 02       		.uleb128 0x2
 10997 2d65 09       		.byte	0x9
 10998 2d66 ED       		.byte	0xed
 10999 2d67 00       		.byte	0
 11000 2d68 00       		.byte	0
 11001 2d69 07       		.uleb128 0x7
 11002 2d6a F83F0000 		.4byte	0x3ff8
 11003 2d6e 46000000 		.4byte	.LBI544
 11004 2d72 0200     		.2byte	.LVU746
 11005 2d74 46000000 		.4byte	.LBB544
 11006 2d78 06000000 		.4byte	.LBE544-.LBB544
 11007 2d7c 9701     		.2byte	0x197
 11008 2d7e 05       		.byte	0x5
 11009 2d7f F12D0000 		.4byte	0x2df1
 11010 2d83 03       		.uleb128 0x3
 11011 2d84 26400000 		.4byte	0x4026
 11012 2d88 46000000 		.4byte	.LBI545
 11013 2d8c 0400     		.2byte	.LVU748
 11014 2d8e 46000000 		.4byte	.LBB545
 11015 2d92 06000000 		.4byte	.LBE545-.LBB545
 11016 2d96 03       		.byte	0x3
 11017 2d97 6002     		.2byte	0x260
 11018 2d99 03       		.byte	0x3
 11019 2d9a 03       		.uleb128 0x3
 11020 2d9b 38400000 		.4byte	0x4038
ARM GAS  C:\Users\DEVELO~1\AppData\Local\Temp\ccJK6Gr9.s 			page 195


 11021 2d9f 46000000 		.4byte	.LBI546
 11022 2da3 0800     		.2byte	.LVU752
 11023 2da5 46000000 		.4byte	.LBB546
 11024 2da9 06000000 		.4byte	.LBE546-.LBB546
 11025 2dad 04       		.byte	0x4
 11026 2dae BA01     		.2byte	0x1ba
 11027 2db0 03       		.byte	0x3
 11028 2db1 03       		.uleb128 0x3
 11029 2db2 4A400000 		.4byte	0x404a
 11030 2db6 46000000 		.4byte	.LBI547
 11031 2dba 0A00     		.2byte	.LVU754
 11032 2dbc 46000000 		.4byte	.LBB547
 11033 2dc0 06000000 		.4byte	.LBE547-.LBB547
 11034 2dc4 05       		.byte	0x5
 11035 2dc5 7C03     		.2byte	0x37c
 11036 2dc7 03       		.byte	0x3
 11037 2dc8 03       		.uleb128 0x3
 11038 2dc9 5C400000 		.4byte	0x405c
 11039 2dcd 46000000 		.4byte	.LBI548
 11040 2dd1 0C00     		.2byte	.LVU756
 11041 2dd3 46000000 		.4byte	.LBB548
 11042 2dd7 06000000 		.4byte	.LBE548-.LBB548
 11043 2ddb 05       		.byte	0x5
 11044 2ddc 6303     		.2byte	0x363
 11045 2dde 03       		.byte	0x3
 11046 2ddf 02       		.uleb128 0x2
 11047 2de0 6A400000 		.4byte	0x406a
 11048 2de4 AE080000 		.4byte	.LLST80
 11049 2de8 AC080000 		.4byte	.LVUS80
 11050 2dec 00       		.byte	0
 11051 2ded 00       		.byte	0
 11052 2dee 00       		.byte	0
 11053 2def 00       		.byte	0
 11054 2df0 00       		.byte	0
 11055 2df1 06       		.uleb128 0x6
 11056 2df2 2C000000 		.4byte	.LVL121
 11057 2df6 BF3B0000 		.4byte	0x3bbf
 11058 2dfa 052E0000 		.4byte	0x2e05
 11059 2dfe 01       		.uleb128 0x1
 11060 2dff 01       		.uleb128 0x1
 11061 2e00 50       		.byte	0x50
 11062 2e01 02       		.uleb128 0x2
 11063 2e02 74       		.byte	0x74
 11064 2e03 00       		.sleb128 0
 11065 2e04 00       		.byte	0
 11066 2e05 1C       		.uleb128 0x1c
 11067 2e06 36000000 		.4byte	.LVL122
 11068 2e0a 01       		.uleb128 0x1
 11069 2e0b 01       		.uleb128 0x1
 11070 2e0c 50       		.byte	0x50
 11071 2e0d 02       		.uleb128 0x2
 11072 2e0e 74       		.byte	0x74
 11073 2e0f 00       		.sleb128 0
 11074 2e10 00       		.byte	0
 11075 2e11 00       		.byte	0
 11076 2e12 00       		.byte	0
 11077 2e13 00       		.byte	0
ARM GAS  C:\Users\DEVELO~1\AppData\Local\Temp\ccJK6Gr9.s 			page 196


 11078 2e14 06       		.uleb128 0x6
 11079 2e15 0A000000 		.4byte	.LVL115
 11080 2e19 C6150000 		.4byte	0x15c6
 11081 2e1d 2B2E0000 		.4byte	0x2e2b
 11082 2e21 01       		.uleb128 0x1
 11083 2e22 01       		.uleb128 0x1
 11084 2e23 50       		.byte	0x50
 11085 2e24 05       		.uleb128 0x5
 11086 2e25 03       		.byte	0x3
 11087 2e26 00000000 		.4byte	.LANCHOR8
 11088 2e2a 00       		.byte	0
 11089 2e2b 06       		.uleb128 0x6
 11090 2e2c 1E000000 		.4byte	.LVL119
 11091 2e30 B5150000 		.4byte	0x15b5
 11092 2e34 422E0000 		.4byte	0x2e42
 11093 2e38 01       		.uleb128 0x1
 11094 2e39 01       		.uleb128 0x1
 11095 2e3a 50       		.byte	0x50
 11096 2e3b 05       		.uleb128 0x5
 11097 2e3c 03       		.byte	0x3
 11098 2e3d 00000000 		.4byte	.LANCHOR8
 11099 2e41 00       		.byte	0
 11100 2e42 16       		.uleb128 0x16
 11101 2e43 26000000 		.4byte	.LVL120
 11102 2e47 AC150000 		.4byte	0x15ac
 11103 2e4b 06       		.uleb128 0x6
 11104 2e4c 52000000 		.4byte	.LVL126
 11105 2e50 B5150000 		.4byte	0x15b5
 11106 2e54 622E0000 		.4byte	0x2e62
 11107 2e58 01       		.uleb128 0x1
 11108 2e59 01       		.uleb128 0x1
 11109 2e5a 50       		.byte	0x50
 11110 2e5b 05       		.uleb128 0x5
 11111 2e5c 03       		.byte	0x3
 11112 2e5d 00000000 		.4byte	.LANCHOR8
 11113 2e61 00       		.byte	0
 11114 2e62 16       		.uleb128 0x16
 11115 2e63 5A000000 		.4byte	.LVL127
 11116 2e67 AC150000 		.4byte	0x15ac
 11117 2e6b 00       		.byte	0
 11118 2e6c 21       		.uleb128 0x21
 11119 2e6d 61040000 		.4byte	.LASF305
 11120 2e71 FE01     		.2byte	0x1fe
 11121 2e73 01       		.byte	0x1
 11122 2e74 00000000 		.4byte	.LFB461
 11123 2e78 68000000 		.4byte	.LFE461-.LFB461
 11124 2e7c 01       		.uleb128 0x1
 11125 2e7d 9C       		.byte	0x9c
 11126 2e7e C8300000 		.4byte	0x30c8
 11127 2e82 2F       		.uleb128 0x2f
 11128 2e83 570E0000 		.4byte	.LASF295
 11129 2e87 D8300000 		.4byte	0x30d8
 11130 2e8b 05       		.uleb128 0x5
 11131 2e8c 03       		.byte	0x3
 11132 2e8d 00000000 		.4byte	__func__.4
 11133 2e91 18       		.uleb128 0x18
 11134 2e92 C1330000 		.4byte	0x33c1
ARM GAS  C:\Users\DEVELO~1\AppData\Local\Temp\ccJK6Gr9.s 			page 197


 11135 2e96 0A000000 		.4byte	.LBI491
 11136 2e9a 0200     		.2byte	.LVU619
 11137 2e9c 9F000000 		.4byte	.LLRL65
 11138 2ea0 0202     		.2byte	0x202
 11139 2ea2 03       		.byte	0x3
 11140 2ea3 70300000 		.4byte	0x3070
 11141 2ea7 02       		.uleb128 0x2
 11142 2ea8 CF330000 		.4byte	0x33cf
 11143 2eac BC080000 		.4byte	.LLST66
 11144 2eb0 B8080000 		.4byte	.LVUS66
 11145 2eb4 30       		.uleb128 0x30
 11146 2eb5 9F000000 		.4byte	.LLRL65
 11147 2eb9 31       		.uleb128 0x31
 11148 2eba DC330000 		.4byte	0x33dc
 11149 2ebe DC080000 		.4byte	.LLST67
 11150 2ec2 D6080000 		.4byte	.LVUS67
 11151 2ec6 03       		.uleb128 0x3
 11152 2ec7 C1330000 		.4byte	0x33c1
 11153 2ecb 26000000 		.4byte	.LBI493
 11154 2ecf 0000     		.2byte	.LVU641
 11155 2ed1 26000000 		.4byte	.LBB493
 11156 2ed5 26000000 		.4byte	.LBE493-.LBB493
 11157 2ed9 01       		.byte	0x1
 11158 2eda 8B01     		.2byte	0x18b
 11159 2edc 0D       		.byte	0xd
 11160 2edd 02       		.uleb128 0x2
 11161 2ede CF330000 		.4byte	0x33cf
 11162 2ee2 F5080000 		.4byte	.LLST68
 11163 2ee6 F3080000 		.4byte	.LVUS68
 11164 2eea 32       		.uleb128 0x32
 11165 2eeb DC330000 		.4byte	0x33dc
 11166 2eef 07       		.uleb128 0x7
 11167 2ef0 01400000 		.4byte	0x4001
 11168 2ef4 36000000 		.4byte	.LBI495
 11169 2ef8 0100     		.2byte	.LVU646
 11170 2efa 36000000 		.4byte	.LBB495
 11171 2efe 06000000 		.4byte	.LBE495-.LBB495
 11172 2f02 9701     		.2byte	0x197
 11173 2f04 05       		.byte	0x5
 11174 2f05 772F0000 		.4byte	0x2f77
 11175 2f09 03       		.uleb128 0x3
 11176 2f0a 2F400000 		.4byte	0x402f
 11177 2f0e 36000000 		.4byte	.LBI496
 11178 2f12 0300     		.2byte	.LVU648
 11179 2f14 36000000 		.4byte	.LBB496
 11180 2f18 06000000 		.4byte	.LBE496-.LBB496
 11181 2f1c 03       		.byte	0x3
 11182 2f1d 5502     		.2byte	0x255
 11183 2f1f 03       		.byte	0x3
 11184 2f20 03       		.uleb128 0x3
 11185 2f21 41400000 		.4byte	0x4041
 11186 2f25 36000000 		.4byte	.LBI497
 11187 2f29 0500     		.2byte	.LVU650
 11188 2f2b 36000000 		.4byte	.LBB497
 11189 2f2f 06000000 		.4byte	.LBE497-.LBB497
 11190 2f33 04       		.byte	0x4
 11191 2f34 A201     		.2byte	0x1a2
ARM GAS  C:\Users\DEVELO~1\AppData\Local\Temp\ccJK6Gr9.s 			page 198


 11192 2f36 03       		.byte	0x3
 11193 2f37 03       		.uleb128 0x3
 11194 2f38 53400000 		.4byte	0x4053
 11195 2f3c 36000000 		.4byte	.LBI498
 11196 2f40 0700     		.2byte	.LVU652
 11197 2f42 36000000 		.4byte	.LBB498
 11198 2f46 06000000 		.4byte	.LBE498-.LBB498
 11199 2f4a 05       		.byte	0x5
 11200 2f4b 7103     		.2byte	0x371
 11201 2f4d 03       		.byte	0x3
 11202 2f4e 03       		.uleb128 0x3
 11203 2f4f 5C400000 		.4byte	0x405c
 11204 2f53 36000000 		.4byte	.LBI499
 11205 2f57 0900     		.2byte	.LVU654
 11206 2f59 36000000 		.4byte	.LBB499
 11207 2f5d 06000000 		.4byte	.LBE499-.LBB499
 11208 2f61 05       		.byte	0x5
 11209 2f62 5003     		.2byte	0x350
 11210 2f64 03       		.byte	0x3
 11211 2f65 02       		.uleb128 0x2
 11212 2f66 6A400000 		.4byte	0x406a
 11213 2f6a 05090000 		.4byte	.LLST69
 11214 2f6e 03090000 		.4byte	.LVUS69
 11215 2f72 00       		.byte	0
 11216 2f73 00       		.byte	0
 11217 2f74 00       		.byte	0
 11218 2f75 00       		.byte	0
 11219 2f76 00       		.byte	0
 11220 2f77 07       		.uleb128 0x7
 11221 2f78 CF3F0000 		.4byte	0x3fcf
 11222 2f7c 3C000000 		.4byte	.LBI501
 11223 2f80 0400     		.2byte	.LVU660
 11224 2f82 3C000000 		.4byte	.LBB501
 11225 2f86 0A000000 		.4byte	.LBE501-.LBB501
 11226 2f8a 9701     		.2byte	0x197
 11227 2f8c 05       		.byte	0x5
 11228 2f8d C52F0000 		.4byte	0x2fc5
 11229 2f91 02       		.uleb128 0x2
 11230 2f92 EA3F0000 		.4byte	0x3fea
 11231 2f96 12090000 		.4byte	.LLST70
 11232 2f9a 10090000 		.4byte	.LVUS70
 11233 2f9e 02       		.uleb128 0x2
 11234 2f9f DD3F0000 		.4byte	0x3fdd
 11235 2fa3 1F090000 		.4byte	.LLST71
 11236 2fa7 1D090000 		.4byte	.LVUS71
 11237 2fab 0D       		.uleb128 0xd
 11238 2fac 46000000 		.4byte	.LVL111
 11239 2fb0 95150000 		.4byte	0x1595
 11240 2fb4 01       		.uleb128 0x1
 11241 2fb5 01       		.uleb128 0x1
 11242 2fb6 50       		.byte	0x50
 11243 2fb7 05       		.uleb128 0x5
 11244 2fb8 03       		.byte	0x3
 11245 2fb9 08000000 		.4byte	.LANCHOR1+8
 11246 2fbd 01       		.uleb128 0x1
 11247 2fbe 01       		.uleb128 0x1
 11248 2fbf 51       		.byte	0x51
ARM GAS  C:\Users\DEVELO~1\AppData\Local\Temp\ccJK6Gr9.s 			page 199


 11249 2fc0 02       		.uleb128 0x2
 11250 2fc1 09       		.byte	0x9
 11251 2fc2 ED       		.byte	0xed
 11252 2fc3 00       		.byte	0
 11253 2fc4 00       		.byte	0
 11254 2fc5 07       		.uleb128 0x7
 11255 2fc6 F83F0000 		.4byte	0x3ff8
 11256 2fca 46000000 		.4byte	.LBI503
 11257 2fce 0200     		.2byte	.LVU664
 11258 2fd0 46000000 		.4byte	.LBB503
 11259 2fd4 06000000 		.4byte	.LBE503-.LBB503
 11260 2fd8 9701     		.2byte	0x197
 11261 2fda 05       		.byte	0x5
 11262 2fdb 4D300000 		.4byte	0x304d
 11263 2fdf 03       		.uleb128 0x3
 11264 2fe0 26400000 		.4byte	0x4026
 11265 2fe4 46000000 		.4byte	.LBI504
 11266 2fe8 0400     		.2byte	.LVU666
 11267 2fea 46000000 		.4byte	.LBB504
 11268 2fee 06000000 		.4byte	.LBE504-.LBB504
 11269 2ff2 03       		.byte	0x3
 11270 2ff3 6002     		.2byte	0x260
 11271 2ff5 03       		.byte	0x3
 11272 2ff6 03       		.uleb128 0x3
 11273 2ff7 38400000 		.4byte	0x4038
 11274 2ffb 46000000 		.4byte	.LBI505
 11275 2fff 0800     		.2byte	.LVU670
 11276 3001 46000000 		.4byte	.LBB505
 11277 3005 06000000 		.4byte	.LBE505-.LBB505
 11278 3009 04       		.byte	0x4
 11279 300a BA01     		.2byte	0x1ba
 11280 300c 03       		.byte	0x3
 11281 300d 03       		.uleb128 0x3
 11282 300e 4A400000 		.4byte	0x404a
 11283 3012 46000000 		.4byte	.LBI506
 11284 3016 0A00     		.2byte	.LVU672
 11285 3018 46000000 		.4byte	.LBB506
 11286 301c 06000000 		.4byte	.LBE506-.LBB506
 11287 3020 05       		.byte	0x5
 11288 3021 7C03     		.2byte	0x37c
 11289 3023 03       		.byte	0x3
 11290 3024 03       		.uleb128 0x3
 11291 3025 5C400000 		.4byte	0x405c
 11292 3029 46000000 		.4byte	.LBI507
 11293 302d 0C00     		.2byte	.LVU674
 11294 302f 46000000 		.4byte	.LBB507
 11295 3033 06000000 		.4byte	.LBE507-.LBB507
 11296 3037 05       		.byte	0x5
 11297 3038 6303     		.2byte	0x363
 11298 303a 03       		.byte	0x3
 11299 303b 02       		.uleb128 0x2
 11300 303c 6A400000 		.4byte	0x406a
 11301 3040 2F090000 		.4byte	.LLST72
 11302 3044 2D090000 		.4byte	.LVUS72
 11303 3048 00       		.byte	0
 11304 3049 00       		.byte	0
 11305 304a 00       		.byte	0
ARM GAS  C:\Users\DEVELO~1\AppData\Local\Temp\ccJK6Gr9.s 			page 200


 11306 304b 00       		.byte	0
 11307 304c 00       		.byte	0
 11308 304d 06       		.uleb128 0x6
 11309 304e 2C000000 		.4byte	.LVL108
 11310 3052 BF3B0000 		.4byte	0x3bbf
 11311 3056 61300000 		.4byte	0x3061
 11312 305a 01       		.uleb128 0x1
 11313 305b 01       		.uleb128 0x1
 11314 305c 50       		.byte	0x50
 11315 305d 02       		.uleb128 0x2
 11316 305e 74       		.byte	0x74
 11317 305f 00       		.sleb128 0
 11318 3060 00       		.byte	0
 11319 3061 1C       		.uleb128 0x1c
 11320 3062 36000000 		.4byte	.LVL109
 11321 3066 01       		.uleb128 0x1
 11322 3067 01       		.uleb128 0x1
 11323 3068 50       		.byte	0x50
 11324 3069 02       		.uleb128 0x2
 11325 306a 74       		.byte	0x74
 11326 306b 00       		.sleb128 0
 11327 306c 00       		.byte	0
 11328 306d 00       		.byte	0
 11329 306e 00       		.byte	0
 11330 306f 00       		.byte	0
 11331 3070 06       		.uleb128 0x6
 11332 3071 0A000000 		.4byte	.LVL102
 11333 3075 C6150000 		.4byte	0x15c6
 11334 3079 87300000 		.4byte	0x3087
 11335 307d 01       		.uleb128 0x1
 11336 307e 01       		.uleb128 0x1
 11337 307f 50       		.byte	0x50
 11338 3080 05       		.uleb128 0x5
 11339 3081 03       		.byte	0x3
 11340 3082 00000000 		.4byte	.LANCHOR7
 11341 3086 00       		.byte	0
 11342 3087 06       		.uleb128 0x6
 11343 3088 1E000000 		.4byte	.LVL106
 11344 308c B5150000 		.4byte	0x15b5
 11345 3090 9E300000 		.4byte	0x309e
 11346 3094 01       		.uleb128 0x1
 11347 3095 01       		.uleb128 0x1
 11348 3096 50       		.byte	0x50
 11349 3097 05       		.uleb128 0x5
 11350 3098 03       		.byte	0x3
 11351 3099 00000000 		.4byte	.LANCHOR7
 11352 309d 00       		.byte	0
 11353 309e 16       		.uleb128 0x16
 11354 309f 26000000 		.4byte	.LVL107
 11355 30a3 AC150000 		.4byte	0x15ac
 11356 30a7 06       		.uleb128 0x6
 11357 30a8 52000000 		.4byte	.LVL113
 11358 30ac B5150000 		.4byte	0x15b5
 11359 30b0 BE300000 		.4byte	0x30be
 11360 30b4 01       		.uleb128 0x1
 11361 30b5 01       		.uleb128 0x1
 11362 30b6 50       		.byte	0x50
ARM GAS  C:\Users\DEVELO~1\AppData\Local\Temp\ccJK6Gr9.s 			page 201


 11363 30b7 05       		.uleb128 0x5
 11364 30b8 03       		.byte	0x3
 11365 30b9 00000000 		.4byte	.LANCHOR7
 11366 30bd 00       		.byte	0
 11367 30be 16       		.uleb128 0x16
 11368 30bf 5A000000 		.4byte	.LVL114
 11369 30c3 AC150000 		.4byte	0x15ac
 11370 30c7 00       		.byte	0
 11371 30c8 14       		.uleb128 0x14
 11372 30c9 9E030000 		.4byte	0x39e
 11373 30cd D8300000 		.4byte	0x30d8
 11374 30d1 15       		.uleb128 0x15
 11375 30d2 39000000 		.4byte	0x39
 11376 30d6 08       		.byte	0x8
 11377 30d7 00       		.byte	0
 11378 30d8 11       		.uleb128 0x11
 11379 30d9 C8300000 		.4byte	0x30c8
 11380 30dd 21       		.uleb128 0x21
 11381 30de C1030000 		.4byte	.LASF306
 11382 30e2 E901     		.2byte	0x1e9
 11383 30e4 01       		.byte	0x1
 11384 30e5 00000000 		.4byte	.LFB460
 11385 30e9 68000000 		.4byte	.LFE460-.LFB460
 11386 30ed 01       		.uleb128 0x1
 11387 30ee 9C       		.byte	0x9c
 11388 30ef 39330000 		.4byte	0x3339
 11389 30f3 2F       		.uleb128 0x2f
 11390 30f4 570E0000 		.4byte	.LASF295
 11391 30f8 D8300000 		.4byte	0x30d8
 11392 30fc 05       		.uleb128 0x5
 11393 30fd 03       		.byte	0x3
 11394 30fe 00000000 		.4byte	__func__.5
 11395 3102 18       		.uleb128 0x18
 11396 3103 C1330000 		.4byte	0x33c1
 11397 3107 0A000000 		.4byte	.LBI450
 11398 310b 0200     		.2byte	.LVU537
 11399 310d 90000000 		.4byte	.LLRL57
 11400 3111 ED01     		.2byte	0x1ed
 11401 3113 03       		.byte	0x3
 11402 3114 E1320000 		.4byte	0x32e1
 11403 3118 02       		.uleb128 0x2
 11404 3119 CF330000 		.4byte	0x33cf
 11405 311d 3D090000 		.4byte	.LLST58
 11406 3121 39090000 		.4byte	.LVUS58
 11407 3125 30       		.uleb128 0x30
 11408 3126 90000000 		.4byte	.LLRL57
 11409 312a 31       		.uleb128 0x31
 11410 312b DC330000 		.4byte	0x33dc
 11411 312f 5D090000 		.4byte	.LLST59
 11412 3133 57090000 		.4byte	.LVUS59
 11413 3137 03       		.uleb128 0x3
 11414 3138 C1330000 		.4byte	0x33c1
 11415 313c 26000000 		.4byte	.LBI452
 11416 3140 0000     		.2byte	.LVU559
 11417 3142 26000000 		.4byte	.LBB452
 11418 3146 26000000 		.4byte	.LBE452-.LBB452
 11419 314a 01       		.byte	0x1
ARM GAS  C:\Users\DEVELO~1\AppData\Local\Temp\ccJK6Gr9.s 			page 202


 11420 314b 8B01     		.2byte	0x18b
 11421 314d 0D       		.byte	0xd
 11422 314e 02       		.uleb128 0x2
 11423 314f CF330000 		.4byte	0x33cf
 11424 3153 76090000 		.4byte	.LLST60
 11425 3157 74090000 		.4byte	.LVUS60
 11426 315b 32       		.uleb128 0x32
 11427 315c DC330000 		.4byte	0x33dc
 11428 3160 07       		.uleb128 0x7
 11429 3161 01400000 		.4byte	0x4001
 11430 3165 36000000 		.4byte	.LBI454
 11431 3169 0100     		.2byte	.LVU564
 11432 316b 36000000 		.4byte	.LBB454
 11433 316f 06000000 		.4byte	.LBE454-.LBB454
 11434 3173 9701     		.2byte	0x197
 11435 3175 05       		.byte	0x5
 11436 3176 E8310000 		.4byte	0x31e8
 11437 317a 03       		.uleb128 0x3
 11438 317b 2F400000 		.4byte	0x402f
 11439 317f 36000000 		.4byte	.LBI455
 11440 3183 0300     		.2byte	.LVU566
 11441 3185 36000000 		.4byte	.LBB455
 11442 3189 06000000 		.4byte	.LBE455-.LBB455
 11443 318d 03       		.byte	0x3
 11444 318e 5502     		.2byte	0x255
 11445 3190 03       		.byte	0x3
 11446 3191 03       		.uleb128 0x3
 11447 3192 41400000 		.4byte	0x4041
 11448 3196 36000000 		.4byte	.LBI456
 11449 319a 0500     		.2byte	.LVU568
 11450 319c 36000000 		.4byte	.LBB456
 11451 31a0 06000000 		.4byte	.LBE456-.LBB456
 11452 31a4 04       		.byte	0x4
 11453 31a5 A201     		.2byte	0x1a2
 11454 31a7 03       		.byte	0x3
 11455 31a8 03       		.uleb128 0x3
 11456 31a9 53400000 		.4byte	0x4053
 11457 31ad 36000000 		.4byte	.LBI457
 11458 31b1 0700     		.2byte	.LVU570
 11459 31b3 36000000 		.4byte	.LBB457
 11460 31b7 06000000 		.4byte	.LBE457-.LBB457
 11461 31bb 05       		.byte	0x5
 11462 31bc 7103     		.2byte	0x371
 11463 31be 03       		.byte	0x3
 11464 31bf 03       		.uleb128 0x3
 11465 31c0 5C400000 		.4byte	0x405c
 11466 31c4 36000000 		.4byte	.LBI458
 11467 31c8 0900     		.2byte	.LVU572
 11468 31ca 36000000 		.4byte	.LBB458
 11469 31ce 06000000 		.4byte	.LBE458-.LBB458
 11470 31d2 05       		.byte	0x5
 11471 31d3 5003     		.2byte	0x350
 11472 31d5 03       		.byte	0x3
 11473 31d6 02       		.uleb128 0x2
 11474 31d7 6A400000 		.4byte	0x406a
 11475 31db 86090000 		.4byte	.LLST61
 11476 31df 84090000 		.4byte	.LVUS61
ARM GAS  C:\Users\DEVELO~1\AppData\Local\Temp\ccJK6Gr9.s 			page 203


 11477 31e3 00       		.byte	0
 11478 31e4 00       		.byte	0
 11479 31e5 00       		.byte	0
 11480 31e6 00       		.byte	0
 11481 31e7 00       		.byte	0
 11482 31e8 07       		.uleb128 0x7
 11483 31e9 CF3F0000 		.4byte	0x3fcf
 11484 31ed 3C000000 		.4byte	.LBI460
 11485 31f1 0400     		.2byte	.LVU578
 11486 31f3 3C000000 		.4byte	.LBB460
 11487 31f7 0A000000 		.4byte	.LBE460-.LBB460
 11488 31fb 9701     		.2byte	0x197
 11489 31fd 05       		.byte	0x5
 11490 31fe 36320000 		.4byte	0x3236
 11491 3202 02       		.uleb128 0x2
 11492 3203 EA3F0000 		.4byte	0x3fea
 11493 3207 93090000 		.4byte	.LLST62
 11494 320b 91090000 		.4byte	.LVUS62
 11495 320f 02       		.uleb128 0x2
 11496 3210 DD3F0000 		.4byte	0x3fdd
 11497 3214 A0090000 		.4byte	.LLST63
 11498 3218 9E090000 		.4byte	.LVUS63
 11499 321c 0D       		.uleb128 0xd
 11500 321d 46000000 		.4byte	.LVL98
 11501 3221 95150000 		.4byte	0x1595
 11502 3225 01       		.uleb128 0x1
 11503 3226 01       		.uleb128 0x1
 11504 3227 50       		.byte	0x50
 11505 3228 05       		.uleb128 0x5
 11506 3229 03       		.byte	0x3
 11507 322a 08000000 		.4byte	.LANCHOR0+8
 11508 322e 01       		.uleb128 0x1
 11509 322f 01       		.uleb128 0x1
 11510 3230 51       		.byte	0x51
 11511 3231 02       		.uleb128 0x2
 11512 3232 09       		.byte	0x9
 11513 3233 ED       		.byte	0xed
 11514 3234 00       		.byte	0
 11515 3235 00       		.byte	0
 11516 3236 07       		.uleb128 0x7
 11517 3237 F83F0000 		.4byte	0x3ff8
 11518 323b 46000000 		.4byte	.LBI462
 11519 323f 0200     		.2byte	.LVU582
 11520 3241 46000000 		.4byte	.LBB462
 11521 3245 06000000 		.4byte	.LBE462-.LBB462
 11522 3249 9701     		.2byte	0x197
 11523 324b 05       		.byte	0x5
 11524 324c BE320000 		.4byte	0x32be
 11525 3250 03       		.uleb128 0x3
 11526 3251 26400000 		.4byte	0x4026
 11527 3255 46000000 		.4byte	.LBI463
 11528 3259 0400     		.2byte	.LVU584
 11529 325b 46000000 		.4byte	.LBB463
 11530 325f 06000000 		.4byte	.LBE463-.LBB463
 11531 3263 03       		.byte	0x3
 11532 3264 6002     		.2byte	0x260
 11533 3266 03       		.byte	0x3
ARM GAS  C:\Users\DEVELO~1\AppData\Local\Temp\ccJK6Gr9.s 			page 204


 11534 3267 03       		.uleb128 0x3
 11535 3268 38400000 		.4byte	0x4038
 11536 326c 46000000 		.4byte	.LBI464
 11537 3270 0800     		.2byte	.LVU588
 11538 3272 46000000 		.4byte	.LBB464
 11539 3276 06000000 		.4byte	.LBE464-.LBB464
 11540 327a 04       		.byte	0x4
 11541 327b BA01     		.2byte	0x1ba
 11542 327d 03       		.byte	0x3
 11543 327e 03       		.uleb128 0x3
 11544 327f 4A400000 		.4byte	0x404a
 11545 3283 46000000 		.4byte	.LBI465
 11546 3287 0A00     		.2byte	.LVU590
 11547 3289 46000000 		.4byte	.LBB465
 11548 328d 06000000 		.4byte	.LBE465-.LBB465
 11549 3291 05       		.byte	0x5
 11550 3292 7C03     		.2byte	0x37c
 11551 3294 03       		.byte	0x3
 11552 3295 03       		.uleb128 0x3
 11553 3296 5C400000 		.4byte	0x405c
 11554 329a 46000000 		.4byte	.LBI466
 11555 329e 0C00     		.2byte	.LVU592
 11556 32a0 46000000 		.4byte	.LBB466
 11557 32a4 06000000 		.4byte	.LBE466-.LBB466
 11558 32a8 05       		.byte	0x5
 11559 32a9 6303     		.2byte	0x363
 11560 32ab 03       		.byte	0x3
 11561 32ac 02       		.uleb128 0x2
 11562 32ad 6A400000 		.4byte	0x406a
 11563 32b1 B0090000 		.4byte	.LLST64
 11564 32b5 AE090000 		.4byte	.LVUS64
 11565 32b9 00       		.byte	0
 11566 32ba 00       		.byte	0
 11567 32bb 00       		.byte	0
 11568 32bc 00       		.byte	0
 11569 32bd 00       		.byte	0
 11570 32be 06       		.uleb128 0x6
 11571 32bf 2C000000 		.4byte	.LVL95
 11572 32c3 BF3B0000 		.4byte	0x3bbf
 11573 32c7 D2320000 		.4byte	0x32d2
 11574 32cb 01       		.uleb128 0x1
 11575 32cc 01       		.uleb128 0x1
 11576 32cd 50       		.byte	0x50
 11577 32ce 02       		.uleb128 0x2
 11578 32cf 74       		.byte	0x74
 11579 32d0 00       		.sleb128 0
 11580 32d1 00       		.byte	0
 11581 32d2 1C       		.uleb128 0x1c
 11582 32d3 36000000 		.4byte	.LVL96
 11583 32d7 01       		.uleb128 0x1
 11584 32d8 01       		.uleb128 0x1
 11585 32d9 50       		.byte	0x50
 11586 32da 02       		.uleb128 0x2
 11587 32db 74       		.byte	0x74
 11588 32dc 00       		.sleb128 0
 11589 32dd 00       		.byte	0
 11590 32de 00       		.byte	0
ARM GAS  C:\Users\DEVELO~1\AppData\Local\Temp\ccJK6Gr9.s 			page 205


 11591 32df 00       		.byte	0
 11592 32e0 00       		.byte	0
 11593 32e1 06       		.uleb128 0x6
 11594 32e2 0A000000 		.4byte	.LVL89
 11595 32e6 C6150000 		.4byte	0x15c6
 11596 32ea F8320000 		.4byte	0x32f8
 11597 32ee 01       		.uleb128 0x1
 11598 32ef 01       		.uleb128 0x1
 11599 32f0 50       		.byte	0x50
 11600 32f1 05       		.uleb128 0x5
 11601 32f2 03       		.byte	0x3
 11602 32f3 00000000 		.4byte	.LANCHOR6
 11603 32f7 00       		.byte	0
 11604 32f8 06       		.uleb128 0x6
 11605 32f9 1E000000 		.4byte	.LVL93
 11606 32fd B5150000 		.4byte	0x15b5
 11607 3301 0F330000 		.4byte	0x330f
 11608 3305 01       		.uleb128 0x1
 11609 3306 01       		.uleb128 0x1
 11610 3307 50       		.byte	0x50
 11611 3308 05       		.uleb128 0x5
 11612 3309 03       		.byte	0x3
 11613 330a 00000000 		.4byte	.LANCHOR6
 11614 330e 00       		.byte	0
 11615 330f 16       		.uleb128 0x16
 11616 3310 26000000 		.4byte	.LVL94
 11617 3314 AC150000 		.4byte	0x15ac
 11618 3318 06       		.uleb128 0x6
 11619 3319 52000000 		.4byte	.LVL100
 11620 331d B5150000 		.4byte	0x15b5
 11621 3321 2F330000 		.4byte	0x332f
 11622 3325 01       		.uleb128 0x1
 11623 3326 01       		.uleb128 0x1
 11624 3327 50       		.byte	0x50
 11625 3328 05       		.uleb128 0x5
 11626 3329 03       		.byte	0x3
 11627 332a 00000000 		.4byte	.LANCHOR6
 11628 332e 00       		.byte	0
 11629 332f 16       		.uleb128 0x16
 11630 3330 5A000000 		.4byte	.LVL101
 11631 3334 AC150000 		.4byte	0x15ac
 11632 3338 00       		.byte	0
 11633 3339 45       		.uleb128 0x45
 11634 333a D8050000 		.4byte	.LASF310
 11635 333e C501     		.2byte	0x1c5
 11636 3340 5F010000 		.4byte	0x15f
 11637 3344 7D330000 		.4byte	0x337d
 11638 3348 0C       		.uleb128 0xc
 11639 3349 570F0000 		.4byte	.LASF280
 11640 334d 01       		.byte	0x1
 11641 334e C501     		.2byte	0x1c5
 11642 3350 2A       		.byte	0x2a
 11643 3351 DC130000 		.4byte	0x13dc
 11644 3355 0C       		.uleb128 0xc
 11645 3356 11030000 		.4byte	.LASF307
 11646 335a 01       		.byte	0x1
 11647 335b C501     		.2byte	0x1c5
ARM GAS  C:\Users\DEVELO~1\AppData\Local\Temp\ccJK6Gr9.s 			page 206


 11648 335d 39       		.byte	0x39
 11649 335e E9000000 		.4byte	0xe9
 11650 3362 0C       		.uleb128 0xc
 11651 3363 CB0E0000 		.4byte	.LASF308
 11652 3367 01       		.byte	0x1
 11653 3368 C601     		.2byte	0x1c6
 11654 336a 28       		.byte	0x28
 11655 336b E9000000 		.4byte	0xe9
 11656 336f 0C       		.uleb128 0xc
 11657 3370 9D0A0000 		.4byte	.LASF309
 11658 3374 01       		.byte	0x1
 11659 3375 C601     		.2byte	0x1c6
 11660 3377 3B       		.byte	0x3b
 11661 3378 E9000000 		.4byte	0xe9
 11662 337c 00       		.byte	0
 11663 337d 45       		.uleb128 0x45
 11664 337e BB050000 		.4byte	.LASF311
 11665 3382 A501     		.2byte	0x1a5
 11666 3384 5F010000 		.4byte	0x15f
 11667 3388 C1330000 		.4byte	0x33c1
 11668 338c 0C       		.uleb128 0xc
 11669 338d 570F0000 		.4byte	.LASF280
 11670 3391 01       		.byte	0x1
 11671 3392 A501     		.2byte	0x1a5
 11672 3394 29       		.byte	0x29
 11673 3395 DC130000 		.4byte	0x13dc
 11674 3399 0C       		.uleb128 0xc
 11675 339a 11030000 		.4byte	.LASF307
 11676 339e 01       		.byte	0x1
 11677 339f A501     		.2byte	0x1a5
 11678 33a1 38       		.byte	0x38
 11679 33a2 E9000000 		.4byte	0xe9
 11680 33a6 0C       		.uleb128 0xc
 11681 33a7 CB0E0000 		.4byte	.LASF308
 11682 33ab 01       		.byte	0x1
 11683 33ac A601     		.2byte	0x1a6
 11684 33ae 27       		.byte	0x27
 11685 33af E9000000 		.4byte	0xe9
 11686 33b3 0C       		.uleb128 0xc
 11687 33b4 9D0A0000 		.4byte	.LASF309
 11688 33b8 01       		.byte	0x1
 11689 33b9 A601     		.2byte	0x1a6
 11690 33bb 3A       		.byte	0x3a
 11691 33bc E9000000 		.4byte	0xe9
 11692 33c0 00       		.byte	0
 11693 33c1 17       		.uleb128 0x17
 11694 33c2 9A0B0000 		.4byte	.LASF312
 11695 33c6 01       		.byte	0x1
 11696 33c7 8B01     		.2byte	0x18b
 11697 33c9 0D       		.byte	0xd
 11698 33ca 01       		.byte	0x1
 11699 33cb E9330000 		.4byte	0x33e9
 11700 33cf 0C       		.uleb128 0xc
 11701 33d0 570F0000 		.4byte	.LASF280
 11702 33d4 01       		.byte	0x1
 11703 33d5 8B01     		.2byte	0x18b
 11704 33d7 30       		.byte	0x30
ARM GAS  C:\Users\DEVELO~1\AppData\Local\Temp\ccJK6Gr9.s 			page 207


 11705 33d8 DC130000 		.4byte	0x13dc
 11706 33dc 54       		.uleb128 0x54
 11707 33dd 737200   		.ascii	"sr\000"
 11708 33e0 01       		.byte	0x1
 11709 33e1 8C01     		.2byte	0x18c
 11710 33e3 0C       		.byte	0xc
 11711 33e4 E9000000 		.4byte	0xe9
 11712 33e8 00       		.byte	0
 11713 33e9 17       		.uleb128 0x17
 11714 33ea 380F0000 		.4byte	.LASF313
 11715 33ee 01       		.byte	0x1
 11716 33ef 7501     		.2byte	0x175
 11717 33f1 0D       		.byte	0xd
 11718 33f2 01       		.byte	0x1
 11719 33f3 12340000 		.4byte	0x3412
 11720 33f7 0C       		.uleb128 0xc
 11721 33f8 570F0000 		.4byte	.LASF280
 11722 33fc 01       		.byte	0x1
 11723 33fd 7501     		.2byte	0x175
 11724 33ff 37       		.byte	0x37
 11725 3400 DC130000 		.4byte	0x13dc
 11726 3404 0C       		.uleb128 0xc
 11727 3405 C7000000 		.4byte	.LASF37
 11728 3409 01       		.byte	0x1
 11729 340a 7501     		.2byte	0x175
 11730 340c 46       		.byte	0x46
 11731 340d E9000000 		.4byte	0xe9
 11732 3411 00       		.byte	0
 11733 3412 46       		.uleb128 0x46
 11734 3413 3E030000 		.4byte	.LASF315
 11735 3417 4D01     		.2byte	0x14d
 11736 3419 00000000 		.4byte	.LFB455
 11737 341d A8000000 		.4byte	.LFE455-.LFB455
 11738 3421 01       		.uleb128 0x1
 11739 3422 9C       		.byte	0x9c
 11740 3423 A4370000 		.4byte	0x37a4
 11741 3427 0E       		.uleb128 0xe
 11742 3428 570F0000 		.4byte	.LASF280
 11743 342c 4D01     		.2byte	0x14d
 11744 342e 37       		.byte	0x37
 11745 342f DC130000 		.4byte	0x13dc
 11746 3433 C2090000 		.4byte	.LLST35
 11747 3437 BA090000 		.4byte	.LVUS35
 11748 343b 0E       		.uleb128 0xe
 11749 343c C7000000 		.4byte	.LASF37
 11750 3440 4D01     		.2byte	0x14d
 11751 3442 46       		.byte	0x46
 11752 3443 E9000000 		.4byte	0xe9
 11753 3447 E5090000 		.4byte	.LLST36
 11754 344b DD090000 		.4byte	.LVUS36
 11755 344f 07       		.uleb128 0x7
 11756 3450 01400000 		.4byte	0x4001
 11757 3454 50000000 		.4byte	.LBI367
 11758 3458 0100     		.2byte	.LVU333
 11759 345a 50000000 		.4byte	.LBB367
 11760 345e 06000000 		.4byte	.LBE367-.LBB367
 11761 3462 6B01     		.2byte	0x16b
ARM GAS  C:\Users\DEVELO~1\AppData\Local\Temp\ccJK6Gr9.s 			page 208


 11762 3464 05       		.byte	0x5
 11763 3465 D7340000 		.4byte	0x34d7
 11764 3469 03       		.uleb128 0x3
 11765 346a 2F400000 		.4byte	0x402f
 11766 346e 50000000 		.4byte	.LBI368
 11767 3472 0300     		.2byte	.LVU335
 11768 3474 50000000 		.4byte	.LBB368
 11769 3478 06000000 		.4byte	.LBE368-.LBB368
 11770 347c 03       		.byte	0x3
 11771 347d 5502     		.2byte	0x255
 11772 347f 03       		.byte	0x3
 11773 3480 03       		.uleb128 0x3
 11774 3481 41400000 		.4byte	0x4041
 11775 3485 50000000 		.4byte	.LBI369
 11776 3489 0500     		.2byte	.LVU337
 11777 348b 50000000 		.4byte	.LBB369
 11778 348f 06000000 		.4byte	.LBE369-.LBB369
 11779 3493 04       		.byte	0x4
 11780 3494 A201     		.2byte	0x1a2
 11781 3496 03       		.byte	0x3
 11782 3497 03       		.uleb128 0x3
 11783 3498 53400000 		.4byte	0x4053
 11784 349c 50000000 		.4byte	.LBI370
 11785 34a0 0700     		.2byte	.LVU339
 11786 34a2 50000000 		.4byte	.LBB370
 11787 34a6 06000000 		.4byte	.LBE370-.LBB370
 11788 34aa 05       		.byte	0x5
 11789 34ab 7103     		.2byte	0x371
 11790 34ad 03       		.byte	0x3
 11791 34ae 03       		.uleb128 0x3
 11792 34af 5C400000 		.4byte	0x405c
 11793 34b3 50000000 		.4byte	.LBI371
 11794 34b7 0900     		.2byte	.LVU341
 11795 34b9 50000000 		.4byte	.LBB371
 11796 34bd 06000000 		.4byte	.LBE371-.LBB371
 11797 34c1 05       		.byte	0x5
 11798 34c2 5003     		.2byte	0x350
 11799 34c4 03       		.byte	0x3
 11800 34c5 02       		.uleb128 0x2
 11801 34c6 6A400000 		.4byte	0x406a
 11802 34ca 020A0000 		.4byte	.LLST37
 11803 34ce 000A0000 		.4byte	.LVUS37
 11804 34d2 00       		.byte	0
 11805 34d3 00       		.byte	0
 11806 34d4 00       		.byte	0
 11807 34d5 00       		.byte	0
 11808 34d6 00       		.byte	0
 11809 34d7 07       		.uleb128 0x7
 11810 34d8 CF3F0000 		.4byte	0x3fcf
 11811 34dc 56000000 		.4byte	.LBI373
 11812 34e0 0400     		.2byte	.LVU347
 11813 34e2 56000000 		.4byte	.LBB373
 11814 34e6 0A000000 		.4byte	.LBE373-.LBB373
 11815 34ea 6B01     		.2byte	0x16b
 11816 34ec 05       		.byte	0x5
 11817 34ed 21350000 		.4byte	0x3521
 11818 34f1 02       		.uleb128 0x2
ARM GAS  C:\Users\DEVELO~1\AppData\Local\Temp\ccJK6Gr9.s 			page 209


 11819 34f2 EA3F0000 		.4byte	0x3fea
 11820 34f6 0F0A0000 		.4byte	.LLST38
 11821 34fa 0D0A0000 		.4byte	.LVUS38
 11822 34fe 02       		.uleb128 0x2
 11823 34ff DD3F0000 		.4byte	0x3fdd
 11824 3503 1F0A0000 		.4byte	.LLST39
 11825 3507 190A0000 		.4byte	.LVUS39
 11826 350b 0D       		.uleb128 0xd
 11827 350c 60000000 		.4byte	.LVL54
 11828 3510 95150000 		.4byte	0x1595
 11829 3514 01       		.uleb128 0x1
 11830 3515 01       		.uleb128 0x1
 11831 3516 50       		.byte	0x50
 11832 3517 02       		.uleb128 0x2
 11833 3518 74       		.byte	0x74
 11834 3519 08       		.sleb128 8
 11835 351a 01       		.uleb128 0x1
 11836 351b 01       		.uleb128 0x1
 11837 351c 51       		.byte	0x51
 11838 351d 01       		.uleb128 0x1
 11839 351e 30       		.byte	0x30
 11840 351f 00       		.byte	0
 11841 3520 00       		.byte	0
 11842 3521 07       		.uleb128 0x7
 11843 3522 F83F0000 		.4byte	0x3ff8
 11844 3526 60000000 		.4byte	.LBI375
 11845 352a 0200     		.2byte	.LVU352
 11846 352c 60000000 		.4byte	.LBB375
 11847 3530 06000000 		.4byte	.LBE375-.LBB375
 11848 3534 6B01     		.2byte	0x16b
 11849 3536 05       		.byte	0x5
 11850 3537 A9350000 		.4byte	0x35a9
 11851 353b 03       		.uleb128 0x3
 11852 353c 26400000 		.4byte	0x4026
 11853 3540 60000000 		.4byte	.LBI377
 11854 3544 0400     		.2byte	.LVU354
 11855 3546 60000000 		.4byte	.LBB377
 11856 354a 06000000 		.4byte	.LBE377-.LBB377
 11857 354e 03       		.byte	0x3
 11858 354f 6002     		.2byte	0x260
 11859 3551 03       		.byte	0x3
 11860 3552 03       		.uleb128 0x3
 11861 3553 38400000 		.4byte	0x4038
 11862 3557 60000000 		.4byte	.LBI378
 11863 355b 0800     		.2byte	.LVU358
 11864 355d 60000000 		.4byte	.LBB378
 11865 3561 06000000 		.4byte	.LBE378-.LBB378
 11866 3565 04       		.byte	0x4
 11867 3566 BA01     		.2byte	0x1ba
 11868 3568 03       		.byte	0x3
 11869 3569 03       		.uleb128 0x3
 11870 356a 4A400000 		.4byte	0x404a
 11871 356e 60000000 		.4byte	.LBI379
 11872 3572 0A00     		.2byte	.LVU360
 11873 3574 60000000 		.4byte	.LBB379
 11874 3578 06000000 		.4byte	.LBE379-.LBB379
 11875 357c 05       		.byte	0x5
ARM GAS  C:\Users\DEVELO~1\AppData\Local\Temp\ccJK6Gr9.s 			page 210


 11876 357d 7C03     		.2byte	0x37c
 11877 357f 03       		.byte	0x3
 11878 3580 03       		.uleb128 0x3
 11879 3581 5C400000 		.4byte	0x405c
 11880 3585 60000000 		.4byte	.LBI380
 11881 3589 0C00     		.2byte	.LVU362
 11882 358b 60000000 		.4byte	.LBB380
 11883 358f 06000000 		.4byte	.LBE380-.LBB380
 11884 3593 05       		.byte	0x5
 11885 3594 6303     		.2byte	0x363
 11886 3596 03       		.byte	0x3
 11887 3597 02       		.uleb128 0x2
 11888 3598 6A400000 		.4byte	0x406a
 11889 359c 3A0A0000 		.4byte	.LLST40
 11890 35a0 380A0000 		.4byte	.LVUS40
 11891 35a4 00       		.byte	0
 11892 35a5 00       		.byte	0
 11893 35a6 00       		.byte	0
 11894 35a7 00       		.byte	0
 11895 35a8 00       		.byte	0
 11896 35a9 07       		.uleb128 0x7
 11897 35aa 0A400000 		.4byte	0x400a
 11898 35ae 68000000 		.4byte	.LBI382
 11899 35b2 0100     		.2byte	.LVU369
 11900 35b4 68000000 		.4byte	.LBB382
 11901 35b8 06000000 		.4byte	.LBE382-.LBB382
 11902 35bc 5201     		.2byte	0x152
 11903 35be 05       		.byte	0x5
 11904 35bf E4350000 		.4byte	0x35e4
 11905 35c3 02       		.uleb128 0x2
 11906 35c4 18400000 		.4byte	0x4018
 11907 35c8 460A0000 		.4byte	.LLST41
 11908 35cc 440A0000 		.4byte	.LVUS41
 11909 35d0 0D       		.uleb128 0xd
 11910 35d1 6E000000 		.4byte	.LVL58
 11911 35d5 F6140000 		.4byte	0x14f6
 11912 35d9 01       		.uleb128 0x1
 11913 35da 01       		.uleb128 0x1
 11914 35db 50       		.byte	0x50
 11915 35dc 05       		.uleb128 0x5
 11916 35dd 03       		.byte	0x3
 11917 35de 00000000 		.4byte	.LC0
 11918 35e2 00       		.byte	0
 11919 35e3 00       		.byte	0
 11920 35e4 07       		.uleb128 0x7
 11921 35e5 01400000 		.4byte	0x4001
 11922 35e9 7E000000 		.4byte	.LBI384
 11923 35ed 0100     		.2byte	.LVU377
 11924 35ef 7E000000 		.4byte	.LBB384
 11925 35f3 06000000 		.4byte	.LBE384-.LBB384
 11926 35f7 5901     		.2byte	0x159
 11927 35f9 05       		.byte	0x5
 11928 35fa 6C360000 		.4byte	0x366c
 11929 35fe 03       		.uleb128 0x3
 11930 35ff 2F400000 		.4byte	0x402f
 11931 3603 7E000000 		.4byte	.LBI385
 11932 3607 0300     		.2byte	.LVU379
ARM GAS  C:\Users\DEVELO~1\AppData\Local\Temp\ccJK6Gr9.s 			page 211


 11933 3609 7E000000 		.4byte	.LBB385
 11934 360d 06000000 		.4byte	.LBE385-.LBB385
 11935 3611 03       		.byte	0x3
 11936 3612 5502     		.2byte	0x255
 11937 3614 03       		.byte	0x3
 11938 3615 03       		.uleb128 0x3
 11939 3616 41400000 		.4byte	0x4041
 11940 361a 7E000000 		.4byte	.LBI386
 11941 361e 0500     		.2byte	.LVU381
 11942 3620 7E000000 		.4byte	.LBB386
 11943 3624 06000000 		.4byte	.LBE386-.LBB386
 11944 3628 04       		.byte	0x4
 11945 3629 A201     		.2byte	0x1a2
 11946 362b 03       		.byte	0x3
 11947 362c 03       		.uleb128 0x3
 11948 362d 53400000 		.4byte	0x4053
 11949 3631 7E000000 		.4byte	.LBI387
 11950 3635 0700     		.2byte	.LVU383
 11951 3637 7E000000 		.4byte	.LBB387
 11952 363b 06000000 		.4byte	.LBE387-.LBB387
 11953 363f 05       		.byte	0x5
 11954 3640 7103     		.2byte	0x371
 11955 3642 03       		.byte	0x3
 11956 3643 03       		.uleb128 0x3
 11957 3644 5C400000 		.4byte	0x405c
 11958 3648 7E000000 		.4byte	.LBI388
 11959 364c 0900     		.2byte	.LVU385
 11960 364e 7E000000 		.4byte	.LBB388
 11961 3652 06000000 		.4byte	.LBE388-.LBB388
 11962 3656 05       		.byte	0x5
 11963 3657 5003     		.2byte	0x350
 11964 3659 03       		.byte	0x3
 11965 365a 02       		.uleb128 0x2
 11966 365b 6A400000 		.4byte	0x406a
 11967 365f 560A0000 		.4byte	.LLST42
 11968 3663 540A0000 		.4byte	.LVUS42
 11969 3667 00       		.byte	0
 11970 3668 00       		.byte	0
 11971 3669 00       		.byte	0
 11972 366a 00       		.byte	0
 11973 366b 00       		.byte	0
 11974 366c 07       		.uleb128 0x7
 11975 366d CF3F0000 		.4byte	0x3fcf
 11976 3671 84000000 		.4byte	.LBI390
 11977 3675 0400     		.2byte	.LVU391
 11978 3677 84000000 		.4byte	.LBB390
 11979 367b 0C000000 		.4byte	.LBE390-.LBB390
 11980 367f 5901     		.2byte	0x159
 11981 3681 05       		.byte	0x5
 11982 3682 B7360000 		.4byte	0x36b7
 11983 3686 02       		.uleb128 0x2
 11984 3687 EA3F0000 		.4byte	0x3fea
 11985 368b 630A0000 		.4byte	.LLST43
 11986 368f 610A0000 		.4byte	.LVUS43
 11987 3693 02       		.uleb128 0x2
 11988 3694 DD3F0000 		.4byte	0x3fdd
 11989 3698 740A0000 		.4byte	.LLST44
ARM GAS  C:\Users\DEVELO~1\AppData\Local\Temp\ccJK6Gr9.s 			page 212


 11990 369c 6E0A0000 		.4byte	.LVUS44
 11991 36a0 0D       		.uleb128 0xd
 11992 36a1 90000000 		.4byte	.LVL63
 11993 36a5 95150000 		.4byte	0x1595
 11994 36a9 01       		.uleb128 0x1
 11995 36aa 01       		.uleb128 0x1
 11996 36ab 50       		.byte	0x50
 11997 36ac 02       		.uleb128 0x2
 11998 36ad 74       		.byte	0x74
 11999 36ae 08       		.sleb128 8
 12000 36af 01       		.uleb128 0x1
 12001 36b0 01       		.uleb128 0x1
 12002 36b1 51       		.byte	0x51
 12003 36b2 02       		.uleb128 0x2
 12004 36b3 09       		.byte	0x9
 12005 36b4 ED       		.byte	0xed
 12006 36b5 00       		.byte	0
 12007 36b6 00       		.byte	0
 12008 36b7 07       		.uleb128 0x7
 12009 36b8 F83F0000 		.4byte	0x3ff8
 12010 36bc 90000000 		.4byte	.LBI392
 12011 36c0 0200     		.2byte	.LVU396
 12012 36c2 90000000 		.4byte	.LBB392
 12013 36c6 08000000 		.4byte	.LBE392-.LBB392
 12014 36ca 5901     		.2byte	0x159
 12015 36cc 05       		.byte	0x5
 12016 36cd 3F370000 		.4byte	0x373f
 12017 36d1 03       		.uleb128 0x3
 12018 36d2 26400000 		.4byte	0x4026
 12019 36d6 90000000 		.4byte	.LBI394
 12020 36da 0400     		.2byte	.LVU398
 12021 36dc 90000000 		.4byte	.LBB394
 12022 36e0 06000000 		.4byte	.LBE394-.LBB394
 12023 36e4 03       		.byte	0x3
 12024 36e5 6002     		.2byte	0x260
 12025 36e7 03       		.byte	0x3
 12026 36e8 03       		.uleb128 0x3
 12027 36e9 38400000 		.4byte	0x4038
 12028 36ed 90000000 		.4byte	.LBI395
 12029 36f1 0800     		.2byte	.LVU402
 12030 36f3 90000000 		.4byte	.LBB395
 12031 36f7 06000000 		.4byte	.LBE395-.LBB395
 12032 36fb 04       		.byte	0x4
 12033 36fc BA01     		.2byte	0x1ba
 12034 36fe 03       		.byte	0x3
 12035 36ff 03       		.uleb128 0x3
 12036 3700 4A400000 		.4byte	0x404a
 12037 3704 90000000 		.4byte	.LBI396
 12038 3708 0A00     		.2byte	.LVU404
 12039 370a 90000000 		.4byte	.LBB396
 12040 370e 06000000 		.4byte	.LBE396-.LBB396
 12041 3712 05       		.byte	0x5
 12042 3713 7C03     		.2byte	0x37c
 12043 3715 03       		.byte	0x3
 12044 3716 03       		.uleb128 0x3
 12045 3717 5C400000 		.4byte	0x405c
 12046 371b 90000000 		.4byte	.LBI397
ARM GAS  C:\Users\DEVELO~1\AppData\Local\Temp\ccJK6Gr9.s 			page 213


 12047 371f 0C00     		.2byte	.LVU406
 12048 3721 90000000 		.4byte	.LBB397
 12049 3725 06000000 		.4byte	.LBE397-.LBB397
 12050 3729 05       		.byte	0x5
 12051 372a 6303     		.2byte	0x363
 12052 372c 03       		.byte	0x3
 12053 372d 02       		.uleb128 0x2
 12054 372e 6A400000 		.4byte	0x406a
 12055 3732 8F0A0000 		.4byte	.LLST45
 12056 3736 8D0A0000 		.4byte	.LVUS45
 12057 373a 00       		.byte	0
 12058 373b 00       		.byte	0
 12059 373c 00       		.byte	0
 12060 373d 00       		.byte	0
 12061 373e 00       		.byte	0
 12062 373f 33       		.uleb128 0x33
 12063 3740 1E000000 		.4byte	.LVL46
 12064 3744 4F370000 		.4byte	0x374f
 12065 3748 01       		.uleb128 0x1
 12066 3749 01       		.uleb128 0x1
 12067 374a 50       		.byte	0x50
 12068 374b 02       		.uleb128 0x2
 12069 374c 74       		.byte	0x74
 12070 374d 00       		.sleb128 0
 12071 374e 00       		.byte	0
 12072 374f 33       		.uleb128 0x33
 12073 3750 30000000 		.4byte	.LVL47
 12074 3754 5F370000 		.4byte	0x375f
 12075 3758 01       		.uleb128 0x1
 12076 3759 01       		.uleb128 0x1
 12077 375a 50       		.byte	0x50
 12078 375b 02       		.uleb128 0x2
 12079 375c 74       		.byte	0x74
 12080 375d 00       		.sleb128 0
 12081 375e 00       		.byte	0
 12082 375f 06       		.uleb128 0x6
 12083 3760 3E000000 		.4byte	.LVL49
 12084 3764 5F3B0000 		.4byte	0x3b5f
 12085 3768 73370000 		.4byte	0x3773
 12086 376c 01       		.uleb128 0x1
 12087 376d 01       		.uleb128 0x1
 12088 376e 50       		.byte	0x50
 12089 376f 02       		.uleb128 0x2
 12090 3770 74       		.byte	0x74
 12091 3771 00       		.sleb128 0
 12092 3772 00       		.byte	0
 12093 3773 33       		.uleb128 0x33
 12094 3774 4A000000 		.4byte	.LVL50
 12095 3778 83370000 		.4byte	0x3783
 12096 377c 01       		.uleb128 0x1
 12097 377d 01       		.uleb128 0x1
 12098 377e 50       		.byte	0x50
 12099 377f 02       		.uleb128 0x2
 12100 3780 74       		.byte	0x74
 12101 3781 00       		.sleb128 0
 12102 3782 00       		.byte	0
 12103 3783 06       		.uleb128 0x6
ARM GAS  C:\Users\DEVELO~1\AppData\Local\Temp\ccJK6Gr9.s 			page 214


 12104 3784 74000000 		.4byte	.LVL59
 12105 3788 BF3B0000 		.4byte	0x3bbf
 12106 378c 97370000 		.4byte	0x3797
 12107 3790 01       		.uleb128 0x1
 12108 3791 01       		.uleb128 0x1
 12109 3792 50       		.byte	0x50
 12110 3793 02       		.uleb128 0x2
 12111 3794 74       		.byte	0x74
 12112 3795 00       		.sleb128 0
 12113 3796 00       		.byte	0
 12114 3797 1C       		.uleb128 0x1c
 12115 3798 7E000000 		.4byte	.LVL60
 12116 379c 01       		.uleb128 0x1
 12117 379d 01       		.uleb128 0x1
 12118 379e 50       		.byte	0x50
 12119 379f 02       		.uleb128 0x2
 12120 37a0 74       		.byte	0x74
 12121 37a1 00       		.sleb128 0
 12122 37a2 00       		.byte	0
 12123 37a3 00       		.byte	0
 12124 37a4 17       		.uleb128 0x17
 12125 37a5 81010000 		.4byte	.LASF314
 12126 37a9 01       		.byte	0x1
 12127 37aa 3501     		.2byte	0x135
 12128 37ac 0D       		.byte	0xd
 12129 37ad 01       		.byte	0x1
 12130 37ae CD370000 		.4byte	0x37cd
 12131 37b2 0C       		.uleb128 0xc
 12132 37b3 570F0000 		.4byte	.LASF280
 12133 37b7 01       		.byte	0x1
 12134 37b8 3501     		.2byte	0x135
 12135 37ba 38       		.byte	0x38
 12136 37bb DC130000 		.4byte	0x13dc
 12137 37bf 0C       		.uleb128 0xc
 12138 37c0 C7000000 		.4byte	.LASF37
 12139 37c4 01       		.byte	0x1
 12140 37c5 3501     		.2byte	0x135
 12141 37c7 47       		.byte	0x47
 12142 37c8 E9000000 		.4byte	0xe9
 12143 37cc 00       		.byte	0
 12144 37cd 46       		.uleb128 0x46
 12145 37ce 94070000 		.4byte	.LASF316
 12146 37d2 0D01     		.2byte	0x10d
 12147 37d4 00000000 		.4byte	.LFB453
 12148 37d8 A8000000 		.4byte	.LFE453-.LFB453
 12149 37dc 01       		.uleb128 0x1
 12150 37dd 9C       		.byte	0x9c
 12151 37de 5F3B0000 		.4byte	0x3b5f
 12152 37e2 0E       		.uleb128 0xe
 12153 37e3 570F0000 		.4byte	.LASF280
 12154 37e7 0D01     		.2byte	0x10d
 12155 37e9 38       		.byte	0x38
 12156 37ea DC130000 		.4byte	0x13dc
 12157 37ee A10A0000 		.4byte	.LLST46
 12158 37f2 990A0000 		.4byte	.LVUS46
 12159 37f6 0E       		.uleb128 0xe
 12160 37f7 C7000000 		.4byte	.LASF37
ARM GAS  C:\Users\DEVELO~1\AppData\Local\Temp\ccJK6Gr9.s 			page 215


 12161 37fb 0D01     		.2byte	0x10d
 12162 37fd 47       		.byte	0x47
 12163 37fe E9000000 		.4byte	0xe9
 12164 3802 C00A0000 		.4byte	.LLST47
 12165 3806 BC0A0000 		.4byte	.LVUS47
 12166 380a 07       		.uleb128 0x7
 12167 380b 01400000 		.4byte	0x4001
 12168 380f 4E000000 		.4byte	.LBI399
 12169 3813 0100     		.2byte	.LVU445
 12170 3815 4E000000 		.4byte	.LBB399
 12171 3819 06000000 		.4byte	.LBE399-.LBB399
 12172 381d 2B01     		.2byte	0x12b
 12173 381f 05       		.byte	0x5
 12174 3820 92380000 		.4byte	0x3892
 12175 3824 03       		.uleb128 0x3
 12176 3825 2F400000 		.4byte	0x402f
 12177 3829 4E000000 		.4byte	.LBI400
 12178 382d 0300     		.2byte	.LVU447
 12179 382f 4E000000 		.4byte	.LBB400
 12180 3833 06000000 		.4byte	.LBE400-.LBB400
 12181 3837 03       		.byte	0x3
 12182 3838 5502     		.2byte	0x255
 12183 383a 03       		.byte	0x3
 12184 383b 03       		.uleb128 0x3
 12185 383c 41400000 		.4byte	0x4041
 12186 3840 4E000000 		.4byte	.LBI401
 12187 3844 0500     		.2byte	.LVU449
 12188 3846 4E000000 		.4byte	.LBB401
 12189 384a 06000000 		.4byte	.LBE401-.LBB401
 12190 384e 04       		.byte	0x4
 12191 384f A201     		.2byte	0x1a2
 12192 3851 03       		.byte	0x3
 12193 3852 03       		.uleb128 0x3
 12194 3853 53400000 		.4byte	0x4053
 12195 3857 4E000000 		.4byte	.LBI402
 12196 385b 0700     		.2byte	.LVU451
 12197 385d 4E000000 		.4byte	.LBB402
 12198 3861 06000000 		.4byte	.LBE402-.LBB402
 12199 3865 05       		.byte	0x5
 12200 3866 7103     		.2byte	0x371
 12201 3868 03       		.byte	0x3
 12202 3869 03       		.uleb128 0x3
 12203 386a 5C400000 		.4byte	0x405c
 12204 386e 4E000000 		.4byte	.LBI403
 12205 3872 0900     		.2byte	.LVU453
 12206 3874 4E000000 		.4byte	.LBB403
 12207 3878 06000000 		.4byte	.LBE403-.LBB403
 12208 387c 05       		.byte	0x5
 12209 387d 5003     		.2byte	0x350
 12210 387f 03       		.byte	0x3
 12211 3880 02       		.uleb128 0x2
 12212 3881 6A400000 		.4byte	0x406a
 12213 3885 D30A0000 		.4byte	.LLST48
 12214 3889 D10A0000 		.4byte	.LVUS48
 12215 388d 00       		.byte	0
 12216 388e 00       		.byte	0
 12217 388f 00       		.byte	0
ARM GAS  C:\Users\DEVELO~1\AppData\Local\Temp\ccJK6Gr9.s 			page 216


 12218 3890 00       		.byte	0
 12219 3891 00       		.byte	0
 12220 3892 07       		.uleb128 0x7
 12221 3893 CF3F0000 		.4byte	0x3fcf
 12222 3897 54000000 		.4byte	.LBI405
 12223 389b 0400     		.2byte	.LVU459
 12224 389d 54000000 		.4byte	.LBB405
 12225 38a1 0A000000 		.4byte	.LBE405-.LBB405
 12226 38a5 2B01     		.2byte	0x12b
 12227 38a7 05       		.byte	0x5
 12228 38a8 DC380000 		.4byte	0x38dc
 12229 38ac 02       		.uleb128 0x2
 12230 38ad EA3F0000 		.4byte	0x3fea
 12231 38b1 E00A0000 		.4byte	.LLST49
 12232 38b5 DE0A0000 		.4byte	.LVUS49
 12233 38b9 02       		.uleb128 0x2
 12234 38ba DD3F0000 		.4byte	0x3fdd
 12235 38be F00A0000 		.4byte	.LLST50
 12236 38c2 EA0A0000 		.4byte	.LVUS50
 12237 38c6 0D       		.uleb128 0xd
 12238 38c7 5E000000 		.4byte	.LVL77
 12239 38cb 95150000 		.4byte	0x1595
 12240 38cf 01       		.uleb128 0x1
 12241 38d0 01       		.uleb128 0x1
 12242 38d1 50       		.byte	0x50
 12243 38d2 02       		.uleb128 0x2
 12244 38d3 74       		.byte	0x74
 12245 38d4 08       		.sleb128 8
 12246 38d5 01       		.uleb128 0x1
 12247 38d6 01       		.uleb128 0x1
 12248 38d7 51       		.byte	0x51
 12249 38d8 01       		.uleb128 0x1
 12250 38d9 30       		.byte	0x30
 12251 38da 00       		.byte	0
 12252 38db 00       		.byte	0
 12253 38dc 07       		.uleb128 0x7
 12254 38dd F83F0000 		.4byte	0x3ff8
 12255 38e1 5E000000 		.4byte	.LBI407
 12256 38e5 0200     		.2byte	.LVU464
 12257 38e7 5E000000 		.4byte	.LBB407
 12258 38eb 06000000 		.4byte	.LBE407-.LBB407
 12259 38ef 2B01     		.2byte	0x12b
 12260 38f1 05       		.byte	0x5
 12261 38f2 64390000 		.4byte	0x3964
 12262 38f6 03       		.uleb128 0x3
 12263 38f7 26400000 		.4byte	0x4026
 12264 38fb 5E000000 		.4byte	.LBI409
 12265 38ff 0400     		.2byte	.LVU466
 12266 3901 5E000000 		.4byte	.LBB409
 12267 3905 06000000 		.4byte	.LBE409-.LBB409
 12268 3909 03       		.byte	0x3
 12269 390a 6002     		.2byte	0x260
 12270 390c 03       		.byte	0x3
 12271 390d 03       		.uleb128 0x3
 12272 390e 38400000 		.4byte	0x4038
 12273 3912 5E000000 		.4byte	.LBI410
 12274 3916 0800     		.2byte	.LVU470
ARM GAS  C:\Users\DEVELO~1\AppData\Local\Temp\ccJK6Gr9.s 			page 217


 12275 3918 5E000000 		.4byte	.LBB410
 12276 391c 06000000 		.4byte	.LBE410-.LBB410
 12277 3920 04       		.byte	0x4
 12278 3921 BA01     		.2byte	0x1ba
 12279 3923 03       		.byte	0x3
 12280 3924 03       		.uleb128 0x3
 12281 3925 4A400000 		.4byte	0x404a
 12282 3929 5E000000 		.4byte	.LBI411
 12283 392d 0A00     		.2byte	.LVU472
 12284 392f 5E000000 		.4byte	.LBB411
 12285 3933 06000000 		.4byte	.LBE411-.LBB411
 12286 3937 05       		.byte	0x5
 12287 3938 7C03     		.2byte	0x37c
 12288 393a 03       		.byte	0x3
 12289 393b 03       		.uleb128 0x3
 12290 393c 5C400000 		.4byte	0x405c
 12291 3940 5E000000 		.4byte	.LBI412
 12292 3944 0C00     		.2byte	.LVU474
 12293 3946 5E000000 		.4byte	.LBB412
 12294 394a 06000000 		.4byte	.LBE412-.LBB412
 12295 394e 05       		.byte	0x5
 12296 394f 6303     		.2byte	0x363
 12297 3951 03       		.byte	0x3
 12298 3952 02       		.uleb128 0x2
 12299 3953 6A400000 		.4byte	0x406a
 12300 3957 0B0B0000 		.4byte	.LLST51
 12301 395b 090B0000 		.4byte	.LVUS51
 12302 395f 00       		.byte	0
 12303 3960 00       		.byte	0
 12304 3961 00       		.byte	0
 12305 3962 00       		.byte	0
 12306 3963 00       		.byte	0
 12307 3964 07       		.uleb128 0x7
 12308 3965 0A400000 		.4byte	0x400a
 12309 3969 66000000 		.4byte	.LBI414
 12310 396d 0100     		.2byte	.LVU481
 12311 396f 66000000 		.4byte	.LBB414
 12312 3973 06000000 		.4byte	.LBE414-.LBB414
 12313 3977 1201     		.2byte	0x112
 12314 3979 05       		.byte	0x5
 12315 397a 9F390000 		.4byte	0x399f
 12316 397e 02       		.uleb128 0x2
 12317 397f 18400000 		.4byte	0x4018
 12318 3983 170B0000 		.4byte	.LLST52
 12319 3987 150B0000 		.4byte	.LVUS52
 12320 398b 0D       		.uleb128 0xd
 12321 398c 6C000000 		.4byte	.LVL81
 12322 3990 F6140000 		.4byte	0x14f6
 12323 3994 01       		.uleb128 0x1
 12324 3995 01       		.uleb128 0x1
 12325 3996 50       		.byte	0x50
 12326 3997 05       		.uleb128 0x5
 12327 3998 03       		.byte	0x3
 12328 3999 00000000 		.4byte	.LC0
 12329 399d 00       		.byte	0
 12330 399e 00       		.byte	0
 12331 399f 07       		.uleb128 0x7
ARM GAS  C:\Users\DEVELO~1\AppData\Local\Temp\ccJK6Gr9.s 			page 218


 12332 39a0 01400000 		.4byte	0x4001
 12333 39a4 7C000000 		.4byte	.LBI416
 12334 39a8 0100     		.2byte	.LVU489
 12335 39aa 7C000000 		.4byte	.LBB416
 12336 39ae 06000000 		.4byte	.LBE416-.LBB416
 12337 39b2 1901     		.2byte	0x119
 12338 39b4 05       		.byte	0x5
 12339 39b5 273A0000 		.4byte	0x3a27
 12340 39b9 03       		.uleb128 0x3
 12341 39ba 2F400000 		.4byte	0x402f
 12342 39be 7C000000 		.4byte	.LBI417
 12343 39c2 0300     		.2byte	.LVU491
 12344 39c4 7C000000 		.4byte	.LBB417
 12345 39c8 06000000 		.4byte	.LBE417-.LBB417
 12346 39cc 03       		.byte	0x3
 12347 39cd 5502     		.2byte	0x255
 12348 39cf 03       		.byte	0x3
 12349 39d0 03       		.uleb128 0x3
 12350 39d1 41400000 		.4byte	0x4041
 12351 39d5 7C000000 		.4byte	.LBI418
 12352 39d9 0500     		.2byte	.LVU493
 12353 39db 7C000000 		.4byte	.LBB418
 12354 39df 06000000 		.4byte	.LBE418-.LBB418
 12355 39e3 04       		.byte	0x4
 12356 39e4 A201     		.2byte	0x1a2
 12357 39e6 03       		.byte	0x3
 12358 39e7 03       		.uleb128 0x3
 12359 39e8 53400000 		.4byte	0x4053
 12360 39ec 7C000000 		.4byte	.LBI419
 12361 39f0 0700     		.2byte	.LVU495
 12362 39f2 7C000000 		.4byte	.LBB419
 12363 39f6 06000000 		.4byte	.LBE419-.LBB419
 12364 39fa 05       		.byte	0x5
 12365 39fb 7103     		.2byte	0x371
 12366 39fd 03       		.byte	0x3
 12367 39fe 03       		.uleb128 0x3
 12368 39ff 5C400000 		.4byte	0x405c
 12369 3a03 7C000000 		.4byte	.LBI420
 12370 3a07 0900     		.2byte	.LVU497
 12371 3a09 7C000000 		.4byte	.LBB420
 12372 3a0d 06000000 		.4byte	.LBE420-.LBB420
 12373 3a11 05       		.byte	0x5
 12374 3a12 5003     		.2byte	0x350
 12375 3a14 03       		.byte	0x3
 12376 3a15 02       		.uleb128 0x2
 12377 3a16 6A400000 		.4byte	0x406a
 12378 3a1a 270B0000 		.4byte	.LLST53
 12379 3a1e 250B0000 		.4byte	.LVUS53
 12380 3a22 00       		.byte	0
 12381 3a23 00       		.byte	0
 12382 3a24 00       		.byte	0
 12383 3a25 00       		.byte	0
 12384 3a26 00       		.byte	0
 12385 3a27 07       		.uleb128 0x7
 12386 3a28 CF3F0000 		.4byte	0x3fcf
 12387 3a2c 82000000 		.4byte	.LBI422
 12388 3a30 0400     		.2byte	.LVU503
ARM GAS  C:\Users\DEVELO~1\AppData\Local\Temp\ccJK6Gr9.s 			page 219


 12389 3a32 82000000 		.4byte	.LBB422
 12390 3a36 0C000000 		.4byte	.LBE422-.LBB422
 12391 3a3a 1901     		.2byte	0x119
 12392 3a3c 05       		.byte	0x5
 12393 3a3d 723A0000 		.4byte	0x3a72
 12394 3a41 02       		.uleb128 0x2
 12395 3a42 EA3F0000 		.4byte	0x3fea
 12396 3a46 340B0000 		.4byte	.LLST54
 12397 3a4a 320B0000 		.4byte	.LVUS54
 12398 3a4e 02       		.uleb128 0x2
 12399 3a4f DD3F0000 		.4byte	0x3fdd
 12400 3a53 450B0000 		.4byte	.LLST55
 12401 3a57 3F0B0000 		.4byte	.LVUS55
 12402 3a5b 0D       		.uleb128 0xd
 12403 3a5c 8E000000 		.4byte	.LVL86
 12404 3a60 95150000 		.4byte	0x1595
 12405 3a64 01       		.uleb128 0x1
 12406 3a65 01       		.uleb128 0x1
 12407 3a66 50       		.byte	0x50
 12408 3a67 02       		.uleb128 0x2
 12409 3a68 74       		.byte	0x74
 12410 3a69 08       		.sleb128 8
 12411 3a6a 01       		.uleb128 0x1
 12412 3a6b 01       		.uleb128 0x1
 12413 3a6c 51       		.byte	0x51
 12414 3a6d 02       		.uleb128 0x2
 12415 3a6e 09       		.byte	0x9
 12416 3a6f ED       		.byte	0xed
 12417 3a70 00       		.byte	0
 12418 3a71 00       		.byte	0
 12419 3a72 07       		.uleb128 0x7
 12420 3a73 F83F0000 		.4byte	0x3ff8
 12421 3a77 8E000000 		.4byte	.LBI424
 12422 3a7b 0200     		.2byte	.LVU508
 12423 3a7d 8E000000 		.4byte	.LBB424
 12424 3a81 08000000 		.4byte	.LBE424-.LBB424
 12425 3a85 1901     		.2byte	0x119
 12426 3a87 05       		.byte	0x5
 12427 3a88 FA3A0000 		.4byte	0x3afa
 12428 3a8c 03       		.uleb128 0x3
 12429 3a8d 26400000 		.4byte	0x4026
 12430 3a91 8E000000 		.4byte	.LBI426
 12431 3a95 0400     		.2byte	.LVU510
 12432 3a97 8E000000 		.4byte	.LBB426
 12433 3a9b 06000000 		.4byte	.LBE426-.LBB426
 12434 3a9f 03       		.byte	0x3
 12435 3aa0 6002     		.2byte	0x260
 12436 3aa2 03       		.byte	0x3
 12437 3aa3 03       		.uleb128 0x3
 12438 3aa4 38400000 		.4byte	0x4038
 12439 3aa8 8E000000 		.4byte	.LBI427
 12440 3aac 0800     		.2byte	.LVU514
 12441 3aae 8E000000 		.4byte	.LBB427
 12442 3ab2 06000000 		.4byte	.LBE427-.LBB427
 12443 3ab6 04       		.byte	0x4
 12444 3ab7 BA01     		.2byte	0x1ba
 12445 3ab9 03       		.byte	0x3
ARM GAS  C:\Users\DEVELO~1\AppData\Local\Temp\ccJK6Gr9.s 			page 220


 12446 3aba 03       		.uleb128 0x3
 12447 3abb 4A400000 		.4byte	0x404a
 12448 3abf 8E000000 		.4byte	.LBI428
 12449 3ac3 0A00     		.2byte	.LVU516
 12450 3ac5 8E000000 		.4byte	.LBB428
 12451 3ac9 06000000 		.4byte	.LBE428-.LBB428
 12452 3acd 05       		.byte	0x5
 12453 3ace 7C03     		.2byte	0x37c
 12454 3ad0 03       		.byte	0x3
 12455 3ad1 03       		.uleb128 0x3
 12456 3ad2 5C400000 		.4byte	0x405c
 12457 3ad6 8E000000 		.4byte	.LBI429
 12458 3ada 0C00     		.2byte	.LVU518
 12459 3adc 8E000000 		.4byte	.LBB429
 12460 3ae0 06000000 		.4byte	.LBE429-.LBB429
 12461 3ae4 05       		.byte	0x5
 12462 3ae5 6303     		.2byte	0x363
 12463 3ae7 03       		.byte	0x3
 12464 3ae8 02       		.uleb128 0x2
 12465 3ae9 6A400000 		.4byte	0x406a
 12466 3aed 600B0000 		.4byte	.LLST56
 12467 3af1 5E0B0000 		.4byte	.LVUS56
 12468 3af5 00       		.byte	0
 12469 3af6 00       		.byte	0
 12470 3af7 00       		.byte	0
 12471 3af8 00       		.byte	0
 12472 3af9 00       		.byte	0
 12473 3afa 33       		.uleb128 0x33
 12474 3afb 1C000000 		.4byte	.LVL69
 12475 3aff 0A3B0000 		.4byte	0x3b0a
 12476 3b03 01       		.uleb128 0x1
 12477 3b04 01       		.uleb128 0x1
 12478 3b05 50       		.byte	0x50
 12479 3b06 02       		.uleb128 0x2
 12480 3b07 74       		.byte	0x74
 12481 3b08 00       		.sleb128 0
 12482 3b09 00       		.byte	0
 12483 3b0a 33       		.uleb128 0x33
 12484 3b0b 2E000000 		.4byte	.LVL70
 12485 3b0f 1A3B0000 		.4byte	0x3b1a
 12486 3b13 01       		.uleb128 0x1
 12487 3b14 01       		.uleb128 0x1
 12488 3b15 50       		.byte	0x50
 12489 3b16 02       		.uleb128 0x2
 12490 3b17 74       		.byte	0x74
 12491 3b18 00       		.sleb128 0
 12492 3b19 00       		.byte	0
 12493 3b1a 06       		.uleb128 0x6
 12494 3b1b 3C000000 		.4byte	.LVL72
 12495 3b1f 5F3B0000 		.4byte	0x3b5f
 12496 3b23 2E3B0000 		.4byte	0x3b2e
 12497 3b27 01       		.uleb128 0x1
 12498 3b28 01       		.uleb128 0x1
 12499 3b29 50       		.byte	0x50
 12500 3b2a 02       		.uleb128 0x2
 12501 3b2b 74       		.byte	0x74
 12502 3b2c 00       		.sleb128 0
ARM GAS  C:\Users\DEVELO~1\AppData\Local\Temp\ccJK6Gr9.s 			page 221


 12503 3b2d 00       		.byte	0
 12504 3b2e 33       		.uleb128 0x33
 12505 3b2f 48000000 		.4byte	.LVL73
 12506 3b33 3E3B0000 		.4byte	0x3b3e
 12507 3b37 01       		.uleb128 0x1
 12508 3b38 01       		.uleb128 0x1
 12509 3b39 50       		.byte	0x50
 12510 3b3a 02       		.uleb128 0x2
 12511 3b3b 74       		.byte	0x74
 12512 3b3c 00       		.sleb128 0
 12513 3b3d 00       		.byte	0
 12514 3b3e 06       		.uleb128 0x6
 12515 3b3f 72000000 		.4byte	.LVL82
 12516 3b43 BF3B0000 		.4byte	0x3bbf
 12517 3b47 523B0000 		.4byte	0x3b52
 12518 3b4b 01       		.uleb128 0x1
 12519 3b4c 01       		.uleb128 0x1
 12520 3b4d 50       		.byte	0x50
 12521 3b4e 02       		.uleb128 0x2
 12522 3b4f 74       		.byte	0x74
 12523 3b50 00       		.sleb128 0
 12524 3b51 00       		.byte	0
 12525 3b52 1C       		.uleb128 0x1c
 12526 3b53 7C000000 		.4byte	.LVL83
 12527 3b57 01       		.uleb128 0x1
 12528 3b58 01       		.uleb128 0x1
 12529 3b59 50       		.byte	0x50
 12530 3b5a 02       		.uleb128 0x2
 12531 3b5b 74       		.byte	0x74
 12532 3b5c 00       		.sleb128 0
 12533 3b5d 00       		.byte	0
 12534 3b5e 00       		.byte	0
 12535 3b5f 55       		.uleb128 0x55
 12536 3b60 E0030000 		.4byte	.LASF349
 12537 3b64 01       		.byte	0x1
 12538 3b65 D6       		.byte	0xd6
 12539 3b66 0E       		.byte	0xe
 12540 3b67 5F010000 		.4byte	0x15f
 12541 3b6b 00000000 		.4byte	.LFB452
 12542 3b6f B4000000 		.4byte	.LFE452-.LFB452
 12543 3b73 01       		.uleb128 0x1
 12544 3b74 9C       		.byte	0x9c
 12545 3b75 BF3B0000 		.4byte	0x3bbf
 12546 3b79 47       		.uleb128 0x47
 12547 3b7a 570F0000 		.4byte	.LASF280
 12548 3b7e D6       		.byte	0xd6
 12549 3b7f 2D       		.byte	0x2d
 12550 3b80 DC130000 		.4byte	0x13dc
 12551 3b84 7A0B0000 		.4byte	.LLST20
 12552 3b88 6A0B0000 		.4byte	.LVUS20
 12553 3b8c 18       		.uleb128 0x18
 12554 3b8d 1A3E0000 		.4byte	0x3e1a
 12555 3b91 94000000 		.4byte	.LBI345
 12556 3b95 0300     		.2byte	.LVU226
 12557 3b97 78000000 		.4byte	.LLRL21
 12558 3b9b 0001     		.2byte	0x100
 12559 3b9d 03       		.byte	0x3
ARM GAS  C:\Users\DEVELO~1\AppData\Local\Temp\ccJK6Gr9.s 			page 222


 12560 3b9e B53B0000 		.4byte	0x3bb5
 12561 3ba2 12       		.uleb128 0x12
 12562 3ba3 273E0000 		.4byte	0x3e27
 12563 3ba7 02       		.uleb128 0x2
 12564 3ba8 273E0000 		.4byte	0x3e27
 12565 3bac B80B0000 		.4byte	.LLST22
 12566 3bb0 B60B0000 		.4byte	.LVUS22
 12567 3bb4 00       		.byte	0
 12568 3bb5 29       		.uleb128 0x29
 12569 3bb6 B0000000 		.4byte	.LVL29
 12570 3bba BF3B0000 		.4byte	0x3bbf
 12571 3bbe 00       		.byte	0
 12572 3bbf 56       		.uleb128 0x56
 12573 3bc0 6D000000 		.4byte	.LASF317
 12574 3bc4 01       		.byte	0x1
 12575 3bc5 8A       		.byte	0x8a
 12576 3bc6 0D       		.byte	0xd
 12577 3bc7 00000000 		.4byte	.LFB451
 12578 3bcb A0010000 		.4byte	.LFE451-.LFB451
 12579 3bcf 01       		.uleb128 0x1
 12580 3bd0 9C       		.byte	0x9c
 12581 3bd1 053E0000 		.4byte	0x3e05
 12582 3bd5 47       		.uleb128 0x47
 12583 3bd6 570F0000 		.4byte	.LASF280
 12584 3bda 8A       		.byte	0x8a
 12585 3bdb 2B       		.byte	0x2b
 12586 3bdc DC130000 		.4byte	0x13dc
 12587 3be0 D40B0000 		.4byte	.LLST1
 12588 3be4 C40B0000 		.4byte	.LVUS1
 12589 3be8 28       		.uleb128 0x28
 12590 3be9 570E0000 		.4byte	.LASF295
 12591 3bed 153E0000 		.4byte	0x3e15
 12592 3bf1 3D       		.uleb128 0x3d
 12593 3bf2 683E0000 		.4byte	0x3e68
 12594 3bf6 5C000000 		.4byte	.LBI283
 12595 3bfa 0100     		.2byte	.LVU68
 12596 3bfc 5C000000 		.4byte	.LBB283
 12597 3c00 20000000 		.4byte	.LBE283-.LBB283
 12598 3c04 C5       		.byte	0xc5
 12599 3c05 3C3C0000 		.4byte	0x3c3c
 12600 3c09 02       		.uleb128 0x2
 12601 3c0a 763E0000 		.4byte	0x3e76
 12602 3c0e 1F0C0000 		.4byte	.LLST2
 12603 3c12 1D0C0000 		.4byte	.LVUS2
 12604 3c16 03       		.uleb128 0x3
 12605 3c17 813F0000 		.4byte	0x3f81
 12606 3c1b 5C000000 		.4byte	.LBI285
 12607 3c1f 0300     		.2byte	.LVU70
 12608 3c21 5C000000 		.4byte	.LBB285
 12609 3c25 1E000000 		.4byte	.LBE285-.LBB285
 12610 3c29 02       		.byte	0x2
 12611 3c2a 3F02     		.2byte	0x23f
 12612 3c2c 03       		.byte	0x3
 12613 3c2d 02       		.uleb128 0x2
 12614 3c2e 8E3F0000 		.4byte	0x3f8e
 12615 3c32 2C0C0000 		.4byte	.LLST3
 12616 3c36 2A0C0000 		.4byte	.LVUS3
ARM GAS  C:\Users\DEVELO~1\AppData\Local\Temp\ccJK6Gr9.s 			page 223


 12617 3c3a 00       		.byte	0
 12618 3c3b 00       		.byte	0
 12619 3c3c 3E       		.uleb128 0x3e
 12620 3c3d C83E0000 		.4byte	0x3ec8
 12621 3c41 BA000000 		.4byte	.LBI287
 12622 3c45 0100     		.2byte	.LVU99
 12623 3c47 0C000000 		.4byte	.LLRL4
 12624 3c4b A7       		.byte	0xa7
 12625 3c4c 7E3C0000 		.4byte	0x3c7e
 12626 3c50 02       		.uleb128 0x2
 12627 3c51 D63E0000 		.4byte	0x3ed6
 12628 3c55 390C0000 		.4byte	.LLST5
 12629 3c59 370C0000 		.4byte	.LVUS5
 12630 3c5d 27       		.uleb128 0x27
 12631 3c5e 9B3F0000 		.4byte	0x3f9b
 12632 3c62 BA000000 		.4byte	.LBI289
 12633 3c66 0300     		.2byte	.LVU101
 12634 3c68 1E000000 		.4byte	.LLRL6
 12635 3c6c 02       		.byte	0x2
 12636 3c6d 8D01     		.2byte	0x18d
 12637 3c6f 02       		.uleb128 0x2
 12638 3c70 A83F0000 		.4byte	0x3fa8
 12639 3c74 470C0000 		.4byte	.LLST7
 12640 3c78 450C0000 		.4byte	.LVUS7
 12641 3c7c 00       		.byte	0
 12642 3c7d 00       		.byte	0
 12643 3c7e 3D       		.uleb128 0x3d
 12644 3c7f 283F0000 		.4byte	0x3f28
 12645 3c83 E4000000 		.4byte	.LBI303
 12646 3c87 0100     		.2byte	.LVU117
 12647 3c89 E4000000 		.4byte	.LBB303
 12648 3c8d 1E000000 		.4byte	.LBE303-.LBB303
 12649 3c91 AD       		.byte	0xad
 12650 3c92 C83C0000 		.4byte	0x3cc8
 12651 3c96 02       		.uleb128 0x2
 12652 3c97 353F0000 		.4byte	0x3f35
 12653 3c9b 550C0000 		.4byte	.LLST8
 12654 3c9f 530C0000 		.4byte	.LVUS8
 12655 3ca3 20       		.uleb128 0x20
 12656 3ca4 B53F0000 		.4byte	0x3fb5
 12657 3ca8 E4000000 		.4byte	.LBI305
 12658 3cac 0300     		.2byte	.LVU119
 12659 3cae E4000000 		.4byte	.LBB305
 12660 3cb2 1E000000 		.4byte	.LBE305-.LBB305
 12661 3cb6 02       		.byte	0x2
 12662 3cb7 DB       		.byte	0xdb
 12663 3cb8 03       		.byte	0x3
 12664 3cb9 02       		.uleb128 0x2
 12665 3cba C23F0000 		.4byte	0x3fc2
 12666 3cbe 630C0000 		.4byte	.LLST9
 12667 3cc2 610C0000 		.4byte	.LVUS9
 12668 3cc6 00       		.byte	0
 12669 3cc7 00       		.byte	0
 12670 3cc8 3D       		.uleb128 0x3d
 12671 3cc9 C83E0000 		.4byte	0x3ec8
 12672 3ccd 0E010000 		.4byte	.LBI307
 12673 3cd1 0100     		.2byte	.LVU132
ARM GAS  C:\Users\DEVELO~1\AppData\Local\Temp\ccJK6Gr9.s 			page 224


 12674 3cd3 0E010000 		.4byte	.LBB307
 12675 3cd7 20000000 		.4byte	.LBE307-.LBB307
 12676 3cdb BF       		.byte	0xbf
 12677 3cdc 133D0000 		.4byte	0x3d13
 12678 3ce0 02       		.uleb128 0x2
 12679 3ce1 D63E0000 		.4byte	0x3ed6
 12680 3ce5 710C0000 		.4byte	.LLST10
 12681 3ce9 6F0C0000 		.4byte	.LVUS10
 12682 3ced 03       		.uleb128 0x3
 12683 3cee 9B3F0000 		.4byte	0x3f9b
 12684 3cf2 0E010000 		.4byte	.LBI309
 12685 3cf6 0300     		.2byte	.LVU134
 12686 3cf8 0E010000 		.4byte	.LBB309
 12687 3cfc 1E000000 		.4byte	.LBE309-.LBB309
 12688 3d00 02       		.byte	0x2
 12689 3d01 8D01     		.2byte	0x18d
 12690 3d03 03       		.byte	0x3
 12691 3d04 02       		.uleb128 0x2
 12692 3d05 A83F0000 		.4byte	0x3fa8
 12693 3d09 7F0C0000 		.4byte	.LLST11
 12694 3d0d 7D0C0000 		.4byte	.LVUS11
 12695 3d11 00       		.byte	0
 12696 3d12 00       		.byte	0
 12697 3d13 3E       		.uleb128 0x3e
 12698 3d14 283F0000 		.4byte	0x3f28
 12699 3d18 2E010000 		.4byte	.LBI311
 12700 3d1c 0200     		.2byte	.LVU144
 12701 3d1e 30000000 		.4byte	.LLRL12
 12702 3d22 B3       		.byte	0xb3
 12703 3d23 553D0000 		.4byte	0x3d55
 12704 3d27 02       		.uleb128 0x2
 12705 3d28 353F0000 		.4byte	0x3f35
 12706 3d2c 8D0C0000 		.4byte	.LLST13
 12707 3d30 8B0C0000 		.4byte	.LVUS13
 12708 3d34 57       		.uleb128 0x57
 12709 3d35 B53F0000 		.4byte	0x3fb5
 12710 3d39 2E010000 		.4byte	.LBI313
 12711 3d3d 0400     		.2byte	.LVU146
 12712 3d3f 42000000 		.4byte	.LLRL14
 12713 3d43 02       		.byte	0x2
 12714 3d44 DB       		.byte	0xdb
 12715 3d45 03       		.byte	0x3
 12716 3d46 02       		.uleb128 0x2
 12717 3d47 C23F0000 		.4byte	0x3fc2
 12718 3d4b 9B0C0000 		.4byte	.LLST15
 12719 3d4f 990C0000 		.4byte	.LVUS15
 12720 3d53 00       		.byte	0
 12721 3d54 00       		.byte	0
 12722 3d55 3E       		.uleb128 0x3e
 12723 3d56 C83E0000 		.4byte	0x3ec8
 12724 3d5a 58010000 		.4byte	.LBI327
 12725 3d5e 0100     		.2byte	.LVU162
 12726 3d60 54000000 		.4byte	.LLRL16
 12727 3d64 B9       		.byte	0xb9
 12728 3d65 973D0000 		.4byte	0x3d97
 12729 3d69 02       		.uleb128 0x2
 12730 3d6a D63E0000 		.4byte	0x3ed6
ARM GAS  C:\Users\DEVELO~1\AppData\Local\Temp\ccJK6Gr9.s 			page 225


 12731 3d6e A90C0000 		.4byte	.LLST17
 12732 3d72 A70C0000 		.4byte	.LVUS17
 12733 3d76 27       		.uleb128 0x27
 12734 3d77 9B3F0000 		.4byte	0x3f9b
 12735 3d7b 58010000 		.4byte	.LBI329
 12736 3d7f 0300     		.2byte	.LVU164
 12737 3d81 66000000 		.4byte	.LLRL18
 12738 3d85 02       		.byte	0x2
 12739 3d86 8D01     		.2byte	0x18d
 12740 3d88 02       		.uleb128 0x2
 12741 3d89 A83F0000 		.4byte	0x3fa8
 12742 3d8d B70C0000 		.4byte	.LLST19
 12743 3d91 B50C0000 		.4byte	.LVUS19
 12744 3d95 00       		.byte	0
 12745 3d96 00       		.byte	0
 12746 3d97 3F       		.uleb128 0x3f
 12747 3d98 E4000000 		.4byte	.LVL8
 12748 3d9c 78400000 		.4byte	0x4078
 12749 3da0 B13D0000 		.4byte	0x3db1
 12750 3da4 01       		.uleb128 0x1
 12751 3da5 01       		.uleb128 0x1
 12752 3da6 50       		.byte	0x50
 12753 3da7 02       		.uleb128 0x2
 12754 3da8 70       		.byte	0x70
 12755 3da9 00       		.sleb128 0
 12756 3daa 01       		.uleb128 0x1
 12757 3dab 01       		.uleb128 0x1
 12758 3dac 51       		.byte	0x51
 12759 3dad 02       		.uleb128 0x2
 12760 3dae 71       		.byte	0x71
 12761 3daf 00       		.sleb128 0
 12762 3db0 00       		.byte	0
 12763 3db1 3F       		.uleb128 0x3f
 12764 3db2 0E010000 		.4byte	.LVL11
 12765 3db6 78400000 		.4byte	0x4078
 12766 3dba D43D0000 		.4byte	0x3dd4
 12767 3dbe 01       		.uleb128 0x1
 12768 3dbf 01       		.uleb128 0x1
 12769 3dc0 50       		.byte	0x50
 12770 3dc1 02       		.uleb128 0x2
 12771 3dc2 70       		.byte	0x70
 12772 3dc3 00       		.sleb128 0
 12773 3dc4 01       		.uleb128 0x1
 12774 3dc5 01       		.uleb128 0x1
 12775 3dc6 51       		.byte	0x51
 12776 3dc7 02       		.uleb128 0x2
 12777 3dc8 71       		.byte	0x71
 12778 3dc9 00       		.sleb128 0
 12779 3dca 40       		.uleb128 0x40
 12780 3dcb 5B3E0000 		.4byte	0x3e5b
 12781 3dcf 03       		.uleb128 0x3
 12782 3dd0 A3       		.byte	0xa3
 12783 3dd1 01       		.uleb128 0x1
 12784 3dd2 50       		.byte	0x50
 12785 3dd3 00       		.byte	0
 12786 3dd4 3F       		.uleb128 0x3f
 12787 3dd5 58010000 		.4byte	.LVL16
ARM GAS  C:\Users\DEVELO~1\AppData\Local\Temp\ccJK6Gr9.s 			page 226


 12788 3dd9 78400000 		.4byte	0x4078
 12789 3ddd EE3D0000 		.4byte	0x3dee
 12790 3de1 01       		.uleb128 0x1
 12791 3de2 01       		.uleb128 0x1
 12792 3de3 50       		.byte	0x50
 12793 3de4 02       		.uleb128 0x2
 12794 3de5 70       		.byte	0x70
 12795 3de6 00       		.sleb128 0
 12796 3de7 01       		.uleb128 0x1
 12797 3de8 01       		.uleb128 0x1
 12798 3de9 51       		.byte	0x51
 12799 3dea 02       		.uleb128 0x2
 12800 3deb 71       		.byte	0x71
 12801 3dec 00       		.sleb128 0
 12802 3ded 00       		.byte	0
 12803 3dee 3C       		.uleb128 0x3c
 12804 3def 82010000 		.4byte	.LVL19
 12805 3df3 78400000 		.4byte	0x4078
 12806 3df7 01       		.uleb128 0x1
 12807 3df8 01       		.uleb128 0x1
 12808 3df9 50       		.byte	0x50
 12809 3dfa 02       		.uleb128 0x2
 12810 3dfb 70       		.byte	0x70
 12811 3dfc 00       		.sleb128 0
 12812 3dfd 01       		.uleb128 0x1
 12813 3dfe 01       		.uleb128 0x1
 12814 3dff 51       		.byte	0x51
 12815 3e00 02       		.uleb128 0x2
 12816 3e01 71       		.byte	0x71
 12817 3e02 00       		.sleb128 0
 12818 3e03 00       		.byte	0
 12819 3e04 00       		.byte	0
 12820 3e05 14       		.uleb128 0x14
 12821 3e06 9E030000 		.4byte	0x39e
 12822 3e0a 153E0000 		.4byte	0x3e15
 12823 3e0e 15       		.uleb128 0x15
 12824 3e0f 39000000 		.4byte	0x39
 12825 3e13 12       		.byte	0x12
 12826 3e14 00       		.byte	0
 12827 3e15 11       		.uleb128 0x11
 12828 3e16 053E0000 		.4byte	0x3e05
 12829 3e1a 1D       		.uleb128 0x1d
 12830 3e1b 09070000 		.4byte	.LASF318
 12831 3e1f 01       		.byte	0x1
 12832 3e20 7D       		.byte	0x7d
 12833 3e21 0D       		.byte	0xd
 12834 3e22 01       		.byte	0x1
 12835 3e23 343E0000 		.4byte	0x3e34
 12836 3e27 1E       		.uleb128 0x1e
 12837 3e28 570F0000 		.4byte	.LASF280
 12838 3e2c 01       		.byte	0x1
 12839 3e2d 7D       		.byte	0x7d
 12840 3e2e 28       		.byte	0x28
 12841 3e2f DC130000 		.4byte	0x13dc
 12842 3e33 00       		.byte	0
 12843 3e34 1D       		.uleb128 0x1d
 12844 3e35 1C0B0000 		.4byte	.LASF319
ARM GAS  C:\Users\DEVELO~1\AppData\Local\Temp\ccJK6Gr9.s 			page 227


 12845 3e39 01       		.byte	0x1
 12846 3e3a 76       		.byte	0x76
 12847 3e3b 0D       		.byte	0xd
 12848 3e3c 01       		.byte	0x1
 12849 3e3d 4E3E0000 		.4byte	0x3e4e
 12850 3e41 1E       		.uleb128 0x1e
 12851 3e42 570F0000 		.4byte	.LASF280
 12852 3e46 01       		.byte	0x1
 12853 3e47 76       		.byte	0x76
 12854 3e48 27       		.byte	0x27
 12855 3e49 DC130000 		.4byte	0x13dc
 12856 3e4d 00       		.byte	0
 12857 3e4e 1D       		.uleb128 0x1d
 12858 3e4f F7060000 		.4byte	.LASF320
 12859 3e53 01       		.byte	0x1
 12860 3e54 63       		.byte	0x63
 12861 3e55 0D       		.byte	0xd
 12862 3e56 01       		.byte	0x1
 12863 3e57 683E0000 		.4byte	0x3e68
 12864 3e5b 1E       		.uleb128 0x1e
 12865 3e5c 570F0000 		.4byte	.LASF280
 12866 3e60 01       		.byte	0x1
 12867 3e61 63       		.byte	0x63
 12868 3e62 2A       		.byte	0x2a
 12869 3e63 DC130000 		.4byte	0x13dc
 12870 3e67 00       		.byte	0
 12871 3e68 17       		.uleb128 0x17
 12872 3e69 80020000 		.4byte	.LASF321
 12873 3e6d 02       		.byte	0x2
 12874 3e6e 3302     		.2byte	0x233
 12875 3e70 16       		.byte	0x16
 12876 3e71 03       		.byte	0x3
 12877 3e72 843E0000 		.4byte	0x3e84
 12878 3e76 0C       		.uleb128 0xc
 12879 3e77 F4070000 		.4byte	.LASF62
 12880 3e7b 02       		.byte	0x2
 12881 3e7c 3302     		.2byte	0x233
 12882 3e7e 2C       		.byte	0x2c
 12883 3e7f E9000000 		.4byte	0xe9
 12884 3e83 00       		.byte	0
 12885 3e84 17       		.uleb128 0x17
 12886 3e85 3D0D0000 		.4byte	.LASF322
 12887 3e89 02       		.byte	0x2
 12888 3e8a 1102     		.2byte	0x211
 12889 3e8c 16       		.byte	0x16
 12890 3e8d 03       		.byte	0x3
 12891 3e8e A03E0000 		.4byte	0x3ea0
 12892 3e92 0C       		.uleb128 0xc
 12893 3e93 F4070000 		.4byte	.LASF62
 12894 3e97 02       		.byte	0x2
 12895 3e98 1102     		.2byte	0x211
 12896 3e9a 2E       		.byte	0x2e
 12897 3e9b E9000000 		.4byte	0xe9
 12898 3e9f 00       		.byte	0
 12899 3ea0 17       		.uleb128 0x17
 12900 3ea1 FF0C0000 		.4byte	.LASF323
 12901 3ea5 02       		.byte	0x2
ARM GAS  C:\Users\DEVELO~1\AppData\Local\Temp\ccJK6Gr9.s 			page 228


 12902 3ea6 F101     		.2byte	0x1f1
 12903 3ea8 16       		.byte	0x16
 12904 3ea9 03       		.byte	0x3
 12905 3eaa C83E0000 		.4byte	0x3ec8
 12906 3eae 0C       		.uleb128 0xc
 12907 3eaf F4070000 		.4byte	.LASF62
 12908 3eb3 02       		.byte	0x2
 12909 3eb4 F101     		.2byte	0x1f1
 12910 3eb6 2D       		.byte	0x2d
 12911 3eb7 E9000000 		.4byte	0xe9
 12912 3ebb 38       		.uleb128 0x38
 12913 3ebc 6C7000   		.ascii	"lp\000"
 12914 3ebf 02       		.byte	0x2
 12915 3ec0 F101     		.2byte	0x1f1
 12916 3ec2 38       		.byte	0x38
 12917 3ec3 30100000 		.4byte	0x1030
 12918 3ec7 00       		.byte	0
 12919 3ec8 17       		.uleb128 0x17
 12920 3ec9 6D020000 		.4byte	.LASF324
 12921 3ecd 02       		.byte	0x2
 12922 3ece 8101     		.2byte	0x181
 12923 3ed0 16       		.byte	0x16
 12924 3ed1 03       		.byte	0x3
 12925 3ed2 E43E0000 		.4byte	0x3ee4
 12926 3ed6 0C       		.uleb128 0xc
 12927 3ed7 F4070000 		.4byte	.LASF62
 12928 3edb 02       		.byte	0x2
 12929 3edc 8101     		.2byte	0x181
 12930 3ede 2C       		.byte	0x2c
 12931 3edf E9000000 		.4byte	0xe9
 12932 3ee3 00       		.byte	0
 12933 3ee4 17       		.uleb128 0x17
 12934 3ee5 2E0D0000 		.4byte	.LASF325
 12935 3ee9 02       		.byte	0x2
 12936 3eea 5F01     		.2byte	0x15f
 12937 3eec 16       		.byte	0x16
 12938 3eed 03       		.byte	0x3
 12939 3eee 003F0000 		.4byte	0x3f00
 12940 3ef2 0C       		.uleb128 0xc
 12941 3ef3 F4070000 		.4byte	.LASF62
 12942 3ef7 02       		.byte	0x2
 12943 3ef8 5F01     		.2byte	0x15f
 12944 3efa 2E       		.byte	0x2e
 12945 3efb E9000000 		.4byte	0xe9
 12946 3eff 00       		.byte	0
 12947 3f00 17       		.uleb128 0x17
 12948 3f01 F10C0000 		.4byte	.LASF326
 12949 3f05 02       		.byte	0x2
 12950 3f06 3F01     		.2byte	0x13f
 12951 3f08 16       		.byte	0x16
 12952 3f09 03       		.byte	0x3
 12953 3f0a 283F0000 		.4byte	0x3f28
 12954 3f0e 0C       		.uleb128 0xc
 12955 3f0f F4070000 		.4byte	.LASF62
 12956 3f13 02       		.byte	0x2
 12957 3f14 3F01     		.2byte	0x13f
 12958 3f16 2D       		.byte	0x2d
ARM GAS  C:\Users\DEVELO~1\AppData\Local\Temp\ccJK6Gr9.s 			page 229


 12959 3f17 E9000000 		.4byte	0xe9
 12960 3f1b 38       		.uleb128 0x38
 12961 3f1c 6C7000   		.ascii	"lp\000"
 12962 3f1f 02       		.byte	0x2
 12963 3f20 3F01     		.2byte	0x13f
 12964 3f22 38       		.byte	0x38
 12965 3f23 30100000 		.4byte	0x1030
 12966 3f27 00       		.byte	0
 12967 3f28 1D       		.uleb128 0x1d
 12968 3f29 37000000 		.4byte	.LASF327
 12969 3f2d 02       		.byte	0x2
 12970 3f2e CF       		.byte	0xcf
 12971 3f2f 16       		.byte	0x16
 12972 3f30 03       		.byte	0x3
 12973 3f31 423F0000 		.4byte	0x3f42
 12974 3f35 1E       		.uleb128 0x1e
 12975 3f36 F4070000 		.4byte	.LASF62
 12976 3f3a 02       		.byte	0x2
 12977 3f3b CF       		.byte	0xcf
 12978 3f3c 2D       		.byte	0x2d
 12979 3f3d E9000000 		.4byte	0xe9
 12980 3f41 00       		.byte	0
 12981 3f42 1D       		.uleb128 0x1d
 12982 3f43 CC020000 		.4byte	.LASF328
 12983 3f47 02       		.byte	0x2
 12984 3f48 AD       		.byte	0xad
 12985 3f49 16       		.byte	0x16
 12986 3f4a 03       		.byte	0x3
 12987 3f4b 5C3F0000 		.4byte	0x3f5c
 12988 3f4f 1E       		.uleb128 0x1e
 12989 3f50 F4070000 		.4byte	.LASF62
 12990 3f54 02       		.byte	0x2
 12991 3f55 AD       		.byte	0xad
 12992 3f56 2F       		.byte	0x2f
 12993 3f57 E9000000 		.4byte	0xe9
 12994 3f5b 00       		.byte	0
 12995 3f5c 1D       		.uleb128 0x1d
 12996 3f5d BE0D0000 		.4byte	.LASF329
 12997 3f61 02       		.byte	0x2
 12998 3f62 8D       		.byte	0x8d
 12999 3f63 16       		.byte	0x16
 13000 3f64 03       		.byte	0x3
 13001 3f65 813F0000 		.4byte	0x3f81
 13002 3f69 1E       		.uleb128 0x1e
 13003 3f6a F4070000 		.4byte	.LASF62
 13004 3f6e 02       		.byte	0x2
 13005 3f6f 8D       		.byte	0x8d
 13006 3f70 2E       		.byte	0x2e
 13007 3f71 E9000000 		.4byte	0xe9
 13008 3f75 58       		.uleb128 0x58
 13009 3f76 6C7000   		.ascii	"lp\000"
 13010 3f79 02       		.byte	0x2
 13011 3f7a 8D       		.byte	0x8d
 13012 3f7b 39       		.byte	0x39
 13013 3f7c 30100000 		.4byte	0x1030
 13014 3f80 00       		.byte	0
 13015 3f81 1D       		.uleb128 0x1d
ARM GAS  C:\Users\DEVELO~1\AppData\Local\Temp\ccJK6Gr9.s 			page 230


 13016 3f82 41090000 		.4byte	.LASF330
 13017 3f86 02       		.byte	0x2
 13018 3f87 59       		.byte	0x59
 13019 3f88 16       		.byte	0x16
 13020 3f89 03       		.byte	0x3
 13021 3f8a 9B3F0000 		.4byte	0x3f9b
 13022 3f8e 1E       		.uleb128 0x1e
 13023 3f8f F4070000 		.4byte	.LASF62
 13024 3f93 02       		.byte	0x2
 13025 3f94 59       		.byte	0x59
 13026 3f95 2E       		.byte	0x2e
 13027 3f96 E9000000 		.4byte	0xe9
 13028 3f9a 00       		.byte	0
 13029 3f9b 1D       		.uleb128 0x1d
 13030 3f9c 32090000 		.4byte	.LASF331
 13031 3fa0 02       		.byte	0x2
 13032 3fa1 49       		.byte	0x49
 13033 3fa2 16       		.byte	0x16
 13034 3fa3 03       		.byte	0x3
 13035 3fa4 B53F0000 		.4byte	0x3fb5
 13036 3fa8 1E       		.uleb128 0x1e
 13037 3fa9 F4070000 		.4byte	.LASF62
 13038 3fad 02       		.byte	0x2
 13039 3fae 49       		.byte	0x49
 13040 3faf 2E       		.byte	0x2e
 13041 3fb0 E9000000 		.4byte	0xe9
 13042 3fb4 00       		.byte	0
 13043 3fb5 1D       		.uleb128 0x1d
 13044 3fb6 1E050000 		.4byte	.LASF332
 13045 3fba 02       		.byte	0x2
 13046 3fbb 39       		.byte	0x39
 13047 3fbc 16       		.byte	0x16
 13048 3fbd 03       		.byte	0x3
 13049 3fbe CF3F0000 		.4byte	0x3fcf
 13050 3fc2 1E       		.uleb128 0x1e
 13051 3fc3 F4070000 		.4byte	.LASF62
 13052 3fc7 02       		.byte	0x2
 13053 3fc8 39       		.byte	0x39
 13054 3fc9 2F       		.byte	0x2f
 13055 3fca E9000000 		.4byte	0xe9
 13056 3fce 00       		.byte	0
 13057 3fcf 17       		.uleb128 0x17
 13058 3fd0 6D0E0000 		.4byte	.LASF333
 13059 3fd4 03       		.byte	0x3
 13060 3fd5 4503     		.2byte	0x345
 13061 3fd7 14       		.byte	0x14
 13062 3fd8 03       		.byte	0x3
 13063 3fd9 F83F0000 		.4byte	0x3ff8
 13064 3fdd 38       		.uleb128 0x38
 13065 3fde 74727000 		.ascii	"trp\000"
 13066 3fe2 03       		.byte	0x3
 13067 3fe3 4503     		.2byte	0x345
 13068 3fe5 3A       		.byte	0x3a
 13069 3fe6 050F0000 		.4byte	0xf05
 13070 3fea 38       		.uleb128 0x38
 13071 3feb 6D736700 		.ascii	"msg\000"
 13072 3fef 03       		.byte	0x3
ARM GAS  C:\Users\DEVELO~1\AppData\Local\Temp\ccJK6Gr9.s 			page 231


 13073 3ff0 4503     		.2byte	0x345
 13074 3ff2 45       		.byte	0x45
 13075 3ff3 5F010000 		.4byte	0x15f
 13076 3ff7 00       		.byte	0
 13077 3ff8 22       		.uleb128 0x22
 13078 3ff9 2B0B0000 		.4byte	.LASF334
 13079 3ffd 03       		.byte	0x3
 13080 3ffe 5E02     		.2byte	0x25e
 13081 4000 14       		.byte	0x14
 13082 4001 22       		.uleb128 0x22
 13083 4002 DD040000 		.4byte	.LASF335
 13084 4006 03       		.byte	0x3
 13085 4007 5302     		.2byte	0x253
 13086 4009 14       		.byte	0x14
 13087 400a 17       		.uleb128 0x17
 13088 400b 890A0000 		.4byte	.LASF336
 13089 400f 03       		.byte	0x3
 13090 4010 1E02     		.2byte	0x21e
 13091 4012 14       		.byte	0x14
 13092 4013 03       		.byte	0x3
 13093 4014 26400000 		.4byte	0x4026
 13094 4018 0C       		.uleb128 0xc
 13095 4019 F4030000 		.4byte	.LASF71
 13096 401d 03       		.byte	0x3
 13097 401e 1E02     		.2byte	0x21e
 13098 4020 2C       		.byte	0x2c
 13099 4021 8D030000 		.4byte	0x38d
 13100 4025 00       		.byte	0
 13101 4026 22       		.uleb128 0x22
 13102 4027 9F040000 		.4byte	.LASF337
 13103 402b 04       		.byte	0x4
 13104 402c B601     		.2byte	0x1b6
 13105 402e 14       		.byte	0x14
 13106 402f 22       		.uleb128 0x22
 13107 4030 27020000 		.4byte	.LASF338
 13108 4034 04       		.byte	0x4
 13109 4035 A001     		.2byte	0x1a0
 13110 4037 14       		.byte	0x14
 13111 4038 22       		.uleb128 0x22
 13112 4039 890C0000 		.4byte	.LASF339
 13113 403d 05       		.byte	0x5
 13114 403e 7A03     		.2byte	0x37a
 13115 4040 1B       		.byte	0x1b
 13116 4041 22       		.uleb128 0x22
 13117 4042 C8010000 		.4byte	.LASF340
 13118 4046 05       		.byte	0x5
 13119 4047 6F03     		.2byte	0x36f
 13120 4049 1B       		.byte	0x1b
 13121 404a 22       		.uleb128 0x22
 13122 404b 7F0E0000 		.4byte	.LASF341
 13123 404f 05       		.byte	0x5
 13124 4050 6003     		.2byte	0x360
 13125 4052 1B       		.byte	0x1b
 13126 4053 22       		.uleb128 0x22
 13127 4054 77010000 		.4byte	.LASF342
 13128 4058 05       		.byte	0x5
 13129 4059 4803     		.2byte	0x348
ARM GAS  C:\Users\DEVELO~1\AppData\Local\Temp\ccJK6Gr9.s 			page 232


 13130 405b 1B       		.byte	0x1b
 13131 405c 17       		.uleb128 0x17
 13132 405d BC0A0000 		.4byte	.LASF343
 13133 4061 06       		.byte	0x6
 13134 4062 EB01     		.2byte	0x1eb
 13135 4064 1B       		.byte	0x1b
 13136 4065 03       		.byte	0x3
 13137 4066 78400000 		.4byte	0x4078
 13138 406a 0C       		.uleb128 0xc
 13139 406b 8E040000 		.4byte	.LASF344
 13140 406f 06       		.byte	0x6
 13141 4070 EB01     		.2byte	0x1eb
 13142 4072 32       		.byte	0x32
 13143 4073 E9000000 		.4byte	0xe9
 13144 4077 00       		.byte	0
 13145 4078 41       		.uleb128 0x41
 13146 4079 4E3E0000 		.4byte	0x3e4e
 13147 407d 00000000 		.4byte	.LFB479
 13148 4081 58000000 		.4byte	.LFE479-.LFB479
 13149 4085 01       		.uleb128 0x1
 13150 4086 9C       		.byte	0x9c
 13151 4087 9E400000 		.4byte	0x409e
 13152 408b 02       		.uleb128 0x2
 13153 408c 5B3E0000 		.4byte	0x3e5b
 13154 4090 C50C0000 		.4byte	.LLST0
 13155 4094 C30C0000 		.4byte	.LVUS0
 13156 4098 12       		.uleb128 0x12
 13157 4099 5B3E0000 		.4byte	0x3e5b
 13158 409d 00       		.byte	0
 13159 409e 41       		.uleb128 0x41
 13160 409f E9330000 		.4byte	0x33e9
 13161 40a3 00000000 		.4byte	.LFB477
 13162 40a7 38000000 		.4byte	.LFE477-.LFB477
 13163 40ab 01       		.uleb128 0x1
 13164 40ac 9C       		.byte	0x9c
 13165 40ad 7E420000 		.4byte	0x427e
 13166 40b1 02       		.uleb128 0x2
 13167 40b2 F7330000 		.4byte	0x33f7
 13168 40b6 D90C0000 		.4byte	.LLST23
 13169 40ba D30C0000 		.4byte	.LVUS23
 13170 40be 02       		.uleb128 0x2
 13171 40bf 04340000 		.4byte	0x3404
 13172 40c3 F30C0000 		.4byte	.LLST24
 13173 40c7 F10C0000 		.4byte	.LVUS24
 13174 40cb 18       		.uleb128 0x18
 13175 40cc 0A400000 		.4byte	0x400a
 13176 40d0 00000000 		.4byte	.LBI349
 13177 40d4 0200     		.2byte	.LVU246
 13178 40d6 84000000 		.4byte	.LLRL25
 13179 40da 7A01     		.2byte	0x17a
 13180 40dc 05       		.byte	0x5
 13181 40dd 02410000 		.4byte	0x4102
 13182 40e1 02       		.uleb128 0x2
 13183 40e2 18400000 		.4byte	0x4018
 13184 40e6 030D0000 		.4byte	.LLST26
 13185 40ea 010D0000 		.4byte	.LVUS26
 13186 40ee 0D       		.uleb128 0xd
ARM GAS  C:\Users\DEVELO~1\AppData\Local\Temp\ccJK6Gr9.s 			page 233


 13187 40ef 0A000000 		.4byte	.LVL32
 13188 40f3 F6140000 		.4byte	0x14f6
 13189 40f7 01       		.uleb128 0x1
 13190 40f8 01       		.uleb128 0x1
 13191 40f9 50       		.byte	0x50
 13192 40fa 05       		.uleb128 0x5
 13193 40fb 03       		.byte	0x3
 13194 40fc 00000000 		.4byte	.LC0
 13195 4100 00       		.byte	0
 13196 4101 00       		.byte	0
 13197 4102 07       		.uleb128 0x7
 13198 4103 01400000 		.4byte	0x4001
 13199 4107 1A000000 		.4byte	.LBI353
 13200 410b 0100     		.2byte	.LVU257
 13201 410d 1A000000 		.4byte	.LBB353
 13202 4111 06000000 		.4byte	.LBE353-.LBB353
 13203 4115 8101     		.2byte	0x181
 13204 4117 05       		.byte	0x5
 13205 4118 8A410000 		.4byte	0x418a
 13206 411c 03       		.uleb128 0x3
 13207 411d 2F400000 		.4byte	0x402f
 13208 4121 1A000000 		.4byte	.LBI354
 13209 4125 0300     		.2byte	.LVU259
 13210 4127 1A000000 		.4byte	.LBB354
 13211 412b 06000000 		.4byte	.LBE354-.LBB354
 13212 412f 03       		.byte	0x3
 13213 4130 5502     		.2byte	0x255
 13214 4132 03       		.byte	0x3
 13215 4133 03       		.uleb128 0x3
 13216 4134 41400000 		.4byte	0x4041
 13217 4138 1A000000 		.4byte	.LBI355
 13218 413c 0500     		.2byte	.LVU261
 13219 413e 1A000000 		.4byte	.LBB355
 13220 4142 06000000 		.4byte	.LBE355-.LBB355
 13221 4146 04       		.byte	0x4
 13222 4147 A201     		.2byte	0x1a2
 13223 4149 03       		.byte	0x3
 13224 414a 03       		.uleb128 0x3
 13225 414b 53400000 		.4byte	0x4053
 13226 414f 1A000000 		.4byte	.LBI356
 13227 4153 0700     		.2byte	.LVU263
 13228 4155 1A000000 		.4byte	.LBB356
 13229 4159 06000000 		.4byte	.LBE356-.LBB356
 13230 415d 05       		.byte	0x5
 13231 415e 7103     		.2byte	0x371
 13232 4160 03       		.byte	0x3
 13233 4161 03       		.uleb128 0x3
 13234 4162 5C400000 		.4byte	0x405c
 13235 4166 1A000000 		.4byte	.LBI357
 13236 416a 0900     		.2byte	.LVU265
 13237 416c 1A000000 		.4byte	.LBB357
 13238 4170 06000000 		.4byte	.LBE357-.LBB357
 13239 4174 05       		.byte	0x5
 13240 4175 5003     		.2byte	0x350
 13241 4177 03       		.byte	0x3
 13242 4178 02       		.uleb128 0x2
 13243 4179 6A400000 		.4byte	0x406a
ARM GAS  C:\Users\DEVELO~1\AppData\Local\Temp\ccJK6Gr9.s 			page 234


 13244 417d 130D0000 		.4byte	.LLST27
 13245 4181 110D0000 		.4byte	.LVUS27
 13246 4185 00       		.byte	0
 13247 4186 00       		.byte	0
 13248 4187 00       		.byte	0
 13249 4188 00       		.byte	0
 13250 4189 00       		.byte	0
 13251 418a 07       		.uleb128 0x7
 13252 418b CF3F0000 		.4byte	0x3fcf
 13253 418f 20000000 		.4byte	.LBI359
 13254 4193 0400     		.2byte	.LVU271
 13255 4195 20000000 		.4byte	.LBB359
 13256 4199 0C000000 		.4byte	.LBE359-.LBB359
 13257 419d 8101     		.2byte	0x181
 13258 419f 05       		.byte	0x5
 13259 41a0 D5410000 		.4byte	0x41d5
 13260 41a4 02       		.uleb128 0x2
 13261 41a5 EA3F0000 		.4byte	0x3fea
 13262 41a9 200D0000 		.4byte	.LLST28
 13263 41ad 1E0D0000 		.4byte	.LVUS28
 13264 41b1 02       		.uleb128 0x2
 13265 41b2 DD3F0000 		.4byte	0x3fdd
 13266 41b6 310D0000 		.4byte	.LLST29
 13267 41ba 2B0D0000 		.4byte	.LVUS29
 13268 41be 0D       		.uleb128 0xd
 13269 41bf 2C000000 		.4byte	.LVL37
 13270 41c3 95150000 		.4byte	0x1595
 13271 41c7 01       		.uleb128 0x1
 13272 41c8 01       		.uleb128 0x1
 13273 41c9 50       		.byte	0x50
 13274 41ca 02       		.uleb128 0x2
 13275 41cb 74       		.byte	0x74
 13276 41cc 08       		.sleb128 8
 13277 41cd 01       		.uleb128 0x1
 13278 41ce 01       		.uleb128 0x1
 13279 41cf 51       		.byte	0x51
 13280 41d0 02       		.uleb128 0x2
 13281 41d1 09       		.byte	0x9
 13282 41d2 ED       		.byte	0xed
 13283 41d3 00       		.byte	0
 13284 41d4 00       		.byte	0
 13285 41d5 07       		.uleb128 0x7
 13286 41d6 F83F0000 		.4byte	0x3ff8
 13287 41da 2C000000 		.4byte	.LBI361
 13288 41de 0200     		.2byte	.LVU276
 13289 41e0 2C000000 		.4byte	.LBB361
 13290 41e4 06000000 		.4byte	.LBE361-.LBB361
 13291 41e8 8101     		.2byte	0x181
 13292 41ea 05       		.byte	0x5
 13293 41eb 5D420000 		.4byte	0x425d
 13294 41ef 03       		.uleb128 0x3
 13295 41f0 26400000 		.4byte	0x4026
 13296 41f4 2C000000 		.4byte	.LBI362
 13297 41f8 0400     		.2byte	.LVU278
 13298 41fa 2C000000 		.4byte	.LBB362
 13299 41fe 06000000 		.4byte	.LBE362-.LBB362
 13300 4202 03       		.byte	0x3
ARM GAS  C:\Users\DEVELO~1\AppData\Local\Temp\ccJK6Gr9.s 			page 235


 13301 4203 6002     		.2byte	0x260
 13302 4205 03       		.byte	0x3
 13303 4206 03       		.uleb128 0x3
 13304 4207 38400000 		.4byte	0x4038
 13305 420b 2C000000 		.4byte	.LBI363
 13306 420f 0800     		.2byte	.LVU282
 13307 4211 2C000000 		.4byte	.LBB363
 13308 4215 06000000 		.4byte	.LBE363-.LBB363
 13309 4219 04       		.byte	0x4
 13310 421a BA01     		.2byte	0x1ba
 13311 421c 03       		.byte	0x3
 13312 421d 03       		.uleb128 0x3
 13313 421e 4A400000 		.4byte	0x404a
 13314 4222 2C000000 		.4byte	.LBI364
 13315 4226 0A00     		.2byte	.LVU284
 13316 4228 2C000000 		.4byte	.LBB364
 13317 422c 06000000 		.4byte	.LBE364-.LBB364
 13318 4230 05       		.byte	0x5
 13319 4231 7C03     		.2byte	0x37c
 13320 4233 03       		.byte	0x3
 13321 4234 03       		.uleb128 0x3
 13322 4235 5C400000 		.4byte	0x405c
 13323 4239 2C000000 		.4byte	.LBI365
 13324 423d 0C00     		.2byte	.LVU286
 13325 423f 2C000000 		.4byte	.LBB365
 13326 4243 06000000 		.4byte	.LBE365-.LBB365
 13327 4247 05       		.byte	0x5
 13328 4248 6303     		.2byte	0x363
 13329 424a 03       		.byte	0x3
 13330 424b 02       		.uleb128 0x2
 13331 424c 6A400000 		.4byte	0x406a
 13332 4250 4C0D0000 		.4byte	.LLST30
 13333 4254 4A0D0000 		.4byte	.LVUS30
 13334 4258 00       		.byte	0
 13335 4259 00       		.byte	0
 13336 425a 00       		.byte	0
 13337 425b 00       		.byte	0
 13338 425c 00       		.byte	0
 13339 425d 06       		.uleb128 0x6
 13340 425e 10000000 		.4byte	.LVL33
 13341 4262 BF3B0000 		.4byte	0x3bbf
 13342 4266 71420000 		.4byte	0x4271
 13343 426a 01       		.uleb128 0x1
 13344 426b 01       		.uleb128 0x1
 13345 426c 50       		.byte	0x50
 13346 426d 02       		.uleb128 0x2
 13347 426e 74       		.byte	0x74
 13348 426f 00       		.sleb128 0
 13349 4270 00       		.byte	0
 13350 4271 1C       		.uleb128 0x1c
 13351 4272 1A000000 		.4byte	.LVL34
 13352 4276 01       		.uleb128 0x1
 13353 4277 01       		.uleb128 0x1
 13354 4278 50       		.byte	0x50
 13355 4279 02       		.uleb128 0x2
 13356 427a 74       		.byte	0x74
 13357 427b 00       		.sleb128 0
ARM GAS  C:\Users\DEVELO~1\AppData\Local\Temp\ccJK6Gr9.s 			page 236


 13358 427c 00       		.byte	0
 13359 427d 00       		.byte	0
 13360 427e 41       		.uleb128 0x41
 13361 427f A4370000 		.4byte	0x37a4
 13362 4283 00000000 		.4byte	.LFB454
 13363 4287 0A000000 		.4byte	.LFE454-.LFB454
 13364 428b 01       		.uleb128 0x1
 13365 428c 9C       		.byte	0x9c
 13366 428d BB420000 		.4byte	0x42bb
 13367 4291 02       		.uleb128 0x2
 13368 4292 B2370000 		.4byte	0x37b2
 13369 4296 5A0D0000 		.4byte	.LLST31
 13370 429a 560D0000 		.4byte	.LVUS31
 13371 429e 02       		.uleb128 0x2
 13372 429f BF370000 		.4byte	0x37bf
 13373 42a3 710D0000 		.4byte	.LLST32
 13374 42a7 6D0D0000 		.4byte	.LVUS32
 13375 42ab 59       		.uleb128 0x59
 13376 42ac 0A000000 		.4byte	.LVL41
 13377 42b0 40       		.uleb128 0x40
 13378 42b1 BF370000 		.4byte	0x37bf
 13379 42b5 03       		.uleb128 0x3
 13380 42b6 A3       		.byte	0xa3
 13381 42b7 01       		.uleb128 0x1
 13382 42b8 51       		.byte	0x51
 13383 42b9 00       		.byte	0
 13384 42ba 00       		.byte	0
 13385 42bb 5A       		.uleb128 0x5a
 13386 42bc E9330000 		.4byte	0x33e9
 13387 42c0 00000000 		.4byte	.LFB456
 13388 42c4 0C000000 		.4byte	.LFE456-.LFB456
 13389 42c8 01       		.uleb128 0x1
 13390 42c9 9C       		.byte	0x9c
 13391 42ca 02       		.uleb128 0x2
 13392 42cb F7330000 		.4byte	0x33f7
 13393 42cf 880D0000 		.4byte	.LLST33
 13394 42d3 840D0000 		.4byte	.LVUS33
 13395 42d7 02       		.uleb128 0x2
 13396 42d8 04340000 		.4byte	0x3404
 13397 42dc 9F0D0000 		.4byte	.LLST34
 13398 42e0 9B0D0000 		.4byte	.LVUS34
 13399 42e4 3C       		.uleb128 0x3c
 13400 42e5 0C000000 		.4byte	.LVL43
 13401 42e9 9E400000 		.4byte	0x409e
 13402 42ed 40       		.uleb128 0x40
 13403 42ee 04340000 		.4byte	0x3404
 13404 42f2 03       		.uleb128 0x3
 13405 42f3 A3       		.byte	0xa3
 13406 42f4 01       		.uleb128 0x1
 13407 42f5 51       		.byte	0x51
 13408 42f6 00       		.byte	0
 13409 42f7 00       		.byte	0
 13410 42f8 00       		.byte	0
 13411              		.section	.debug_abbrev,"",%progbits
 13412              	.Ldebug_abbrev0:
 13413 0000 01       		.uleb128 0x1
 13414 0001 49       		.uleb128 0x49
ARM GAS  C:\Users\DEVELO~1\AppData\Local\Temp\ccJK6Gr9.s 			page 237


 13415 0002 00       		.byte	0
 13416 0003 02       		.uleb128 0x2
 13417 0004 18       		.uleb128 0x18
 13418 0005 7E       		.uleb128 0x7e
 13419 0006 18       		.uleb128 0x18
 13420 0007 00       		.byte	0
 13421 0008 00       		.byte	0
 13422 0009 02       		.uleb128 0x2
 13423 000a 05       		.uleb128 0x5
 13424 000b 00       		.byte	0
 13425 000c 31       		.uleb128 0x31
 13426 000d 13       		.uleb128 0x13
 13427 000e 02       		.uleb128 0x2
 13428 000f 17       		.uleb128 0x17
 13429 0010 B742     		.uleb128 0x2137
 13430 0012 17       		.uleb128 0x17
 13431 0013 00       		.byte	0
 13432 0014 00       		.byte	0
 13433 0015 03       		.uleb128 0x3
 13434 0016 1D       		.uleb128 0x1d
 13435 0017 01       		.byte	0x1
 13436 0018 31       		.uleb128 0x31
 13437 0019 13       		.uleb128 0x13
 13438 001a 52       		.uleb128 0x52
 13439 001b 01       		.uleb128 0x1
 13440 001c B842     		.uleb128 0x2138
 13441 001e 05       		.uleb128 0x5
 13442 001f 11       		.uleb128 0x11
 13443 0020 01       		.uleb128 0x1
 13444 0021 12       		.uleb128 0x12
 13445 0022 06       		.uleb128 0x6
 13446 0023 58       		.uleb128 0x58
 13447 0024 0B       		.uleb128 0xb
 13448 0025 59       		.uleb128 0x59
 13449 0026 05       		.uleb128 0x5
 13450 0027 57       		.uleb128 0x57
 13451 0028 0B       		.uleb128 0xb
 13452 0029 00       		.byte	0
 13453 002a 00       		.byte	0
 13454 002b 04       		.uleb128 0x4
 13455 002c 0D       		.uleb128 0xd
 13456 002d 00       		.byte	0
 13457 002e 03       		.uleb128 0x3
 13458 002f 0E       		.uleb128 0xe
 13459 0030 3A       		.uleb128 0x3a
 13460 0031 0B       		.uleb128 0xb
 13461 0032 3B       		.uleb128 0x3b
 13462 0033 05       		.uleb128 0x5
 13463 0034 39       		.uleb128 0x39
 13464 0035 0B       		.uleb128 0xb
 13465 0036 49       		.uleb128 0x49
 13466 0037 13       		.uleb128 0x13
 13467 0038 38       		.uleb128 0x38
 13468 0039 0B       		.uleb128 0xb
 13469 003a 00       		.byte	0
 13470 003b 00       		.byte	0
 13471 003c 05       		.uleb128 0x5
ARM GAS  C:\Users\DEVELO~1\AppData\Local\Temp\ccJK6Gr9.s 			page 238


 13472 003d 0D       		.uleb128 0xd
 13473 003e 00       		.byte	0
 13474 003f 03       		.uleb128 0x3
 13475 0040 0E       		.uleb128 0xe
 13476 0041 3A       		.uleb128 0x3a
 13477 0042 0B       		.uleb128 0xb
 13478 0043 3B       		.uleb128 0x3b
 13479 0044 0B       		.uleb128 0xb
 13480 0045 39       		.uleb128 0x39
 13481 0046 0B       		.uleb128 0xb
 13482 0047 49       		.uleb128 0x49
 13483 0048 13       		.uleb128 0x13
 13484 0049 38       		.uleb128 0x38
 13485 004a 0B       		.uleb128 0xb
 13486 004b 00       		.byte	0
 13487 004c 00       		.byte	0
 13488 004d 06       		.uleb128 0x6
 13489 004e 48       		.uleb128 0x48
 13490 004f 01       		.byte	0x1
 13491 0050 7D       		.uleb128 0x7d
 13492 0051 01       		.uleb128 0x1
 13493 0052 7F       		.uleb128 0x7f
 13494 0053 13       		.uleb128 0x13
 13495 0054 01       		.uleb128 0x1
 13496 0055 13       		.uleb128 0x13
 13497 0056 00       		.byte	0
 13498 0057 00       		.byte	0
 13499 0058 07       		.uleb128 0x7
 13500 0059 1D       		.uleb128 0x1d
 13501 005a 01       		.byte	0x1
 13502 005b 31       		.uleb128 0x31
 13503 005c 13       		.uleb128 0x13
 13504 005d 52       		.uleb128 0x52
 13505 005e 01       		.uleb128 0x1
 13506 005f B842     		.uleb128 0x2138
 13507 0061 05       		.uleb128 0x5
 13508 0062 11       		.uleb128 0x11
 13509 0063 01       		.uleb128 0x1
 13510 0064 12       		.uleb128 0x12
 13511 0065 06       		.uleb128 0x6
 13512 0066 58       		.uleb128 0x58
 13513 0067 21       		.uleb128 0x21
 13514 0068 01       		.sleb128 1
 13515 0069 59       		.uleb128 0x59
 13516 006a 05       		.uleb128 0x5
 13517 006b 57       		.uleb128 0x57
 13518 006c 0B       		.uleb128 0xb
 13519 006d 01       		.uleb128 0x1
 13520 006e 13       		.uleb128 0x13
 13521 006f 00       		.byte	0
 13522 0070 00       		.byte	0
 13523 0071 08       		.uleb128 0x8
 13524 0072 16       		.uleb128 0x16
 13525 0073 00       		.byte	0
 13526 0074 03       		.uleb128 0x3
 13527 0075 0E       		.uleb128 0xe
 13528 0076 3A       		.uleb128 0x3a
ARM GAS  C:\Users\DEVELO~1\AppData\Local\Temp\ccJK6Gr9.s 			page 239


 13529 0077 0B       		.uleb128 0xb
 13530 0078 3B       		.uleb128 0x3b
 13531 0079 0B       		.uleb128 0xb
 13532 007a 39       		.uleb128 0x39
 13533 007b 0B       		.uleb128 0xb
 13534 007c 49       		.uleb128 0x49
 13535 007d 13       		.uleb128 0x13
 13536 007e 00       		.byte	0
 13537 007f 00       		.byte	0
 13538 0080 09       		.uleb128 0x9
 13539 0081 0D       		.uleb128 0xd
 13540 0082 00       		.byte	0
 13541 0083 03       		.uleb128 0x3
 13542 0084 08       		.uleb128 0x8
 13543 0085 3A       		.uleb128 0x3a
 13544 0086 0B       		.uleb128 0xb
 13545 0087 3B       		.uleb128 0x3b
 13546 0088 05       		.uleb128 0x5
 13547 0089 39       		.uleb128 0x39
 13548 008a 0B       		.uleb128 0xb
 13549 008b 49       		.uleb128 0x49
 13550 008c 13       		.uleb128 0x13
 13551 008d 38       		.uleb128 0x38
 13552 008e 0B       		.uleb128 0xb
 13553 008f 00       		.byte	0
 13554 0090 00       		.byte	0
 13555 0091 0A       		.uleb128 0xa
 13556 0092 0F       		.uleb128 0xf
 13557 0093 00       		.byte	0
 13558 0094 0B       		.uleb128 0xb
 13559 0095 21       		.uleb128 0x21
 13560 0096 04       		.sleb128 4
 13561 0097 49       		.uleb128 0x49
 13562 0098 13       		.uleb128 0x13
 13563 0099 00       		.byte	0
 13564 009a 00       		.byte	0
 13565 009b 0B       		.uleb128 0xb
 13566 009c 05       		.uleb128 0x5
 13567 009d 00       		.byte	0
 13568 009e 49       		.uleb128 0x49
 13569 009f 13       		.uleb128 0x13
 13570 00a0 00       		.byte	0
 13571 00a1 00       		.byte	0
 13572 00a2 0C       		.uleb128 0xc
 13573 00a3 05       		.uleb128 0x5
 13574 00a4 00       		.byte	0
 13575 00a5 03       		.uleb128 0x3
 13576 00a6 0E       		.uleb128 0xe
 13577 00a7 3A       		.uleb128 0x3a
 13578 00a8 0B       		.uleb128 0xb
 13579 00a9 3B       		.uleb128 0x3b
 13580 00aa 05       		.uleb128 0x5
 13581 00ab 39       		.uleb128 0x39
 13582 00ac 0B       		.uleb128 0xb
 13583 00ad 49       		.uleb128 0x49
 13584 00ae 13       		.uleb128 0x13
 13585 00af 00       		.byte	0
ARM GAS  C:\Users\DEVELO~1\AppData\Local\Temp\ccJK6Gr9.s 			page 240


 13586 00b0 00       		.byte	0
 13587 00b1 0D       		.uleb128 0xd
 13588 00b2 48       		.uleb128 0x48
 13589 00b3 01       		.byte	0x1
 13590 00b4 7D       		.uleb128 0x7d
 13591 00b5 01       		.uleb128 0x1
 13592 00b6 7F       		.uleb128 0x7f
 13593 00b7 13       		.uleb128 0x13
 13594 00b8 00       		.byte	0
 13595 00b9 00       		.byte	0
 13596 00ba 0E       		.uleb128 0xe
 13597 00bb 05       		.uleb128 0x5
 13598 00bc 00       		.byte	0
 13599 00bd 03       		.uleb128 0x3
 13600 00be 0E       		.uleb128 0xe
 13601 00bf 3A       		.uleb128 0x3a
 13602 00c0 21       		.uleb128 0x21
 13603 00c1 01       		.sleb128 1
 13604 00c2 3B       		.uleb128 0x3b
 13605 00c3 05       		.uleb128 0x5
 13606 00c4 39       		.uleb128 0x39
 13607 00c5 0B       		.uleb128 0xb
 13608 00c6 49       		.uleb128 0x49
 13609 00c7 13       		.uleb128 0x13
 13610 00c8 02       		.uleb128 0x2
 13611 00c9 17       		.uleb128 0x17
 13612 00ca B742     		.uleb128 0x2137
 13613 00cc 17       		.uleb128 0x17
 13614 00cd 00       		.byte	0
 13615 00ce 00       		.byte	0
 13616 00cf 0F       		.uleb128 0xf
 13617 00d0 0D       		.uleb128 0xd
 13618 00d1 00       		.byte	0
 13619 00d2 03       		.uleb128 0x3
 13620 00d3 08       		.uleb128 0x8
 13621 00d4 3A       		.uleb128 0x3a
 13622 00d5 0B       		.uleb128 0xb
 13623 00d6 3B       		.uleb128 0x3b
 13624 00d7 0B       		.uleb128 0xb
 13625 00d8 39       		.uleb128 0x39
 13626 00d9 0B       		.uleb128 0xb
 13627 00da 49       		.uleb128 0x49
 13628 00db 13       		.uleb128 0x13
 13629 00dc 38       		.uleb128 0x38
 13630 00dd 0B       		.uleb128 0xb
 13631 00de 00       		.byte	0
 13632 00df 00       		.byte	0
 13633 00e0 10       		.uleb128 0x10
 13634 00e1 13       		.uleb128 0x13
 13635 00e2 01       		.byte	0x1
 13636 00e3 03       		.uleb128 0x3
 13637 00e4 0E       		.uleb128 0xe
 13638 00e5 0B       		.uleb128 0xb
 13639 00e6 0B       		.uleb128 0xb
 13640 00e7 3A       		.uleb128 0x3a
 13641 00e8 0B       		.uleb128 0xb
 13642 00e9 3B       		.uleb128 0x3b
ARM GAS  C:\Users\DEVELO~1\AppData\Local\Temp\ccJK6Gr9.s 			page 241


 13643 00ea 0B       		.uleb128 0xb
 13644 00eb 39       		.uleb128 0x39
 13645 00ec 0B       		.uleb128 0xb
 13646 00ed 01       		.uleb128 0x1
 13647 00ee 13       		.uleb128 0x13
 13648 00ef 00       		.byte	0
 13649 00f0 00       		.byte	0
 13650 00f1 11       		.uleb128 0x11
 13651 00f2 26       		.uleb128 0x26
 13652 00f3 00       		.byte	0
 13653 00f4 49       		.uleb128 0x49
 13654 00f5 13       		.uleb128 0x13
 13655 00f6 00       		.byte	0
 13656 00f7 00       		.byte	0
 13657 00f8 12       		.uleb128 0x12
 13658 00f9 05       		.uleb128 0x5
 13659 00fa 00       		.byte	0
 13660 00fb 31       		.uleb128 0x31
 13661 00fc 13       		.uleb128 0x13
 13662 00fd 00       		.byte	0
 13663 00fe 00       		.byte	0
 13664 00ff 13       		.uleb128 0x13
 13665 0100 24       		.uleb128 0x24
 13666 0101 00       		.byte	0
 13667 0102 0B       		.uleb128 0xb
 13668 0103 0B       		.uleb128 0xb
 13669 0104 3E       		.uleb128 0x3e
 13670 0105 0B       		.uleb128 0xb
 13671 0106 03       		.uleb128 0x3
 13672 0107 0E       		.uleb128 0xe
 13673 0108 00       		.byte	0
 13674 0109 00       		.byte	0
 13675 010a 14       		.uleb128 0x14
 13676 010b 01       		.uleb128 0x1
 13677 010c 01       		.byte	0x1
 13678 010d 49       		.uleb128 0x49
 13679 010e 13       		.uleb128 0x13
 13680 010f 01       		.uleb128 0x1
 13681 0110 13       		.uleb128 0x13
 13682 0111 00       		.byte	0
 13683 0112 00       		.byte	0
 13684 0113 15       		.uleb128 0x15
 13685 0114 21       		.uleb128 0x21
 13686 0115 00       		.byte	0
 13687 0116 49       		.uleb128 0x49
 13688 0117 13       		.uleb128 0x13
 13689 0118 2F       		.uleb128 0x2f
 13690 0119 0B       		.uleb128 0xb
 13691 011a 00       		.byte	0
 13692 011b 00       		.byte	0
 13693 011c 16       		.uleb128 0x16
 13694 011d 48       		.uleb128 0x48
 13695 011e 00       		.byte	0
 13696 011f 7D       		.uleb128 0x7d
 13697 0120 01       		.uleb128 0x1
 13698 0121 8201     		.uleb128 0x82
 13699 0123 19       		.uleb128 0x19
ARM GAS  C:\Users\DEVELO~1\AppData\Local\Temp\ccJK6Gr9.s 			page 242


 13700 0124 7F       		.uleb128 0x7f
 13701 0125 13       		.uleb128 0x13
 13702 0126 00       		.byte	0
 13703 0127 00       		.byte	0
 13704 0128 17       		.uleb128 0x17
 13705 0129 2E       		.uleb128 0x2e
 13706 012a 01       		.byte	0x1
 13707 012b 03       		.uleb128 0x3
 13708 012c 0E       		.uleb128 0xe
 13709 012d 3A       		.uleb128 0x3a
 13710 012e 0B       		.uleb128 0xb
 13711 012f 3B       		.uleb128 0x3b
 13712 0130 05       		.uleb128 0x5
 13713 0131 39       		.uleb128 0x39
 13714 0132 0B       		.uleb128 0xb
 13715 0133 27       		.uleb128 0x27
 13716 0134 19       		.uleb128 0x19
 13717 0135 20       		.uleb128 0x20
 13718 0136 0B       		.uleb128 0xb
 13719 0137 01       		.uleb128 0x1
 13720 0138 13       		.uleb128 0x13
 13721 0139 00       		.byte	0
 13722 013a 00       		.byte	0
 13723 013b 18       		.uleb128 0x18
 13724 013c 1D       		.uleb128 0x1d
 13725 013d 01       		.byte	0x1
 13726 013e 31       		.uleb128 0x31
 13727 013f 13       		.uleb128 0x13
 13728 0140 52       		.uleb128 0x52
 13729 0141 01       		.uleb128 0x1
 13730 0142 B842     		.uleb128 0x2138
 13731 0144 05       		.uleb128 0x5
 13732 0145 55       		.uleb128 0x55
 13733 0146 17       		.uleb128 0x17
 13734 0147 58       		.uleb128 0x58
 13735 0148 21       		.uleb128 0x21
 13736 0149 01       		.sleb128 1
 13737 014a 59       		.uleb128 0x59
 13738 014b 05       		.uleb128 0x5
 13739 014c 57       		.uleb128 0x57
 13740 014d 0B       		.uleb128 0xb
 13741 014e 01       		.uleb128 0x1
 13742 014f 13       		.uleb128 0x13
 13743 0150 00       		.byte	0
 13744 0151 00       		.byte	0
 13745 0152 19       		.uleb128 0x19
 13746 0153 16       		.uleb128 0x16
 13747 0154 00       		.byte	0
 13748 0155 03       		.uleb128 0x3
 13749 0156 0E       		.uleb128 0xe
 13750 0157 3A       		.uleb128 0x3a
 13751 0158 0B       		.uleb128 0xb
 13752 0159 3B       		.uleb128 0x3b
 13753 015a 05       		.uleb128 0x5
 13754 015b 39       		.uleb128 0x39
 13755 015c 0B       		.uleb128 0xb
 13756 015d 49       		.uleb128 0x49
ARM GAS  C:\Users\DEVELO~1\AppData\Local\Temp\ccJK6Gr9.s 			page 243


 13757 015e 13       		.uleb128 0x13
 13758 015f 00       		.byte	0
 13759 0160 00       		.byte	0
 13760 0161 1A       		.uleb128 0x1a
 13761 0162 13       		.uleb128 0x13
 13762 0163 01       		.byte	0x1
 13763 0164 0B       		.uleb128 0xb
 13764 0165 0B       		.uleb128 0xb
 13765 0166 3A       		.uleb128 0x3a
 13766 0167 0B       		.uleb128 0xb
 13767 0168 3B       		.uleb128 0x3b
 13768 0169 0B       		.uleb128 0xb
 13769 016a 39       		.uleb128 0x39
 13770 016b 0B       		.uleb128 0xb
 13771 016c 01       		.uleb128 0x1
 13772 016d 13       		.uleb128 0x13
 13773 016e 00       		.byte	0
 13774 016f 00       		.byte	0
 13775 0170 1B       		.uleb128 0x1b
 13776 0171 0D       		.uleb128 0xd
 13777 0172 00       		.byte	0
 13778 0173 03       		.uleb128 0x3
 13779 0174 0E       		.uleb128 0xe
 13780 0175 3A       		.uleb128 0x3a
 13781 0176 21       		.uleb128 0x21
 13782 0177 12       		.sleb128 18
 13783 0178 3B       		.uleb128 0x3b
 13784 0179 05       		.uleb128 0x5
 13785 017a 39       		.uleb128 0x39
 13786 017b 0B       		.uleb128 0xb
 13787 017c 49       		.uleb128 0x49
 13788 017d 13       		.uleb128 0x13
 13789 017e 38       		.uleb128 0x38
 13790 017f 05       		.uleb128 0x5
 13791 0180 00       		.byte	0
 13792 0181 00       		.byte	0
 13793 0182 1C       		.uleb128 0x1c
 13794 0183 48       		.uleb128 0x48
 13795 0184 01       		.byte	0x1
 13796 0185 7D       		.uleb128 0x7d
 13797 0186 01       		.uleb128 0x1
 13798 0187 00       		.byte	0
 13799 0188 00       		.byte	0
 13800 0189 1D       		.uleb128 0x1d
 13801 018a 2E       		.uleb128 0x2e
 13802 018b 01       		.byte	0x1
 13803 018c 03       		.uleb128 0x3
 13804 018d 0E       		.uleb128 0xe
 13805 018e 3A       		.uleb128 0x3a
 13806 018f 0B       		.uleb128 0xb
 13807 0190 3B       		.uleb128 0x3b
 13808 0191 0B       		.uleb128 0xb
 13809 0192 39       		.uleb128 0x39
 13810 0193 0B       		.uleb128 0xb
 13811 0194 27       		.uleb128 0x27
 13812 0195 19       		.uleb128 0x19
 13813 0196 20       		.uleb128 0x20
ARM GAS  C:\Users\DEVELO~1\AppData\Local\Temp\ccJK6Gr9.s 			page 244


 13814 0197 0B       		.uleb128 0xb
 13815 0198 01       		.uleb128 0x1
 13816 0199 13       		.uleb128 0x13
 13817 019a 00       		.byte	0
 13818 019b 00       		.byte	0
 13819 019c 1E       		.uleb128 0x1e
 13820 019d 05       		.uleb128 0x5
 13821 019e 00       		.byte	0
 13822 019f 03       		.uleb128 0x3
 13823 01a0 0E       		.uleb128 0xe
 13824 01a1 3A       		.uleb128 0x3a
 13825 01a2 0B       		.uleb128 0xb
 13826 01a3 3B       		.uleb128 0x3b
 13827 01a4 0B       		.uleb128 0xb
 13828 01a5 39       		.uleb128 0x39
 13829 01a6 0B       		.uleb128 0xb
 13830 01a7 49       		.uleb128 0x49
 13831 01a8 13       		.uleb128 0x13
 13832 01a9 00       		.byte	0
 13833 01aa 00       		.byte	0
 13834 01ab 1F       		.uleb128 0x1f
 13835 01ac 0D       		.uleb128 0xd
 13836 01ad 00       		.byte	0
 13837 01ae 03       		.uleb128 0x3
 13838 01af 0E       		.uleb128 0xe
 13839 01b0 3A       		.uleb128 0x3a
 13840 01b1 21       		.uleb128 0x21
 13841 01b2 0D       		.sleb128 13
 13842 01b3 3B       		.uleb128 0x3b
 13843 01b4 05       		.uleb128 0x5
 13844 01b5 39       		.uleb128 0x39
 13845 01b6 0B       		.uleb128 0xb
 13846 01b7 49       		.uleb128 0x49
 13847 01b8 13       		.uleb128 0x13
 13848 01b9 00       		.byte	0
 13849 01ba 00       		.byte	0
 13850 01bb 20       		.uleb128 0x20
 13851 01bc 1D       		.uleb128 0x1d
 13852 01bd 01       		.byte	0x1
 13853 01be 31       		.uleb128 0x31
 13854 01bf 13       		.uleb128 0x13
 13855 01c0 52       		.uleb128 0x52
 13856 01c1 01       		.uleb128 0x1
 13857 01c2 B842     		.uleb128 0x2138
 13858 01c4 05       		.uleb128 0x5
 13859 01c5 11       		.uleb128 0x11
 13860 01c6 01       		.uleb128 0x1
 13861 01c7 12       		.uleb128 0x12
 13862 01c8 06       		.uleb128 0x6
 13863 01c9 58       		.uleb128 0x58
 13864 01ca 0B       		.uleb128 0xb
 13865 01cb 59       		.uleb128 0x59
 13866 01cc 0B       		.uleb128 0xb
 13867 01cd 57       		.uleb128 0x57
 13868 01ce 0B       		.uleb128 0xb
 13869 01cf 00       		.byte	0
 13870 01d0 00       		.byte	0
ARM GAS  C:\Users\DEVELO~1\AppData\Local\Temp\ccJK6Gr9.s 			page 245


 13871 01d1 21       		.uleb128 0x21
 13872 01d2 2E       		.uleb128 0x2e
 13873 01d3 01       		.byte	0x1
 13874 01d4 3F       		.uleb128 0x3f
 13875 01d5 19       		.uleb128 0x19
 13876 01d6 03       		.uleb128 0x3
 13877 01d7 0E       		.uleb128 0xe
 13878 01d8 3A       		.uleb128 0x3a
 13879 01d9 21       		.uleb128 0x21
 13880 01da 01       		.sleb128 1
 13881 01db 3B       		.uleb128 0x3b
 13882 01dc 05       		.uleb128 0x5
 13883 01dd 39       		.uleb128 0x39
 13884 01de 0B       		.uleb128 0xb
 13885 01df 27       		.uleb128 0x27
 13886 01e0 19       		.uleb128 0x19
 13887 01e1 11       		.uleb128 0x11
 13888 01e2 01       		.uleb128 0x1
 13889 01e3 12       		.uleb128 0x12
 13890 01e4 06       		.uleb128 0x6
 13891 01e5 40       		.uleb128 0x40
 13892 01e6 18       		.uleb128 0x18
 13893 01e7 7A       		.uleb128 0x7a
 13894 01e8 19       		.uleb128 0x19
 13895 01e9 01       		.uleb128 0x1
 13896 01ea 13       		.uleb128 0x13
 13897 01eb 00       		.byte	0
 13898 01ec 00       		.byte	0
 13899 01ed 22       		.uleb128 0x22
 13900 01ee 2E       		.uleb128 0x2e
 13901 01ef 00       		.byte	0
 13902 01f0 03       		.uleb128 0x3
 13903 01f1 0E       		.uleb128 0xe
 13904 01f2 3A       		.uleb128 0x3a
 13905 01f3 0B       		.uleb128 0xb
 13906 01f4 3B       		.uleb128 0x3b
 13907 01f5 05       		.uleb128 0x5
 13908 01f6 39       		.uleb128 0x39
 13909 01f7 0B       		.uleb128 0xb
 13910 01f8 27       		.uleb128 0x27
 13911 01f9 19       		.uleb128 0x19
 13912 01fa 20       		.uleb128 0x20
 13913 01fb 21       		.uleb128 0x21
 13914 01fc 03       		.sleb128 3
 13915 01fd 00       		.byte	0
 13916 01fe 00       		.byte	0
 13917 01ff 23       		.uleb128 0x23
 13918 0200 0D       		.uleb128 0xd
 13919 0201 00       		.byte	0
 13920 0202 03       		.uleb128 0x3
 13921 0203 08       		.uleb128 0x8
 13922 0204 3A       		.uleb128 0x3a
 13923 0205 0B       		.uleb128 0xb
 13924 0206 3B       		.uleb128 0x3b
 13925 0207 0B       		.uleb128 0xb
 13926 0208 39       		.uleb128 0x39
 13927 0209 0B       		.uleb128 0xb
ARM GAS  C:\Users\DEVELO~1\AppData\Local\Temp\ccJK6Gr9.s 			page 246


 13928 020a 49       		.uleb128 0x49
 13929 020b 13       		.uleb128 0x13
 13930 020c 00       		.byte	0
 13931 020d 00       		.byte	0
 13932 020e 24       		.uleb128 0x24
 13933 020f 0D       		.uleb128 0xd
 13934 0210 00       		.byte	0
 13935 0211 03       		.uleb128 0x3
 13936 0212 0E       		.uleb128 0xe
 13937 0213 3A       		.uleb128 0x3a
 13938 0214 0B       		.uleb128 0xb
 13939 0215 3B       		.uleb128 0x3b
 13940 0216 0B       		.uleb128 0xb
 13941 0217 39       		.uleb128 0x39
 13942 0218 0B       		.uleb128 0xb
 13943 0219 49       		.uleb128 0x49
 13944 021a 13       		.uleb128 0x13
 13945 021b 00       		.byte	0
 13946 021c 00       		.byte	0
 13947 021d 25       		.uleb128 0x25
 13948 021e 2E       		.uleb128 0x2e
 13949 021f 01       		.byte	0x1
 13950 0220 3F       		.uleb128 0x3f
 13951 0221 19       		.uleb128 0x19
 13952 0222 03       		.uleb128 0x3
 13953 0223 0E       		.uleb128 0xe
 13954 0224 3A       		.uleb128 0x3a
 13955 0225 21       		.uleb128 0x21
 13956 0226 01       		.sleb128 1
 13957 0227 3B       		.uleb128 0x3b
 13958 0228 05       		.uleb128 0x5
 13959 0229 39       		.uleb128 0x39
 13960 022a 0B       		.uleb128 0xb
 13961 022b 27       		.uleb128 0x27
 13962 022c 19       		.uleb128 0x19
 13963 022d 49       		.uleb128 0x49
 13964 022e 13       		.uleb128 0x13
 13965 022f 11       		.uleb128 0x11
 13966 0230 01       		.uleb128 0x1
 13967 0231 12       		.uleb128 0x12
 13968 0232 06       		.uleb128 0x6
 13969 0233 40       		.uleb128 0x40
 13970 0234 18       		.uleb128 0x18
 13971 0235 7A       		.uleb128 0x7a
 13972 0236 19       		.uleb128 0x19
 13973 0237 01       		.uleb128 0x1
 13974 0238 13       		.uleb128 0x13
 13975 0239 00       		.byte	0
 13976 023a 00       		.byte	0
 13977 023b 26       		.uleb128 0x26
 13978 023c 34       		.uleb128 0x34
 13979 023d 00       		.byte	0
 13980 023e 03       		.uleb128 0x3
 13981 023f 0E       		.uleb128 0xe
 13982 0240 3A       		.uleb128 0x3a
 13983 0241 21       		.uleb128 0x21
 13984 0242 01       		.sleb128 1
ARM GAS  C:\Users\DEVELO~1\AppData\Local\Temp\ccJK6Gr9.s 			page 247


 13985 0243 3B       		.uleb128 0x3b
 13986 0244 05       		.uleb128 0x5
 13987 0245 39       		.uleb128 0x39
 13988 0246 0B       		.uleb128 0xb
 13989 0247 49       		.uleb128 0x49
 13990 0248 13       		.uleb128 0x13
 13991 0249 02       		.uleb128 0x2
 13992 024a 17       		.uleb128 0x17
 13993 024b B742     		.uleb128 0x2137
 13994 024d 17       		.uleb128 0x17
 13995 024e 00       		.byte	0
 13996 024f 00       		.byte	0
 13997 0250 27       		.uleb128 0x27
 13998 0251 1D       		.uleb128 0x1d
 13999 0252 01       		.byte	0x1
 14000 0253 31       		.uleb128 0x31
 14001 0254 13       		.uleb128 0x13
 14002 0255 52       		.uleb128 0x52
 14003 0256 01       		.uleb128 0x1
 14004 0257 B842     		.uleb128 0x2138
 14005 0259 05       		.uleb128 0x5
 14006 025a 55       		.uleb128 0x55
 14007 025b 17       		.uleb128 0x17
 14008 025c 58       		.uleb128 0x58
 14009 025d 0B       		.uleb128 0xb
 14010 025e 59       		.uleb128 0x59
 14011 025f 05       		.uleb128 0x5
 14012 0260 57       		.uleb128 0x57
 14013 0261 21       		.uleb128 0x21
 14014 0262 03       		.sleb128 3
 14015 0263 00       		.byte	0
 14016 0264 00       		.byte	0
 14017 0265 28       		.uleb128 0x28
 14018 0266 34       		.uleb128 0x34
 14019 0267 00       		.byte	0
 14020 0268 03       		.uleb128 0x3
 14021 0269 0E       		.uleb128 0xe
 14022 026a 49       		.uleb128 0x49
 14023 026b 13       		.uleb128 0x13
 14024 026c 34       		.uleb128 0x34
 14025 026d 19       		.uleb128 0x19
 14026 026e 00       		.byte	0
 14027 026f 00       		.byte	0
 14028 0270 29       		.uleb128 0x29
 14029 0271 48       		.uleb128 0x48
 14030 0272 00       		.byte	0
 14031 0273 7D       		.uleb128 0x7d
 14032 0274 01       		.uleb128 0x1
 14033 0275 7F       		.uleb128 0x7f
 14034 0276 13       		.uleb128 0x13
 14035 0277 00       		.byte	0
 14036 0278 00       		.byte	0
 14037 0279 2A       		.uleb128 0x2a
 14038 027a 35       		.uleb128 0x35
 14039 027b 00       		.byte	0
 14040 027c 49       		.uleb128 0x49
 14041 027d 13       		.uleb128 0x13
ARM GAS  C:\Users\DEVELO~1\AppData\Local\Temp\ccJK6Gr9.s 			page 248


 14042 027e 00       		.byte	0
 14043 027f 00       		.byte	0
 14044 0280 2B       		.uleb128 0x2b
 14045 0281 13       		.uleb128 0x13
 14046 0282 01       		.byte	0x1
 14047 0283 0B       		.uleb128 0xb
 14048 0284 0B       		.uleb128 0xb
 14049 0285 3A       		.uleb128 0x3a
 14050 0286 0B       		.uleb128 0xb
 14051 0287 3B       		.uleb128 0x3b
 14052 0288 05       		.uleb128 0x5
 14053 0289 39       		.uleb128 0x39
 14054 028a 21       		.uleb128 0x21
 14055 028b 09       		.sleb128 9
 14056 028c 01       		.uleb128 0x1
 14057 028d 13       		.uleb128 0x13
 14058 028e 00       		.byte	0
 14059 028f 00       		.byte	0
 14060 0290 2C       		.uleb128 0x2c
 14061 0291 34       		.uleb128 0x34
 14062 0292 00       		.byte	0
 14063 0293 03       		.uleb128 0x3
 14064 0294 0E       		.uleb128 0xe
 14065 0295 3A       		.uleb128 0x3a
 14066 0296 21       		.uleb128 0x21
 14067 0297 1B       		.sleb128 27
 14068 0298 3B       		.uleb128 0x3b
 14069 0299 05       		.uleb128 0x5
 14070 029a 39       		.uleb128 0x39
 14071 029b 21       		.uleb128 0x21
 14072 029c 12       		.sleb128 18
 14073 029d 49       		.uleb128 0x49
 14074 029e 13       		.uleb128 0x13
 14075 029f 3F       		.uleb128 0x3f
 14076 02a0 19       		.uleb128 0x19
 14077 02a1 3C       		.uleb128 0x3c
 14078 02a2 19       		.uleb128 0x19
 14079 02a3 00       		.byte	0
 14080 02a4 00       		.byte	0
 14081 02a5 2D       		.uleb128 0x2d
 14082 02a6 34       		.uleb128 0x34
 14083 02a7 00       		.byte	0
 14084 02a8 47       		.uleb128 0x47
 14085 02a9 13       		.uleb128 0x13
 14086 02aa 3A       		.uleb128 0x3a
 14087 02ab 21       		.uleb128 0x21
 14088 02ac 01       		.sleb128 1
 14089 02ad 3B       		.uleb128 0x3b
 14090 02ae 0B       		.uleb128 0xb
 14091 02af 39       		.uleb128 0x39
 14092 02b0 21       		.uleb128 0x21
 14093 02b1 1C       		.sleb128 28
 14094 02b2 02       		.uleb128 0x2
 14095 02b3 18       		.uleb128 0x18
 14096 02b4 00       		.byte	0
 14097 02b5 00       		.byte	0
 14098 02b6 2E       		.uleb128 0x2e
ARM GAS  C:\Users\DEVELO~1\AppData\Local\Temp\ccJK6Gr9.s 			page 249


 14099 02b7 2E       		.uleb128 0x2e
 14100 02b8 01       		.byte	0x1
 14101 02b9 3F       		.uleb128 0x3f
 14102 02ba 19       		.uleb128 0x19
 14103 02bb 03       		.uleb128 0x3
 14104 02bc 0E       		.uleb128 0xe
 14105 02bd 3A       		.uleb128 0x3a
 14106 02be 0B       		.uleb128 0xb
 14107 02bf 3B       		.uleb128 0x3b
 14108 02c0 05       		.uleb128 0x5
 14109 02c1 39       		.uleb128 0x39
 14110 02c2 21       		.uleb128 0x21
 14111 02c3 08       		.sleb128 8
 14112 02c4 27       		.uleb128 0x27
 14113 02c5 19       		.uleb128 0x19
 14114 02c6 3C       		.uleb128 0x3c
 14115 02c7 19       		.uleb128 0x19
 14116 02c8 01       		.uleb128 0x1
 14117 02c9 13       		.uleb128 0x13
 14118 02ca 00       		.byte	0
 14119 02cb 00       		.byte	0
 14120 02cc 2F       		.uleb128 0x2f
 14121 02cd 34       		.uleb128 0x34
 14122 02ce 00       		.byte	0
 14123 02cf 03       		.uleb128 0x3
 14124 02d0 0E       		.uleb128 0xe
 14125 02d1 49       		.uleb128 0x49
 14126 02d2 13       		.uleb128 0x13
 14127 02d3 34       		.uleb128 0x34
 14128 02d4 19       		.uleb128 0x19
 14129 02d5 02       		.uleb128 0x2
 14130 02d6 18       		.uleb128 0x18
 14131 02d7 00       		.byte	0
 14132 02d8 00       		.byte	0
 14133 02d9 30       		.uleb128 0x30
 14134 02da 0B       		.uleb128 0xb
 14135 02db 01       		.byte	0x1
 14136 02dc 55       		.uleb128 0x55
 14137 02dd 17       		.uleb128 0x17
 14138 02de 00       		.byte	0
 14139 02df 00       		.byte	0
 14140 02e0 31       		.uleb128 0x31
 14141 02e1 34       		.uleb128 0x34
 14142 02e2 00       		.byte	0
 14143 02e3 31       		.uleb128 0x31
 14144 02e4 13       		.uleb128 0x13
 14145 02e5 02       		.uleb128 0x2
 14146 02e6 17       		.uleb128 0x17
 14147 02e7 B742     		.uleb128 0x2137
 14148 02e9 17       		.uleb128 0x17
 14149 02ea 00       		.byte	0
 14150 02eb 00       		.byte	0
 14151 02ec 32       		.uleb128 0x32
 14152 02ed 34       		.uleb128 0x34
 14153 02ee 00       		.byte	0
 14154 02ef 31       		.uleb128 0x31
 14155 02f0 13       		.uleb128 0x13
ARM GAS  C:\Users\DEVELO~1\AppData\Local\Temp\ccJK6Gr9.s 			page 250


 14156 02f1 00       		.byte	0
 14157 02f2 00       		.byte	0
 14158 02f3 33       		.uleb128 0x33
 14159 02f4 48       		.uleb128 0x48
 14160 02f5 01       		.byte	0x1
 14161 02f6 7D       		.uleb128 0x7d
 14162 02f7 01       		.uleb128 0x1
 14163 02f8 01       		.uleb128 0x1
 14164 02f9 13       		.uleb128 0x13
 14165 02fa 00       		.byte	0
 14166 02fb 00       		.byte	0
 14167 02fc 34       		.uleb128 0x34
 14168 02fd 17       		.uleb128 0x17
 14169 02fe 01       		.byte	0x1
 14170 02ff 0B       		.uleb128 0xb
 14171 0300 0B       		.uleb128 0xb
 14172 0301 3A       		.uleb128 0x3a
 14173 0302 0B       		.uleb128 0xb
 14174 0303 3B       		.uleb128 0x3b
 14175 0304 0B       		.uleb128 0xb
 14176 0305 39       		.uleb128 0x39
 14177 0306 0B       		.uleb128 0xb
 14178 0307 01       		.uleb128 0x1
 14179 0308 13       		.uleb128 0x13
 14180 0309 00       		.byte	0
 14181 030a 00       		.byte	0
 14182 030b 35       		.uleb128 0x35
 14183 030c 28       		.uleb128 0x28
 14184 030d 00       		.byte	0
 14185 030e 03       		.uleb128 0x3
 14186 030f 0E       		.uleb128 0xe
 14187 0310 1C       		.uleb128 0x1c
 14188 0311 0B       		.uleb128 0xb
 14189 0312 00       		.byte	0
 14190 0313 00       		.byte	0
 14191 0314 36       		.uleb128 0x36
 14192 0315 13       		.uleb128 0x13
 14193 0316 01       		.byte	0x1
 14194 0317 03       		.uleb128 0x3
 14195 0318 0E       		.uleb128 0xe
 14196 0319 0B       		.uleb128 0xb
 14197 031a 0B       		.uleb128 0xb
 14198 031b 3A       		.uleb128 0x3a
 14199 031c 0B       		.uleb128 0xb
 14200 031d 3B       		.uleb128 0x3b
 14201 031e 05       		.uleb128 0x5
 14202 031f 39       		.uleb128 0x39
 14203 0320 0B       		.uleb128 0xb
 14204 0321 01       		.uleb128 0x1
 14205 0322 13       		.uleb128 0x13
 14206 0323 00       		.byte	0
 14207 0324 00       		.byte	0
 14208 0325 37       		.uleb128 0x37
 14209 0326 2E       		.uleb128 0x2e
 14210 0327 01       		.byte	0x1
 14211 0328 3F       		.uleb128 0x3f
 14212 0329 19       		.uleb128 0x19
ARM GAS  C:\Users\DEVELO~1\AppData\Local\Temp\ccJK6Gr9.s 			page 251


 14213 032a 03       		.uleb128 0x3
 14214 032b 0E       		.uleb128 0xe
 14215 032c 3A       		.uleb128 0x3a
 14216 032d 0B       		.uleb128 0xb
 14217 032e 3B       		.uleb128 0x3b
 14218 032f 0B       		.uleb128 0xb
 14219 0330 39       		.uleb128 0x39
 14220 0331 21       		.uleb128 0x21
 14221 0332 08       		.sleb128 8
 14222 0333 27       		.uleb128 0x27
 14223 0334 19       		.uleb128 0x19
 14224 0335 3C       		.uleb128 0x3c
 14225 0336 19       		.uleb128 0x19
 14226 0337 01       		.uleb128 0x1
 14227 0338 13       		.uleb128 0x13
 14228 0339 00       		.byte	0
 14229 033a 00       		.byte	0
 14230 033b 38       		.uleb128 0x38
 14231 033c 05       		.uleb128 0x5
 14232 033d 00       		.byte	0
 14233 033e 03       		.uleb128 0x3
 14234 033f 08       		.uleb128 0x8
 14235 0340 3A       		.uleb128 0x3a
 14236 0341 0B       		.uleb128 0xb
 14237 0342 3B       		.uleb128 0x3b
 14238 0343 05       		.uleb128 0x5
 14239 0344 39       		.uleb128 0x39
 14240 0345 0B       		.uleb128 0xb
 14241 0346 49       		.uleb128 0x49
 14242 0347 13       		.uleb128 0x13
 14243 0348 00       		.byte	0
 14244 0349 00       		.byte	0
 14245 034a 39       		.uleb128 0x39
 14246 034b 0D       		.uleb128 0xd
 14247 034c 00       		.byte	0
 14248 034d 03       		.uleb128 0x3
 14249 034e 0E       		.uleb128 0xe
 14250 034f 3A       		.uleb128 0x3a
 14251 0350 21       		.uleb128 0x21
 14252 0351 11       		.sleb128 17
 14253 0352 3B       		.uleb128 0x3b
 14254 0353 0B       		.uleb128 0xb
 14255 0354 39       		.uleb128 0x39
 14256 0355 21       		.uleb128 0x21
 14257 0356 19       		.sleb128 25
 14258 0357 49       		.uleb128 0x49
 14259 0358 13       		.uleb128 0x13
 14260 0359 0D       		.uleb128 0xd
 14261 035a 0B       		.uleb128 0xb
 14262 035b 6B       		.uleb128 0x6b
 14263 035c 0B       		.uleb128 0xb
 14264 035d 00       		.byte	0
 14265 035e 00       		.byte	0
 14266 035f 3A       		.uleb128 0x3a
 14267 0360 15       		.uleb128 0x15
 14268 0361 01       		.byte	0x1
 14269 0362 27       		.uleb128 0x27
ARM GAS  C:\Users\DEVELO~1\AppData\Local\Temp\ccJK6Gr9.s 			page 252


 14270 0363 19       		.uleb128 0x19
 14271 0364 01       		.uleb128 0x1
 14272 0365 13       		.uleb128 0x13
 14273 0366 00       		.byte	0
 14274 0367 00       		.byte	0
 14275 0368 3B       		.uleb128 0x3b
 14276 0369 05       		.uleb128 0x5
 14277 036a 00       		.byte	0
 14278 036b 03       		.uleb128 0x3
 14279 036c 08       		.uleb128 0x8
 14280 036d 3A       		.uleb128 0x3a
 14281 036e 21       		.uleb128 0x21
 14282 036f 01       		.sleb128 1
 14283 0370 3B       		.uleb128 0x3b
 14284 0371 05       		.uleb128 0x5
 14285 0372 39       		.uleb128 0x39
 14286 0373 0B       		.uleb128 0xb
 14287 0374 49       		.uleb128 0x49
 14288 0375 13       		.uleb128 0x13
 14289 0376 02       		.uleb128 0x2
 14290 0377 18       		.uleb128 0x18
 14291 0378 00       		.byte	0
 14292 0379 00       		.byte	0
 14293 037a 3C       		.uleb128 0x3c
 14294 037b 48       		.uleb128 0x48
 14295 037c 01       		.byte	0x1
 14296 037d 7D       		.uleb128 0x7d
 14297 037e 01       		.uleb128 0x1
 14298 037f 8201     		.uleb128 0x82
 14299 0381 19       		.uleb128 0x19
 14300 0382 7F       		.uleb128 0x7f
 14301 0383 13       		.uleb128 0x13
 14302 0384 00       		.byte	0
 14303 0385 00       		.byte	0
 14304 0386 3D       		.uleb128 0x3d
 14305 0387 1D       		.uleb128 0x1d
 14306 0388 01       		.byte	0x1
 14307 0389 31       		.uleb128 0x31
 14308 038a 13       		.uleb128 0x13
 14309 038b 52       		.uleb128 0x52
 14310 038c 01       		.uleb128 0x1
 14311 038d B842     		.uleb128 0x2138
 14312 038f 05       		.uleb128 0x5
 14313 0390 11       		.uleb128 0x11
 14314 0391 01       		.uleb128 0x1
 14315 0392 12       		.uleb128 0x12
 14316 0393 06       		.uleb128 0x6
 14317 0394 58       		.uleb128 0x58
 14318 0395 21       		.uleb128 0x21
 14319 0396 01       		.sleb128 1
 14320 0397 59       		.uleb128 0x59
 14321 0398 0B       		.uleb128 0xb
 14322 0399 57       		.uleb128 0x57
 14323 039a 21       		.uleb128 0x21
 14324 039b 05       		.sleb128 5
 14325 039c 01       		.uleb128 0x1
 14326 039d 13       		.uleb128 0x13
ARM GAS  C:\Users\DEVELO~1\AppData\Local\Temp\ccJK6Gr9.s 			page 253


 14327 039e 00       		.byte	0
 14328 039f 00       		.byte	0
 14329 03a0 3E       		.uleb128 0x3e
 14330 03a1 1D       		.uleb128 0x1d
 14331 03a2 01       		.byte	0x1
 14332 03a3 31       		.uleb128 0x31
 14333 03a4 13       		.uleb128 0x13
 14334 03a5 52       		.uleb128 0x52
 14335 03a6 01       		.uleb128 0x1
 14336 03a7 B842     		.uleb128 0x2138
 14337 03a9 05       		.uleb128 0x5
 14338 03aa 55       		.uleb128 0x55
 14339 03ab 17       		.uleb128 0x17
 14340 03ac 58       		.uleb128 0x58
 14341 03ad 21       		.uleb128 0x21
 14342 03ae 01       		.sleb128 1
 14343 03af 59       		.uleb128 0x59
 14344 03b0 0B       		.uleb128 0xb
 14345 03b1 57       		.uleb128 0x57
 14346 03b2 21       		.uleb128 0x21
 14347 03b3 05       		.sleb128 5
 14348 03b4 01       		.uleb128 0x1
 14349 03b5 13       		.uleb128 0x13
 14350 03b6 00       		.byte	0
 14351 03b7 00       		.byte	0
 14352 03b8 3F       		.uleb128 0x3f
 14353 03b9 48       		.uleb128 0x48
 14354 03ba 01       		.byte	0x1
 14355 03bb 7D       		.uleb128 0x7d
 14356 03bc 01       		.uleb128 0x1
 14357 03bd 8201     		.uleb128 0x82
 14358 03bf 19       		.uleb128 0x19
 14359 03c0 7F       		.uleb128 0x7f
 14360 03c1 13       		.uleb128 0x13
 14361 03c2 01       		.uleb128 0x1
 14362 03c3 13       		.uleb128 0x13
 14363 03c4 00       		.byte	0
 14364 03c5 00       		.byte	0
 14365 03c6 40       		.uleb128 0x40
 14366 03c7 49       		.uleb128 0x49
 14367 03c8 00       		.byte	0
 14368 03c9 8001     		.uleb128 0x80
 14369 03cb 13       		.uleb128 0x13
 14370 03cc 7E       		.uleb128 0x7e
 14371 03cd 18       		.uleb128 0x18
 14372 03ce 00       		.byte	0
 14373 03cf 00       		.byte	0
 14374 03d0 41       		.uleb128 0x41
 14375 03d1 2E       		.uleb128 0x2e
 14376 03d2 01       		.byte	0x1
 14377 03d3 31       		.uleb128 0x31
 14378 03d4 13       		.uleb128 0x13
 14379 03d5 11       		.uleb128 0x11
 14380 03d6 01       		.uleb128 0x1
 14381 03d7 12       		.uleb128 0x12
 14382 03d8 06       		.uleb128 0x6
 14383 03d9 40       		.uleb128 0x40
ARM GAS  C:\Users\DEVELO~1\AppData\Local\Temp\ccJK6Gr9.s 			page 254


 14384 03da 18       		.uleb128 0x18
 14385 03db 7A       		.uleb128 0x7a
 14386 03dc 19       		.uleb128 0x19
 14387 03dd 01       		.uleb128 0x1
 14388 03de 13       		.uleb128 0x13
 14389 03df 00       		.byte	0
 14390 03e0 00       		.byte	0
 14391 03e1 42       		.uleb128 0x42
 14392 03e2 2E       		.uleb128 0x2e
 14393 03e3 01       		.byte	0x1
 14394 03e4 3F       		.uleb128 0x3f
 14395 03e5 19       		.uleb128 0x19
 14396 03e6 03       		.uleb128 0x3
 14397 03e7 0E       		.uleb128 0xe
 14398 03e8 3A       		.uleb128 0x3a
 14399 03e9 0B       		.uleb128 0xb
 14400 03ea 3B       		.uleb128 0x3b
 14401 03eb 05       		.uleb128 0x5
 14402 03ec 39       		.uleb128 0x39
 14403 03ed 0B       		.uleb128 0xb
 14404 03ee 27       		.uleb128 0x27
 14405 03ef 19       		.uleb128 0x19
 14406 03f0 49       		.uleb128 0x49
 14407 03f1 13       		.uleb128 0x13
 14408 03f2 3C       		.uleb128 0x3c
 14409 03f3 19       		.uleb128 0x19
 14410 03f4 01       		.uleb128 0x1
 14411 03f5 13       		.uleb128 0x13
 14412 03f6 00       		.byte	0
 14413 03f7 00       		.byte	0
 14414 03f8 43       		.uleb128 0x43
 14415 03f9 0B       		.uleb128 0xb
 14416 03fa 01       		.byte	0x1
 14417 03fb 55       		.uleb128 0x55
 14418 03fc 17       		.uleb128 0x17
 14419 03fd 01       		.uleb128 0x1
 14420 03fe 13       		.uleb128 0x13
 14421 03ff 00       		.byte	0
 14422 0400 00       		.byte	0
 14423 0401 44       		.uleb128 0x44
 14424 0402 34       		.uleb128 0x34
 14425 0403 00       		.byte	0
 14426 0404 03       		.uleb128 0x3
 14427 0405 08       		.uleb128 0x8
 14428 0406 3A       		.uleb128 0x3a
 14429 0407 21       		.uleb128 0x21
 14430 0408 01       		.sleb128 1
 14431 0409 3B       		.uleb128 0x3b
 14432 040a 05       		.uleb128 0x5
 14433 040b 39       		.uleb128 0x39
 14434 040c 21       		.uleb128 0x21
 14435 040d 09       		.sleb128 9
 14436 040e 49       		.uleb128 0x49
 14437 040f 13       		.uleb128 0x13
 14438 0410 02       		.uleb128 0x2
 14439 0411 17       		.uleb128 0x17
 14440 0412 B742     		.uleb128 0x2137
ARM GAS  C:\Users\DEVELO~1\AppData\Local\Temp\ccJK6Gr9.s 			page 255


 14441 0414 17       		.uleb128 0x17
 14442 0415 00       		.byte	0
 14443 0416 00       		.byte	0
 14444 0417 45       		.uleb128 0x45
 14445 0418 2E       		.uleb128 0x2e
 14446 0419 01       		.byte	0x1
 14447 041a 03       		.uleb128 0x3
 14448 041b 0E       		.uleb128 0xe
 14449 041c 3A       		.uleb128 0x3a
 14450 041d 21       		.uleb128 0x21
 14451 041e 01       		.sleb128 1
 14452 041f 3B       		.uleb128 0x3b
 14453 0420 05       		.uleb128 0x5
 14454 0421 39       		.uleb128 0x39
 14455 0422 21       		.uleb128 0x21
 14456 0423 0E       		.sleb128 14
 14457 0424 27       		.uleb128 0x27
 14458 0425 19       		.uleb128 0x19
 14459 0426 49       		.uleb128 0x49
 14460 0427 13       		.uleb128 0x13
 14461 0428 20       		.uleb128 0x20
 14462 0429 21       		.uleb128 0x21
 14463 042a 01       		.sleb128 1
 14464 042b 01       		.uleb128 0x1
 14465 042c 13       		.uleb128 0x13
 14466 042d 00       		.byte	0
 14467 042e 00       		.byte	0
 14468 042f 46       		.uleb128 0x46
 14469 0430 2E       		.uleb128 0x2e
 14470 0431 01       		.byte	0x1
 14471 0432 03       		.uleb128 0x3
 14472 0433 0E       		.uleb128 0xe
 14473 0434 3A       		.uleb128 0x3a
 14474 0435 21       		.uleb128 0x21
 14475 0436 01       		.sleb128 1
 14476 0437 3B       		.uleb128 0x3b
 14477 0438 05       		.uleb128 0x5
 14478 0439 39       		.uleb128 0x39
 14479 043a 21       		.uleb128 0x21
 14480 043b 0D       		.sleb128 13
 14481 043c 27       		.uleb128 0x27
 14482 043d 19       		.uleb128 0x19
 14483 043e 11       		.uleb128 0x11
 14484 043f 01       		.uleb128 0x1
 14485 0440 12       		.uleb128 0x12
 14486 0441 06       		.uleb128 0x6
 14487 0442 40       		.uleb128 0x40
 14488 0443 18       		.uleb128 0x18
 14489 0444 7A       		.uleb128 0x7a
 14490 0445 19       		.uleb128 0x19
 14491 0446 01       		.uleb128 0x1
 14492 0447 13       		.uleb128 0x13
 14493 0448 00       		.byte	0
 14494 0449 00       		.byte	0
 14495 044a 47       		.uleb128 0x47
 14496 044b 05       		.uleb128 0x5
 14497 044c 00       		.byte	0
ARM GAS  C:\Users\DEVELO~1\AppData\Local\Temp\ccJK6Gr9.s 			page 256


 14498 044d 03       		.uleb128 0x3
 14499 044e 0E       		.uleb128 0xe
 14500 044f 3A       		.uleb128 0x3a
 14501 0450 21       		.uleb128 0x21
 14502 0451 01       		.sleb128 1
 14503 0452 3B       		.uleb128 0x3b
 14504 0453 0B       		.uleb128 0xb
 14505 0454 39       		.uleb128 0x39
 14506 0455 0B       		.uleb128 0xb
 14507 0456 49       		.uleb128 0x49
 14508 0457 13       		.uleb128 0x13
 14509 0458 02       		.uleb128 0x2
 14510 0459 17       		.uleb128 0x17
 14511 045a B742     		.uleb128 0x2137
 14512 045c 17       		.uleb128 0x17
 14513 045d 00       		.byte	0
 14514 045e 00       		.byte	0
 14515 045f 48       		.uleb128 0x48
 14516 0460 11       		.uleb128 0x11
 14517 0461 01       		.byte	0x1
 14518 0462 25       		.uleb128 0x25
 14519 0463 0E       		.uleb128 0xe
 14520 0464 13       		.uleb128 0x13
 14521 0465 0B       		.uleb128 0xb
 14522 0466 03       		.uleb128 0x3
 14523 0467 0E       		.uleb128 0xe
 14524 0468 1B       		.uleb128 0x1b
 14525 0469 0E       		.uleb128 0xe
 14526 046a 55       		.uleb128 0x55
 14527 046b 17       		.uleb128 0x17
 14528 046c 11       		.uleb128 0x11
 14529 046d 01       		.uleb128 0x1
 14530 046e 10       		.uleb128 0x10
 14531 046f 17       		.uleb128 0x17
 14532 0470 00       		.byte	0
 14533 0471 00       		.byte	0
 14534 0472 49       		.uleb128 0x49
 14535 0473 24       		.uleb128 0x24
 14536 0474 00       		.byte	0
 14537 0475 0B       		.uleb128 0xb
 14538 0476 0B       		.uleb128 0xb
 14539 0477 3E       		.uleb128 0x3e
 14540 0478 0B       		.uleb128 0xb
 14541 0479 03       		.uleb128 0x3
 14542 047a 08       		.uleb128 0x8
 14543 047b 00       		.byte	0
 14544 047c 00       		.byte	0
 14545 047d 4A       		.uleb128 0x4a
 14546 047e 13       		.uleb128 0x13
 14547 047f 01       		.byte	0x1
 14548 0480 03       		.uleb128 0x3
 14549 0481 0E       		.uleb128 0xe
 14550 0482 0B       		.uleb128 0xb
 14551 0483 05       		.uleb128 0x5
 14552 0484 3A       		.uleb128 0x3a
 14553 0485 0B       		.uleb128 0xb
 14554 0486 3B       		.uleb128 0x3b
ARM GAS  C:\Users\DEVELO~1\AppData\Local\Temp\ccJK6Gr9.s 			page 257


 14555 0487 05       		.uleb128 0x5
 14556 0488 39       		.uleb128 0x39
 14557 0489 0B       		.uleb128 0xb
 14558 048a 01       		.uleb128 0x1
 14559 048b 13       		.uleb128 0x13
 14560 048c 00       		.byte	0
 14561 048d 00       		.byte	0
 14562 048e 4B       		.uleb128 0x4b
 14563 048f 0F       		.uleb128 0xf
 14564 0490 00       		.byte	0
 14565 0491 0B       		.uleb128 0xb
 14566 0492 0B       		.uleb128 0xb
 14567 0493 00       		.byte	0
 14568 0494 00       		.byte	0
 14569 0495 4C       		.uleb128 0x4c
 14570 0496 13       		.uleb128 0x13
 14571 0497 01       		.byte	0x1
 14572 0498 0B       		.uleb128 0xb
 14573 0499 05       		.uleb128 0x5
 14574 049a 3A       		.uleb128 0x3a
 14575 049b 0B       		.uleb128 0xb
 14576 049c 3B       		.uleb128 0x3b
 14577 049d 0B       		.uleb128 0xb
 14578 049e 39       		.uleb128 0x39
 14579 049f 0B       		.uleb128 0xb
 14580 04a0 01       		.uleb128 0x1
 14581 04a1 13       		.uleb128 0x13
 14582 04a2 00       		.byte	0
 14583 04a3 00       		.byte	0
 14584 04a4 4D       		.uleb128 0x4d
 14585 04a5 13       		.uleb128 0x13
 14586 04a6 01       		.byte	0x1
 14587 04a7 0B       		.uleb128 0xb
 14588 04a8 05       		.uleb128 0x5
 14589 04a9 3A       		.uleb128 0x3a
 14590 04aa 0B       		.uleb128 0xb
 14591 04ab 3B       		.uleb128 0x3b
 14592 04ac 05       		.uleb128 0x5
 14593 04ad 39       		.uleb128 0x39
 14594 04ae 0B       		.uleb128 0xb
 14595 04af 01       		.uleb128 0x1
 14596 04b0 13       		.uleb128 0x13
 14597 04b1 00       		.byte	0
 14598 04b2 00       		.byte	0
 14599 04b3 4E       		.uleb128 0x4e
 14600 04b4 17       		.uleb128 0x17
 14601 04b5 01       		.byte	0x1
 14602 04b6 0B       		.uleb128 0xb
 14603 04b7 0B       		.uleb128 0xb
 14604 04b8 3A       		.uleb128 0x3a
 14605 04b9 0B       		.uleb128 0xb
 14606 04ba 3B       		.uleb128 0x3b
 14607 04bb 05       		.uleb128 0x5
 14608 04bc 39       		.uleb128 0x39
 14609 04bd 0B       		.uleb128 0xb
 14610 04be 01       		.uleb128 0x1
 14611 04bf 13       		.uleb128 0x13
ARM GAS  C:\Users\DEVELO~1\AppData\Local\Temp\ccJK6Gr9.s 			page 258


 14612 04c0 00       		.byte	0
 14613 04c1 00       		.byte	0
 14614 04c2 4F       		.uleb128 0x4f
 14615 04c3 04       		.uleb128 0x4
 14616 04c4 01       		.byte	0x1
 14617 04c5 3E       		.uleb128 0x3e
 14618 04c6 0B       		.uleb128 0xb
 14619 04c7 0B       		.uleb128 0xb
 14620 04c8 0B       		.uleb128 0xb
 14621 04c9 49       		.uleb128 0x49
 14622 04ca 13       		.uleb128 0x13
 14623 04cb 3A       		.uleb128 0x3a
 14624 04cc 0B       		.uleb128 0xb
 14625 04cd 3B       		.uleb128 0x3b
 14626 04ce 0B       		.uleb128 0xb
 14627 04cf 39       		.uleb128 0x39
 14628 04d0 0B       		.uleb128 0xb
 14629 04d1 01       		.uleb128 0x1
 14630 04d2 13       		.uleb128 0x13
 14631 04d3 00       		.byte	0
 14632 04d4 00       		.byte	0
 14633 04d5 50       		.uleb128 0x50
 14634 04d6 2E       		.uleb128 0x2e
 14635 04d7 00       		.byte	0
 14636 04d8 3F       		.uleb128 0x3f
 14637 04d9 19       		.uleb128 0x19
 14638 04da 03       		.uleb128 0x3
 14639 04db 0E       		.uleb128 0xe
 14640 04dc 3A       		.uleb128 0x3a
 14641 04dd 0B       		.uleb128 0xb
 14642 04de 3B       		.uleb128 0x3b
 14643 04df 05       		.uleb128 0x5
 14644 04e0 39       		.uleb128 0x39
 14645 04e1 0B       		.uleb128 0xb
 14646 04e2 27       		.uleb128 0x27
 14647 04e3 19       		.uleb128 0x19
 14648 04e4 3C       		.uleb128 0x3c
 14649 04e5 19       		.uleb128 0x19
 14650 04e6 00       		.byte	0
 14651 04e7 00       		.byte	0
 14652 04e8 51       		.uleb128 0x51
 14653 04e9 26       		.uleb128 0x26
 14654 04ea 00       		.byte	0
 14655 04eb 00       		.byte	0
 14656 04ec 00       		.byte	0
 14657 04ed 52       		.uleb128 0x52
 14658 04ee 05       		.uleb128 0x5
 14659 04ef 00       		.byte	0
 14660 04f0 03       		.uleb128 0x3
 14661 04f1 08       		.uleb128 0x8
 14662 04f2 3A       		.uleb128 0x3a
 14663 04f3 0B       		.uleb128 0xb
 14664 04f4 3B       		.uleb128 0x3b
 14665 04f5 05       		.uleb128 0x5
 14666 04f6 39       		.uleb128 0x39
 14667 04f7 0B       		.uleb128 0xb
 14668 04f8 49       		.uleb128 0x49
ARM GAS  C:\Users\DEVELO~1\AppData\Local\Temp\ccJK6Gr9.s 			page 259


 14669 04f9 13       		.uleb128 0x13
 14670 04fa 02       		.uleb128 0x2
 14671 04fb 17       		.uleb128 0x17
 14672 04fc B742     		.uleb128 0x2137
 14673 04fe 17       		.uleb128 0x17
 14674 04ff 00       		.byte	0
 14675 0500 00       		.byte	0
 14676 0501 53       		.uleb128 0x53
 14677 0502 05       		.uleb128 0x5
 14678 0503 00       		.byte	0
 14679 0504 31       		.uleb128 0x31
 14680 0505 13       		.uleb128 0x13
 14681 0506 1C       		.uleb128 0x1c
 14682 0507 06       		.uleb128 0x6
 14683 0508 00       		.byte	0
 14684 0509 00       		.byte	0
 14685 050a 54       		.uleb128 0x54
 14686 050b 34       		.uleb128 0x34
 14687 050c 00       		.byte	0
 14688 050d 03       		.uleb128 0x3
 14689 050e 08       		.uleb128 0x8
 14690 050f 3A       		.uleb128 0x3a
 14691 0510 0B       		.uleb128 0xb
 14692 0511 3B       		.uleb128 0x3b
 14693 0512 05       		.uleb128 0x5
 14694 0513 39       		.uleb128 0x39
 14695 0514 0B       		.uleb128 0xb
 14696 0515 49       		.uleb128 0x49
 14697 0516 13       		.uleb128 0x13
 14698 0517 00       		.byte	0
 14699 0518 00       		.byte	0
 14700 0519 55       		.uleb128 0x55
 14701 051a 2E       		.uleb128 0x2e
 14702 051b 01       		.byte	0x1
 14703 051c 03       		.uleb128 0x3
 14704 051d 0E       		.uleb128 0xe
 14705 051e 3A       		.uleb128 0x3a
 14706 051f 0B       		.uleb128 0xb
 14707 0520 3B       		.uleb128 0x3b
 14708 0521 0B       		.uleb128 0xb
 14709 0522 39       		.uleb128 0x39
 14710 0523 0B       		.uleb128 0xb
 14711 0524 27       		.uleb128 0x27
 14712 0525 19       		.uleb128 0x19
 14713 0526 49       		.uleb128 0x49
 14714 0527 13       		.uleb128 0x13
 14715 0528 11       		.uleb128 0x11
 14716 0529 01       		.uleb128 0x1
 14717 052a 12       		.uleb128 0x12
 14718 052b 06       		.uleb128 0x6
 14719 052c 40       		.uleb128 0x40
 14720 052d 18       		.uleb128 0x18
 14721 052e 7A       		.uleb128 0x7a
 14722 052f 19       		.uleb128 0x19
 14723 0530 01       		.uleb128 0x1
 14724 0531 13       		.uleb128 0x13
 14725 0532 00       		.byte	0
ARM GAS  C:\Users\DEVELO~1\AppData\Local\Temp\ccJK6Gr9.s 			page 260


 14726 0533 00       		.byte	0
 14727 0534 56       		.uleb128 0x56
 14728 0535 2E       		.uleb128 0x2e
 14729 0536 01       		.byte	0x1
 14730 0537 03       		.uleb128 0x3
 14731 0538 0E       		.uleb128 0xe
 14732 0539 3A       		.uleb128 0x3a
 14733 053a 0B       		.uleb128 0xb
 14734 053b 3B       		.uleb128 0x3b
 14735 053c 0B       		.uleb128 0xb
 14736 053d 39       		.uleb128 0x39
 14737 053e 0B       		.uleb128 0xb
 14738 053f 27       		.uleb128 0x27
 14739 0540 19       		.uleb128 0x19
 14740 0541 11       		.uleb128 0x11
 14741 0542 01       		.uleb128 0x1
 14742 0543 12       		.uleb128 0x12
 14743 0544 06       		.uleb128 0x6
 14744 0545 40       		.uleb128 0x40
 14745 0546 18       		.uleb128 0x18
 14746 0547 7A       		.uleb128 0x7a
 14747 0548 19       		.uleb128 0x19
 14748 0549 01       		.uleb128 0x1
 14749 054a 13       		.uleb128 0x13
 14750 054b 00       		.byte	0
 14751 054c 00       		.byte	0
 14752 054d 57       		.uleb128 0x57
 14753 054e 1D       		.uleb128 0x1d
 14754 054f 01       		.byte	0x1
 14755 0550 31       		.uleb128 0x31
 14756 0551 13       		.uleb128 0x13
 14757 0552 52       		.uleb128 0x52
 14758 0553 01       		.uleb128 0x1
 14759 0554 B842     		.uleb128 0x2138
 14760 0556 05       		.uleb128 0x5
 14761 0557 55       		.uleb128 0x55
 14762 0558 17       		.uleb128 0x17
 14763 0559 58       		.uleb128 0x58
 14764 055a 0B       		.uleb128 0xb
 14765 055b 59       		.uleb128 0x59
 14766 055c 0B       		.uleb128 0xb
 14767 055d 57       		.uleb128 0x57
 14768 055e 0B       		.uleb128 0xb
 14769 055f 00       		.byte	0
 14770 0560 00       		.byte	0
 14771 0561 58       		.uleb128 0x58
 14772 0562 05       		.uleb128 0x5
 14773 0563 00       		.byte	0
 14774 0564 03       		.uleb128 0x3
 14775 0565 08       		.uleb128 0x8
 14776 0566 3A       		.uleb128 0x3a
 14777 0567 0B       		.uleb128 0xb
 14778 0568 3B       		.uleb128 0x3b
 14779 0569 0B       		.uleb128 0xb
 14780 056a 39       		.uleb128 0x39
 14781 056b 0B       		.uleb128 0xb
 14782 056c 49       		.uleb128 0x49
ARM GAS  C:\Users\DEVELO~1\AppData\Local\Temp\ccJK6Gr9.s 			page 261


 14783 056d 13       		.uleb128 0x13
 14784 056e 00       		.byte	0
 14785 056f 00       		.byte	0
 14786 0570 59       		.uleb128 0x59
 14787 0571 48       		.uleb128 0x48
 14788 0572 01       		.byte	0x1
 14789 0573 7D       		.uleb128 0x7d
 14790 0574 01       		.uleb128 0x1
 14791 0575 8201     		.uleb128 0x82
 14792 0577 19       		.uleb128 0x19
 14793 0578 00       		.byte	0
 14794 0579 00       		.byte	0
 14795 057a 5A       		.uleb128 0x5a
 14796 057b 2E       		.uleb128 0x2e
 14797 057c 01       		.byte	0x1
 14798 057d 31       		.uleb128 0x31
 14799 057e 13       		.uleb128 0x13
 14800 057f 11       		.uleb128 0x11
 14801 0580 01       		.uleb128 0x1
 14802 0581 12       		.uleb128 0x12
 14803 0582 06       		.uleb128 0x6
 14804 0583 40       		.uleb128 0x40
 14805 0584 18       		.uleb128 0x18
 14806 0585 7A       		.uleb128 0x7a
 14807 0586 19       		.uleb128 0x19
 14808 0587 00       		.byte	0
 14809 0588 00       		.byte	0
 14810 0589 00       		.byte	0
 14811              		.section	.debug_loclists,"",%progbits
 14812 0000 AE0D0000 		.4byte	.Ldebug_loc3-.Ldebug_loc2
 14813              	.Ldebug_loc2:
 14814 0004 0500     		.2byte	0x5
 14815 0006 04       		.byte	0x4
 14816 0007 00       		.byte	0
 14817 0008 00000000 		.4byte	0
 14818              	.Ldebug_loc0:
 14819              	.LVUS184:
 14820 000c 00       		.uleb128 0
 14821 000d 00       		.uleb128 .LVU1866
 14822 000e 00       		.uleb128 .LVU1866
 14823 000f 00       		.uleb128 .LVU1885
 14824 0010 00       		.uleb128 .LVU1885
 14825 0011 00       		.uleb128 .LVU1898
 14826 0012 00       		.uleb128 .LVU1898
 14827 0013 00       		.uleb128 .LVU1900
 14828 0014 00       		.uleb128 .LVU1900
 14829 0015 00       		.uleb128 .LVU1908
 14830 0016 00       		.uleb128 .LVU1908
 14831 0017 00       		.uleb128 0
 14832              	.LLST184:
 14833 0018 06       		.byte	0x6
 14834 0019 00000000 		.4byte	.LVL314
 14835 001d 04       		.byte	0x4
 14836 001e 00       		.uleb128 .LVL314-.LVL314
 14837 001f 40       		.uleb128 .LVL321-.LVL314
 14838 0020 01       		.uleb128 0x1
 14839 0021 50       		.byte	0x50
ARM GAS  C:\Users\DEVELO~1\AppData\Local\Temp\ccJK6Gr9.s 			page 262


 14840 0022 04       		.byte	0x4
 14841 0023 40       		.uleb128 .LVL321-.LVL314
 14842 0024 5C       		.uleb128 .LVL323-.LVL314
 14843 0025 04       		.uleb128 0x4
 14844 0026 A3       		.byte	0xa3
 14845 0027 01       		.uleb128 0x1
 14846 0028 50       		.byte	0x50
 14847 0029 9F       		.byte	0x9f
 14848 002a 04       		.byte	0x4
 14849 002b 5C       		.uleb128 .LVL323-.LVL314
 14850 002c 6E       		.uleb128 .LVL326-.LVL314
 14851 002d 01       		.uleb128 0x1
 14852 002e 50       		.byte	0x50
 14853 002f 04       		.byte	0x4
 14854 0030 6E       		.uleb128 .LVL326-.LVL314
 14855 0031 74       		.uleb128 .LVL328-.LVL314
 14856 0032 04       		.uleb128 0x4
 14857 0033 A3       		.byte	0xa3
 14858 0034 01       		.uleb128 0x1
 14859 0035 50       		.byte	0x50
 14860 0036 9F       		.byte	0x9f
 14861 0037 04       		.byte	0x4
 14862 0038 74       		.uleb128 .LVL328-.LVL314
 14863 0039 7E       		.uleb128 .LVL329-.LVL314
 14864 003a 01       		.uleb128 0x1
 14865 003b 50       		.byte	0x50
 14866 003c 04       		.byte	0x4
 14867 003d 7E       		.uleb128 .LVL329-.LVL314
 14868 003e 8201     		.uleb128 .LFE474-.LVL314
 14869 0040 04       		.uleb128 0x4
 14870 0041 A3       		.byte	0xa3
 14871 0042 01       		.uleb128 0x1
 14872 0043 50       		.byte	0x50
 14873 0044 9F       		.byte	0x9f
 14874 0045 00       		.byte	0
 14875              	.LVUS185:
 14876 0046 00       		.uleb128 0
 14877 0047 00       		.uleb128 .LVU1854
 14878 0048 00       		.uleb128 .LVU1854
 14879 0049 00       		.uleb128 .LVU1885
 14880 004a 00       		.uleb128 .LVU1885
 14881 004b 00       		.uleb128 .LVU1891
 14882 004c 00       		.uleb128 .LVU1891
 14883 004d 00       		.uleb128 .LVU1900
 14884 004e 00       		.uleb128 .LVU1900
 14885 004f 00       		.uleb128 0
 14886              	.LLST185:
 14887 0050 06       		.byte	0x6
 14888 0051 00000000 		.4byte	.LVL314
 14889 0055 04       		.byte	0x4
 14890 0056 00       		.uleb128 .LVL314-.LVL314
 14891 0057 2A       		.uleb128 .LVL319-.LVL314
 14892 0058 01       		.uleb128 0x1
 14893 0059 51       		.byte	0x51
 14894 005a 04       		.byte	0x4
 14895 005b 2A       		.uleb128 .LVL319-.LVL314
 14896 005c 5C       		.uleb128 .LVL323-.LVL314
ARM GAS  C:\Users\DEVELO~1\AppData\Local\Temp\ccJK6Gr9.s 			page 263


 14897 005d 04       		.uleb128 0x4
 14898 005e A3       		.byte	0xa3
 14899 005f 01       		.uleb128 0x1
 14900 0060 51       		.byte	0x51
 14901 0061 9F       		.byte	0x9f
 14902 0062 04       		.byte	0x4
 14903 0063 5C       		.uleb128 .LVL323-.LVL314
 14904 0064 64       		.uleb128 .LVL325-.LVL314
 14905 0065 01       		.uleb128 0x1
 14906 0066 51       		.byte	0x51
 14907 0067 04       		.byte	0x4
 14908 0068 64       		.uleb128 .LVL325-.LVL314
 14909 0069 74       		.uleb128 .LVL328-.LVL314
 14910 006a 04       		.uleb128 0x4
 14911 006b A3       		.byte	0xa3
 14912 006c 01       		.uleb128 0x1
 14913 006d 51       		.byte	0x51
 14914 006e 9F       		.byte	0x9f
 14915 006f 04       		.byte	0x4
 14916 0070 74       		.uleb128 .LVL328-.LVL314
 14917 0071 8201     		.uleb128 .LFE474-.LVL314
 14918 0073 01       		.uleb128 0x1
 14919 0074 51       		.byte	0x51
 14920 0075 00       		.byte	0
 14921              	.LVUS186:
 14922 0076 00       		.uleb128 .LVU1836
 14923 0077 00       		.uleb128 0
 14924              	.LLST186:
 14925 0078 08       		.byte	0x8
 14926 0079 12000000 		.4byte	.LVL315
 14927 007d 70       		.uleb128 .LFE474-.LVL315
 14928 007e 01       		.uleb128 0x1
 14929 007f 5C       		.byte	0x5c
 14930 0080 00       		.byte	0
 14931              	.LVUS187:
 14932 0081 00       		.uleb128 .LVU1866
 14933 0082 00       		.uleb128 .LVU1885
 14934 0083 00       		.uleb128 .LVU1899
 14935 0084 00       		.uleb128 .LVU1900
 14936 0085 00       		.uleb128 .LVU1908
 14937 0086 00       		.uleb128 0
 14938              	.LLST187:
 14939 0087 06       		.byte	0x6
 14940 0088 40000000 		.4byte	.LVL321
 14941 008c 04       		.byte	0x4
 14942 008d 00       		.uleb128 .LVL321-.LVL321
 14943 008e 1C       		.uleb128 .LVL323-.LVL321
 14944 008f 01       		.uleb128 0x1
 14945 0090 50       		.byte	0x50
 14946 0091 04       		.byte	0x4
 14947 0092 32       		.uleb128 .LVL327-.LVL321
 14948 0093 34       		.uleb128 .LVL328-.LVL321
 14949 0094 01       		.uleb128 0x1
 14950 0095 50       		.byte	0x50
 14951 0096 04       		.byte	0x4
 14952 0097 3E       		.uleb128 .LVL329-.LVL321
 14953 0098 42       		.uleb128 .LFE474-.LVL321
ARM GAS  C:\Users\DEVELO~1\AppData\Local\Temp\ccJK6Gr9.s 			page 264


 14954 0099 01       		.uleb128 0x1
 14955 009a 50       		.byte	0x50
 14956 009b 00       		.byte	0
 14957              	.LVUS191:
 14958 009c 01       		.uleb128 .LVU1851
 14959 009d 00       		.uleb128 .LVU1863
 14960              	.LLST191:
 14961 009e 08       		.byte	0x8
 14962 009f 28000000 		.4byte	.LVL318
 14963 00a3 14       		.uleb128 .LVL320-.LVL318
 14964 00a4 03       		.uleb128 0x3
 14965 00a5 73       		.byte	0x73
 14966 00a6 20       		.sleb128 32
 14967 00a7 9F       		.byte	0x9f
 14968 00a8 00       		.byte	0
 14969              	.LVUS192:
 14970 00a9 02       		.uleb128 .LVU1852
 14971 00aa 00       		.uleb128 .LVU1863
 14972              	.LLST192:
 14973 00ab 08       		.byte	0x8
 14974 00ac 28000000 		.4byte	.LVL318
 14975 00b0 14       		.uleb128 .LVL320-.LVL318
 14976 00b1 03       		.uleb128 0x3
 14977 00b2 73       		.byte	0x73
 14978 00b3 30       		.sleb128 48
 14979 00b4 9F       		.byte	0x9f
 14980 00b5 00       		.byte	0
 14981              	.LVUS196:
 14982 00b6 01       		.uleb128 .LVU1888
 14983 00b7 00       		.uleb128 .LVU1900
 14984              	.LLST196:
 14985 00b8 08       		.byte	0x8
 14986 00b9 62000000 		.4byte	.LVL324
 14987 00bd 12       		.uleb128 .LVL328-.LVL324
 14988 00be 03       		.uleb128 0x3
 14989 00bf 73       		.byte	0x73
 14990 00c0 20       		.sleb128 32
 14991 00c1 9F       		.byte	0x9f
 14992 00c2 00       		.byte	0
 14993              	.LVUS197:
 14994 00c3 02       		.uleb128 .LVU1889
 14995 00c4 00       		.uleb128 .LVU1900
 14996              	.LLST197:
 14997 00c5 08       		.byte	0x8
 14998 00c6 62000000 		.4byte	.LVL324
 14999 00ca 12       		.uleb128 .LVL328-.LVL324
 15000 00cb 03       		.uleb128 0x3
 15001 00cc 73       		.byte	0x73
 15002 00cd 30       		.sleb128 48
 15003 00ce 9F       		.byte	0x9f
 15004 00cf 00       		.byte	0
 15005              	.LVUS189:
 15006 00d0 02       		.uleb128 .LVU1838
 15007 00d1 00       		.uleb128 .LVU1844
 15008              	.LLST189:
 15009 00d2 08       		.byte	0x8
 15010 00d3 12000000 		.4byte	.LVL315
ARM GAS  C:\Users\DEVELO~1\AppData\Local\Temp\ccJK6Gr9.s 			page 265


 15011 00d7 0A       		.uleb128 .LVL317-.LVL315
 15012 00d8 01       		.uleb128 0x1
 15013 00d9 50       		.byte	0x50
 15014 00da 00       		.byte	0
 15015              	.LVUS194:
 15016 00db 03       		.uleb128 .LVU1869
 15017 00dc 00       		.uleb128 .LVU1882
 15018              	.LLST194:
 15019 00dd 08       		.byte	0x8
 15020 00de 40000000 		.4byte	.LVL321
 15021 00e2 1A       		.uleb128 .LVL322-.LVL321
 15022 00e3 04       		.uleb128 0x4
 15023 00e4 A3       		.byte	0xa3
 15024 00e5 01       		.uleb128 0x1
 15025 00e6 50       		.byte	0x50
 15026 00e7 9F       		.byte	0x9f
 15027 00e8 00       		.byte	0
 15028              	.LVUS181:
 15029 00e9 00       		.uleb128 0
 15030 00ea 00       		.uleb128 .LVU1813
 15031 00eb 00       		.uleb128 .LVU1813
 15032 00ec 00       		.uleb128 0
 15033              	.LLST181:
 15034 00ed 06       		.byte	0x6
 15035 00ee 00000000 		.4byte	.LVL311
 15036 00f2 04       		.byte	0x4
 15037 00f3 00       		.uleb128 .LVL311-.LVL311
 15038 00f4 09       		.uleb128 .LVL312-1-.LVL311
 15039 00f5 01       		.uleb128 0x1
 15040 00f6 50       		.byte	0x50
 15041 00f7 04       		.byte	0x4
 15042 00f8 09       		.uleb128 .LVL312-1-.LVL311
 15043 00f9 26       		.uleb128 .LFE473-.LVL311
 15044 00fa 01       		.uleb128 0x1
 15045 00fb 55       		.byte	0x55
 15046 00fc 00       		.byte	0
 15047              	.LVUS182:
 15048 00fd 00       		.uleb128 0
 15049 00fe 00       		.uleb128 .LVU1813
 15050 00ff 00       		.uleb128 .LVU1813
 15051 0100 00       		.uleb128 0
 15052              	.LLST182:
 15053 0101 06       		.byte	0x6
 15054 0102 00000000 		.4byte	.LVL311
 15055 0106 04       		.byte	0x4
 15056 0107 00       		.uleb128 .LVL311-.LVL311
 15057 0108 09       		.uleb128 .LVL312-1-.LVL311
 15058 0109 01       		.uleb128 0x1
 15059 010a 51       		.byte	0x51
 15060 010b 04       		.byte	0x4
 15061 010c 09       		.uleb128 .LVL312-1-.LVL311
 15062 010d 26       		.uleb128 .LFE473-.LVL311
 15063 010e 01       		.uleb128 0x1
 15064 010f 54       		.byte	0x54
 15065 0110 00       		.byte	0
 15066              	.LVUS183:
 15067 0111 00       		.uleb128 .LVU1813
ARM GAS  C:\Users\DEVELO~1\AppData\Local\Temp\ccJK6Gr9.s 			page 266


 15068 0112 00       		.uleb128 0
 15069              	.LLST183:
 15070 0113 08       		.byte	0x8
 15071 0114 0A000000 		.4byte	.LVL312
 15072 0118 1C       		.uleb128 .LFE473-.LVL312
 15073 0119 01       		.uleb128 0x1
 15074 011a 50       		.byte	0x50
 15075 011b 00       		.byte	0
 15076              	.LVUS177:
 15077 011c 00       		.uleb128 0
 15078 011d 00       		.uleb128 .LVU1793
 15079 011e 00       		.uleb128 .LVU1793
 15080 011f 00       		.uleb128 .LVU1794
 15081 0120 00       		.uleb128 .LVU1794
 15082 0121 00       		.uleb128 0
 15083              	.LLST177:
 15084 0122 06       		.byte	0x6
 15085 0123 00000000 		.4byte	.LVL301
 15086 0127 04       		.byte	0x4
 15087 0128 00       		.uleb128 .LVL301-.LVL301
 15088 0129 4A       		.uleb128 .LVL307-.LVL301
 15089 012a 01       		.uleb128 0x1
 15090 012b 50       		.byte	0x50
 15091 012c 04       		.byte	0x4
 15092 012d 4A       		.uleb128 .LVL307-.LVL301
 15093 012e 50       		.uleb128 .LVL308-.LVL301
 15094 012f 04       		.uleb128 0x4
 15095 0130 A3       		.byte	0xa3
 15096 0131 01       		.uleb128 0x1
 15097 0132 50       		.byte	0x50
 15098 0133 9F       		.byte	0x9f
 15099 0134 04       		.byte	0x4
 15100 0135 50       		.uleb128 .LVL308-.LVL301
 15101 0136 68       		.uleb128 .LFE472-.LVL301
 15102 0137 01       		.uleb128 0x1
 15103 0138 50       		.byte	0x50
 15104 0139 00       		.byte	0
 15105              	.LVUS178:
 15106 013a 00       		.uleb128 0
 15107 013b 00       		.uleb128 .LVU1764
 15108 013c 00       		.uleb128 .LVU1764
 15109 013d 00       		.uleb128 .LVU1765
 15110 013e 00       		.uleb128 .LVU1765
 15111 013f 00       		.uleb128 .LVU1794
 15112 0140 00       		.uleb128 .LVU1794
 15113 0141 00       		.uleb128 .LVU1802
 15114 0142 00       		.uleb128 .LVU1802
 15115 0143 00       		.uleb128 .LVU1803
 15116 0144 00       		.uleb128 .LVU1803
 15117 0145 00       		.uleb128 0
 15118              	.LLST178:
 15119 0146 06       		.byte	0x6
 15120 0147 00000000 		.4byte	.LVL301
 15121 014b 04       		.byte	0x4
 15122 014c 00       		.uleb128 .LVL301-.LVL301
 15123 014d 18       		.uleb128 .LVL302-.LVL301
 15124 014e 01       		.uleb128 0x1
ARM GAS  C:\Users\DEVELO~1\AppData\Local\Temp\ccJK6Gr9.s 			page 267


 15125 014f 52       		.byte	0x52
 15126 0150 04       		.byte	0x4
 15127 0151 18       		.uleb128 .LVL302-.LVL301
 15128 0152 1A       		.uleb128 .LVL303-.LVL301
 15129 0153 02       		.uleb128 0x2
 15130 0154 74       		.byte	0x74
 15131 0155 0C       		.sleb128 12
 15132 0156 04       		.byte	0x4
 15133 0157 1A       		.uleb128 .LVL303-.LVL301
 15134 0158 50       		.uleb128 .LVL308-.LVL301
 15135 0159 04       		.uleb128 0x4
 15136 015a A3       		.byte	0xa3
 15137 015b 01       		.uleb128 0x1
 15138 015c 52       		.byte	0x52
 15139 015d 9F       		.byte	0x9f
 15140 015e 04       		.byte	0x4
 15141 015f 50       		.uleb128 .LVL308-.LVL301
 15142 0160 5E       		.uleb128 .LVL309-.LVL301
 15143 0161 01       		.uleb128 0x1
 15144 0162 52       		.byte	0x52
 15145 0163 04       		.byte	0x4
 15146 0164 5E       		.uleb128 .LVL309-.LVL301
 15147 0165 60       		.uleb128 .LVL310-.LVL301
 15148 0166 02       		.uleb128 0x2
 15149 0167 74       		.byte	0x74
 15150 0168 0C       		.sleb128 12
 15151 0169 04       		.byte	0x4
 15152 016a 60       		.uleb128 .LVL310-.LVL301
 15153 016b 68       		.uleb128 .LFE472-.LVL301
 15154 016c 04       		.uleb128 0x4
 15155 016d A3       		.byte	0xa3
 15156 016e 01       		.uleb128 0x1
 15157 016f 52       		.byte	0x52
 15158 0170 9F       		.byte	0x9f
 15159 0171 00       		.byte	0
 15160              	.LVUS180:
 15161 0172 04       		.uleb128 .LVU1782
 15162 0173 00       		.uleb128 .LVU1790
 15163              	.LLST180:
 15164 0174 08       		.byte	0x8
 15165 0175 30000000 		.4byte	.LVL304
 15166 0179 18       		.uleb128 .LVL306-.LVL304
 15167 017a 01       		.uleb128 0x1
 15168 017b 50       		.byte	0x50
 15169 017c 00       		.byte	0
 15170              	.LVUS173:
 15171 017d 00       		.uleb128 0
 15172 017e 00       		.uleb128 .LVU1731
 15173 017f 00       		.uleb128 .LVU1731
 15174 0180 00       		.uleb128 .LVU1732
 15175 0181 00       		.uleb128 .LVU1732
 15176 0182 00       		.uleb128 0
 15177              	.LLST173:
 15178 0183 06       		.byte	0x6
 15179 0184 00000000 		.4byte	.LVL291
 15180 0188 04       		.byte	0x4
 15181 0189 00       		.uleb128 .LVL291-.LVL291
ARM GAS  C:\Users\DEVELO~1\AppData\Local\Temp\ccJK6Gr9.s 			page 268


 15182 018a 4A       		.uleb128 .LVL297-.LVL291
 15183 018b 01       		.uleb128 0x1
 15184 018c 50       		.byte	0x50
 15185 018d 04       		.byte	0x4
 15186 018e 4A       		.uleb128 .LVL297-.LVL291
 15187 018f 50       		.uleb128 .LVL298-.LVL291
 15188 0190 04       		.uleb128 0x4
 15189 0191 A3       		.byte	0xa3
 15190 0192 01       		.uleb128 0x1
 15191 0193 50       		.byte	0x50
 15192 0194 9F       		.byte	0x9f
 15193 0195 04       		.byte	0x4
 15194 0196 50       		.uleb128 .LVL298-.LVL291
 15195 0197 6E       		.uleb128 .LFE471-.LVL291
 15196 0198 01       		.uleb128 0x1
 15197 0199 50       		.byte	0x50
 15198 019a 00       		.byte	0
 15199              	.LVUS174:
 15200 019b 00       		.uleb128 0
 15201 019c 00       		.uleb128 .LVU1710
 15202 019d 00       		.uleb128 .LVU1710
 15203 019e 00       		.uleb128 .LVU1711
 15204 019f 00       		.uleb128 .LVU1711
 15205 01a0 00       		.uleb128 .LVU1732
 15206 01a1 00       		.uleb128 .LVU1732
 15207 01a2 00       		.uleb128 .LVU1744
 15208 01a3 00       		.uleb128 .LVU1744
 15209 01a4 00       		.uleb128 .LVU1745
 15210 01a5 00       		.uleb128 .LVU1745
 15211 01a6 00       		.uleb128 0
 15212              	.LLST174:
 15213 01a7 06       		.byte	0x6
 15214 01a8 00000000 		.4byte	.LVL291
 15215 01ac 04       		.byte	0x4
 15216 01ad 00       		.uleb128 .LVL291-.LVL291
 15217 01ae 20       		.uleb128 .LVL292-.LVL291
 15218 01af 01       		.uleb128 0x1
 15219 01b0 52       		.byte	0x52
 15220 01b1 04       		.byte	0x4
 15221 01b2 20       		.uleb128 .LVL292-.LVL291
 15222 01b3 22       		.uleb128 .LVL293-.LVL291
 15223 01b4 02       		.uleb128 0x2
 15224 01b5 73       		.byte	0x73
 15225 01b6 0C       		.sleb128 12
 15226 01b7 04       		.byte	0x4
 15227 01b8 22       		.uleb128 .LVL293-.LVL291
 15228 01b9 50       		.uleb128 .LVL298-.LVL291
 15229 01ba 04       		.uleb128 0x4
 15230 01bb A3       		.byte	0xa3
 15231 01bc 01       		.uleb128 0x1
 15232 01bd 52       		.byte	0x52
 15233 01be 9F       		.byte	0x9f
 15234 01bf 04       		.byte	0x4
 15235 01c0 50       		.uleb128 .LVL298-.LVL291
 15236 01c1 66       		.uleb128 .LVL299-.LVL291
 15237 01c2 01       		.uleb128 0x1
 15238 01c3 52       		.byte	0x52
ARM GAS  C:\Users\DEVELO~1\AppData\Local\Temp\ccJK6Gr9.s 			page 269


 15239 01c4 04       		.byte	0x4
 15240 01c5 66       		.uleb128 .LVL299-.LVL291
 15241 01c6 68       		.uleb128 .LVL300-.LVL291
 15242 01c7 02       		.uleb128 0x2
 15243 01c8 73       		.byte	0x73
 15244 01c9 0C       		.sleb128 12
 15245 01ca 04       		.byte	0x4
 15246 01cb 68       		.uleb128 .LVL300-.LVL291
 15247 01cc 6E       		.uleb128 .LFE471-.LVL291
 15248 01cd 04       		.uleb128 0x4
 15249 01ce A3       		.byte	0xa3
 15250 01cf 01       		.uleb128 0x1
 15251 01d0 52       		.byte	0x52
 15252 01d1 9F       		.byte	0x9f
 15253 01d2 00       		.byte	0
 15254              	.LVUS176:
 15255 01d3 04       		.uleb128 .LVU1720
 15256 01d4 00       		.uleb128 .LVU1728
 15257              	.LLST176:
 15258 01d5 08       		.byte	0x8
 15259 01d6 30000000 		.4byte	.LVL294
 15260 01da 18       		.uleb128 .LVL296-.LVL294
 15261 01db 01       		.uleb128 0x1
 15262 01dc 50       		.byte	0x50
 15263 01dd 00       		.byte	0
 15264              	.LVUS168:
 15265 01de 00       		.uleb128 0
 15266 01df 00       		.uleb128 .LVU1673
 15267 01e0 00       		.uleb128 .LVU1673
 15268 01e1 00       		.uleb128 .LVU1674
 15269 01e2 00       		.uleb128 .LVU1674
 15270 01e3 00       		.uleb128 0
 15271              	.LLST168:
 15272 01e4 06       		.byte	0x6
 15273 01e5 00000000 		.4byte	.LVL277
 15274 01e9 04       		.byte	0x4
 15275 01ea 00       		.uleb128 .LVL277-.LVL277
 15276 01eb 4A       		.uleb128 .LVL285-.LVL277
 15277 01ec 01       		.uleb128 0x1
 15278 01ed 50       		.byte	0x50
 15279 01ee 04       		.byte	0x4
 15280 01ef 4A       		.uleb128 .LVL285-.LVL277
 15281 01f0 50       		.uleb128 .LVL286-.LVL277
 15282 01f1 04       		.uleb128 0x4
 15283 01f2 A3       		.byte	0xa3
 15284 01f3 01       		.uleb128 0x1
 15285 01f4 50       		.byte	0x50
 15286 01f5 9F       		.byte	0x9f
 15287 01f6 04       		.byte	0x4
 15288 01f7 50       		.uleb128 .LVL286-.LVL277
 15289 01f8 70       		.uleb128 .LFE470-.LVL277
 15290 01f9 01       		.uleb128 0x1
 15291 01fa 50       		.byte	0x50
 15292 01fb 00       		.byte	0
 15293              	.LVUS169:
 15294 01fc 00       		.uleb128 0
 15295 01fd 00       		.uleb128 .LVU1652
ARM GAS  C:\Users\DEVELO~1\AppData\Local\Temp\ccJK6Gr9.s 			page 270


 15296 01fe 00       		.uleb128 .LVU1652
 15297 01ff 00       		.uleb128 .LVU1653
 15298 0200 00       		.uleb128 .LVU1653
 15299 0201 00       		.uleb128 .LVU1674
 15300 0202 00       		.uleb128 .LVU1674
 15301 0203 00       		.uleb128 .LVU1686
 15302 0204 00       		.uleb128 .LVU1686
 15303 0205 00       		.uleb128 .LVU1687
 15304 0206 00       		.uleb128 .LVU1687
 15305 0207 00       		.uleb128 0
 15306              	.LLST169:
 15307 0208 06       		.byte	0x6
 15308 0209 00000000 		.4byte	.LVL277
 15309 020d 04       		.byte	0x4
 15310 020e 00       		.uleb128 .LVL277-.LVL277
 15311 020f 20       		.uleb128 .LVL280-.LVL277
 15312 0210 01       		.uleb128 0x1
 15313 0211 52       		.byte	0x52
 15314 0212 04       		.byte	0x4
 15315 0213 20       		.uleb128 .LVL280-.LVL277
 15316 0214 22       		.uleb128 .LVL281-.LVL277
 15317 0215 02       		.uleb128 0x2
 15318 0216 73       		.byte	0x73
 15319 0217 0C       		.sleb128 12
 15320 0218 04       		.byte	0x4
 15321 0219 22       		.uleb128 .LVL281-.LVL277
 15322 021a 50       		.uleb128 .LVL286-.LVL277
 15323 021b 04       		.uleb128 0x4
 15324 021c A3       		.byte	0xa3
 15325 021d 01       		.uleb128 0x1
 15326 021e 52       		.byte	0x52
 15327 021f 9F       		.byte	0x9f
 15328 0220 04       		.byte	0x4
 15329 0221 50       		.uleb128 .LVL286-.LVL277
 15330 0222 68       		.uleb128 .LVL289-.LVL277
 15331 0223 01       		.uleb128 0x1
 15332 0224 52       		.byte	0x52
 15333 0225 04       		.byte	0x4
 15334 0226 68       		.uleb128 .LVL289-.LVL277
 15335 0227 6A       		.uleb128 .LVL290-.LVL277
 15336 0228 02       		.uleb128 0x2
 15337 0229 73       		.byte	0x73
 15338 022a 0C       		.sleb128 12
 15339 022b 04       		.byte	0x4
 15340 022c 6A       		.uleb128 .LVL290-.LVL277
 15341 022d 70       		.uleb128 .LFE470-.LVL277
 15342 022e 04       		.uleb128 0x4
 15343 022f A3       		.byte	0xa3
 15344 0230 01       		.uleb128 0x1
 15345 0231 52       		.byte	0x52
 15346 0232 9F       		.byte	0x9f
 15347 0233 00       		.byte	0
 15348              	.LVUS170:
 15349 0234 00       		.uleb128 0
 15350 0235 00       		.uleb128 .LVU1644
 15351 0236 00       		.uleb128 .LVU1644
 15352 0237 00       		.uleb128 .LVU1645
ARM GAS  C:\Users\DEVELO~1\AppData\Local\Temp\ccJK6Gr9.s 			page 271


 15353 0238 00       		.uleb128 .LVU1645
 15354 0239 00       		.uleb128 .LVU1674
 15355 023a 00       		.uleb128 .LVU1674
 15356 023b 00       		.uleb128 .LVU1678
 15357 023c 00       		.uleb128 .LVU1678
 15358 023d 00       		.uleb128 .LVU1679
 15359 023e 00       		.uleb128 .LVU1679
 15360 023f 00       		.uleb128 0
 15361              	.LLST170:
 15362 0240 06       		.byte	0x6
 15363 0241 00000000 		.4byte	.LVL277
 15364 0245 04       		.byte	0x4
 15365 0246 00       		.uleb128 .LVL277-.LVL277
 15366 0247 10       		.uleb128 .LVL278-.LVL277
 15367 0248 01       		.uleb128 0x1
 15368 0249 53       		.byte	0x53
 15369 024a 04       		.byte	0x4
 15370 024b 10       		.uleb128 .LVL278-.LVL277
 15371 024c 12       		.uleb128 .LVL279-.LVL277
 15372 024d 02       		.uleb128 0x2
 15373 024e 74       		.byte	0x74
 15374 024f 0C       		.sleb128 12
 15375 0250 04       		.byte	0x4
 15376 0251 12       		.uleb128 .LVL279-.LVL277
 15377 0252 50       		.uleb128 .LVL286-.LVL277
 15378 0253 04       		.uleb128 0x4
 15379 0254 A3       		.byte	0xa3
 15380 0255 01       		.uleb128 0x1
 15381 0256 53       		.byte	0x53
 15382 0257 9F       		.byte	0x9f
 15383 0258 04       		.byte	0x4
 15384 0259 50       		.uleb128 .LVL286-.LVL277
 15385 025a 58       		.uleb128 .LVL287-.LVL277
 15386 025b 01       		.uleb128 0x1
 15387 025c 53       		.byte	0x53
 15388 025d 04       		.byte	0x4
 15389 025e 58       		.uleb128 .LVL287-.LVL277
 15390 025f 5A       		.uleb128 .LVL288-.LVL277
 15391 0260 02       		.uleb128 0x2
 15392 0261 74       		.byte	0x74
 15393 0262 0C       		.sleb128 12
 15394 0263 04       		.byte	0x4
 15395 0264 5A       		.uleb128 .LVL288-.LVL277
 15396 0265 70       		.uleb128 .LFE470-.LVL277
 15397 0266 04       		.uleb128 0x4
 15398 0267 A3       		.byte	0xa3
 15399 0268 01       		.uleb128 0x1
 15400 0269 53       		.byte	0x53
 15401 026a 9F       		.byte	0x9f
 15402 026b 00       		.byte	0
 15403              	.LVUS172:
 15404 026c 04       		.uleb128 .LVU1662
 15405 026d 00       		.uleb128 .LVU1670
 15406              	.LLST172:
 15407 026e 08       		.byte	0x8
 15408 026f 30000000 		.4byte	.LVL282
 15409 0273 18       		.uleb128 .LVL284-.LVL282
ARM GAS  C:\Users\DEVELO~1\AppData\Local\Temp\ccJK6Gr9.s 			page 272


 15410 0274 01       		.uleb128 0x1
 15411 0275 50       		.byte	0x50
 15412 0276 00       		.byte	0
 15413              	.LVUS164:
 15414 0277 00       		.uleb128 0
 15415 0278 00       		.uleb128 .LVU1627
 15416 0279 00       		.uleb128 .LVU1627
 15417 027a 00       		.uleb128 .LVU1628
 15418 027b 00       		.uleb128 .LVU1628
 15419 027c 00       		.uleb128 .LVU1629
 15420 027d 00       		.uleb128 .LVU1629
 15421 027e 00       		.uleb128 0
 15422              	.LLST164:
 15423 027f 06       		.byte	0x6
 15424 0280 00000000 		.4byte	.LVL269
 15425 0284 04       		.byte	0x4
 15426 0285 00       		.uleb128 .LVL269-.LVL269
 15427 0286 4A       		.uleb128 .LVL274-.LVL269
 15428 0287 01       		.uleb128 0x1
 15429 0288 50       		.byte	0x50
 15430 0289 04       		.byte	0x4
 15431 028a 4A       		.uleb128 .LVL274-.LVL269
 15432 028b 4C       		.uleb128 .LVL275-.LVL269
 15433 028c 03       		.uleb128 0x3
 15434 028d 75       		.byte	0x75
 15435 028e 48       		.sleb128 -56
 15436 028f 9F       		.byte	0x9f
 15437 0290 04       		.byte	0x4
 15438 0291 4C       		.uleb128 .LVL275-.LVL269
 15439 0292 4E       		.uleb128 .LVL276-.LVL269
 15440 0293 04       		.uleb128 0x4
 15441 0294 A3       		.byte	0xa3
 15442 0295 01       		.uleb128 0x1
 15443 0296 50       		.byte	0x50
 15444 0297 9F       		.byte	0x9f
 15445 0298 04       		.byte	0x4
 15446 0299 4E       		.uleb128 .LVL276-.LVL269
 15447 029a 5A       		.uleb128 .LFE469-.LVL269
 15448 029b 01       		.uleb128 0x1
 15449 029c 50       		.byte	0x50
 15450 029d 00       		.byte	0
 15451              	.LVUS165:
 15452 029e 00       		.uleb128 0
 15453 029f 00       		.uleb128 .LVU1611
 15454 02a0 00       		.uleb128 .LVU1611
 15455 02a1 00       		.uleb128 .LVU1629
 15456 02a2 00       		.uleb128 .LVU1629
 15457 02a3 00       		.uleb128 0
 15458              	.LLST165:
 15459 02a4 06       		.byte	0x6
 15460 02a5 00000000 		.4byte	.LVL269
 15461 02a9 04       		.byte	0x4
 15462 02aa 00       		.uleb128 .LVL269-.LVL269
 15463 02ab 2A       		.uleb128 .LVL270-.LVL269
 15464 02ac 01       		.uleb128 0x1
 15465 02ad 51       		.byte	0x51
 15466 02ae 04       		.byte	0x4
ARM GAS  C:\Users\DEVELO~1\AppData\Local\Temp\ccJK6Gr9.s 			page 273


 15467 02af 2A       		.uleb128 .LVL270-.LVL269
 15468 02b0 4E       		.uleb128 .LVL276-.LVL269
 15469 02b1 04       		.uleb128 0x4
 15470 02b2 A3       		.byte	0xa3
 15471 02b3 01       		.uleb128 0x1
 15472 02b4 51       		.byte	0x51
 15473 02b5 9F       		.byte	0x9f
 15474 02b6 04       		.byte	0x4
 15475 02b7 4E       		.uleb128 .LVL276-.LVL269
 15476 02b8 5A       		.uleb128 .LFE469-.LVL269
 15477 02b9 01       		.uleb128 0x1
 15478 02ba 51       		.byte	0x51
 15479 02bb 00       		.byte	0
 15480              	.LVUS167:
 15481 02bc 04       		.uleb128 .LVU1616
 15482 02bd 00       		.uleb128 .LVU1624
 15483              	.LLST167:
 15484 02be 08       		.byte	0x8
 15485 02bf 30000000 		.4byte	.LVL271
 15486 02c3 18       		.uleb128 .LVL273-.LVL271
 15487 02c4 01       		.uleb128 0x1
 15488 02c5 50       		.byte	0x50
 15489 02c6 00       		.byte	0
 15490              	.LVUS158:
 15491 02c7 00       		.uleb128 0
 15492 02c8 00       		.uleb128 .LVU1510
 15493 02c9 00       		.uleb128 .LVU1510
 15494 02ca 00       		.uleb128 .LVU1581
 15495 02cb 00       		.uleb128 .LVU1581
 15496 02cc 00       		.uleb128 0
 15497              	.LLST158:
 15498 02cd 06       		.byte	0x6
 15499 02ce 00000000 		.4byte	.LVL254
 15500 02d2 04       		.byte	0x4
 15501 02d3 00       		.uleb128 .LVL254-.LVL254
 15502 02d4 0F       		.uleb128 .LVL255-1-.LVL254
 15503 02d5 01       		.uleb128 0x1
 15504 02d6 50       		.byte	0x50
 15505 02d7 04       		.byte	0x4
 15506 02d8 0F       		.uleb128 .LVL255-1-.LVL254
 15507 02d9 9202     		.uleb128 .LVL268-.LVL254
 15508 02db 01       		.uleb128 0x1
 15509 02dc 54       		.byte	0x54
 15510 02dd 04       		.byte	0x4
 15511 02de 9202     		.uleb128 .LVL268-.LVL254
 15512 02e0 B002     		.uleb128 .LFE468-.LVL254
 15513 02e2 04       		.uleb128 0x4
 15514 02e3 A3       		.byte	0xa3
 15515 02e4 01       		.uleb128 0x1
 15516 02e5 50       		.byte	0x50
 15517 02e6 9F       		.byte	0x9f
 15518 02e7 00       		.byte	0
 15519              	.LVUS159:
 15520 02e8 01       		.uleb128 .LVU1530
 15521 02e9 00       		.uleb128 .LVU1536
 15522              	.LLST159:
 15523 02ea 08       		.byte	0x8
ARM GAS  C:\Users\DEVELO~1\AppData\Local\Temp\ccJK6Gr9.s 			page 274


 15524 02eb 46000000 		.4byte	.LVL258
 15525 02ef 1E       		.uleb128 .LVL259-.LVL258
 15526 02f0 03       		.uleb128 0x3
 15527 02f1 08       		.byte	0x8
 15528 02f2 20       		.byte	0x20
 15529 02f3 9F       		.byte	0x9f
 15530 02f4 00       		.byte	0
 15531              	.LVUS160:
 15532 02f5 01       		.uleb128 .LVU1542
 15533 02f6 00       		.uleb128 .LVU1549
 15534              	.LLST160:
 15535 02f7 08       		.byte	0x8
 15536 02f8 72000000 		.4byte	.LVL263
 15537 02fc 20       		.uleb128 .LVL264-.LVL263
 15538 02fd 04       		.uleb128 0x4
 15539 02fe 0A       		.byte	0xa
 15540 02ff 0010     		.2byte	0x1000
 15541 0301 9F       		.byte	0x9f
 15542 0302 00       		.byte	0
 15543              	.LVUS161:
 15544 0303 01       		.uleb128 .LVU1550
 15545 0304 00       		.uleb128 .LVU1557
 15546              	.LLST161:
 15547 0305 08       		.byte	0x8
 15548 0306 92000000 		.4byte	.LVL264
 15549 030a 20       		.uleb128 .LVL265-.LVL264
 15550 030b 04       		.uleb128 0x4
 15551 030c 0A       		.byte	0xa
 15552 030d 0020     		.2byte	0x2000
 15553 030f 9F       		.byte	0x9f
 15554 0310 00       		.byte	0
 15555              	.LVUS162:
 15556 0311 01       		.uleb128 .LVU1558
 15557 0312 00       		.uleb128 .LVU1565
 15558              	.LLST162:
 15559 0313 08       		.byte	0x8
 15560 0314 B2000000 		.4byte	.LVL265
 15561 0318 20       		.uleb128 .LVL266-.LVL265
 15562 0319 04       		.uleb128 0x4
 15563 031a 0A       		.byte	0xa
 15564 031b 0040     		.2byte	0x4000
 15565 031d 9F       		.byte	0x9f
 15566 031e 00       		.byte	0
 15567              	.LVUS163:
 15568 031f 01       		.uleb128 .LVU1566
 15569 0320 00       		.uleb128 .LVU1573
 15570              	.LLST163:
 15571 0321 08       		.byte	0x8
 15572 0322 D2000000 		.4byte	.LVL266
 15573 0326 20       		.uleb128 .LVL267-.LVL266
 15574 0327 04       		.uleb128 0x4
 15575 0328 0A       		.byte	0xa
 15576 0329 0080     		.2byte	0x8000
 15577 032b 9F       		.byte	0x9f
 15578 032c 00       		.byte	0
 15579              	.LVUS105:
 15580 032d 00       		.uleb128 0
ARM GAS  C:\Users\DEVELO~1\AppData\Local\Temp\ccJK6Gr9.s 			page 275


 15581 032e 00       		.uleb128 .LVU1142
 15582 032f 00       		.uleb128 .LVU1142
 15583 0330 00       		.uleb128 .LVU1168
 15584 0331 00       		.uleb128 .LVU1168
 15585 0332 00       		.uleb128 .LVU1185
 15586 0333 00       		.uleb128 .LVU1185
 15587 0334 00       		.uleb128 .LVU1299
 15588 0335 00       		.uleb128 .LVU1299
 15589 0336 00       		.uleb128 .LVU1303
 15590 0337 00       		.uleb128 .LVU1303
 15591 0338 00       		.uleb128 .LVU1336
 15592 0339 00       		.uleb128 .LVU1336
 15593 033a 00       		.uleb128 .LVU1341
 15594 033b 00       		.uleb128 .LVU1341
 15595 033c 00       		.uleb128 .LVU1374
 15596 033d 00       		.uleb128 .LVU1374
 15597 033e 00       		.uleb128 .LVU1379
 15598 033f 00       		.uleb128 .LVU1379
 15599 0340 00       		.uleb128 .LVU1412
 15600 0341 00       		.uleb128 .LVU1412
 15601 0342 00       		.uleb128 .LVU1417
 15602 0343 00       		.uleb128 .LVU1417
 15603 0344 00       		.uleb128 .LVU1450
 15604 0345 00       		.uleb128 .LVU1450
 15605 0346 00       		.uleb128 .LVU1455
 15606 0347 00       		.uleb128 .LVU1455
 15607 0348 00       		.uleb128 .LVU1488
 15608 0349 00       		.uleb128 .LVU1488
 15609 034a 00       		.uleb128 .LVU1490
 15610 034b 00       		.uleb128 .LVU1490
 15611 034c 00       		.uleb128 .LVU1503
 15612 034d 00       		.uleb128 .LVU1503
 15613 034e 00       		.uleb128 0
 15614              	.LLST105:
 15615 034f 06       		.byte	0x6
 15616 0350 00000000 		.4byte	.LVL179
 15617 0354 04       		.byte	0x4
 15618 0355 00       		.uleb128 .LVL179-.LVL179
 15619 0356 12       		.uleb128 .LVL180-.LVL179
 15620 0357 01       		.uleb128 0x1
 15621 0358 50       		.byte	0x50
 15622 0359 04       		.byte	0x4
 15623 035a 12       		.uleb128 .LVL180-.LVL179
 15624 035b 52       		.uleb128 .LVL184-.LVL179
 15625 035c 01       		.uleb128 0x1
 15626 035d 54       		.byte	0x54
 15627 035e 04       		.byte	0x4
 15628 035f 52       		.uleb128 .LVL184-.LVL179
 15629 0360 8A01     		.uleb128 .LVL186-.LVL179
 15630 0362 01       		.uleb128 0x1
 15631 0363 50       		.byte	0x50
 15632 0364 04       		.byte	0x4
 15633 0365 8A01     		.uleb128 .LVL186-.LVL179
 15634 0367 A603     		.uleb128 .LVL202-.LVL179
 15635 0369 01       		.uleb128 0x1
 15636 036a 54       		.byte	0x54
 15637 036b 04       		.byte	0x4
ARM GAS  C:\Users\DEVELO~1\AppData\Local\Temp\ccJK6Gr9.s 			page 276


 15638 036c A603     		.uleb128 .LVL202-.LVL179
 15639 036e AE03     		.uleb128 .LVL203-.LVL179
 15640 0370 01       		.uleb128 0x1
 15641 0371 50       		.byte	0x50
 15642 0372 04       		.byte	0x4
 15643 0373 AE03     		.uleb128 .LVL203-.LVL179
 15644 0375 9A04     		.uleb128 .LVL211-.LVL179
 15645 0377 01       		.uleb128 0x1
 15646 0378 54       		.byte	0x54
 15647 0379 04       		.byte	0x4
 15648 037a 9A04     		.uleb128 .LVL211-.LVL179
 15649 037c A204     		.uleb128 .LVL212-.LVL179
 15650 037e 01       		.uleb128 0x1
 15651 037f 50       		.byte	0x50
 15652 0380 04       		.byte	0x4
 15653 0381 A204     		.uleb128 .LVL212-.LVL179
 15654 0383 8E05     		.uleb128 .LVL220-.LVL179
 15655 0385 01       		.uleb128 0x1
 15656 0386 54       		.byte	0x54
 15657 0387 04       		.byte	0x4
 15658 0388 8E05     		.uleb128 .LVL220-.LVL179
 15659 038a 9605     		.uleb128 .LVL221-.LVL179
 15660 038c 01       		.uleb128 0x1
 15661 038d 50       		.byte	0x50
 15662 038e 04       		.byte	0x4
 15663 038f 9605     		.uleb128 .LVL221-.LVL179
 15664 0391 8206     		.uleb128 .LVL229-.LVL179
 15665 0393 01       		.uleb128 0x1
 15666 0394 54       		.byte	0x54
 15667 0395 04       		.byte	0x4
 15668 0396 8206     		.uleb128 .LVL229-.LVL179
 15669 0398 8A06     		.uleb128 .LVL230-.LVL179
 15670 039a 01       		.uleb128 0x1
 15671 039b 50       		.byte	0x50
 15672 039c 04       		.byte	0x4
 15673 039d 8A06     		.uleb128 .LVL230-.LVL179
 15674 039f A007     		.uleb128 .LVL238-.LVL179
 15675 03a1 01       		.uleb128 0x1
 15676 03a2 54       		.byte	0x54
 15677 03a3 04       		.byte	0x4
 15678 03a4 A007     		.uleb128 .LVL238-.LVL179
 15679 03a6 A807     		.uleb128 .LVL239-.LVL179
 15680 03a8 01       		.uleb128 0x1
 15681 03a9 50       		.byte	0x50
 15682 03aa 04       		.byte	0x4
 15683 03ab A807     		.uleb128 .LVL239-.LVL179
 15684 03ad 8C08     		.uleb128 .LVL247-.LVL179
 15685 03af 01       		.uleb128 0x1
 15686 03b0 54       		.byte	0x54
 15687 03b1 04       		.byte	0x4
 15688 03b2 8C08     		.uleb128 .LVL247-.LVL179
 15689 03b4 9008     		.uleb128 .LVL248-.LVL179
 15690 03b6 01       		.uleb128 0x1
 15691 03b7 50       		.byte	0x50
 15692 03b8 04       		.byte	0x4
 15693 03b9 9008     		.uleb128 .LVL248-.LVL179
 15694 03bb AA08     		.uleb128 .LVL253-.LVL179
ARM GAS  C:\Users\DEVELO~1\AppData\Local\Temp\ccJK6Gr9.s 			page 277


 15695 03bd 01       		.uleb128 0x1
 15696 03be 54       		.byte	0x54
 15697 03bf 04       		.byte	0x4
 15698 03c0 AA08     		.uleb128 .LVL253-.LVL179
 15699 03c2 B808     		.uleb128 .LFE467-.LVL179
 15700 03c4 04       		.uleb128 0x4
 15701 03c5 A3       		.byte	0xa3
 15702 03c6 01       		.uleb128 0x1
 15703 03c7 50       		.byte	0x50
 15704 03c8 9F       		.byte	0x9f
 15705 03c9 00       		.byte	0
 15706              	.LVUS106:
 15707 03ca 00       		.uleb128 .LVU1145
 15708 03cb 00       		.uleb128 .LVU1153
 15709 03cc 03       		.uleb128 .LVU1236
 15710 03cd 00       		.uleb128 .LVU1243
 15711 03ce 00       		.uleb128 .LVU1256
 15712 03cf 00       		.uleb128 .LVU1259
 15713 03d0 00       		.uleb128 .LVU1270
 15714 03d1 00       		.uleb128 .LVU1273
 15715 03d2 00       		.uleb128 .LVU1298
 15716 03d3 00       		.uleb128 .LVU1299
 15717              	.LLST106:
 15718 03d4 06       		.byte	0x6
 15719 03d5 1E000000 		.4byte	.LVL181
 15720 03d9 04       		.byte	0x4
 15721 03da 00       		.uleb128 .LVL181-.LVL181
 15722 03db 0E       		.uleb128 .LVL182-.LVL181
 15723 03dc 01       		.uleb128 0x1
 15724 03dd 53       		.byte	0x53
 15725 03de 04       		.byte	0x4
 15726 03df FC01     		.uleb128 .LVL194-.LVL181
 15727 03e1 8402     		.uleb128 .LVL195-.LVL181
 15728 03e3 01       		.uleb128 0x1
 15729 03e4 53       		.byte	0x53
 15730 03e5 04       		.byte	0x4
 15731 03e6 A402     		.uleb128 .LVL196-.LVL181
 15732 03e8 A802     		.uleb128 .LVL197-.LVL181
 15733 03ea 01       		.uleb128 0x1
 15734 03eb 53       		.byte	0x53
 15735 03ec 04       		.byte	0x4
 15736 03ed C602     		.uleb128 .LVL198-.LVL181
 15737 03ef CA02     		.uleb128 .LVL199-.LVL181
 15738 03f1 01       		.uleb128 0x1
 15739 03f2 53       		.byte	0x53
 15740 03f3 04       		.byte	0x4
 15741 03f4 8603     		.uleb128 .LVL201-.LVL181
 15742 03f6 8803     		.uleb128 .LVL202-.LVL181
 15743 03f8 01       		.uleb128 0x1
 15744 03f9 53       		.byte	0x53
 15745 03fa 00       		.byte	0
 15746              	.LVUS107:
 15747 03fb 00       		.uleb128 .LVU1194
 15748 03fc 04       		.uleb128 .LVU1237
 15749 03fd 00       		.uleb128 .LVU1288
 15750 03fe 00       		.uleb128 .LVU1299
 15751 03ff 00       		.uleb128 .LVU1312
ARM GAS  C:\Users\DEVELO~1\AppData\Local\Temp\ccJK6Gr9.s 			page 278


 15752 0400 00       		.uleb128 .LVU1336
 15753 0401 00       		.uleb128 .LVU1350
 15754 0402 00       		.uleb128 .LVU1374
 15755 0403 00       		.uleb128 .LVU1388
 15756 0404 00       		.uleb128 .LVU1412
 15757 0405 00       		.uleb128 .LVU1426
 15758 0406 00       		.uleb128 .LVU1450
 15759 0407 00       		.uleb128 .LVU1464
 15760 0408 00       		.uleb128 .LVU1488
 15761 0409 01       		.uleb128 .LVU1493
 15762 040a 00       		.uleb128 .LVU1497
 15763 040b 01       		.uleb128 .LVU1499
 15764 040c 00       		.uleb128 0
 15765              	.LLST107:
 15766 040d 06       		.byte	0x6
 15767 040e AA000000 		.4byte	.LVL189
 15768 0412 04       		.byte	0x4
 15769 0413 00       		.uleb128 .LVL189-.LVL189
 15770 0414 70       		.uleb128 .LVL194-.LVL189
 15771 0415 02       		.uleb128 0x2
 15772 0416 30       		.byte	0x30
 15773 0417 9F       		.byte	0x9f
 15774 0418 04       		.byte	0x4
 15775 0419 E601     		.uleb128 .LVL200-.LVL189
 15776 041b FC01     		.uleb128 .LVL202-.LVL189
 15777 041d 02       		.uleb128 0x2
 15778 041e 30       		.byte	0x30
 15779 041f 9F       		.byte	0x9f
 15780 0420 04       		.byte	0x4
 15781 0421 A402     		.uleb128 .LVL206-.LVL189
 15782 0423 F002     		.uleb128 .LVL211-.LVL189
 15783 0425 02       		.uleb128 0x2
 15784 0426 30       		.byte	0x30
 15785 0427 9F       		.byte	0x9f
 15786 0428 04       		.byte	0x4
 15787 0429 9803     		.uleb128 .LVL215-.LVL189
 15788 042b E403     		.uleb128 .LVL220-.LVL189
 15789 042d 02       		.uleb128 0x2
 15790 042e 30       		.byte	0x30
 15791 042f 9F       		.byte	0x9f
 15792 0430 04       		.byte	0x4
 15793 0431 8C04     		.uleb128 .LVL224-.LVL189
 15794 0433 D804     		.uleb128 .LVL229-.LVL189
 15795 0435 02       		.uleb128 0x2
 15796 0436 30       		.byte	0x30
 15797 0437 9F       		.byte	0x9f
 15798 0438 04       		.byte	0x4
 15799 0439 FE04     		.uleb128 .LVL233-.LVL189
 15800 043b F605     		.uleb128 .LVL238-.LVL189
 15801 043d 02       		.uleb128 0x2
 15802 043e 30       		.byte	0x30
 15803 043f 9F       		.byte	0x9f
 15804 0440 04       		.byte	0x4
 15805 0441 9606     		.uleb128 .LVL242-.LVL189
 15806 0443 E206     		.uleb128 .LVL247-.LVL189
 15807 0445 02       		.uleb128 0x2
 15808 0446 30       		.byte	0x30
ARM GAS  C:\Users\DEVELO~1\AppData\Local\Temp\ccJK6Gr9.s 			page 279


 15809 0447 9F       		.byte	0x9f
 15810 0448 04       		.byte	0x4
 15811 0449 EE06     		.uleb128 .LVL250-.LVL189
 15812 044b F406     		.uleb128 .LVL251-.LVL189
 15813 044d 03       		.uleb128 0x3
 15814 044e 09       		.byte	0x9
 15815 044f EF       		.byte	0xef
 15816 0450 9F       		.byte	0x9f
 15817 0451 04       		.byte	0x4
 15818 0452 FA06     		.uleb128 .LVL252-.LVL189
 15819 0454 8E07     		.uleb128 .LFE467-.LVL189
 15820 0456 03       		.uleb128 0x3
 15821 0457 09       		.byte	0x9
 15822 0458 EF       		.byte	0xef
 15823 0459 9F       		.byte	0x9f
 15824 045a 00       		.byte	0
 15825              	.LVUS109:
 15826 045b 02       		.uleb128 .LVU1183
 15827 045c 00       		.uleb128 .LVU1194
 15828 045d 00       		.uleb128 .LVU1491
 15829 045e 00       		.uleb128 .LVU1492
 15830              	.LLST109:
 15831 045f 06       		.byte	0x6
 15832 0460 82000000 		.4byte	.LVL185
 15833 0464 04       		.byte	0x4
 15834 0465 00       		.uleb128 .LVL185-.LVL185
 15835 0466 28       		.uleb128 .LVL189-.LVL185
 15836 0467 06       		.uleb128 0x6
 15837 0468 03       		.byte	0x3
 15838 0469 00000000 		.4byte	SPID6
 15839 046d 9F       		.byte	0x9f
 15840 046e 04       		.byte	0x4
 15841 046f 9007     		.uleb128 .LVL249-.LVL185
 15842 0471 9607     		.uleb128 .LVL250-.LVL185
 15843 0473 06       		.uleb128 0x6
 15844 0474 03       		.byte	0x3
 15845 0475 00000000 		.4byte	SPID6
 15846 0479 9F       		.byte	0x9f
 15847 047a 00       		.byte	0
 15848              	.LVUS110:
 15849 047b 02       		.uleb128 .LVU1183
 15850 047c 00       		.uleb128 .LVU1194
 15851 047d 00       		.uleb128 .LVU1491
 15852 047e 00       		.uleb128 .LVU1492
 15853              	.LLST110:
 15854 047f 06       		.byte	0x6
 15855 0480 82000000 		.4byte	.LVL185
 15856 0484 04       		.byte	0x4
 15857 0485 00       		.uleb128 .LVL185-.LVL185
 15858 0486 28       		.uleb128 .LVL189-.LVL185
 15859 0487 02       		.uleb128 0x2
 15860 0488 38       		.byte	0x38
 15861 0489 9F       		.byte	0x9f
 15862 048a 04       		.byte	0x4
 15863 048b 9007     		.uleb128 .LVL249-.LVL185
 15864 048d 9607     		.uleb128 .LVL250-.LVL185
 15865 048f 02       		.uleb128 0x2
ARM GAS  C:\Users\DEVELO~1\AppData\Local\Temp\ccJK6Gr9.s 			page 280


 15866 0490 38       		.byte	0x38
 15867 0491 9F       		.byte	0x9f
 15868 0492 00       		.byte	0
 15869              	.LVUS112:
 15870 0493 02       		.uleb128 .LVU1183
 15871 0494 00       		.uleb128 .LVU1194
 15872 0495 00       		.uleb128 .LVU1491
 15873 0496 00       		.uleb128 .LVU1492
 15874              	.LLST112:
 15875 0497 06       		.byte	0x6
 15876 0498 82000000 		.4byte	.LVL185
 15877 049c 04       		.byte	0x4
 15878 049d 00       		.uleb128 .LVL185-.LVL185
 15879 049e 28       		.uleb128 .LVL189-.LVL185
 15880 049f 02       		.uleb128 0x2
 15881 04a0 3A       		.byte	0x3a
 15882 04a1 9F       		.byte	0x9f
 15883 04a2 04       		.byte	0x4
 15884 04a3 9007     		.uleb128 .LVL249-.LVL185
 15885 04a5 9607     		.uleb128 .LVL250-.LVL185
 15886 04a7 02       		.uleb128 0x2
 15887 04a8 3A       		.byte	0x3a
 15888 04a9 9F       		.byte	0x9f
 15889 04aa 00       		.byte	0
 15890              	.LVUS113:
 15891 04ab 01       		.uleb128 .LVU1199
 15892 04ac 00       		.uleb128 .LVU1206
 15893              	.LLST113:
 15894 04ad 08       		.byte	0x8
 15895 04ae BA000000 		.4byte	.LVL191
 15896 04b2 1E       		.uleb128 .LVL192-.LVL191
 15897 04b3 02       		.uleb128 0x2
 15898 04b4 31       		.byte	0x31
 15899 04b5 9F       		.byte	0x9f
 15900 04b6 00       		.byte	0
 15901              	.LVUS114:
 15902 04b7 01       		.uleb128 .LVU1199
 15903 04b8 00       		.uleb128 .LVU1206
 15904              	.LLST114:
 15905 04b9 08       		.byte	0x8
 15906 04ba BA000000 		.4byte	.LVL191
 15907 04be 1E       		.uleb128 .LVL192-.LVL191
 15908 04bf 03       		.uleb128 0x3
 15909 04c0 08       		.byte	0x8
 15910 04c1 20       		.byte	0x20
 15911 04c2 9F       		.byte	0x9f
 15912 04c3 00       		.byte	0
 15913              	.LVUS115:
 15914 04c4 02       		.uleb128 .LVU1208
 15915 04c5 00       		.uleb128 .LVU1216
 15916              	.LLST115:
 15917 04c6 08       		.byte	0x8
 15918 04c7 D8000000 		.4byte	.LVL192
 15919 04cb 1C       		.uleb128 .LVL193-.LVL192
 15920 04cc 03       		.uleb128 0x3
 15921 04cd 08       		.byte	0x8
 15922 04ce 20       		.byte	0x20
ARM GAS  C:\Users\DEVELO~1\AppData\Local\Temp\ccJK6Gr9.s 			page 281


 15923 04cf 9F       		.byte	0x9f
 15924 04d0 00       		.byte	0
 15925              	.LVUS116:
 15926 04d1 04       		.uleb128 .LVU1210
 15927 04d2 00       		.uleb128 .LVU1216
 15928              	.LLST116:
 15929 04d3 08       		.byte	0x8
 15930 04d4 D8000000 		.4byte	.LVL192
 15931 04d8 1C       		.uleb128 .LVL193-.LVL192
 15932 04d9 03       		.uleb128 0x3
 15933 04da 08       		.byte	0x8
 15934 04db 20       		.byte	0x20
 15935 04dc 9F       		.byte	0x9f
 15936 04dd 00       		.byte	0
 15937              	.LVUS117:
 15938 04de 02       		.uleb128 .LVU1301
 15939 04df 00       		.uleb128 .LVU1312
 15940              	.LLST117:
 15941 04e0 08       		.byte	0x8
 15942 04e1 A6010000 		.4byte	.LVL202
 15943 04e5 28       		.uleb128 .LVL206-.LVL202
 15944 04e6 02       		.uleb128 0x2
 15945 04e7 40       		.byte	0x40
 15946 04e8 9F       		.byte	0x9f
 15947 04e9 00       		.byte	0
 15948              	.LVUS119:
 15949 04ea 02       		.uleb128 .LVU1301
 15950 04eb 00       		.uleb128 .LVU1312
 15951              	.LLST119:
 15952 04ec 08       		.byte	0x8
 15953 04ed A6010000 		.4byte	.LVL202
 15954 04f1 28       		.uleb128 .LVL206-.LVL202
 15955 04f2 02       		.uleb128 0x2
 15956 04f3 3A       		.byte	0x3a
 15957 04f4 9F       		.byte	0x9f
 15958 04f5 00       		.byte	0
 15959              	.LVUS120:
 15960 04f6 01       		.uleb128 .LVU1300
 15961 04f7 00       		.uleb128 .LVU1312
 15962              	.LLST120:
 15963 04f8 08       		.byte	0x8
 15964 04f9 A6010000 		.4byte	.LVL202
 15965 04fd 28       		.uleb128 .LVL206-.LVL202
 15966 04fe 06       		.uleb128 0x6
 15967 04ff 03       		.byte	0x3
 15968 0500 00000000 		.4byte	SPID1
 15969 0504 9F       		.byte	0x9f
 15970 0505 00       		.byte	0
 15971              	.LVUS121:
 15972 0506 01       		.uleb128 .LVU1317
 15973 0507 00       		.uleb128 .LVU1324
 15974              	.LLST121:
 15975 0508 08       		.byte	0x8
 15976 0509 DE010000 		.4byte	.LVL208
 15977 050d 1E       		.uleb128 .LVL209-.LVL208
 15978 050e 02       		.uleb128 0x2
 15979 050f 31       		.byte	0x31
ARM GAS  C:\Users\DEVELO~1\AppData\Local\Temp\ccJK6Gr9.s 			page 282


 15980 0510 9F       		.byte	0x9f
 15981 0511 00       		.byte	0
 15982              	.LVUS122:
 15983 0512 01       		.uleb128 .LVU1317
 15984 0513 00       		.uleb128 .LVU1324
 15985              	.LLST122:
 15986 0514 08       		.byte	0x8
 15987 0515 DE010000 		.4byte	.LVL208
 15988 0519 1E       		.uleb128 .LVL209-.LVL208
 15989 051a 04       		.uleb128 0x4
 15990 051b 0A       		.byte	0xa
 15991 051c 0010     		.2byte	0x1000
 15992 051e 9F       		.byte	0x9f
 15993 051f 00       		.byte	0
 15994              	.LVUS123:
 15995 0520 02       		.uleb128 .LVU1326
 15996 0521 00       		.uleb128 .LVU1336
 15997              	.LLST123:
 15998 0522 08       		.byte	0x8
 15999 0523 FC010000 		.4byte	.LVL209
 16000 0527 1E       		.uleb128 .LVL211-.LVL209
 16001 0528 04       		.uleb128 0x4
 16002 0529 0A       		.byte	0xa
 16003 052a 0010     		.2byte	0x1000
 16004 052c 9F       		.byte	0x9f
 16005 052d 00       		.byte	0
 16006              	.LVUS124:
 16007 052e 04       		.uleb128 .LVU1328
 16008 052f 00       		.uleb128 .LVU1334
 16009              	.LLST124:
 16010 0530 08       		.byte	0x8
 16011 0531 FC010000 		.4byte	.LVL209
 16012 0535 1C       		.uleb128 .LVL210-.LVL209
 16013 0536 04       		.uleb128 0x4
 16014 0537 0A       		.byte	0xa
 16015 0538 0010     		.2byte	0x1000
 16016 053a 9F       		.byte	0x9f
 16017 053b 00       		.byte	0
 16018              	.LVUS125:
 16019 053c 03       		.uleb128 .LVU1339
 16020 053d 00       		.uleb128 .LVU1350
 16021              	.LLST125:
 16022 053e 08       		.byte	0x8
 16023 053f 1A020000 		.4byte	.LVL211
 16024 0543 28       		.uleb128 .LVL215-.LVL211
 16025 0544 02       		.uleb128 0x2
 16026 0545 40       		.byte	0x40
 16027 0546 9F       		.byte	0x9f
 16028 0547 00       		.byte	0
 16029              	.LVUS127:
 16030 0548 03       		.uleb128 .LVU1339
 16031 0549 00       		.uleb128 .LVU1350
 16032              	.LLST127:
 16033 054a 08       		.byte	0x8
 16034 054b 1A020000 		.4byte	.LVL211
 16035 054f 28       		.uleb128 .LVL215-.LVL211
 16036 0550 02       		.uleb128 0x2
ARM GAS  C:\Users\DEVELO~1\AppData\Local\Temp\ccJK6Gr9.s 			page 283


 16037 0551 3A       		.byte	0x3a
 16038 0552 9F       		.byte	0x9f
 16039 0553 00       		.byte	0
 16040              	.LVUS128:
 16041 0554 02       		.uleb128 .LVU1338
 16042 0555 00       		.uleb128 .LVU1350
 16043              	.LLST128:
 16044 0556 08       		.byte	0x8
 16045 0557 1A020000 		.4byte	.LVL211
 16046 055b 28       		.uleb128 .LVL215-.LVL211
 16047 055c 06       		.uleb128 0x6
 16048 055d 03       		.byte	0x3
 16049 055e 00000000 		.4byte	SPID3
 16050 0562 9F       		.byte	0x9f
 16051 0563 00       		.byte	0
 16052              	.LVUS129:
 16053 0564 01       		.uleb128 .LVU1355
 16054 0565 00       		.uleb128 .LVU1362
 16055              	.LLST129:
 16056 0566 08       		.byte	0x8
 16057 0567 52020000 		.4byte	.LVL217
 16058 056b 1E       		.uleb128 .LVL218-.LVL217
 16059 056c 02       		.uleb128 0x2
 16060 056d 31       		.byte	0x31
 16061 056e 9F       		.byte	0x9f
 16062 056f 00       		.byte	0
 16063              	.LVUS130:
 16064 0570 01       		.uleb128 .LVU1355
 16065 0571 00       		.uleb128 .LVU1362
 16066              	.LLST130:
 16067 0572 08       		.byte	0x8
 16068 0573 52020000 		.4byte	.LVL217
 16069 0577 1E       		.uleb128 .LVL218-.LVL217
 16070 0578 04       		.uleb128 0x4
 16071 0579 0A       		.byte	0xa
 16072 057a 0080     		.2byte	0x8000
 16073 057c 9F       		.byte	0x9f
 16074 057d 00       		.byte	0
 16075              	.LVUS131:
 16076 057e 02       		.uleb128 .LVU1364
 16077 057f 00       		.uleb128 .LVU1374
 16078              	.LLST131:
 16079 0580 08       		.byte	0x8
 16080 0581 70020000 		.4byte	.LVL218
 16081 0585 1E       		.uleb128 .LVL220-.LVL218
 16082 0586 04       		.uleb128 0x4
 16083 0587 0A       		.byte	0xa
 16084 0588 0080     		.2byte	0x8000
 16085 058a 9F       		.byte	0x9f
 16086 058b 00       		.byte	0
 16087              	.LVUS132:
 16088 058c 04       		.uleb128 .LVU1366
 16089 058d 00       		.uleb128 .LVU1372
 16090              	.LLST132:
 16091 058e 08       		.byte	0x8
 16092 058f 70020000 		.4byte	.LVL218
 16093 0593 1C       		.uleb128 .LVL219-.LVL218
ARM GAS  C:\Users\DEVELO~1\AppData\Local\Temp\ccJK6Gr9.s 			page 284


 16094 0594 04       		.uleb128 0x4
 16095 0595 0A       		.byte	0xa
 16096 0596 0080     		.2byte	0x8000
 16097 0598 9F       		.byte	0x9f
 16098 0599 00       		.byte	0
 16099              	.LVUS133:
 16100 059a 03       		.uleb128 .LVU1377
 16101 059b 00       		.uleb128 .LVU1388
 16102              	.LLST133:
 16103 059c 08       		.byte	0x8
 16104 059d 8E020000 		.4byte	.LVL220
 16105 05a1 28       		.uleb128 .LVL224-.LVL220
 16106 05a2 02       		.uleb128 0x2
 16107 05a3 40       		.byte	0x40
 16108 05a4 9F       		.byte	0x9f
 16109 05a5 00       		.byte	0
 16110              	.LVUS135:
 16111 05a6 03       		.uleb128 .LVU1377
 16112 05a7 00       		.uleb128 .LVU1388
 16113              	.LLST135:
 16114 05a8 08       		.byte	0x8
 16115 05a9 8E020000 		.4byte	.LVL220
 16116 05ad 28       		.uleb128 .LVL224-.LVL220
 16117 05ae 02       		.uleb128 0x2
 16118 05af 3A       		.byte	0x3a
 16119 05b0 9F       		.byte	0x9f
 16120 05b1 00       		.byte	0
 16121              	.LVUS136:
 16122 05b2 02       		.uleb128 .LVU1376
 16123 05b3 00       		.uleb128 .LVU1388
 16124              	.LLST136:
 16125 05b4 08       		.byte	0x8
 16126 05b5 8E020000 		.4byte	.LVL220
 16127 05b9 28       		.uleb128 .LVL224-.LVL220
 16128 05ba 06       		.uleb128 0x6
 16129 05bb 03       		.byte	0x3
 16130 05bc 00000000 		.4byte	SPID2
 16131 05c0 9F       		.byte	0x9f
 16132 05c1 00       		.byte	0
 16133              	.LVUS137:
 16134 05c2 01       		.uleb128 .LVU1393
 16135 05c3 00       		.uleb128 .LVU1400
 16136              	.LLST137:
 16137 05c4 08       		.byte	0x8
 16138 05c5 C6020000 		.4byte	.LVL226
 16139 05c9 1E       		.uleb128 .LVL227-.LVL226
 16140 05ca 02       		.uleb128 0x2
 16141 05cb 31       		.byte	0x31
 16142 05cc 9F       		.byte	0x9f
 16143 05cd 00       		.byte	0
 16144              	.LVUS138:
 16145 05ce 01       		.uleb128 .LVU1393
 16146 05cf 00       		.uleb128 .LVU1400
 16147              	.LLST138:
 16148 05d0 08       		.byte	0x8
 16149 05d1 C6020000 		.4byte	.LVL226
 16150 05d5 1E       		.uleb128 .LVL227-.LVL226
ARM GAS  C:\Users\DEVELO~1\AppData\Local\Temp\ccJK6Gr9.s 			page 285


 16151 05d6 04       		.uleb128 0x4
 16152 05d7 0A       		.byte	0xa
 16153 05d8 0040     		.2byte	0x4000
 16154 05da 9F       		.byte	0x9f
 16155 05db 00       		.byte	0
 16156              	.LVUS139:
 16157 05dc 02       		.uleb128 .LVU1402
 16158 05dd 00       		.uleb128 .LVU1412
 16159              	.LLST139:
 16160 05de 08       		.byte	0x8
 16161 05df E4020000 		.4byte	.LVL227
 16162 05e3 1E       		.uleb128 .LVL229-.LVL227
 16163 05e4 04       		.uleb128 0x4
 16164 05e5 0A       		.byte	0xa
 16165 05e6 0040     		.2byte	0x4000
 16166 05e8 9F       		.byte	0x9f
 16167 05e9 00       		.byte	0
 16168              	.LVUS140:
 16169 05ea 04       		.uleb128 .LVU1404
 16170 05eb 00       		.uleb128 .LVU1410
 16171              	.LLST140:
 16172 05ec 08       		.byte	0x8
 16173 05ed E4020000 		.4byte	.LVL227
 16174 05f1 1C       		.uleb128 .LVL228-.LVL227
 16175 05f2 04       		.uleb128 0x4
 16176 05f3 0A       		.byte	0xa
 16177 05f4 0040     		.2byte	0x4000
 16178 05f6 9F       		.byte	0x9f
 16179 05f7 00       		.byte	0
 16180              	.LVUS141:
 16181 05f8 03       		.uleb128 .LVU1415
 16182 05f9 00       		.uleb128 .LVU1426
 16183              	.LLST141:
 16184 05fa 08       		.byte	0x8
 16185 05fb 02030000 		.4byte	.LVL229
 16186 05ff 26       		.uleb128 .LVL233-.LVL229
 16187 0600 02       		.uleb128 0x2
 16188 0601 40       		.byte	0x40
 16189 0602 9F       		.byte	0x9f
 16190 0603 00       		.byte	0
 16191              	.LVUS143:
 16192 0604 03       		.uleb128 .LVU1415
 16193 0605 00       		.uleb128 .LVU1426
 16194              	.LLST143:
 16195 0606 08       		.byte	0x8
 16196 0607 02030000 		.4byte	.LVL229
 16197 060b 26       		.uleb128 .LVL233-.LVL229
 16198 060c 02       		.uleb128 0x2
 16199 060d 3A       		.byte	0x3a
 16200 060e 9F       		.byte	0x9f
 16201 060f 00       		.byte	0
 16202              	.LVUS144:
 16203 0610 02       		.uleb128 .LVU1414
 16204 0611 00       		.uleb128 .LVU1426
 16205              	.LLST144:
 16206 0612 08       		.byte	0x8
 16207 0613 02030000 		.4byte	.LVL229
ARM GAS  C:\Users\DEVELO~1\AppData\Local\Temp\ccJK6Gr9.s 			page 286


 16208 0617 26       		.uleb128 .LVL233-.LVL229
 16209 0618 06       		.uleb128 0x6
 16210 0619 03       		.byte	0x3
 16211 061a 00000000 		.4byte	SPID4
 16212 061e 9F       		.byte	0x9f
 16213 061f 00       		.byte	0
 16214              	.LVUS145:
 16215 0620 01       		.uleb128 .LVU1431
 16216 0621 00       		.uleb128 .LVU1438
 16217              	.LLST145:
 16218 0622 08       		.byte	0x8
 16219 0623 38030000 		.4byte	.LVL235
 16220 0627 1E       		.uleb128 .LVL236-.LVL235
 16221 0628 02       		.uleb128 0x2
 16222 0629 31       		.byte	0x31
 16223 062a 9F       		.byte	0x9f
 16224 062b 00       		.byte	0
 16225              	.LVUS146:
 16226 062c 01       		.uleb128 .LVU1431
 16227 062d 00       		.uleb128 .LVU1438
 16228              	.LLST146:
 16229 062e 08       		.byte	0x8
 16230 062f 38030000 		.4byte	.LVL235
 16231 0633 1E       		.uleb128 .LVL236-.LVL235
 16232 0634 04       		.uleb128 0x4
 16233 0635 0A       		.byte	0xa
 16234 0636 0020     		.2byte	0x2000
 16235 0638 9F       		.byte	0x9f
 16236 0639 00       		.byte	0
 16237              	.LVUS147:
 16238 063a 02       		.uleb128 .LVU1440
 16239 063b 00       		.uleb128 .LVU1450
 16240              	.LLST147:
 16241 063c 08       		.byte	0x8
 16242 063d 56030000 		.4byte	.LVL236
 16243 0641 4A       		.uleb128 .LVL238-.LVL236
 16244 0642 04       		.uleb128 0x4
 16245 0643 0A       		.byte	0xa
 16246 0644 0020     		.2byte	0x2000
 16247 0646 9F       		.byte	0x9f
 16248 0647 00       		.byte	0
 16249              	.LVUS148:
 16250 0648 04       		.uleb128 .LVU1442
 16251 0649 00       		.uleb128 .LVU1448
 16252              	.LLST148:
 16253 064a 08       		.byte	0x8
 16254 064b 56030000 		.4byte	.LVL236
 16255 064f 1C       		.uleb128 .LVL237-.LVL236
 16256 0650 04       		.uleb128 0x4
 16257 0651 0A       		.byte	0xa
 16258 0652 0020     		.2byte	0x2000
 16259 0654 9F       		.byte	0x9f
 16260 0655 00       		.byte	0
 16261              	.LVUS150:
 16262 0656 03       		.uleb128 .LVU1453
 16263 0657 00       		.uleb128 .LVU1464
 16264              	.LLST150:
ARM GAS  C:\Users\DEVELO~1\AppData\Local\Temp\ccJK6Gr9.s 			page 287


 16265 0658 08       		.byte	0x8
 16266 0659 A0030000 		.4byte	.LVL238
 16267 065d 20       		.uleb128 .LVL242-.LVL238
 16268 065e 02       		.uleb128 0x2
 16269 065f 40       		.byte	0x40
 16270 0660 9F       		.byte	0x9f
 16271 0661 00       		.byte	0
 16272              	.LVUS152:
 16273 0662 03       		.uleb128 .LVU1453
 16274 0663 00       		.uleb128 .LVU1464
 16275              	.LLST152:
 16276 0664 08       		.byte	0x8
 16277 0665 A0030000 		.4byte	.LVL238
 16278 0669 20       		.uleb128 .LVL242-.LVL238
 16279 066a 02       		.uleb128 0x2
 16280 066b 3A       		.byte	0x3a
 16281 066c 9F       		.byte	0x9f
 16282 066d 00       		.byte	0
 16283              	.LVUS153:
 16284 066e 02       		.uleb128 .LVU1452
 16285 066f 00       		.uleb128 .LVU1464
 16286              	.LLST153:
 16287 0670 08       		.byte	0x8
 16288 0671 A0030000 		.4byte	.LVL238
 16289 0675 20       		.uleb128 .LVL242-.LVL238
 16290 0676 06       		.uleb128 0x6
 16291 0677 03       		.byte	0x3
 16292 0678 00000000 		.4byte	SPID5
 16293 067c 9F       		.byte	0x9f
 16294 067d 00       		.byte	0
 16295              	.LVUS154:
 16296 067e 01       		.uleb128 .LVU1469
 16297 067f 00       		.uleb128 .LVU1476
 16298              	.LLST154:
 16299 0680 08       		.byte	0x8
 16300 0681 D0030000 		.4byte	.LVL244
 16301 0685 1E       		.uleb128 .LVL245-.LVL244
 16302 0686 02       		.uleb128 0x2
 16303 0687 31       		.byte	0x31
 16304 0688 9F       		.byte	0x9f
 16305 0689 00       		.byte	0
 16306              	.LVUS155:
 16307 068a 01       		.uleb128 .LVU1469
 16308 068b 00       		.uleb128 .LVU1476
 16309              	.LLST155:
 16310 068c 08       		.byte	0x8
 16311 068d D0030000 		.4byte	.LVL244
 16312 0691 1E       		.uleb128 .LVL245-.LVL244
 16313 0692 04       		.uleb128 0x4
 16314 0693 40       		.byte	0x40
 16315 0694 40       		.byte	0x40
 16316 0695 24       		.byte	0x24
 16317 0696 9F       		.byte	0x9f
 16318 0697 00       		.byte	0
 16319              	.LVUS156:
 16320 0698 02       		.uleb128 .LVU1478
 16321 0699 00       		.uleb128 .LVU1488
ARM GAS  C:\Users\DEVELO~1\AppData\Local\Temp\ccJK6Gr9.s 			page 288


 16322              	.LLST156:
 16323 069a 08       		.byte	0x8
 16324 069b EE030000 		.4byte	.LVL245
 16325 069f 1E       		.uleb128 .LVL247-.LVL245
 16326 06a0 04       		.uleb128 0x4
 16327 06a1 40       		.byte	0x40
 16328 06a2 40       		.byte	0x40
 16329 06a3 24       		.byte	0x24
 16330 06a4 9F       		.byte	0x9f
 16331 06a5 00       		.byte	0
 16332              	.LVUS157:
 16333 06a6 04       		.uleb128 .LVU1480
 16334 06a7 00       		.uleb128 .LVU1486
 16335              	.LLST157:
 16336 06a8 08       		.byte	0x8
 16337 06a9 EE030000 		.4byte	.LVL245
 16338 06ad 1C       		.uleb128 .LVL246-.LVL245
 16339 06ae 04       		.uleb128 0x4
 16340 06af 40       		.byte	0x40
 16341 06b0 40       		.byte	0x40
 16342 06b1 24       		.byte	0x24
 16343 06b2 9F       		.byte	0x9f
 16344 06b3 00       		.byte	0
 16345              	.LVUS98:
 16346 06b4 02       		.uleb128 .LVU947
 16347 06b5 02       		.uleb128 .LVU961
 16348 06b6 00       		.uleb128 .LVU969
 16349 06b7 06       		.uleb128 .LVU1010
 16350              	.LLST98:
 16351 06b8 06       		.byte	0x6
 16352 06b9 0A000000 		.4byte	.LVL154
 16353 06bd 04       		.byte	0x4
 16354 06be 00       		.uleb128 .LVL154-.LVL154
 16355 06bf 0E       		.uleb128 .LVL157-.LVL154
 16356 06c0 06       		.uleb128 0x6
 16357 06c1 03       		.byte	0x3
 16358 06c2 00000000 		.4byte	SPID6
 16359 06c6 9F       		.byte	0x9f
 16360 06c7 04       		.byte	0x4
 16361 06c8 1C       		.uleb128 .LVL159-.LVL154
 16362 06c9 42       		.uleb128 .LVL164-.LVL154
 16363 06ca 06       		.uleb128 0x6
 16364 06cb 03       		.byte	0x3
 16365 06cc 00000000 		.4byte	SPID6
 16366 06d0 9F       		.byte	0x9f
 16367 06d1 00       		.byte	0
 16368              	.LVUS99:
 16369 06d2 00       		.uleb128 .LVU954
 16370 06d3 00       		.uleb128 .LVU958
 16371 06d4 00       		.uleb128 .LVU958
 16372 06d5 02       		.uleb128 .LVU961
 16373 06d6 00       		.uleb128 .LVU969
 16374 06d7 00       		.uleb128 .LVU971
 16375              	.LLST99:
 16376 06d8 06       		.byte	0x6
 16377 06d9 12000000 		.4byte	.LVL155
 16378 06dd 04       		.byte	0x4
ARM GAS  C:\Users\DEVELO~1\AppData\Local\Temp\ccJK6Gr9.s 			page 289


 16379 06de 00       		.uleb128 .LVL155-.LVL155
 16380 06df 04       		.uleb128 .LVL156-.LVL155
 16381 06e0 01       		.uleb128 0x1
 16382 06e1 53       		.byte	0x53
 16383 06e2 04       		.byte	0x4
 16384 06e3 04       		.uleb128 .LVL156-.LVL155
 16385 06e4 06       		.uleb128 .LVL157-.LVL155
 16386 06e5 02       		.uleb128 0x2
 16387 06e6 72       		.byte	0x72
 16388 06e7 18       		.sleb128 24
 16389 06e8 04       		.byte	0x4
 16390 06e9 14       		.uleb128 .LVL159-.LVL155
 16391 06ea 19       		.uleb128 .LVL160-1-.LVL155
 16392 06eb 02       		.uleb128 0x2
 16393 06ec 72       		.byte	0x72
 16394 06ed 18       		.sleb128 24
 16395 06ee 00       		.byte	0
 16396              	.LVUS100:
 16397 06ef 00       		.uleb128 .LVU969
 16398 06f0 03       		.uleb128 .LVU1007
 16399              	.LLST100:
 16400 06f1 08       		.byte	0x8
 16401 06f2 26000000 		.4byte	.LVL159
 16402 06f6 26       		.uleb128 .LVL164-.LVL159
 16403 06f7 06       		.uleb128 0x6
 16404 06f8 03       		.byte	0x3
 16405 06f9 00000000 		.4byte	SPID6
 16406 06fd 9F       		.byte	0x9f
 16407 06fe 00       		.byte	0
 16408              	.LVUS101:
 16409 06ff 09       		.uleb128 .LVU982
 16410 0700 00       		.uleb128 .LVU984
 16411              	.LLST101:
 16412 0701 08       		.byte	0x8
 16413 0702 36000000 		.4byte	.LVL161
 16414 0706 06       		.uleb128 .LVL162-.LVL161
 16415 0707 03       		.uleb128 0x3
 16416 0708 08       		.byte	0x8
 16417 0709 30       		.byte	0x30
 16418 070a 9F       		.byte	0x9f
 16419 070b 00       		.byte	0
 16420              	.LVUS102:
 16421 070c 04       		.uleb128 .LVU988
 16422 070d 00       		.uleb128 .LVU990
 16423              	.LLST102:
 16424 070e 08       		.byte	0x8
 16425 070f 3C000000 		.4byte	.LVL162
 16426 0713 0A       		.uleb128 .LVL163-.LVL162
 16427 0714 03       		.uleb128 0x3
 16428 0715 09       		.byte	0x9
 16429 0716 ED       		.byte	0xed
 16430 0717 9F       		.byte	0x9f
 16431 0718 00       		.byte	0
 16432              	.LVUS103:
 16433 0719 04       		.uleb128 .LVU988
 16434 071a 00       		.uleb128 .LVU990
 16435              	.LLST103:
ARM GAS  C:\Users\DEVELO~1\AppData\Local\Temp\ccJK6Gr9.s 			page 290


 16436 071b 08       		.byte	0x8
 16437 071c 3C000000 		.4byte	.LVL162
 16438 0720 0A       		.uleb128 .LVL163-.LVL162
 16439 0721 06       		.uleb128 0x6
 16440 0722 03       		.byte	0x3
 16441 0723 08000000 		.4byte	SPID6+8
 16442 0727 9F       		.byte	0x9f
 16443 0728 00       		.byte	0
 16444              	.LVUS104:
 16445 0729 0C       		.uleb128 .LVU1002
 16446 072a 00       		.uleb128 .LVU1004
 16447              	.LLST104:
 16448 072b 08       		.byte	0x8
 16449 072c 46000000 		.4byte	.LVL163
 16450 0730 06       		.uleb128 .LVL164-.LVL163
 16451 0731 02       		.uleb128 0x2
 16452 0732 30       		.byte	0x30
 16453 0733 9F       		.byte	0x9f
 16454 0734 00       		.byte	0
 16455              	.LVUS90:
 16456 0735 02       		.uleb128 .LVU865
 16457 0736 02       		.uleb128 .LVU879
 16458 0737 00       		.uleb128 .LVU887
 16459 0738 06       		.uleb128 .LVU928
 16460              	.LLST90:
 16461 0739 06       		.byte	0x6
 16462 073a 0A000000 		.4byte	.LVL141
 16463 073e 04       		.byte	0x4
 16464 073f 00       		.uleb128 .LVL141-.LVL141
 16465 0740 0E       		.uleb128 .LVL144-.LVL141
 16466 0741 06       		.uleb128 0x6
 16467 0742 03       		.byte	0x3
 16468 0743 00000000 		.4byte	SPID5
 16469 0747 9F       		.byte	0x9f
 16470 0748 04       		.byte	0x4
 16471 0749 1C       		.uleb128 .LVL146-.LVL141
 16472 074a 42       		.uleb128 .LVL151-.LVL141
 16473 074b 06       		.uleb128 0x6
 16474 074c 03       		.byte	0x3
 16475 074d 00000000 		.4byte	SPID5
 16476 0751 9F       		.byte	0x9f
 16477 0752 00       		.byte	0
 16478              	.LVUS91:
 16479 0753 00       		.uleb128 .LVU872
 16480 0754 00       		.uleb128 .LVU876
 16481 0755 00       		.uleb128 .LVU876
 16482 0756 02       		.uleb128 .LVU879
 16483 0757 00       		.uleb128 .LVU887
 16484 0758 00       		.uleb128 .LVU889
 16485              	.LLST91:
 16486 0759 06       		.byte	0x6
 16487 075a 12000000 		.4byte	.LVL142
 16488 075e 04       		.byte	0x4
 16489 075f 00       		.uleb128 .LVL142-.LVL142
 16490 0760 04       		.uleb128 .LVL143-.LVL142
 16491 0761 01       		.uleb128 0x1
 16492 0762 53       		.byte	0x53
ARM GAS  C:\Users\DEVELO~1\AppData\Local\Temp\ccJK6Gr9.s 			page 291


 16493 0763 04       		.byte	0x4
 16494 0764 04       		.uleb128 .LVL143-.LVL142
 16495 0765 06       		.uleb128 .LVL144-.LVL142
 16496 0766 02       		.uleb128 0x2
 16497 0767 72       		.byte	0x72
 16498 0768 18       		.sleb128 24
 16499 0769 04       		.byte	0x4
 16500 076a 14       		.uleb128 .LVL146-.LVL142
 16501 076b 19       		.uleb128 .LVL147-1-.LVL142
 16502 076c 02       		.uleb128 0x2
 16503 076d 72       		.byte	0x72
 16504 076e 18       		.sleb128 24
 16505 076f 00       		.byte	0
 16506              	.LVUS92:
 16507 0770 00       		.uleb128 .LVU887
 16508 0771 03       		.uleb128 .LVU925
 16509              	.LLST92:
 16510 0772 08       		.byte	0x8
 16511 0773 26000000 		.4byte	.LVL146
 16512 0777 26       		.uleb128 .LVL151-.LVL146
 16513 0778 06       		.uleb128 0x6
 16514 0779 03       		.byte	0x3
 16515 077a 00000000 		.4byte	SPID5
 16516 077e 9F       		.byte	0x9f
 16517 077f 00       		.byte	0
 16518              	.LVUS93:
 16519 0780 09       		.uleb128 .LVU900
 16520 0781 00       		.uleb128 .LVU902
 16521              	.LLST93:
 16522 0782 08       		.byte	0x8
 16523 0783 36000000 		.4byte	.LVL148
 16524 0787 06       		.uleb128 .LVL149-.LVL148
 16525 0788 03       		.uleb128 0x3
 16526 0789 08       		.byte	0x8
 16527 078a 30       		.byte	0x30
 16528 078b 9F       		.byte	0x9f
 16529 078c 00       		.byte	0
 16530              	.LVUS94:
 16531 078d 04       		.uleb128 .LVU906
 16532 078e 00       		.uleb128 .LVU908
 16533              	.LLST94:
 16534 078f 08       		.byte	0x8
 16535 0790 3C000000 		.4byte	.LVL149
 16536 0794 0A       		.uleb128 .LVL150-.LVL149
 16537 0795 03       		.uleb128 0x3
 16538 0796 09       		.byte	0x9
 16539 0797 ED       		.byte	0xed
 16540 0798 9F       		.byte	0x9f
 16541 0799 00       		.byte	0
 16542              	.LVUS95:
 16543 079a 04       		.uleb128 .LVU906
 16544 079b 00       		.uleb128 .LVU908
 16545              	.LLST95:
 16546 079c 08       		.byte	0x8
 16547 079d 3C000000 		.4byte	.LVL149
 16548 07a1 0A       		.uleb128 .LVL150-.LVL149
 16549 07a2 06       		.uleb128 0x6
ARM GAS  C:\Users\DEVELO~1\AppData\Local\Temp\ccJK6Gr9.s 			page 292


 16550 07a3 03       		.byte	0x3
 16551 07a4 08000000 		.4byte	SPID5+8
 16552 07a8 9F       		.byte	0x9f
 16553 07a9 00       		.byte	0
 16554              	.LVUS96:
 16555 07aa 0C       		.uleb128 .LVU920
 16556 07ab 00       		.uleb128 .LVU922
 16557              	.LLST96:
 16558 07ac 08       		.byte	0x8
 16559 07ad 46000000 		.4byte	.LVL150
 16560 07b1 06       		.uleb128 .LVL151-.LVL150
 16561 07b2 02       		.uleb128 0x2
 16562 07b3 30       		.byte	0x30
 16563 07b4 9F       		.byte	0x9f
 16564 07b5 00       		.byte	0
 16565              	.LVUS82:
 16566 07b6 02       		.uleb128 .LVU783
 16567 07b7 02       		.uleb128 .LVU797
 16568 07b8 00       		.uleb128 .LVU805
 16569 07b9 06       		.uleb128 .LVU846
 16570              	.LLST82:
 16571 07ba 06       		.byte	0x6
 16572 07bb 0A000000 		.4byte	.LVL128
 16573 07bf 04       		.byte	0x4
 16574 07c0 00       		.uleb128 .LVL128-.LVL128
 16575 07c1 0E       		.uleb128 .LVL131-.LVL128
 16576 07c2 06       		.uleb128 0x6
 16577 07c3 03       		.byte	0x3
 16578 07c4 00000000 		.4byte	SPID4
 16579 07c8 9F       		.byte	0x9f
 16580 07c9 04       		.byte	0x4
 16581 07ca 1C       		.uleb128 .LVL133-.LVL128
 16582 07cb 42       		.uleb128 .LVL138-.LVL128
 16583 07cc 06       		.uleb128 0x6
 16584 07cd 03       		.byte	0x3
 16585 07ce 00000000 		.4byte	SPID4
 16586 07d2 9F       		.byte	0x9f
 16587 07d3 00       		.byte	0
 16588              	.LVUS83:
 16589 07d4 00       		.uleb128 .LVU790
 16590 07d5 00       		.uleb128 .LVU794
 16591 07d6 00       		.uleb128 .LVU794
 16592 07d7 02       		.uleb128 .LVU797
 16593 07d8 00       		.uleb128 .LVU805
 16594 07d9 00       		.uleb128 .LVU807
 16595              	.LLST83:
 16596 07da 06       		.byte	0x6
 16597 07db 12000000 		.4byte	.LVL129
 16598 07df 04       		.byte	0x4
 16599 07e0 00       		.uleb128 .LVL129-.LVL129
 16600 07e1 04       		.uleb128 .LVL130-.LVL129
 16601 07e2 01       		.uleb128 0x1
 16602 07e3 53       		.byte	0x53
 16603 07e4 04       		.byte	0x4
 16604 07e5 04       		.uleb128 .LVL130-.LVL129
 16605 07e6 06       		.uleb128 .LVL131-.LVL129
 16606 07e7 02       		.uleb128 0x2
ARM GAS  C:\Users\DEVELO~1\AppData\Local\Temp\ccJK6Gr9.s 			page 293


 16607 07e8 72       		.byte	0x72
 16608 07e9 18       		.sleb128 24
 16609 07ea 04       		.byte	0x4
 16610 07eb 14       		.uleb128 .LVL133-.LVL129
 16611 07ec 19       		.uleb128 .LVL134-1-.LVL129
 16612 07ed 02       		.uleb128 0x2
 16613 07ee 72       		.byte	0x72
 16614 07ef 18       		.sleb128 24
 16615 07f0 00       		.byte	0
 16616              	.LVUS84:
 16617 07f1 00       		.uleb128 .LVU805
 16618 07f2 03       		.uleb128 .LVU843
 16619              	.LLST84:
 16620 07f3 08       		.byte	0x8
 16621 07f4 26000000 		.4byte	.LVL133
 16622 07f8 26       		.uleb128 .LVL138-.LVL133
 16623 07f9 06       		.uleb128 0x6
 16624 07fa 03       		.byte	0x3
 16625 07fb 00000000 		.4byte	SPID4
 16626 07ff 9F       		.byte	0x9f
 16627 0800 00       		.byte	0
 16628              	.LVUS85:
 16629 0801 09       		.uleb128 .LVU818
 16630 0802 00       		.uleb128 .LVU820
 16631              	.LLST85:
 16632 0803 08       		.byte	0x8
 16633 0804 36000000 		.4byte	.LVL135
 16634 0808 06       		.uleb128 .LVL136-.LVL135
 16635 0809 03       		.uleb128 0x3
 16636 080a 08       		.byte	0x8
 16637 080b 30       		.byte	0x30
 16638 080c 9F       		.byte	0x9f
 16639 080d 00       		.byte	0
 16640              	.LVUS86:
 16641 080e 04       		.uleb128 .LVU824
 16642 080f 00       		.uleb128 .LVU826
 16643              	.LLST86:
 16644 0810 08       		.byte	0x8
 16645 0811 3C000000 		.4byte	.LVL136
 16646 0815 0A       		.uleb128 .LVL137-.LVL136
 16647 0816 03       		.uleb128 0x3
 16648 0817 09       		.byte	0x9
 16649 0818 ED       		.byte	0xed
 16650 0819 9F       		.byte	0x9f
 16651 081a 00       		.byte	0
 16652              	.LVUS87:
 16653 081b 04       		.uleb128 .LVU824
 16654 081c 00       		.uleb128 .LVU826
 16655              	.LLST87:
 16656 081d 08       		.byte	0x8
 16657 081e 3C000000 		.4byte	.LVL136
 16658 0822 0A       		.uleb128 .LVL137-.LVL136
 16659 0823 06       		.uleb128 0x6
 16660 0824 03       		.byte	0x3
 16661 0825 08000000 		.4byte	SPID4+8
 16662 0829 9F       		.byte	0x9f
 16663 082a 00       		.byte	0
ARM GAS  C:\Users\DEVELO~1\AppData\Local\Temp\ccJK6Gr9.s 			page 294


 16664              	.LVUS88:
 16665 082b 0C       		.uleb128 .LVU838
 16666 082c 00       		.uleb128 .LVU840
 16667              	.LLST88:
 16668 082d 08       		.byte	0x8
 16669 082e 46000000 		.4byte	.LVL137
 16670 0832 06       		.uleb128 .LVL138-.LVL137
 16671 0833 02       		.uleb128 0x2
 16672 0834 30       		.byte	0x30
 16673 0835 9F       		.byte	0x9f
 16674 0836 00       		.byte	0
 16675              	.LVUS74:
 16676 0837 02       		.uleb128 .LVU701
 16677 0838 02       		.uleb128 .LVU715
 16678 0839 00       		.uleb128 .LVU723
 16679 083a 06       		.uleb128 .LVU764
 16680              	.LLST74:
 16681 083b 06       		.byte	0x6
 16682 083c 0A000000 		.4byte	.LVL115
 16683 0840 04       		.byte	0x4
 16684 0841 00       		.uleb128 .LVL115-.LVL115
 16685 0842 0E       		.uleb128 .LVL118-.LVL115
 16686 0843 06       		.uleb128 0x6
 16687 0844 03       		.byte	0x3
 16688 0845 00000000 		.4byte	SPID3
 16689 0849 9F       		.byte	0x9f
 16690 084a 04       		.byte	0x4
 16691 084b 1C       		.uleb128 .LVL120-.LVL115
 16692 084c 42       		.uleb128 .LVL125-.LVL115
 16693 084d 06       		.uleb128 0x6
 16694 084e 03       		.byte	0x3
 16695 084f 00000000 		.4byte	SPID3
 16696 0853 9F       		.byte	0x9f
 16697 0854 00       		.byte	0
 16698              	.LVUS75:
 16699 0855 00       		.uleb128 .LVU708
 16700 0856 00       		.uleb128 .LVU712
 16701 0857 00       		.uleb128 .LVU712
 16702 0858 02       		.uleb128 .LVU715
 16703 0859 00       		.uleb128 .LVU723
 16704 085a 00       		.uleb128 .LVU725
 16705              	.LLST75:
 16706 085b 06       		.byte	0x6
 16707 085c 12000000 		.4byte	.LVL116
 16708 0860 04       		.byte	0x4
 16709 0861 00       		.uleb128 .LVL116-.LVL116
 16710 0862 04       		.uleb128 .LVL117-.LVL116
 16711 0863 01       		.uleb128 0x1
 16712 0864 53       		.byte	0x53
 16713 0865 04       		.byte	0x4
 16714 0866 04       		.uleb128 .LVL117-.LVL116
 16715 0867 06       		.uleb128 .LVL118-.LVL116
 16716 0868 02       		.uleb128 0x2
 16717 0869 72       		.byte	0x72
 16718 086a 18       		.sleb128 24
 16719 086b 04       		.byte	0x4
 16720 086c 14       		.uleb128 .LVL120-.LVL116
ARM GAS  C:\Users\DEVELO~1\AppData\Local\Temp\ccJK6Gr9.s 			page 295


 16721 086d 19       		.uleb128 .LVL121-1-.LVL116
 16722 086e 02       		.uleb128 0x2
 16723 086f 72       		.byte	0x72
 16724 0870 18       		.sleb128 24
 16725 0871 00       		.byte	0
 16726              	.LVUS76:
 16727 0872 00       		.uleb128 .LVU723
 16728 0873 03       		.uleb128 .LVU761
 16729              	.LLST76:
 16730 0874 08       		.byte	0x8
 16731 0875 26000000 		.4byte	.LVL120
 16732 0879 26       		.uleb128 .LVL125-.LVL120
 16733 087a 06       		.uleb128 0x6
 16734 087b 03       		.byte	0x3
 16735 087c 00000000 		.4byte	SPID3
 16736 0880 9F       		.byte	0x9f
 16737 0881 00       		.byte	0
 16738              	.LVUS77:
 16739 0882 09       		.uleb128 .LVU736
 16740 0883 00       		.uleb128 .LVU738
 16741              	.LLST77:
 16742 0884 08       		.byte	0x8
 16743 0885 36000000 		.4byte	.LVL122
 16744 0889 06       		.uleb128 .LVL123-.LVL122
 16745 088a 03       		.uleb128 0x3
 16746 088b 08       		.byte	0x8
 16747 088c 30       		.byte	0x30
 16748 088d 9F       		.byte	0x9f
 16749 088e 00       		.byte	0
 16750              	.LVUS78:
 16751 088f 04       		.uleb128 .LVU742
 16752 0890 00       		.uleb128 .LVU744
 16753              	.LLST78:
 16754 0891 08       		.byte	0x8
 16755 0892 3C000000 		.4byte	.LVL123
 16756 0896 0A       		.uleb128 .LVL124-.LVL123
 16757 0897 03       		.uleb128 0x3
 16758 0898 09       		.byte	0x9
 16759 0899 ED       		.byte	0xed
 16760 089a 9F       		.byte	0x9f
 16761 089b 00       		.byte	0
 16762              	.LVUS79:
 16763 089c 04       		.uleb128 .LVU742
 16764 089d 00       		.uleb128 .LVU744
 16765              	.LLST79:
 16766 089e 08       		.byte	0x8
 16767 089f 3C000000 		.4byte	.LVL123
 16768 08a3 0A       		.uleb128 .LVL124-.LVL123
 16769 08a4 06       		.uleb128 0x6
 16770 08a5 03       		.byte	0x3
 16771 08a6 08000000 		.4byte	SPID3+8
 16772 08aa 9F       		.byte	0x9f
 16773 08ab 00       		.byte	0
 16774              	.LVUS80:
 16775 08ac 0C       		.uleb128 .LVU756
 16776 08ad 00       		.uleb128 .LVU758
 16777              	.LLST80:
ARM GAS  C:\Users\DEVELO~1\AppData\Local\Temp\ccJK6Gr9.s 			page 296


 16778 08ae 08       		.byte	0x8
 16779 08af 46000000 		.4byte	.LVL124
 16780 08b3 06       		.uleb128 .LVL125-.LVL124
 16781 08b4 02       		.uleb128 0x2
 16782 08b5 30       		.byte	0x30
 16783 08b6 9F       		.byte	0x9f
 16784 08b7 00       		.byte	0
 16785              	.LVUS66:
 16786 08b8 02       		.uleb128 .LVU619
 16787 08b9 02       		.uleb128 .LVU633
 16788 08ba 00       		.uleb128 .LVU641
 16789 08bb 06       		.uleb128 .LVU682
 16790              	.LLST66:
 16791 08bc 06       		.byte	0x6
 16792 08bd 0A000000 		.4byte	.LVL102
 16793 08c1 04       		.byte	0x4
 16794 08c2 00       		.uleb128 .LVL102-.LVL102
 16795 08c3 0E       		.uleb128 .LVL105-.LVL102
 16796 08c4 06       		.uleb128 0x6
 16797 08c5 03       		.byte	0x3
 16798 08c6 00000000 		.4byte	SPID2
 16799 08ca 9F       		.byte	0x9f
 16800 08cb 04       		.byte	0x4
 16801 08cc 1C       		.uleb128 .LVL107-.LVL102
 16802 08cd 42       		.uleb128 .LVL112-.LVL102
 16803 08ce 06       		.uleb128 0x6
 16804 08cf 03       		.byte	0x3
 16805 08d0 00000000 		.4byte	SPID2
 16806 08d4 9F       		.byte	0x9f
 16807 08d5 00       		.byte	0
 16808              	.LVUS67:
 16809 08d6 00       		.uleb128 .LVU626
 16810 08d7 00       		.uleb128 .LVU630
 16811 08d8 00       		.uleb128 .LVU630
 16812 08d9 02       		.uleb128 .LVU633
 16813 08da 00       		.uleb128 .LVU641
 16814 08db 00       		.uleb128 .LVU643
 16815              	.LLST67:
 16816 08dc 06       		.byte	0x6
 16817 08dd 12000000 		.4byte	.LVL103
 16818 08e1 04       		.byte	0x4
 16819 08e2 00       		.uleb128 .LVL103-.LVL103
 16820 08e3 04       		.uleb128 .LVL104-.LVL103
 16821 08e4 01       		.uleb128 0x1
 16822 08e5 53       		.byte	0x53
 16823 08e6 04       		.byte	0x4
 16824 08e7 04       		.uleb128 .LVL104-.LVL103
 16825 08e8 06       		.uleb128 .LVL105-.LVL103
 16826 08e9 02       		.uleb128 0x2
 16827 08ea 72       		.byte	0x72
 16828 08eb 18       		.sleb128 24
 16829 08ec 04       		.byte	0x4
 16830 08ed 14       		.uleb128 .LVL107-.LVL103
 16831 08ee 19       		.uleb128 .LVL108-1-.LVL103
 16832 08ef 02       		.uleb128 0x2
 16833 08f0 72       		.byte	0x72
 16834 08f1 18       		.sleb128 24
ARM GAS  C:\Users\DEVELO~1\AppData\Local\Temp\ccJK6Gr9.s 			page 297


 16835 08f2 00       		.byte	0
 16836              	.LVUS68:
 16837 08f3 00       		.uleb128 .LVU641
 16838 08f4 03       		.uleb128 .LVU679
 16839              	.LLST68:
 16840 08f5 08       		.byte	0x8
 16841 08f6 26000000 		.4byte	.LVL107
 16842 08fa 26       		.uleb128 .LVL112-.LVL107
 16843 08fb 06       		.uleb128 0x6
 16844 08fc 03       		.byte	0x3
 16845 08fd 00000000 		.4byte	SPID2
 16846 0901 9F       		.byte	0x9f
 16847 0902 00       		.byte	0
 16848              	.LVUS69:
 16849 0903 09       		.uleb128 .LVU654
 16850 0904 00       		.uleb128 .LVU656
 16851              	.LLST69:
 16852 0905 08       		.byte	0x8
 16853 0906 36000000 		.4byte	.LVL109
 16854 090a 06       		.uleb128 .LVL110-.LVL109
 16855 090b 03       		.uleb128 0x3
 16856 090c 08       		.byte	0x8
 16857 090d 30       		.byte	0x30
 16858 090e 9F       		.byte	0x9f
 16859 090f 00       		.byte	0
 16860              	.LVUS70:
 16861 0910 04       		.uleb128 .LVU660
 16862 0911 00       		.uleb128 .LVU662
 16863              	.LLST70:
 16864 0912 08       		.byte	0x8
 16865 0913 3C000000 		.4byte	.LVL110
 16866 0917 0A       		.uleb128 .LVL111-.LVL110
 16867 0918 03       		.uleb128 0x3
 16868 0919 09       		.byte	0x9
 16869 091a ED       		.byte	0xed
 16870 091b 9F       		.byte	0x9f
 16871 091c 00       		.byte	0
 16872              	.LVUS71:
 16873 091d 04       		.uleb128 .LVU660
 16874 091e 00       		.uleb128 .LVU662
 16875              	.LLST71:
 16876 091f 08       		.byte	0x8
 16877 0920 3C000000 		.4byte	.LVL110
 16878 0924 0A       		.uleb128 .LVL111-.LVL110
 16879 0925 06       		.uleb128 0x6
 16880 0926 03       		.byte	0x3
 16881 0927 08000000 		.4byte	SPID2+8
 16882 092b 9F       		.byte	0x9f
 16883 092c 00       		.byte	0
 16884              	.LVUS72:
 16885 092d 0C       		.uleb128 .LVU674
 16886 092e 00       		.uleb128 .LVU676
 16887              	.LLST72:
 16888 092f 08       		.byte	0x8
 16889 0930 46000000 		.4byte	.LVL111
 16890 0934 06       		.uleb128 .LVL112-.LVL111
 16891 0935 02       		.uleb128 0x2
ARM GAS  C:\Users\DEVELO~1\AppData\Local\Temp\ccJK6Gr9.s 			page 298


 16892 0936 30       		.byte	0x30
 16893 0937 9F       		.byte	0x9f
 16894 0938 00       		.byte	0
 16895              	.LVUS58:
 16896 0939 02       		.uleb128 .LVU537
 16897 093a 02       		.uleb128 .LVU551
 16898 093b 00       		.uleb128 .LVU559
 16899 093c 06       		.uleb128 .LVU600
 16900              	.LLST58:
 16901 093d 06       		.byte	0x6
 16902 093e 0A000000 		.4byte	.LVL89
 16903 0942 04       		.byte	0x4
 16904 0943 00       		.uleb128 .LVL89-.LVL89
 16905 0944 0E       		.uleb128 .LVL92-.LVL89
 16906 0945 06       		.uleb128 0x6
 16907 0946 03       		.byte	0x3
 16908 0947 00000000 		.4byte	SPID1
 16909 094b 9F       		.byte	0x9f
 16910 094c 04       		.byte	0x4
 16911 094d 1C       		.uleb128 .LVL94-.LVL89
 16912 094e 42       		.uleb128 .LVL99-.LVL89
 16913 094f 06       		.uleb128 0x6
 16914 0950 03       		.byte	0x3
 16915 0951 00000000 		.4byte	SPID1
 16916 0955 9F       		.byte	0x9f
 16917 0956 00       		.byte	0
 16918              	.LVUS59:
 16919 0957 00       		.uleb128 .LVU544
 16920 0958 00       		.uleb128 .LVU548
 16921 0959 00       		.uleb128 .LVU548
 16922 095a 02       		.uleb128 .LVU551
 16923 095b 00       		.uleb128 .LVU559
 16924 095c 00       		.uleb128 .LVU561
 16925              	.LLST59:
 16926 095d 06       		.byte	0x6
 16927 095e 12000000 		.4byte	.LVL90
 16928 0962 04       		.byte	0x4
 16929 0963 00       		.uleb128 .LVL90-.LVL90
 16930 0964 04       		.uleb128 .LVL91-.LVL90
 16931 0965 01       		.uleb128 0x1
 16932 0966 53       		.byte	0x53
 16933 0967 04       		.byte	0x4
 16934 0968 04       		.uleb128 .LVL91-.LVL90
 16935 0969 06       		.uleb128 .LVL92-.LVL90
 16936 096a 02       		.uleb128 0x2
 16937 096b 72       		.byte	0x72
 16938 096c 18       		.sleb128 24
 16939 096d 04       		.byte	0x4
 16940 096e 14       		.uleb128 .LVL94-.LVL90
 16941 096f 19       		.uleb128 .LVL95-1-.LVL90
 16942 0970 02       		.uleb128 0x2
 16943 0971 72       		.byte	0x72
 16944 0972 18       		.sleb128 24
 16945 0973 00       		.byte	0
 16946              	.LVUS60:
 16947 0974 00       		.uleb128 .LVU559
 16948 0975 03       		.uleb128 .LVU597
ARM GAS  C:\Users\DEVELO~1\AppData\Local\Temp\ccJK6Gr9.s 			page 299


 16949              	.LLST60:
 16950 0976 08       		.byte	0x8
 16951 0977 26000000 		.4byte	.LVL94
 16952 097b 26       		.uleb128 .LVL99-.LVL94
 16953 097c 06       		.uleb128 0x6
 16954 097d 03       		.byte	0x3
 16955 097e 00000000 		.4byte	SPID1
 16956 0982 9F       		.byte	0x9f
 16957 0983 00       		.byte	0
 16958              	.LVUS61:
 16959 0984 09       		.uleb128 .LVU572
 16960 0985 00       		.uleb128 .LVU574
 16961              	.LLST61:
 16962 0986 08       		.byte	0x8
 16963 0987 36000000 		.4byte	.LVL96
 16964 098b 06       		.uleb128 .LVL97-.LVL96
 16965 098c 03       		.uleb128 0x3
 16966 098d 08       		.byte	0x8
 16967 098e 30       		.byte	0x30
 16968 098f 9F       		.byte	0x9f
 16969 0990 00       		.byte	0
 16970              	.LVUS62:
 16971 0991 04       		.uleb128 .LVU578
 16972 0992 00       		.uleb128 .LVU580
 16973              	.LLST62:
 16974 0993 08       		.byte	0x8
 16975 0994 3C000000 		.4byte	.LVL97
 16976 0998 0A       		.uleb128 .LVL98-.LVL97
 16977 0999 03       		.uleb128 0x3
 16978 099a 09       		.byte	0x9
 16979 099b ED       		.byte	0xed
 16980 099c 9F       		.byte	0x9f
 16981 099d 00       		.byte	0
 16982              	.LVUS63:
 16983 099e 04       		.uleb128 .LVU578
 16984 099f 00       		.uleb128 .LVU580
 16985              	.LLST63:
 16986 09a0 08       		.byte	0x8
 16987 09a1 3C000000 		.4byte	.LVL97
 16988 09a5 0A       		.uleb128 .LVL98-.LVL97
 16989 09a6 06       		.uleb128 0x6
 16990 09a7 03       		.byte	0x3
 16991 09a8 08000000 		.4byte	SPID1+8
 16992 09ac 9F       		.byte	0x9f
 16993 09ad 00       		.byte	0
 16994              	.LVUS64:
 16995 09ae 0C       		.uleb128 .LVU592
 16996 09af 00       		.uleb128 .LVU594
 16997              	.LLST64:
 16998 09b0 08       		.byte	0x8
 16999 09b1 46000000 		.4byte	.LVL98
 17000 09b5 06       		.uleb128 .LVL99-.LVL98
 17001 09b6 02       		.uleb128 0x2
 17002 09b7 30       		.byte	0x30
 17003 09b8 9F       		.byte	0x9f
 17004 09b9 00       		.byte	0
 17005              	.LVUS35:
ARM GAS  C:\Users\DEVELO~1\AppData\Local\Temp\ccJK6Gr9.s 			page 300


 17006 09ba 00       		.uleb128 0
 17007 09bb 00       		.uleb128 .LVU309
 17008 09bc 00       		.uleb128 .LVU309
 17009 09bd 00       		.uleb128 .LVU368
 17010 09be 00       		.uleb128 .LVU368
 17011 09bf 00       		.uleb128 .LVU371
 17012 09c0 00       		.uleb128 .LVU371
 17013 09c1 00       		.uleb128 0
 17014              	.LLST35:
 17015 09c2 06       		.byte	0x6
 17016 09c3 00000000 		.4byte	.LVL44
 17017 09c7 04       		.byte	0x4
 17018 09c8 00       		.uleb128 .LVL44-.LVL44
 17019 09c9 0C       		.uleb128 .LVL45-.LVL44
 17020 09ca 01       		.uleb128 0x1
 17021 09cb 50       		.byte	0x50
 17022 09cc 04       		.byte	0x4
 17023 09cd 0C       		.uleb128 .LVL45-.LVL44
 17024 09ce 68       		.uleb128 .LVL56-.LVL44
 17025 09cf 01       		.uleb128 0x1
 17026 09d0 54       		.byte	0x54
 17027 09d1 04       		.byte	0x4
 17028 09d2 68       		.uleb128 .LVL56-.LVL44
 17029 09d3 6A       		.uleb128 .LVL57-.LVL44
 17030 09d4 01       		.uleb128 0x1
 17031 09d5 50       		.byte	0x50
 17032 09d6 04       		.byte	0x4
 17033 09d7 6A       		.uleb128 .LVL57-.LVL44
 17034 09d8 A801     		.uleb128 .LFE455-.LVL44
 17035 09da 01       		.uleb128 0x1
 17036 09db 54       		.byte	0x54
 17037 09dc 00       		.byte	0
 17038              	.LVUS36:
 17039 09dd 00       		.uleb128 0
 17040 09de 00       		.uleb128 .LVU309
 17041 09df 00       		.uleb128 .LVU309
 17042 09e0 00       		.uleb128 .LVU368
 17043 09e1 00       		.uleb128 .LVU368
 17044 09e2 00       		.uleb128 .LVU372
 17045 09e3 00       		.uleb128 .LVU372
 17046 09e4 00       		.uleb128 0
 17047              	.LLST36:
 17048 09e5 06       		.byte	0x6
 17049 09e6 00000000 		.4byte	.LVL44
 17050 09ea 04       		.byte	0x4
 17051 09eb 00       		.uleb128 .LVL44-.LVL44
 17052 09ec 0C       		.uleb128 .LVL45-.LVL44
 17053 09ed 01       		.uleb128 0x1
 17054 09ee 51       		.byte	0x51
 17055 09ef 04       		.byte	0x4
 17056 09f0 0C       		.uleb128 .LVL45-.LVL44
 17057 09f1 68       		.uleb128 .LVL56-.LVL44
 17058 09f2 01       		.uleb128 0x1
 17059 09f3 55       		.byte	0x55
 17060 09f4 04       		.byte	0x4
 17061 09f5 68       		.uleb128 .LVL56-.LVL44
 17062 09f6 6D       		.uleb128 .LVL58-1-.LVL44
ARM GAS  C:\Users\DEVELO~1\AppData\Local\Temp\ccJK6Gr9.s 			page 301


 17063 09f7 01       		.uleb128 0x1
 17064 09f8 51       		.byte	0x51
 17065 09f9 04       		.byte	0x4
 17066 09fa 6D       		.uleb128 .LVL58-1-.LVL44
 17067 09fb A801     		.uleb128 .LFE455-.LVL44
 17068 09fd 01       		.uleb128 0x1
 17069 09fe 55       		.byte	0x55
 17070 09ff 00       		.byte	0
 17071              	.LVUS37:
 17072 0a00 09       		.uleb128 .LVU341
 17073 0a01 00       		.uleb128 .LVU343
 17074              	.LLST37:
 17075 0a02 08       		.byte	0x8
 17076 0a03 50000000 		.4byte	.LVL51
 17077 0a07 06       		.uleb128 .LVL52-.LVL51
 17078 0a08 03       		.uleb128 0x3
 17079 0a09 08       		.byte	0x8
 17080 0a0a 30       		.byte	0x30
 17081 0a0b 9F       		.byte	0x9f
 17082 0a0c 00       		.byte	0
 17083              	.LVUS38:
 17084 0a0d 04       		.uleb128 .LVU347
 17085 0a0e 00       		.uleb128 .LVU350
 17086              	.LLST38:
 17087 0a0f 08       		.byte	0x8
 17088 0a10 56000000 		.4byte	.LVL52
 17089 0a14 0A       		.uleb128 .LVL54-.LVL52
 17090 0a15 02       		.uleb128 0x2
 17091 0a16 30       		.byte	0x30
 17092 0a17 9F       		.byte	0x9f
 17093 0a18 00       		.byte	0
 17094              	.LVUS39:
 17095 0a19 04       		.uleb128 .LVU347
 17096 0a1a 00       		.uleb128 .LVU349
 17097 0a1b 00       		.uleb128 .LVU349
 17098 0a1c 00       		.uleb128 .LVU350
 17099 0a1d 00       		.uleb128 .LVU350
 17100 0a1e 00       		.uleb128 .LVU350
 17101              	.LLST39:
 17102 0a1f 06       		.byte	0x6
 17103 0a20 56000000 		.4byte	.LVL52
 17104 0a24 04       		.byte	0x4
 17105 0a25 00       		.uleb128 .LVL52-.LVL52
 17106 0a26 06       		.uleb128 .LVL53-.LVL52
 17107 0a27 03       		.uleb128 0x3
 17108 0a28 74       		.byte	0x74
 17109 0a29 08       		.sleb128 8
 17110 0a2a 9F       		.byte	0x9f
 17111 0a2b 04       		.byte	0x4
 17112 0a2c 06       		.uleb128 .LVL53-.LVL52
 17113 0a2d 09       		.uleb128 .LVL54-1-.LVL52
 17114 0a2e 01       		.uleb128 0x1
 17115 0a2f 50       		.byte	0x50
 17116 0a30 04       		.byte	0x4
 17117 0a31 09       		.uleb128 .LVL54-1-.LVL52
 17118 0a32 0A       		.uleb128 .LVL54-.LVL52
 17119 0a33 03       		.uleb128 0x3
ARM GAS  C:\Users\DEVELO~1\AppData\Local\Temp\ccJK6Gr9.s 			page 302


 17120 0a34 74       		.byte	0x74
 17121 0a35 08       		.sleb128 8
 17122 0a36 9F       		.byte	0x9f
 17123 0a37 00       		.byte	0
 17124              	.LVUS40:
 17125 0a38 0C       		.uleb128 .LVU362
 17126 0a39 00       		.uleb128 .LVU364
 17127              	.LLST40:
 17128 0a3a 08       		.byte	0x8
 17129 0a3b 60000000 		.4byte	.LVL54
 17130 0a3f 06       		.uleb128 .LVL55-.LVL54
 17131 0a40 02       		.uleb128 0x2
 17132 0a41 30       		.byte	0x30
 17133 0a42 9F       		.byte	0x9f
 17134 0a43 00       		.byte	0
 17135              	.LVUS41:
 17136 0a44 01       		.uleb128 .LVU369
 17137 0a45 00       		.uleb128 .LVU372
 17138              	.LLST41:
 17139 0a46 08       		.byte	0x8
 17140 0a47 68000000 		.4byte	.LVL56
 17141 0a4b 06       		.uleb128 .LVL58-.LVL56
 17142 0a4c 06       		.uleb128 0x6
 17143 0a4d 03       		.byte	0x3
 17144 0a4e 00000000 		.4byte	.LC0
 17145 0a52 9F       		.byte	0x9f
 17146 0a53 00       		.byte	0
 17147              	.LVUS42:
 17148 0a54 09       		.uleb128 .LVU385
 17149 0a55 00       		.uleb128 .LVU387
 17150              	.LLST42:
 17151 0a56 08       		.byte	0x8
 17152 0a57 7E000000 		.4byte	.LVL60
 17153 0a5b 06       		.uleb128 .LVL61-.LVL60
 17154 0a5c 03       		.uleb128 0x3
 17155 0a5d 08       		.byte	0x8
 17156 0a5e 30       		.byte	0x30
 17157 0a5f 9F       		.byte	0x9f
 17158 0a60 00       		.byte	0
 17159              	.LVUS43:
 17160 0a61 04       		.uleb128 .LVU391
 17161 0a62 00       		.uleb128 .LVU394
 17162              	.LLST43:
 17163 0a63 08       		.byte	0x8
 17164 0a64 84000000 		.4byte	.LVL61
 17165 0a68 0C       		.uleb128 .LVL63-.LVL61
 17166 0a69 03       		.uleb128 0x3
 17167 0a6a 09       		.byte	0x9
 17168 0a6b ED       		.byte	0xed
 17169 0a6c 9F       		.byte	0x9f
 17170 0a6d 00       		.byte	0
 17171              	.LVUS44:
 17172 0a6e 04       		.uleb128 .LVU391
 17173 0a6f 00       		.uleb128 .LVU393
 17174 0a70 00       		.uleb128 .LVU393
 17175 0a71 00       		.uleb128 .LVU394
 17176 0a72 00       		.uleb128 .LVU394
ARM GAS  C:\Users\DEVELO~1\AppData\Local\Temp\ccJK6Gr9.s 			page 303


 17177 0a73 00       		.uleb128 .LVU394
 17178              	.LLST44:
 17179 0a74 06       		.byte	0x6
 17180 0a75 84000000 		.4byte	.LVL61
 17181 0a79 04       		.byte	0x4
 17182 0a7a 00       		.uleb128 .LVL61-.LVL61
 17183 0a7b 08       		.uleb128 .LVL62-.LVL61
 17184 0a7c 03       		.uleb128 0x3
 17185 0a7d 74       		.byte	0x74
 17186 0a7e 08       		.sleb128 8
 17187 0a7f 9F       		.byte	0x9f
 17188 0a80 04       		.byte	0x4
 17189 0a81 08       		.uleb128 .LVL62-.LVL61
 17190 0a82 0B       		.uleb128 .LVL63-1-.LVL61
 17191 0a83 01       		.uleb128 0x1
 17192 0a84 50       		.byte	0x50
 17193 0a85 04       		.byte	0x4
 17194 0a86 0B       		.uleb128 .LVL63-1-.LVL61
 17195 0a87 0C       		.uleb128 .LVL63-.LVL61
 17196 0a88 03       		.uleb128 0x3
 17197 0a89 74       		.byte	0x74
 17198 0a8a 08       		.sleb128 8
 17199 0a8b 9F       		.byte	0x9f
 17200 0a8c 00       		.byte	0
 17201              	.LVUS45:
 17202 0a8d 0C       		.uleb128 .LVU406
 17203 0a8e 00       		.uleb128 .LVU408
 17204              	.LLST45:
 17205 0a8f 08       		.byte	0x8
 17206 0a90 90000000 		.4byte	.LVL63
 17207 0a94 06       		.uleb128 .LVL64-.LVL63
 17208 0a95 02       		.uleb128 0x2
 17209 0a96 30       		.byte	0x30
 17210 0a97 9F       		.byte	0x9f
 17211 0a98 00       		.byte	0
 17212              	.LVUS46:
 17213 0a99 00       		.uleb128 0
 17214 0a9a 00       		.uleb128 .LVU421
 17215 0a9b 00       		.uleb128 .LVU421
 17216 0a9c 00       		.uleb128 .LVU480
 17217 0a9d 00       		.uleb128 .LVU480
 17218 0a9e 00       		.uleb128 .LVU483
 17219 0a9f 00       		.uleb128 .LVU483
 17220 0aa0 00       		.uleb128 0
 17221              	.LLST46:
 17222 0aa1 06       		.byte	0x6
 17223 0aa2 00000000 		.4byte	.LVL66
 17224 0aa6 04       		.byte	0x4
 17225 0aa7 00       		.uleb128 .LVL66-.LVL66
 17226 0aa8 0A       		.uleb128 .LVL68-.LVL66
 17227 0aa9 01       		.uleb128 0x1
 17228 0aaa 50       		.byte	0x50
 17229 0aab 04       		.byte	0x4
 17230 0aac 0A       		.uleb128 .LVL68-.LVL66
 17231 0aad 66       		.uleb128 .LVL79-.LVL66
 17232 0aae 01       		.uleb128 0x1
 17233 0aaf 54       		.byte	0x54
ARM GAS  C:\Users\DEVELO~1\AppData\Local\Temp\ccJK6Gr9.s 			page 304


 17234 0ab0 04       		.byte	0x4
 17235 0ab1 66       		.uleb128 .LVL79-.LVL66
 17236 0ab2 68       		.uleb128 .LVL80-.LVL66
 17237 0ab3 01       		.uleb128 0x1
 17238 0ab4 50       		.byte	0x50
 17239 0ab5 04       		.byte	0x4
 17240 0ab6 68       		.uleb128 .LVL80-.LVL66
 17241 0ab7 A801     		.uleb128 .LFE453-.LVL66
 17242 0ab9 01       		.uleb128 0x1
 17243 0aba 54       		.byte	0x54
 17244 0abb 00       		.byte	0
 17245              	.LVUS47:
 17246 0abc 00       		.uleb128 0
 17247 0abd 00       		.uleb128 .LVU419
 17248 0abe 00       		.uleb128 .LVU419
 17249 0abf 00       		.uleb128 0
 17250              	.LLST47:
 17251 0ac0 06       		.byte	0x6
 17252 0ac1 00000000 		.4byte	.LVL66
 17253 0ac5 04       		.byte	0x4
 17254 0ac6 00       		.uleb128 .LVL66-.LVL66
 17255 0ac7 06       		.uleb128 .LVL67-.LVL66
 17256 0ac8 01       		.uleb128 0x1
 17257 0ac9 51       		.byte	0x51
 17258 0aca 04       		.byte	0x4
 17259 0acb 06       		.uleb128 .LVL67-.LVL66
 17260 0acc A801     		.uleb128 .LFE453-.LVL66
 17261 0ace 01       		.uleb128 0x1
 17262 0acf 55       		.byte	0x55
 17263 0ad0 00       		.byte	0
 17264              	.LVUS48:
 17265 0ad1 09       		.uleb128 .LVU453
 17266 0ad2 00       		.uleb128 .LVU455
 17267              	.LLST48:
 17268 0ad3 08       		.byte	0x8
 17269 0ad4 4E000000 		.4byte	.LVL74
 17270 0ad8 06       		.uleb128 .LVL75-.LVL74
 17271 0ad9 03       		.uleb128 0x3
 17272 0ada 08       		.byte	0x8
 17273 0adb 30       		.byte	0x30
 17274 0adc 9F       		.byte	0x9f
 17275 0add 00       		.byte	0
 17276              	.LVUS49:
 17277 0ade 04       		.uleb128 .LVU459
 17278 0adf 00       		.uleb128 .LVU462
 17279              	.LLST49:
 17280 0ae0 08       		.byte	0x8
 17281 0ae1 54000000 		.4byte	.LVL75
 17282 0ae5 0A       		.uleb128 .LVL77-.LVL75
 17283 0ae6 02       		.uleb128 0x2
 17284 0ae7 30       		.byte	0x30
 17285 0ae8 9F       		.byte	0x9f
 17286 0ae9 00       		.byte	0
 17287              	.LVUS50:
 17288 0aea 04       		.uleb128 .LVU459
 17289 0aeb 00       		.uleb128 .LVU461
 17290 0aec 00       		.uleb128 .LVU461
ARM GAS  C:\Users\DEVELO~1\AppData\Local\Temp\ccJK6Gr9.s 			page 305


 17291 0aed 00       		.uleb128 .LVU462
 17292 0aee 00       		.uleb128 .LVU462
 17293 0aef 00       		.uleb128 .LVU462
 17294              	.LLST50:
 17295 0af0 06       		.byte	0x6
 17296 0af1 54000000 		.4byte	.LVL75
 17297 0af5 04       		.byte	0x4
 17298 0af6 00       		.uleb128 .LVL75-.LVL75
 17299 0af7 06       		.uleb128 .LVL76-.LVL75
 17300 0af8 03       		.uleb128 0x3
 17301 0af9 74       		.byte	0x74
 17302 0afa 08       		.sleb128 8
 17303 0afb 9F       		.byte	0x9f
 17304 0afc 04       		.byte	0x4
 17305 0afd 06       		.uleb128 .LVL76-.LVL75
 17306 0afe 09       		.uleb128 .LVL77-1-.LVL75
 17307 0aff 01       		.uleb128 0x1
 17308 0b00 50       		.byte	0x50
 17309 0b01 04       		.byte	0x4
 17310 0b02 09       		.uleb128 .LVL77-1-.LVL75
 17311 0b03 0A       		.uleb128 .LVL77-.LVL75
 17312 0b04 03       		.uleb128 0x3
 17313 0b05 74       		.byte	0x74
 17314 0b06 08       		.sleb128 8
 17315 0b07 9F       		.byte	0x9f
 17316 0b08 00       		.byte	0
 17317              	.LVUS51:
 17318 0b09 0C       		.uleb128 .LVU474
 17319 0b0a 00       		.uleb128 .LVU476
 17320              	.LLST51:
 17321 0b0b 08       		.byte	0x8
 17322 0b0c 5E000000 		.4byte	.LVL77
 17323 0b10 06       		.uleb128 .LVL78-.LVL77
 17324 0b11 02       		.uleb128 0x2
 17325 0b12 30       		.byte	0x30
 17326 0b13 9F       		.byte	0x9f
 17327 0b14 00       		.byte	0
 17328              	.LVUS52:
 17329 0b15 01       		.uleb128 .LVU481
 17330 0b16 00       		.uleb128 .LVU484
 17331              	.LLST52:
 17332 0b17 08       		.byte	0x8
 17333 0b18 66000000 		.4byte	.LVL79
 17334 0b1c 06       		.uleb128 .LVL81-.LVL79
 17335 0b1d 06       		.uleb128 0x6
 17336 0b1e 03       		.byte	0x3
 17337 0b1f 00000000 		.4byte	.LC0
 17338 0b23 9F       		.byte	0x9f
 17339 0b24 00       		.byte	0
 17340              	.LVUS53:
 17341 0b25 09       		.uleb128 .LVU497
 17342 0b26 00       		.uleb128 .LVU499
 17343              	.LLST53:
 17344 0b27 08       		.byte	0x8
 17345 0b28 7C000000 		.4byte	.LVL83
 17346 0b2c 06       		.uleb128 .LVL84-.LVL83
 17347 0b2d 03       		.uleb128 0x3
ARM GAS  C:\Users\DEVELO~1\AppData\Local\Temp\ccJK6Gr9.s 			page 306


 17348 0b2e 08       		.byte	0x8
 17349 0b2f 30       		.byte	0x30
 17350 0b30 9F       		.byte	0x9f
 17351 0b31 00       		.byte	0
 17352              	.LVUS54:
 17353 0b32 04       		.uleb128 .LVU503
 17354 0b33 00       		.uleb128 .LVU506
 17355              	.LLST54:
 17356 0b34 08       		.byte	0x8
 17357 0b35 82000000 		.4byte	.LVL84
 17358 0b39 0C       		.uleb128 .LVL86-.LVL84
 17359 0b3a 03       		.uleb128 0x3
 17360 0b3b 09       		.byte	0x9
 17361 0b3c ED       		.byte	0xed
 17362 0b3d 9F       		.byte	0x9f
 17363 0b3e 00       		.byte	0
 17364              	.LVUS55:
 17365 0b3f 04       		.uleb128 .LVU503
 17366 0b40 00       		.uleb128 .LVU505
 17367 0b41 00       		.uleb128 .LVU505
 17368 0b42 00       		.uleb128 .LVU506
 17369 0b43 00       		.uleb128 .LVU506
 17370 0b44 00       		.uleb128 .LVU506
 17371              	.LLST55:
 17372 0b45 06       		.byte	0x6
 17373 0b46 82000000 		.4byte	.LVL84
 17374 0b4a 04       		.byte	0x4
 17375 0b4b 00       		.uleb128 .LVL84-.LVL84
 17376 0b4c 08       		.uleb128 .LVL85-.LVL84
 17377 0b4d 03       		.uleb128 0x3
 17378 0b4e 74       		.byte	0x74
 17379 0b4f 08       		.sleb128 8
 17380 0b50 9F       		.byte	0x9f
 17381 0b51 04       		.byte	0x4
 17382 0b52 08       		.uleb128 .LVL85-.LVL84
 17383 0b53 0B       		.uleb128 .LVL86-1-.LVL84
 17384 0b54 01       		.uleb128 0x1
 17385 0b55 50       		.byte	0x50
 17386 0b56 04       		.byte	0x4
 17387 0b57 0B       		.uleb128 .LVL86-1-.LVL84
 17388 0b58 0C       		.uleb128 .LVL86-.LVL84
 17389 0b59 03       		.uleb128 0x3
 17390 0b5a 74       		.byte	0x74
 17391 0b5b 08       		.sleb128 8
 17392 0b5c 9F       		.byte	0x9f
 17393 0b5d 00       		.byte	0
 17394              	.LVUS56:
 17395 0b5e 0C       		.uleb128 .LVU518
 17396 0b5f 00       		.uleb128 .LVU520
 17397              	.LLST56:
 17398 0b60 08       		.byte	0x8
 17399 0b61 8E000000 		.4byte	.LVL86
 17400 0b65 06       		.uleb128 .LVL87-.LVL86
 17401 0b66 02       		.uleb128 0x2
 17402 0b67 30       		.byte	0x30
 17403 0b68 9F       		.byte	0x9f
 17404 0b69 00       		.byte	0
ARM GAS  C:\Users\DEVELO~1\AppData\Local\Temp\ccJK6Gr9.s 			page 307


 17405              	.LVUS20:
 17406 0b6a 00       		.uleb128 0
 17407 0b6b 00       		.uleb128 .LVU188
 17408 0b6c 00       		.uleb128 .LVU188
 17409 0b6d 00       		.uleb128 .LVU200
 17410 0b6e 00       		.uleb128 .LVU200
 17411 0b6f 00       		.uleb128 .LVU204
 17412 0b70 00       		.uleb128 .LVU204
 17413 0b71 00       		.uleb128 .LVU205
 17414 0b72 00       		.uleb128 .LVU205
 17415 0b73 00       		.uleb128 .LVU219
 17416 0b74 00       		.uleb128 .LVU219
 17417 0b75 00       		.uleb128 .LVU241
 17418 0b76 00       		.uleb128 .LVU241
 17419 0b77 00       		.uleb128 .LVU242
 17420 0b78 00       		.uleb128 .LVU242
 17421 0b79 00       		.uleb128 0
 17422              	.LLST20:
 17423 0b7a 06       		.byte	0x6
 17424 0b7b 00000000 		.4byte	.LVL20
 17425 0b7f 04       		.byte	0x4
 17426 0b80 00       		.uleb128 .LVL20-.LVL20
 17427 0b81 18       		.uleb128 .LVL21-.LVL20
 17428 0b82 01       		.uleb128 0x1
 17429 0b83 50       		.byte	0x50
 17430 0b84 04       		.byte	0x4
 17431 0b85 18       		.uleb128 .LVL21-.LVL20
 17432 0b86 34       		.uleb128 .LVL22-.LVL20
 17433 0b87 01       		.uleb128 0x1
 17434 0b88 51       		.byte	0x51
 17435 0b89 04       		.byte	0x4
 17436 0b8a 34       		.uleb128 .LVL22-.LVL20
 17437 0b8b 4A       		.uleb128 .LVL23-.LVL20
 17438 0b8c 04       		.uleb128 0x4
 17439 0b8d A3       		.byte	0xa3
 17440 0b8e 01       		.uleb128 0x1
 17441 0b8f 50       		.byte	0x50
 17442 0b90 9F       		.byte	0x9f
 17443 0b91 04       		.byte	0x4
 17444 0b92 4A       		.uleb128 .LVL23-.LVL20
 17445 0b93 4C       		.uleb128 .LVL24-.LVL20
 17446 0b94 01       		.uleb128 0x1
 17447 0b95 50       		.byte	0x50
 17448 0b96 04       		.byte	0x4
 17449 0b97 4C       		.uleb128 .LVL24-.LVL20
 17450 0b98 78       		.uleb128 .LVL25-.LVL20
 17451 0b99 01       		.uleb128 0x1
 17452 0b9a 51       		.byte	0x51
 17453 0b9b 04       		.byte	0x4
 17454 0b9c 78       		.uleb128 .LVL25-.LVL20
 17455 0b9d AC01     		.uleb128 .LVL28-.LVL20
 17456 0b9f 04       		.uleb128 0x4
 17457 0ba0 A3       		.byte	0xa3
 17458 0ba1 01       		.uleb128 0x1
 17459 0ba2 50       		.byte	0x50
 17460 0ba3 9F       		.byte	0x9f
 17461 0ba4 04       		.byte	0x4
ARM GAS  C:\Users\DEVELO~1\AppData\Local\Temp\ccJK6Gr9.s 			page 308


 17462 0ba5 AC01     		.uleb128 .LVL28-.LVL20
 17463 0ba7 AF01     		.uleb128 .LVL29-1-.LVL20
 17464 0ba9 01       		.uleb128 0x1
 17465 0baa 50       		.byte	0x50
 17466 0bab 04       		.byte	0x4
 17467 0bac AF01     		.uleb128 .LVL29-1-.LVL20
 17468 0bae B401     		.uleb128 .LFE452-.LVL20
 17469 0bb0 04       		.uleb128 0x4
 17470 0bb1 A3       		.byte	0xa3
 17471 0bb2 01       		.uleb128 0x1
 17472 0bb3 50       		.byte	0x50
 17473 0bb4 9F       		.byte	0x9f
 17474 0bb5 00       		.byte	0
 17475              	.LVUS22:
 17476 0bb6 04       		.uleb128 .LVU227
 17477 0bb7 00       		.uleb128 .LVU239
 17478              	.LLST22:
 17479 0bb8 08       		.byte	0x8
 17480 0bb9 94000000 		.4byte	.LVL26
 17481 0bbd 16       		.uleb128 .LVL27-.LVL26
 17482 0bbe 04       		.uleb128 0x4
 17483 0bbf A3       		.byte	0xa3
 17484 0bc0 01       		.uleb128 0x1
 17485 0bc1 50       		.byte	0x50
 17486 0bc2 9F       		.byte	0x9f
 17487 0bc3 00       		.byte	0
 17488              	.LVUS1:
 17489 0bc4 00       		.uleb128 0
 17490 0bc5 00       		.uleb128 .LVU107
 17491 0bc6 00       		.uleb128 .LVU107
 17492 0bc7 00       		.uleb128 .LVU116
 17493 0bc8 00       		.uleb128 .LVU116
 17494 0bc9 00       		.uleb128 .LVU130
 17495 0bca 00       		.uleb128 .LVU130
 17496 0bcb 00       		.uleb128 .LVU131
 17497 0bcc 00       		.uleb128 .LVU131
 17498 0bcd 00       		.uleb128 .LVU152
 17499 0bce 00       		.uleb128 .LVU152
 17500 0bcf 00       		.uleb128 .LVU161
 17501 0bd0 00       		.uleb128 .LVU161
 17502 0bd1 00       		.uleb128 .LVU170
 17503 0bd2 00       		.uleb128 .LVU170
 17504 0bd3 00       		.uleb128 0
 17505              	.LLST1:
 17506 0bd4 06       		.byte	0x6
 17507 0bd5 00000000 		.4byte	.LVL1
 17508 0bd9 04       		.byte	0x4
 17509 0bda 00       		.uleb128 .LVL1-.LVL1
 17510 0bdb C401     		.uleb128 .LVL6-.LVL1
 17511 0bdd 01       		.uleb128 0x1
 17512 0bde 50       		.byte	0x50
 17513 0bdf 04       		.byte	0x4
 17514 0be0 C401     		.uleb128 .LVL6-.LVL1
 17515 0be2 E401     		.uleb128 .LVL8-.LVL1
 17516 0be4 04       		.uleb128 0x4
 17517 0be5 A3       		.byte	0xa3
 17518 0be6 01       		.uleb128 0x1
ARM GAS  C:\Users\DEVELO~1\AppData\Local\Temp\ccJK6Gr9.s 			page 309


 17519 0be7 50       		.byte	0x50
 17520 0be8 9F       		.byte	0x9f
 17521 0be9 04       		.byte	0x4
 17522 0bea E401     		.uleb128 .LVL8-.LVL1
 17523 0bec 8A02     		.uleb128 .LVL10-.LVL1
 17524 0bee 01       		.uleb128 0x1
 17525 0bef 50       		.byte	0x50
 17526 0bf0 04       		.byte	0x4
 17527 0bf1 8A02     		.uleb128 .LVL10-.LVL1
 17528 0bf3 8E02     		.uleb128 .LVL11-.LVL1
 17529 0bf5 04       		.uleb128 0x4
 17530 0bf6 A3       		.byte	0xa3
 17531 0bf7 01       		.uleb128 0x1
 17532 0bf8 50       		.byte	0x50
 17533 0bf9 9F       		.byte	0x9f
 17534 0bfa 04       		.byte	0x4
 17535 0bfb 8E02     		.uleb128 .LVL11-.LVL1
 17536 0bfd B802     		.uleb128 .LVL14-.LVL1
 17537 0bff 01       		.uleb128 0x1
 17538 0c00 50       		.byte	0x50
 17539 0c01 04       		.byte	0x4
 17540 0c02 B802     		.uleb128 .LVL14-.LVL1
 17541 0c04 D802     		.uleb128 .LVL16-.LVL1
 17542 0c06 04       		.uleb128 0x4
 17543 0c07 A3       		.byte	0xa3
 17544 0c08 01       		.uleb128 0x1
 17545 0c09 50       		.byte	0x50
 17546 0c0a 9F       		.byte	0x9f
 17547 0c0b 04       		.byte	0x4
 17548 0c0c D802     		.uleb128 .LVL16-.LVL1
 17549 0c0e E202     		.uleb128 .LVL17-.LVL1
 17550 0c10 01       		.uleb128 0x1
 17551 0c11 50       		.byte	0x50
 17552 0c12 04       		.byte	0x4
 17553 0c13 E202     		.uleb128 .LVL17-.LVL1
 17554 0c15 A003     		.uleb128 .LFE451-.LVL1
 17555 0c17 04       		.uleb128 0x4
 17556 0c18 A3       		.byte	0xa3
 17557 0c19 01       		.uleb128 0x1
 17558 0c1a 50       		.byte	0x50
 17559 0c1b 9F       		.byte	0x9f
 17560 0c1c 00       		.byte	0
 17561              	.LVUS2:
 17562 0c1d 01       		.uleb128 .LVU68
 17563 0c1e 00       		.uleb128 .LVU78
 17564              	.LLST2:
 17565 0c1f 08       		.byte	0x8
 17566 0c20 5C000000 		.4byte	.LVL2
 17567 0c24 20       		.uleb128 .LVL4-.LVL2
 17568 0c25 03       		.uleb128 0x3
 17569 0c26 08       		.byte	0x8
 17570 0c27 20       		.byte	0x20
 17571 0c28 9F       		.byte	0x9f
 17572 0c29 00       		.byte	0
 17573              	.LVUS3:
 17574 0c2a 03       		.uleb128 .LVU70
 17575 0c2b 00       		.uleb128 .LVU76
ARM GAS  C:\Users\DEVELO~1\AppData\Local\Temp\ccJK6Gr9.s 			page 310


 17576              	.LLST3:
 17577 0c2c 08       		.byte	0x8
 17578 0c2d 5C000000 		.4byte	.LVL2
 17579 0c31 1E       		.uleb128 .LVL3-.LVL2
 17580 0c32 03       		.uleb128 0x3
 17581 0c33 08       		.byte	0x8
 17582 0c34 20       		.byte	0x20
 17583 0c35 9F       		.byte	0x9f
 17584 0c36 00       		.byte	0
 17585              	.LVUS5:
 17586 0c37 01       		.uleb128 .LVU99
 17587 0c38 00       		.uleb128 .LVU113
 17588              	.LLST5:
 17589 0c39 08       		.byte	0x8
 17590 0c3a BA000000 		.4byte	.LVL5
 17591 0c3e 26       		.uleb128 .LVL7-.LVL5
 17592 0c3f 04       		.uleb128 0x4
 17593 0c40 0A       		.byte	0xa
 17594 0c41 0010     		.2byte	0x1000
 17595 0c43 9F       		.byte	0x9f
 17596 0c44 00       		.byte	0
 17597              	.LVUS7:
 17598 0c45 03       		.uleb128 .LVU101
 17599 0c46 00       		.uleb128 .LVU113
 17600              	.LLST7:
 17601 0c47 08       		.byte	0x8
 17602 0c48 BA000000 		.4byte	.LVL5
 17603 0c4c 26       		.uleb128 .LVL7-.LVL5
 17604 0c4d 04       		.uleb128 0x4
 17605 0c4e 0A       		.byte	0xa
 17606 0c4f 0010     		.2byte	0x1000
 17607 0c51 9F       		.byte	0x9f
 17608 0c52 00       		.byte	0
 17609              	.LVUS8:
 17610 0c53 01       		.uleb128 .LVU117
 17611 0c54 00       		.uleb128 .LVU125
 17612              	.LLST8:
 17613 0c55 08       		.byte	0x8
 17614 0c56 E4000000 		.4byte	.LVL8
 17615 0c5a 1E       		.uleb128 .LVL9-.LVL8
 17616 0c5b 04       		.uleb128 0x4
 17617 0c5c 0A       		.byte	0xa
 17618 0c5d 0040     		.2byte	0x4000
 17619 0c5f 9F       		.byte	0x9f
 17620 0c60 00       		.byte	0
 17621              	.LVUS9:
 17622 0c61 03       		.uleb128 .LVU119
 17623 0c62 00       		.uleb128 .LVU125
 17624              	.LLST9:
 17625 0c63 08       		.byte	0x8
 17626 0c64 E4000000 		.4byte	.LVL8
 17627 0c68 1E       		.uleb128 .LVL9-.LVL8
 17628 0c69 04       		.uleb128 0x4
 17629 0c6a 0A       		.byte	0xa
 17630 0c6b 0040     		.2byte	0x4000
 17631 0c6d 9F       		.byte	0x9f
 17632 0c6e 00       		.byte	0
ARM GAS  C:\Users\DEVELO~1\AppData\Local\Temp\ccJK6Gr9.s 			page 311


 17633              	.LVUS10:
 17634 0c6f 01       		.uleb128 .LVU132
 17635 0c70 00       		.uleb128 .LVU142
 17636              	.LLST10:
 17637 0c71 08       		.byte	0x8
 17638 0c72 0E010000 		.4byte	.LVL11
 17639 0c76 20       		.uleb128 .LVL13-.LVL11
 17640 0c77 04       		.uleb128 0x4
 17641 0c78 40       		.byte	0x40
 17642 0c79 40       		.byte	0x40
 17643 0c7a 24       		.byte	0x24
 17644 0c7b 9F       		.byte	0x9f
 17645 0c7c 00       		.byte	0
 17646              	.LVUS11:
 17647 0c7d 03       		.uleb128 .LVU134
 17648 0c7e 00       		.uleb128 .LVU140
 17649              	.LLST11:
 17650 0c7f 08       		.byte	0x8
 17651 0c80 0E010000 		.4byte	.LVL11
 17652 0c84 1E       		.uleb128 .LVL12-.LVL11
 17653 0c85 04       		.uleb128 0x4
 17654 0c86 40       		.byte	0x40
 17655 0c87 40       		.byte	0x40
 17656 0c88 24       		.byte	0x24
 17657 0c89 9F       		.byte	0x9f
 17658 0c8a 00       		.byte	0
 17659              	.LVUS13:
 17660 0c8b 02       		.uleb128 .LVU144
 17661 0c8c 00       		.uleb128 .LVU158
 17662              	.LLST13:
 17663 0c8d 08       		.byte	0x8
 17664 0c8e 2E010000 		.4byte	.LVL13
 17665 0c92 26       		.uleb128 .LVL15-.LVL13
 17666 0c93 04       		.uleb128 0x4
 17667 0c94 0A       		.byte	0xa
 17668 0c95 0080     		.2byte	0x8000
 17669 0c97 9F       		.byte	0x9f
 17670 0c98 00       		.byte	0
 17671              	.LVUS15:
 17672 0c99 04       		.uleb128 .LVU146
 17673 0c9a 00       		.uleb128 .LVU158
 17674              	.LLST15:
 17675 0c9b 08       		.byte	0x8
 17676 0c9c 2E010000 		.4byte	.LVL13
 17677 0ca0 26       		.uleb128 .LVL15-.LVL13
 17678 0ca1 04       		.uleb128 0x4
 17679 0ca2 0A       		.byte	0xa
 17680 0ca3 0080     		.2byte	0x8000
 17681 0ca5 9F       		.byte	0x9f
 17682 0ca6 00       		.byte	0
 17683              	.LVUS17:
 17684 0ca7 01       		.uleb128 .LVU162
 17685 0ca8 00       		.uleb128 .LVU176
 17686              	.LLST17:
 17687 0ca9 08       		.byte	0x8
 17688 0caa 58010000 		.4byte	.LVL16
 17689 0cae 26       		.uleb128 .LVL18-.LVL16
ARM GAS  C:\Users\DEVELO~1\AppData\Local\Temp\ccJK6Gr9.s 			page 312


 17690 0caf 04       		.uleb128 0x4
 17691 0cb0 0A       		.byte	0xa
 17692 0cb1 0020     		.2byte	0x2000
 17693 0cb3 9F       		.byte	0x9f
 17694 0cb4 00       		.byte	0
 17695              	.LVUS19:
 17696 0cb5 03       		.uleb128 .LVU164
 17697 0cb6 00       		.uleb128 .LVU176
 17698              	.LLST19:
 17699 0cb7 08       		.byte	0x8
 17700 0cb8 58010000 		.4byte	.LVL16
 17701 0cbc 26       		.uleb128 .LVL18-.LVL16
 17702 0cbd 04       		.uleb128 0x4
 17703 0cbe 0A       		.byte	0xa
 17704 0cbf 0020     		.2byte	0x2000
 17705 0cc1 9F       		.byte	0x9f
 17706 0cc2 00       		.byte	0
 17707              	.LVUS0:
 17708 0cc3 01       		.uleb128 .LVU1
 17709 0cc4 00       		.uleb128 0
 17710              	.LLST0:
 17711 0cc5 08       		.byte	0x8
 17712 0cc6 00000000 		.4byte	.LVL0
 17713 0cca 58       		.uleb128 .LFE479-.LVL0
 17714 0ccb 06       		.uleb128 0x6
 17715 0ccc FA       		.byte	0xfa
 17716 0ccd 5B3E0000 		.4byte	0x3e5b
 17717 0cd1 9F       		.byte	0x9f
 17718 0cd2 00       		.byte	0
 17719              	.LVUS23:
 17720 0cd3 00       		.uleb128 0
 17721 0cd4 00       		.uleb128 .LVU251
 17722 0cd5 00       		.uleb128 .LVU251
 17723 0cd6 00       		.uleb128 .LVU292
 17724 0cd7 00       		.uleb128 .LVU292
 17725 0cd8 00       		.uleb128 0
 17726              	.LLST23:
 17727 0cd9 06       		.byte	0x6
 17728 0cda 00000000 		.4byte	.LVL30
 17729 0cde 04       		.byte	0x4
 17730 0cdf 00       		.uleb128 .LVL30-.LVL30
 17731 0ce0 06       		.uleb128 .LVL31-.LVL30
 17732 0ce1 01       		.uleb128 0x1
 17733 0ce2 50       		.byte	0x50
 17734 0ce3 04       		.byte	0x4
 17735 0ce4 06       		.uleb128 .LVL31-.LVL30
 17736 0ce5 34       		.uleb128 .LVL39-.LVL30
 17737 0ce6 01       		.uleb128 0x1
 17738 0ce7 54       		.byte	0x54
 17739 0ce8 04       		.byte	0x4
 17740 0ce9 34       		.uleb128 .LVL39-.LVL30
 17741 0cea 38       		.uleb128 .LFE477-.LVL30
 17742 0ceb 04       		.uleb128 0x4
 17743 0cec A3       		.byte	0xa3
 17744 0ced 01       		.uleb128 0x1
 17745 0cee 50       		.byte	0x50
 17746 0cef 9F       		.byte	0x9f
ARM GAS  C:\Users\DEVELO~1\AppData\Local\Temp\ccJK6Gr9.s 			page 313


 17747 0cf0 00       		.byte	0
 17748              	.LVUS24:
 17749 0cf1 01       		.uleb128 .LVU245
 17750 0cf2 00       		.uleb128 0
 17751              	.LLST24:
 17752 0cf3 08       		.byte	0x8
 17753 0cf4 00000000 		.4byte	.LVL30
 17754 0cf8 38       		.uleb128 .LFE477-.LVL30
 17755 0cf9 06       		.uleb128 0x6
 17756 0cfa FA       		.byte	0xfa
 17757 0cfb 04340000 		.4byte	0x3404
 17758 0cff 9F       		.byte	0x9f
 17759 0d00 00       		.byte	0
 17760              	.LVUS26:
 17761 0d01 02       		.uleb128 .LVU246
 17762 0d02 00       		.uleb128 .LVU252
 17763              	.LLST26:
 17764 0d03 08       		.byte	0x8
 17765 0d04 00000000 		.4byte	.LVL30
 17766 0d08 0A       		.uleb128 .LVL32-.LVL30
 17767 0d09 06       		.uleb128 0x6
 17768 0d0a 03       		.byte	0x3
 17769 0d0b 00000000 		.4byte	.LC0
 17770 0d0f 9F       		.byte	0x9f
 17771 0d10 00       		.byte	0
 17772              	.LVUS27:
 17773 0d11 09       		.uleb128 .LVU265
 17774 0d12 00       		.uleb128 .LVU267
 17775              	.LLST27:
 17776 0d13 08       		.byte	0x8
 17777 0d14 1A000000 		.4byte	.LVL34
 17778 0d18 06       		.uleb128 .LVL35-.LVL34
 17779 0d19 03       		.uleb128 0x3
 17780 0d1a 08       		.byte	0x8
 17781 0d1b 30       		.byte	0x30
 17782 0d1c 9F       		.byte	0x9f
 17783 0d1d 00       		.byte	0
 17784              	.LVUS28:
 17785 0d1e 04       		.uleb128 .LVU271
 17786 0d1f 00       		.uleb128 .LVU274
 17787              	.LLST28:
 17788 0d20 08       		.byte	0x8
 17789 0d21 20000000 		.4byte	.LVL35
 17790 0d25 0C       		.uleb128 .LVL37-.LVL35
 17791 0d26 03       		.uleb128 0x3
 17792 0d27 09       		.byte	0x9
 17793 0d28 ED       		.byte	0xed
 17794 0d29 9F       		.byte	0x9f
 17795 0d2a 00       		.byte	0
 17796              	.LVUS29:
 17797 0d2b 04       		.uleb128 .LVU271
 17798 0d2c 00       		.uleb128 .LVU273
 17799 0d2d 00       		.uleb128 .LVU273
 17800 0d2e 00       		.uleb128 .LVU274
 17801 0d2f 00       		.uleb128 .LVU274
 17802 0d30 00       		.uleb128 .LVU274
 17803              	.LLST29:
ARM GAS  C:\Users\DEVELO~1\AppData\Local\Temp\ccJK6Gr9.s 			page 314


 17804 0d31 06       		.byte	0x6
 17805 0d32 20000000 		.4byte	.LVL35
 17806 0d36 04       		.byte	0x4
 17807 0d37 00       		.uleb128 .LVL35-.LVL35
 17808 0d38 08       		.uleb128 .LVL36-.LVL35
 17809 0d39 03       		.uleb128 0x3
 17810 0d3a 74       		.byte	0x74
 17811 0d3b 08       		.sleb128 8
 17812 0d3c 9F       		.byte	0x9f
 17813 0d3d 04       		.byte	0x4
 17814 0d3e 08       		.uleb128 .LVL36-.LVL35
 17815 0d3f 0B       		.uleb128 .LVL37-1-.LVL35
 17816 0d40 01       		.uleb128 0x1
 17817 0d41 50       		.byte	0x50
 17818 0d42 04       		.byte	0x4
 17819 0d43 0B       		.uleb128 .LVL37-1-.LVL35
 17820 0d44 0C       		.uleb128 .LVL37-.LVL35
 17821 0d45 03       		.uleb128 0x3
 17822 0d46 74       		.byte	0x74
 17823 0d47 08       		.sleb128 8
 17824 0d48 9F       		.byte	0x9f
 17825 0d49 00       		.byte	0
 17826              	.LVUS30:
 17827 0d4a 0C       		.uleb128 .LVU286
 17828 0d4b 00       		.uleb128 .LVU288
 17829              	.LLST30:
 17830 0d4c 08       		.byte	0x8
 17831 0d4d 2C000000 		.4byte	.LVL37
 17832 0d51 06       		.uleb128 .LVL38-.LVL37
 17833 0d52 02       		.uleb128 0x2
 17834 0d53 30       		.byte	0x30
 17835 0d54 9F       		.byte	0x9f
 17836 0d55 00       		.byte	0
 17837              	.LVUS31:
 17838 0d56 00       		.uleb128 0
 17839 0d57 00       		.uleb128 .LVU297
 17840 0d58 00       		.uleb128 .LVU297
 17841 0d59 00       		.uleb128 0
 17842              	.LLST31:
 17843 0d5a 06       		.byte	0x6
 17844 0d5b 00000000 		.4byte	.LVL40
 17845 0d5f 04       		.byte	0x4
 17846 0d60 00       		.uleb128 .LVL40-.LVL40
 17847 0d61 09       		.uleb128 .LVL41-1-.LVL40
 17848 0d62 01       		.uleb128 0x1
 17849 0d63 50       		.byte	0x50
 17850 0d64 04       		.byte	0x4
 17851 0d65 09       		.uleb128 .LVL41-1-.LVL40
 17852 0d66 0A       		.uleb128 .LFE454-.LVL40
 17853 0d67 04       		.uleb128 0x4
 17854 0d68 A3       		.byte	0xa3
 17855 0d69 01       		.uleb128 0x1
 17856 0d6a 50       		.byte	0x50
 17857 0d6b 9F       		.byte	0x9f
 17858 0d6c 00       		.byte	0
 17859              	.LVUS32:
 17860 0d6d 00       		.uleb128 0
ARM GAS  C:\Users\DEVELO~1\AppData\Local\Temp\ccJK6Gr9.s 			page 315


 17861 0d6e 00       		.uleb128 .LVU297
 17862 0d6f 00       		.uleb128 .LVU297
 17863 0d70 00       		.uleb128 0
 17864              	.LLST32:
 17865 0d71 06       		.byte	0x6
 17866 0d72 00000000 		.4byte	.LVL40
 17867 0d76 04       		.byte	0x4
 17868 0d77 00       		.uleb128 .LVL40-.LVL40
 17869 0d78 09       		.uleb128 .LVL41-1-.LVL40
 17870 0d79 01       		.uleb128 0x1
 17871 0d7a 51       		.byte	0x51
 17872 0d7b 04       		.byte	0x4
 17873 0d7c 09       		.uleb128 .LVL41-1-.LVL40
 17874 0d7d 0A       		.uleb128 .LFE454-.LVL40
 17875 0d7e 04       		.uleb128 0x4
 17876 0d7f A3       		.byte	0xa3
 17877 0d80 01       		.uleb128 0x1
 17878 0d81 51       		.byte	0x51
 17879 0d82 9F       		.byte	0x9f
 17880 0d83 00       		.byte	0
 17881              	.LVUS33:
 17882 0d84 00       		.uleb128 0
 17883 0d85 00       		.uleb128 .LVU302
 17884 0d86 00       		.uleb128 .LVU302
 17885 0d87 00       		.uleb128 0
 17886              	.LLST33:
 17887 0d88 06       		.byte	0x6
 17888 0d89 00000000 		.4byte	.LVL42
 17889 0d8d 04       		.byte	0x4
 17890 0d8e 00       		.uleb128 .LVL42-.LVL42
 17891 0d8f 0B       		.uleb128 .LVL43-1-.LVL42
 17892 0d90 01       		.uleb128 0x1
 17893 0d91 50       		.byte	0x50
 17894 0d92 04       		.byte	0x4
 17895 0d93 0B       		.uleb128 .LVL43-1-.LVL42
 17896 0d94 0C       		.uleb128 .LFE456-.LVL42
 17897 0d95 04       		.uleb128 0x4
 17898 0d96 A3       		.byte	0xa3
 17899 0d97 01       		.uleb128 0x1
 17900 0d98 50       		.byte	0x50
 17901 0d99 9F       		.byte	0x9f
 17902 0d9a 00       		.byte	0
 17903              	.LVUS34:
 17904 0d9b 00       		.uleb128 0
 17905 0d9c 00       		.uleb128 .LVU302
 17906 0d9d 00       		.uleb128 .LVU302
 17907 0d9e 00       		.uleb128 0
 17908              	.LLST34:
 17909 0d9f 06       		.byte	0x6
 17910 0da0 00000000 		.4byte	.LVL42
 17911 0da4 04       		.byte	0x4
 17912 0da5 00       		.uleb128 .LVL42-.LVL42
 17913 0da6 0B       		.uleb128 .LVL43-1-.LVL42
 17914 0da7 01       		.uleb128 0x1
 17915 0da8 51       		.byte	0x51
 17916 0da9 04       		.byte	0x4
 17917 0daa 0B       		.uleb128 .LVL43-1-.LVL42
ARM GAS  C:\Users\DEVELO~1\AppData\Local\Temp\ccJK6Gr9.s 			page 316


 17918 0dab 0C       		.uleb128 .LFE456-.LVL42
 17919 0dac 04       		.uleb128 0x4
 17920 0dad A3       		.byte	0xa3
 17921 0dae 01       		.uleb128 0x1
 17922 0daf 51       		.byte	0x51
 17923 0db0 9F       		.byte	0x9f
 17924 0db1 00       		.byte	0
 17925              	.Ldebug_loc3:
 17926              		.section	.debug_aranges,"",%progbits
 17927 0000 CC000000 		.4byte	0xcc
 17928 0004 0200     		.2byte	0x2
 17929 0006 00000000 		.4byte	.Ldebug_info0
 17930 000a 04       		.byte	0x4
 17931 000b 00       		.byte	0
 17932 000c 0000     		.2byte	0
 17933 000e 0000     		.2byte	0
 17934 0010 00000000 		.4byte	.LFB479
 17935 0014 58000000 		.4byte	.LFE479-.LFB479
 17936 0018 00000000 		.4byte	.LFB451
 17937 001c A0010000 		.4byte	.LFE451-.LFB451
 17938 0020 00000000 		.4byte	.LFB452
 17939 0024 B4000000 		.4byte	.LFE452-.LFB452
 17940 0028 00000000 		.4byte	.LFB477
 17941 002c 38000000 		.4byte	.LFE477-.LFB477
 17942 0030 00000000 		.4byte	.LFB454
 17943 0034 0A000000 		.4byte	.LFE454-.LFB454
 17944 0038 00000000 		.4byte	.LFB456
 17945 003c 0C000000 		.4byte	.LFE456-.LFB456
 17946 0040 00000000 		.4byte	.LFB455
 17947 0044 A8000000 		.4byte	.LFE455-.LFB455
 17948 0048 00000000 		.4byte	.LFB453
 17949 004c A8000000 		.4byte	.LFE453-.LFB453
 17950 0050 00000000 		.4byte	.LFB460
 17951 0054 68000000 		.4byte	.LFE460-.LFB460
 17952 0058 00000000 		.4byte	.LFB461
 17953 005c 68000000 		.4byte	.LFE461-.LFB461
 17954 0060 00000000 		.4byte	.LFB462
 17955 0064 68000000 		.4byte	.LFE462-.LFB462
 17956 0068 00000000 		.4byte	.LFB463
 17957 006c 68000000 		.4byte	.LFE463-.LFB463
 17958 0070 00000000 		.4byte	.LFB464
 17959 0074 68000000 		.4byte	.LFE464-.LFB464
 17960 0078 00000000 		.4byte	.LFB465
 17961 007c 68000000 		.4byte	.LFE465-.LFB465
 17962 0080 00000000 		.4byte	.LFB466
 17963 0084 14010000 		.4byte	.LFE466-.LFB466
 17964 0088 00000000 		.4byte	.LFB467
 17965 008c 38040000 		.4byte	.LFE467-.LFB467
 17966 0090 00000000 		.4byte	.LFB468
 17967 0094 30010000 		.4byte	.LFE468-.LFB468
 17968 0098 00000000 		.4byte	.LFB469
 17969 009c 5A000000 		.4byte	.LFE469-.LFB469
 17970 00a0 00000000 		.4byte	.LFB470
 17971 00a4 70000000 		.4byte	.LFE470-.LFB470
 17972 00a8 00000000 		.4byte	.LFB471
 17973 00ac 6E000000 		.4byte	.LFE471-.LFB471
 17974 00b0 00000000 		.4byte	.LFB472
ARM GAS  C:\Users\DEVELO~1\AppData\Local\Temp\ccJK6Gr9.s 			page 317


 17975 00b4 68000000 		.4byte	.LFE472-.LFB472
 17976 00b8 00000000 		.4byte	.LFB473
 17977 00bc 26000000 		.4byte	.LFE473-.LFB473
 17978 00c0 00000000 		.4byte	.LFB474
 17979 00c4 82000000 		.4byte	.LFE474-.LFB474
 17980 00c8 00000000 		.4byte	0
 17981 00cc 00000000 		.4byte	0
 17982              		.section	.debug_rnglists,"",%progbits
 17983              	.Ldebug_ranges0:
 17984 0000 0A020000 		.4byte	.Ldebug_ranges3-.Ldebug_ranges2
 17985              	.Ldebug_ranges2:
 17986 0004 0500     		.2byte	0x5
 17987 0006 04       		.byte	0x4
 17988 0007 00       		.byte	0
 17989 0008 00000000 		.4byte	0
 17990              	.LLRL4:
 17991 000c 05       		.byte	0x5
 17992 000d BA000000 		.4byte	.LBB287
 17993 0011 04       		.byte	0x4
 17994 0012 00       		.uleb128 .LBB287-.LBB287
 17995 0013 02       		.uleb128 .LBE287-.LBB287
 17996 0014 04       		.byte	0x4
 17997 0015 04       		.uleb128 .LBB300-.LBB287
 17998 0016 08       		.uleb128 .LBE300-.LBB287
 17999 0017 04       		.byte	0x4
 18000 0018 0A       		.uleb128 .LBB301-.LBB287
 18001 0019 0E       		.uleb128 .LBE301-.LBB287
 18002 001a 04       		.byte	0x4
 18003 001b 12       		.uleb128 .LBB302-.LBB287
 18004 001c 26       		.uleb128 .LBE302-.LBB287
 18005 001d 00       		.byte	0
 18006              	.LLRL6:
 18007 001e 05       		.byte	0x5
 18008 001f BA000000 		.4byte	.LBB289
 18009 0023 04       		.byte	0x4
 18010 0024 00       		.uleb128 .LBB289-.LBB289
 18011 0025 02       		.uleb128 .LBE289-.LBB289
 18012 0026 04       		.byte	0x4
 18013 0027 04       		.uleb128 .LBB294-.LBB289
 18014 0028 08       		.uleb128 .LBE294-.LBB289
 18015 0029 04       		.byte	0x4
 18016 002a 0A       		.uleb128 .LBB295-.LBB289
 18017 002b 0E       		.uleb128 .LBE295-.LBB289
 18018 002c 04       		.byte	0x4
 18019 002d 12       		.uleb128 .LBB296-.LBB289
 18020 002e 26       		.uleb128 .LBE296-.LBB289
 18021 002f 00       		.byte	0
 18022              	.LLRL12:
 18023 0030 05       		.byte	0x5
 18024 0031 2E010000 		.4byte	.LBB311
 18025 0035 04       		.byte	0x4
 18026 0036 00       		.uleb128 .LBB311-.LBB311
 18027 0037 02       		.uleb128 .LBE311-.LBB311
 18028 0038 04       		.byte	0x4
 18029 0039 04       		.uleb128 .LBB324-.LBB311
 18030 003a 08       		.uleb128 .LBE324-.LBB311
 18031 003b 04       		.byte	0x4
ARM GAS  C:\Users\DEVELO~1\AppData\Local\Temp\ccJK6Gr9.s 			page 318


 18032 003c 0A       		.uleb128 .LBB325-.LBB311
 18033 003d 0E       		.uleb128 .LBE325-.LBB311
 18034 003e 04       		.byte	0x4
 18035 003f 12       		.uleb128 .LBB326-.LBB311
 18036 0040 26       		.uleb128 .LBE326-.LBB311
 18037 0041 00       		.byte	0
 18038              	.LLRL14:
 18039 0042 05       		.byte	0x5
 18040 0043 2E010000 		.4byte	.LBB313
 18041 0047 04       		.byte	0x4
 18042 0048 00       		.uleb128 .LBB313-.LBB313
 18043 0049 02       		.uleb128 .LBE313-.LBB313
 18044 004a 04       		.byte	0x4
 18045 004b 04       		.uleb128 .LBB318-.LBB313
 18046 004c 08       		.uleb128 .LBE318-.LBB313
 18047 004d 04       		.byte	0x4
 18048 004e 0A       		.uleb128 .LBB319-.LBB313
 18049 004f 0E       		.uleb128 .LBE319-.LBB313
 18050 0050 04       		.byte	0x4
 18051 0051 12       		.uleb128 .LBB320-.LBB313
 18052 0052 26       		.uleb128 .LBE320-.LBB313
 18053 0053 00       		.byte	0
 18054              	.LLRL16:
 18055 0054 05       		.byte	0x5
 18056 0055 58010000 		.4byte	.LBB327
 18057 0059 04       		.byte	0x4
 18058 005a 00       		.uleb128 .LBB327-.LBB327
 18059 005b 02       		.uleb128 .LBE327-.LBB327
 18060 005c 04       		.byte	0x4
 18061 005d 04       		.uleb128 .LBB340-.LBB327
 18062 005e 08       		.uleb128 .LBE340-.LBB327
 18063 005f 04       		.byte	0x4
 18064 0060 0A       		.uleb128 .LBB341-.LBB327
 18065 0061 0E       		.uleb128 .LBE341-.LBB327
 18066 0062 04       		.byte	0x4
 18067 0063 12       		.uleb128 .LBB342-.LBB327
 18068 0064 26       		.uleb128 .LBE342-.LBB327
 18069 0065 00       		.byte	0
 18070              	.LLRL18:
 18071 0066 05       		.byte	0x5
 18072 0067 58010000 		.4byte	.LBB329
 18073 006b 04       		.byte	0x4
 18074 006c 00       		.uleb128 .LBB329-.LBB329
 18075 006d 02       		.uleb128 .LBE329-.LBB329
 18076 006e 04       		.byte	0x4
 18077 006f 04       		.uleb128 .LBB334-.LBB329
 18078 0070 08       		.uleb128 .LBE334-.LBB329
 18079 0071 04       		.byte	0x4
 18080 0072 0A       		.uleb128 .LBB335-.LBB329
 18081 0073 0E       		.uleb128 .LBE335-.LBB329
 18082 0074 04       		.byte	0x4
 18083 0075 12       		.uleb128 .LBB336-.LBB329
 18084 0076 26       		.uleb128 .LBE336-.LBB329
 18085 0077 00       		.byte	0
 18086              	.LLRL21:
 18087 0078 05       		.byte	0x5
 18088 0079 94000000 		.4byte	.LBB345
ARM GAS  C:\Users\DEVELO~1\AppData\Local\Temp\ccJK6Gr9.s 			page 319


 18089 007d 04       		.byte	0x4
 18090 007e 00       		.uleb128 .LBB345-.LBB345
 18091 007f 12       		.uleb128 .LBE345-.LBB345
 18092 0080 04       		.byte	0x4
 18093 0081 14       		.uleb128 .LBB348-.LBB345
 18094 0082 16       		.uleb128 .LBE348-.LBB345
 18095 0083 00       		.byte	0
 18096              	.LLRL25:
 18097 0084 05       		.byte	0x5
 18098 0085 00000000 		.4byte	.LBB349
 18099 0089 04       		.byte	0x4
 18100 008a 00       		.uleb128 .LBB349-.LBB349
 18101 008b 00       		.uleb128 .LBE349-.LBB349
 18102 008c 04       		.byte	0x4
 18103 008d 04       		.uleb128 .LBB352-.LBB349
 18104 008e 0A       		.uleb128 .LBE352-.LBB349
 18105 008f 00       		.byte	0
 18106              	.LLRL57:
 18107 0090 05       		.byte	0x5
 18108 0091 02000000 		.4byte	.LBB450
 18109 0095 04       		.byte	0x4
 18110 0096 00       		.uleb128 .LBB450-.LBB450
 18111 0097 02       		.uleb128 .LBE450-.LBB450
 18112 0098 04       		.byte	0x4
 18113 0099 08       		.uleb128 .LBB470-.LBB450
 18114 009a 16       		.uleb128 .LBE470-.LBB450
 18115 009b 04       		.byte	0x4
 18116 009c 24       		.uleb128 .LBB471-.LBB450
 18117 009d 4A       		.uleb128 .LBE471-.LBB450
 18118 009e 00       		.byte	0
 18119              	.LLRL65:
 18120 009f 05       		.byte	0x5
 18121 00a0 02000000 		.4byte	.LBB491
 18122 00a4 04       		.byte	0x4
 18123 00a5 00       		.uleb128 .LBB491-.LBB491
 18124 00a6 02       		.uleb128 .LBE491-.LBB491
 18125 00a7 04       		.byte	0x4
 18126 00a8 08       		.uleb128 .LBB511-.LBB491
 18127 00a9 16       		.uleb128 .LBE511-.LBB491
 18128 00aa 04       		.byte	0x4
 18129 00ab 24       		.uleb128 .LBB512-.LBB491
 18130 00ac 4A       		.uleb128 .LBE512-.LBB491
 18131 00ad 00       		.byte	0
 18132              	.LLRL73:
 18133 00ae 05       		.byte	0x5
 18134 00af 02000000 		.4byte	.LBB532
 18135 00b3 04       		.byte	0x4
 18136 00b4 00       		.uleb128 .LBB532-.LBB532
 18137 00b5 02       		.uleb128 .LBE532-.LBB532
 18138 00b6 04       		.byte	0x4
 18139 00b7 08       		.uleb128 .LBB552-.LBB532
 18140 00b8 16       		.uleb128 .LBE552-.LBB532
 18141 00b9 04       		.byte	0x4
 18142 00ba 24       		.uleb128 .LBB553-.LBB532
 18143 00bb 4A       		.uleb128 .LBE553-.LBB532
 18144 00bc 00       		.byte	0
 18145              	.LLRL81:
ARM GAS  C:\Users\DEVELO~1\AppData\Local\Temp\ccJK6Gr9.s 			page 320


 18146 00bd 05       		.byte	0x5
 18147 00be 02000000 		.4byte	.LBB573
 18148 00c2 04       		.byte	0x4
 18149 00c3 00       		.uleb128 .LBB573-.LBB573
 18150 00c4 02       		.uleb128 .LBE573-.LBB573
 18151 00c5 04       		.byte	0x4
 18152 00c6 08       		.uleb128 .LBB593-.LBB573
 18153 00c7 16       		.uleb128 .LBE593-.LBB573
 18154 00c8 04       		.byte	0x4
 18155 00c9 24       		.uleb128 .LBB594-.LBB573
 18156 00ca 4A       		.uleb128 .LBE594-.LBB573
 18157 00cb 00       		.byte	0
 18158              	.LLRL89:
 18159 00cc 05       		.byte	0x5
 18160 00cd 02000000 		.4byte	.LBB614
 18161 00d1 04       		.byte	0x4
 18162 00d2 00       		.uleb128 .LBB614-.LBB614
 18163 00d3 02       		.uleb128 .LBE614-.LBB614
 18164 00d4 04       		.byte	0x4
 18165 00d5 08       		.uleb128 .LBB634-.LBB614
 18166 00d6 16       		.uleb128 .LBE634-.LBB614
 18167 00d7 04       		.byte	0x4
 18168 00d8 24       		.uleb128 .LBB635-.LBB614
 18169 00d9 4A       		.uleb128 .LBE635-.LBB614
 18170 00da 00       		.byte	0
 18171              	.LLRL97:
 18172 00db 05       		.byte	0x5
 18173 00dc 02000000 		.4byte	.LBB655
 18174 00e0 04       		.byte	0x4
 18175 00e1 00       		.uleb128 .LBB655-.LBB655
 18176 00e2 02       		.uleb128 .LBE655-.LBB655
 18177 00e3 04       		.byte	0x4
 18178 00e4 08       		.uleb128 .LBB675-.LBB655
 18179 00e5 16       		.uleb128 .LBE675-.LBB655
 18180 00e6 04       		.byte	0x4
 18181 00e7 24       		.uleb128 .LBB676-.LBB655
 18182 00e8 4A       		.uleb128 .LBE676-.LBB655
 18183 00e9 00       		.byte	0
 18184              	.LLRL108:
 18185 00ea 05       		.byte	0x5
 18186 00eb 82000000 		.4byte	.LBB725
 18187 00ef 04       		.byte	0x4
 18188 00f0 00       		.uleb128 .LBB725-.LBB725
 18189 00f1 28       		.uleb128 .LBE725-.LBB725
 18190 00f2 04       		.byte	0x4
 18191 00f3 9007     		.uleb128 .LBB777-.LBB725
 18192 00f5 9607     		.uleb128 .LBE777-.LBB725
 18193 00f7 04       		.byte	0x4
 18194 00f8 9607     		.uleb128 .LBB778-.LBB725
 18195 00fa 9A07     		.uleb128 .LBE778-.LBB725
 18196 00fc 00       		.byte	0
 18197              	.LLRL149:
 18198 00fd 05       		.byte	0x5
 18199 00fe A0030000 		.4byte	.LBB767
 18200 0102 04       		.byte	0x4
 18201 0103 00       		.uleb128 .LBB767-.LBB767
 18202 0104 20       		.uleb128 .LBE767-.LBB767
ARM GAS  C:\Users\DEVELO~1\AppData\Local\Temp\ccJK6Gr9.s 			page 321


 18203 0105 04       		.byte	0x4
 18204 0106 7E       		.uleb128 .LBB779-.LBB767
 18205 0107 8401     		.uleb128 .LBE779-.LBB767
 18206 0109 04       		.byte	0x4
 18207 010a 8401     		.uleb128 .LBB780-.LBB767
 18208 010c 8801     		.uleb128 .LBE780-.LBB767
 18209 010e 00       		.byte	0
 18210              	.LLRL166:
 18211 010f 05       		.byte	0x5
 18212 0110 30000000 		.4byte	.LBB797
 18213 0114 04       		.byte	0x4
 18214 0115 00       		.uleb128 .LBB797-.LBB797
 18215 0116 00       		.uleb128 .LBE797-.LBB797
 18216 0117 04       		.byte	0x4
 18217 0118 08       		.uleb128 .LBB802-.LBB797
 18218 0119 18       		.uleb128 .LBE802-.LBB797
 18219 011a 00       		.byte	0
 18220              	.LLRL171:
 18221 011b 05       		.byte	0x5
 18222 011c 30000000 		.4byte	.LBB807
 18223 0120 04       		.byte	0x4
 18224 0121 00       		.uleb128 .LBB807-.LBB807
 18225 0122 00       		.uleb128 .LBE807-.LBB807
 18226 0123 04       		.byte	0x4
 18227 0124 08       		.uleb128 .LBB812-.LBB807
 18228 0125 18       		.uleb128 .LBE812-.LBB807
 18229 0126 00       		.byte	0
 18230              	.LLRL175:
 18231 0127 05       		.byte	0x5
 18232 0128 30000000 		.4byte	.LBB817
 18233 012c 04       		.byte	0x4
 18234 012d 00       		.uleb128 .LBB817-.LBB817
 18235 012e 00       		.uleb128 .LBE817-.LBB817
 18236 012f 04       		.byte	0x4
 18237 0130 08       		.uleb128 .LBB822-.LBB817
 18238 0131 18       		.uleb128 .LBE822-.LBB817
 18239 0132 00       		.byte	0
 18240              	.LLRL179:
 18241 0133 05       		.byte	0x5
 18242 0134 30000000 		.4byte	.LBB827
 18243 0138 04       		.byte	0x4
 18244 0139 00       		.uleb128 .LBB827-.LBB827
 18245 013a 00       		.uleb128 .LBE827-.LBB827
 18246 013b 04       		.byte	0x4
 18247 013c 08       		.uleb128 .LBB832-.LBB827
 18248 013d 18       		.uleb128 .LBE832-.LBB827
 18249 013e 00       		.byte	0
 18250              	.LLRL188:
 18251 013f 05       		.byte	0x5
 18252 0140 06000000 		.4byte	.LBB841
 18253 0144 04       		.byte	0x4
 18254 0145 00       		.uleb128 .LBB841-.LBB841
 18255 0146 02       		.uleb128 .LBE841-.LBB841
 18256 0147 04       		.byte	0x4
 18257 0148 06       		.uleb128 .LBB847-.LBB841
 18258 0149 08       		.uleb128 .LBE847-.LBB841
 18259 014a 04       		.byte	0x4
ARM GAS  C:\Users\DEVELO~1\AppData\Local\Temp\ccJK6Gr9.s 			page 322


 18260 014b 0C       		.uleb128 .LBB848-.LBB841
 18261 014c 16       		.uleb128 .LBE848-.LBB841
 18262 014d 00       		.byte	0
 18263              	.LLRL190:
 18264 014e 05       		.byte	0x5
 18265 014f 28000000 		.4byte	.LBB849
 18266 0153 04       		.byte	0x4
 18267 0154 00       		.uleb128 .LBB849-.LBB849
 18268 0155 0E       		.uleb128 .LBE849-.LBB849
 18269 0156 04       		.byte	0x4
 18270 0157 10       		.uleb128 .LBB855-.LBB849
 18271 0158 14       		.uleb128 .LBE855-.LBB849
 18272 0159 04       		.byte	0x4
 18273 015a 16       		.uleb128 .LBB857-.LBB849
 18274 015b 18       		.uleb128 .LBE857-.LBB849
 18275 015c 00       		.byte	0
 18276              	.LLRL193:
 18277 015d 05       		.byte	0x5
 18278 015e 36000000 		.4byte	.LBB850
 18279 0162 04       		.byte	0x4
 18280 0163 00       		.uleb128 .LBB850-.LBB850
 18281 0164 02       		.uleb128 .LBE850-.LBB850
 18282 0165 04       		.byte	0x4
 18283 0166 06       		.uleb128 .LBB856-.LBB850
 18284 0167 08       		.uleb128 .LBE856-.LBB850
 18285 0168 04       		.byte	0x4
 18286 0169 0A       		.uleb128 .LBB858-.LBB850
 18287 016a 1E       		.uleb128 .LBE858-.LBB850
 18288 016b 04       		.byte	0x4
 18289 016c 22       		.uleb128 .LBB859-.LBB850
 18290 016d 24       		.uleb128 .LBE859-.LBB850
 18291 016e 00       		.byte	0
 18292              	.LLRL195:
 18293 016f 05       		.byte	0x5
 18294 0170 62000000 		.4byte	.LBB860
 18295 0174 04       		.byte	0x4
 18296 0175 00       		.uleb128 .LBB860-.LBB860
 18297 0176 0C       		.uleb128 .LBE860-.LBB860
 18298 0177 04       		.byte	0x4
 18299 0178 0E       		.uleb128 .LBB861-.LBB860
 18300 0179 10       		.uleb128 .LBE861-.LBB860
 18301 017a 00       		.byte	0
 18302              	.LLRL198:
 18303 017b 07       		.byte	0x7
 18304 017c 00000000 		.4byte	.LFB479
 18305 0180 58       		.uleb128 .LFE479-.LFB479
 18306 0181 07       		.byte	0x7
 18307 0182 00000000 		.4byte	.LFB451
 18308 0186 A003     		.uleb128 .LFE451-.LFB451
 18309 0188 07       		.byte	0x7
 18310 0189 00000000 		.4byte	.LFB452
 18311 018d B401     		.uleb128 .LFE452-.LFB452
 18312 018f 07       		.byte	0x7
 18313 0190 00000000 		.4byte	.LFB477
 18314 0194 38       		.uleb128 .LFE477-.LFB477
 18315 0195 07       		.byte	0x7
 18316 0196 00000000 		.4byte	.LFB454
ARM GAS  C:\Users\DEVELO~1\AppData\Local\Temp\ccJK6Gr9.s 			page 323


 18317 019a 0A       		.uleb128 .LFE454-.LFB454
 18318 019b 07       		.byte	0x7
 18319 019c 00000000 		.4byte	.LFB456
 18320 01a0 0C       		.uleb128 .LFE456-.LFB456
 18321 01a1 07       		.byte	0x7
 18322 01a2 00000000 		.4byte	.LFB455
 18323 01a6 A801     		.uleb128 .LFE455-.LFB455
 18324 01a8 07       		.byte	0x7
 18325 01a9 00000000 		.4byte	.LFB453
 18326 01ad A801     		.uleb128 .LFE453-.LFB453
 18327 01af 07       		.byte	0x7
 18328 01b0 00000000 		.4byte	.LFB460
 18329 01b4 68       		.uleb128 .LFE460-.LFB460
 18330 01b5 07       		.byte	0x7
 18331 01b6 00000000 		.4byte	.LFB461
 18332 01ba 68       		.uleb128 .LFE461-.LFB461
 18333 01bb 07       		.byte	0x7
 18334 01bc 00000000 		.4byte	.LFB462
 18335 01c0 68       		.uleb128 .LFE462-.LFB462
 18336 01c1 07       		.byte	0x7
 18337 01c2 00000000 		.4byte	.LFB463
 18338 01c6 68       		.uleb128 .LFE463-.LFB463
 18339 01c7 07       		.byte	0x7
 18340 01c8 00000000 		.4byte	.LFB464
 18341 01cc 68       		.uleb128 .LFE464-.LFB464
 18342 01cd 07       		.byte	0x7
 18343 01ce 00000000 		.4byte	.LFB465
 18344 01d2 68       		.uleb128 .LFE465-.LFB465
 18345 01d3 07       		.byte	0x7
 18346 01d4 00000000 		.4byte	.LFB466
 18347 01d8 9402     		.uleb128 .LFE466-.LFB466
 18348 01da 07       		.byte	0x7
 18349 01db 00000000 		.4byte	.LFB467
 18350 01df B808     		.uleb128 .LFE467-.LFB467
 18351 01e1 07       		.byte	0x7
 18352 01e2 00000000 		.4byte	.LFB468
 18353 01e6 B002     		.uleb128 .LFE468-.LFB468
 18354 01e8 07       		.byte	0x7
 18355 01e9 00000000 		.4byte	.LFB469
 18356 01ed 5A       		.uleb128 .LFE469-.LFB469
 18357 01ee 07       		.byte	0x7
 18358 01ef 00000000 		.4byte	.LFB470
 18359 01f3 70       		.uleb128 .LFE470-.LFB470
 18360 01f4 07       		.byte	0x7
 18361 01f5 00000000 		.4byte	.LFB471
 18362 01f9 6E       		.uleb128 .LFE471-.LFB471
 18363 01fa 07       		.byte	0x7
 18364 01fb 00000000 		.4byte	.LFB472
 18365 01ff 68       		.uleb128 .LFE472-.LFB472
 18366 0200 07       		.byte	0x7
 18367 0201 00000000 		.4byte	.LFB473
 18368 0205 26       		.uleb128 .LFE473-.LFB473
 18369 0206 07       		.byte	0x7
 18370 0207 00000000 		.4byte	.LFB474
 18371 020b 8201     		.uleb128 .LFE474-.LFB474
 18372 020d 00       		.byte	0
 18373              	.Ldebug_ranges3:
ARM GAS  C:\Users\DEVELO~1\AppData\Local\Temp\ccJK6Gr9.s 			page 324


 18374              		.section	.debug_line,"",%progbits
 18375              	.Ldebug_line0:
 18376 0000 69260000 		.section	.debug_str,"MS",%progbits,1
 18376      0300D004 
 18376      00000201 
 18376      FB0E0D00 
 18376      01010101 
 18377              	.LASF129:
 18378 0000 41504231 		.ascii	"APB1HRSTR\000"
 18378      48525354 
 18378      5200
 18379              	.LASF11:
 18380 000a 6C6F6E67 		.ascii	"long int\000"
 18380      20696E74 
 18380      00
 18381              	.LASF207:
 18382 0013 63737461 		.ascii	"cstack_base\000"
 18382      636B5F62 
 18382      61736500 
 18383              	.LASF225:
 18384 001f 636C6561 		.ascii	"clear\000"
 18384      7200
 18385              	.LASF92:
 18386 0025 42444D41 		.ascii	"BDMA_TypeDef\000"
 18386      5F547970 
 18386      65446566 
 18386      00
 18387              	.LASF222:
 18388 0032 62646D61 		.ascii	"bdma\000"
 18388      00
 18389              	.LASF327:
 18390 0037 72636352 		.ascii	"rccResetAPB1L\000"
 18390      65736574 
 18390      41504231 
 18390      4C00
 18391              	.LASF199:
 18392 0045 77746D74 		.ascii	"wtmtxp\000"
 18392      787000
 18393              	.LASF253:
 18394 004c 63697263 		.ascii	"circular\000"
 18394      756C6172 
 18394      00
 18395              	.LASF190:
 18396 0055 74687265 		.ascii	"thread_reference_t\000"
 18396      61645F72 
 18396      65666572 
 18396      656E6365 
 18396      5F7400
 18397              	.LASF230:
 18398 0068 42535252 		.ascii	"BSRR\000"
 18398      00
 18399              	.LASF317:
 18400 006d 7370695F 		.ascii	"spi_lld_stop_abort\000"
 18400      6C6C645F 
 18400      73746F70 
 18400      5F61626F 
 18400      727400
ARM GAS  C:\Users\DEVELO~1\AppData\Local\Temp\ccJK6Gr9.s 			page 325


 18401              	.LASF41:
 18402 0080 64697370 		.ascii	"dispose\000"
 18402      6F736500 
 18403              	.LASF22:
 18404 0088 706F7274 		.ascii	"port_stkline_t\000"
 18404      5F73746B 
 18404      6C696E65 
 18404      5F7400
 18405              	.LASF187:
 18406 0097 63685F72 		.ascii	"ch_registry\000"
 18406      65676973 
 18406      74727900 
 18407              	.LASF152:
 18408 00a3 41504232 		.ascii	"APB2LPENR\000"
 18408      4C50454E 
 18408      5200
 18409              	.LASF130:
 18410 00ad 41504232 		.ascii	"APB2RSTR\000"
 18410      52535452 
 18410      00
 18411              	.LASF296:
 18412 00b6 7370695F 		.ascii	"spi_lld_exchange\000"
 18412      6C6C645F 
 18412      65786368 
 18412      616E6765 
 18412      00
 18413              	.LASF37:
 18414 00c7 666C6167 		.ascii	"flags\000"
 18414      7300
 18415              	.LASF68:
 18416 00cd 73797374 		.ascii	"systime_t\000"
 18416      696D655F 
 18416      7400
 18417              	.LASF47:
 18418 00d7 7265616C 		.ascii	"realprio\000"
 18418      7072696F 
 18418      00
 18419              	.LASF80:
 18420 00e0 62756666 		.ascii	"buffer\000"
 18420      657200
 18421              	.LASF110:
 18422 00e7 504C4C33 		.ascii	"PLL3FRACR\000"
 18422      46524143 
 18422      5200
 18423              	.LASF45:
 18424 00f1 6570656E 		.ascii	"epending\000"
 18424      64696E67 
 18424      00
 18425              	.LASF0:
 18426 00fa 756E7369 		.ascii	"unsigned int\000"
 18426      676E6564 
 18426      20696E74 
 18426      00
 18427              	.LASF171:
 18428 0107 6E657874 		.ascii	"next\000"
 18428      00
 18429              	.LASF19:
ARM GAS  C:\Users\DEVELO~1\AppData\Local\Temp\ccJK6Gr9.s 			page 326


 18430 010c 75696E74 		.ascii	"uint32_t\000"
 18430      33325F74 
 18430      00
 18431              	.LASF78:
 18432 0115 73757370 		.ascii	"suspended\000"
 18432      656E6465 
 18432      6400
 18433              	.LASF268:
 18434 011f 62646D61 		.ascii	"bdmaStreamFreeI\000"
 18434      53747265 
 18434      616D4672 
 18434      65654900 
 18435              	.LASF162:
 18436 012f 54584352 		.ascii	"TXCRC\000"
 18436      4300
 18437              	.LASF54:
 18438 0135 636F7265 		.ascii	"core_id\000"
 18438      5F696400 
 18439              	.LASF101:
 18440 013d 44334346 		.ascii	"D3CFGR\000"
 18440      475200
 18441              	.LASF121:
 18442 0144 42444352 		.ascii	"BDCR\000"
 18442      00
 18443              	.LASF52:
 18444 0149 76746C69 		.ascii	"vtlist\000"
 18444      737400
 18445              	.LASF38:
 18446 0150 72656673 		.ascii	"refs\000"
 18446      00
 18447              	.LASF95:
 18448 0155 43525243 		.ascii	"CRRCR\000"
 18448      5200
 18449              	.LASF155:
 18450 015b 5243435F 		.ascii	"RCC_TypeDef\000"
 18450      54797065 
 18450      44656600 
 18451              	.LASF256:
 18452 0167 6572726F 		.ascii	"error_cb\000"
 18452      725F6362 
 18452      00
 18453              	.LASF70:
 18454 0170 77746F62 		.ascii	"wtobjp\000"
 18454      6A7000
 18455              	.LASF342:
 18456 0177 706F7274 		.ascii	"port_lock\000"
 18456      5F6C6F63 
 18456      6B00
 18457              	.LASF314:
 18458 0181 7370695F 		.ascii	"spi_lld_serve_bdma_tx_interrupt\000"
 18458      6C6C645F 
 18458      73657276 
 18458      655F6264 
 18458      6D615F74 
 18459              	.LASF109:
 18460 01a1 504C4C33 		.ascii	"PLL3DIVR\000"
 18460      44495652 
ARM GAS  C:\Users\DEVELO~1\AppData\Local\Temp\ccJK6Gr9.s 			page 327


 18460      00
 18461              	.LASF271:
 18462 01aa 62646D61 		.ascii	"bdmaStreamAllocI\000"
 18462      53747265 
 18462      616D416C 
 18462      6C6F6349 
 18462      00
 18463              	.LASF168:
 18464 01bb 706F7274 		.ascii	"port_context\000"
 18464      5F636F6E 
 18464      74657874 
 18464      00
 18465              	.LASF340:
 18466 01c8 706F7274 		.ascii	"port_lock_from_isr\000"
 18466      5F6C6F63 
 18466      6B5F6672 
 18466      6F6D5F69 
 18466      737200
 18467              	.LASF172:
 18468 01db 63685F71 		.ascii	"ch_queue_t\000"
 18468      75657565 
 18468      5F7400
 18469              	.LASF203:
 18470 01e6 63685F72 		.ascii	"ch_ready_list\000"
 18470      65616479 
 18470      5F6C6973 
 18470      7400
 18471              	.LASF303:
 18472 01f4 56656374 		.ascii	"Vector190\000"
 18472      6F723139 
 18472      3000
 18473              	.LASF82:
 18474 01fe 4E445452 		.ascii	"NDTR\000"
 18474      00
 18475              	.LASF185:
 18476 0203 6C617374 		.ascii	"laststamp\000"
 18476      7374616D 
 18476      7000
 18477              	.LASF118:
 18478 020d 43494652 		.ascii	"CIFR\000"
 18478      00
 18479              	.LASF294:
 18480 0212 74786275 		.ascii	"txbuf\000"
 18480      6600
 18481              	.LASF174:
 18482 0218 70726576 		.ascii	"prev\000"
 18482      00
 18483              	.LASF147:
 18484 021d 41484232 		.ascii	"AHB2LPENR\000"
 18484      4C50454E 
 18484      5200
 18485              	.LASF338:
 18486 0227 63685379 		.ascii	"chSysLockFromISR\000"
 18486      734C6F63 
 18486      6B46726F 
 18486      6D495352 
 18486      00
ARM GAS  C:\Users\DEVELO~1\AppData\Local\Temp\ccJK6Gr9.s 			page 328


 18487              	.LASF270:
 18488 0238 646D6153 		.ascii	"dmaStreamFreeI\000"
 18488      74726561 
 18488      6D467265 
 18488      654900
 18489              	.LASF170:
 18490 0247 63685F6C 		.ascii	"ch_list\000"
 18490      69737400 
 18491              	.LASF221:
 18492 024f 73746D33 		.ascii	"stm32_bdmaisr_t\000"
 18492      325F6264 
 18492      6D616973 
 18492      725F7400 
 18493              	.LASF163:
 18494 025f 52584352 		.ascii	"RXCRC\000"
 18494      4300
 18495              	.LASF139:
 18496 0265 41504233 		.ascii	"APB3ENR\000"
 18496      454E5200 
 18497              	.LASF324:
 18498 026d 72636352 		.ascii	"rccResetAPB2\000"
 18498      65736574 
 18498      41504232 
 18498      00
 18499              	.LASF86:
 18500 027a 434E4454 		.ascii	"CNDTR\000"
 18500      5200
 18501              	.LASF321:
 18502 0280 72636352 		.ascii	"rccResetAPB4\000"
 18502      65736574 
 18502      41504234 
 18502      00
 18503              	.LASF64:
 18504 028d 63685F73 		.ascii	"ch_system_debug\000"
 18504      79737465 
 18504      6D5F6465 
 18504      62756700 
 18505              	.LASF261:
 18506 029d 73706963 		.ascii	"spicb_t\000"
 18506      625F7400 
 18507              	.LASF192:
 18508 02a5 6C697374 		.ascii	"list\000"
 18508      00
 18509              	.LASF257:
 18510 02aa 7373706F 		.ascii	"ssport\000"
 18510      727400
 18511              	.LASF277:
 18512 02b1 63685468 		.ascii	"chThdResumeI\000"
 18512      64526573 
 18512      756D6549 
 18512      00
 18513              	.LASF276:
 18514 02be 7370694F 		.ascii	"spiObjectInit\000"
 18514      626A6563 
 18514      74496E69 
 18514      7400
 18515              	.LASF328:
ARM GAS  C:\Users\DEVELO~1\AppData\Local\Temp\ccJK6Gr9.s 			page 329


 18516 02cc 72636344 		.ascii	"rccDisableAPB1L\000"
 18516      69736162 
 18516      6C654150 
 18516      42314C00 
 18517              	.LASF179:
 18518 02dc 63685F64 		.ascii	"ch_delta_list\000"
 18518      656C7461 
 18518      5F6C6973 
 18518      7400
 18519              	.LASF282:
 18520 02ea 6473697A 		.ascii	"dsize\000"
 18520      6500
 18521              	.LASF197:
 18522 02f0 73656E74 		.ascii	"sentmsg\000"
 18522      6D736700 
 18523              	.LASF29:
 18524 02f8 6576656E 		.ascii	"eventmask_t\000"
 18524      746D6173 
 18524      6B5F7400 
 18525              	.LASF283:
 18526 0304 72786672 		.ascii	"rxframe\000"
 18526      616D6500 
 18527              	.LASF216:
 18528 030c 69666372 		.ascii	"ifcr\000"
 18528      00
 18529              	.LASF307:
 18530 0311 72787374 		.ascii	"rxstream\000"
 18530      7265616D 
 18530      00
 18531              	.LASF77:
 18532 031a 74726163 		.ascii	"trace_event_t\000"
 18532      655F6576 
 18532      656E745F 
 18532      7400
 18533              	.LASF245:
 18534 0328 6D757465 		.ascii	"mutex\000"
 18534      7800
 18535              	.LASF217:
 18536 032e 73686966 		.ascii	"shift\000"
 18536      7400
 18537              	.LASF106:
 18538 0334 504C4C31 		.ascii	"PLL1FRACR\000"
 18538      46524143 
 18538      5200
 18539              	.LASF315:
 18540 033e 7370695F 		.ascii	"spi_lld_serve_dma_rx_interrupt\000"
 18540      6C6C645F 
 18540      73657276 
 18540      655F646D 
 18540      615F7278 
 18541              	.LASF136:
 18542 035d 41484231 		.ascii	"AHB1ENR\000"
 18542      454E5200 
 18543              	.LASF27:
 18544 0365 74707269 		.ascii	"tprio_t\000"
 18544      6F5F7400 
 18545              	.LASF128:
ARM GAS  C:\Users\DEVELO~1\AppData\Local\Temp\ccJK6Gr9.s 			page 330


 18546 036d 41504231 		.ascii	"APB1LRSTR\000"
 18546      4C525354 
 18546      5200
 18547              	.LASF298:
 18548 0377 7370695F 		.ascii	"spi_lld_start\000"
 18548      6C6C645F 
 18548      73746172 
 18548      7400
 18549              	.LASF211:
 18550 0385 6F735F69 		.ascii	"os_instance_config_t\000"
 18550      6E737461 
 18550      6E63655F 
 18550      636F6E66 
 18550      69675F74 
 18551              	.LASF72:
 18552 039a 68616C74 		.ascii	"halt\000"
 18552      00
 18553              	.LASF15:
 18554 039f 6C6F6E67 		.ascii	"long long unsigned int\000"
 18554      206C6F6E 
 18554      6720756E 
 18554      7369676E 
 18554      65642069 
 18555              	.LASF150:
 18556 03b6 41504231 		.ascii	"APB1LLPENR\000"
 18556      4C4C5045 
 18556      4E5200
 18557              	.LASF306:
 18558 03c1 56656374 		.ascii	"VectorCC\000"
 18558      6F724343 
 18558      00
 18559              	.LASF289:
 18560 03ca 7370695F 		.ascii	"spi_lld_stop_transfer\000"
 18560      6C6C645F 
 18560      73746F70 
 18560      5F747261 
 18560      6E736665 
 18561              	.LASF349:
 18562 03e0 7370695F 		.ascii	"spi_lld_stop_nicely\000"
 18562      6C6C645F 
 18562      73746F70 
 18562      5F6E6963 
 18562      656C7900 
 18563              	.LASF71:
 18564 03f4 72656173 		.ascii	"reason\000"
 18564      6F6E00
 18565              	.LASF219:
 18566 03fb 76656374 		.ascii	"vector\000"
 18566      6F7200
 18567              	.LASF193:
 18568 0402 70717565 		.ascii	"pqueue\000"
 18568      756500
 18569              	.LASF8:
 18570 0409 5F5F7569 		.ascii	"__uint16_t\000"
 18570      6E743136 
 18570      5F7400
 18571              	.LASF30:
ARM GAS  C:\Users\DEVELO~1\AppData\Local\Temp\ccJK6Gr9.s 			page 331


 18572 0414 636E745F 		.ascii	"cnt_t\000"
 18572      7400
 18573              	.LASF23:
 18574 041a 73746B6C 		.ascii	"stkline_t\000"
 18574      696E655F 
 18574      7400
 18575              	.LASF287:
 18576 0424 72786472 		.ascii	"rxdrp16\000"
 18576      70313600 
 18577              	.LASF243:
 18578 042c 68616C5F 		.ascii	"hal_spi_driver\000"
 18578      7370695F 
 18578      64726976 
 18578      657200
 18579              	.LASF76:
 18580 043b 74696D65 		.ascii	"time\000"
 18580      00
 18581              	.LASF233:
 18582 0440 41465248 		.ascii	"AFRH\000"
 18582      00
 18583              	.LASF234:
 18584 0445 73746D33 		.ascii	"stm32_gpio_t\000"
 18584      325F6770 
 18584      696F5F74 
 18584      00
 18585              	.LASF33:
 18586 0452 6F776E65 		.ascii	"owner\000"
 18586      7200
 18587              	.LASF123:
 18588 0458 41484233 		.ascii	"AHB3RSTR\000"
 18588      52535452 
 18588      00
 18589              	.LASF305:
 18590 0461 56656374 		.ascii	"VectorD0\000"
 18590      6F724430 
 18590      00
 18591              	.LASF46:
 18592 046a 6D74786C 		.ascii	"mtxlist\000"
 18592      69737400 
 18593              	.LASF181:
 18594 0472 63685F76 		.ascii	"ch_virtual_timers_list\000"
 18594      69727475 
 18594      616C5F74 
 18594      696D6572 
 18594      735F6C69 
 18595              	.LASF55:
 18596 0489 72666375 		.ascii	"rfcu\000"
 18596      00
 18597              	.LASF344:
 18598 048e 62617365 		.ascii	"basePri\000"
 18598      50726900 
 18599              	.LASF32:
 18600 0496 74687265 		.ascii	"thread_t\000"
 18600      61645F74 
 18600      00
 18601              	.LASF337:
 18602 049f 63685379 		.ascii	"chSysUnlockFromISR\000"
ARM GAS  C:\Users\DEVELO~1\AppData\Local\Temp\ccJK6Gr9.s 			page 332


 18602      73556E6C 
 18602      6F636B46 
 18602      726F6D49 
 18602      535200
 18603              	.LASF140:
 18604 04b2 41504231 		.ascii	"APB1LENR\000"
 18604      4C454E52 
 18604      00
 18605              	.LASF73:
 18606 04bb 75736572 		.ascii	"user\000"
 18606      00
 18607              	.LASF153:
 18608 04c0 41504234 		.ascii	"APB4LPENR\000"
 18608      4C50454E 
 18608      5200
 18609              	.LASF4:
 18610 04ca 73697A65 		.ascii	"size_t\000"
 18610      5F7400
 18611              	.LASF194:
 18612 04d1 7264796D 		.ascii	"rdymsg\000"
 18612      736700
 18613              	.LASF160:
 18614 04d8 52584452 		.ascii	"RXDR\000"
 18614      00
 18615              	.LASF335:
 18616 04dd 6F73616C 		.ascii	"osalSysLockFromISR\000"
 18616      5379734C 
 18616      6F636B46 
 18616      726F6D49 
 18616      535200
 18617              	.LASF302:
 18618 04f0 56656374 		.ascii	"Vector194\000"
 18618      6F723139 
 18618      3400
 18619              	.LASF175:
 18620 04fa 63685F70 		.ascii	"ch_priority_queue_t\000"
 18620      72696F72 
 18620      6974795F 
 18620      71756575 
 18620      655F7400 
 18621              	.LASF301:
 18622 050e 56656374 		.ascii	"Vector198\000"
 18622      6F723139 
 18622      3800
 18623              	.LASF213:
 18624 0518 5F426F6F 		.ascii	"_Bool\000"
 18624      6C00
 18625              	.LASF332:
 18626 051e 5F5F7263 		.ascii	"__rccResetAPB1L\000"
 18626      63526573 
 18626      65744150 
 18626      42314C00 
 18627              	.LASF226:
 18628 052e 4D4F4445 		.ascii	"MODER\000"
 18628      5200
 18629              	.LASF42:
 18630 0534 6F626A65 		.ascii	"object\000"
ARM GAS  C:\Users\DEVELO~1\AppData\Local\Temp\ccJK6Gr9.s 			page 333


 18630      637400
 18631              	.LASF131:
 18632 053b 41504234 		.ascii	"APB4RSTR\000"
 18632      52535452 
 18632      00
 18633              	.LASF284:
 18634 0544 74786472 		.ascii	"txdrp8\000"
 18634      703800
 18635              	.LASF61:
 18636 054b 63685F72 		.ascii	"ch_rfcu\000"
 18636      66637500 
 18637              	.LASF202:
 18638 0553 63685F6D 		.ascii	"ch_mutex\000"
 18638      75746578 
 18638      00
 18639              	.LASF251:
 18640 055c 53504943 		.ascii	"SPIConfig\000"
 18640      6F6E6669 
 18640      6700
 18641              	.LASF83:
 18642 0566 4D304152 		.ascii	"M0AR\000"
 18642      00
 18643              	.LASF50:
 18644 056b 63685F6F 		.ascii	"ch_os_instance\000"
 18644      735F696E 
 18644      7374616E 
 18644      636500
 18645              	.LASF135:
 18646 057a 41484233 		.ascii	"AHB3ENR\000"
 18646      454E5200 
 18647              	.LASF235:
 18648 0582 696F706F 		.ascii	"ioportid_t\000"
 18648      72746964 
 18648      5F7400
 18649              	.LASF232:
 18650 058d 4146524C 		.ascii	"AFRL\000"
 18650      00
 18651              	.LASF113:
 18652 0592 44324343 		.ascii	"D2CCIP1R\000"
 18652      49503152 
 18652      00
 18653              	.LASF229:
 18654 059b 50555044 		.ascii	"PUPDR\000"
 18654      5200
 18655              	.LASF254:
 18656 05a1 736C6176 		.ascii	"slave\000"
 18656      6500
 18657              	.LASF214:
 18658 05a7 73746D33 		.ascii	"stm32_dmaisr_t\000"
 18658      325F646D 
 18658      61697372 
 18658      5F7400
 18659              	.LASF177:
 18660 05b6 7072696F 		.ascii	"prio\000"
 18660      00
 18661              	.LASF311:
 18662 05bb 7370695F 		.ascii	"spi_lld_get_dma\000"
ARM GAS  C:\Users\DEVELO~1\AppData\Local\Temp\ccJK6Gr9.s 			page 334


 18662      6C6C645F 
 18662      6765745F 
 18662      646D6100 
 18663              	.LASF300:
 18664 05cb 7370695F 		.ascii	"spi_lld_init\000"
 18664      6C6C645F 
 18664      696E6974 
 18664      00
 18665              	.LASF310:
 18666 05d8 7370695F 		.ascii	"spi_lld_get_bdma\000"
 18666      6C6C645F 
 18666      6765745F 
 18666      62646D61 
 18666      00
 18667              	.LASF66:
 18668 05e9 63686172 		.ascii	"char\000"
 18668      00
 18669              	.LASF178:
 18670 05ee 63685F64 		.ascii	"ch_delta_list_t\000"
 18670      656C7461 
 18670      5F6C6973 
 18670      745F7400 
 18671              	.LASF60:
 18672 05fe 72666375 		.ascii	"rfcu_mask_t\000"
 18672      5F6D6173 
 18672      6B5F7400 
 18673              	.LASF10:
 18674 060a 5F5F696E 		.ascii	"__int32_t\000"
 18674      7433325F 
 18674      7400
 18675              	.LASF148:
 18676 0614 41484234 		.ascii	"AHB4LPENR\000"
 18676      4C50454E 
 18676      5200
 18677              	.LASF108:
 18678 061e 504C4C32 		.ascii	"PLL2FRACR\000"
 18678      46524143 
 18678      5200
 18679              	.LASF248:
 18680 0628 7478646D 		.ascii	"txdmamode\000"
 18680      616D6F64 
 18680      6500
 18681              	.LASF34:
 18682 0632 77616261 		.ascii	"wabase\000"
 18682      736500
 18683              	.LASF347:
 18684 0639 433A5C43 		.ascii	"C:\\ChibiStudio\\ChibiOS-master\\demos\\STM32\\CUST"
 18684      68696269 
 18684      53747564 
 18684      696F5C43 
 18684      68696269 
 18685 0667 4F4D5F48 		.ascii	"OM_H743IIT6_maj\000"
 18685      37343349 
 18685      4954365F 
 18685      6D616A00 
 18686              	.LASF25:
 18687 0677 74737461 		.ascii	"tstate_t\000"
ARM GAS  C:\Users\DEVELO~1\AppData\Local\Temp\ccJK6Gr9.s 			page 335


 18687      74655F74 
 18687      00
 18688              	.LASF100:
 18689 0680 44324346 		.ascii	"D2CFGR\000"
 18689      475200
 18690              	.LASF220:
 18691 0687 73746D33 		.ascii	"stm32_dma_stream_t\000"
 18691      325F646D 
 18691      615F7374 
 18691      7265616D 
 18691      5F7400
 18692              	.LASF14:
 18693 069a 5F5F7569 		.ascii	"__uint64_t\000"
 18693      6E743634 
 18693      5F7400
 18694              	.LASF114:
 18695 06a5 44324343 		.ascii	"D2CCIP2R\000"
 18695      49503252 
 18695      00
 18696              	.LASF16:
 18697 06ae 75696E74 		.ascii	"uint8_t\000"
 18697      385F7400 
 18698              	.LASF117:
 18699 06b6 43494552 		.ascii	"CIER\000"
 18699      00
 18700              	.LASF273:
 18701 06bb 62646D61 		.ascii	"bdmaSetRequestSource\000"
 18701      53657452 
 18701      65717565 
 18701      7374536F 
 18701      75726365 
 18702              	.LASF44:
 18703 06d0 6D736771 		.ascii	"msgqueue\000"
 18703      75657565 
 18703      00
 18704              	.LASF107:
 18705 06d9 504C4C32 		.ascii	"PLL2DIVR\000"
 18705      44495652 
 18705      00
 18706              	.LASF290:
 18707 06e2 73697A65 		.ascii	"sizep\000"
 18707      7000
 18708              	.LASF49:
 18709 06e8 63685F74 		.ascii	"ch_thread\000"
 18709      68726561 
 18709      6400
 18710              	.LASF159:
 18711 06f2 54584452 		.ascii	"TXDR\000"
 18711      00
 18712              	.LASF320:
 18713 06f7 7370695F 		.ascii	"spi_lld_configure\000"
 18713      6C6C645F 
 18713      636F6E66 
 18713      69677572 
 18713      6500
 18714              	.LASF318:
 18715 0709 7370695F 		.ascii	"spi_lld_suspend\000"
ARM GAS  C:\Users\DEVELO~1\AppData\Local\Temp\ccJK6Gr9.s 			page 336


 18715      6C6C645F 
 18715      73757370 
 18715      656E6400 
 18716              	.LASF348:
 18717 0719 5F5F706F 		.ascii	"__port_irq_epilogue\000"
 18717      72745F69 
 18717      72715F65 
 18717      70696C6F 
 18717      67756500 
 18718              	.LASF40:
 18719 072d 72717565 		.ascii	"rqueue\000"
 18719      756500
 18720              	.LASF35:
 18721 0734 7761656E 		.ascii	"waend\000"
 18721      6400
 18722              	.LASF67:
 18723 073a 73797374 		.ascii	"system_debug_t\000"
 18723      656D5F64 
 18723      65627567 
 18723      5F7400
 18724              	.LASF1:
 18725 0749 6C6F6E67 		.ascii	"long long int\000"
 18725      206C6F6E 
 18725      6720696E 
 18725      7400
 18726              	.LASF21:
 18727 0757 75696E74 		.ascii	"uint_fast8_t\000"
 18727      5F666173 
 18727      74385F74 
 18727      00
 18728              	.LASF28:
 18729 0764 6D73675F 		.ascii	"msg_t\000"
 18729      7400
 18730              	.LASF184:
 18731 076a 6C617374 		.ascii	"lastdelta\000"
 18731      64656C74 
 18731      6100
 18732              	.LASF90:
 18733 0774 42444D41 		.ascii	"BDMA_Channel_TypeDef\000"
 18733      5F436861 
 18733      6E6E656C 
 18733      5F547970 
 18733      65446566 
 18734              	.LASF189:
 18735 0789 72656769 		.ascii	"registry_t\000"
 18735      73747279 
 18735      5F7400
 18736              	.LASF316:
 18737 0794 7370695F 		.ascii	"spi_lld_serve_bdma_rx_interrupt\000"
 18737      6C6C645F 
 18737      73657276 
 18737      655F6264 
 18737      6D615F72 
 18738              	.LASF304:
 18739 07b4 56656374 		.ascii	"Vector10C\000"
 18739      6F723130 
 18739      4300
ARM GAS  C:\Users\DEVELO~1\AppData\Local\Temp\ccJK6Gr9.s 			page 337


 18740              	.LASF85:
 18741 07be 444D415F 		.ascii	"DMA_Stream_TypeDef\000"
 18741      53747265 
 18741      616D5F54 
 18741      79706544 
 18741      656600
 18742              	.LASF79:
 18743 07d1 73697A65 		.ascii	"size\000"
 18743      00
 18744              	.LASF210:
 18745 07d6 69646C65 		.ascii	"idlestack_end\000"
 18745      73746163 
 18745      6B5F656E 
 18745      6400
 18746              	.LASF291:
 18747 07e4 7370695F 		.ascii	"spi_lld_receive\000"
 18747      6C6C645F 
 18747      72656365 
 18747      69766500 
 18748              	.LASF62:
 18749 07f4 6D61736B 		.ascii	"mask\000"
 18749      00
 18750              	.LASF345:
 18751 07f9 474E5520 		.ascii	"GNU C17 11.3.1 20220712 -mcpu=cortex-m7 -mthumb -mf"
 18751      43313720 
 18751      31312E33 
 18751      2E312032 
 18751      30323230 
 18752 082c 6C6F6174 		.ascii	"loat-abi=hard -mfpu=fpv5-d16 -march=armv7e-m+fp.dp "
 18752      2D616269 
 18752      3D686172 
 18752      64202D6D 
 18752      6670753D 
 18753 085f 2D676764 		.ascii	"-ggdb -O2 -ffunction-sections -fdata-sections -fno-"
 18753      62202D4F 
 18753      32202D66 
 18753      66756E63 
 18753      74696F6E 
 18754 0892 636F6D6D 		.ascii	"common\000"
 18754      6F6E00
 18755              	.LASF252:
 18756 0899 68616C5F 		.ascii	"hal_spi_config\000"
 18756      7370695F 
 18756      636F6E66 
 18756      696700
 18757              	.LASF124:
 18758 08a8 41484231 		.ascii	"AHB1RSTR\000"
 18758      52535452 
 18758      00
 18759              	.LASF191:
 18760 08b1 74687265 		.ascii	"thread_dispose_t\000"
 18760      61645F64 
 18760      6973706F 
 18760      73655F74 
 18760      00
 18761              	.LASF69:
 18762 08c2 73797369 		.ascii	"sysinterval_t\000"
ARM GAS  C:\Users\DEVELO~1\AppData\Local\Temp\ccJK6Gr9.s 			page 338


 18762      6E746572 
 18762      76616C5F 
 18762      7400
 18763              	.LASF142:
 18764 08d0 41504232 		.ascii	"APB2ENR\000"
 18764      454E5200 
 18765              	.LASF209:
 18766 08d8 69646C65 		.ascii	"idlestack_base\000"
 18766      73746163 
 18766      6B5F6261 
 18766      736500
 18767              	.LASF81:
 18768 08e7 74726163 		.ascii	"trace_buffer_t\000"
 18768      655F6275 
 18768      66666572 
 18768      5F7400
 18769              	.LASF93:
 18770 08f6 444D414D 		.ascii	"DMAMUX_Channel_TypeDef\000"
 18770      55585F43 
 18770      68616E6E 
 18770      656C5F54 
 18770      79706544 
 18771              	.LASF24:
 18772 090d 746D6F64 		.ascii	"tmode_t\000"
 18772      655F7400 
 18773              	.LASF146:
 18774 0915 41484231 		.ascii	"AHB1LPENR\000"
 18774      4C50454E 
 18774      5200
 18775              	.LASF57:
 18776 091f 69646C65 		.ascii	"idlethread\000"
 18776      74687265 
 18776      616400
 18777              	.LASF228:
 18778 092a 4F535045 		.ascii	"OSPEEDR\000"
 18778      45445200 
 18779              	.LASF331:
 18780 0932 5F5F7263 		.ascii	"__rccResetAPB2\000"
 18780      63526573 
 18780      65744150 
 18780      423200
 18781              	.LASF330:
 18782 0941 5F5F7263 		.ascii	"__rccResetAPB4\000"
 18782      63526573 
 18782      65744150 
 18782      423400
 18783              	.LASF231:
 18784 0950 4C4F434B 		.ascii	"LOCKR\000"
 18784      5200
 18785              	.LASF2:
 18786 0956 6C6F6E67 		.ascii	"long double\000"
 18786      20646F75 
 18786      626C6500 
 18787              	.LASF17:
 18788 0962 75696E74 		.ascii	"uint16_t\000"
 18788      31365F74 
 18788      00
ARM GAS  C:\Users\DEVELO~1\AppData\Local\Temp\ccJK6Gr9.s 			page 339


 18789              	.LASF169:
 18790 096b 63685F6C 		.ascii	"ch_list_t\000"
 18790      6973745F 
 18790      7400
 18791              	.LASF125:
 18792 0975 41484232 		.ascii	"AHB2RSTR\000"
 18792      52535452 
 18792      00
 18793              	.LASF236:
 18794 097e 5350495F 		.ascii	"SPI_UNINIT\000"
 18794      554E494E 
 18794      495400
 18795              	.LASF223:
 18796 0989 6368616E 		.ascii	"channel\000"
 18796      6E656C00 
 18797              	.LASF262:
 18798 0991 53504944 		.ascii	"SPID1\000"
 18798      3100
 18799              	.LASF263:
 18800 0997 53504944 		.ascii	"SPID2\000"
 18800      3200
 18801              	.LASF264:
 18802 099d 53504944 		.ascii	"SPID3\000"
 18802      3300
 18803              	.LASF265:
 18804 09a3 53504944 		.ascii	"SPID4\000"
 18804      3400
 18805              	.LASF266:
 18806 09a9 53504944 		.ascii	"SPID5\000"
 18806      3500
 18807              	.LASF267:
 18808 09af 53504944 		.ascii	"SPID6\000"
 18808      3600
 18809              	.LASF119:
 18810 09b5 43494352 		.ascii	"CICR\000"
 18810      00
 18811              	.LASF94:
 18812 09ba 48534943 		.ascii	"HSICFGR\000"
 18812      46475200 
 18813              	.LASF56:
 18814 09c2 636F6E66 		.ascii	"config\000"
 18814      696700
 18815              	.LASF212:
 18816 09c9 6D757465 		.ascii	"mutex_t\000"
 18816      785F7400 
 18817              	.LASF297:
 18818 09d1 7370695F 		.ascii	"spi_lld_ignore\000"
 18818      6C6C645F 
 18818      69676E6F 
 18818      726500
 18819              	.LASF158:
 18820 09e0 52455345 		.ascii	"RESERVED0\000"
 18820      52564544 
 18820      3000
 18821              	.LASF98:
 18822 09ea 52455345 		.ascii	"RESERVED1\000"
 18822      52564544 
ARM GAS  C:\Users\DEVELO~1\AppData\Local\Temp\ccJK6Gr9.s 			page 340


 18822      3100
 18823              	.LASF102:
 18824 09f4 52455345 		.ascii	"RESERVED2\000"
 18824      52564544 
 18824      3200
 18825              	.LASF111:
 18826 09fe 52455345 		.ascii	"RESERVED3\000"
 18826      52564544 
 18826      3300
 18827              	.LASF116:
 18828 0a08 52455345 		.ascii	"RESERVED4\000"
 18828      52564544 
 18828      3400
 18829              	.LASF133:
 18830 0a12 4433414D 		.ascii	"D3AMR\000"
 18830      5200
 18831              	.LASF7:
 18832 0a18 73686F72 		.ascii	"short int\000"
 18832      7420696E 
 18832      7400
 18833              	.LASF132:
 18834 0a22 52455345 		.ascii	"RESERVED8\000"
 18834      52564544 
 18834      3800
 18835              	.LASF288:
 18836 0a2c 7370695F 		.ascii	"spi_lld_polled_exchange\000"
 18836      6C6C645F 
 18836      706F6C6C 
 18836      65645F65 
 18836      78636861 
 18837              	.LASF149:
 18838 0a44 41504233 		.ascii	"APB3LPENR\000"
 18838      4C50454E 
 18838      5200
 18839              	.LASF141:
 18840 0a4e 41504231 		.ascii	"APB1HENR\000"
 18840      48454E52 
 18840      00
 18841              	.LASF167:
 18842 0a57 706F7274 		.ascii	"port_intctx\000"
 18842      5F696E74 
 18842      63747800 
 18843              	.LASF241:
 18844 0a63 73706973 		.ascii	"spistate_t\000"
 18844      74617465 
 18844      5F7400
 18845              	.LASF161:
 18846 0a6e 43524350 		.ascii	"CRCPOLY\000"
 18846      4F4C5900 
 18847              	.LASF156:
 18848 0a76 43464731 		.ascii	"CFG1\000"
 18848      00
 18849              	.LASF157:
 18850 0a7b 43464732 		.ascii	"CFG2\000"
 18850      00
 18851              	.LASF127:
 18852 0a80 41504233 		.ascii	"APB3RSTR\000"
ARM GAS  C:\Users\DEVELO~1\AppData\Local\Temp\ccJK6Gr9.s 			page 341


 18852      52535452 
 18852      00
 18853              	.LASF336:
 18854 0a89 6F73616C 		.ascii	"osalSysHalt\000"
 18854      53797348 
 18854      616C7400 
 18855              	.LASF286:
 18856 0a95 74786472 		.ascii	"txdrp16\000"
 18856      70313600 
 18857              	.LASF309:
 18858 0a9d 7072696F 		.ascii	"priority\000"
 18858      72697479 
 18858      00
 18859              	.LASF126:
 18860 0aa6 41484234 		.ascii	"AHB4RSTR\000"
 18860      52535452 
 18860      00
 18861              	.LASF164:
 18862 0aaf 55445244 		.ascii	"UDRDR\000"
 18862      5200
 18863              	.LASF227:
 18864 0ab5 4F545950 		.ascii	"OTYPER\000"
 18864      455200
 18865              	.LASF343:
 18866 0abc 5F5F7365 		.ascii	"__set_BASEPRI\000"
 18866      745F4241 
 18866      53455052 
 18866      4900
 18867              	.LASF208:
 18868 0aca 63737461 		.ascii	"cstack_end\000"
 18868      636B5F65 
 18868      6E6400
 18869              	.LASF206:
 18870 0ad5 63685F6F 		.ascii	"ch_os_instance_config\000"
 18870      735F696E 
 18870      7374616E 
 18870      63655F63 
 18870      6F6E6669 
 18871              	.LASF182:
 18872 0aeb 646C6973 		.ascii	"dlist\000"
 18872      7400
 18873              	.LASF89:
 18874 0af1 434D3141 		.ascii	"CM1AR\000"
 18874      5200
 18875              	.LASF250:
 18876 0af7 7478736F 		.ascii	"txsource\000"
 18876      75726365 
 18876      00
 18877              	.LASF183:
 18878 0b00 6C617374 		.ascii	"lasttime\000"
 18878      74696D65 
 18878      00
 18879              	.LASF112:
 18880 0b09 44314343 		.ascii	"D1CCIPR\000"
 18880      49505200 
 18881              	.LASF97:
 18882 0b11 43464752 		.ascii	"CFGR\000"
ARM GAS  C:\Users\DEVELO~1\AppData\Local\Temp\ccJK6Gr9.s 			page 342


 18882      00
 18883              	.LASF51:
 18884 0b16 726C6973 		.ascii	"rlist\000"
 18884      7400
 18885              	.LASF319:
 18886 0b1c 7370695F 		.ascii	"spi_lld_resume\000"
 18886      6C6C645F 
 18886      72657375 
 18886      6D6500
 18887              	.LASF334:
 18888 0b2b 6F73616C 		.ascii	"osalSysUnlockFromISR\000"
 18888      53797355 
 18888      6E6C6F63 
 18888      6B46726F 
 18888      6D495352 
 18889              	.LASF255:
 18890 0b40 64617461 		.ascii	"data_cb\000"
 18890      5F636200 
 18891              	.LASF238:
 18892 0b48 5350495F 		.ascii	"SPI_READY\000"
 18892      52454144 
 18892      5900
 18893              	.LASF272:
 18894 0b52 646D6153 		.ascii	"dmaStreamAllocI\000"
 18894      74726561 
 18894      6D416C6C 
 18894      6F634900 
 18895              	.LASF143:
 18896 0b62 41504234 		.ascii	"APB4ENR\000"
 18896      454E5200 
 18897              	.LASF5:
 18898 0b6a 5F5F7569 		.ascii	"__uint8_t\000"
 18898      6E74385F 
 18898      7400
 18899              	.LASF39:
 18900 0b74 6E616D65 		.ascii	"name\000"
 18900      00
 18901              	.LASF104:
 18902 0b79 504C4C43 		.ascii	"PLLCFGR\000"
 18902      46475200 
 18903              	.LASF103:
 18904 0b81 504C4C43 		.ascii	"PLLCKSELR\000"
 18904      4B53454C 
 18904      5200
 18905              	.LASF84:
 18906 0b8b 4D314152 		.ascii	"M1AR\000"
 18906      00
 18907              	.LASF145:
 18908 0b90 41484233 		.ascii	"AHB3LPENR\000"
 18908      4C50454E 
 18908      5200
 18909              	.LASF312:
 18910 0b9a 7370695F 		.ascii	"spi_lld_serve_interrupt\000"
 18910      6C6C645F 
 18910      73657276 
 18910      655F696E 
 18910      74657272 
ARM GAS  C:\Users\DEVELO~1\AppData\Local\Temp\ccJK6Gr9.s 			page 343


 18911              	.LASF26:
 18912 0bb2 74726566 		.ascii	"trefs_t\000"
 18912      735F7400 
 18913              	.LASF99:
 18914 0bba 44314346 		.ascii	"D1CFGR\000"
 18914      475200
 18915              	.LASF278:
 18916 0bc1 5F5F7472 		.ascii	"__trace_isr_leave\000"
 18916      6163655F 
 18916      6973725F 
 18916      6C656176 
 18916      6500
 18917              	.LASF13:
 18918 0bd3 6C6F6E67 		.ascii	"long unsigned int\000"
 18918      20756E73 
 18918      69676E65 
 18918      6420696E 
 18918      7400
 18919              	.LASF205:
 18920 0be5 72656164 		.ascii	"ready_list_t\000"
 18920      795F6C69 
 18920      73745F74 
 18920      00
 18921              	.LASF75:
 18922 0bf2 72747374 		.ascii	"rtstamp\000"
 18922      616D7000 
 18923              	.LASF237:
 18924 0bfa 5350495F 		.ascii	"SPI_STOP\000"
 18924      53544F50 
 18924      00
 18925              	.LASF137:
 18926 0c03 41484232 		.ascii	"AHB2ENR\000"
 18926      454E5200 
 18927              	.LASF18:
 18928 0c0b 696E7433 		.ascii	"int32_t\000"
 18928      325F7400 
 18929              	.LASF63:
 18930 0c13 72666375 		.ascii	"rfcu_t\000"
 18930      5F7400
 18931              	.LASF188:
 18932 0c1a 71756575 		.ascii	"queue\000"
 18932      6500
 18933              	.LASF59:
 18934 0c20 74726163 		.ascii	"trace_buffer\000"
 18934      655F6275 
 18934      66666572 
 18934      00
 18935              	.LASF198:
 18936 0c2d 77747365 		.ascii	"wtsemp\000"
 18936      6D7000
 18937              	.LASF176:
 18938 0c34 63685F70 		.ascii	"ch_priority_queue\000"
 18938      72696F72 
 18938      6974795F 
 18938      71756575 
 18938      6500
 18939              	.LASF201:
ARM GAS  C:\Users\DEVELO~1\AppData\Local\Temp\ccJK6Gr9.s 			page 344


 18940 0c46 63685F73 		.ascii	"ch_semaphore\000"
 18940      656D6170 
 18940      686F7265 
 18940      00
 18941              	.LASF105:
 18942 0c53 504C4C31 		.ascii	"PLL1DIVR\000"
 18942      44495652 
 18942      00
 18943              	.LASF274:
 18944 0c5c 646D6153 		.ascii	"dmaSetRequestSource\000"
 18944      65745265 
 18944      71756573 
 18944      74536F75 
 18944      72636500 
 18945              	.LASF173:
 18946 0c70 63685F71 		.ascii	"ch_queue\000"
 18946      75657565 
 18946      00
 18947              	.LASF239:
 18948 0c79 5350495F 		.ascii	"SPI_ACTIVE\000"
 18948      41435449 
 18948      564500
 18949              	.LASF74:
 18950 0c84 74797065 		.ascii	"type\000"
 18950      00
 18951              	.LASF339:
 18952 0c89 706F7274 		.ascii	"port_unlock_from_isr\000"
 18952      5F756E6C 
 18952      6F636B5F 
 18952      66726F6D 
 18952      5F697372 
 18953              	.LASF6:
 18954 0c9e 756E7369 		.ascii	"unsigned char\000"
 18954      676E6564 
 18954      20636861 
 18954      7200
 18955              	.LASF96:
 18956 0cac 43534943 		.ascii	"CSICFGR\000"
 18956      46475200 
 18957              	.LASF12:
 18958 0cb4 5F5F7569 		.ascii	"__uint32_t\000"
 18958      6E743332 
 18958      5F7400
 18959              	.LASF43:
 18960 0cbf 77616974 		.ascii	"waiting\000"
 18960      696E6700 
 18961              	.LASF186:
 18962 0cc7 76697274 		.ascii	"virtual_timers_list_t\000"
 18962      75616C5F 
 18962      74696D65 
 18962      72735F6C 
 18962      6973745F 
 18963              	.LASF65:
 18964 0cdd 70616E69 		.ascii	"panic_msg\000"
 18964      635F6D73 
 18964      6700
 18965              	.LASF247:
ARM GAS  C:\Users\DEVELO~1\AppData\Local\Temp\ccJK6Gr9.s 			page 345


 18966 0ce7 7278646D 		.ascii	"rxdmamode\000"
 18966      616D6F64 
 18966      6500
 18967              	.LASF326:
 18968 0cf1 72636345 		.ascii	"rccEnableAPB2\000"
 18968      6E61626C 
 18968      65415042 
 18968      3200
 18969              	.LASF323:
 18970 0cff 72636345 		.ascii	"rccEnableAPB4\000"
 18970      6E61626C 
 18970      65415042 
 18970      3400
 18971              	.LASF134:
 18972 0d0d 52455345 		.ascii	"RESERVED11\000"
 18972      52564544 
 18972      313100
 18973              	.LASF144:
 18974 0d18 52455345 		.ascii	"RESERVED12\000"
 18974      52564544 
 18974      313200
 18975              	.LASF154:
 18976 0d23 52455345 		.ascii	"RESERVED13\000"
 18976      52564544 
 18976      313300
 18977              	.LASF325:
 18978 0d2e 72636344 		.ascii	"rccDisableAPB2\000"
 18978      69736162 
 18978      6C654150 
 18978      423200
 18979              	.LASF322:
 18980 0d3d 72636344 		.ascii	"rccDisableAPB4\000"
 18980      69736162 
 18980      6C654150 
 18980      423400
 18981              	.LASF165:
 18982 0d4c 49325343 		.ascii	"I2SCFGR\000"
 18982      46475200 
 18983              	.LASF58:
 18984 0d54 6D61696E 		.ascii	"mainthread\000"
 18984      74687265 
 18984      616400
 18985              	.LASF36:
 18986 0d5f 73746174 		.ascii	"state\000"
 18986      6500
 18987              	.LASF200:
 18988 0d65 65776D61 		.ascii	"ewmask\000"
 18988      736B00
 18989              	.LASF166:
 18990 0d6c 5350495F 		.ascii	"SPI_TypeDef\000"
 18990      54797065 
 18990      44656600 
 18991              	.LASF269:
 18992 0d78 63685379 		.ascii	"chSysHalt\000"
 18992      7348616C 
 18992      7400
 18993              	.LASF48:
ARM GAS  C:\Users\DEVELO~1\AppData\Local\Temp\ccJK6Gr9.s 			page 346


 18994 0d82 6F735F69 		.ascii	"os_instance_t\000"
 18994      6E737461 
 18994      6E63655F 
 18994      7400
 18995              	.LASF20:
 18996 0d90 75696E74 		.ascii	"uint64_t\000"
 18996      36345F74 
 18996      00
 18997              	.LASF242:
 18998 0d99 53504944 		.ascii	"SPIDriver\000"
 18998      72697665 
 18998      7200
 18999              	.LASF53:
 19000 0da3 7265676C 		.ascii	"reglist\000"
 19000      69737400 
 19001              	.LASF87:
 19002 0dab 43504152 		.ascii	"CPAR\000"
 19002      00
 19003              	.LASF115:
 19004 0db0 44334343 		.ascii	"D3CCIPR\000"
 19004      49505200 
 19005              	.LASF281:
 19006 0db8 6672616D 		.ascii	"frame\000"
 19006      6500
 19007              	.LASF329:
 19008 0dbe 72636345 		.ascii	"rccEnableAPB1L\000"
 19008      6E61626C 
 19008      65415042 
 19008      314C00
 19009              	.LASF3:
 19010 0dcd 7369676E 		.ascii	"signed char\000"
 19010      65642063 
 19010      68617200 
 19011              	.LASF293:
 19012 0dd9 7370695F 		.ascii	"spi_lld_send\000"
 19012      6C6C645F 
 19012      73656E64 
 19012      00
 19013              	.LASF180:
 19014 0de6 64656C74 		.ascii	"delta\000"
 19014      6100
 19015              	.LASF88:
 19016 0dec 434D3041 		.ascii	"CM0AR\000"
 19016      5200
 19017              	.LASF346:
 19018 0df2 2E2E2F2E 		.ascii	"../../../os/hal/ports/STM32/LLD/SPIv3/hal_spi_v2_ll"
 19018      2E2F2E2E 
 19018      2F6F732F 
 19018      68616C2F 
 19018      706F7274 
 19019 0e25 642E6300 		.ascii	"d.c\000"
 19020              	.LASF9:
 19021 0e29 73686F72 		.ascii	"short unsigned int\000"
 19021      7420756E 
 19021      7369676E 
 19021      65642069 
 19021      6E7400
ARM GAS  C:\Users\DEVELO~1\AppData\Local\Temp\ccJK6Gr9.s 			page 347


 19022              	.LASF91:
 19023 0e3c 49464352 		.ascii	"IFCR\000"
 19023      00
 19024              	.LASF244:
 19025 0e41 73796E63 		.ascii	"sync_transfer\000"
 19025      5F747261 
 19025      6E736665 
 19025      7200
 19026              	.LASF204:
 19027 0e4f 63757272 		.ascii	"current\000"
 19027      656E7400 
 19028              	.LASF295:
 19029 0e57 5F5F6675 		.ascii	"__func__\000"
 19029      6E635F5F 
 19029      00
 19030              	.LASF299:
 19031 0e60 7370695F 		.ascii	"spi_lld_stop\000"
 19031      6C6C645F 
 19031      73746F70 
 19031      00
 19032              	.LASF333:
 19033 0e6d 6F73616C 		.ascii	"osalThreadResumeI\000"
 19033      54687265 
 19033      61645265 
 19033      73756D65 
 19033      4900
 19034              	.LASF341:
 19035 0e7f 706F7274 		.ascii	"port_unlock\000"
 19035      5F756E6C 
 19035      6F636B00 
 19036              	.LASF259:
 19037 0e8b 63666731 		.ascii	"cfg1\000"
 19037      00
 19038              	.LASF260:
 19039 0e90 63666732 		.ascii	"cfg2\000"
 19039      00
 19040              	.LASF246:
 19041 0e95 69735F62 		.ascii	"is_bdma\000"
 19041      646D6100 
 19042              	.LASF138:
 19043 0e9d 41484234 		.ascii	"AHB4ENR\000"
 19043      454E5200 
 19044              	.LASF120:
 19045 0ea5 52455345 		.ascii	"RESERVED5\000"
 19045      52564544 
 19045      3500
 19046              	.LASF122:
 19047 0eaf 52455345 		.ascii	"RESERVED6\000"
 19047      52564544 
 19047      3600
 19048              	.LASF279:
 19049 0eb9 5F5F7472 		.ascii	"__trace_isr_enter\000"
 19049      6163655F 
 19049      6973725F 
 19049      656E7465 
 19049      7200
 19050              	.LASF308:
ARM GAS  C:\Users\DEVELO~1\AppData\Local\Temp\ccJK6Gr9.s 			page 348


 19051 0ecb 74787374 		.ascii	"txstream\000"
 19051      7265616D 
 19051      00
 19052              	.LASF224:
 19053 0ed4 73746D33 		.ascii	"stm32_bdma_stream_t\000"
 19053      325F6264 
 19053      6D615F73 
 19053      74726561 
 19053      6D5F7400 
 19054              	.LASF275:
 19055 0ee8 6E766963 		.ascii	"nvicEnableVector\000"
 19055      456E6162 
 19055      6C655665 
 19055      63746F72 
 19055      00
 19056              	.LASF151:
 19057 0ef9 41504231 		.ascii	"APB1HLPENR\000"
 19057      484C5045 
 19057      4E5200
 19058              	.LASF196:
 19059 0f04 77747472 		.ascii	"wttrp\000"
 19059      7000
 19060              	.LASF285:
 19061 0f0a 72786472 		.ascii	"rxdrp8\000"
 19061      703800
 19062              	.LASF249:
 19063 0f11 72787369 		.ascii	"rxsink\000"
 19063      6E6B00
 19064              	.LASF240:
 19065 0f18 5350495F 		.ascii	"SPI_COMPLETE\000"
 19065      434F4D50 
 19065      4C455445 
 19065      00
 19066              	.LASF195:
 19067 0f25 65786974 		.ascii	"exitcode\000"
 19067      636F6465 
 19067      00
 19068              	.LASF218:
 19069 0f2e 73656C66 		.ascii	"selfindex\000"
 19069      696E6465 
 19069      7800
 19070              	.LASF313:
 19071 0f38 7370695F 		.ascii	"spi_lld_serve_dma_tx_interrupt\000"
 19071      6C6C645F 
 19071      73657276 
 19071      655F646D 
 19071      615F7478 
 19072              	.LASF280:
 19073 0f57 73706970 		.ascii	"spip\000"
 19073      00
 19074              	.LASF31:
 19075 0f5c 636F7265 		.ascii	"core_id_t\000"
 19075      5F69645F 
 19075      7400
 19076              	.LASF292:
 19077 0f66 72786275 		.ascii	"rxbuf\000"
 19077      6600
ARM GAS  C:\Users\DEVELO~1\AppData\Local\Temp\ccJK6Gr9.s 			page 349


 19078              	.LASF215:
 19079 0f6c 73747265 		.ascii	"stream\000"
 19079      616D00
 19080              	.LASF258:
 19081 0f73 73737061 		.ascii	"sspad\000"
 19081      6400
 19082              		.ident	"GCC: (Arm GNU Toolchain 11.3.Rel1) 11.3.1 20220712"
ARM GAS  C:\Users\DEVELO~1\AppData\Local\Temp\ccJK6Gr9.s 			page 350


DEFINED SYMBOLS
                            *ABS*:00000000 hal_spi_v2_lld.c
C:\Users\DEVELO~1\AppData\Local\Temp\ccJK6Gr9.s:19     .text.spi_lld_configure.isra.0:00000000 $t
C:\Users\DEVELO~1\AppData\Local\Temp\ccJK6Gr9.s:25     .text.spi_lld_configure.isra.0:00000000 spi_lld_configure.isra.0
C:\Users\DEVELO~1\AppData\Local\Temp\ccJK6Gr9.s:113    .text.spi_lld_configure.isra.0:00000050 $d
C:\Users\DEVELO~1\AppData\Local\Temp\ccJK6Gr9.s:119    .text.spi_lld_stop_abort:00000000 $t
C:\Users\DEVELO~1\AppData\Local\Temp\ccJK6Gr9.s:125    .text.spi_lld_stop_abort:00000000 spi_lld_stop_abort
C:\Users\DEVELO~1\AppData\Local\Temp\ccJK6Gr9.s:589    .text.spi_lld_stop_abort:00000184 $d
C:\Users\DEVELO~1\AppData\Local\Temp\ccJK6Gr9.s:600    .text.spi_lld_stop_nicely:00000000 $t
C:\Users\DEVELO~1\AppData\Local\Temp\ccJK6Gr9.s:606    .text.spi_lld_stop_nicely:00000000 spi_lld_stop_nicely
C:\Users\DEVELO~1\AppData\Local\Temp\ccJK6Gr9.s:784    .rodata.spi_lld_serve_dma_tx_interrupt.part.0.str1.4:00000000 $d
C:\Users\DEVELO~1\AppData\Local\Temp\ccJK6Gr9.s:788    .text.spi_lld_serve_dma_tx_interrupt.part.0:00000000 $t
C:\Users\DEVELO~1\AppData\Local\Temp\ccJK6Gr9.s:794    .text.spi_lld_serve_dma_tx_interrupt.part.0:00000000 spi_lld_serve_dma_tx_interrupt.part.0
C:\Users\DEVELO~1\AppData\Local\Temp\ccJK6Gr9.s:946    .text.spi_lld_serve_dma_tx_interrupt.part.0:00000034 $d
C:\Users\DEVELO~1\AppData\Local\Temp\ccJK6Gr9.s:794    .text.spi_lld_serve_dma_tx_interrupt.part.0:00000000 spi_lld_serve_bdma_tx_interrupt.part.0
C:\Users\DEVELO~1\AppData\Local\Temp\ccJK6Gr9.s:952    .text.spi_lld_serve_bdma_tx_interrupt:00000000 $t
C:\Users\DEVELO~1\AppData\Local\Temp\ccJK6Gr9.s:958    .text.spi_lld_serve_bdma_tx_interrupt:00000000 spi_lld_serve_bdma_tx_interrupt
C:\Users\DEVELO~1\AppData\Local\Temp\ccJK6Gr9.s:980    .text.spi_lld_serve_dma_tx_interrupt:00000000 $t
C:\Users\DEVELO~1\AppData\Local\Temp\ccJK6Gr9.s:986    .text.spi_lld_serve_dma_tx_interrupt:00000000 spi_lld_serve_dma_tx_interrupt
C:\Users\DEVELO~1\AppData\Local\Temp\ccJK6Gr9.s:1008   .text.spi_lld_serve_dma_rx_interrupt:00000000 $t
C:\Users\DEVELO~1\AppData\Local\Temp\ccJK6Gr9.s:1014   .text.spi_lld_serve_dma_rx_interrupt:00000000 spi_lld_serve_dma_rx_interrupt
C:\Users\DEVELO~1\AppData\Local\Temp\ccJK6Gr9.s:1345   .text.spi_lld_serve_dma_rx_interrupt:000000a4 $d
C:\Users\DEVELO~1\AppData\Local\Temp\ccJK6Gr9.s:1350   .text.spi_lld_serve_bdma_rx_interrupt:00000000 $t
C:\Users\DEVELO~1\AppData\Local\Temp\ccJK6Gr9.s:1356   .text.spi_lld_serve_bdma_rx_interrupt:00000000 spi_lld_serve_bdma_rx_interrupt
C:\Users\DEVELO~1\AppData\Local\Temp\ccJK6Gr9.s:1689   .text.spi_lld_serve_bdma_rx_interrupt:000000a4 $d
C:\Users\DEVELO~1\AppData\Local\Temp\ccJK6Gr9.s:1694   .text.VectorCC:00000000 $t
C:\Users\DEVELO~1\AppData\Local\Temp\ccJK6Gr9.s:1701   .text.VectorCC:00000000 VectorCC
C:\Users\DEVELO~1\AppData\Local\Temp\ccJK6Gr9.s:1917   .text.VectorCC:0000005c $d
C:\Users\DEVELO~1\AppData\Local\Temp\ccJK6Gr9.s:1924   .text.VectorD0:00000000 $t
C:\Users\DEVELO~1\AppData\Local\Temp\ccJK6Gr9.s:1931   .text.VectorD0:00000000 VectorD0
C:\Users\DEVELO~1\AppData\Local\Temp\ccJK6Gr9.s:2147   .text.VectorD0:0000005c $d
C:\Users\DEVELO~1\AppData\Local\Temp\ccJK6Gr9.s:2154   .text.Vector10C:00000000 $t
C:\Users\DEVELO~1\AppData\Local\Temp\ccJK6Gr9.s:2161   .text.Vector10C:00000000 Vector10C
C:\Users\DEVELO~1\AppData\Local\Temp\ccJK6Gr9.s:2377   .text.Vector10C:0000005c $d
C:\Users\DEVELO~1\AppData\Local\Temp\ccJK6Gr9.s:2384   .text.Vector190:00000000 $t
C:\Users\DEVELO~1\AppData\Local\Temp\ccJK6Gr9.s:2391   .text.Vector190:00000000 Vector190
C:\Users\DEVELO~1\AppData\Local\Temp\ccJK6Gr9.s:2607   .text.Vector190:0000005c $d
C:\Users\DEVELO~1\AppData\Local\Temp\ccJK6Gr9.s:2614   .text.Vector194:00000000 $t
C:\Users\DEVELO~1\AppData\Local\Temp\ccJK6Gr9.s:2621   .text.Vector194:00000000 Vector194
C:\Users\DEVELO~1\AppData\Local\Temp\ccJK6Gr9.s:2837   .text.Vector194:0000005c $d
C:\Users\DEVELO~1\AppData\Local\Temp\ccJK6Gr9.s:2844   .text.Vector198:00000000 $t
C:\Users\DEVELO~1\AppData\Local\Temp\ccJK6Gr9.s:2851   .text.Vector198:00000000 Vector198
C:\Users\DEVELO~1\AppData\Local\Temp\ccJK6Gr9.s:3067   .text.Vector198:0000005c $d
C:\Users\DEVELO~1\AppData\Local\Temp\ccJK6Gr9.s:3074   .text.spi_lld_init:00000000 $t
C:\Users\DEVELO~1\AppData\Local\Temp\ccJK6Gr9.s:3081   .text.spi_lld_init:00000000 spi_lld_init
C:\Users\DEVELO~1\AppData\Local\Temp\ccJK6Gr9.s:3304   .text.spi_lld_init:000000dc $d
C:\Users\DEVELO~1\AppData\Local\Temp\ccJK6Gr9.s:3322   .text.spi_lld_start:00000000 $t
C:\Users\DEVELO~1\AppData\Local\Temp\ccJK6Gr9.s:3329   .text.spi_lld_start:00000000 spi_lld_start
C:\Users\DEVELO~1\AppData\Local\Temp\ccJK6Gr9.s:4140   .text.spi_lld_start:00000374 $d
C:\Users\DEVELO~1\AppData\Local\Temp\ccJK6Gr9.s:4163   .text.spi_lld_start:000003a0 $t
C:\Users\DEVELO~1\AppData\Local\Temp\ccJK6Gr9.s:4313   .text.spi_lld_start:0000042c $d
C:\Users\DEVELO~1\AppData\Local\Temp\ccJK6Gr9.s:4320   .text.spi_lld_stop:00000000 $t
C:\Users\DEVELO~1\AppData\Local\Temp\ccJK6Gr9.s:4327   .text.spi_lld_stop:00000000 spi_lld_stop
C:\Users\DEVELO~1\AppData\Local\Temp\ccJK6Gr9.s:4559   .text.spi_lld_stop:00000114 $d
C:\Users\DEVELO~1\AppData\Local\Temp\ccJK6Gr9.s:4570   .text.spi_lld_ignore:00000000 $t
C:\Users\DEVELO~1\AppData\Local\Temp\ccJK6Gr9.s:4577   .text.spi_lld_ignore:00000000 spi_lld_ignore
C:\Users\DEVELO~1\AppData\Local\Temp\ccJK6Gr9.s:4708   .text.spi_lld_exchange:00000000 $t
ARM GAS  C:\Users\DEVELO~1\AppData\Local\Temp\ccJK6Gr9.s 			page 351


C:\Users\DEVELO~1\AppData\Local\Temp\ccJK6Gr9.s:4715   .text.spi_lld_exchange:00000000 spi_lld_exchange
C:\Users\DEVELO~1\AppData\Local\Temp\ccJK6Gr9.s:4865   .text.spi_lld_send:00000000 $t
C:\Users\DEVELO~1\AppData\Local\Temp\ccJK6Gr9.s:4872   .text.spi_lld_send:00000000 spi_lld_send
C:\Users\DEVELO~1\AppData\Local\Temp\ccJK6Gr9.s:5019   .text.spi_lld_receive:00000000 $t
C:\Users\DEVELO~1\AppData\Local\Temp\ccJK6Gr9.s:5026   .text.spi_lld_receive:00000000 spi_lld_receive
C:\Users\DEVELO~1\AppData\Local\Temp\ccJK6Gr9.s:5172   .text.spi_lld_stop_transfer:00000000 $t
C:\Users\DEVELO~1\AppData\Local\Temp\ccJK6Gr9.s:5179   .text.spi_lld_stop_transfer:00000000 spi_lld_stop_transfer
C:\Users\DEVELO~1\AppData\Local\Temp\ccJK6Gr9.s:5235   .text.spi_lld_polled_exchange:00000000 $t
C:\Users\DEVELO~1\AppData\Local\Temp\ccJK6Gr9.s:5242   .text.spi_lld_polled_exchange:00000000 spi_lld_polled_exchange
C:\Users\DEVELO~1\AppData\Local\Temp\ccJK6Gr9.s:5510   .bss.SPID6:00000000 SPID6
C:\Users\DEVELO~1\AppData\Local\Temp\ccJK6Gr9.s:5503   .bss.SPID5:00000000 SPID5
C:\Users\DEVELO~1\AppData\Local\Temp\ccJK6Gr9.s:5496   .bss.SPID4:00000000 SPID4
C:\Users\DEVELO~1\AppData\Local\Temp\ccJK6Gr9.s:5489   .bss.SPID3:00000000 SPID3
C:\Users\DEVELO~1\AppData\Local\Temp\ccJK6Gr9.s:5482   .bss.SPID2:00000000 SPID2
C:\Users\DEVELO~1\AppData\Local\Temp\ccJK6Gr9.s:5475   .bss.SPID1:00000000 SPID1
C:\Users\DEVELO~1\AppData\Local\Temp\ccJK6Gr9.s:5471   .bss.SPID1:00000000 $d
C:\Users\DEVELO~1\AppData\Local\Temp\ccJK6Gr9.s:5478   .bss.SPID2:00000000 $d
C:\Users\DEVELO~1\AppData\Local\Temp\ccJK6Gr9.s:5485   .bss.SPID3:00000000 $d
C:\Users\DEVELO~1\AppData\Local\Temp\ccJK6Gr9.s:5492   .bss.SPID4:00000000 $d
C:\Users\DEVELO~1\AppData\Local\Temp\ccJK6Gr9.s:5499   .bss.SPID5:00000000 $d
C:\Users\DEVELO~1\AppData\Local\Temp\ccJK6Gr9.s:5506   .bss.SPID6:00000000 $d
C:\Users\DEVELO~1\AppData\Local\Temp\ccJK6Gr9.s:5513   .rodata.__func__.0:00000000 $d
C:\Users\DEVELO~1\AppData\Local\Temp\ccJK6Gr9.s:5517   .rodata.__func__.0:00000000 __func__.0
C:\Users\DEVELO~1\AppData\Local\Temp\ccJK6Gr9.s:5520   .rodata.__func__.1:00000000 $d
C:\Users\DEVELO~1\AppData\Local\Temp\ccJK6Gr9.s:5524   .rodata.__func__.1:00000000 __func__.1
C:\Users\DEVELO~1\AppData\Local\Temp\ccJK6Gr9.s:5527   .rodata.__func__.2:00000000 $d
C:\Users\DEVELO~1\AppData\Local\Temp\ccJK6Gr9.s:5531   .rodata.__func__.2:00000000 __func__.2
C:\Users\DEVELO~1\AppData\Local\Temp\ccJK6Gr9.s:5534   .rodata.__func__.3:00000000 $d
C:\Users\DEVELO~1\AppData\Local\Temp\ccJK6Gr9.s:5538   .rodata.__func__.3:00000000 __func__.3
C:\Users\DEVELO~1\AppData\Local\Temp\ccJK6Gr9.s:5541   .rodata.__func__.4:00000000 $d
C:\Users\DEVELO~1\AppData\Local\Temp\ccJK6Gr9.s:5545   .rodata.__func__.4:00000000 __func__.4
C:\Users\DEVELO~1\AppData\Local\Temp\ccJK6Gr9.s:5548   .rodata.__func__.5:00000000 $d
C:\Users\DEVELO~1\AppData\Local\Temp\ccJK6Gr9.s:5552   .rodata.__func__.5:00000000 __func__.5

UNDEFINED SYMBOLS
chSysHalt
chThdResumeI
__trace_isr_enter
__trace_isr_leave
__port_irq_epilogue
spiObjectInit
nvicEnableVector
bdmaStreamAllocI
bdmaSetRequestSource
dmaStreamAllocI
dmaSetRequestSource
bdmaStreamFreeI
dmaStreamFreeI
