ARM GAS  C:\Users\DEVELO~1\AppData\Local\Temp\ccjuHd8c.s 			page 1


   1              		.cpu cortex-m7
   2              		.arch armv7e-m
   3              		.fpu fpv5-d16
   4              		.eabi_attribute 28, 1
   5              		.eabi_attribute 20, 1
   6              		.eabi_attribute 21, 1
   7              		.eabi_attribute 23, 3
   8              		.eabi_attribute 24, 1
   9              		.eabi_attribute 25, 1
  10              		.eabi_attribute 26, 1
  11              		.eabi_attribute 30, 2
  12              		.eabi_attribute 34, 1
  13              		.eabi_attribute 18, 4
  14              		.file	"hal_pwm.c"
  15              		.text
  16              	.Ltext0:
  17              		.cfi_sections	.debug_frame
  18              		.section	.text.pwmInit,"ax",%progbits
  19              		.align	1
  20              		.p2align 2,,3
  21              		.global	pwmInit
  22              		.syntax unified
  23              		.thumb
  24              		.thumb_func
  25              		.type	pwmInit, %function
  26              	pwmInit:
  27              	.LFB448:
  28              		.file 1 "./docs/ChibiOS/os/hal/src/hal_pwm.c"
  29              		.loc 1 56 20 view -0
  30              		.cfi_startproc
  31              		@ args = 0, pretend = 0, frame = 0
  32              		@ frame_needed = 0, uses_anonymous_args = 0
  33              		@ link register save eliminated.
  34              		.loc 1 58 3 view .LVU1
  35 0000 FFF7FEBF 		b	pwm_lld_init
  36              	.LVL0:
  37              		.cfi_endproc
  38              	.LFE448:
  39              		.size	pwmInit, .-pwmInit
  40              		.section	.text.pwmObjectInit,"ax",%progbits
  41              		.align	1
  42              		.p2align 2,,3
  43              		.global	pwmObjectInit
  44              		.syntax unified
  45              		.thumb
  46              		.thumb_func
  47              		.type	pwmObjectInit, %function
  48              	pwmObjectInit:
  49              	.LVL1:
  50              	.LFB449:
  51              		.loc 1 68 37 view -0
  52              		.cfi_startproc
  53              		@ args = 0, pretend = 0, frame = 0
  54              		@ frame_needed = 0, uses_anonymous_args = 0
  55              		@ link register save eliminated.
  56              		.loc 1 70 3 view .LVU3
  57              		.loc 1 71 18 is_stmt 0 view .LVU4
ARM GAS  C:\Users\DEVELO~1\AppData\Local\Temp\ccjuHd8c.s 			page 2


  58 0000 0023     		movs	r3, #0
  59              		.loc 1 70 18 view .LVU5
  60 0002 0122     		movs	r2, #1
  61              		.loc 1 71 18 view .LVU6
  62 0004 4360     		str	r3, [r0, #4]
  63              		.loc 1 70 18 view .LVU7
  64 0006 0270     		strb	r2, [r0]
  65              		.loc 1 71 3 is_stmt 1 view .LVU8
  66              		.loc 1 72 3 view .LVU9
  67              		.loc 1 72 18 is_stmt 0 view .LVU10
  68 0008 C360     		str	r3, [r0, #12]
  69              		.loc 1 73 3 is_stmt 1 view .LVU11
  70              		.loc 1 73 18 is_stmt 0 view .LVU12
  71 000a 0374     		strb	r3, [r0, #16]
  72              		.loc 1 77 1 view .LVU13
  73 000c 7047     		bx	lr
  74              		.cfi_endproc
  75              	.LFE449:
  76              		.size	pwmObjectInit, .-pwmObjectInit
  77 000e 00BF     		.section	.text.pwmStart,"ax",%progbits
  78              		.align	1
  79              		.p2align 2,,3
  80              		.global	pwmStart
  81              		.syntax unified
  82              		.thumb
  83              		.thumb_func
  84              		.type	pwmStart, %function
  85              	pwmStart:
  86              	.LVL2:
  87              	.LFB450:
  88              		.loc 1 90 58 is_stmt 1 view -0
  89              		.cfi_startproc
  90              		@ args = 0, pretend = 0, frame = 0
  91              		@ frame_needed = 0, uses_anonymous_args = 0
  92              		.loc 1 91 3 view .LVU15
  93              		.loc 1 93 3 view .LVU16
  94              		.loc 1 93 3 view .LVU17
  95              		.loc 1 93 3 view .LVU18
  96              		.loc 1 95 3 view .LVU19
  97              	.LBB141:
  98              	.LBI141:
  99              		.file 2 "./docs/ChibiOS/os/hal/osal/rt-nil/osal.h"
 100              		.loc 2 573 20 view .LVU20
 101              		.loc 2 575 3 view .LVU21
 102              	.LBB142:
 103              	.LBI142:
 104              		.file 3 "./docs/ChibiOS/os/rt/include/chsys.h"
 105              		.loc 3 372 20 view .LVU22
 106              		.loc 3 374 3 view .LVU23
 107              	.LBB143:
 108              	.LBI143:
 109              		.file 4 "./docs/ChibiOS/os/common/ports/ARMv7-M/chcore.h"
 110              		.loc 4 840 27 view .LVU24
 111              		.loc 4 848 3 view .LVU25
 112              	.LBB144:
 113              	.LBI144:
 114              		.file 5 "./docs/ChibiOS/os/common/ext/ARM/CMSIS/Core/Include/cmsis_gcc.h"
ARM GAS  C:\Users\DEVELO~1\AppData\Local\Temp\ccjuHd8c.s 			page 3


 115              		.loc 5 491 27 view .LVU26
 116              	.LBB145:
 117              		.loc 5 493 3 view .LVU27
 118              	.LBE145:
 119              	.LBE144:
 120              	.LBE143:
 121              	.LBE142:
 122              	.LBE141:
 123              		.loc 1 90 58 is_stmt 0 view .LVU28
 124 0000 38B5     		push	{r3, r4, r5, lr}
 125              		.cfi_def_cfa_offset 16
 126              		.cfi_offset 3, -16
 127              		.cfi_offset 4, -12
 128              		.cfi_offset 5, -8
 129              		.cfi_offset 14, -4
 130              	.LBB154:
 131              	.LBB152:
 132              	.LBB150:
 133              	.LBB148:
 134              	.LBB146:
 135              		.loc 5 493 3 view .LVU29
 136 0002 3023     		movs	r3, #48
 137              	.LBE146:
 138              	.LBE148:
 139              	.LBE150:
 140              	.LBE152:
 141              	.LBE154:
 142              		.loc 1 90 58 view .LVU30
 143 0004 0446     		mov	r4, r0
 144              	.LBB155:
 145              	.LBB153:
 146              	.LBB151:
 147              	.LBB149:
 148              	.LBB147:
 149              		.loc 5 493 3 view .LVU31
 150              		.syntax unified
 151              	@ 493 "./docs/ChibiOS/os/common/ext/ARM/CMSIS/Core/Include/cmsis_gcc.h" 1
 152 0006 83F31188 		MSR basepri, r3
 153              	@ 0 "" 2
 154              	.LVL3:
 155              		.loc 5 493 3 view .LVU32
 156              		.thumb
 157              		.syntax unified
 158              	.LBE147:
 159              	.LBE149:
 160              	.LBE151:
 161              		.loc 3 375 35 is_stmt 1 view .LVU33
 162              		.loc 3 376 21 view .LVU34
 163              	.LBE153:
 164              	.LBE155:
 165              		.loc 1 96 3 view .LVU35
 166              		.loc 1 96 3 view .LVU36
 167              		.loc 1 96 3 view .LVU37
 168              		.loc 1 99 3 view .LVU38
 169              		.loc 1 101 17 is_stmt 0 view .LVU39
 170 000a 0025     		movs	r5, #0
 171              		.loc 1 100 16 view .LVU40
ARM GAS  C:\Users\DEVELO~1\AppData\Local\Temp\ccjuHd8c.s 			page 4


 172 000c 4B68     		ldr	r3, [r1, #4]
 173              		.loc 1 101 17 view .LVU41
 174 000e C560     		str	r5, [r0, #12]
 175              		.loc 1 100 16 view .LVU42
 176 0010 C0E90113 		strd	r1, r3, [r0, #4]
 177              		.loc 1 101 3 is_stmt 1 view .LVU43
 178              		.loc 1 112 3 view .LVU44
 179 0014 FFF7FEFF 		bl	pwm_lld_start
 180              	.LVL4:
 181              		.loc 1 113 3 view .LVU45
 182              		.loc 1 113 15 is_stmt 0 view .LVU46
 183 0018 0223     		movs	r3, #2
 184 001a 2370     		strb	r3, [r4]
 185              		.loc 1 114 3 is_stmt 1 view .LVU47
 186              	.LVL5:
 187              		.loc 1 117 3 view .LVU48
 188              	.LBB156:
 189              	.LBI156:
 190              		.loc 2 584 20 view .LVU49
 191              		.loc 2 586 3 view .LVU50
 192              	.LBB157:
 193              	.LBI157:
 194              		.loc 3 386 20 view .LVU51
 195              	.LBB158:
 196              		.loc 3 388 23 view .LVU52
 197              		.loc 3 389 34 view .LVU53
 198              		.loc 3 395 3 view .LVU54
 199              		.loc 3 395 3 view .LVU55
 200              		.loc 3 395 3 view .LVU56
 201              		.loc 3 399 3 view .LVU57
 202              	.LBB159:
 203              	.LBI159:
 204              		.loc 4 864 27 view .LVU58
 205              		.loc 4 867 3 view .LVU59
 206              	.LBB160:
 207              	.LBI160:
 208              		.loc 5 491 27 view .LVU60
 209              	.LBB161:
 210              		.loc 5 493 3 view .LVU61
 211              		.syntax unified
 212              	@ 493 "./docs/ChibiOS/os/common/ext/ARM/CMSIS/Core/Include/cmsis_gcc.h" 1
 213 001c 85F31188 		MSR basepri, r5
 214              	@ 0 "" 2
 215              	.LVL6:
 216              		.loc 5 493 3 is_stmt 0 view .LVU62
 217              		.thumb
 218              		.syntax unified
 219              	.LBE161:
 220              	.LBE160:
 221              	.LBE159:
 222              	.LBE158:
 223              	.LBE157:
 224              	.LBE156:
 225              		.loc 1 119 3 is_stmt 1 view .LVU63
 226              		.loc 1 120 1 is_stmt 0 view .LVU64
 227 0020 2846     		mov	r0, r5
 228 0022 38BD     		pop	{r3, r4, r5, pc}
ARM GAS  C:\Users\DEVELO~1\AppData\Local\Temp\ccjuHd8c.s 			page 5


 229              		.loc 1 120 1 view .LVU65
 230              		.cfi_endproc
 231              	.LFE450:
 232              		.size	pwmStart, .-pwmStart
 233              		.section	.text.pwmStop,"ax",%progbits
 234              		.align	1
 235              		.p2align 2,,3
 236              		.global	pwmStop
 237              		.syntax unified
 238              		.thumb
 239              		.thumb_func
 240              		.type	pwmStop, %function
 241              	pwmStop:
 242              	.LVL7:
 243              	.LFB451:
 244              		.loc 1 129 31 is_stmt 1 view -0
 245              		.cfi_startproc
 246              		@ args = 0, pretend = 0, frame = 0
 247              		@ frame_needed = 0, uses_anonymous_args = 0
 248              		.loc 1 131 3 view .LVU67
 249              		.loc 1 131 3 view .LVU68
 250              		.loc 1 131 3 view .LVU69
 251              		.loc 1 133 3 view .LVU70
 252              	.LBB162:
 253              	.LBI162:
 254              		.loc 2 573 20 view .LVU71
 255              		.loc 2 575 3 view .LVU72
 256              	.LBB163:
 257              	.LBI163:
 258              		.loc 3 372 20 view .LVU73
 259              		.loc 3 374 3 view .LVU74
 260              	.LBB164:
 261              	.LBI164:
 262              		.loc 4 840 27 view .LVU75
 263              		.loc 4 848 3 view .LVU76
 264              	.LBB165:
 265              	.LBI165:
 266              		.loc 5 491 27 view .LVU77
 267              	.LBB166:
 268              		.loc 5 493 3 view .LVU78
 269              	.LBE166:
 270              	.LBE165:
 271              	.LBE164:
 272              	.LBE163:
 273              	.LBE162:
 274              		.loc 1 129 31 is_stmt 0 view .LVU79
 275 0000 10B5     		push	{r4, lr}
 276              		.cfi_def_cfa_offset 8
 277              		.cfi_offset 4, -8
 278              		.cfi_offset 14, -4
 279              	.LBB175:
 280              	.LBB173:
 281              	.LBB171:
 282              	.LBB169:
 283              	.LBB167:
 284              		.loc 5 493 3 view .LVU80
 285 0002 3023     		movs	r3, #48
ARM GAS  C:\Users\DEVELO~1\AppData\Local\Temp\ccjuHd8c.s 			page 6


 286              	.LBE167:
 287              	.LBE169:
 288              	.LBE171:
 289              	.LBE173:
 290              	.LBE175:
 291              		.loc 1 129 31 view .LVU81
 292 0004 0446     		mov	r4, r0
 293              	.LBB176:
 294              	.LBB174:
 295              	.LBB172:
 296              	.LBB170:
 297              	.LBB168:
 298              		.loc 5 493 3 view .LVU82
 299              		.syntax unified
 300              	@ 493 "./docs/ChibiOS/os/common/ext/ARM/CMSIS/Core/Include/cmsis_gcc.h" 1
 301 0006 83F31188 		MSR basepri, r3
 302              	@ 0 "" 2
 303              	.LVL8:
 304              		.loc 5 493 3 view .LVU83
 305              		.thumb
 306              		.syntax unified
 307              	.LBE168:
 308              	.LBE170:
 309              	.LBE172:
 310              		.loc 3 375 35 is_stmt 1 view .LVU84
 311              		.loc 3 376 21 view .LVU85
 312              	.LBE174:
 313              	.LBE176:
 314              		.loc 1 135 3 view .LVU86
 315              		.loc 1 135 3 view .LVU87
 316              		.loc 1 135 3 view .LVU88
 317              		.loc 1 138 3 view .LVU89
 318 000a FFF7FEFF 		bl	pwm_lld_stop
 319              	.LVL9:
 320              		.loc 1 139 3 view .LVU90
 321              		.loc 1 139 17 is_stmt 0 view .LVU91
 322 000e 0023     		movs	r3, #0
 323              		.loc 1 141 17 view .LVU92
 324 0010 0122     		movs	r2, #1
 325              		.loc 1 139 17 view .LVU93
 326 0012 E360     		str	r3, [r4, #12]
 327              		.loc 1 140 3 is_stmt 1 view .LVU94
 328              		.loc 1 140 17 is_stmt 0 view .LVU95
 329 0014 6360     		str	r3, [r4, #4]
 330              		.loc 1 141 3 is_stmt 1 view .LVU96
 331              		.loc 1 141 17 is_stmt 0 view .LVU97
 332 0016 2270     		strb	r2, [r4]
 333              		.loc 1 143 3 is_stmt 1 view .LVU98
 334              	.LBB177:
 335              	.LBI177:
 336              		.loc 2 584 20 view .LVU99
 337              		.loc 2 586 3 view .LVU100
 338              	.LBB178:
 339              	.LBI178:
 340              		.loc 3 386 20 view .LVU101
 341              	.LBB179:
 342              		.loc 3 388 23 view .LVU102
ARM GAS  C:\Users\DEVELO~1\AppData\Local\Temp\ccjuHd8c.s 			page 7


 343              		.loc 3 389 34 view .LVU103
 344              		.loc 3 395 3 view .LVU104
 345              		.loc 3 395 3 view .LVU105
 346              		.loc 3 395 3 view .LVU106
 347              		.loc 3 399 3 view .LVU107
 348              	.LBB180:
 349              	.LBI180:
 350              		.loc 4 864 27 view .LVU108
 351              		.loc 4 867 3 view .LVU109
 352              	.LVL10:
 353              	.LBB181:
 354              	.LBI181:
 355              		.loc 5 491 27 view .LVU110
 356              	.LBB182:
 357              		.loc 5 493 3 view .LVU111
 358              		.syntax unified
 359              	@ 493 "./docs/ChibiOS/os/common/ext/ARM/CMSIS/Core/Include/cmsis_gcc.h" 1
 360 0018 83F31188 		MSR basepri, r3
 361              	@ 0 "" 2
 362              	.LVL11:
 363              		.loc 5 493 3 is_stmt 0 view .LVU112
 364              		.thumb
 365              		.syntax unified
 366              	.LBE182:
 367              	.LBE181:
 368              	.LBE180:
 369              	.LBE179:
 370              	.LBE178:
 371              	.LBE177:
 372              		.loc 1 144 1 view .LVU113
 373 001c 10BD     		pop	{r4, pc}
 374              		.loc 1 144 1 view .LVU114
 375              		.cfi_endproc
 376              	.LFE451:
 377              		.size	pwmStop, .-pwmStop
 378 001e 00BF     		.section	.text.pwmChangePeriod,"ax",%progbits
 379              		.align	1
 380              		.p2align 2,,3
 381              		.global	pwmChangePeriod
 382              		.syntax unified
 383              		.thumb
 384              		.thumb_func
 385              		.type	pwmChangePeriod, %function
 386              	pwmChangePeriod:
 387              	.LVL12:
 388              	.LFB452:
 389              		.loc 1 161 56 is_stmt 1 view -0
 390              		.cfi_startproc
 391              		@ args = 0, pretend = 0, frame = 0
 392              		@ frame_needed = 0, uses_anonymous_args = 0
 393              		@ link register save eliminated.
 394              		.loc 1 163 3 view .LVU116
 395              		.loc 1 163 3 view .LVU117
 396              		.loc 1 163 3 view .LVU118
 397              		.loc 1 165 3 view .LVU119
 398              	.LBB183:
 399              	.LBI183:
ARM GAS  C:\Users\DEVELO~1\AppData\Local\Temp\ccjuHd8c.s 			page 8


 400              		.loc 2 573 20 view .LVU120
 401              		.loc 2 575 3 view .LVU121
 402              	.LBB184:
 403              	.LBI184:
 404              		.loc 3 372 20 view .LVU122
 405              		.loc 3 374 3 view .LVU123
 406              	.LBB185:
 407              	.LBI185:
 408              		.loc 4 840 27 view .LVU124
 409              		.loc 4 848 3 view .LVU125
 410              	.LBB186:
 411              	.LBI186:
 412              		.loc 5 491 27 view .LVU126
 413              	.LBB187:
 414              		.loc 5 493 3 view .LVU127
 415              	.LBE187:
 416              	.LBE186:
 417              	.LBE185:
 418              	.LBE184:
 419              	.LBE183:
 420              		.loc 1 161 56 is_stmt 0 view .LVU128
 421 0000 10B4     		push	{r4}
 422              		.cfi_def_cfa_offset 4
 423              		.cfi_offset 4, -4
 424              	.LBB192:
 425              	.LBB191:
 426              	.LBB190:
 427              	.LBB189:
 428              	.LBB188:
 429              		.loc 5 493 3 view .LVU129
 430 0002 3023     		movs	r3, #48
 431              		.syntax unified
 432              	@ 493 "./docs/ChibiOS/os/common/ext/ARM/CMSIS/Core/Include/cmsis_gcc.h" 1
 433 0004 83F31188 		MSR basepri, r3
 434              	@ 0 "" 2
 435              	.LVL13:
 436              		.loc 5 493 3 view .LVU130
 437              		.thumb
 438              		.syntax unified
 439              	.LBE188:
 440              	.LBE189:
 441              	.LBE190:
 442              		.loc 3 375 35 is_stmt 1 view .LVU131
 443              		.loc 3 376 21 view .LVU132
 444              	.LBE191:
 445              	.LBE192:
 446              		.loc 1 166 3 view .LVU133
 447              		.loc 1 166 3 view .LVU134
 448              		.loc 1 166 3 view .LVU135
 449              		.loc 1 167 3 view .LVU136
 450 0008 C269     		ldr	r2, [r0, #28]
 451 000a 4C1E     		subs	r4, r1, #1
 452 000c 8160     		str	r1, [r0, #8]
 453              		.loc 1 167 3 view .LVU137
 454              	.LBB193:
 455              	.LBB194:
 456              	.LBB195:
ARM GAS  C:\Users\DEVELO~1\AppData\Local\Temp\ccjuHd8c.s 			page 9


 457              	.LBB196:
 458              	.LBB197:
 459              	.LBB198:
 460              		.loc 5 493 3 is_stmt 0 view .LVU138
 461 000e 0023     		movs	r3, #0
 462              	.LBE198:
 463              	.LBE197:
 464              	.LBE196:
 465              	.LBE195:
 466              	.LBE194:
 467              	.LBE193:
 468              		.loc 1 167 3 view .LVU139
 469 0010 D462     		str	r4, [r2, #44]
 470              		.loc 1 167 33 is_stmt 1 view .LVU140
 471              		.loc 1 168 3 view .LVU141
 472              	.LBB204:
 473              	.LBI193:
 474              		.loc 2 584 20 view .LVU142
 475              		.loc 2 586 3 view .LVU143
 476              	.LBB203:
 477              	.LBI194:
 478              		.loc 3 386 20 view .LVU144
 479              	.LBB202:
 480              		.loc 3 388 23 view .LVU145
 481              		.loc 3 389 34 view .LVU146
 482              		.loc 3 395 3 view .LVU147
 483              		.loc 3 395 3 view .LVU148
 484              		.loc 3 395 3 view .LVU149
 485              		.loc 3 399 3 view .LVU150
 486              	.LBB201:
 487              	.LBI196:
 488              		.loc 4 864 27 view .LVU151
 489              		.loc 4 867 3 view .LVU152
 490              	.LVL14:
 491              	.LBB200:
 492              	.LBI197:
 493              		.loc 5 491 27 view .LVU153
 494              	.LBB199:
 495              		.loc 5 493 3 view .LVU154
 496              		.syntax unified
 497              	@ 493 "./docs/ChibiOS/os/common/ext/ARM/CMSIS/Core/Include/cmsis_gcc.h" 1
 498 0012 83F31188 		MSR basepri, r3
 499              	@ 0 "" 2
 500              	.LVL15:
 501              		.loc 5 493 3 is_stmt 0 view .LVU155
 502              		.thumb
 503              		.syntax unified
 504              	.LBE199:
 505              	.LBE200:
 506              	.LBE201:
 507              	.LBE202:
 508              	.LBE203:
 509              	.LBE204:
 510              		.loc 1 169 1 view .LVU156
 511 0016 5DF8044B 		ldr	r4, [sp], #4
 512              		.cfi_restore 4
 513              		.cfi_def_cfa_offset 0
ARM GAS  C:\Users\DEVELO~1\AppData\Local\Temp\ccjuHd8c.s 			page 10


 514 001a 7047     		bx	lr
 515              		.cfi_endproc
 516              	.LFE452:
 517              		.size	pwmChangePeriod, .-pwmChangePeriod
 518              		.section	.text.pwmEnableChannel,"ax",%progbits
 519              		.align	1
 520              		.p2align 2,,3
 521              		.global	pwmEnableChannel
 522              		.syntax unified
 523              		.thumb
 524              		.thumb_func
 525              		.type	pwmEnableChannel, %function
 526              	pwmEnableChannel:
 527              	.LVL16:
 528              	.LFB453:
 529              		.loc 1 187 39 is_stmt 1 view -0
 530              		.cfi_startproc
 531              		@ args = 0, pretend = 0, frame = 0
 532              		@ frame_needed = 0, uses_anonymous_args = 0
 533              		.loc 1 189 3 view .LVU158
 534              		.loc 1 189 3 view .LVU159
 535              		.loc 1 189 3 view .LVU160
 536              		.loc 1 191 3 view .LVU161
 537              	.LBB205:
 538              	.LBI205:
 539              		.loc 2 573 20 view .LVU162
 540              		.loc 2 575 3 view .LVU163
 541              	.LBB206:
 542              	.LBI206:
 543              		.loc 3 372 20 view .LVU164
 544              		.loc 3 374 3 view .LVU165
 545              	.LBB207:
 546              	.LBI207:
 547              		.loc 4 840 27 view .LVU166
 548              		.loc 4 848 3 view .LVU167
 549              	.LBB208:
 550              	.LBI208:
 551              		.loc 5 491 27 view .LVU168
 552              	.LBB209:
 553              		.loc 5 493 3 view .LVU169
 554              	.LBE209:
 555              	.LBE208:
 556              	.LBE207:
 557              	.LBE206:
 558              	.LBE205:
 559              		.loc 1 187 39 is_stmt 0 view .LVU170
 560 0000 38B5     		push	{r3, r4, r5, lr}
 561              		.cfi_def_cfa_offset 16
 562              		.cfi_offset 3, -16
 563              		.cfi_offset 4, -12
 564              		.cfi_offset 5, -8
 565              		.cfi_offset 14, -4
 566              	.LBB214:
 567              	.LBB213:
 568              	.LBB212:
 569              	.LBB211:
 570              	.LBB210:
ARM GAS  C:\Users\DEVELO~1\AppData\Local\Temp\ccjuHd8c.s 			page 11


 571              		.loc 5 493 3 view .LVU171
 572 0002 3024     		movs	r4, #48
 573              		.syntax unified
 574              	@ 493 "./docs/ChibiOS/os/common/ext/ARM/CMSIS/Core/Include/cmsis_gcc.h" 1
 575 0004 84F31188 		MSR basepri, r4
 576              	@ 0 "" 2
 577              	.LVL17:
 578              		.loc 5 493 3 view .LVU172
 579              		.thumb
 580              		.syntax unified
 581              	.LBE210:
 582              	.LBE211:
 583              	.LBE212:
 584              		.loc 3 375 35 is_stmt 1 view .LVU173
 585              		.loc 3 376 21 view .LVU174
 586              	.LBE213:
 587              	.LBE214:
 588              		.loc 1 193 3 view .LVU175
 589              		.loc 1 193 3 view .LVU176
 590              		.loc 1 193 3 view .LVU177
 591              		.loc 1 195 3 view .LVU178
 592              		.loc 1 195 3 view .LVU179
 593 0008 0124     		movs	r4, #1
 594 000a C568     		ldr	r5, [r0, #12]
 595 000c 8C40     		lsls	r4, r4, r1
 596 000e 2C43     		orrs	r4, r4, r5
 597 0010 C460     		str	r4, [r0, #12]
 598              		.loc 1 195 3 view .LVU180
 599 0012 FFF7FEFF 		bl	pwm_lld_enable_channel
 600              	.LVL18:
 601              		.loc 1 195 3 view .LVU181
 602              		.loc 1 197 3 view .LVU182
 603              	.LBB215:
 604              	.LBI215:
 605              		.loc 2 584 20 view .LVU183
 606              		.loc 2 586 3 view .LVU184
 607              	.LBB216:
 608              	.LBI216:
 609              		.loc 3 386 20 view .LVU185
 610              	.LBB217:
 611              		.loc 3 388 23 view .LVU186
 612              		.loc 3 389 34 view .LVU187
 613              		.loc 3 395 3 view .LVU188
 614              		.loc 3 395 3 view .LVU189
 615              		.loc 3 395 3 view .LVU190
 616              		.loc 3 399 3 view .LVU191
 617              	.LBB218:
 618              	.LBI218:
 619              		.loc 4 864 27 view .LVU192
 620              		.loc 4 867 3 view .LVU193
 621              	.LBB219:
 622              	.LBI219:
 623              		.loc 5 491 27 view .LVU194
 624              	.LBB220:
 625              		.loc 5 493 3 view .LVU195
 626 0016 0023     		movs	r3, #0
 627              		.syntax unified
ARM GAS  C:\Users\DEVELO~1\AppData\Local\Temp\ccjuHd8c.s 			page 12


 628              	@ 493 "./docs/ChibiOS/os/common/ext/ARM/CMSIS/Core/Include/cmsis_gcc.h" 1
 629 0018 83F31188 		MSR basepri, r3
 630              	@ 0 "" 2
 631              	.LVL19:
 632              		.loc 5 493 3 is_stmt 0 view .LVU196
 633              		.thumb
 634              		.syntax unified
 635              	.LBE220:
 636              	.LBE219:
 637              	.LBE218:
 638              	.LBE217:
 639              	.LBE216:
 640              	.LBE215:
 641              		.loc 1 198 1 view .LVU197
 642 001c 38BD     		pop	{r3, r4, r5, pc}
 643              		.cfi_endproc
 644              	.LFE453:
 645              		.size	pwmEnableChannel, .-pwmEnableChannel
 646 001e 00BF     		.section	.text.pwmDisableChannel,"ax",%progbits
 647              		.align	1
 648              		.p2align 2,,3
 649              		.global	pwmDisableChannel
 650              		.syntax unified
 651              		.thumb
 652              		.thumb_func
 653              		.type	pwmDisableChannel, %function
 654              	pwmDisableChannel:
 655              	.LVL20:
 656              	.LFB454:
 657              		.loc 1 214 63 is_stmt 1 view -0
 658              		.cfi_startproc
 659              		@ args = 0, pretend = 0, frame = 0
 660              		@ frame_needed = 0, uses_anonymous_args = 0
 661              		.loc 1 216 3 view .LVU199
 662              		.loc 1 216 3 view .LVU200
 663              		.loc 1 216 3 view .LVU201
 664              		.loc 1 218 3 view .LVU202
 665              	.LBB221:
 666              	.LBI221:
 667              		.loc 2 573 20 view .LVU203
 668              		.loc 2 575 3 view .LVU204
 669              	.LBB222:
 670              	.LBI222:
 671              		.loc 3 372 20 view .LVU205
 672              		.loc 3 374 3 view .LVU206
 673              	.LBB223:
 674              	.LBI223:
 675              		.loc 4 840 27 view .LVU207
 676              		.loc 4 848 3 view .LVU208
 677              	.LBB224:
 678              	.LBI224:
 679              		.loc 5 491 27 view .LVU209
 680              	.LBB225:
 681              		.loc 5 493 3 view .LVU210
 682 0000 4FF0300C 		mov	ip, #48
 683              	.LBE225:
 684              	.LBE224:
ARM GAS  C:\Users\DEVELO~1\AppData\Local\Temp\ccjuHd8c.s 			page 13


 685              	.LBE223:
 686              	.LBE222:
 687              	.LBE221:
 688              		.loc 1 214 63 is_stmt 0 view .LVU211
 689 0004 08B5     		push	{r3, lr}
 690              		.cfi_def_cfa_offset 8
 691              		.cfi_offset 3, -8
 692              		.cfi_offset 14, -4
 693              	.LBB230:
 694              	.LBB229:
 695              	.LBB228:
 696              	.LBB227:
 697              	.LBB226:
 698              		.loc 5 493 3 view .LVU212
 699              		.syntax unified
 700              	@ 493 "./docs/ChibiOS/os/common/ext/ARM/CMSIS/Core/Include/cmsis_gcc.h" 1
 701 0006 8CF31188 		MSR basepri, ip
 702              	@ 0 "" 2
 703              	.LVL21:
 704              		.loc 5 493 3 view .LVU213
 705              		.thumb
 706              		.syntax unified
 707              	.LBE226:
 708              	.LBE227:
 709              	.LBE228:
 710              		.loc 3 375 35 is_stmt 1 view .LVU214
 711              		.loc 3 376 21 view .LVU215
 712              	.LBE229:
 713              	.LBE230:
 714              		.loc 1 220 3 view .LVU216
 715              		.loc 1 220 3 view .LVU217
 716              		.loc 1 220 3 view .LVU218
 717              		.loc 1 222 3 view .LVU219
 718              		.loc 1 222 3 view .LVU220
 719 000a 4FF0010C 		mov	ip, #1
 720 000e C268     		ldr	r2, [r0, #12]
 721 0010 0CFA01FC 		lsl	ip, ip, r1
 722 0014 22EA0C02 		bic	r2, r2, ip
 723 0018 C260     		str	r2, [r0, #12]
 724              		.loc 1 222 3 view .LVU221
 725 001a FFF7FEFF 		bl	pwm_lld_disable_channel
 726              	.LVL22:
 727              		.loc 1 222 3 view .LVU222
 728              		.loc 1 224 3 view .LVU223
 729              	.LBB231:
 730              	.LBI231:
 731              		.loc 2 584 20 view .LVU224
 732              		.loc 2 586 3 view .LVU225
 733              	.LBB232:
 734              	.LBI232:
 735              		.loc 3 386 20 view .LVU226
 736              	.LBB233:
 737              		.loc 3 388 23 view .LVU227
 738              		.loc 3 389 34 view .LVU228
 739              		.loc 3 395 3 view .LVU229
 740              		.loc 3 395 3 view .LVU230
 741              		.loc 3 395 3 view .LVU231
ARM GAS  C:\Users\DEVELO~1\AppData\Local\Temp\ccjuHd8c.s 			page 14


 742              		.loc 3 399 3 view .LVU232
 743              	.LBB234:
 744              	.LBI234:
 745              		.loc 4 864 27 view .LVU233
 746              		.loc 4 867 3 view .LVU234
 747              	.LBB235:
 748              	.LBI235:
 749              		.loc 5 491 27 view .LVU235
 750              	.LBB236:
 751              		.loc 5 493 3 view .LVU236
 752 001e 0023     		movs	r3, #0
 753              		.syntax unified
 754              	@ 493 "./docs/ChibiOS/os/common/ext/ARM/CMSIS/Core/Include/cmsis_gcc.h" 1
 755 0020 83F31188 		MSR basepri, r3
 756              	@ 0 "" 2
 757              	.LVL23:
 758              		.loc 5 493 3 is_stmt 0 view .LVU237
 759              		.thumb
 760              		.syntax unified
 761              	.LBE236:
 762              	.LBE235:
 763              	.LBE234:
 764              	.LBE233:
 765              	.LBE232:
 766              	.LBE231:
 767              		.loc 1 225 1 view .LVU238
 768 0024 08BD     		pop	{r3, pc}
 769              		.cfi_endproc
 770              	.LFE454:
 771              		.size	pwmDisableChannel, .-pwmDisableChannel
 772 0026 00BF     		.section	.text.pwmEnablePeriodicNotification,"ax",%progbits
 773              		.align	1
 774              		.p2align 2,,3
 775              		.global	pwmEnablePeriodicNotification
 776              		.syntax unified
 777              		.thumb
 778              		.thumb_func
 779              		.type	pwmEnablePeriodicNotification, %function
 780              	pwmEnablePeriodicNotification:
 781              	.LVL24:
 782              	.LFB455:
 783              		.loc 1 236 53 is_stmt 1 view -0
 784              		.cfi_startproc
 785              		@ args = 0, pretend = 0, frame = 0
 786              		@ frame_needed = 0, uses_anonymous_args = 0
 787              		.loc 1 238 3 view .LVU240
 788              		.loc 1 238 3 view .LVU241
 789              		.loc 1 238 3 view .LVU242
 790              		.loc 1 240 3 view .LVU243
 791              	.LBB237:
 792              	.LBI237:
 793              		.loc 2 573 20 view .LVU244
 794              		.loc 2 575 3 view .LVU245
 795              	.LBB238:
 796              	.LBI238:
 797              		.loc 3 372 20 view .LVU246
 798              		.loc 3 374 3 view .LVU247
ARM GAS  C:\Users\DEVELO~1\AppData\Local\Temp\ccjuHd8c.s 			page 15


 799              	.LBB239:
 800              	.LBI239:
 801              		.loc 4 840 27 view .LVU248
 802              		.loc 4 848 3 view .LVU249
 803              	.LBB240:
 804              	.LBI240:
 805              		.loc 5 491 27 view .LVU250
 806              	.LBB241:
 807              		.loc 5 493 3 view .LVU251
 808              	.LBE241:
 809              	.LBE240:
 810              	.LBE239:
 811              	.LBE238:
 812              	.LBE237:
 813              		.loc 1 236 53 is_stmt 0 view .LVU252
 814 0000 08B5     		push	{r3, lr}
 815              		.cfi_def_cfa_offset 8
 816              		.cfi_offset 3, -8
 817              		.cfi_offset 14, -4
 818              	.LBB246:
 819              	.LBB245:
 820              	.LBB244:
 821              	.LBB243:
 822              	.LBB242:
 823              		.loc 5 493 3 view .LVU253
 824 0002 3023     		movs	r3, #48
 825              		.syntax unified
 826              	@ 493 "./docs/ChibiOS/os/common/ext/ARM/CMSIS/Core/Include/cmsis_gcc.h" 1
 827 0004 83F31188 		MSR basepri, r3
 828              	@ 0 "" 2
 829              	.LVL25:
 830              		.loc 5 493 3 view .LVU254
 831              		.thumb
 832              		.syntax unified
 833              	.LBE242:
 834              	.LBE243:
 835              	.LBE244:
 836              		.loc 3 375 35 is_stmt 1 view .LVU255
 837              		.loc 3 376 21 view .LVU256
 838              	.LBE245:
 839              	.LBE246:
 840              		.loc 1 242 3 view .LVU257
 841              		.loc 1 242 3 view .LVU258
 842              		.loc 1 242 3 view .LVU259
 843              		.loc 1 243 3 view .LVU260
 844              		.loc 1 243 3 view .LVU261
 845              		.loc 1 243 3 view .LVU262
 846              		.loc 1 245 3 view .LVU263
 847 0008 FFF7FEFF 		bl	pwm_lld_enable_periodic_notification
 848              	.LVL26:
 849              		.loc 1 247 3 view .LVU264
 850              	.LBB247:
 851              	.LBI247:
 852              		.loc 2 584 20 view .LVU265
 853              		.loc 2 586 3 view .LVU266
 854              	.LBB248:
 855              	.LBI248:
ARM GAS  C:\Users\DEVELO~1\AppData\Local\Temp\ccjuHd8c.s 			page 16


 856              		.loc 3 386 20 view .LVU267
 857              	.LBB249:
 858              		.loc 3 388 23 view .LVU268
 859              		.loc 3 389 34 view .LVU269
 860              		.loc 3 395 3 view .LVU270
 861              		.loc 3 395 3 view .LVU271
 862              		.loc 3 395 3 view .LVU272
 863              		.loc 3 399 3 view .LVU273
 864              	.LBB250:
 865              	.LBI250:
 866              		.loc 4 864 27 view .LVU274
 867              		.loc 4 867 3 view .LVU275
 868              	.LBB251:
 869              	.LBI251:
 870              		.loc 5 491 27 view .LVU276
 871              	.LBB252:
 872              		.loc 5 493 3 view .LVU277
 873 000c 0023     		movs	r3, #0
 874              		.syntax unified
 875              	@ 493 "./docs/ChibiOS/os/common/ext/ARM/CMSIS/Core/Include/cmsis_gcc.h" 1
 876 000e 83F31188 		MSR basepri, r3
 877              	@ 0 "" 2
 878              	.LVL27:
 879              		.loc 5 493 3 is_stmt 0 view .LVU278
 880              		.thumb
 881              		.syntax unified
 882              	.LBE252:
 883              	.LBE251:
 884              	.LBE250:
 885              	.LBE249:
 886              	.LBE248:
 887              	.LBE247:
 888              		.loc 1 248 1 view .LVU279
 889 0012 08BD     		pop	{r3, pc}
 890              		.cfi_endproc
 891              	.LFE455:
 892              		.size	pwmEnablePeriodicNotification, .-pwmEnablePeriodicNotification
 893              		.section	.text.pwmDisablePeriodicNotification,"ax",%progbits
 894              		.align	1
 895              		.p2align 2,,3
 896              		.global	pwmDisablePeriodicNotification
 897              		.syntax unified
 898              		.thumb
 899              		.thumb_func
 900              		.type	pwmDisablePeriodicNotification, %function
 901              	pwmDisablePeriodicNotification:
 902              	.LVL28:
 903              	.LFB456:
 904              		.loc 1 259 54 is_stmt 1 view -0
 905              		.cfi_startproc
 906              		@ args = 0, pretend = 0, frame = 0
 907              		@ frame_needed = 0, uses_anonymous_args = 0
 908              		.loc 1 261 3 view .LVU281
 909              		.loc 1 261 3 view .LVU282
 910              		.loc 1 261 3 view .LVU283
 911              		.loc 1 263 3 view .LVU284
 912              	.LBB253:
ARM GAS  C:\Users\DEVELO~1\AppData\Local\Temp\ccjuHd8c.s 			page 17


 913              	.LBI253:
 914              		.loc 2 573 20 view .LVU285
 915              		.loc 2 575 3 view .LVU286
 916              	.LBB254:
 917              	.LBI254:
 918              		.loc 3 372 20 view .LVU287
 919              		.loc 3 374 3 view .LVU288
 920              	.LBB255:
 921              	.LBI255:
 922              		.loc 4 840 27 view .LVU289
 923              		.loc 4 848 3 view .LVU290
 924              	.LBB256:
 925              	.LBI256:
 926              		.loc 5 491 27 view .LVU291
 927              	.LBB257:
 928              		.loc 5 493 3 view .LVU292
 929              	.LBE257:
 930              	.LBE256:
 931              	.LBE255:
 932              	.LBE254:
 933              	.LBE253:
 934              		.loc 1 259 54 is_stmt 0 view .LVU293
 935 0000 08B5     		push	{r3, lr}
 936              		.cfi_def_cfa_offset 8
 937              		.cfi_offset 3, -8
 938              		.cfi_offset 14, -4
 939              	.LBB262:
 940              	.LBB261:
 941              	.LBB260:
 942              	.LBB259:
 943              	.LBB258:
 944              		.loc 5 493 3 view .LVU294
 945 0002 3023     		movs	r3, #48
 946              		.syntax unified
 947              	@ 493 "./docs/ChibiOS/os/common/ext/ARM/CMSIS/Core/Include/cmsis_gcc.h" 1
 948 0004 83F31188 		MSR basepri, r3
 949              	@ 0 "" 2
 950              	.LVL29:
 951              		.loc 5 493 3 view .LVU295
 952              		.thumb
 953              		.syntax unified
 954              	.LBE258:
 955              	.LBE259:
 956              	.LBE260:
 957              		.loc 3 375 35 is_stmt 1 view .LVU296
 958              		.loc 3 376 21 view .LVU297
 959              	.LBE261:
 960              	.LBE262:
 961              		.loc 1 265 3 view .LVU298
 962              		.loc 1 265 3 view .LVU299
 963              		.loc 1 265 3 view .LVU300
 964              		.loc 1 266 3 view .LVU301
 965              		.loc 1 266 3 view .LVU302
 966              		.loc 1 266 3 view .LVU303
 967              		.loc 1 268 3 view .LVU304
 968 0008 FFF7FEFF 		bl	pwm_lld_disable_periodic_notification
 969              	.LVL30:
ARM GAS  C:\Users\DEVELO~1\AppData\Local\Temp\ccjuHd8c.s 			page 18


 970              		.loc 1 270 3 view .LVU305
 971              	.LBB263:
 972              	.LBI263:
 973              		.loc 2 584 20 view .LVU306
 974              		.loc 2 586 3 view .LVU307
 975              	.LBB264:
 976              	.LBI264:
 977              		.loc 3 386 20 view .LVU308
 978              	.LBB265:
 979              		.loc 3 388 23 view .LVU309
 980              		.loc 3 389 34 view .LVU310
 981              		.loc 3 395 3 view .LVU311
 982              		.loc 3 395 3 view .LVU312
 983              		.loc 3 395 3 view .LVU313
 984              		.loc 3 399 3 view .LVU314
 985              	.LBB266:
 986              	.LBI266:
 987              		.loc 4 864 27 view .LVU315
 988              		.loc 4 867 3 view .LVU316
 989              	.LBB267:
 990              	.LBI267:
 991              		.loc 5 491 27 view .LVU317
 992              	.LBB268:
 993              		.loc 5 493 3 view .LVU318
 994 000c 0023     		movs	r3, #0
 995              		.syntax unified
 996              	@ 493 "./docs/ChibiOS/os/common/ext/ARM/CMSIS/Core/Include/cmsis_gcc.h" 1
 997 000e 83F31188 		MSR basepri, r3
 998              	@ 0 "" 2
 999              	.LVL31:
 1000              		.loc 5 493 3 is_stmt 0 view .LVU319
 1001              		.thumb
 1002              		.syntax unified
 1003              	.LBE268:
 1004              	.LBE267:
 1005              	.LBE266:
 1006              	.LBE265:
 1007              	.LBE264:
 1008              	.LBE263:
 1009              		.loc 1 271 1 view .LVU320
 1010 0012 08BD     		pop	{r3, pc}
 1011              		.cfi_endproc
 1012              	.LFE456:
 1013              		.size	pwmDisablePeriodicNotification, .-pwmDisablePeriodicNotification
 1014              		.section	.text.pwmEnableChannelNotification,"ax",%progbits
 1015              		.align	1
 1016              		.p2align 2,,3
 1017              		.global	pwmEnableChannelNotification
 1018              		.syntax unified
 1019              		.thumb
 1020              		.thumb_func
 1021              		.type	pwmEnableChannelNotification, %function
 1022              	pwmEnableChannelNotification:
 1023              	.LVL32:
 1024              	.LFB457:
 1025              		.loc 1 284 74 is_stmt 1 view -0
 1026              		.cfi_startproc
ARM GAS  C:\Users\DEVELO~1\AppData\Local\Temp\ccjuHd8c.s 			page 19


 1027              		@ args = 0, pretend = 0, frame = 0
 1028              		@ frame_needed = 0, uses_anonymous_args = 0
 1029              		.loc 1 286 3 view .LVU322
 1030              		.loc 1 286 3 view .LVU323
 1031              		.loc 1 286 3 view .LVU324
 1032              		.loc 1 288 3 view .LVU325
 1033              	.LBB269:
 1034              	.LBI269:
 1035              		.loc 2 573 20 view .LVU326
 1036              		.loc 2 575 3 view .LVU327
 1037              	.LBB270:
 1038              	.LBI270:
 1039              		.loc 3 372 20 view .LVU328
 1040              		.loc 3 374 3 view .LVU329
 1041              	.LBB271:
 1042              	.LBI271:
 1043              		.loc 4 840 27 view .LVU330
 1044              		.loc 4 848 3 view .LVU331
 1045              	.LBB272:
 1046              	.LBI272:
 1047              		.loc 5 491 27 view .LVU332
 1048              	.LBB273:
 1049              		.loc 5 493 3 view .LVU333
 1050              	.LBE273:
 1051              	.LBE272:
 1052              	.LBE271:
 1053              	.LBE270:
 1054              	.LBE269:
 1055              		.loc 1 284 74 is_stmt 0 view .LVU334
 1056 0000 08B5     		push	{r3, lr}
 1057              		.cfi_def_cfa_offset 8
 1058              		.cfi_offset 3, -8
 1059              		.cfi_offset 14, -4
 1060              	.LBB278:
 1061              	.LBB277:
 1062              	.LBB276:
 1063              	.LBB275:
 1064              	.LBB274:
 1065              		.loc 5 493 3 view .LVU335
 1066 0002 3023     		movs	r3, #48
 1067              		.syntax unified
 1068              	@ 493 "./docs/ChibiOS/os/common/ext/ARM/CMSIS/Core/Include/cmsis_gcc.h" 1
 1069 0004 83F31188 		MSR basepri, r3
 1070              	@ 0 "" 2
 1071              	.LVL33:
 1072              		.loc 5 493 3 view .LVU336
 1073              		.thumb
 1074              		.syntax unified
 1075              	.LBE274:
 1076              	.LBE275:
 1077              	.LBE276:
 1078              		.loc 3 375 35 is_stmt 1 view .LVU337
 1079              		.loc 3 376 21 view .LVU338
 1080              	.LBE277:
 1081              	.LBE278:
 1082              		.loc 1 290 3 view .LVU339
 1083              		.loc 1 290 3 view .LVU340
ARM GAS  C:\Users\DEVELO~1\AppData\Local\Temp\ccjuHd8c.s 			page 20


 1084              		.loc 1 290 3 view .LVU341
 1085              		.loc 1 291 3 view .LVU342
 1086              		.loc 1 291 3 view .LVU343
 1087              		.loc 1 291 3 view .LVU344
 1088              		.loc 1 293 3 view .LVU345
 1089              		.loc 1 293 3 view .LVU346
 1090              		.loc 1 293 3 view .LVU347
 1091              		.loc 1 296 3 view .LVU348
 1092 0008 FFF7FEFF 		bl	pwm_lld_enable_channel_notification
 1093              	.LVL34:
 1094              		.loc 1 298 3 view .LVU349
 1095              	.LBB279:
 1096              	.LBI279:
 1097              		.loc 2 584 20 view .LVU350
 1098              		.loc 2 586 3 view .LVU351
 1099              	.LBB280:
 1100              	.LBI280:
 1101              		.loc 3 386 20 view .LVU352
 1102              	.LBB281:
 1103              		.loc 3 388 23 view .LVU353
 1104              		.loc 3 389 34 view .LVU354
 1105              		.loc 3 395 3 view .LVU355
 1106              		.loc 3 395 3 view .LVU356
 1107              		.loc 3 395 3 view .LVU357
 1108              		.loc 3 399 3 view .LVU358
 1109              	.LBB282:
 1110              	.LBI282:
 1111              		.loc 4 864 27 view .LVU359
 1112              		.loc 4 867 3 view .LVU360
 1113              	.LBB283:
 1114              	.LBI283:
 1115              		.loc 5 491 27 view .LVU361
 1116              	.LBB284:
 1117              		.loc 5 493 3 view .LVU362
 1118 000c 0023     		movs	r3, #0
 1119              		.syntax unified
 1120              	@ 493 "./docs/ChibiOS/os/common/ext/ARM/CMSIS/Core/Include/cmsis_gcc.h" 1
 1121 000e 83F31188 		MSR basepri, r3
 1122              	@ 0 "" 2
 1123              	.LVL35:
 1124              		.loc 5 493 3 is_stmt 0 view .LVU363
 1125              		.thumb
 1126              		.syntax unified
 1127              	.LBE284:
 1128              	.LBE283:
 1129              	.LBE282:
 1130              	.LBE281:
 1131              	.LBE280:
 1132              	.LBE279:
 1133              		.loc 1 299 1 view .LVU364
 1134 0012 08BD     		pop	{r3, pc}
 1135              		.cfi_endproc
 1136              	.LFE457:
 1137              		.size	pwmEnableChannelNotification, .-pwmEnableChannelNotification
 1138              		.section	.text.pwmDisableChannelNotification,"ax",%progbits
 1139              		.align	1
 1140              		.p2align 2,,3
ARM GAS  C:\Users\DEVELO~1\AppData\Local\Temp\ccjuHd8c.s 			page 21


 1141              		.global	pwmDisableChannelNotification
 1142              		.syntax unified
 1143              		.thumb
 1144              		.thumb_func
 1145              		.type	pwmDisableChannelNotification, %function
 1146              	pwmDisableChannelNotification:
 1147              	.LVL36:
 1148              	.LFB458:
 1149              		.loc 1 312 75 is_stmt 1 view -0
 1150              		.cfi_startproc
 1151              		@ args = 0, pretend = 0, frame = 0
 1152              		@ frame_needed = 0, uses_anonymous_args = 0
 1153              		.loc 1 314 3 view .LVU366
 1154              		.loc 1 314 3 view .LVU367
 1155              		.loc 1 314 3 view .LVU368
 1156              		.loc 1 316 3 view .LVU369
 1157              	.LBB285:
 1158              	.LBI285:
 1159              		.loc 2 573 20 view .LVU370
 1160              		.loc 2 575 3 view .LVU371
 1161              	.LBB286:
 1162              	.LBI286:
 1163              		.loc 3 372 20 view .LVU372
 1164              		.loc 3 374 3 view .LVU373
 1165              	.LBB287:
 1166              	.LBI287:
 1167              		.loc 4 840 27 view .LVU374
 1168              		.loc 4 848 3 view .LVU375
 1169              	.LBB288:
 1170              	.LBI288:
 1171              		.loc 5 491 27 view .LVU376
 1172              	.LBB289:
 1173              		.loc 5 493 3 view .LVU377
 1174              	.LBE289:
 1175              	.LBE288:
 1176              	.LBE287:
 1177              	.LBE286:
 1178              	.LBE285:
 1179              		.loc 1 312 75 is_stmt 0 view .LVU378
 1180 0000 08B5     		push	{r3, lr}
 1181              		.cfi_def_cfa_offset 8
 1182              		.cfi_offset 3, -8
 1183              		.cfi_offset 14, -4
 1184              	.LBB294:
 1185              	.LBB293:
 1186              	.LBB292:
 1187              	.LBB291:
 1188              	.LBB290:
 1189              		.loc 5 493 3 view .LVU379
 1190 0002 3023     		movs	r3, #48
 1191              		.syntax unified
 1192              	@ 493 "./docs/ChibiOS/os/common/ext/ARM/CMSIS/Core/Include/cmsis_gcc.h" 1
 1193 0004 83F31188 		MSR basepri, r3
 1194              	@ 0 "" 2
 1195              	.LVL37:
 1196              		.loc 5 493 3 view .LVU380
 1197              		.thumb
ARM GAS  C:\Users\DEVELO~1\AppData\Local\Temp\ccjuHd8c.s 			page 22


 1198              		.syntax unified
 1199              	.LBE290:
 1200              	.LBE291:
 1201              	.LBE292:
 1202              		.loc 3 375 35 is_stmt 1 view .LVU381
 1203              		.loc 3 376 21 view .LVU382
 1204              	.LBE293:
 1205              	.LBE294:
 1206              		.loc 1 318 3 view .LVU383
 1207              		.loc 1 318 3 view .LVU384
 1208              		.loc 1 318 3 view .LVU385
 1209              		.loc 1 319 3 view .LVU386
 1210              		.loc 1 319 3 view .LVU387
 1211              		.loc 1 319 3 view .LVU388
 1212              		.loc 1 321 3 view .LVU389
 1213              		.loc 1 321 3 view .LVU390
 1214              		.loc 1 321 3 view .LVU391
 1215              		.loc 1 324 3 view .LVU392
 1216 0008 FFF7FEFF 		bl	pwm_lld_disable_channel_notification
 1217              	.LVL38:
 1218              		.loc 1 326 3 view .LVU393
 1219              	.LBB295:
 1220              	.LBI295:
 1221              		.loc 2 584 20 view .LVU394
 1222              		.loc 2 586 3 view .LVU395
 1223              	.LBB296:
 1224              	.LBI296:
 1225              		.loc 3 386 20 view .LVU396
 1226              	.LBB297:
 1227              		.loc 3 388 23 view .LVU397
 1228              		.loc 3 389 34 view .LVU398
 1229              		.loc 3 395 3 view .LVU399
 1230              		.loc 3 395 3 view .LVU400
 1231              		.loc 3 395 3 view .LVU401
 1232              		.loc 3 399 3 view .LVU402
 1233              	.LBB298:
 1234              	.LBI298:
 1235              		.loc 4 864 27 view .LVU403
 1236              		.loc 4 867 3 view .LVU404
 1237              	.LBB299:
 1238              	.LBI299:
 1239              		.loc 5 491 27 view .LVU405
 1240              	.LBB300:
 1241              		.loc 5 493 3 view .LVU406
 1242 000c 0023     		movs	r3, #0
 1243              		.syntax unified
 1244              	@ 493 "./docs/ChibiOS/os/common/ext/ARM/CMSIS/Core/Include/cmsis_gcc.h" 1
 1245 000e 83F31188 		MSR basepri, r3
 1246              	@ 0 "" 2
 1247              	.LVL39:
 1248              		.loc 5 493 3 is_stmt 0 view .LVU407
 1249              		.thumb
 1250              		.syntax unified
 1251              	.LBE300:
 1252              	.LBE299:
 1253              	.LBE298:
 1254              	.LBE297:
ARM GAS  C:\Users\DEVELO~1\AppData\Local\Temp\ccjuHd8c.s 			page 23


 1255              	.LBE296:
 1256              	.LBE295:
 1257              		.loc 1 327 1 view .LVU408
 1258 0012 08BD     		pop	{r3, pc}
 1259              		.cfi_endproc
 1260              	.LFE458:
 1261              		.size	pwmDisableChannelNotification, .-pwmDisableChannelNotification
 1262              		.text
 1263              	.Letext0:
 1264              		.file 6 "c:\\chibistudio\\tools\\gnu tools arm embedded\\11.3 2022.08\\arm-none-eabi\\include\\mac
 1265              		.file 7 "c:\\chibistudio\\tools\\gnu tools arm embedded\\11.3 2022.08\\arm-none-eabi\\include\\sys
 1266              		.file 8 "./docs/ChibiOS/os/rt/include/chearly.h"
 1267              		.file 9 "./docs/ChibiOS/os/hal/ports/STM32/LLD/TIMv1/stm32_tim.h"
 1268              		.file 10 "./docs/ChibiOS/os/hal/include/hal_pwm.h"
 1269              		.file 11 "./docs/ChibiOS/os/hal/ports/STM32/LLD/TIMv1/hal_pwm_lld.h"