ARM GAS  C:\Users\DEVELO~1\AppData\Local\Temp\ccNqWhix.s 			page 1


   1              		.cpu cortex-m7
   2              		.arch armv7e-m
   3              		.fpu fpv5-d16
   4              		.eabi_attribute 28, 1
   5              		.eabi_attribute 20, 1
   6              		.eabi_attribute 21, 1
   7              		.eabi_attribute 23, 3
   8              		.eabi_attribute 24, 1
   9              		.eabi_attribute 25, 1
  10              		.eabi_attribute 26, 1
  11              		.eabi_attribute 30, 2
  12              		.eabi_attribute 34, 1
  13              		.eabi_attribute 18, 4
  14              		.file	"hal_safety.c"
  15              		.text
  16              	.Ltext0:
  17              		.cfi_sections	.debug_frame
  18              		.section	.text.halSftFail,"ax",%progbits
  19              		.align	1
  20              		.p2align 2,,3
  21              		.global	halSftFail
  22              		.syntax unified
  23              		.thumb
  24              		.thumb_func
  25              		.type	halSftFail, %function
  26              	halSftFail:
  27              	.LVL0:
  28              	.LFB451:
  29              		.file 1 "../../../os/hal/src/hal_safety.c"
  30              		.loc 1 89 38 view -0
  31              		.cfi_startproc
  32              		@ Volatile: function does not return.
  33              		@ args = 0, pretend = 0, frame = 0
  34              		@ frame_needed = 0, uses_anonymous_args = 0
  35              		.loc 1 94 5 view .LVU1
  36              	.LBB111:
  37              	.LBI111:
  38              		.file 2 "../../../os/hal/osal/rt-nil/osal.h"
  39              		.loc 2 542 20 view .LVU2
  40              	.LBB112:
  41              		.loc 2 544 3 view .LVU3
  42              	.LBE112:
  43              	.LBE111:
  44              		.loc 1 89 38 is_stmt 0 view .LVU4
  45 0000 08B5     		push	{r3, lr}
  46              		.cfi_def_cfa_offset 8
  47              		.cfi_offset 3, -8
  48              		.cfi_offset 14, -4
  49              	.LBB114:
  50              	.LBB113:
  51              		.loc 2 544 3 view .LVU5
  52 0002 FFF7FEFF 		bl	chSysHalt
  53              	.LVL1:
  54              	.L2:
  55              		.loc 2 544 3 view .LVU6
  56              	.LBE113:
  57              	.LBE114:
ARM GAS  C:\Users\DEVELO~1\AppData\Local\Temp\ccNqWhix.s 			page 2


  58              		.loc 1 95 5 is_stmt 1 discriminator 1 view .LVU7
  59              		.loc 1 95 19 discriminator 1 view .LVU8
  60              		.loc 1 95 11 discriminator 1 view .LVU9
  61              		.loc 1 95 5 discriminator 1 view .LVU10
  62              		.loc 1 95 19 discriminator 1 view .LVU11
  63              		.loc 1 95 11 discriminator 1 view .LVU12
  64 0006 FEE7     		b	.L2
  65              		.cfi_endproc
  66              	.LFE451:
  67              		.size	halSftFail, .-halSftFail
  68              		.section	.text.halRegWaitMatch8X,"ax",%progbits
  69              		.align	1
  70              		.p2align 2,,3
  71              		.global	halRegWaitMatch8X
  72              		.syntax unified
  73              		.thumb
  74              		.thumb_func
  75              		.type	halRegWaitMatch8X, %function
  76              	halRegWaitMatch8X:
  77              	.LVL2:
  78              	.LFB452:
  79              		.loc 1 117 68 view -0
  80              		.cfi_startproc
  81              		@ args = 4, pretend = 0, frame = 0
  82              		@ frame_needed = 0, uses_anonymous_args = 0
  83              		@ link register save eliminated.
  84              		.loc 1 117 68 is_stmt 0 view .LVU14
  85 0000 10B4     		push	{r4}
  86              		.cfi_def_cfa_offset 4
  87              		.cfi_offset 4, -4
  88              		.loc 1 117 68 view .LVU15
  89 0002 019C     		ldr	r4, [sp, #4]
  90              		.loc 1 118 3 is_stmt 1 view .LVU16
  91              		.loc 1 121 3 view .LVU17
  92              	.LVL3:
  93              		.loc 1 122 3 view .LVU18
  94              		.loc 1 122 3 is_stmt 0 view .LVU19
  95 0004 00E0     		b	.L8
  96              	.LVL4:
  97              	.L16:
  98              		.loc 1 137 12 view .LVU20
  99 0006 73B1     		cbz	r3, .L15
 100              	.LVL5:
 101              	.L8:
 102              		.loc 1 126 3 is_stmt 1 view .LVU21
 103              	.LBB115:
 104              		.loc 1 128 5 view .LVU22
 105              		.loc 1 130 7 view .LVU23
 106              		.loc 1 134 5 view .LVU24
 107              	.LBE115:
 108              		.loc 1 137 12 view .LVU25
 109              	.LBB116:
 110              		.loc 1 128 13 is_stmt 0 view .LVU26
 111 0008 90F800C0 		ldrb	ip, [r0]	@ zero_extendqisi2
 112 000c 5FFA8CFC 		uxtb	ip, ip
 113              	.LVL6:
 114              		.loc 1 129 5 is_stmt 1 view .LVU27
ARM GAS  C:\Users\DEVELO~1\AppData\Local\Temp\ccNqWhix.s 			page 3


 115              		.loc 1 129 8 is_stmt 0 view .LVU28
 116 0010 0CB1     		cbz	r4, .L6
 117              		.loc 1 130 13 view .LVU29
 118 0012 84F800C0 		strb	ip, [r4]
 119              	.L6:
 120              		.loc 1 134 8 view .LVU30
 121 0016 0CEA010C 		and	ip, ip, r1
 122              	.LVL7:
 123              		.loc 1 134 8 view .LVU31
 124 001a 9445     		cmp	ip, r2
 125 001c F3D1     		bne	.L16
 126              		.loc 1 135 14 view .LVU32
 127 001e 0020     		movs	r0, #0
 128              	.LVL8:
 129              		.loc 1 135 14 view .LVU33
 130              	.LBE116:
 131              		.loc 1 140 1 view .LVU34
 132 0020 5DF8044B 		ldr	r4, [sp], #4
 133              		.cfi_remember_state
 134              		.cfi_restore 4
 135              		.cfi_def_cfa_offset 0
 136              	.LVL9:
 137              		.loc 1 140 1 view .LVU35
 138 0024 7047     		bx	lr
 139              	.LVL10:
 140              	.L15:
 141              		.cfi_restore_state
 142              		.loc 1 139 10 view .LVU36
 143 0026 0120     		movs	r0, #1
 144              	.LVL11:
 145              		.loc 1 140 1 view .LVU37
 146 0028 5DF8044B 		ldr	r4, [sp], #4
 147              		.cfi_restore 4
 148              		.cfi_def_cfa_offset 0
 149              	.LVL12:
 150              		.loc 1 140 1 view .LVU38
 151 002c 7047     		bx	lr
 152              		.cfi_endproc
 153              	.LFE452:
 154              		.size	halRegWaitMatch8X, .-halRegWaitMatch8X
 155              		.section	.text.halRegWaitMatch16X,"ax",%progbits
 156              		.align	1
 157              		.p2align 2,,3
 158              		.global	halRegWaitMatch16X
 159              		.syntax unified
 160              		.thumb
 161              		.thumb_func
 162              		.type	halRegWaitMatch16X, %function
 163              	halRegWaitMatch16X:
 164              	.LVL13:
 165              	.LFB453:
 166              		.loc 1 160 71 is_stmt 1 view -0
 167              		.cfi_startproc
 168              		@ args = 4, pretend = 0, frame = 0
 169              		@ frame_needed = 0, uses_anonymous_args = 0
 170              		@ link register save eliminated.
 171              		.loc 1 160 71 is_stmt 0 view .LVU40
ARM GAS  C:\Users\DEVELO~1\AppData\Local\Temp\ccNqWhix.s 			page 4


 172 0000 10B4     		push	{r4}
 173              		.cfi_def_cfa_offset 4
 174              		.cfi_offset 4, -4
 175              		.loc 1 160 71 view .LVU41
 176 0002 019C     		ldr	r4, [sp, #4]
 177              		.loc 1 161 3 is_stmt 1 view .LVU42
 178              		.loc 1 164 3 view .LVU43
 179              	.LVL14:
 180              		.loc 1 165 3 view .LVU44
 181              		.loc 1 165 3 is_stmt 0 view .LVU45
 182 0004 00E0     		b	.L20
 183              	.LVL15:
 184              	.L28:
 185              		.loc 1 180 12 view .LVU46
 186 0006 73B1     		cbz	r3, .L27
 187              	.LVL16:
 188              	.L20:
 189              		.loc 1 169 3 is_stmt 1 view .LVU47
 190              	.LBB117:
 191              		.loc 1 171 5 view .LVU48
 192              		.loc 1 173 7 view .LVU49
 193              		.loc 1 177 5 view .LVU50
 194              	.LBE117:
 195              		.loc 1 180 12 view .LVU51
 196              	.LBB118:
 197              		.loc 1 171 14 is_stmt 0 view .LVU52
 198 0008 B0F800C0 		ldrh	ip, [r0]
 199 000c 1FFA8CFC 		uxth	ip, ip
 200              	.LVL17:
 201              		.loc 1 172 5 is_stmt 1 view .LVU53
 202              		.loc 1 172 8 is_stmt 0 view .LVU54
 203 0010 0CB1     		cbz	r4, .L18
 204              		.loc 1 173 13 view .LVU55
 205 0012 A4F800C0 		strh	ip, [r4]	@ movhi
 206              	.L18:
 207              		.loc 1 177 8 view .LVU56
 208 0016 0CEA010C 		and	ip, ip, r1
 209              	.LVL18:
 210              		.loc 1 177 8 view .LVU57
 211 001a 9445     		cmp	ip, r2
 212 001c F3D1     		bne	.L28
 213              		.loc 1 178 14 view .LVU58
 214 001e 0020     		movs	r0, #0
 215              	.LVL19:
 216              		.loc 1 178 14 view .LVU59
 217              	.LBE118:
 218              		.loc 1 183 1 view .LVU60
 219 0020 5DF8044B 		ldr	r4, [sp], #4
 220              		.cfi_remember_state
 221              		.cfi_restore 4
 222              		.cfi_def_cfa_offset 0
 223              	.LVL20:
 224              		.loc 1 183 1 view .LVU61
 225 0024 7047     		bx	lr
 226              	.LVL21:
 227              	.L27:
 228              		.cfi_restore_state
ARM GAS  C:\Users\DEVELO~1\AppData\Local\Temp\ccNqWhix.s 			page 5


 229              		.loc 1 182 10 view .LVU62
 230 0026 0120     		movs	r0, #1
 231              	.LVL22:
 232              		.loc 1 183 1 view .LVU63
 233 0028 5DF8044B 		ldr	r4, [sp], #4
 234              		.cfi_restore 4
 235              		.cfi_def_cfa_offset 0
 236              	.LVL23:
 237              		.loc 1 183 1 view .LVU64
 238 002c 7047     		bx	lr
 239              		.cfi_endproc
 240              	.LFE453:
 241              		.size	halRegWaitMatch16X, .-halRegWaitMatch16X
 242              		.section	.text.halRegWaitMatch32X,"ax",%progbits
 243              		.align	1
 244              		.p2align 2,,3
 245              		.global	halRegWaitMatch32X
 246              		.syntax unified
 247              		.thumb
 248              		.thumb_func
 249              		.type	halRegWaitMatch32X, %function
 250              	halRegWaitMatch32X:
 251              	.LVL24:
 252              	.LFB454:
 253              		.loc 1 203 71 is_stmt 1 view -0
 254              		.cfi_startproc
 255              		@ args = 4, pretend = 0, frame = 0
 256              		@ frame_needed = 0, uses_anonymous_args = 0
 257              		@ link register save eliminated.
 258              		.loc 1 203 71 is_stmt 0 view .LVU66
 259 0000 30B4     		push	{r4, r5}
 260              		.cfi_def_cfa_offset 8
 261              		.cfi_offset 4, -8
 262              		.cfi_offset 5, -4
 263              		.loc 1 203 71 view .LVU67
 264 0002 029D     		ldr	r5, [sp, #8]
 265              		.loc 1 204 3 is_stmt 1 view .LVU68
 266              		.loc 1 207 3 view .LVU69
 267              	.LVL25:
 268              		.loc 1 208 3 view .LVU70
 269              		.loc 1 208 3 is_stmt 0 view .LVU71
 270 0004 00E0     		b	.L32
 271              	.LVL26:
 272              	.L40:
 273              		.loc 1 223 12 view .LVU72
 274 0006 43B1     		cbz	r3, .L39
 275              	.LVL27:
 276              	.L32:
 277              		.loc 1 212 3 is_stmt 1 view .LVU73
 278              	.LBB119:
 279              		.loc 1 214 5 view .LVU74
 280              		.loc 1 216 7 view .LVU75
 281              		.loc 1 220 5 view .LVU76
 282              	.LBE119:
 283              		.loc 1 223 12 view .LVU77
 284              	.LBB120:
 285              		.loc 1 214 14 is_stmt 0 view .LVU78
ARM GAS  C:\Users\DEVELO~1\AppData\Local\Temp\ccNqWhix.s 			page 6


 286 0008 0468     		ldr	r4, [r0]
 287              	.LVL28:
 288              		.loc 1 215 5 is_stmt 1 view .LVU79
 289              		.loc 1 215 8 is_stmt 0 view .LVU80
 290 000a 05B1     		cbz	r5, .L30
 291              		.loc 1 216 13 view .LVU81
 292 000c 2C60     		str	r4, [r5]
 293              	.L30:
 294              		.loc 1 220 12 view .LVU82
 295 000e 0C40     		ands	r4, r4, r1
 296              	.LVL29:
 297              		.loc 1 220 8 view .LVU83
 298 0010 9442     		cmp	r4, r2
 299 0012 F8D1     		bne	.L40
 300              		.loc 1 221 14 view .LVU84
 301 0014 0020     		movs	r0, #0
 302              	.LVL30:
 303              		.loc 1 221 14 view .LVU85
 304              	.LBE120:
 305              		.loc 1 226 1 view .LVU86
 306 0016 30BC     		pop	{r4, r5}
 307              		.cfi_remember_state
 308              		.cfi_restore 5
 309              		.cfi_restore 4
 310              		.cfi_def_cfa_offset 0
 311              	.LVL31:
 312              		.loc 1 226 1 view .LVU87
 313 0018 7047     		bx	lr
 314              	.LVL32:
 315              	.L39:
 316              		.cfi_restore_state
 317              		.loc 1 225 10 view .LVU88
 318 001a 0120     		movs	r0, #1
 319              	.LVL33:
 320              		.loc 1 226 1 view .LVU89
 321 001c 30BC     		pop	{r4, r5}
 322              		.cfi_restore 5
 323              		.cfi_restore 4
 324              		.cfi_def_cfa_offset 0
 325              	.LVL34:
 326              		.loc 1 226 1 view .LVU90
 327 001e 7047     		bx	lr
 328              		.cfi_endproc
 329              	.LFE454:
 330              		.size	halRegWaitMatch32X, .-halRegWaitMatch32X
 331              		.section	.text.halRegWaitAllSet8X,"ax",%progbits
 332              		.align	1
 333              		.p2align 2,,3
 334              		.global	halRegWaitAllSet8X
 335              		.syntax unified
 336              		.thumb
 337              		.thumb_func
 338              		.type	halRegWaitAllSet8X, %function
 339              	halRegWaitAllSet8X:
 340              	.LFB455:
 341              		.loc 1 245 54 is_stmt 1 view -0
 342              		.cfi_startproc
ARM GAS  C:\Users\DEVELO~1\AppData\Local\Temp\ccNqWhix.s 			page 7


 343              		@ args = 0, pretend = 0, frame = 0
 344              		@ frame_needed = 0, uses_anonymous_args = 0
 345              		@ link register save eliminated.
 346              	.LVL35:
 347              	.L44:
 348              		.loc 1 254 3 view .LVU92
 349              	.LBB121:
 350              		.loc 1 256 5 view .LVU93
 351              		.loc 1 258 7 view .LVU94
 352              		.loc 1 262 5 view .LVU95
 353              	.LBE121:
 354              		.loc 1 265 12 view .LVU96
 355              	.LBB122:
 356              		.loc 1 256 13 is_stmt 0 view .LVU97
 357 0000 90F800C0 		ldrb	ip, [r0]	@ zero_extendqisi2
 358 0004 5FFA8CFC 		uxtb	ip, ip
 359              	.LVL36:
 360              		.loc 1 257 5 is_stmt 1 view .LVU98
 361              		.loc 1 257 8 is_stmt 0 view .LVU99
 362 0008 0BB1     		cbz	r3, .L42
 363              		.loc 1 258 13 view .LVU100
 364 000a 83F800C0 		strb	ip, [r3]
 365              	.L42:
 366              		.loc 1 262 8 view .LVU101
 367 000e 31EA0C0C 		bics	ip, r1, ip
 368              	.LVL37:
 369              		.loc 1 262 8 view .LVU102
 370 0012 03D0     		beq	.L45
 371              	.LBE122:
 372              		.loc 1 265 12 view .LVU103
 373 0014 002A     		cmp	r2, #0
 374 0016 F3D1     		bne	.L44
 375              		.loc 1 267 10 view .LVU104
 376 0018 0120     		movs	r0, #1
 377              	.LVL38:
 378              		.loc 1 267 10 view .LVU105
 379 001a 7047     		bx	lr
 380              	.LVL39:
 381              	.L45:
 382              	.LBB123:
 383              		.loc 1 263 14 view .LVU106
 384 001c 0020     		movs	r0, #0
 385              	.LVL40:
 386              		.loc 1 263 14 view .LVU107
 387              	.LBE123:
 388              		.loc 1 268 1 view .LVU108
 389 001e 7047     		bx	lr
 390              		.cfi_endproc
 391              	.LFE455:
 392              		.size	halRegWaitAllSet8X, .-halRegWaitAllSet8X
 393              		.section	.text.halRegWaitAllSet16X,"ax",%progbits
 394              		.align	1
 395              		.p2align 2,,3
 396              		.global	halRegWaitAllSet16X
 397              		.syntax unified
 398              		.thumb
 399              		.thumb_func
ARM GAS  C:\Users\DEVELO~1\AppData\Local\Temp\ccNqWhix.s 			page 8


 400              		.type	halRegWaitAllSet16X, %function
 401              	halRegWaitAllSet16X:
 402              	.LFB456:
 403              		.loc 1 287 56 is_stmt 1 view -0
 404              		.cfi_startproc
 405              		@ args = 0, pretend = 0, frame = 0
 406              		@ frame_needed = 0, uses_anonymous_args = 0
 407              		@ link register save eliminated.
 408              	.LVL41:
 409              	.L53:
 410              		.loc 1 296 3 view .LVU110
 411              	.LBB124:
 412              		.loc 1 298 5 view .LVU111
 413              		.loc 1 300 7 view .LVU112
 414              		.loc 1 304 5 view .LVU113
 415              	.LBE124:
 416              		.loc 1 307 12 view .LVU114
 417              	.LBB125:
 418              		.loc 1 298 14 is_stmt 0 view .LVU115
 419 0000 B0F800C0 		ldrh	ip, [r0]
 420 0004 1FFA8CFC 		uxth	ip, ip
 421              	.LVL42:
 422              		.loc 1 299 5 is_stmt 1 view .LVU116
 423              		.loc 1 299 8 is_stmt 0 view .LVU117
 424 0008 0BB1     		cbz	r3, .L51
 425              		.loc 1 300 13 view .LVU118
 426 000a A3F800C0 		strh	ip, [r3]	@ movhi
 427              	.L51:
 428              		.loc 1 304 8 view .LVU119
 429 000e 31EA0C0C 		bics	ip, r1, ip
 430              	.LVL43:
 431              		.loc 1 304 8 view .LVU120
 432 0012 03D0     		beq	.L54
 433              	.LBE125:
 434              		.loc 1 307 12 view .LVU121
 435 0014 002A     		cmp	r2, #0
 436 0016 F3D1     		bne	.L53
 437              		.loc 1 309 10 view .LVU122
 438 0018 0120     		movs	r0, #1
 439              	.LVL44:
 440              		.loc 1 309 10 view .LVU123
 441 001a 7047     		bx	lr
 442              	.LVL45:
 443              	.L54:
 444              	.LBB126:
 445              		.loc 1 305 14 view .LVU124
 446 001c 0020     		movs	r0, #0
 447              	.LVL46:
 448              		.loc 1 305 14 view .LVU125
 449              	.LBE126:
 450              		.loc 1 310 1 view .LVU126
 451 001e 7047     		bx	lr
 452              		.cfi_endproc
 453              	.LFE456:
 454              		.size	halRegWaitAllSet16X, .-halRegWaitAllSet16X
 455              		.section	.text.halRegWaitAllSet32X,"ax",%progbits
 456              		.align	1
ARM GAS  C:\Users\DEVELO~1\AppData\Local\Temp\ccNqWhix.s 			page 9


 457              		.p2align 2,,3
 458              		.global	halRegWaitAllSet32X
 459              		.syntax unified
 460              		.thumb
 461              		.thumb_func
 462              		.type	halRegWaitAllSet32X, %function
 463              	halRegWaitAllSet32X:
 464              	.LFB457:
 465              		.loc 1 329 56 is_stmt 1 view -0
 466              		.cfi_startproc
 467              		@ args = 0, pretend = 0, frame = 0
 468              		@ frame_needed = 0, uses_anonymous_args = 0
 469              		@ link register save eliminated.
 470              	.LVL47:
 471              		.loc 1 329 56 is_stmt 0 view .LVU128
 472 0000 10B4     		push	{r4}
 473              		.cfi_def_cfa_offset 4
 474              		.cfi_offset 4, -4
 475 0002 00E0     		b	.L62
 476              	.LVL48:
 477              	.L70:
 478              		.loc 1 349 12 view .LVU129
 479 0004 4AB1     		cbz	r2, .L69
 480              	.LVL49:
 481              	.L62:
 482              		.loc 1 338 3 is_stmt 1 view .LVU130
 483              	.LBB127:
 484              		.loc 1 340 5 view .LVU131
 485              		.loc 1 342 7 view .LVU132
 486              		.loc 1 346 5 view .LVU133
 487              	.LBE127:
 488              		.loc 1 349 12 view .LVU134
 489              	.LBB128:
 490              		.loc 1 340 14 is_stmt 0 view .LVU135
 491 0006 0468     		ldr	r4, [r0]
 492              	.LVL50:
 493              		.loc 1 341 5 is_stmt 1 view .LVU136
 494              		.loc 1 341 8 is_stmt 0 view .LVU137
 495 0008 03B1     		cbz	r3, .L60
 496              		.loc 1 342 13 view .LVU138
 497 000a 1C60     		str	r4, [r3]
 498              	.L60:
 499              		.loc 1 346 8 view .LVU139
 500 000c 31EA0404 		bics	r4, r1, r4
 501              	.LVL51:
 502              		.loc 1 346 8 view .LVU140
 503 0010 F8D1     		bne	.L70
 504              		.loc 1 347 14 view .LVU141
 505 0012 0020     		movs	r0, #0
 506              	.LVL52:
 507              		.loc 1 347 14 view .LVU142
 508              	.LBE128:
 509              		.loc 1 352 1 view .LVU143
 510 0014 5DF8044B 		ldr	r4, [sp], #4
 511              		.cfi_remember_state
 512              		.cfi_restore 4
 513              		.cfi_def_cfa_offset 0
ARM GAS  C:\Users\DEVELO~1\AppData\Local\Temp\ccNqWhix.s 			page 10


 514 0018 7047     		bx	lr
 515              	.LVL53:
 516              	.L69:
 517              		.cfi_restore_state
 518              		.loc 1 351 10 view .LVU144
 519 001a 0120     		movs	r0, #1
 520              	.LVL54:
 521              		.loc 1 352 1 view .LVU145
 522 001c 5DF8044B 		ldr	r4, [sp], #4
 523              		.cfi_restore 4
 524              		.cfi_def_cfa_offset 0
 525 0020 7047     		bx	lr
 526              		.cfi_endproc
 527              	.LFE457:
 528              		.size	halRegWaitAllSet32X, .-halRegWaitAllSet32X
 529 0022 00BF     		.section	.text.halRegWaitAnySet8X,"ax",%progbits
 530              		.align	1
 531              		.p2align 2,,3
 532              		.global	halRegWaitAnySet8X
 533              		.syntax unified
 534              		.thumb
 535              		.thumb_func
 536              		.type	halRegWaitAnySet8X, %function
 537              	halRegWaitAnySet8X:
 538              	.LFB458:
 539              		.loc 1 371 54 is_stmt 1 view -0
 540              		.cfi_startproc
 541              		@ args = 0, pretend = 0, frame = 0
 542              		@ frame_needed = 0, uses_anonymous_args = 0
 543              		@ link register save eliminated.
 544              	.LVL55:
 545              	.L74:
 546              		.loc 1 380 3 view .LVU147
 547              	.LBB129:
 548              		.loc 1 382 5 view .LVU148
 549              		.loc 1 384 7 view .LVU149
 550              		.loc 1 388 5 view .LVU150
 551              	.LBE129:
 552              		.loc 1 391 12 view .LVU151
 553              	.LBB130:
 554              		.loc 1 382 13 is_stmt 0 view .LVU152
 555 0000 90F800C0 		ldrb	ip, [r0]	@ zero_extendqisi2
 556 0004 5FFA8CFC 		uxtb	ip, ip
 557              	.LVL56:
 558              		.loc 1 383 5 is_stmt 1 view .LVU153
 559              		.loc 1 383 8 is_stmt 0 view .LVU154
 560 0008 0BB1     		cbz	r3, .L72
 561              		.loc 1 384 13 view .LVU155
 562 000a 83F800C0 		strb	ip, [r3]
 563              	.L72:
 564              		.loc 1 388 8 view .LVU156
 565 000e 1CEA010F 		tst	ip, r1
 566 0012 03D1     		bne	.L75
 567              	.LBE130:
 568              		.loc 1 391 12 view .LVU157
 569 0014 002A     		cmp	r2, #0
 570 0016 F3D1     		bne	.L74
ARM GAS  C:\Users\DEVELO~1\AppData\Local\Temp\ccNqWhix.s 			page 11


 571              		.loc 1 393 10 view .LVU158
 572 0018 0120     		movs	r0, #1
 573              	.LVL57:
 574              		.loc 1 393 10 view .LVU159
 575 001a 7047     		bx	lr
 576              	.LVL58:
 577              	.L75:
 578              	.LBB131:
 579              		.loc 1 389 14 view .LVU160
 580 001c 0020     		movs	r0, #0
 581              	.LVL59:
 582              		.loc 1 389 14 view .LVU161
 583              	.LBE131:
 584              		.loc 1 394 1 view .LVU162
 585 001e 7047     		bx	lr
 586              		.cfi_endproc
 587              	.LFE458:
 588              		.size	halRegWaitAnySet8X, .-halRegWaitAnySet8X
 589              		.section	.text.halRegWaitAnySet16X,"ax",%progbits
 590              		.align	1
 591              		.p2align 2,,3
 592              		.global	halRegWaitAnySet16X
 593              		.syntax unified
 594              		.thumb
 595              		.thumb_func
 596              		.type	halRegWaitAnySet16X, %function
 597              	halRegWaitAnySet16X:
 598              	.LFB459:
 599              		.loc 1 413 56 is_stmt 1 view -0
 600              		.cfi_startproc
 601              		@ args = 0, pretend = 0, frame = 0
 602              		@ frame_needed = 0, uses_anonymous_args = 0
 603              		@ link register save eliminated.
 604              	.LVL60:
 605              	.L83:
 606              		.loc 1 422 3 view .LVU164
 607              	.LBB132:
 608              		.loc 1 424 5 view .LVU165
 609              		.loc 1 426 7 view .LVU166
 610              		.loc 1 430 5 view .LVU167
 611              	.LBE132:
 612              		.loc 1 433 12 view .LVU168
 613              	.LBB133:
 614              		.loc 1 424 14 is_stmt 0 view .LVU169
 615 0000 B0F800C0 		ldrh	ip, [r0]
 616 0004 1FFA8CFC 		uxth	ip, ip
 617              	.LVL61:
 618              		.loc 1 425 5 is_stmt 1 view .LVU170
 619              		.loc 1 425 8 is_stmt 0 view .LVU171
 620 0008 0BB1     		cbz	r3, .L81
 621              		.loc 1 426 13 view .LVU172
 622 000a A3F800C0 		strh	ip, [r3]	@ movhi
 623              	.L81:
 624              		.loc 1 430 8 view .LVU173
 625 000e 1CEA010F 		tst	ip, r1
 626 0012 03D1     		bne	.L84
 627              	.LBE133:
ARM GAS  C:\Users\DEVELO~1\AppData\Local\Temp\ccNqWhix.s 			page 12


 628              		.loc 1 433 12 view .LVU174
 629 0014 002A     		cmp	r2, #0
 630 0016 F3D1     		bne	.L83
 631              		.loc 1 435 10 view .LVU175
 632 0018 0120     		movs	r0, #1
 633              	.LVL62:
 634              		.loc 1 435 10 view .LVU176
 635 001a 7047     		bx	lr
 636              	.LVL63:
 637              	.L84:
 638              	.LBB134:
 639              		.loc 1 431 14 view .LVU177
 640 001c 0020     		movs	r0, #0
 641              	.LVL64:
 642              		.loc 1 431 14 view .LVU178
 643              	.LBE134:
 644              		.loc 1 436 1 view .LVU179
 645 001e 7047     		bx	lr
 646              		.cfi_endproc
 647              	.LFE459:
 648              		.size	halRegWaitAnySet16X, .-halRegWaitAnySet16X
 649              		.section	.text.halRegWaitAnySet32X,"ax",%progbits
 650              		.align	1
 651              		.p2align 2,,3
 652              		.global	halRegWaitAnySet32X
 653              		.syntax unified
 654              		.thumb
 655              		.thumb_func
 656              		.type	halRegWaitAnySet32X, %function
 657              	halRegWaitAnySet32X:
 658              	.LFB460:
 659              		.loc 1 455 56 is_stmt 1 view -0
 660              		.cfi_startproc
 661              		@ args = 0, pretend = 0, frame = 0
 662              		@ frame_needed = 0, uses_anonymous_args = 0
 663              		@ link register save eliminated.
 664              	.LVL65:
 665              		.loc 1 455 56 is_stmt 0 view .LVU181
 666 0000 10B4     		push	{r4}
 667              		.cfi_def_cfa_offset 4
 668              		.cfi_offset 4, -4
 669 0002 00E0     		b	.L92
 670              	.LVL66:
 671              	.L100:
 672              		.loc 1 475 12 view .LVU182
 673 0004 42B1     		cbz	r2, .L99
 674              	.LVL67:
 675              	.L92:
 676              		.loc 1 464 3 is_stmt 1 view .LVU183
 677              	.LBB135:
 678              		.loc 1 466 5 view .LVU184
 679              		.loc 1 468 7 view .LVU185
 680              		.loc 1 472 5 view .LVU186
 681              	.LBE135:
 682              		.loc 1 475 12 view .LVU187
 683              	.LBB136:
 684              		.loc 1 466 14 is_stmt 0 view .LVU188
ARM GAS  C:\Users\DEVELO~1\AppData\Local\Temp\ccNqWhix.s 			page 13


 685 0006 0468     		ldr	r4, [r0]
 686              	.LVL68:
 687              		.loc 1 467 5 is_stmt 1 view .LVU189
 688              		.loc 1 467 8 is_stmt 0 view .LVU190
 689 0008 03B1     		cbz	r3, .L90
 690              		.loc 1 468 13 view .LVU191
 691 000a 1C60     		str	r4, [r3]
 692              	.L90:
 693              		.loc 1 472 8 view .LVU192
 694 000c 0C42     		tst	r4, r1
 695 000e F9D0     		beq	.L100
 696              		.loc 1 473 14 view .LVU193
 697 0010 0020     		movs	r0, #0
 698              	.LVL69:
 699              		.loc 1 473 14 view .LVU194
 700              	.LBE136:
 701              		.loc 1 478 1 view .LVU195
 702 0012 5DF8044B 		ldr	r4, [sp], #4
 703              		.cfi_remember_state
 704              		.cfi_restore 4
 705              		.cfi_def_cfa_offset 0
 706              	.LVL70:
 707              		.loc 1 478 1 view .LVU196
 708 0016 7047     		bx	lr
 709              	.LVL71:
 710              	.L99:
 711              		.cfi_restore_state
 712              		.loc 1 477 10 view .LVU197
 713 0018 0120     		movs	r0, #1
 714              	.LVL72:
 715              		.loc 1 478 1 view .LVU198
 716 001a 5DF8044B 		ldr	r4, [sp], #4
 717              		.cfi_restore 4
 718              		.cfi_def_cfa_offset 0
 719              	.LVL73:
 720              		.loc 1 478 1 view .LVU199
 721 001e 7047     		bx	lr
 722              		.cfi_endproc
 723              	.LFE460:
 724              		.size	halRegWaitAnySet32X, .-halRegWaitAnySet32X
 725              		.section	.text.halRegWaitAllClear8X,"ax",%progbits
 726              		.align	1
 727              		.p2align 2,,3
 728              		.global	halRegWaitAllClear8X
 729              		.syntax unified
 730              		.thumb
 731              		.thumb_func
 732              		.type	halRegWaitAllClear8X, %function
 733              	halRegWaitAllClear8X:
 734              	.LFB461:
 735              		.loc 1 497 56 is_stmt 1 view -0
 736              		.cfi_startproc
 737              		@ args = 0, pretend = 0, frame = 0
 738              		@ frame_needed = 0, uses_anonymous_args = 0
 739              		@ link register save eliminated.
 740              	.LVL74:
 741              	.L104:
ARM GAS  C:\Users\DEVELO~1\AppData\Local\Temp\ccNqWhix.s 			page 14


 742              		.loc 1 506 3 view .LVU201
 743              	.LBB137:
 744              		.loc 1 508 5 view .LVU202
 745              		.loc 1 510 7 view .LVU203
 746              		.loc 1 514 5 view .LVU204
 747              	.LBE137:
 748              		.loc 1 517 12 view .LVU205
 749              	.LBB138:
 750              		.loc 1 508 13 is_stmt 0 view .LVU206
 751 0000 90F800C0 		ldrb	ip, [r0]	@ zero_extendqisi2
 752 0004 5FFA8CFC 		uxtb	ip, ip
 753              	.LVL75:
 754              		.loc 1 509 5 is_stmt 1 view .LVU207
 755              		.loc 1 509 8 is_stmt 0 view .LVU208
 756 0008 0BB1     		cbz	r3, .L102
 757              		.loc 1 510 13 view .LVU209
 758 000a 83F800C0 		strb	ip, [r3]
 759              	.L102:
 760              		.loc 1 514 8 view .LVU210
 761 000e 1CEA010C 		ands	ip, ip, r1
 762              	.LVL76:
 763              		.loc 1 514 8 view .LVU211
 764 0012 03D0     		beq	.L105
 765              	.LBE138:
 766              		.loc 1 517 12 view .LVU212
 767 0014 002A     		cmp	r2, #0
 768 0016 F3D1     		bne	.L104
 769              		.loc 1 519 10 view .LVU213
 770 0018 0120     		movs	r0, #1
 771              	.LVL77:
 772              		.loc 1 519 10 view .LVU214
 773 001a 7047     		bx	lr
 774              	.LVL78:
 775              	.L105:
 776              	.LBB139:
 777              		.loc 1 515 14 view .LVU215
 778 001c 6046     		mov	r0, ip
 779              	.LVL79:
 780              		.loc 1 515 14 view .LVU216
 781              	.LBE139:
 782              		.loc 1 520 1 view .LVU217
 783 001e 7047     		bx	lr
 784              		.cfi_endproc
 785              	.LFE461:
 786              		.size	halRegWaitAllClear8X, .-halRegWaitAllClear8X
 787              		.section	.text.halRegWaitAllClear16X,"ax",%progbits
 788              		.align	1
 789              		.p2align 2,,3
 790              		.global	halRegWaitAllClear16X
 791              		.syntax unified
 792              		.thumb
 793              		.thumb_func
 794              		.type	halRegWaitAllClear16X, %function
 795              	halRegWaitAllClear16X:
 796              	.LFB462:
 797              		.loc 1 539 58 is_stmt 1 view -0
 798              		.cfi_startproc
ARM GAS  C:\Users\DEVELO~1\AppData\Local\Temp\ccNqWhix.s 			page 15


 799              		@ args = 0, pretend = 0, frame = 0
 800              		@ frame_needed = 0, uses_anonymous_args = 0
 801              		@ link register save eliminated.
 802              	.LVL80:
 803              	.L113:
 804              		.loc 1 548 3 view .LVU219
 805              	.LBB140:
 806              		.loc 1 550 5 view .LVU220
 807              		.loc 1 552 7 view .LVU221
 808              		.loc 1 556 5 view .LVU222
 809              	.LBE140:
 810              		.loc 1 559 12 view .LVU223
 811              	.LBB141:
 812              		.loc 1 550 14 is_stmt 0 view .LVU224
 813 0000 B0F800C0 		ldrh	ip, [r0]
 814 0004 1FFA8CFC 		uxth	ip, ip
 815              	.LVL81:
 816              		.loc 1 551 5 is_stmt 1 view .LVU225
 817              		.loc 1 551 8 is_stmt 0 view .LVU226
 818 0008 0BB1     		cbz	r3, .L111
 819              		.loc 1 552 13 view .LVU227
 820 000a A3F800C0 		strh	ip, [r3]	@ movhi
 821              	.L111:
 822              		.loc 1 556 8 view .LVU228
 823 000e 1CEA010C 		ands	ip, ip, r1
 824              	.LVL82:
 825              		.loc 1 556 8 view .LVU229
 826 0012 03D0     		beq	.L114
 827              	.LBE141:
 828              		.loc 1 559 12 view .LVU230
 829 0014 002A     		cmp	r2, #0
 830 0016 F3D1     		bne	.L113
 831              		.loc 1 561 10 view .LVU231
 832 0018 0120     		movs	r0, #1
 833              	.LVL83:
 834              		.loc 1 561 10 view .LVU232
 835 001a 7047     		bx	lr
 836              	.LVL84:
 837              	.L114:
 838              	.LBB142:
 839              		.loc 1 557 14 view .LVU233
 840 001c 6046     		mov	r0, ip
 841              	.LVL85:
 842              		.loc 1 557 14 view .LVU234
 843              	.LBE142:
 844              		.loc 1 562 1 view .LVU235
 845 001e 7047     		bx	lr
 846              		.cfi_endproc
 847              	.LFE462:
 848              		.size	halRegWaitAllClear16X, .-halRegWaitAllClear16X
 849              		.section	.text.halRegWaitAllClear32X,"ax",%progbits
 850              		.align	1
 851              		.p2align 2,,3
 852              		.global	halRegWaitAllClear32X
 853              		.syntax unified
 854              		.thumb
 855              		.thumb_func
ARM GAS  C:\Users\DEVELO~1\AppData\Local\Temp\ccNqWhix.s 			page 16


 856              		.type	halRegWaitAllClear32X, %function
 857              	halRegWaitAllClear32X:
 858              	.LFB463:
 859              		.loc 1 581 58 is_stmt 1 view -0
 860              		.cfi_startproc
 861              		@ args = 0, pretend = 0, frame = 0
 862              		@ frame_needed = 0, uses_anonymous_args = 0
 863              		@ link register save eliminated.
 864              	.LVL86:
 865              		.loc 1 581 58 is_stmt 0 view .LVU237
 866 0000 10B4     		push	{r4}
 867              		.cfi_def_cfa_offset 4
 868              		.cfi_offset 4, -4
 869 0002 00E0     		b	.L122
 870              	.LVL87:
 871              	.L130:
 872              		.loc 1 601 12 view .LVU238
 873 0004 42B1     		cbz	r2, .L129
 874              	.LVL88:
 875              	.L122:
 876              		.loc 1 590 3 is_stmt 1 view .LVU239
 877              	.LBB143:
 878              		.loc 1 592 5 view .LVU240
 879              		.loc 1 594 7 view .LVU241
 880              		.loc 1 598 5 view .LVU242
 881              	.LBE143:
 882              		.loc 1 601 12 view .LVU243
 883              	.LBB144:
 884              		.loc 1 592 14 is_stmt 0 view .LVU244
 885 0006 0468     		ldr	r4, [r0]
 886              	.LVL89:
 887              		.loc 1 593 5 is_stmt 1 view .LVU245
 888              		.loc 1 593 8 is_stmt 0 view .LVU246
 889 0008 03B1     		cbz	r3, .L120
 890              		.loc 1 594 13 view .LVU247
 891 000a 1C60     		str	r4, [r3]
 892              	.L120:
 893              		.loc 1 598 8 view .LVU248
 894 000c 0C40     		ands	r4, r4, r1
 895              	.LVL90:
 896              		.loc 1 598 8 view .LVU249
 897 000e F9D1     		bne	.L130
 898              		.loc 1 599 14 view .LVU250
 899 0010 2046     		mov	r0, r4
 900              	.LVL91:
 901              		.loc 1 599 14 view .LVU251
 902              	.LBE144:
 903              		.loc 1 604 1 view .LVU252
 904 0012 5DF8044B 		ldr	r4, [sp], #4
 905              		.cfi_remember_state
 906              		.cfi_restore 4
 907              		.cfi_def_cfa_offset 0
 908 0016 7047     		bx	lr
 909              	.LVL92:
 910              	.L129:
 911              		.cfi_restore_state
 912              		.loc 1 603 10 view .LVU253
ARM GAS  C:\Users\DEVELO~1\AppData\Local\Temp\ccNqWhix.s 			page 17


 913 0018 0120     		movs	r0, #1
 914              	.LVL93:
 915              		.loc 1 604 1 view .LVU254
 916 001a 5DF8044B 		ldr	r4, [sp], #4
 917              		.cfi_restore 4
 918              		.cfi_def_cfa_offset 0
 919 001e 7047     		bx	lr
 920              		.cfi_endproc
 921              	.LFE463:
 922              		.size	halRegWaitAllClear32X, .-halRegWaitAllClear32X
 923              		.section	.text.halRegWaitAnyClear8X,"ax",%progbits
 924              		.align	1
 925              		.p2align 2,,3
 926              		.global	halRegWaitAnyClear8X
 927              		.syntax unified
 928              		.thumb
 929              		.thumb_func
 930              		.type	halRegWaitAnyClear8X, %function
 931              	halRegWaitAnyClear8X:
 932              	.LFB464:
 933              		.loc 1 623 56 is_stmt 1 view -0
 934              		.cfi_startproc
 935              		@ args = 0, pretend = 0, frame = 0
 936              		@ frame_needed = 0, uses_anonymous_args = 0
 937              		@ link register save eliminated.
 938              	.LVL94:
 939              	.L134:
 940              		.loc 1 632 3 view .LVU256
 941              	.LBB145:
 942              		.loc 1 634 5 view .LVU257
 943              		.loc 1 636 7 view .LVU258
 944              		.loc 1 640 5 view .LVU259
 945              	.LBE145:
 946              		.loc 1 643 12 view .LVU260
 947              	.LBB146:
 948              		.loc 1 634 13 is_stmt 0 view .LVU261
 949 0000 90F800C0 		ldrb	ip, [r0]	@ zero_extendqisi2
 950 0004 5FFA8CFC 		uxtb	ip, ip
 951              	.LVL95:
 952              		.loc 1 635 5 is_stmt 1 view .LVU262
 953              		.loc 1 635 8 is_stmt 0 view .LVU263
 954 0008 0BB1     		cbz	r3, .L132
 955              		.loc 1 636 13 view .LVU264
 956 000a 83F800C0 		strb	ip, [r3]
 957              	.L132:
 958              		.loc 1 640 8 view .LVU265
 959 000e 31EA0C0C 		bics	ip, r1, ip
 960              	.LVL96:
 961              		.loc 1 640 8 view .LVU266
 962 0012 03D1     		bne	.L135
 963              	.LBE146:
 964              		.loc 1 643 12 view .LVU267
 965 0014 002A     		cmp	r2, #0
 966 0016 F3D1     		bne	.L134
 967              		.loc 1 645 10 view .LVU268
 968 0018 0120     		movs	r0, #1
 969              	.LVL97:
ARM GAS  C:\Users\DEVELO~1\AppData\Local\Temp\ccNqWhix.s 			page 18


 970              		.loc 1 645 10 view .LVU269
 971 001a 7047     		bx	lr
 972              	.LVL98:
 973              	.L135:
 974              	.LBB147:
 975              		.loc 1 641 14 view .LVU270
 976 001c 0020     		movs	r0, #0
 977              	.LVL99:
 978              		.loc 1 641 14 view .LVU271
 979              	.LBE147:
 980              		.loc 1 646 1 view .LVU272
 981 001e 7047     		bx	lr
 982              		.cfi_endproc
 983              	.LFE464:
 984              		.size	halRegWaitAnyClear8X, .-halRegWaitAnyClear8X
 985              		.section	.text.halRegWaitAnyClear16X,"ax",%progbits
 986              		.align	1
 987              		.p2align 2,,3
 988              		.global	halRegWaitAnyClear16X
 989              		.syntax unified
 990              		.thumb
 991              		.thumb_func
 992              		.type	halRegWaitAnyClear16X, %function
 993              	halRegWaitAnyClear16X:
 994              	.LFB465:
 995              		.loc 1 665 58 is_stmt 1 view -0
 996              		.cfi_startproc
 997              		@ args = 0, pretend = 0, frame = 0
 998              		@ frame_needed = 0, uses_anonymous_args = 0
 999              		@ link register save eliminated.
 1000              	.LVL100:
 1001              	.L143:
 1002              		.loc 1 674 3 view .LVU274
 1003              	.LBB148:
 1004              		.loc 1 676 5 view .LVU275
 1005              		.loc 1 678 7 view .LVU276
 1006              		.loc 1 682 5 view .LVU277
 1007              	.LBE148:
 1008              		.loc 1 685 12 view .LVU278
 1009              	.LBB149:
 1010              		.loc 1 676 14 is_stmt 0 view .LVU279
 1011 0000 B0F800C0 		ldrh	ip, [r0]
 1012 0004 1FFA8CFC 		uxth	ip, ip
 1013              	.LVL101:
 1014              		.loc 1 677 5 is_stmt 1 view .LVU280
 1015              		.loc 1 677 8 is_stmt 0 view .LVU281
 1016 0008 0BB1     		cbz	r3, .L141
 1017              		.loc 1 678 13 view .LVU282
 1018 000a A3F800C0 		strh	ip, [r3]	@ movhi
 1019              	.L141:
 1020              		.loc 1 682 8 view .LVU283
 1021 000e 31EA0C0C 		bics	ip, r1, ip
 1022              	.LVL102:
 1023              		.loc 1 682 8 view .LVU284
 1024 0012 03D1     		bne	.L144
 1025              	.LBE149:
 1026              		.loc 1 685 12 view .LVU285
ARM GAS  C:\Users\DEVELO~1\AppData\Local\Temp\ccNqWhix.s 			page 19


 1027 0014 002A     		cmp	r2, #0
 1028 0016 F3D1     		bne	.L143
 1029              		.loc 1 687 10 view .LVU286
 1030 0018 0120     		movs	r0, #1
 1031              	.LVL103:
 1032              		.loc 1 687 10 view .LVU287
 1033 001a 7047     		bx	lr
 1034              	.LVL104:
 1035              	.L144:
 1036              	.LBB150:
 1037              		.loc 1 683 14 view .LVU288
 1038 001c 0020     		movs	r0, #0
 1039              	.LVL105:
 1040              		.loc 1 683 14 view .LVU289
 1041              	.LBE150:
 1042              		.loc 1 688 1 view .LVU290
 1043 001e 7047     		bx	lr
 1044              		.cfi_endproc
 1045              	.LFE465:
 1046              		.size	halRegWaitAnyClear16X, .-halRegWaitAnyClear16X
 1047              		.section	.text.halRegWaitAnyClear32X,"ax",%progbits
 1048              		.align	1
 1049              		.p2align 2,,3
 1050              		.global	halRegWaitAnyClear32X
 1051              		.syntax unified
 1052              		.thumb
 1053              		.thumb_func
 1054              		.type	halRegWaitAnyClear32X, %function
 1055              	halRegWaitAnyClear32X:
 1056              	.LFB466:
 1057              		.loc 1 707 58 is_stmt 1 view -0
 1058              		.cfi_startproc
 1059              		@ args = 0, pretend = 0, frame = 0
 1060              		@ frame_needed = 0, uses_anonymous_args = 0
 1061              		@ link register save eliminated.
 1062              	.LVL106:
 1063              		.loc 1 707 58 is_stmt 0 view .LVU292
 1064 0000 10B4     		push	{r4}
 1065              		.cfi_def_cfa_offset 4
 1066              		.cfi_offset 4, -4
 1067 0002 00E0     		b	.L152
 1068              	.LVL107:
 1069              	.L160:
 1070              		.loc 1 727 12 view .LVU293
 1071 0004 4AB1     		cbz	r2, .L159
 1072              	.LVL108:
 1073              	.L152:
 1074              		.loc 1 716 3 is_stmt 1 view .LVU294
 1075              	.LBB151:
 1076              		.loc 1 718 5 view .LVU295
 1077              		.loc 1 720 7 view .LVU296
 1078              		.loc 1 724 5 view .LVU297
 1079              	.LBE151:
 1080              		.loc 1 727 12 view .LVU298
 1081              	.LBB152:
 1082              		.loc 1 718 14 is_stmt 0 view .LVU299
 1083 0006 0468     		ldr	r4, [r0]
ARM GAS  C:\Users\DEVELO~1\AppData\Local\Temp\ccNqWhix.s 			page 20


 1084              	.LVL109:
 1085              		.loc 1 719 5 is_stmt 1 view .LVU300
 1086              		.loc 1 719 8 is_stmt 0 view .LVU301
 1087 0008 03B1     		cbz	r3, .L150
 1088              		.loc 1 720 13 view .LVU302
 1089 000a 1C60     		str	r4, [r3]
 1090              	.L150:
 1091              		.loc 1 724 8 view .LVU303
 1092 000c 31EA0404 		bics	r4, r1, r4
 1093              	.LVL110:
 1094              		.loc 1 724 8 view .LVU304
 1095 0010 F8D0     		beq	.L160
 1096              		.loc 1 725 14 view .LVU305
 1097 0012 0020     		movs	r0, #0
 1098              	.LVL111:
 1099              		.loc 1 725 14 view .LVU306
 1100              	.LBE152:
 1101              		.loc 1 730 1 view .LVU307
 1102 0014 5DF8044B 		ldr	r4, [sp], #4
 1103              		.cfi_remember_state
 1104              		.cfi_restore 4
 1105              		.cfi_def_cfa_offset 0
 1106 0018 7047     		bx	lr
 1107              	.LVL112:
 1108              	.L159:
 1109              		.cfi_restore_state
 1110              		.loc 1 729 10 view .LVU308
 1111 001a 0120     		movs	r0, #1
 1112              	.LVL113:
 1113              		.loc 1 730 1 view .LVU309
 1114 001c 5DF8044B 		ldr	r4, [sp], #4
 1115              		.cfi_restore 4
 1116              		.cfi_def_cfa_offset 0
 1117 0020 7047     		bx	lr
 1118              		.cfi_endproc
 1119              	.LFE466:
 1120              		.size	halRegWaitAnyClear32X, .-halRegWaitAnyClear32X
 1121 0022 00BF     		.text
 1122              	.Letext0:
 1123              		.file 3 "c:\\chibistudio\\tools\\gnu tools arm embedded\\11.3 2022.08\\arm-none-eabi\\include\\mac
 1124              		.file 4 "c:\\chibistudio\\tools\\gnu tools arm embedded\\11.3 2022.08\\arm-none-eabi\\include\\sys
 1125              		.file 5 "../../../os/rt/include/chearly.h"