ARM GAS  C:\Users\DEVELO~1\AppData\Local\Temp\ccSISJ8X.s 			page 1


   1              		.cpu cortex-m7
   2              		.arch armv7e-m
   3              		.fpu fpv5-d16
   4              		.eabi_attribute 28, 1
   5              		.eabi_attribute 20, 1
   6              		.eabi_attribute 21, 1
   7              		.eabi_attribute 23, 3
   8              		.eabi_attribute 24, 1
   9              		.eabi_attribute 25, 1
  10              		.eabi_attribute 26, 1
  11              		.eabi_attribute 30, 2
  12              		.eabi_attribute 34, 1
  13              		.eabi_attribute 18, 4
  14              		.file	"hal_pwm_lld.c"
  15              		.text
  16              	.Ltext0:
  17              		.cfi_sections	.debug_frame
  18              		.section	.text.pwm_lld_init,"ax",%progbits
  19              		.align	1
  20              		.p2align 2,,3
  21              		.global	pwm_lld_init
  22              		.syntax unified
  23              		.thumb
  24              		.thumb_func
  25              		.type	pwm_lld_init, %function
  26              	pwm_lld_init:
  27              	.LFB448:
  28              		.file 1 "../../../os/hal/ports/STM32/LLD/TIMv1/hal_pwm_lld.c"
  29              		.loc 1 446 25 view -0
  30              		.cfi_startproc
  31              		@ args = 0, pretend = 0, frame = 0
  32              		@ frame_needed = 0, uses_anonymous_args = 0
  33              		.loc 1 490 3 view .LVU1
  34              		.loc 1 446 25 is_stmt 0 view .LVU2
  35 0000 10B5     		push	{r4, lr}
  36              		.cfi_def_cfa_offset 8
  37              		.cfi_offset 4, -8
  38              		.cfi_offset 14, -4
  39              		.loc 1 490 3 view .LVU3
  40 0002 054C     		ldr	r4, .L4
  41 0004 2046     		mov	r0, r4
  42 0006 FFF7FEFF 		bl	pwmObjectInit
  43              	.LVL0:
  44              		.loc 1 491 3 is_stmt 1 view .LVU4
  45              		.loc 1 491 18 is_stmt 0 view .LVU5
  46 000a 0621     		movs	r1, #6
  47              		.loc 1 492 13 view .LVU6
  48 000c 034A     		ldr	r2, .L4+4
  49              		.loc 1 493 18 view .LVU7
  50 000e 0123     		movs	r3, #1
  51              		.loc 1 491 18 view .LVU8
  52 0010 2174     		strb	r1, [r4, #16]
  53              		.loc 1 492 3 is_stmt 1 view .LVU9
  54              		.loc 1 492 13 is_stmt 0 view .LVU10
  55 0012 E261     		str	r2, [r4, #28]
  56              		.loc 1 493 3 is_stmt 1 view .LVU11
  57              		.loc 1 493 18 is_stmt 0 view .LVU12
ARM GAS  C:\Users\DEVELO~1\AppData\Local\Temp\ccSISJ8X.s 			page 2


  58 0014 2376     		strb	r3, [r4, #24]
  59              		.loc 1 591 1 view .LVU13
  60 0016 10BD     		pop	{r4, pc}
  61              	.L5:
  62              		.align	2
  63              	.L4:
  64 0018 00000000 		.word	.LANCHOR0
  65 001c 00040140 		.word	1073808384
  66              		.cfi_endproc
  67              	.LFE448:
  68              		.size	pwm_lld_init, .-pwm_lld_init
  69              		.section	.text.pwm_lld_start,"ax",%progbits
  70              		.align	1
  71              		.p2align 2,,3
  72              		.global	pwm_lld_start
  73              		.syntax unified
  74              		.thumb
  75              		.thumb_func
  76              		.type	pwm_lld_start, %function
  77              	pwm_lld_start:
  78              	.LVL1:
  79              	.LFB449:
  80              		.loc 1 602 37 is_stmt 1 view -0
  81              		.cfi_startproc
  82              		@ args = 0, pretend = 0, frame = 0
  83              		@ frame_needed = 0, uses_anonymous_args = 0
  84              		@ link register save eliminated.
  85              		.loc 1 603 3 view .LVU15
  86              		.loc 1 604 3 view .LVU16
  87              		.loc 1 606 3 view .LVU17
  88              		.loc 1 602 37 is_stmt 0 view .LVU18
  89 0000 F0B4     		push	{r4, r5, r6, r7}
  90              		.cfi_def_cfa_offset 16
  91              		.cfi_offset 4, -16
  92              		.cfi_offset 5, -12
  93              		.cfi_offset 6, -8
  94              		.cfi_offset 7, -4
  95              		.loc 1 606 6 view .LVU19
  96 0002 0378     		ldrb	r3, [r0]	@ zero_extendqisi2
  97 0004 012B     		cmp	r3, #1
  98 0006 00F09D80 		beq	.L68
  99              		.loc 1 857 5 is_stmt 1 view .LVU20
 100              		.loc 1 857 9 is_stmt 0 view .LVU21
 101 000a C369     		ldr	r3, [r0, #28]
 102              		.loc 1 857 23 view .LVU22
 103 000c 0022     		movs	r2, #0
 104 000e 1A60     		str	r2, [r3]
 105              		.loc 1 858 5 is_stmt 1 view .LVU23
 106              		.loc 1 858 23 is_stmt 0 view .LVU24
 107 0010 5A63     		str	r2, [r3, #52]
 108              		.loc 1 859 5 is_stmt 1 view .LVU25
 109              		.loc 1 859 23 is_stmt 0 view .LVU26
 110 0012 9A63     		str	r2, [r3, #56]
 111              		.loc 1 860 5 is_stmt 1 view .LVU27
 112              		.loc 1 860 23 is_stmt 0 view .LVU28
 113 0014 DA63     		str	r2, [r3, #60]
 114              		.loc 1 861 5 is_stmt 1 view .LVU29
ARM GAS  C:\Users\DEVELO~1\AppData\Local\Temp\ccSISJ8X.s 			page 3


 115              		.loc 1 861 23 is_stmt 0 view .LVU30
 116 0016 1A64     		str	r2, [r3, #64]
 117              		.loc 1 863 5 is_stmt 1 view .LVU31
 118              		.loc 1 863 8 is_stmt 0 view .LVU32
 119 0018 017C     		ldrb	r1, [r0, #16]	@ zero_extendqisi2
 120 001a 0429     		cmp	r1, #4
 121 001c 70D8     		bhi	.L69
 122              	.L10:
 123              		.loc 1 868 5 is_stmt 1 view .LVU33
 124              		.loc 1 868 21 is_stmt 0 view .LVU34
 125 001e 0022     		movs	r2, #0
 126 0020 5A62     		str	r2, [r3, #36]
 127              	.L9:
 128              		.loc 1 872 3 is_stmt 1 view .LVU35
 129              		.loc 1 872 28 is_stmt 0 view .LVU36
 130 0022 4168     		ldr	r1, [r0, #4]
 131              		.loc 1 872 22 view .LVU37
 132 0024 4269     		ldr	r2, [r0, #20]
 133 0026 0C68     		ldr	r4, [r1]
 134              		.loc 1 882 36 view .LVU38
 135 0028 CE68     		ldr	r6, [r1, #12]
 136              		.loc 1 872 22 view .LVU39
 137 002a B2FBF4F2 		udiv	r2, r2, r4
 138              		.loc 1 877 34 view .LVU40
 139 002e 8468     		ldr	r4, [r0, #8]
 140              		.loc 1 872 7 view .LVU41
 141 0030 013A     		subs	r2, r2, #1
 142              	.LVL2:
 143              		.loc 1 873 3 is_stmt 1 view .LVU42
 144              		.loc 1 873 3 view .LVU43
 145              		.loc 1 873 3 view .LVU44
 146              		.loc 1 876 3 view .LVU45
 147              		.loc 1 877 34 is_stmt 0 view .LVU46
 148 0032 013C     		subs	r4, r4, #1
 149              		.loc 1 876 19 view .LVU47
 150 0034 9A62     		str	r2, [r3, #40]
 151              		.loc 1 877 3 is_stmt 1 view .LVU48
 152              		.loc 1 878 33 is_stmt 0 view .LVU49
 153 0036 CA6B     		ldr	r2, [r1, #60]
 154              	.LVL3:
 155              		.loc 1 877 19 view .LVU50
 156 0038 DC62     		str	r4, [r3, #44]
 157              	.LVL4:
 158              		.loc 1 878 3 is_stmt 1 view .LVU51
 159              		.loc 1 878 19 is_stmt 0 view .LVU52
 160 003a 5A60     		str	r2, [r3, #4]
 161              		.loc 1 881 3 is_stmt 1 view .LVU53
 162              	.LVL5:
 163              		.loc 1 882 3 view .LVU54
 164              		.loc 1 882 42 is_stmt 0 view .LVU55
 165 003c 06F00F02 		and	r2, r6, #15
 166              		.loc 1 882 3 view .LVU56
 167 0040 012A     		cmp	r2, #1
 168 0042 03D0     		beq	.L12
 169 0044 022A     		cmp	r2, #2
 170 0046 14BF     		ite	ne
 171 0048 0022     		movne	r2, #0
ARM GAS  C:\Users\DEVELO~1\AppData\Local\Temp\ccSISJ8X.s 			page 4


 172 004a 0322     		moveq	r2, #3
 173              	.L12:
 174              	.LVL6:
 175              		.loc 1 890 5 is_stmt 1 view .LVU57
 176              		.loc 1 892 3 view .LVU58
 177              		.loc 1 892 36 is_stmt 0 view .LVU59
 178 004c 4D69     		ldr	r5, [r1, #20]
 179              		.loc 1 892 42 view .LVU60
 180 004e 05F00F04 		and	r4, r5, #15
 181              		.loc 1 892 3 view .LVU61
 182 0052 012C     		cmp	r4, #1
 183 0054 03D0     		beq	.L13
 184 0056 022C     		cmp	r4, #2
 185 0058 03D1     		bne	.L14
 186              		.loc 1 894 5 is_stmt 1 view .LVU62
 187              		.loc 1 894 10 is_stmt 0 view .LVU63
 188 005a 42F02002 		orr	r2, r2, #32
 189              	.LVL7:
 190              	.L13:
 191              		.loc 1 897 5 is_stmt 1 view .LVU64
 192              		.loc 1 897 10 is_stmt 0 view .LVU65
 193 005e 42F01002 		orr	r2, r2, #16
 194              	.LVL8:
 195              	.L14:
 196              		.loc 1 900 5 is_stmt 1 view .LVU66
 197              		.loc 1 902 3 view .LVU67
 198              		.loc 1 902 36 is_stmt 0 view .LVU68
 199 0062 CC69     		ldr	r4, [r1, #28]
 200              		.loc 1 902 42 view .LVU69
 201 0064 04F00F07 		and	r7, r4, #15
 202              		.loc 1 902 3 view .LVU70
 203 0068 012F     		cmp	r7, #1
 204 006a 03D0     		beq	.L15
 205              		.loc 1 902 3 view .LVU71
 206 006c 022F     		cmp	r7, #2
 207 006e 03D1     		bne	.L16
 208              		.loc 1 904 5 is_stmt 1 view .LVU72
 209              		.loc 1 904 10 is_stmt 0 view .LVU73
 210 0070 42F40072 		orr	r2, r2, #512
 211              	.LVL9:
 212              	.L15:
 213              		.loc 1 907 5 is_stmt 1 view .LVU74
 214              		.loc 1 907 10 is_stmt 0 view .LVU75
 215 0074 42F48072 		orr	r2, r2, #256
 216              	.LVL10:
 217              	.L16:
 218              		.loc 1 910 5 is_stmt 1 view .LVU76
 219              		.loc 1 912 3 view .LVU77
 220              		.loc 1 912 36 is_stmt 0 view .LVU78
 221 0078 4F6A     		ldr	r7, [r1, #36]
 222              		.loc 1 912 42 view .LVU79
 223 007a 07F00F0C 		and	ip, r7, #15
 224              		.loc 1 912 3 view .LVU80
 225 007e BCF1010F 		cmp	ip, #1
 226 0082 04D0     		beq	.L17
 227              		.loc 1 912 3 view .LVU81
 228 0084 BCF1020F 		cmp	ip, #2
ARM GAS  C:\Users\DEVELO~1\AppData\Local\Temp\ccSISJ8X.s 			page 5


 229 0088 03D1     		bne	.L18
 230              		.loc 1 914 5 is_stmt 1 view .LVU82
 231              		.loc 1 914 10 is_stmt 0 view .LVU83
 232 008a 42F40052 		orr	r2, r2, #8192
 233              	.LVL11:
 234              	.L17:
 235              		.loc 1 917 5 is_stmt 1 view .LVU84
 236              		.loc 1 917 10 is_stmt 0 view .LVU85
 237 008e 42F48052 		orr	r2, r2, #4096
 238              	.LVL12:
 239              	.L18:
 240              		.loc 1 920 5 is_stmt 1 view .LVU86
 241              		.loc 1 922 3 view .LVU87
 242              		.loc 1 922 6 is_stmt 0 view .LVU88
 243 0092 007E     		ldrb	r0, [r0, #24]	@ zero_extendqisi2
 244              	.LVL13:
 245              		.loc 1 922 6 view .LVU89
 246 0094 40B3     		cbz	r0, .L19
 247              		.loc 1 923 5 is_stmt 1 view .LVU90
 248              		.loc 1 923 44 is_stmt 0 view .LVU91
 249 0096 06F0F006 		and	r6, r6, #240
 250              		.loc 1 923 5 view .LVU92
 251 009a 102E     		cmp	r6, #16
 252 009c 3ED0     		beq	.L20
 253 009e 202E     		cmp	r6, #32
 254 00a0 3AD0     		beq	.L70
 255              		.loc 1 931 7 is_stmt 1 view .LVU93
 256              		.loc 1 933 5 view .LVU94
 257              		.loc 1 933 44 is_stmt 0 view .LVU95
 258 00a2 05F0F005 		and	r5, r5, #240
 259              		.loc 1 933 5 view .LVU96
 260 00a6 102D     		cmp	r5, #16
 261 00a8 2FD0     		beq	.L22
 262              	.L74:
 263              		.loc 1 933 5 view .LVU97
 264 00aa 202D     		cmp	r5, #32
 265 00ac 2BD0     		beq	.L71
 266              		.loc 1 941 7 is_stmt 1 view .LVU98
 267              		.loc 1 943 5 view .LVU99
 268              		.loc 1 943 44 is_stmt 0 view .LVU100
 269 00ae 04F0F004 		and	r4, r4, #240
 270              		.loc 1 943 5 view .LVU101
 271 00b2 102C     		cmp	r4, #16
 272 00b4 3BD0     		beq	.L24
 273              	.L73:
 274              		.loc 1 943 5 view .LVU102
 275 00b6 202C     		cmp	r4, #32
 276 00b8 37D0     		beq	.L72
 277              		.loc 1 951 7 is_stmt 1 view .LVU103
 278              		.loc 1 953 5 view .LVU104
 279              		.loc 1 953 44 is_stmt 0 view .LVU105
 280 00ba 07F0F007 		and	r7, r7, #240
 281              		.loc 1 953 5 view .LVU106
 282 00be 102F     		cmp	r7, #16
 283 00c0 3BD1     		bne	.L67
 284              	.L26:
 285              		.loc 1 958 7 is_stmt 1 view .LVU107
ARM GAS  C:\Users\DEVELO~1\AppData\Local\Temp\ccSISJ8X.s 			page 6


 286              		.loc 1 968 41 is_stmt 0 view .LVU108
 287 00c2 486C     		ldr	r0, [r1, #68]
 288              		.loc 1 958 12 view .LVU109
 289 00c4 42F48042 		orr	r2, r2, #16384
 290              	.LVL14:
 291              		.loc 1 961 7 is_stmt 1 view .LVU110
 292              		.loc 1 965 3 view .LVU111
 293              		.loc 1 966 20 is_stmt 0 view .LVU112
 294 00c8 0124     		movs	r4, #1
 295              		.loc 1 965 20 view .LVU113
 296 00ca 1A62     		str	r2, [r3, #32]
 297              		.loc 1 966 3 is_stmt 1 view .LVU114
 298              		.loc 1 968 41 is_stmt 0 view .LVU115
 299 00cc 20F0FF00 		bic	r0, r0, #255
 300              		.loc 1 967 20 view .LVU116
 301 00d0 0022     		movs	r2, #0
 302              	.LVL15:
 303              		.loc 1 966 20 view .LVU117
 304 00d2 5C61     		str	r4, [r3, #20]
 305              	.LVL16:
 306              		.loc 1 967 3 is_stmt 1 view .LVU118
 307              		.loc 1 967 20 is_stmt 0 view .LVU119
 308 00d4 1A61     		str	r2, [r3, #16]
 309              		.loc 1 968 3 is_stmt 1 view .LVU120
 310              		.loc 1 968 20 is_stmt 0 view .LVU121
 311 00d6 D860     		str	r0, [r3, #12]
 312              	.LVL17:
 313              		.loc 1 970 3 is_stmt 1 view .LVU122
 314              	.L30:
 315              		.loc 1 971 5 view .LVU123
 316              		.loc 1 971 43 is_stmt 0 view .LVU124
 317 00d8 0A6C     		ldr	r2, [r1, #64]
 318 00da 42F40042 		orr	r2, r2, #32768
 319              		.loc 1 971 22 view .LVU125
 320 00de 5A64     		str	r2, [r3, #68]
 321              		.loc 1 974 3 is_stmt 1 view .LVU126
 322              		.loc 1 974 20 is_stmt 0 view .LVU127
 323 00e0 8522     		movs	r2, #133
 324              		.loc 1 976 1 view .LVU128
 325 00e2 F0BC     		pop	{r4, r5, r6, r7}
 326              		.cfi_remember_state
 327              		.cfi_restore 7
 328              		.cfi_restore 6
 329              		.cfi_restore 5
 330              		.cfi_restore 4
 331              		.cfi_def_cfa_offset 0
 332              		.loc 1 974 20 view .LVU129
 333 00e4 1A60     		str	r2, [r3]
 334              		.loc 1 976 1 view .LVU130
 335 00e6 7047     		bx	lr
 336              	.LVL18:
 337              	.L19:
 338              		.cfi_restore_state
 339              		.loc 1 961 7 is_stmt 1 view .LVU131
 340              		.loc 1 965 3 view .LVU132
 341              		.loc 1 968 41 is_stmt 0 view .LVU133
 342 00e8 496C     		ldr	r1, [r1, #68]
ARM GAS  C:\Users\DEVELO~1\AppData\Local\Temp\ccSISJ8X.s 			page 7


 343              	.LVL19:
 344              		.loc 1 966 20 view .LVU134
 345 00ea 0124     		movs	r4, #1
 346              		.loc 1 965 20 view .LVU135
 347 00ec 1A62     		str	r2, [r3, #32]
 348              		.loc 1 966 3 is_stmt 1 view .LVU136
 349              		.loc 1 974 20 is_stmt 0 view .LVU137
 350 00ee 8522     		movs	r2, #133
 351              	.LVL20:
 352              		.loc 1 968 41 view .LVU138
 353 00f0 21F0FF01 		bic	r1, r1, #255
 354              		.loc 1 966 20 view .LVU139
 355 00f4 5C61     		str	r4, [r3, #20]
 356              	.LVL21:
 357              		.loc 1 967 3 is_stmt 1 view .LVU140
 358              		.loc 1 967 20 is_stmt 0 view .LVU141
 359 00f6 1861     		str	r0, [r3, #16]
 360              		.loc 1 968 3 is_stmt 1 view .LVU142
 361              		.loc 1 968 20 is_stmt 0 view .LVU143
 362 00f8 D960     		str	r1, [r3, #12]
 363              		.loc 1 970 3 is_stmt 1 view .LVU144
 364              		.loc 1 974 3 view .LVU145
 365              		.loc 1 974 20 is_stmt 0 view .LVU146
 366 00fa 1A60     		str	r2, [r3]
 367              		.loc 1 976 1 view .LVU147
 368 00fc F0BC     		pop	{r4, r5, r6, r7}
 369              		.cfi_remember_state
 370              		.cfi_restore 7
 371              		.cfi_restore 6
 372              		.cfi_restore 5
 373              		.cfi_restore 4
 374              		.cfi_def_cfa_offset 0
 375 00fe 7047     		bx	lr
 376              	.LVL22:
 377              	.L69:
 378              		.cfi_restore_state
 379              		.loc 1 864 7 is_stmt 1 view .LVU148
 380              		.loc 1 864 26 is_stmt 0 view .LVU149
 381 0100 9A65     		str	r2, [r3, #88]
 382              		.loc 1 865 7 is_stmt 1 view .LVU150
 383              		.loc 1 865 26 is_stmt 0 view .LVU151
 384 0102 DA65     		str	r2, [r3, #92]
 385 0104 8BE7     		b	.L10
 386              	.LVL23:
 387              	.L71:
 388              		.loc 1 935 7 is_stmt 1 view .LVU152
 389              		.loc 1 935 12 is_stmt 0 view .LVU153
 390 0106 42F08002 		orr	r2, r2, #128
 391              	.LVL24:
 392              	.L22:
 393              		.loc 1 938 7 is_stmt 1 view .LVU154
 394              		.loc 1 943 44 is_stmt 0 view .LVU155
 395 010a 04F0F004 		and	r4, r4, #240
 396              		.loc 1 938 12 view .LVU156
 397 010e 42F04002 		orr	r2, r2, #64
 398              	.LVL25:
 399              		.loc 1 941 7 is_stmt 1 view .LVU157
ARM GAS  C:\Users\DEVELO~1\AppData\Local\Temp\ccSISJ8X.s 			page 8


 400              		.loc 1 943 5 view .LVU158
 401 0112 102C     		cmp	r4, #16
 402 0114 CFD1     		bne	.L73
 403 0116 0AE0     		b	.L24
 404              	.L70:
 405              		.loc 1 925 7 view .LVU159
 406              		.loc 1 925 12 is_stmt 0 view .LVU160
 407 0118 42F00802 		orr	r2, r2, #8
 408              	.LVL26:
 409              	.L20:
 410              		.loc 1 928 7 is_stmt 1 view .LVU161
 411              		.loc 1 933 44 is_stmt 0 view .LVU162
 412 011c 05F0F005 		and	r5, r5, #240
 413              		.loc 1 928 12 view .LVU163
 414 0120 42F00402 		orr	r2, r2, #4
 415              	.LVL27:
 416              		.loc 1 931 7 is_stmt 1 view .LVU164
 417              		.loc 1 933 5 view .LVU165
 418 0124 102D     		cmp	r5, #16
 419 0126 C0D1     		bne	.L74
 420 0128 EFE7     		b	.L22
 421              	.L72:
 422              		.loc 1 945 7 view .LVU166
 423              		.loc 1 945 12 is_stmt 0 view .LVU167
 424 012a 42F40062 		orr	r2, r2, #2048
 425              	.LVL28:
 426              	.L24:
 427              		.loc 1 948 7 is_stmt 1 view .LVU168
 428              		.loc 1 953 44 is_stmt 0 view .LVU169
 429 012e 07F0F007 		and	r7, r7, #240
 430              		.loc 1 948 12 view .LVU170
 431 0132 42F48062 		orr	r2, r2, #1024
 432              	.LVL29:
 433              		.loc 1 951 7 is_stmt 1 view .LVU171
 434              		.loc 1 953 5 view .LVU172
 435 0136 102F     		cmp	r7, #16
 436 0138 C3D0     		beq	.L26
 437              	.L67:
 438              		.loc 1 953 5 is_stmt 0 view .LVU173
 439 013a 202F     		cmp	r7, #32
 440 013c 0DD1     		bne	.L29
 441              		.loc 1 955 7 is_stmt 1 view .LVU174
 442              		.loc 1 955 12 is_stmt 0 view .LVU175
 443 013e 42F40042 		orr	r2, r2, #32768
 444              	.LVL30:
 445              		.loc 1 955 12 view .LVU176
 446 0142 BEE7     		b	.L26
 447              	.LVL31:
 448              	.L68:
 449              		.loc 1 685 5 is_stmt 1 view .LVU177
 450              		.loc 1 685 8 is_stmt 0 view .LVU178
 451 0144 1A4B     		ldr	r3, .L76
 452 0146 9842     		cmp	r0, r3
 453 0148 11D0     		beq	.L75
 454              	.L8:
 455              		.loc 1 846 5 is_stmt 1 view .LVU179
 456              		.loc 1 846 9 is_stmt 0 view .LVU180
ARM GAS  C:\Users\DEVELO~1\AppData\Local\Temp\ccSISJ8X.s 			page 9


 457 014a C369     		ldr	r3, [r0, #28]
 458              		.loc 1 846 22 view .LVU181
 459 014c 46F66802 		movw	r2, #26728
 460              		.loc 1 851 22 view .LVU182
 461 0150 1849     		ldr	r1, .L76+4
 462              		.loc 1 846 22 view .LVU183
 463 0152 9A61     		str	r2, [r3, #24]
 464              		.loc 1 848 5 is_stmt 1 view .LVU184
 465              		.loc 1 848 22 is_stmt 0 view .LVU185
 466 0154 DA61     		str	r2, [r3, #28]
 467              		.loc 1 851 5 is_stmt 1 view .LVU186
 468              		.loc 1 851 22 is_stmt 0 view .LVU187
 469 0156 5965     		str	r1, [r3, #84]
 470 0158 63E7     		b	.L9
 471              	.LVL32:
 472              	.L29:
 473              		.loc 1 961 7 is_stmt 1 view .LVU188
 474              		.loc 1 965 3 view .LVU189
 475              		.loc 1 968 41 is_stmt 0 view .LVU190
 476 015a 486C     		ldr	r0, [r1, #68]
 477              		.loc 1 966 20 view .LVU191
 478 015c 0125     		movs	r5, #1
 479              		.loc 1 967 20 view .LVU192
 480 015e 0024     		movs	r4, #0
 481              		.loc 1 965 20 view .LVU193
 482 0160 1A62     		str	r2, [r3, #32]
 483              	.LVL33:
 484              		.loc 1 966 3 is_stmt 1 view .LVU194
 485              		.loc 1 968 41 is_stmt 0 view .LVU195
 486 0162 20F0FF00 		bic	r0, r0, #255
 487              		.loc 1 966 20 view .LVU196
 488 0166 5D61     		str	r5, [r3, #20]
 489              		.loc 1 967 3 is_stmt 1 view .LVU197
 490              		.loc 1 967 20 is_stmt 0 view .LVU198
 491 0168 1C61     		str	r4, [r3, #16]
 492              		.loc 1 968 3 is_stmt 1 view .LVU199
 493              		.loc 1 968 20 is_stmt 0 view .LVU200
 494 016a D860     		str	r0, [r3, #12]
 495              		.loc 1 970 3 is_stmt 1 view .LVU201
 496 016c B4E7     		b	.L30
 497              	.LVL34:
 498              	.L75:
 499              		.loc 1 686 7 view .LVU202
 500              	.LBB12:
 501              	.LBI12:
 502              		.file 2 "../../../os/hal/ports/STM32/STM32H7xx/stm32_rcc.h"
 503              		.loc 2 319 22 view .LVU203
 504              	.LBB13:
 505              		.loc 2 323 3 view .LVU204
 506              		.loc 2 323 19 is_stmt 0 view .LVU205
 507 016e 124B     		ldr	r3, .L76+8
 508              	.LBE13:
 509              	.LBE12:
 510              		.loc 1 695 19 view .LVU206
 511 0170 1249     		ldr	r1, .L76+12
 512              	.LBB15:
 513              	.LBB14:
ARM GAS  C:\Users\DEVELO~1\AppData\Local\Temp\ccSISJ8X.s 			page 10


 514              		.loc 2 323 19 view .LVU207
 515 0172 D3F8F020 		ldr	r2, [r3, #240]
 516 0176 42F00202 		orr	r2, r2, #2
 517 017a C3F8F020 		str	r2, [r3, #240]
 518              		.loc 2 324 3 is_stmt 1 view .LVU208
 519              		.loc 2 325 5 view .LVU209
 520              		.loc 2 325 23 is_stmt 0 view .LVU210
 521 017e D3F81821 		ldr	r2, [r3, #280]
 522 0182 42F00202 		orr	r2, r2, #2
 523 0186 C3F81821 		str	r2, [r3, #280]
 524              		.loc 2 330 3 is_stmt 1 view .LVU211
 525 018a D3F81821 		ldr	r2, [r3, #280]
 526              	.LVL35:
 527              		.loc 2 330 3 is_stmt 0 view .LVU212
 528              	.LBE14:
 529              	.LBE15:
 530              		.loc 1 687 7 is_stmt 1 view .LVU213
 531              	.LBB16:
 532              	.LBI16:
 533              		.loc 2 385 22 view .LVU214
 534              		.loc 2 397 3 view .LVU215
 535              	.LBB17:
 536              	.LBI17:
 537              		.loc 2 73 22 view .LVU216
 538              	.LBB18:
 539              		.loc 2 76 3 view .LVU217
 540              		.loc 2 76 17 is_stmt 0 view .LVU218
 541 018e D3F89820 		ldr	r2, [r3, #152]
 542 0192 42F00202 		orr	r2, r2, #2
 543 0196 C3F89820 		str	r2, [r3, #152]
 544              		.loc 2 77 3 is_stmt 1 view .LVU219
 545              		.loc 2 77 17 is_stmt 0 view .LVU220
 546 019a D3F89820 		ldr	r2, [r3, #152]
 547 019e 22F00202 		bic	r2, r2, #2
 548 01a2 C3F89820 		str	r2, [r3, #152]
 549              		.loc 2 78 3 is_stmt 1 view .LVU221
 550 01a6 D3F89830 		ldr	r3, [r3, #152]
 551              	.LVL36:
 552              		.loc 2 78 3 is_stmt 0 view .LVU222
 553              	.LBE18:
 554              	.LBE17:
 555              	.LBE16:
 556              		.loc 1 695 7 is_stmt 1 view .LVU223
 557              		.loc 1 695 19 is_stmt 0 view .LVU224
 558 01aa 4161     		str	r1, [r0, #20]
 559 01ac CDE7     		b	.L8
 560              	.L77:
 561 01ae 00BF     		.align	2
 562              	.L76:
 563 01b0 00000000 		.word	.LANCHOR0
 564 01b4 68680101 		.word	16869480
 565 01b8 00440258 		.word	1476543488
 566 01bc 00D8B805 		.word	96000000
 567              		.cfi_endproc
 568              	.LFE449:
 569              		.size	pwm_lld_start, .-pwm_lld_start
 570              		.section	.text.pwm_lld_stop,"ax",%progbits
ARM GAS  C:\Users\DEVELO~1\AppData\Local\Temp\ccSISJ8X.s 			page 11


 571              		.align	1
 572              		.p2align 2,,3
 573              		.global	pwm_lld_stop
 574              		.syntax unified
 575              		.thumb
 576              		.thumb_func
 577              		.type	pwm_lld_stop, %function
 578              	pwm_lld_stop:
 579              	.LVL37:
 580              	.LFB450:
 581              		.loc 1 985 36 is_stmt 1 view -0
 582              		.cfi_startproc
 583              		@ args = 0, pretend = 0, frame = 0
 584              		@ frame_needed = 0, uses_anonymous_args = 0
 585              		@ link register save eliminated.
 586              		.loc 1 988 3 view .LVU226
 587              		.loc 1 988 6 is_stmt 0 view .LVU227
 588 0000 0378     		ldrb	r3, [r0]	@ zero_extendqisi2
 589 0002 022B     		cmp	r3, #2
 590 0004 00D0     		beq	.L86
 591              	.L78:
 592              		.loc 1 1124 1 view .LVU228
 593 0006 7047     		bx	lr
 594              	.L86:
 595              		.loc 1 989 5 is_stmt 1 view .LVU229
 596              		.loc 1 989 9 is_stmt 0 view .LVU230
 597 0008 C369     		ldr	r3, [r0, #28]
 598              		.loc 1 989 21 view .LVU231
 599 000a 0022     		movs	r2, #0
 600              		.loc 1 992 8 view .LVU232
 601 000c 017E     		ldrb	r1, [r0, #24]	@ zero_extendqisi2
 602              		.loc 1 989 21 view .LVU233
 603 000e 1A60     		str	r2, [r3]
 604              		.loc 1 990 5 is_stmt 1 view .LVU234
 605              		.loc 1 990 21 is_stmt 0 view .LVU235
 606 0010 DA60     		str	r2, [r3, #12]
 607              		.loc 1 991 5 is_stmt 1 view .LVU236
 608              		.loc 1 991 21 is_stmt 0 view .LVU237
 609 0012 1A61     		str	r2, [r3, #16]
 610              		.loc 1 992 5 is_stmt 1 view .LVU238
 611              		.loc 1 992 8 is_stmt 0 view .LVU239
 612 0014 01B1     		cbz	r1, .L81
 613              		.loc 1 993 7 is_stmt 1 view .LVU240
 614              		.loc 1 993 24 is_stmt 0 view .LVU241
 615 0016 5A64     		str	r2, [r3, #68]
 616              	.L81:
 617              		.loc 1 1043 5 is_stmt 1 view .LVU242
 618              		.loc 1 1043 8 is_stmt 0 view .LVU243
 619 0018 094B     		ldr	r3, .L87
 620 001a 9842     		cmp	r0, r3
 621 001c F3D1     		bne	.L78
 622              		.loc 1 1048 7 is_stmt 1 view .LVU244
 623              	.LVL38:
 624              	.LBB19:
 625              	.LBI19:
 626              		.loc 2 351 22 view .LVU245
 627              	.LBB20:
ARM GAS  C:\Users\DEVELO~1\AppData\Local\Temp\ccSISJ8X.s 			page 12


 628              		.loc 2 361 3 view .LVU246
 629              		.loc 2 361 19 is_stmt 0 view .LVU247
 630 001e 094B     		ldr	r3, .L87+4
 631 0020 D3F8F020 		ldr	r2, [r3, #240]
 632 0024 22F00202 		bic	r2, r2, #2
 633 0028 C3F8F020 		str	r2, [r3, #240]
 634              		.loc 2 362 3 is_stmt 1 view .LVU248
 635              		.loc 2 362 21 is_stmt 0 view .LVU249
 636 002c D3F81821 		ldr	r2, [r3, #280]
 637 0030 22F00202 		bic	r2, r2, #2
 638 0034 C3F81821 		str	r2, [r3, #280]
 639              		.loc 2 363 3 is_stmt 1 view .LVU250
 640 0038 D3F81831 		ldr	r3, [r3, #280]
 641              	.LVL39:
 642              		.loc 2 363 3 is_stmt 0 view .LVU251
 643              	.LBE20:
 644              	.LBE19:
 645              		.loc 1 1124 1 view .LVU252
 646 003c 7047     		bx	lr
 647              	.L88:
 648 003e 00BF     		.align	2
 649              	.L87:
 650 0040 00000000 		.word	.LANCHOR0
 651 0044 00440258 		.word	1476543488
 652              		.cfi_endproc
 653              	.LFE450:
 654              		.size	pwm_lld_stop, .-pwm_lld_stop
 655              		.section	.text.pwm_lld_enable_channel,"ax",%progbits
 656              		.align	1
 657              		.p2align 2,,3
 658              		.global	pwm_lld_enable_channel
 659              		.syntax unified
 660              		.thumb
 661              		.thumb_func
 662              		.type	pwm_lld_enable_channel, %function
 663              	pwm_lld_enable_channel:
 664              	.LVL40:
 665              	.LFB451:
 666              		.loc 1 1141 45 is_stmt 1 view -0
 667              		.cfi_startproc
 668              		@ args = 0, pretend = 0, frame = 0
 669              		@ frame_needed = 0, uses_anonymous_args = 0
 670              		@ link register save eliminated.
 671              		.loc 1 1147 3 view .LVU254
 672              		.loc 1 1147 6 is_stmt 0 view .LVU255
 673 0000 0329     		cmp	r1, #3
 674              		.loc 1 1148 9 view .LVU256
 675 0002 C369     		ldr	r3, [r0, #28]
 676              		.loc 1 1147 6 view .LVU257
 677 0004 04D8     		bhi	.L90
 678              		.loc 1 1148 5 is_stmt 1 view .LVU258
 679              		.loc 1 1148 29 is_stmt 0 view .LVU259
 680 0006 0C31     		adds	r1, r1, #12
 681              	.LVL41:
 682              		.loc 1 1148 29 view .LVU260
 683 0008 03EB8103 		add	r3, r3, r1, lsl #2
 684 000c 5A60     		str	r2, [r3, #4]
ARM GAS  C:\Users\DEVELO~1\AppData\Local\Temp\ccSISJ8X.s 			page 13


 685 000e 7047     		bx	lr
 686              	.LVL42:
 687              	.L90:
 688              		.loc 1 1150 5 is_stmt 1 view .LVU261
 689              		.loc 1 1150 34 is_stmt 0 view .LVU262
 690 0010 1231     		adds	r1, r1, #18
 691              	.LVL43:
 692              		.loc 1 1150 34 view .LVU263
 693 0012 43F82120 		str	r2, [r3, r1, lsl #2]
 694              		.loc 1 1152 1 view .LVU264
 695 0016 7047     		bx	lr
 696              		.cfi_endproc
 697              	.LFE451:
 698              		.size	pwm_lld_enable_channel, .-pwm_lld_enable_channel
 699              		.section	.text.pwm_lld_disable_channel,"ax",%progbits
 700              		.align	1
 701              		.p2align 2,,3
 702              		.global	pwm_lld_disable_channel
 703              		.syntax unified
 704              		.thumb
 705              		.thumb_func
 706              		.type	pwm_lld_disable_channel, %function
 707              	pwm_lld_disable_channel:
 708              	.LVL44:
 709              	.LFB452:
 710              		.loc 1 1166 69 is_stmt 1 view -0
 711              		.cfi_startproc
 712              		@ args = 0, pretend = 0, frame = 0
 713              		@ frame_needed = 0, uses_anonymous_args = 0
 714              		@ link register save eliminated.
 715              		.loc 1 1172 3 view .LVU266
 716              		.loc 1 1172 6 is_stmt 0 view .LVU267
 717 0000 0329     		cmp	r1, #3
 718 0002 11D8     		bhi	.L93
 719              		.loc 1 1173 5 is_stmt 1 view .LVU268
 720              		.loc 1 1173 9 is_stmt 0 view .LVU269
 721 0004 C369     		ldr	r3, [r0, #28]
 722              		.loc 1 1173 29 view .LVU270
 723 0006 01F10C00 		add	r0, r1, #12
 724              	.LVL45:
 725              		.loc 1 1174 28 view .LVU271
 726 000a 0222     		movs	r2, #2
 727              		.loc 1 1173 29 view .LVU272
 728 000c 03EB8000 		add	r0, r3, r0, lsl #2
 729              		.loc 1 1174 28 view .LVU273
 730 0010 02FA01F1 		lsl	r1, r2, r1
 731              	.LVL46:
 732              		.loc 1 1166 69 view .LVU274
 733 0014 10B4     		push	{r4}
 734              		.cfi_def_cfa_offset 4
 735              		.cfi_offset 4, -4
 736              		.loc 1 1173 29 view .LVU275
 737 0016 0024     		movs	r4, #0
 738 0018 4460     		str	r4, [r0, #4]
 739              		.loc 1 1174 5 is_stmt 1 view .LVU276
 740              		.loc 1 1174 21 is_stmt 0 view .LVU277
 741 001a DA68     		ldr	r2, [r3, #12]
ARM GAS  C:\Users\DEVELO~1\AppData\Local\Temp\ccSISJ8X.s 			page 14


 742              		.loc 1 1179 1 view .LVU278
 743 001c 5DF8044B 		ldr	r4, [sp], #4
 744              		.cfi_restore 4
 745              		.cfi_def_cfa_offset 0
 746              		.loc 1 1174 21 view .LVU279
 747 0020 22EA0102 		bic	r2, r2, r1
 748 0024 DA60     		str	r2, [r3, #12]
 749              		.loc 1 1179 1 view .LVU280
 750 0026 7047     		bx	lr
 751              	.LVL47:
 752              	.L93:
 753              		.loc 1 1177 5 is_stmt 1 view .LVU281
 754              		.loc 1 1177 9 is_stmt 0 view .LVU282
 755 0028 C369     		ldr	r3, [r0, #28]
 756              		.loc 1 1177 34 view .LVU283
 757 002a 1231     		adds	r1, r1, #18
 758              	.LVL48:
 759              		.loc 1 1177 34 view .LVU284
 760 002c 0022     		movs	r2, #0
 761 002e 43F82120 		str	r2, [r3, r1, lsl #2]
 762 0032 7047     		bx	lr
 763              		.cfi_endproc
 764              	.LFE452:
 765              		.size	pwm_lld_disable_channel, .-pwm_lld_disable_channel
 766              		.section	.text.pwm_lld_enable_periodic_notification,"ax",%progbits
 767              		.align	1
 768              		.p2align 2,,3
 769              		.global	pwm_lld_enable_periodic_notification
 770              		.syntax unified
 771              		.thumb
 772              		.thumb_func
 773              		.type	pwm_lld_enable_periodic_notification, %function
 774              	pwm_lld_enable_periodic_notification:
 775              	.LVL49:
 776              	.LFB453:
 777              		.loc 1 1190 60 is_stmt 1 view -0
 778              		.cfi_startproc
 779              		@ args = 0, pretend = 0, frame = 0
 780              		@ frame_needed = 0, uses_anonymous_args = 0
 781              		@ link register save eliminated.
 782              		.loc 1 1191 3 view .LVU286
 783              		.loc 1 1191 23 is_stmt 0 view .LVU287
 784 0000 C269     		ldr	r2, [r0, #28]
 785              		.loc 1 1191 12 view .LVU288
 786 0002 D368     		ldr	r3, [r2, #12]
 787              	.LVL50:
 788              		.loc 1 1195 3 is_stmt 1 view .LVU289
 789              		.loc 1 1195 6 is_stmt 0 view .LVU290
 790 0004 D907     		lsls	r1, r3, #31
 791 0006 05D4     		bmi	.L99
 792              		.loc 1 1196 5 is_stmt 1 view .LVU291
 793              		.loc 1 1196 21 is_stmt 0 view .LVU292
 794 0008 6FF00101 		mvn	r1, #1
 795              		.loc 1 1197 28 view .LVU293
 796 000c 43F00103 		orr	r3, r3, #1
 797              	.LVL51:
 798              		.loc 1 1196 21 view .LVU294
ARM GAS  C:\Users\DEVELO~1\AppData\Local\Temp\ccSISJ8X.s 			page 15


 799 0010 1161     		str	r1, [r2, #16]
 800              		.loc 1 1197 5 is_stmt 1 view .LVU295
 801              		.loc 1 1197 21 is_stmt 0 view .LVU296
 802 0012 D360     		str	r3, [r2, #12]
 803              	.L99:
 804              		.loc 1 1199 1 view .LVU297
 805 0014 7047     		bx	lr
 806              		.cfi_endproc
 807              	.LFE453:
 808              		.size	pwm_lld_enable_periodic_notification, .-pwm_lld_enable_periodic_notification
 809 0016 00BF     		.section	.text.pwm_lld_disable_periodic_notification,"ax",%progbits
 810              		.align	1
 811              		.p2align 2,,3
 812              		.global	pwm_lld_disable_periodic_notification
 813              		.syntax unified
 814              		.thumb
 815              		.thumb_func
 816              		.type	pwm_lld_disable_periodic_notification, %function
 817              	pwm_lld_disable_periodic_notification:
 818              	.LVL52:
 819              	.LFB454:
 820              		.loc 1 1210 61 is_stmt 1 view -0
 821              		.cfi_startproc
 822              		@ args = 0, pretend = 0, frame = 0
 823              		@ frame_needed = 0, uses_anonymous_args = 0
 824              		@ link register save eliminated.
 825              		.loc 1 1212 3 view .LVU299
 826              		.loc 1 1212 7 is_stmt 0 view .LVU300
 827 0000 C269     		ldr	r2, [r0, #28]
 828              		.loc 1 1212 19 view .LVU301
 829 0002 D368     		ldr	r3, [r2, #12]
 830 0004 23F00103 		bic	r3, r3, #1
 831 0008 D360     		str	r3, [r2, #12]
 832              		.loc 1 1213 1 view .LVU302
 833 000a 7047     		bx	lr
 834              		.cfi_endproc
 835              	.LFE454:
 836              		.size	pwm_lld_disable_periodic_notification, .-pwm_lld_disable_periodic_notification
 837              		.section	.text.pwm_lld_enable_channel_notification,"ax",%progbits
 838              		.align	1
 839              		.p2align 2,,3
 840              		.global	pwm_lld_enable_channel_notification
 841              		.syntax unified
 842              		.thumb
 843              		.thumb_func
 844              		.type	pwm_lld_enable_channel_notification, %function
 845              	pwm_lld_enable_channel_notification:
 846              	.LVL53:
 847              	.LFB455:
 848              		.loc 1 1227 64 is_stmt 1 view -0
 849              		.cfi_startproc
 850              		@ args = 0, pretend = 0, frame = 0
 851              		@ frame_needed = 0, uses_anonymous_args = 0
 852              		@ link register save eliminated.
 853              		.loc 1 1228 3 view .LVU304
 854              		.loc 1 1237 18 is_stmt 0 view .LVU305
 855 0000 0223     		movs	r3, #2
ARM GAS  C:\Users\DEVELO~1\AppData\Local\Temp\ccSISJ8X.s 			page 16


 856              		.loc 1 1228 23 view .LVU306
 857 0002 C269     		ldr	r2, [r0, #28]
 858              		.loc 1 1237 18 view .LVU307
 859 0004 03FA01F1 		lsl	r1, r3, r1
 860              	.LVL54:
 861              		.loc 1 1228 12 view .LVU308
 862 0008 D368     		ldr	r3, [r2, #12]
 863              	.LVL55:
 864              		.loc 1 1232 3 is_stmt 1 view .LVU309
 865              		.loc 1 1232 3 view .LVU310
 866              		.loc 1 1232 3 view .LVU311
 867              		.loc 1 1237 3 view .LVU312
 868              		.loc 1 1237 6 is_stmt 0 view .LVU313
 869 000a 1942     		tst	r1, r3
 870 000c 03D1     		bne	.L102
 871              		.loc 1 1238 5 is_stmt 1 view .LVU314
 872              		.loc 1 1238 23 is_stmt 0 view .LVU315
 873 000e C843     		mvns	r0, r1
 874              	.LVL56:
 875              		.loc 1 1239 28 view .LVU316
 876 0010 1943     		orrs	r1, r1, r3
 877              		.loc 1 1238 21 view .LVU317
 878 0012 1061     		str	r0, [r2, #16]
 879              		.loc 1 1239 5 is_stmt 1 view .LVU318
 880              		.loc 1 1239 21 is_stmt 0 view .LVU319
 881 0014 D160     		str	r1, [r2, #12]
 882              	.L102:
 883              		.loc 1 1241 1 view .LVU320
 884 0016 7047     		bx	lr
 885              		.cfi_endproc
 886              	.LFE455:
 887              		.size	pwm_lld_enable_channel_notification, .-pwm_lld_enable_channel_notification
 888              		.section	.text.pwm_lld_disable_channel_notification,"ax",%progbits
 889              		.align	1
 890              		.p2align 2,,3
 891              		.global	pwm_lld_disable_channel_notification
 892              		.syntax unified
 893              		.thumb
 894              		.thumb_func
 895              		.type	pwm_lld_disable_channel_notification, %function
 896              	pwm_lld_disable_channel_notification:
 897              	.LVL57:
 898              	.LFB456:
 899              		.loc 1 1255 65 is_stmt 1 view -0
 900              		.cfi_startproc
 901              		@ args = 0, pretend = 0, frame = 0
 902              		@ frame_needed = 0, uses_anonymous_args = 0
 903              		@ link register save eliminated.
 904              		.loc 1 1257 3 view .LVU322
 905              		.loc 1 1257 26 is_stmt 0 view .LVU323
 906 0000 0223     		movs	r3, #2
 907              		.loc 1 1257 7 view .LVU324
 908 0002 C269     		ldr	r2, [r0, #28]
 909              		.loc 1 1257 26 view .LVU325
 910 0004 03FA01F1 		lsl	r1, r3, r1
 911              	.LVL58:
 912              		.loc 1 1257 19 view .LVU326
ARM GAS  C:\Users\DEVELO~1\AppData\Local\Temp\ccSISJ8X.s 			page 17


 913 0008 D368     		ldr	r3, [r2, #12]
 914 000a 23EA0101 		bic	r1, r3, r1
 915 000e D160     		str	r1, [r2, #12]
 916              		.loc 1 1258 1 view .LVU327
 917 0010 7047     		bx	lr
 918              		.cfi_endproc
 919              	.LFE456:
 920              		.size	pwm_lld_disable_channel_notification, .-pwm_lld_disable_channel_notification
 921 0012 00BF     		.section	.text.pwm_lld_serve_interrupt,"ax",%progbits
 922              		.align	1
 923              		.p2align 2,,3
 924              		.global	pwm_lld_serve_interrupt
 925              		.syntax unified
 926              		.thumb
 927              		.thumb_func
 928              		.type	pwm_lld_serve_interrupt, %function
 929              	pwm_lld_serve_interrupt:
 930              	.LVL59:
 931              	.LFB457:
 932              		.loc 1 1270 47 is_stmt 1 view -0
 933              		.cfi_startproc
 934              		@ args = 0, pretend = 0, frame = 0
 935              		@ frame_needed = 0, uses_anonymous_args = 0
 936              		.loc 1 1271 3 view .LVU329
 937              		.loc 1 1273 3 view .LVU330
 938              		.loc 1 1273 13 is_stmt 0 view .LVU331
 939 0000 C369     		ldr	r3, [r0, #28]
 940              		.loc 1 1270 47 view .LVU332
 941 0002 70B5     		push	{r4, r5, r6, lr}
 942              		.cfi_def_cfa_offset 16
 943              		.cfi_offset 4, -16
 944              		.cfi_offset 5, -12
 945              		.cfi_offset 6, -8
 946              		.cfi_offset 14, -4
 947              		.loc 1 1273 7 view .LVU333
 948 0004 1A69     		ldr	r2, [r3, #16]
 949              	.LVL60:
 950              		.loc 1 1274 3 is_stmt 1 view .LVU334
 951              		.loc 1 1270 47 is_stmt 0 view .LVU335
 952 0006 0546     		mov	r5, r0
 953              		.loc 1 1274 18 view .LVU336
 954 0008 DC68     		ldr	r4, [r3, #12]
 955 000a 1440     		ands	r4, r4, r2
 956              	.LVL61:
 957              		.loc 1 1275 3 is_stmt 1 view .LVU337
 958              		.loc 1 1274 6 is_stmt 0 view .LVU338
 959 000c E2B2     		uxtb	r2, r4
 960              		.loc 1 1276 6 view .LVU339
 961 000e A607     		lsls	r6, r4, #30
 962              		.loc 1 1275 19 view .LVU340
 963 0010 6FEA0202 		mvn	r2, r2
 964              		.loc 1 1275 17 view .LVU341
 965 0014 1A61     		str	r2, [r3, #16]
 966              		.loc 1 1276 3 is_stmt 1 view .LVU342
 967              		.loc 1 1276 6 is_stmt 0 view .LVU343
 968 0016 03D5     		bpl	.L106
 969              		.loc 1 1277 33 discriminator 1 view .LVU344
ARM GAS  C:\Users\DEVELO~1\AppData\Local\Temp\ccSISJ8X.s 			page 18


 970 0018 4368     		ldr	r3, [r0, #4]
 971 001a 1B69     		ldr	r3, [r3, #16]
 972              		.loc 1 1276 40 discriminator 1 view .LVU345
 973 001c 03B1     		cbz	r3, .L106
 974              		.loc 1 1278 5 is_stmt 1 view .LVU346
 975 001e 9847     		blx	r3
 976              	.LVL62:
 977              	.L106:
 978              		.loc 1 1279 3 view .LVU347
 979              		.loc 1 1279 6 is_stmt 0 view .LVU348
 980 0020 6007     		lsls	r0, r4, #29
 981 0022 04D5     		bpl	.L107
 982              		.loc 1 1280 33 discriminator 1 view .LVU349
 983 0024 6B68     		ldr	r3, [r5, #4]
 984 0026 9B69     		ldr	r3, [r3, #24]
 985              		.loc 1 1279 40 discriminator 1 view .LVU350
 986 0028 0BB1     		cbz	r3, .L107
 987              		.loc 1 1281 5 is_stmt 1 view .LVU351
 988 002a 2846     		mov	r0, r5
 989 002c 9847     		blx	r3
 990              	.LVL63:
 991              	.L107:
 992              		.loc 1 1282 3 view .LVU352
 993              		.loc 1 1282 6 is_stmt 0 view .LVU353
 994 002e 2107     		lsls	r1, r4, #28
 995 0030 04D5     		bpl	.L108
 996              		.loc 1 1283 33 discriminator 1 view .LVU354
 997 0032 6B68     		ldr	r3, [r5, #4]
 998 0034 1B6A     		ldr	r3, [r3, #32]
 999              		.loc 1 1282 40 discriminator 1 view .LVU355
 1000 0036 0BB1     		cbz	r3, .L108
 1001              		.loc 1 1284 5 is_stmt 1 view .LVU356
 1002 0038 2846     		mov	r0, r5
 1003 003a 9847     		blx	r3
 1004              	.LVL64:
 1005              	.L108:
 1006              		.loc 1 1285 3 view .LVU357
 1007              		.loc 1 1285 6 is_stmt 0 view .LVU358
 1008 003c E206     		lsls	r2, r4, #27
 1009 003e 04D5     		bpl	.L109
 1010              		.loc 1 1286 33 discriminator 1 view .LVU359
 1011 0040 6B68     		ldr	r3, [r5, #4]
 1012 0042 9B6A     		ldr	r3, [r3, #40]
 1013              		.loc 1 1285 40 discriminator 1 view .LVU360
 1014 0044 0BB1     		cbz	r3, .L109
 1015              		.loc 1 1287 5 is_stmt 1 view .LVU361
 1016 0046 2846     		mov	r0, r5
 1017 0048 9847     		blx	r3
 1018              	.LVL65:
 1019              	.L109:
 1020              		.loc 1 1288 3 view .LVU362
 1021              		.loc 1 1288 6 is_stmt 0 view .LVU363
 1022 004a E307     		lsls	r3, r4, #31
 1023 004c 06D5     		bpl	.L105
 1024              		.loc 1 1288 54 discriminator 1 view .LVU364
 1025 004e 6B68     		ldr	r3, [r5, #4]
 1026 0050 9B68     		ldr	r3, [r3, #8]
ARM GAS  C:\Users\DEVELO~1\AppData\Local\Temp\ccSISJ8X.s 			page 19


 1027              		.loc 1 1288 38 discriminator 1 view .LVU365
 1028 0052 1BB1     		cbz	r3, .L105
 1029              		.loc 1 1289 5 is_stmt 1 view .LVU366
 1030 0054 2846     		mov	r0, r5
 1031              		.loc 1 1290 1 is_stmt 0 view .LVU367
 1032 0056 BDE87040 		pop	{r4, r5, r6, lr}
 1033              		.cfi_remember_state
 1034              		.cfi_restore 14
 1035              		.cfi_restore 6
 1036              		.cfi_restore 5
 1037              		.cfi_restore 4
 1038              		.cfi_def_cfa_offset 0
 1039              	.LVL66:
 1040              		.loc 1 1289 5 view .LVU368
 1041 005a 1847     		bx	r3	@ indirect register sibling call
 1042              	.LVL67:
 1043              	.L105:
 1044              		.cfi_restore_state
 1045              		.loc 1 1290 1 view .LVU369
 1046 005c 70BD     		pop	{r4, r5, r6, pc}
 1047              		.loc 1 1290 1 view .LVU370
 1048              		.cfi_endproc
 1049              	.LFE457:
 1050              		.size	pwm_lld_serve_interrupt, .-pwm_lld_serve_interrupt
 1051              		.global	PWMD8
 1052 005e 00BF     		.section	.bss.PWMD8,"aw",%nobits
 1053              		.align	2
 1054              		.set	.LANCHOR0,. + 0
 1055              		.type	PWMD8, %object
 1056              		.size	PWMD8, 32
 1057              	PWMD8:
 1058 0000 00000000 		.space	32
 1058      00000000 
 1058      00000000 
 1058      00000000 
 1058      00000000 
 1059              		.text
 1060              	.Letext0:
 1061              		.file 3 "c:\\chibistudio\\tools\\gnu tools arm embedded\\11.3 2022.08\\arm-none-eabi\\include\\mac
 1062              		.file 4 "c:\\chibistudio\\tools\\gnu tools arm embedded\\11.3 2022.08\\arm-none-eabi\\include\\sys
 1063              		.file 5 "../../../os/common/ext/ST/STM32H7xx/stm32h743xx.h"
 1064              		.file 6 "../../../os/hal/ports/STM32/LLD/TIMv1/stm32_tim.h"
 1065              		.file 7 "../../../os/hal/include/hal_pwm.h"
 1066              		.file 8 "../../../os/hal/ports/STM32/LLD/TIMv1/hal_pwm_lld.h"