ARM GAS  C:\Users\DEVELO~1\AppData\Local\Temp\ccpaNuUE.s 			page 1


   1              		.cpu cortex-m7
   2              		.arch armv7e-m
   3              		.fpu fpv5-d16
   4              		.eabi_attribute 28, 1
   5              		.eabi_attribute 20, 1
   6              		.eabi_attribute 21, 1
   7              		.eabi_attribute 23, 3
   8              		.eabi_attribute 24, 1
   9              		.eabi_attribute 25, 1
  10              		.eabi_attribute 26, 1
  11              		.eabi_attribute 30, 2
  12              		.eabi_attribute 34, 1
  13              		.eabi_attribute 18, 4
  14              		.file	"sdram_bist.c"
  15              		.text
  16              	.Ltext0:
  17              		.cfi_sections	.debug_frame
  18              		.section	.text.bist_run_stress_sequential_offset.constprop.0,"ax",%progbits
  19              		.align	1
  20              		.p2align 2,,3
  21              		.syntax unified
  22              		.thumb
  23              		.thumb_func
  24              		.type	bist_run_stress_sequential_offset.constprop.0, %function
  25              	bist_run_stress_sequential_offset.constprop.0:
  26              	.LVL0:
  27              	.LFB459:
  28              		.file 1 "drivers/sdram/sdram_bist.c"
  29              		.loc 1 142 13 view -0
  30              		.cfi_startproc
  31              		@ args = 0, pretend = 0, frame = 0
  32              		@ frame_needed = 0, uses_anonymous_args = 0
  33              		.loc 1 146 3 view .LVU1
  34              		.loc 1 147 3 view .LVU2
  35              	.LBB46:
  36              		.loc 1 147 8 view .LVU3
  37              		.loc 1 147 26 view .LVU4
  38              	.LBE46:
  39              		.loc 1 146 42 is_stmt 0 view .LVU5
  40 0000 4000     		lsls	r0, r0, #1
  41              	.LVL1:
  42              	.LBB47:
  43              		.loc 1 147 17 view .LVU6
  44 0002 0023     		movs	r3, #0
  45              	.LBE47:
  46              		.loc 1 146 28 view .LVU7
  47 0004 00F14040 		add	r0, r0, #-1073741824
  48              	.LVL2:
  49              		.loc 1 146 28 view .LVU8
  50 0008 0246     		mov	r2, r0
  51              		.loc 1 142 13 view .LVU9
  52 000a 10B5     		push	{r4, lr}
  53              		.cfi_def_cfa_offset 8
  54              		.cfi_offset 4, -8
  55              		.cfi_offset 14, -4
  56              	.LVL3:
  57              	.L2:
ARM GAS  C:\Users\DEVELO~1\AppData\Local\Temp\ccpaNuUE.s 			page 2


  58              	.LBB48:
  59              		.loc 1 148 5 is_stmt 1 view .LVU10
  60 000c 1FFA83FC 		uxth	ip, r3
  61              		.loc 1 147 35 is_stmt 0 view .LVU11
  62 0010 0133     		adds	r3, r3, #1
  63              	.LVL4:
  64              		.loc 1 147 26 view .LVU12
  65 0012 B3F5003F 		cmp	r3, #131072
  66              		.loc 1 148 15 view .LVU13
  67 0016 22F802CB 		strh	ip, [r2], #2	@ movhi
  68              		.loc 1 147 35 is_stmt 1 view .LVU14
  69              	.LVL5:
  70              		.loc 1 147 26 view .LVU15
  71 001a F7D1     		bne	.L2
  72              	.LBE48:
  73              	.LBB49:
  74              		.loc 1 151 17 is_stmt 0 view .LVU16
  75 001c 0023     		movs	r3, #0
  76              	.LVL6:
  77              	.LBB50:
  78              	.LBB51:
  79              	.LBB52:
  80              		.loc 1 34 22 view .LVU17
  81 001e 4FF0010E 		mov	lr, #1
  82              	.LVL7:
  83              	.L6:
  84              		.loc 1 34 22 view .LVU18
  85              	.LBE52:
  86              	.LBE51:
  87              		.loc 1 152 5 is_stmt 1 view .LVU19
  88              		.loc 1 155 7 view .LVU20
  89              	.LBE50:
  90              		.loc 1 151 35 view .LVU21
  91              	.LBB57:
  92              		.loc 1 153 20 is_stmt 0 view .LVU22
  93 0022 0288     		ldrh	r2, [r0]
  94 0024 1FFA83FC 		uxth	ip, r3
  95              	.LVL8:
  96              		.loc 1 153 5 is_stmt 1 view .LVU23
  97              	.LBB55:
  98              	.LBI51:
  99              		.loc 1 25 13 view .LVU24
 100              	.LBB53:
 101              		.loc 1 30 3 view .LVU25
 102              	.LBE53:
 103              	.LBE55:
 104              	.LBE57:
 105              		.loc 1 151 35 is_stmt 0 view .LVU26
 106 0028 0133     		adds	r3, r3, #1
 107              	.LVL9:
 108              		.loc 1 151 26 is_stmt 1 view .LVU27
 109              	.LBB58:
 110              		.loc 1 153 20 is_stmt 0 view .LVU28
 111 002a 92B2     		uxth	r2, r2
 112              	.LVL10:
 113              		.loc 1 154 5 is_stmt 1 view .LVU29
 114              		.loc 1 154 8 is_stmt 0 view .LVU30
ARM GAS  C:\Users\DEVELO~1\AppData\Local\Temp\ccpaNuUE.s 			page 3


 115 002c 6245     		cmp	r2, ip
 116 002e 0CD0     		beq	.L4
 117              	.LBB56:
 118              	.LBB54:
 119              		.loc 1 32 5 is_stmt 1 view .LVU31
 120              		.loc 1 30 19 is_stmt 0 view .LVU32
 121 0030 8A69     		ldr	r2, [r1, #24]
 122              	.LVL11:
 123              		.loc 1 31 6 view .LVU33
 124 0032 91F82040 		ldrb	r4, [r1, #32]	@ zero_extendqisi2
 125              		.loc 1 30 19 view .LVU34
 126 0036 0132     		adds	r2, r2, #1
 127 0038 8A61     		str	r2, [r1, #24]
 128              		.loc 1 31 3 is_stmt 1 view .LVU35
 129              		.loc 1 31 6 is_stmt 0 view .LVU36
 130 003a 34B9     		cbnz	r4, .L4
 131              		.loc 1 32 30 view .LVU37
 132 003c C861     		str	r0, [r1, #28]
 133              		.loc 1 33 5 is_stmt 1 view .LVU38
 134              		.loc 1 33 30 is_stmt 0 view .LVU39
 135 003e A1F822C0 		strh	ip, [r1, #34]	@ movhi
 136              		.loc 1 34 5 is_stmt 1 view .LVU40
 137              		.loc 1 34 22 is_stmt 0 view .LVU41
 138 0042 81F820E0 		strb	lr, [r1, #32]
 139              		.loc 1 35 5 is_stmt 1 view .LVU42
 140              		.loc 1 35 17 is_stmt 0 view .LVU43
 141 0046 81F80CE0 		strb	lr, [r1, #12]
 142              	.L4:
 143              		.loc 1 35 17 view .LVU44
 144              	.LBE54:
 145              	.LBE56:
 146              	.LBE58:
 147              		.loc 1 151 26 view .LVU45
 148 004a B3F5003F 		cmp	r3, #131072
 149 004e 00F10200 		add	r0, r0, #2
 150 0052 E6D1     		bne	.L6
 151              	.LBE49:
 152              		.loc 1 159 3 is_stmt 1 view .LVU46
 153              		.loc 1 159 25 is_stmt 0 view .LVU47
 154 0054 4A68     		ldr	r2, [r1, #4]
 155              		.loc 1 160 28 view .LVU48
 156 0056 0B69     		ldr	r3, [r1, #16]
 157              	.LVL12:
 158              		.loc 1 159 25 view .LVU49
 159 0058 0132     		adds	r2, r2, #1
 160              		.loc 1 160 28 view .LVU50
 161 005a 03F50033 		add	r3, r3, #131072
 162              		.loc 1 159 25 view .LVU51
 163 005e 4A60     		str	r2, [r1, #4]
 164              		.loc 1 160 3 is_stmt 1 view .LVU52
 165              		.loc 1 160 28 is_stmt 0 view .LVU53
 166 0060 0B61     		str	r3, [r1, #16]
 167              		.loc 1 161 1 view .LVU54
 168 0062 10BD     		pop	{r4, pc}
 169              		.cfi_endproc
 170              	.LFE459:
 171              		.size	bist_run_stress_sequential_offset.constprop.0, .-bist_run_stress_sequential_offset.constprop
ARM GAS  C:\Users\DEVELO~1\AppData\Local\Temp\ccpaNuUE.s 			page 4


 172              		.section	.text.bist_run_constant_pattern.constprop.0,"ax",%progbits
 173              		.align	1
 174              		.p2align 2,,3
 175              		.syntax unified
 176              		.thumb
 177              		.thumb_func
 178              		.type	bist_run_constant_pattern.constprop.0, %function
 179              	bist_run_constant_pattern.constprop.0:
 180              	.LVL13:
 181              	.LFB460:
 182              		.loc 1 61 13 is_stmt 1 view -0
 183              		.cfi_startproc
 184              		@ args = 0, pretend = 0, frame = 0
 185              		@ frame_needed = 0, uses_anonymous_args = 0
 186              	.LBB73:
 187              	.LBB74:
 188              		.loc 1 47 26 view .LVU56
 189              	.LBE74:
 190              	.LBE73:
 191              		.loc 1 61 13 is_stmt 0 view .LVU57
 192 0000 70B5     		push	{r4, r5, r6, lr}
 193              		.cfi_def_cfa_offset 16
 194              		.cfi_offset 4, -16
 195              		.cfi_offset 5, -12
 196              		.cfi_offset 6, -8
 197              		.cfi_offset 14, -4
 198 0002 00F1C04E 		add	lr, r0, #1610612736
 199              		.loc 1 61 13 view .LVU58
 200 0006 4FF04043 		mov	r3, #-1073741824
 201 000a 4FEA4E0E 		lsl	lr, lr, #1
 202              	.LVL14:
 203              	.L12:
 204              	.LBB76:
 205              	.LBB75:
 206              		.loc 1 48 5 is_stmt 1 view .LVU59
 207              		.loc 1 48 13 is_stmt 0 view .LVU60
 208 000e 23F8021B 		strh	r1, [r3], #2	@ movhi
 209              		.loc 1 47 35 is_stmt 1 view .LVU61
 210              		.loc 1 47 26 view .LVU62
 211 0012 7345     		cmp	r3, lr
 212 0014 FBD1     		bne	.L12
 213              		.loc 1 47 26 is_stmt 0 view .LVU63
 214 0016 4FF04043 		mov	r3, #-1073741824
 215              	.LBE75:
 216              	.LBE76:
 217              	.LBB77:
 218              	.LBB78:
 219              	.LBB79:
 220              	.LBB80:
 221              	.LBB81:
 222              		.loc 1 34 22 view .LVU64
 223 001a 0126     		movs	r6, #1
 224              	.L16:
 225              		.loc 1 34 22 view .LVU65
 226              	.LBE81:
 227              	.LBE80:
 228              		.loc 1 54 5 is_stmt 1 view .LVU66
ARM GAS  C:\Users\DEVELO~1\AppData\Local\Temp\ccpaNuUE.s 			page 5


 229              		.loc 1 56 7 view .LVU67
 230              	.LVL15:
 231              	.LBB84:
 232              	.LBI80:
 233              		.loc 1 25 13 view .LVU68
 234              	.LBB82:
 235              		.loc 1 30 3 view .LVU69
 236              		.loc 1 30 3 is_stmt 0 view .LVU70
 237              	.LBE82:
 238              	.LBE84:
 239              	.LBE79:
 240              		.loc 1 53 35 is_stmt 1 view .LVU71
 241              		.loc 1 53 26 view .LVU72
 242              	.LBB86:
 243              		.loc 1 54 14 is_stmt 0 view .LVU73
 244 001c B3F800C0 		ldrh	ip, [r3]
 245 0020 1FFA8CFC 		uxth	ip, ip
 246              	.LVL16:
 247              		.loc 1 55 5 is_stmt 1 view .LVU74
 248              		.loc 1 55 8 is_stmt 0 view .LVU75
 249 0024 6145     		cmp	r1, ip
 250 0026 0AD0     		beq	.L14
 251              	.LBB85:
 252              	.LBB83:
 253              		.loc 1 32 5 is_stmt 1 view .LVU76
 254              		.loc 1 30 19 is_stmt 0 view .LVU77
 255 0028 9469     		ldr	r4, [r2, #24]
 256              		.loc 1 31 6 view .LVU78
 257 002a 92F82050 		ldrb	r5, [r2, #32]	@ zero_extendqisi2
 258              		.loc 1 30 19 view .LVU79
 259 002e 0134     		adds	r4, r4, #1
 260 0030 9461     		str	r4, [r2, #24]
 261              		.loc 1 31 3 is_stmt 1 view .LVU80
 262              		.loc 1 31 6 is_stmt 0 view .LVU81
 263 0032 25B9     		cbnz	r5, .L14
 264              		.loc 1 32 30 view .LVU82
 265 0034 D361     		str	r3, [r2, #28]
 266              		.loc 1 33 5 is_stmt 1 view .LVU83
 267              		.loc 1 33 30 is_stmt 0 view .LVU84
 268 0036 5184     		strh	r1, [r2, #34]	@ movhi
 269              		.loc 1 34 5 is_stmt 1 view .LVU85
 270              		.loc 1 34 22 is_stmt 0 view .LVU86
 271 0038 82F82060 		strb	r6, [r2, #32]
 272              		.loc 1 35 5 is_stmt 1 view .LVU87
 273              		.loc 1 35 17 is_stmt 0 view .LVU88
 274 003c 1673     		strb	r6, [r2, #12]
 275              	.L14:
 276              		.loc 1 35 17 view .LVU89
 277              	.LBE83:
 278              	.LBE85:
 279              	.LBE86:
 280              		.loc 1 53 26 view .LVU90
 281 003e 0233     		adds	r3, r3, #2
 282 0040 7345     		cmp	r3, lr
 283 0042 EBD1     		bne	.L16
 284              	.LVL17:
 285              		.loc 1 53 26 view .LVU91
ARM GAS  C:\Users\DEVELO~1\AppData\Local\Temp\ccpaNuUE.s 			page 6


 286              	.LBE78:
 287              	.LBE77:
 288              		.loc 1 64 3 is_stmt 1 view .LVU92
 289              		.loc 1 64 25 is_stmt 0 view .LVU93
 290 0044 5168     		ldr	r1, [r2, #4]
 291              	.LVL18:
 292              		.loc 1 65 28 view .LVU94
 293 0046 1369     		ldr	r3, [r2, #16]
 294              		.loc 1 64 25 view .LVU95
 295 0048 0131     		adds	r1, r1, #1
 296              		.loc 1 65 28 view .LVU96
 297 004a 0344     		add	r3, r3, r0
 298              		.loc 1 64 25 view .LVU97
 299 004c 5160     		str	r1, [r2, #4]
 300              		.loc 1 65 3 is_stmt 1 view .LVU98
 301              		.loc 1 65 28 is_stmt 0 view .LVU99
 302 004e 1361     		str	r3, [r2, #16]
 303              		.loc 1 66 1 view .LVU100
 304 0050 70BD     		pop	{r4, r5, r6, pc}
 305              		.cfi_endproc
 306              	.LFE460:
 307              		.size	bist_run_constant_pattern.constprop.0, .-bist_run_constant_pattern.constprop.0
 308 0052 00BF     		.section	.text.bist_run_walking.constprop.0,"ax",%progbits
 309              		.align	1
 310              		.p2align 2,,3
 311              		.syntax unified
 312              		.thumb
 313              		.thumb_func
 314              		.type	bist_run_walking.constprop.0, %function
 315              	bist_run_walking.constprop.0:
 316              	.LVL19:
 317              	.LFB462:
 318              		.loc 1 68 13 is_stmt 1 view -0
 319              		.cfi_startproc
 320              		@ args = 0, pretend = 0, frame = 0
 321              		@ frame_needed = 0, uses_anonymous_args = 0
 322              	.LBB101:
 323              		.loc 1 69 30 view .LVU102
 324              	.LBE101:
 325              		.loc 1 68 13 is_stmt 0 view .LVU103
 326 0000 2DE9F047 		push	{r4, r5, r6, r7, r8, r9, r10, lr}
 327              		.cfi_def_cfa_offset 32
 328              		.cfi_offset 4, -32
 329              		.cfi_offset 5, -28
 330              		.cfi_offset 6, -24
 331              		.cfi_offset 7, -20
 332              		.cfi_offset 8, -16
 333              		.cfi_offset 9, -12
 334              		.cfi_offset 10, -8
 335              		.cfi_offset 14, -4
 336              	.LBB119:
 337              	.LBB102:
 338              		.loc 1 73 8 view .LVU104
 339 0004 5368     		ldr	r3, [r2, #4]
 340 0006 00F1C044 		add	r4, r0, #1610612736
 341 000a 1769     		ldr	r7, [r2, #16]
 342              	.LBE102:
ARM GAS  C:\Users\DEVELO~1\AppData\Local\Temp\ccpaNuUE.s 			page 7


 343              	.LBE119:
 344              		.loc 1 68 13 view .LVU105
 345 000c 8246     		mov	r10, r0
 346 000e 8946     		mov	r9, r1
 347 0010 03F10108 		add	r8, r3, #1
 348 0014 0744     		add	r7, r7, r0
 349 0016 6400     		lsls	r4, r4, #1
 350              	.LBB120:
 351              		.loc 1 69 17 view .LVU106
 352 0018 0026     		movs	r6, #0
 353              	.LBB115:
 354              		.loc 1 70 88 view .LVU107
 355 001a 0125     		movs	r5, #1
 356              	.LVL20:
 357              	.L28:
 358              		.loc 1 70 5 is_stmt 1 view .LVU108
 359              		.loc 1 70 52 is_stmt 0 view .LVU109
 360 001c 05FA06FE 		lsl	lr, r5, r6
 361              		.loc 1 70 14 view .LVU110
 362 0020 B9F1000F 		cmp	r9, #0
 363 0024 01D1     		bne	.L33
 364 0026 6FEA0E0E 		mvn	lr, lr
 365              	.L33:
 366 002a 1FFA8EFE 		uxth	lr, lr
 367              	.LVL21:
 368              		.loc 1 71 5 is_stmt 1 view .LVU111
 369              	.LBB103:
 370              	.LBI103:
 371              		.loc 1 46 13 view .LVU112
 372              		.loc 1 47 3 view .LVU113
 373              	.LBB104:
 374              		.loc 1 47 8 view .LVU114
 375              		.loc 1 47 26 view .LVU115
 376              	.LBE104:
 377              	.LBE103:
 378              	.LBE115:
 379              		.loc 1 69 17 is_stmt 0 view .LVU116
 380 002e 4FF04043 		mov	r3, #-1073741824
 381              	.LVL22:
 382              	.L23:
 383              	.LBB116:
 384              	.LBB106:
 385              	.LBB105:
 386              		.loc 1 48 5 is_stmt 1 view .LVU117
 387              		.loc 1 48 13 is_stmt 0 view .LVU118
 388 0032 23F802EB 		strh	lr, [r3], #2	@ movhi
 389              		.loc 1 47 35 is_stmt 1 view .LVU119
 390              		.loc 1 47 26 view .LVU120
 391 0036 A342     		cmp	r3, r4
 392 0038 FBD1     		bne	.L23
 393              		.loc 1 47 26 is_stmt 0 view .LVU121
 394 003a 4FF04043 		mov	r3, #-1073741824
 395              	.LVL23:
 396              	.L27:
 397              		.loc 1 47 26 view .LVU122
 398              	.LBE105:
 399              	.LBE106:
ARM GAS  C:\Users\DEVELO~1\AppData\Local\Temp\ccpaNuUE.s 			page 8


 400              	.LBB107:
 401              	.LBB108:
 402              	.LBB109:
 403              		.loc 1 54 5 is_stmt 1 view .LVU123
 404              		.loc 1 56 7 view .LVU124
 405              	.LBB110:
 406              	.LBI110:
 407              		.loc 1 25 13 view .LVU125
 408              	.LBB111:
 409              		.loc 1 30 3 view .LVU126
 410              		.loc 1 30 3 is_stmt 0 view .LVU127
 411              	.LBE111:
 412              	.LBE110:
 413              	.LBE109:
 414              		.loc 1 53 35 is_stmt 1 view .LVU128
 415              		.loc 1 53 26 view .LVU129
 416              	.LBB114:
 417              		.loc 1 54 14 is_stmt 0 view .LVU130
 418 003e B3F800C0 		ldrh	ip, [r3]
 419 0042 1FFA8CFC 		uxth	ip, ip
 420              	.LVL24:
 421              		.loc 1 55 5 is_stmt 1 view .LVU131
 422              		.loc 1 55 8 is_stmt 0 view .LVU132
 423 0046 E645     		cmp	lr, ip
 424 0048 0DD0     		beq	.L25
 425              	.LBB113:
 426              	.LBB112:
 427              		.loc 1 32 5 is_stmt 1 view .LVU133
 428              		.loc 1 30 19 is_stmt 0 view .LVU134
 429 004a 9069     		ldr	r0, [r2, #24]
 430              		.loc 1 31 6 view .LVU135
 431 004c 92F82010 		ldrb	r1, [r2, #32]	@ zero_extendqisi2
 432              		.loc 1 30 19 view .LVU136
 433 0050 00F1010C 		add	ip, r0, #1
 434              	.LVL25:
 435              		.loc 1 30 19 view .LVU137
 436 0054 C2F818C0 		str	ip, [r2, #24]
 437              		.loc 1 31 3 is_stmt 1 view .LVU138
 438              		.loc 1 31 6 is_stmt 0 view .LVU139
 439 0058 29B9     		cbnz	r1, .L25
 440              		.loc 1 32 30 view .LVU140
 441 005a D361     		str	r3, [r2, #28]
 442              		.loc 1 33 5 is_stmt 1 view .LVU141
 443              		.loc 1 33 30 is_stmt 0 view .LVU142
 444 005c A2F822E0 		strh	lr, [r2, #34]	@ movhi
 445              		.loc 1 34 5 is_stmt 1 view .LVU143
 446              		.loc 1 34 22 is_stmt 0 view .LVU144
 447 0060 82F82050 		strb	r5, [r2, #32]
 448              		.loc 1 35 5 is_stmt 1 view .LVU145
 449              		.loc 1 35 17 is_stmt 0 view .LVU146
 450 0064 1573     		strb	r5, [r2, #12]
 451              	.L25:
 452              		.loc 1 35 17 view .LVU147
 453              	.LBE112:
 454              	.LBE113:
 455              	.LBE114:
 456              		.loc 1 53 26 view .LVU148
ARM GAS  C:\Users\DEVELO~1\AppData\Local\Temp\ccpaNuUE.s 			page 9


 457 0066 0233     		adds	r3, r3, #2
 458 0068 A342     		cmp	r3, r4
 459 006a E8D1     		bne	.L27
 460              		.loc 1 53 26 view .LVU149
 461              	.LBE108:
 462              	.LBE107:
 463              		.loc 1 73 5 is_stmt 1 view .LVU150
 464              		.loc 1 73 27 is_stmt 0 view .LVU151
 465 006c 08EB0603 		add	r3, r8, r6
 466              	.LBE116:
 467              		.loc 1 69 37 view .LVU152
 468 0070 0136     		adds	r6, r6, #1
 469              	.LVL26:
 470              	.LBB117:
 471              		.loc 1 74 30 view .LVU153
 472 0072 1761     		str	r7, [r2, #16]
 473              	.LBE117:
 474              		.loc 1 69 30 view .LVU154
 475 0074 5744     		add	r7, r7, r10
 476 0076 102E     		cmp	r6, #16
 477              	.LBB118:
 478              		.loc 1 73 27 view .LVU155
 479 0078 5360     		str	r3, [r2, #4]
 480              		.loc 1 74 5 is_stmt 1 view .LVU156
 481              	.LBE118:
 482              		.loc 1 69 37 view .LVU157
 483              	.LVL27:
 484              		.loc 1 69 30 view .LVU158
 485 007a CFD1     		bne	.L28
 486              	.LBE120:
 487              		.loc 1 76 1 is_stmt 0 view .LVU159
 488 007c BDE8F087 		pop	{r4, r5, r6, r7, r8, r9, r10, pc}
 489              		.loc 1 76 1 view .LVU160
 490              		.cfi_endproc
 491              	.LFE462:
 492              		.size	bist_run_walking.constprop.0, .-bist_run_walking.constprop.0
 493              		.section	.text.sdram_bist_start,"ax",%progbits
 494              		.align	1
 495              		.p2align 2,,3
 496              		.global	sdram_bist_start
 497              		.syntax unified
 498              		.thumb
 499              		.thumb_func
 500              		.type	sdram_bist_start, %function
 501              	sdram_bist_start:
 502              	.LVL28:
 503              	.LFB458:
 504              		.loc 1 163 50 is_stmt 1 view -0
 505              		.cfi_startproc
 506              		@ args = 0, pretend = 0, frame = 0
 507              		@ frame_needed = 0, uses_anonymous_args = 0
 508              		.loc 1 164 3 view .LVU162
 509              		.loc 1 163 50 is_stmt 0 view .LVU163
 510 0000 2DE9F041 		push	{r4, r5, r6, r7, r8, lr}
 511              		.cfi_def_cfa_offset 24
 512              		.cfi_offset 4, -24
 513              		.cfi_offset 5, -20
ARM GAS  C:\Users\DEVELO~1\AppData\Local\Temp\ccpaNuUE.s 			page 10


 514              		.cfi_offset 6, -16
 515              		.cfi_offset 7, -12
 516              		.cfi_offset 8, -8
 517              		.cfi_offset 14, -4
 518              		.loc 1 164 6 view .LVU164
 519 0004 0546     		mov	r5, r0
 520 0006 10B1     		cbz	r0, .L52
 521              		.loc 1 168 3 is_stmt 1 view .LVU165
 522              		.loc 1 168 6 is_stmt 0 view .LVU166
 523 0008 0378     		ldrb	r3, [r0]	@ zero_extendqisi2
 524 000a 012B     		cmp	r3, #1
 525 000c 02D9     		bls	.L60
 526              	.L52:
 527              		.loc 1 165 12 view .LVU167
 528 000e 0020     		movs	r0, #0
 529              	.LVL29:
 530              		.loc 1 209 1 view .LVU168
 531 0010 BDE8F081 		pop	{r4, r5, r6, r7, r8, pc}
 532              	.LVL30:
 533              	.L60:
 534              		.loc 1 172 3 is_stmt 1 view .LVU169
 535              	.LBB160:
 536              	.LBI160:
 537              		.loc 1 13 13 view .LVU170
 538              	.LBB161:
 539              		.loc 1 14 3 view .LVU171
 540              		.loc 1 14 15 is_stmt 0 view .LVU172
 541 0014 0027     		movs	r7, #0
 542 0016 0773     		strb	r7, [r0, #12]
 543              		.loc 1 15 3 is_stmt 1 view .LVU173
 544              		.loc 1 19 20 is_stmt 0 view .LVU174
 545 0018 80F82070 		strb	r7, [r0, #32]
 546              		.loc 1 20 28 view .LVU175
 547 001c 4784     		strh	r7, [r0, #34]	@ movhi
 548              		.loc 1 16 29 view .LVU176
 549 001e C0E90477 		strd	r7, r7, [r0, #16]
 550              		.loc 1 17 3 is_stmt 1 view .LVU177
 551              		.loc 1 18 28 is_stmt 0 view .LVU178
 552 0022 C0E90677 		strd	r7, r7, [r0, #24]
 553              		.loc 1 19 3 is_stmt 1 view .LVU179
 554              		.loc 1 20 3 view .LVU180
 555              		.loc 1 21 3 view .LVU181
 556              	.LBB162:
 557              	.LBI162:
 558              		.file 2 "./docs/ChibiOS/os/rt/include/chvt.h"
 559              		.loc 2 135 25 view .LVU182
 560              		.loc 2 140 3 view .LVU183
 561              	.LBB163:
 562              	.LBI163:
 563              		.file 3 "./docs/ChibiOS/os/hal/osal/rt-nil/chcore_timer.h"
 564              		.loc 3 111 25 view .LVU184
 565              	.LBB164:
 566              		.loc 3 113 3 view .LVU185
 567              		.loc 3 113 10 is_stmt 0 view .LVU186
 568 0026 FFF7FEFF 		bl	stGetCounter
 569              	.LVL31:
 570              		.loc 3 113 10 view .LVU187
ARM GAS  C:\Users\DEVELO~1\AppData\Local\Temp\ccpaNuUE.s 			page 11


 571              	.LBE164:
 572              	.LBE163:
 573              	.LBE162:
 574              	.LBE161:
 575              	.LBE160:
 576              		.loc 1 175 90 view .LVU188
 577 002a 2B78     		ldrb	r3, [r5]	@ zero_extendqisi2
 578              		.loc 1 182 3 view .LVU189
 579 002c 2A46     		mov	r2, r5
 580 002e 3946     		mov	r1, r7
 581              		.loc 1 175 90 view .LVU190
 582 0030 012B     		cmp	r3, #1
 583              		.loc 1 173 26 view .LVU191
 584 0032 6F60     		str	r7, [r5, #4]
 585              		.loc 1 175 90 view .LVU192
 586 0034 0BBF     		itete	eq
 587 0036 4FF08076 		moveq	r6, #16777216
 588 003a 4FF40026 		movne	r6, #524288
 589 003e 4FF00074 		moveq	r4, #33554432
 590 0042 4FF48014 		movne	r4, #1048576
 591              		.loc 1 177 21 view .LVU193
 592 0046 AE60     		str	r6, [r5, #8]
 593              		.loc 1 178 36 view .LVU194
 594 0048 6E61     		str	r6, [r5, #20]
 595              	.LBB166:
 596              	.LBB165:
 597              		.loc 1 22 22 view .LVU195
 598 004a C5E90900 		strd	r0, r0, [r5, #36]
 599              	.LVL32:
 600              		.loc 1 22 22 view .LVU196
 601              	.LBE165:
 602              	.LBE166:
 603              		.loc 1 173 3 is_stmt 1 view .LVU197
 604              		.loc 1 175 3 view .LVU198
 605              		.loc 1 176 3 view .LVU199
 606              		.loc 1 177 3 view .LVU200
 607              		.loc 1 178 3 view .LVU201
 608              		.loc 1 179 3 view .LVU202
 609              		.loc 1 182 3 view .LVU203
 610 004e 3046     		mov	r0, r6
 611 0050 FFF7FEFF 		bl	bist_run_constant_pattern.constprop.0
 612              	.LVL33:
 613              		.loc 1 183 3 view .LVU204
 614 0054 4FF6FF71 		movw	r1, #65535
 615 0058 FFF7FEFF 		bl	bist_run_constant_pattern.constprop.0
 616              	.LVL34:
 617              		.loc 1 184 3 view .LVU205
 618 005c 4AF6AA21 		movw	r1, #43690
 619 0060 FFF7FEFF 		bl	bist_run_constant_pattern.constprop.0
 620              	.LVL35:
 621              		.loc 1 185 3 view .LVU206
 622 0064 45F25551 		movw	r1, #21845
 623 0068 FFF7FEFF 		bl	bist_run_constant_pattern.constprop.0
 624              	.LVL36:
 625              		.loc 1 188 3 view .LVU207
 626 006c 0121     		movs	r1, #1
 627 006e FFF7FEFF 		bl	bist_run_walking.constprop.0
ARM GAS  C:\Users\DEVELO~1\AppData\Local\Temp\ccpaNuUE.s 			page 12


 628              	.LVL37:
 629              		.loc 1 189 3 view .LVU208
 630 0072 3946     		mov	r1, r7
 631 0074 3046     		mov	r0, r6
 632 0076 FFF7FEFF 		bl	bist_run_walking.constprop.0
 633              	.LVL38:
 634              		.loc 1 192 3 view .LVU209
 635              	.LBB167:
 636              	.LBI167:
 637              		.loc 1 78 13 view .LVU210
 638              	.LBB168:
 639              	.LBB169:
 640              		.loc 1 80 26 view .LVU211
 641 007a 06F1C042 		add	r2, r6, #1610612736
 642              	.LVL39:
 643              		.loc 1 80 26 is_stmt 0 view .LVU212
 644              	.LBE169:
 645              	.LBE168:
 646              	.LBE167:
 647              		.loc 1 189 3 view .LVU213
 648 007e 4FF04040 		mov	r0, #-1073741824
 649              	.LBB185:
 650              	.LBB182:
 651              		.loc 1 79 12 view .LVU214
 652 0082 4AF6E141 		movw	r1, #44257
 653 0086 5200     		lsls	r2, r2, #1
 654              	.LVL40:
 655              	.L37:
 656              	.LBB171:
 657              	.LBB170:
 658              		.loc 1 81 5 is_stmt 1 view .LVU215
 659              		.loc 1 82 5 view .LVU216
 660              		.loc 1 81 60 is_stmt 0 view .LVU217
 661 0088 CB08     		lsrs	r3, r1, #3
 662              		.loc 1 81 14 view .LVU218
 663 008a 83EA9103 		eor	r3, r3, r1, lsr #2
 664 008e 4B40     		eors	r3, r3, r1
 665 0090 83EA5113 		eor	r3, r3, r1, lsr #5
 666              		.loc 1 82 43 view .LVU219
 667 0094 03F00103 		and	r3, r3, #1
 668 0098 DB03     		lsls	r3, r3, #15
 669              		.loc 1 82 10 view .LVU220
 670 009a 43EA5101 		orr	r1, r3, r1, lsr #1
 671              	.LVL41:
 672              		.loc 1 83 5 is_stmt 1 view .LVU221
 673              		.loc 1 83 13 is_stmt 0 view .LVU222
 674 009e 20F8021B 		strh	r1, [r0], #2	@ movhi
 675              	.LBE170:
 676              		.loc 1 80 35 is_stmt 1 view .LVU223
 677              		.loc 1 80 26 view .LVU224
 678 00a2 8242     		cmp	r2, r0
 679 00a4 F0D1     		bne	.L37
 680 00a6 4FF04040 		mov	r0, #-1073741824
 681              	.LBE171:
 682              		.loc 1 86 8 is_stmt 0 view .LVU225
 683 00aa 4AF6E141 		movw	r1, #44257
 684              	.LVL42:
ARM GAS  C:\Users\DEVELO~1\AppData\Local\Temp\ccpaNuUE.s 			page 13


 685              	.LBB172:
 686              	.LBB173:
 687              	.LBB174:
 688              	.LBB175:
 689              		.loc 1 34 22 view .LVU226
 690 00ae 4FF0010E 		mov	lr, #1
 691              	.L41:
 692              	.LVL43:
 693              		.loc 1 34 22 view .LVU227
 694              	.LBE175:
 695              	.LBE174:
 696              		.loc 1 88 5 is_stmt 1 view .LVU228
 697              		.loc 1 89 5 view .LVU229
 698              		.loc 1 93 7 view .LVU230
 699              	.LBE173:
 700              		.loc 1 87 35 view .LVU231
 701              	.LBB180:
 702              		.loc 1 88 60 is_stmt 0 view .LVU232
 703 00b2 CB08     		lsrs	r3, r1, #3
 704              		.loc 1 91 14 view .LVU233
 705 00b4 B0F800C0 		ldrh	ip, [r0]
 706              		.loc 1 88 14 view .LVU234
 707 00b8 83EA9103 		eor	r3, r3, r1, lsr #2
 708              		.loc 1 91 14 view .LVU235
 709 00bc 1FFA8CFC 		uxth	ip, ip
 710              		.loc 1 88 14 view .LVU236
 711 00c0 4B40     		eors	r3, r3, r1
 712 00c2 83EA5113 		eor	r3, r3, r1, lsr #5
 713              		.loc 1 89 43 view .LVU237
 714 00c6 03F00103 		and	r3, r3, #1
 715 00ca DB03     		lsls	r3, r3, #15
 716              		.loc 1 89 10 view .LVU238
 717 00cc 43EA5101 		orr	r1, r3, r1, lsr #1
 718              	.LVL44:
 719              		.loc 1 90 5 is_stmt 1 view .LVU239
 720              		.loc 1 91 5 view .LVU240
 721              		.loc 1 92 5 view .LVU241
 722              	.LBB178:
 723              	.LBI174:
 724              		.loc 1 25 13 view .LVU242
 725              	.LBB176:
 726              		.loc 1 30 3 view .LVU243
 727              		.loc 1 30 3 is_stmt 0 view .LVU244
 728              	.LBE176:
 729              	.LBE178:
 730              	.LBE180:
 731              		.loc 1 87 26 is_stmt 1 view .LVU245
 732              	.LBB181:
 733              		.loc 1 92 8 is_stmt 0 view .LVU246
 734 00d0 6145     		cmp	r1, ip
 735 00d2 0BD0     		beq	.L39
 736              	.LBB179:
 737              	.LBB177:
 738              		.loc 1 32 5 is_stmt 1 view .LVU247
 739              		.loc 1 30 19 is_stmt 0 view .LVU248
 740 00d4 AB69     		ldr	r3, [r5, #24]
 741              		.loc 1 31 6 view .LVU249
ARM GAS  C:\Users\DEVELO~1\AppData\Local\Temp\ccpaNuUE.s 			page 14


 742 00d6 95F82070 		ldrb	r7, [r5, #32]	@ zero_extendqisi2
 743              		.loc 1 30 19 view .LVU250
 744 00da 0133     		adds	r3, r3, #1
 745 00dc AB61     		str	r3, [r5, #24]
 746              		.loc 1 31 3 is_stmt 1 view .LVU251
 747              		.loc 1 31 6 is_stmt 0 view .LVU252
 748 00de 2FB9     		cbnz	r7, .L39
 749              		.loc 1 32 30 view .LVU253
 750 00e0 E861     		str	r0, [r5, #28]
 751              		.loc 1 33 5 is_stmt 1 view .LVU254
 752              		.loc 1 33 30 is_stmt 0 view .LVU255
 753 00e2 6984     		strh	r1, [r5, #34]	@ movhi
 754              		.loc 1 34 5 is_stmt 1 view .LVU256
 755              		.loc 1 34 22 is_stmt 0 view .LVU257
 756 00e4 85F820E0 		strb	lr, [r5, #32]
 757              		.loc 1 35 5 is_stmt 1 view .LVU258
 758              		.loc 1 35 17 is_stmt 0 view .LVU259
 759 00e8 85F80CE0 		strb	lr, [r5, #12]
 760              	.L39:
 761              		.loc 1 35 17 view .LVU260
 762              	.LBE177:
 763              	.LBE179:
 764              	.LBE181:
 765              		.loc 1 87 26 view .LVU261
 766 00ec 0230     		adds	r0, r0, #2
 767 00ee 8242     		cmp	r2, r0
 768 00f0 DFD1     		bne	.L41
 769              	.LBE172:
 770              		.loc 1 97 3 is_stmt 1 view .LVU262
 771              		.loc 1 97 6 is_stmt 0 view .LVU263
 772 00f2 6A68     		ldr	r2, [r5, #4]
 773              	.LBE182:
 774              	.LBE185:
 775              		.loc 1 194 6 view .LVU264
 776 00f4 2978     		ldrb	r1, [r5]	@ zero_extendqisi2
 777              	.LVL45:
 778              	.LBB186:
 779              	.LBB183:
 780              		.loc 1 97 25 view .LVU265
 781 00f6 531C     		adds	r3, r2, #1
 782              	.LBE183:
 783              	.LBE186:
 784              		.loc 1 194 6 view .LVU266
 785 00f8 0129     		cmp	r1, #1
 786              	.LBB187:
 787              	.LBB184:
 788              		.loc 1 97 25 view .LVU267
 789 00fa 6B60     		str	r3, [r5, #4]
 790              		.loc 1 98 3 is_stmt 1 view .LVU268
 791              		.loc 1 98 28 is_stmt 0 view .LVU269
 792 00fc 2B69     		ldr	r3, [r5, #16]
 793 00fe 3344     		add	r3, r3, r6
 794 0100 2B61     		str	r3, [r5, #16]
 795              	.LVL46:
 796              		.loc 1 98 28 view .LVU270
 797              	.LBE184:
 798              	.LBE187:
ARM GAS  C:\Users\DEVELO~1\AppData\Local\Temp\ccpaNuUE.s 			page 15


 799              		.loc 1 194 3 is_stmt 1 view .LVU271
 800              		.loc 1 194 6 is_stmt 0 view .LVU272
 801 0102 0CD0     		beq	.L61
 802              	.LVL47:
 803              	.L42:
 804              		.loc 1 207 3 is_stmt 1 view .LVU273
 805              	.LBB188:
 806              	.LBI188:
 807              		.loc 1 39 13 view .LVU274
 808              	.LBB189:
 809              		.loc 1 40 3 view .LVU275
 810              		.loc 1 40 6 is_stmt 0 view .LVU276
 811 0104 AB69     		ldr	r3, [r5, #24]
 812 0106 1BB1     		cbz	r3, .L50
 813              		.loc 1 40 29 view .LVU277
 814 0108 2B7B     		ldrb	r3, [r5, #12]	@ zero_extendqisi2
 815 010a 0BB9     		cbnz	r3, .L50
 816              		.loc 1 41 5 is_stmt 1 view .LVU278
 817              		.loc 1 41 17 is_stmt 0 view .LVU279
 818 010c 0123     		movs	r3, #1
 819 010e 2B73     		strb	r3, [r5, #12]
 820              	.L50:
 821              		.loc 1 43 3 is_stmt 1 view .LVU280
 822              	.LBB190:
 823              	.LBI190:
 824              		.loc 2 135 25 view .LVU281
 825              		.loc 2 140 3 view .LVU282
 826              	.LBB191:
 827              	.LBI191:
 828              		.loc 3 111 25 view .LVU283
 829              	.LBB192:
 830              		.loc 3 113 3 view .LVU284
 831              		.loc 3 113 10 is_stmt 0 view .LVU285
 832 0110 FFF7FEFF 		bl	stGetCounter
 833              	.LVL48:
 834 0114 0346     		mov	r3, r0
 835              	.LBE192:
 836              	.LBE191:
 837              	.LBE190:
 838              	.LBE189:
 839              	.LBE188:
 840              		.loc 1 208 10 view .LVU286
 841 0116 0120     		movs	r0, #1
 842              	.LBB194:
 843              	.LBB193:
 844              		.loc 1 43 22 view .LVU287
 845 0118 AB62     		str	r3, [r5, #40]
 846              	.LVL49:
 847              		.loc 1 43 22 view .LVU288
 848              	.LBE193:
 849              	.LBE194:
 850              		.loc 1 209 1 view .LVU289
 851 011a BDE8F081 		pop	{r4, r5, r6, r7, r8, pc}
 852              	.LVL50:
 853              	.L61:
 854              	.LBB195:
 855              		.loc 1 195 5 is_stmt 1 discriminator 1 view .LVU290
ARM GAS  C:\Users\DEVELO~1\AppData\Local\Temp\ccpaNuUE.s 			page 16


 856              		.loc 1 196 5 discriminator 1 view .LVU291
 857              	.LBB196:
 858              	.LBB197:
 859              		.loc 1 107 22 is_stmt 0 discriminator 1 view .LVU292
 860 011e 06F1404E 		add	lr, r6, #-1073741824
 861              		.loc 1 109 13 discriminator 1 view .LVU293
 862 0122 4FF0404C 		mov	ip, #-1073741824
 863              	.LVL51:
 864              		.loc 1 110 13 discriminator 1 view .LVU294
 865 0126 45F6A520 		movw	r0, #23205
 866              		.loc 1 109 13 discriminator 1 view .LVU295
 867 012a 4AF25A58 		movw	r8, #42330
 868              	.LBE197:
 869              	.LBE196:
 870              		.loc 1 197 79 discriminator 1 view .LVU296
 871 012e A408     		lsrs	r4, r4, #2
 872              	.LVL52:
 873              		.loc 1 196 98 discriminator 1 view .LVU297
 874 0130 A6F50036 		sub	r6, r6, #131072
 875              	.LVL53:
 876              		.loc 1 197 5 is_stmt 1 discriminator 1 view .LVU298
 877              	.LBB208:
 878              	.LBB204:
 879              		.loc 1 109 13 is_stmt 0 discriminator 1 view .LVU299
 880 0134 ACF80080 		strh	r8, [ip]	@ movhi
 881              		.loc 1 110 13 discriminator 1 view .LVU300
 882 0138 AEF80000 		strh	r0, [lr]	@ movhi
 883              	.LBE204:
 884              	.LBE208:
 885              		.loc 1 197 108 discriminator 1 view .LVU301
 886 013c A4F58034 		sub	r4, r4, #65536
 887              	.LVL54:
 888              		.loc 1 198 5 is_stmt 1 discriminator 1 view .LVU302
 889              		.loc 1 200 5 discriminator 1 view .LVU303
 890              	.LBB209:
 891              	.LBI196:
 892              		.loc 1 101 13 discriminator 1 view .LVU304
 893              	.LBB205:
 894              		.loc 1 102 3 discriminator 1 view .LVU305
 895              		.loc 1 106 3 discriminator 1 view .LVU306
 896              		.loc 1 107 3 discriminator 1 view .LVU307
 897              		.loc 1 109 3 discriminator 1 view .LVU308
 898              		.loc 1 110 3 discriminator 1 view .LVU309
 899              		.loc 1 112 3 discriminator 1 view .LVU310
 900              		.loc 1 112 18 is_stmt 0 discriminator 1 view .LVU311
 901 0140 BCF80070 		ldrh	r7, [ip]
 902              		.loc 1 113 18 discriminator 1 view .LVU312
 903 0144 BEF80000 		ldrh	r0, [lr]
 904              		.loc 1 112 18 discriminator 1 view .LVU313
 905 0148 BFB2     		uxth	r7, r7
 906              	.LVL55:
 907              		.loc 1 113 3 is_stmt 1 discriminator 1 view .LVU314
 908              		.loc 1 113 18 is_stmt 0 discriminator 1 view .LVU315
 909 014a 80B2     		uxth	r0, r0
 910              	.LVL56:
 911              		.loc 1 115 3 is_stmt 1 discriminator 1 view .LVU316
 912              		.loc 1 115 6 is_stmt 0 discriminator 1 view .LVU317
ARM GAS  C:\Users\DEVELO~1\AppData\Local\Temp\ccpaNuUE.s 			page 17


 913 014c 8742     		cmp	r7, r0
 914 014e 30D0     		beq	.L62
 915              		.loc 1 122 5 is_stmt 1 view .LVU318
 916              		.loc 1 122 8 is_stmt 0 view .LVU319
 917 0150 4745     		cmp	r7, r8
 918 0152 0CD0     		beq	.L47
 919              		.loc 1 123 7 is_stmt 1 view .LVU320
 920              	.LVL57:
 921              	.LBB198:
 922              	.LBI198:
 923              		.loc 1 25 13 view .LVU321
 924              	.LBB199:
 925              		.loc 1 30 3 view .LVU322
 926              		.loc 1 30 19 is_stmt 0 view .LVU323
 927 0154 AF69     		ldr	r7, [r5, #24]
 928              	.LVL58:
 929              		.loc 1 30 19 view .LVU324
 930 0156 0137     		adds	r7, r7, #1
 931 0158 AF61     		str	r7, [r5, #24]
 932              		.loc 1 31 3 is_stmt 1 view .LVU325
 933              		.loc 1 31 6 is_stmt 0 view .LVU326
 934 015a 95F82070 		ldrb	r7, [r5, #32]	@ zero_extendqisi2
 935 015e 37B9     		cbnz	r7, .L47
 936              		.loc 1 32 5 is_stmt 1 view .LVU327
 937              		.loc 1 32 30 is_stmt 0 view .LVU328
 938 0160 C5F81CC0 		str	ip, [r5, #28]
 939              		.loc 1 33 5 is_stmt 1 view .LVU329
 940              		.loc 1 33 30 is_stmt 0 view .LVU330
 941 0164 A5F82280 		strh	r8, [r5, #34]	@ movhi
 942              		.loc 1 34 5 is_stmt 1 view .LVU331
 943              		.loc 1 34 22 is_stmt 0 view .LVU332
 944 0168 85F82010 		strb	r1, [r5, #32]
 945              		.loc 1 35 5 is_stmt 1 view .LVU333
 946              		.loc 1 35 17 is_stmt 0 view .LVU334
 947 016c 2973     		strb	r1, [r5, #12]
 948              	.LVL59:
 949              	.L47:
 950              		.loc 1 35 17 view .LVU335
 951              	.LBE199:
 952              	.LBE198:
 953              		.loc 1 129 5 is_stmt 1 view .LVU336
 954              		.loc 1 129 8 is_stmt 0 view .LVU337
 955 016e 45F6A527 		movw	r7, #23205
 956 0172 B842     		cmp	r0, r7
 957 0174 0CD0     		beq	.L45
 958              		.loc 1 130 7 is_stmt 1 view .LVU338
 959              	.LVL60:
 960              	.LBB200:
 961              	.LBI200:
 962              		.loc 1 25 13 view .LVU339
 963              	.LBB201:
 964              		.loc 1 30 3 view .LVU340
 965              		.loc 1 30 19 is_stmt 0 view .LVU341
 966 0176 A969     		ldr	r1, [r5, #24]
 967 0178 0131     		adds	r1, r1, #1
 968 017a A961     		str	r1, [r5, #24]
 969              		.loc 1 31 3 is_stmt 1 view .LVU342
ARM GAS  C:\Users\DEVELO~1\AppData\Local\Temp\ccpaNuUE.s 			page 18


 970              		.loc 1 31 6 is_stmt 0 view .LVU343
 971 017c 95F82010 		ldrb	r1, [r5, #32]	@ zero_extendqisi2
 972 0180 31B9     		cbnz	r1, .L45
 973              		.loc 1 32 5 is_stmt 1 view .LVU344
 974              		.loc 1 34 22 is_stmt 0 view .LVU345
 975 0182 0121     		movs	r1, #1
 976              		.loc 1 32 30 view .LVU346
 977 0184 C5F81CE0 		str	lr, [r5, #28]
 978              		.loc 1 33 5 is_stmt 1 view .LVU347
 979              		.loc 1 33 30 is_stmt 0 view .LVU348
 980 0188 6F84     		strh	r7, [r5, #34]	@ movhi
 981              		.loc 1 34 5 is_stmt 1 view .LVU349
 982              		.loc 1 34 22 is_stmt 0 view .LVU350
 983 018a 85F82010 		strb	r1, [r5, #32]
 984              		.loc 1 35 5 is_stmt 1 view .LVU351
 985              		.loc 1 35 17 is_stmt 0 view .LVU352
 986 018e 2973     		strb	r1, [r5, #12]
 987              	.LVL61:
 988              	.L45:
 989              		.loc 1 35 17 view .LVU353
 990              	.LBE201:
 991              	.LBE200:
 992              		.loc 1 138 3 is_stmt 1 view .LVU354
 993              		.loc 1 138 25 is_stmt 0 view .LVU355
 994 0190 0232     		adds	r2, r2, #2
 995              		.loc 1 139 28 view .LVU356
 996 0192 0233     		adds	r3, r3, #2
 997              	.LBE205:
 998              	.LBE209:
 999              		.loc 1 201 5 view .LVU357
 1000 0194 2946     		mov	r1, r5
 1001 0196 0020     		movs	r0, #0
 1002              	.LBB210:
 1003              	.LBB206:
 1004              		.loc 1 138 25 view .LVU358
 1005 0198 6A60     		str	r2, [r5, #4]
 1006              		.loc 1 139 3 is_stmt 1 view .LVU359
 1007              		.loc 1 139 28 is_stmt 0 view .LVU360
 1008 019a 2B61     		str	r3, [r5, #16]
 1009              	.LVL62:
 1010              		.loc 1 139 28 view .LVU361
 1011              	.LBE206:
 1012              	.LBE210:
 1013              		.loc 1 201 5 is_stmt 1 view .LVU362
 1014 019c FFF7FEFF 		bl	bist_run_stress_sequential_offset.constprop.0
 1015              	.LVL63:
 1016              		.loc 1 202 5 view .LVU363
 1017 01a0 2046     		mov	r0, r4
 1018 01a2 FFF7FEFF 		bl	bist_run_stress_sequential_offset.constprop.0
 1019              	.LVL64:
 1020              		.loc 1 203 5 view .LVU364
 1021 01a6 3046     		mov	r0, r6
 1022 01a8 FFF7FEFF 		bl	bist_run_stress_sequential_offset.constprop.0
 1023              	.LVL65:
 1024              		.loc 1 204 5 view .LVU365
 1025 01ac FFF7FEFF 		bl	chThdYield
 1026              	.LVL66:
ARM GAS  C:\Users\DEVELO~1\AppData\Local\Temp\ccpaNuUE.s 			page 19


 1027 01b0 A8E7     		b	.L42
 1028              	.LVL67:
 1029              	.L62:
 1030              	.LBB211:
 1031              	.LBB207:
 1032              		.loc 1 116 5 view .LVU366
 1033              	.LBB202:
 1034              	.LBI202:
 1035              		.loc 1 25 13 view .LVU367
 1036              	.LBB203:
 1037              		.loc 1 30 3 view .LVU368
 1038              		.loc 1 30 19 is_stmt 0 view .LVU369
 1039 01b2 A869     		ldr	r0, [r5, #24]
 1040              	.LVL68:
 1041              		.loc 1 30 19 view .LVU370
 1042 01b4 0130     		adds	r0, r0, #1
 1043 01b6 A861     		str	r0, [r5, #24]
 1044              		.loc 1 31 3 is_stmt 1 view .LVU371
 1045              		.loc 1 31 6 is_stmt 0 view .LVU372
 1046 01b8 95F82000 		ldrb	r0, [r5, #32]	@ zero_extendqisi2
 1047 01bc 0028     		cmp	r0, #0
 1048 01be E7D1     		bne	.L45
 1049              		.loc 1 32 5 is_stmt 1 view .LVU373
 1050              		.loc 1 35 17 is_stmt 0 view .LVU374
 1051 01c0 2973     		strb	r1, [r5, #12]
 1052              		.loc 1 34 22 view .LVU375
 1053 01c2 0221     		movs	r1, #2
 1054              		.loc 1 32 30 view .LVU376
 1055 01c4 C5F81CC0 		str	ip, [r5, #28]
 1056              		.loc 1 33 5 is_stmt 1 view .LVU377
 1057              		.loc 1 33 30 is_stmt 0 view .LVU378
 1058 01c8 A5F82280 		strh	r8, [r5, #34]	@ movhi
 1059              		.loc 1 34 5 is_stmt 1 view .LVU379
 1060              		.loc 1 34 22 is_stmt 0 view .LVU380
 1061 01cc 85F82010 		strb	r1, [r5, #32]
 1062              		.loc 1 35 5 is_stmt 1 view .LVU381
 1063 01d0 DEE7     		b	.L45
 1064              	.LBE203:
 1065              	.LBE202:
 1066              	.LBE207:
 1067              	.LBE211:
 1068              	.LBE195:
 1069              		.cfi_endproc
 1070              	.LFE458:
 1071              		.size	sdram_bist_start, .-sdram_bist_start
 1072 01d2 00BF     		.text
 1073              	.Letext0:
 1074              		.file 4 "c:\\chibistudio\\tools\\gnu tools arm embedded\\11.3 2022.08\\arm-none-eabi\\include\\mac
 1075              		.file 5 "c:\\chibistudio\\tools\\gnu tools arm embedded\\11.3 2022.08\\arm-none-eabi\\include\\sys
 1076              		.file 6 "./docs/ChibiOS/os/rt/include/chtime.h"
 1077              		.file 7 "drivers/sdram/sdram_driver.h"
 1078              		.file 8 "drivers/sdram/sdram_driver_priv.h"
 1079              		.file 9 "./docs/ChibiOS/os/hal/include/hal_st.h"
 1080              		.file 10 "./docs/ChibiOS/os/rt/include/chthreads.h"
 1081              		.section	.debug_info,"",%progbits
 1082              	.Ldebug_info0:
 1083 0000 A60D0000 		.4byte	0xda6
ARM GAS  C:\Users\DEVELO~1\AppData\Local\Temp\ccpaNuUE.s 			page 20


 1084 0004 0500     		.2byte	0x5
 1085 0006 01       		.byte	0x1
 1086 0007 04       		.byte	0x4
 1087 0008 00000000 		.4byte	.Ldebug_abbrev0
 1088 000c 27       		.uleb128 0x27
 1089 000d 9B000000 		.4byte	.LASF81
 1090 0011 1D       		.byte	0x1d
 1091 0012 13040000 		.4byte	.LASF82
 1092 0016 99040000 		.4byte	.LASF83
 1093 001a 15010000 		.4byte	.LLRL77
 1094 001e 00000000 		.4byte	0
 1095 0022 00000000 		.4byte	.Ldebug_line0
 1096 0026 28       		.uleb128 0x28
 1097 0027 04       		.byte	0x4
 1098 0028 05       		.byte	0x5
 1099 0029 696E7400 		.ascii	"int\000"
 1100 002d 07       		.uleb128 0x7
 1101 002e 04       		.byte	0x4
 1102 002f 07       		.byte	0x7
 1103 0030 0A030000 		.4byte	.LASF0
 1104 0034 07       		.uleb128 0x7
 1105 0035 08       		.byte	0x8
 1106 0036 05       		.byte	0x5
 1107 0037 0D020000 		.4byte	.LASF1
 1108 003b 07       		.uleb128 0x7
 1109 003c 08       		.byte	0x8
 1110 003d 04       		.byte	0x4
 1111 003e 7F020000 		.4byte	.LASF2
 1112 0042 07       		.uleb128 0x7
 1113 0043 01       		.byte	0x1
 1114 0044 06       		.byte	0x6
 1115 0045 BC020000 		.4byte	.LASF3
 1116 0049 07       		.uleb128 0x7
 1117 004a 01       		.byte	0x1
 1118 004b 08       		.byte	0x8
 1119 004c 8B020000 		.4byte	.LASF4
 1120 0050 07       		.uleb128 0x7
 1121 0051 02       		.byte	0x2
 1122 0052 05       		.byte	0x5
 1123 0053 6A000000 		.4byte	.LASF5
 1124 0057 08       		.uleb128 0x8
 1125 0058 6E010000 		.4byte	.LASF8
 1126 005c 04       		.byte	0x4
 1127 005d 39       		.byte	0x39
 1128 005e 19       		.byte	0x19
 1129 005f 63000000 		.4byte	0x63
 1130 0063 07       		.uleb128 0x7
 1131 0064 02       		.byte	0x2
 1132 0065 07       		.byte	0x7
 1133 0066 D7040000 		.4byte	.LASF6
 1134 006a 07       		.uleb128 0x7
 1135 006b 04       		.byte	0x4
 1136 006c 05       		.byte	0x5
 1137 006d 3B020000 		.4byte	.LASF7
 1138 0071 08       		.uleb128 0x8
 1139 0072 8E040000 		.4byte	.LASF9
 1140 0076 04       		.byte	0x4
ARM GAS  C:\Users\DEVELO~1\AppData\Local\Temp\ccpaNuUE.s 			page 21


 1141 0077 4F       		.byte	0x4f
 1142 0078 19       		.byte	0x19
 1143 0079 7D000000 		.4byte	0x7d
 1144 007d 07       		.uleb128 0x7
 1145 007e 04       		.byte	0x4
 1146 007f 07       		.byte	0x7
 1147 0080 4E040000 		.4byte	.LASF10
 1148 0084 07       		.uleb128 0x7
 1149 0085 08       		.byte	0x8
 1150 0086 07       		.byte	0x7
 1151 0087 EA020000 		.4byte	.LASF11
 1152 008b 08       		.uleb128 0x8
 1153 008c 60040000 		.4byte	.LASF12
 1154 0090 04       		.byte	0x4
 1155 0091 E8       		.byte	0xe8
 1156 0092 1A       		.byte	0x1a
 1157 0093 2D000000 		.4byte	0x2d
 1158 0097 08       		.uleb128 0x8
 1159 0098 17030000 		.4byte	.LASF13
 1160 009c 05       		.byte	0x5
 1161 009d 24       		.byte	0x24
 1162 009e 14       		.byte	0x14
 1163 009f 57000000 		.4byte	0x57
 1164 00a3 29       		.uleb128 0x29
 1165 00a4 97000000 		.4byte	0x97
 1166 00a8 19       		.uleb128 0x19
 1167 00a9 97000000 		.4byte	0x97
 1168 00ad 08       		.uleb128 0x8
 1169 00ae 01030000 		.4byte	.LASF14
 1170 00b2 05       		.byte	0x5
 1171 00b3 30       		.byte	0x30
 1172 00b4 14       		.byte	0x14
 1173 00b5 71000000 		.4byte	0x71
 1174 00b9 19       		.uleb128 0x19
 1175 00ba AD000000 		.4byte	0xad
 1176 00be 08       		.uleb128 0x8
 1177 00bf D0010000 		.4byte	.LASF15
 1178 00c3 05       		.byte	0x5
 1179 00c4 52       		.byte	0x52
 1180 00c5 15       		.byte	0x15
 1181 00c6 8B000000 		.4byte	0x8b
 1182 00ca 07       		.uleb128 0x7
 1183 00cb 01       		.byte	0x1
 1184 00cc 08       		.byte	0x8
 1185 00cd 75030000 		.4byte	.LASF16
 1186 00d1 08       		.uleb128 0x8
 1187 00d2 6B030000 		.4byte	.LASF17
 1188 00d6 06       		.byte	0x6
 1189 00d7 6D       		.byte	0x6d
 1190 00d8 12       		.byte	0x12
 1191 00d9 AD000000 		.4byte	0xad
 1192 00dd 07       		.uleb128 0x7
 1193 00de 01       		.byte	0x1
 1194 00df 02       		.byte	0x2
 1195 00e0 C2030000 		.4byte	.LASF18
 1196 00e4 1A       		.uleb128 0x1a
 1197 00e5 49000000 		.4byte	0x49
ARM GAS  C:\Users\DEVELO~1\AppData\Local\Temp\ccpaNuUE.s 			page 22


 1198 00e9 4E       		.byte	0x4e
 1199 00ea 01010000 		.4byte	0x101
 1200 00ee 0B       		.uleb128 0xb
 1201 00ef AC020000 		.4byte	.LASF19
 1202 00f3 00       		.byte	0
 1203 00f4 0B       		.uleb128 0xb
 1204 00f5 B2030000 		.4byte	.LASF20
 1205 00f9 01       		.byte	0x1
 1206 00fa 0B       		.uleb128 0xb
 1207 00fb EA040000 		.4byte	.LASF21
 1208 00ff 02       		.byte	0x2
 1209 0100 00       		.byte	0
 1210 0101 08       		.uleb128 0x8
 1211 0102 55010000 		.4byte	.LASF22
 1212 0106 07       		.byte	0x7
 1213 0107 52       		.byte	0x52
 1214 0108 03       		.byte	0x3
 1215 0109 E4000000 		.4byte	0xe4
 1216 010d 1A       		.uleb128 0x1a
 1217 010e 49000000 		.4byte	0x49
 1218 0112 57       		.byte	0x57
 1219 0113 36010000 		.4byte	0x136
 1220 0117 0B       		.uleb128 0xb
 1221 0118 E2030000 		.4byte	.LASF23
 1222 011c 00       		.byte	0
 1223 011d 0B       		.uleb128 0xb
 1224 011e E5010000 		.4byte	.LASF24
 1225 0122 01       		.byte	0x1
 1226 0123 0B       		.uleb128 0xb
 1227 0124 F6030000 		.4byte	.LASF25
 1228 0128 02       		.byte	0x2
 1229 0129 0B       		.uleb128 0xb
 1230 012a 9A030000 		.4byte	.LASF26
 1231 012e 03       		.byte	0x3
 1232 012f 0B       		.uleb128 0xb
 1233 0130 37040000 		.4byte	.LASF27
 1234 0134 04       		.byte	0x4
 1235 0135 00       		.byte	0
 1236 0136 08       		.uleb128 0x8
 1237 0137 99020000 		.4byte	.LASF28
 1238 013b 07       		.byte	0x7
 1239 013c 5D       		.byte	0x5d
 1240 013d 03       		.byte	0x3
 1241 013e 0D010000 		.4byte	0x10d
 1242 0142 1A       		.uleb128 0x1a
 1243 0143 49000000 		.4byte	0x49
 1244 0147 62       		.byte	0x62
 1245 0148 59010000 		.4byte	0x159
 1246 014c 0B       		.uleb128 0xb
 1247 014d BA010000 		.4byte	.LASF29
 1248 0151 00       		.byte	0
 1249 0152 0B       		.uleb128 0xb
 1250 0153 79040000 		.4byte	.LASF30
 1251 0157 01       		.byte	0x1
 1252 0158 00       		.byte	0
 1253 0159 08       		.uleb128 0x8
 1254 015a 6C050000 		.4byte	.LASF31
ARM GAS  C:\Users\DEVELO~1\AppData\Local\Temp\ccpaNuUE.s 			page 23


 1255 015e 07       		.byte	0x7
 1256 015f 65       		.byte	0x65
 1257 0160 03       		.byte	0x3
 1258 0161 42010000 		.4byte	0x142
 1259 0165 1F       		.uleb128 0x1f
 1260 0166 20       		.byte	0x20
 1261 0167 07       		.byte	0x7
 1262 0168 6A       		.byte	0x6a
 1263 0169 E3010000 		.4byte	0x1e3
 1264 016d 06       		.uleb128 0x6
 1265 016e 64030000 		.4byte	.LASF32
 1266 0172 07       		.byte	0x7
 1267 0173 6B       		.byte	0x6b
 1268 0174 17       		.byte	0x17
 1269 0175 01010000 		.4byte	0x101
 1270 0179 00       		.byte	0
 1271 017a 06       		.uleb128 0x6
 1272 017b 5D020000 		.4byte	.LASF33
 1273 017f 07       		.byte	0x7
 1274 0180 6C       		.byte	0x6c
 1275 0181 0C       		.byte	0xc
 1276 0182 AD000000 		.4byte	0xad
 1277 0186 04       		.byte	0x4
 1278 0187 06       		.uleb128 0x6
 1279 0188 A5010000 		.4byte	.LASF34
 1280 018c 07       		.byte	0x7
 1281 018d 6D       		.byte	0x6d
 1282 018e 0C       		.byte	0xc
 1283 018f AD000000 		.4byte	0xad
 1284 0193 08       		.byte	0x8
 1285 0194 06       		.uleb128 0x6
 1286 0195 34050000 		.4byte	.LASF35
 1287 0199 07       		.byte	0x7
 1288 019a 6E       		.byte	0x6e
 1289 019b 0C       		.byte	0xc
 1290 019c AD000000 		.4byte	0xad
 1291 01a0 0C       		.byte	0xc
 1292 01a1 06       		.uleb128 0x6
 1293 01a2 74000000 		.4byte	.LASF36
 1294 01a6 07       		.byte	0x7
 1295 01a7 6F       		.byte	0x6f
 1296 01a8 0D       		.byte	0xd
 1297 01a9 BE000000 		.4byte	0xbe
 1298 01ad 10       		.byte	0x10
 1299 01ae 06       		.uleb128 0x6
 1300 01af 99010000 		.4byte	.LASF37
 1301 01b3 07       		.byte	0x7
 1302 01b4 70       		.byte	0x70
 1303 01b5 16       		.byte	0x16
 1304 01b6 36010000 		.4byte	0x136
 1305 01ba 14       		.byte	0x14
 1306 01bb 06       		.uleb128 0x6
 1307 01bc 3A030000 		.4byte	.LASF38
 1308 01c0 07       		.byte	0x7
 1309 01c1 71       		.byte	0x71
 1310 01c2 0C       		.byte	0xc
 1311 01c3 97000000 		.4byte	0x97
ARM GAS  C:\Users\DEVELO~1\AppData\Local\Temp\ccpaNuUE.s 			page 24


 1312 01c7 16       		.byte	0x16
 1313 01c8 06       		.uleb128 0x6
 1314 01c9 D2030000 		.4byte	.LASF39
 1315 01cd 07       		.byte	0x7
 1316 01ce 72       		.byte	0x72
 1317 01cf 0D       		.byte	0xd
 1318 01d0 D1000000 		.4byte	0xd1
 1319 01d4 18       		.byte	0x18
 1320 01d5 06       		.uleb128 0x6
 1321 01d6 44000000 		.4byte	.LASF40
 1322 01da 07       		.byte	0x7
 1323 01db 73       		.byte	0x73
 1324 01dc 0D       		.byte	0xd
 1325 01dd D1000000 		.4byte	0xd1
 1326 01e1 1C       		.byte	0x1c
 1327 01e2 00       		.byte	0
 1328 01e3 08       		.uleb128 0x8
 1329 01e4 93050000 		.4byte	.LASF41
 1330 01e8 07       		.byte	0x7
 1331 01e9 74       		.byte	0x74
 1332 01ea 03       		.byte	0x3
 1333 01eb 65010000 		.4byte	0x165
 1334 01ef 1F       		.uleb128 0x1f
 1335 01f0 2C       		.byte	0x2c
 1336 01f1 08       		.byte	0x8
 1337 01f2 1F       		.byte	0x1f
 1338 01f3 2C020000 		.4byte	0x22c
 1339 01f7 06       		.uleb128 0x6
 1340 01f8 69010000 		.4byte	.LASF42
 1341 01fc 08       		.byte	0x8
 1342 01fd 20       		.byte	0x20
 1343 01fe 15       		.byte	0x15
 1344 01ff 59010000 		.4byte	0x159
 1345 0203 00       		.byte	0
 1346 0204 06       		.uleb128 0x6
 1347 0205 40050000 		.4byte	.LASF43
 1348 0209 08       		.byte	0x8
 1349 020a 21       		.byte	0x21
 1350 020b 0C       		.byte	0xc
 1351 020c AD000000 		.4byte	0xad
 1352 0210 04       		.byte	0x4
 1353 0211 06       		.uleb128 0x6
 1354 0212 37000000 		.4byte	.LASF44
 1355 0216 08       		.byte	0x8
 1356 0217 22       		.byte	0x22
 1357 0218 0C       		.byte	0xc
 1358 0219 AD000000 		.4byte	0xad
 1359 021d 08       		.byte	0x8
 1360 021e 06       		.uleb128 0x6
 1361 021f 28000000 		.4byte	.LASF45
 1362 0223 08       		.byte	0x8
 1363 0224 23       		.byte	0x23
 1364 0225 17       		.byte	0x17
 1365 0226 E3010000 		.4byte	0x1e3
 1366 022a 0C       		.byte	0xc
 1367 022b 00       		.byte	0
 1368 022c 08       		.uleb128 0x8
ARM GAS  C:\Users\DEVELO~1\AppData\Local\Temp\ccpaNuUE.s 			page 25


 1369 022d 52050000 		.4byte	.LASF46
 1370 0231 08       		.byte	0x8
 1371 0232 24       		.byte	0x24
 1372 0233 03       		.byte	0x3
 1373 0234 EF010000 		.4byte	0x1ef
 1374 0238 2A       		.uleb128 0x2a
 1375 0239 48010000 		.4byte	.LASF84
 1376 023d 09       		.byte	0x9
 1377 023e 4B       		.byte	0x4b
 1378 023f 0D       		.byte	0xd
 1379 0240 D1000000 		.4byte	0xd1
 1380 0244 2B       		.uleb128 0x2b
 1381 0245 02020000 		.4byte	.LASF85
 1382 0249 0A       		.byte	0xa
 1383 024a DF01     		.2byte	0x1df
 1384 024c 08       		.byte	0x8
 1385 024d 2C       		.uleb128 0x2c
 1386 024e 2A020000 		.4byte	.LASF86
 1387 0252 01       		.byte	0x1
 1388 0253 A3       		.byte	0xa3
 1389 0254 06       		.byte	0x6
 1390 0255 DD000000 		.4byte	0xdd
 1391 0259 00000000 		.4byte	.LFB458
 1392 025d D2010000 		.4byte	.LFE458-.LFB458
 1393 0261 01       		.uleb128 0x1
 1394 0262 9C       		.byte	0x9c
 1395 0263 A8070000 		.4byte	0x7a8
 1396 0267 2D       		.uleb128 0x2d
 1397 0268 63747800 		.ascii	"ctx\000"
 1398 026c 01       		.byte	0x1
 1399 026d A3       		.byte	0xa3
 1400 026e 2D       		.byte	0x2d
 1401 026f A8070000 		.4byte	0x7a8
 1402 0273 14000000 		.4byte	.LLST34
 1403 0277 0C000000 		.4byte	.LVUS34
 1404 027b 12       		.uleb128 0x12
 1405 027c 2B030000 		.4byte	.LASF47
 1406 0280 AF       		.byte	0xaf
 1407 0281 12       		.byte	0x12
 1408 0282 B9000000 		.4byte	0xb9
 1409 0286 33000000 		.4byte	.LLST35
 1410 028a 2F000000 		.4byte	.LVUS35
 1411 028e 12       		.uleb128 0x12
 1412 028f 1B020000 		.4byte	.LASF48
 1413 0293 B0       		.byte	0xb0
 1414 0294 12       		.byte	0x12
 1415 0295 B9000000 		.4byte	0xb9
 1416 0299 4A000000 		.4byte	.LLST36
 1417 029d 46000000 		.4byte	.LVUS36
 1418 02a1 2E       		.uleb128 0x2e
 1419 02a2 67050000 		.4byte	.LASF49
 1420 02a6 01       		.byte	0x1
 1421 02a7 B3       		.byte	0xb3
 1422 02a8 1C       		.byte	0x1c
 1423 02a9 B2070000 		.4byte	0x7b2
 1424 02ad 80808080 		.sleb128 -1073741824
 1424      7C
ARM GAS  C:\Users\DEVELO~1\AppData\Local\Temp\ccpaNuUE.s 			page 26


 1425 02b2 2F       		.uleb128 0x2f
 1426 02b3 1E010000 		.4byte	.LBB195
 1427 02b7 B4000000 		.4byte	.LBE195-.LBB195
 1428 02bb FD040000 		.4byte	0x4fd
 1429 02bf 30       		.uleb128 0x30
 1430 02c0 3B010000 		.4byte	.LASF50
 1431 02c4 01       		.byte	0x1
 1432 02c5 C3       		.byte	0xc3
 1433 02c6 14       		.byte	0x14
 1434 02c7 B9000000 		.4byte	0xb9
 1435 02cb 00000200 		.4byte	0x20000
 1436 02cf 12       		.uleb128 0x12
 1437 02d0 0C050000 		.4byte	.LASF51
 1438 02d4 C4       		.byte	0xc4
 1439 02d5 14       		.byte	0x14
 1440 02d6 B9000000 		.4byte	0xb9
 1441 02da 67000000 		.4byte	.LLST56
 1442 02de 65000000 		.4byte	.LVUS56
 1443 02e2 12       		.uleb128 0x12
 1444 02e3 DA010000 		.4byte	.LASF52
 1445 02e7 C5       		.byte	0xc5
 1446 02e8 14       		.byte	0x14
 1447 02e9 B9000000 		.4byte	0xb9
 1448 02ed 72000000 		.4byte	.LLST57
 1449 02f1 70000000 		.4byte	.LVUS57
 1450 02f5 12       		.uleb128 0x12
 1451 02f6 20030000 		.4byte	.LASF53
 1452 02fa C6       		.byte	0xc6
 1453 02fb 14       		.byte	0x14
 1454 02fc B9000000 		.4byte	0xb9
 1455 0300 7E000000 		.4byte	.LLST58
 1456 0304 7C000000 		.4byte	.LVUS58
 1457 0308 13       		.uleb128 0x13
 1458 0309 2B080000 		.4byte	0x82b
 1459 030d 40010000 		.4byte	.LBI196
 1460 0311 02       		.byte	.LVU304
 1461 0312 FE000000 		.4byte	.LLRL59
 1462 0316 C8       		.byte	0xc8
 1463 0317 05       		.byte	0x5
 1464 0318 6D040000 		.4byte	0x46d
 1465 031c 01       		.uleb128 0x1
 1466 031d 35080000 		.4byte	0x835
 1467 0321 8C000000 		.4byte	.LLST60
 1468 0325 88000000 		.4byte	.LVUS60
 1469 0329 01       		.uleb128 0x1
 1470 032a 4B080000 		.4byte	0x84b
 1471 032e A9000000 		.4byte	.LLST61
 1472 0332 A5000000 		.4byte	.LVUS61
 1473 0336 03       		.uleb128 0x3
 1474 0337 40080000 		.4byte	0x840
 1475 033b 20       		.uleb128 0x20
 1476 033c FE000000 		.4byte	.LLRL59
 1477 0340 31       		.uleb128 0x31
 1478 0341 56080000 		.4byte	0x856
 1479 0345 80808080 		.sleb128 -1073741824
 1479      7C
 1480 034a 05       		.uleb128 0x5
ARM GAS  C:\Users\DEVELO~1\AppData\Local\Temp\ccpaNuUE.s 			page 27


 1481 034b 61080000 		.4byte	0x861
 1482 034f BE000000 		.4byte	.LLST62
 1483 0353 BA000000 		.4byte	.LVUS62
 1484 0357 05       		.uleb128 0x5
 1485 0358 6C080000 		.4byte	0x86c
 1486 035c D3000000 		.4byte	.LLST63
 1487 0360 CF000000 		.4byte	.LVUS63
 1488 0364 05       		.uleb128 0x5
 1489 0365 77080000 		.4byte	0x877
 1490 0369 E8000000 		.4byte	.LLST64
 1491 036d E4000000 		.4byte	.LVUS64
 1492 0371 21       		.uleb128 0x21
 1493 0372 2D0A0000 		.4byte	0xa2d
 1494 0376 54010000 		.4byte	.LBI198
 1495 037a 01       		.byte	.LVU321
 1496 037b 54010000 		.4byte	.LBB198
 1497 037f 1A000000 		.4byte	.LBE198-.LBB198
 1498 0383 7B       		.byte	0x7b
 1499 0384 CA030000 		.4byte	0x3ca
 1500 0388 01       		.uleb128 0x1
 1501 0389 630A0000 		.4byte	0xa63
 1502 038d FA000000 		.4byte	.LLST65
 1503 0391 F8000000 		.4byte	.LVUS65
 1504 0395 01       		.uleb128 0x1
 1505 0396 580A0000 		.4byte	0xa58
 1506 039a 06010000 		.4byte	.LLST66
 1507 039e 04010000 		.4byte	.LVUS66
 1508 03a2 01       		.uleb128 0x1
 1509 03a3 4D0A0000 		.4byte	0xa4d
 1510 03a7 11010000 		.4byte	.LLST67
 1511 03ab 0F010000 		.4byte	.LVUS67
 1512 03af 01       		.uleb128 0x1
 1513 03b0 420A0000 		.4byte	0xa42
 1514 03b4 1F010000 		.4byte	.LLST68
 1515 03b8 1D010000 		.4byte	.LVUS68
 1516 03bc 01       		.uleb128 0x1
 1517 03bd 370A0000 		.4byte	0xa37
 1518 03c1 2E010000 		.4byte	.LLST69
 1519 03c5 2C010000 		.4byte	.LVUS69
 1520 03c9 00       		.byte	0
 1521 03ca 21       		.uleb128 0x21
 1522 03cb 2D0A0000 		.4byte	0xa2d
 1523 03cf 76010000 		.4byte	.LBI200
 1524 03d3 01       		.byte	.LVU339
 1525 03d4 76010000 		.4byte	.LBB200
 1526 03d8 1A000000 		.4byte	.LBE200-.LBB200
 1527 03dc 82       		.byte	0x82
 1528 03dd 23040000 		.4byte	0x423
 1529 03e1 01       		.uleb128 0x1
 1530 03e2 630A0000 		.4byte	0xa63
 1531 03e6 3B010000 		.4byte	.LLST70
 1532 03ea 39010000 		.4byte	.LVUS70
 1533 03ee 01       		.uleb128 0x1
 1534 03ef 580A0000 		.4byte	0xa58
 1535 03f3 47010000 		.4byte	.LLST71
 1536 03f7 45010000 		.4byte	.LVUS71
 1537 03fb 01       		.uleb128 0x1
ARM GAS  C:\Users\DEVELO~1\AppData\Local\Temp\ccpaNuUE.s 			page 28


 1538 03fc 4D0A0000 		.4byte	0xa4d
 1539 0400 52010000 		.4byte	.LLST72
 1540 0404 50010000 		.4byte	.LVUS72
 1541 0408 01       		.uleb128 0x1
 1542 0409 420A0000 		.4byte	0xa42
 1543 040d 60010000 		.4byte	.LLST73
 1544 0411 5E010000 		.4byte	.LVUS73
 1545 0415 01       		.uleb128 0x1
 1546 0416 370A0000 		.4byte	0xa37
 1547 041a 6B010000 		.4byte	.LLST74
 1548 041e 69010000 		.4byte	.LVUS74
 1549 0422 00       		.byte	0
 1550 0423 14       		.uleb128 0x14
 1551 0424 2D0A0000 		.4byte	0xa2d
 1552 0428 B2010000 		.4byte	.LBI202
 1553 042c 01       		.byte	.LVU367
 1554 042d B2010000 		.4byte	.LBB202
 1555 0431 20000000 		.4byte	.LBE202-.LBB202
 1556 0435 01       		.byte	0x1
 1557 0436 74       		.byte	0x74
 1558 0437 05       		.byte	0x5
 1559 0438 1B       		.uleb128 0x1b
 1560 0439 630A0000 		.4byte	0xa63
 1561 043d 02       		.byte	0x2
 1562 043e 01       		.uleb128 0x1
 1563 043f 580A0000 		.4byte	0xa58
 1564 0443 78010000 		.4byte	.LLST75
 1565 0447 76010000 		.4byte	.LVUS75
 1566 044b 15       		.uleb128 0x15
 1567 044c 4D0A0000 		.4byte	0xa4d
 1568 0450 DACA7E   		.sleb128 -23206
 1569 0453 15       		.uleb128 0x15
 1570 0454 420A0000 		.4byte	0xa42
 1571 0458 80808080 		.sleb128 -1073741824
 1571      7C
 1572 045d 01       		.uleb128 0x1
 1573 045e 370A0000 		.4byte	0xa37
 1574 0462 83010000 		.4byte	.LLST76
 1575 0466 81010000 		.4byte	.LVUS76
 1576 046a 00       		.byte	0
 1577 046b 00       		.byte	0
 1578 046c 00       		.byte	0
 1579 046d 10       		.uleb128 0x10
 1580 046e A0010000 		.4byte	.LVL63
 1581 0472 9B0A0000 		.4byte	0xa9b
 1582 0476 99040000 		.4byte	0x499
 1583 047a 02       		.uleb128 0x2
 1584 047b 01       		.uleb128 0x1
 1585 047c 50       		.byte	0x50
 1586 047d 01       		.uleb128 0x1
 1587 047e 30       		.byte	0x30
 1588 047f 02       		.uleb128 0x2
 1589 0480 01       		.uleb128 0x1
 1590 0481 51       		.byte	0x51
 1591 0482 02       		.uleb128 0x2
 1592 0483 71       		.byte	0x71
 1593 0484 00       		.sleb128 0
ARM GAS  C:\Users\DEVELO~1\AppData\Local\Temp\ccpaNuUE.s 			page 29


 1594 0485 09       		.uleb128 0x9
 1595 0486 C1070000 		.4byte	0x7c1
 1596 048a 04       		.uleb128 0x4
 1597 048b 40       		.byte	0x40
 1598 048c 4A       		.byte	0x4a
 1599 048d 24       		.byte	0x24
 1600 048e 1F       		.byte	0x1f
 1601 048f 09       		.uleb128 0x9
 1602 0490 D7070000 		.4byte	0x7d7
 1603 0494 03       		.uleb128 0x3
 1604 0495 40       		.byte	0x40
 1605 0496 3D       		.byte	0x3d
 1606 0497 24       		.byte	0x24
 1607 0498 00       		.byte	0
 1608 0499 10       		.uleb128 0x10
 1609 049a A6010000 		.4byte	.LVL64
 1610 049e 9B0A0000 		.4byte	0xa9b
 1611 04a2 C6040000 		.4byte	0x4c6
 1612 04a6 02       		.uleb128 0x2
 1613 04a7 01       		.uleb128 0x1
 1614 04a8 50       		.byte	0x50
 1615 04a9 02       		.uleb128 0x2
 1616 04aa 74       		.byte	0x74
 1617 04ab 00       		.sleb128 0
 1618 04ac 02       		.uleb128 0x2
 1619 04ad 01       		.uleb128 0x1
 1620 04ae 51       		.byte	0x51
 1621 04af 02       		.uleb128 0x2
 1622 04b0 71       		.byte	0x71
 1623 04b1 00       		.sleb128 0
 1624 04b2 09       		.uleb128 0x9
 1625 04b3 C1070000 		.4byte	0x7c1
 1626 04b7 04       		.uleb128 0x4
 1627 04b8 40       		.byte	0x40
 1628 04b9 4A       		.byte	0x4a
 1629 04ba 24       		.byte	0x24
 1630 04bb 1F       		.byte	0x1f
 1631 04bc 09       		.uleb128 0x9
 1632 04bd D7070000 		.4byte	0x7d7
 1633 04c1 03       		.uleb128 0x3
 1634 04c2 40       		.byte	0x40
 1635 04c3 3D       		.byte	0x3d
 1636 04c4 24       		.byte	0x24
 1637 04c5 00       		.byte	0
 1638 04c6 10       		.uleb128 0x10
 1639 04c7 AC010000 		.4byte	.LVL65
 1640 04cb 9B0A0000 		.4byte	0xa9b
 1641 04cf F3040000 		.4byte	0x4f3
 1642 04d3 02       		.uleb128 0x2
 1643 04d4 01       		.uleb128 0x1
 1644 04d5 50       		.byte	0x50
 1645 04d6 02       		.uleb128 0x2
 1646 04d7 76       		.byte	0x76
 1647 04d8 00       		.sleb128 0
 1648 04d9 02       		.uleb128 0x2
 1649 04da 01       		.uleb128 0x1
 1650 04db 51       		.byte	0x51
ARM GAS  C:\Users\DEVELO~1\AppData\Local\Temp\ccpaNuUE.s 			page 30


 1651 04dc 02       		.uleb128 0x2
 1652 04dd 71       		.byte	0x71
 1653 04de 00       		.sleb128 0
 1654 04df 09       		.uleb128 0x9
 1655 04e0 C1070000 		.4byte	0x7c1
 1656 04e4 04       		.uleb128 0x4
 1657 04e5 40       		.byte	0x40
 1658 04e6 4A       		.byte	0x4a
 1659 04e7 24       		.byte	0x24
 1660 04e8 1F       		.byte	0x1f
 1661 04e9 09       		.uleb128 0x9
 1662 04ea D7070000 		.4byte	0x7d7
 1663 04ee 03       		.uleb128 0x3
 1664 04ef 40       		.byte	0x40
 1665 04f0 3D       		.byte	0x3d
 1666 04f1 24       		.byte	0x24
 1667 04f2 00       		.byte	0
 1668 04f3 1C       		.uleb128 0x1c
 1669 04f4 B0010000 		.4byte	.LVL66
 1670 04f8 44020000 		.4byte	0x244
 1671 04fc 00       		.byte	0
 1672 04fd 13       		.uleb128 0x13
 1673 04fe 6F0A0000 		.4byte	0xa6f
 1674 0502 14000000 		.4byte	.LBI160
 1675 0506 01       		.byte	.LVU170
 1676 0507 A8000000 		.4byte	.LLRL37
 1677 050b AC       		.byte	0xac
 1678 050c 03       		.byte	0x3
 1679 050d 54050000 		.4byte	0x554
 1680 0511 01       		.uleb128 0x1
 1681 0512 790A0000 		.4byte	0xa79
 1682 0516 92010000 		.4byte	.LLST38
 1683 051a 8E010000 		.4byte	.LVUS38
 1684 051e 14       		.uleb128 0x14
 1685 051f 850A0000 		.4byte	0xa85
 1686 0523 26000000 		.4byte	.LBI162
 1687 0527 03       		.byte	.LVU182
 1688 0528 26000000 		.4byte	.LBB162
 1689 052c 04000000 		.4byte	.LBE162-.LBB162
 1690 0530 01       		.byte	0x1
 1691 0531 15       		.byte	0x15
 1692 0532 1A       		.byte	0x1a
 1693 0533 14       		.uleb128 0x14
 1694 0534 900A0000 		.4byte	0xa90
 1695 0538 26000000 		.4byte	.LBI163
 1696 053c 05       		.byte	.LVU184
 1697 053d 26000000 		.4byte	.LBB163
 1698 0541 04000000 		.4byte	.LBE163-.LBB163
 1699 0545 02       		.byte	0x2
 1700 0546 8C       		.byte	0x8c
 1701 0547 0A       		.byte	0xa
 1702 0548 1C       		.uleb128 0x1c
 1703 0549 2A000000 		.4byte	.LVL31
 1704 054d 38020000 		.4byte	0x238
 1705 0551 00       		.byte	0
 1706 0552 00       		.byte	0
 1707 0553 00       		.byte	0
ARM GAS  C:\Users\DEVELO~1\AppData\Local\Temp\ccpaNuUE.s 			page 31


 1708 0554 13       		.uleb128 0x13
 1709 0555 83080000 		.4byte	0x883
 1710 0559 7A000000 		.4byte	.LBI167
 1711 055d 01       		.byte	.LVU210
 1712 055e B4000000 		.4byte	.LLRL39
 1713 0562 C0       		.byte	0xc0
 1714 0563 03       		.byte	0x3
 1715 0564 57060000 		.4byte	0x657
 1716 0568 01       		.uleb128 0x1
 1717 0569 8D080000 		.4byte	0x88d
 1718 056d A8010000 		.4byte	.LLST40
 1719 0571 A6010000 		.4byte	.LVUS40
 1720 0575 01       		.uleb128 0x1
 1721 0576 A3080000 		.4byte	0x8a3
 1722 057a BA010000 		.4byte	.LLST41
 1723 057e B6010000 		.4byte	.LVUS41
 1724 0582 01       		.uleb128 0x1
 1725 0583 98080000 		.4byte	0x898
 1726 0587 CD010000 		.4byte	.LLST42
 1727 058b CB010000 		.4byte	.LVUS42
 1728 058f 20       		.uleb128 0x20
 1729 0590 B4000000 		.4byte	.LLRL39
 1730 0594 05       		.uleb128 0x5
 1731 0595 AE080000 		.4byte	0x8ae
 1732 0599 E1010000 		.4byte	.LLST43
 1733 059d DB010000 		.4byte	.LVUS43
 1734 05a1 22       		.uleb128 0x22
 1735 05a2 B9080000 		.4byte	0x8b9
 1736 05a6 C8000000 		.4byte	.LLRL44
 1737 05aa D7050000 		.4byte	0x5d7
 1738 05ae 05       		.uleb128 0x5
 1739 05af BE080000 		.4byte	0x8be
 1740 05b3 FB010000 		.4byte	.LLST45
 1741 05b7 F9010000 		.4byte	.LVUS45
 1742 05bb 16       		.uleb128 0x16
 1743 05bc C7080000 		.4byte	0x8c7
 1744 05c0 88000000 		.4byte	.LBB170
 1745 05c4 1A000000 		.4byte	.LBE170-.LBB170
 1746 05c8 05       		.uleb128 0x5
 1747 05c9 C8080000 		.4byte	0x8c8
 1748 05cd 07020000 		.4byte	.LLST46
 1749 05d1 05020000 		.4byte	.LVUS46
 1750 05d5 00       		.byte	0
 1751 05d6 00       		.byte	0
 1752 05d7 16       		.uleb128 0x16
 1753 05d8 D5080000 		.4byte	0x8d5
 1754 05dc AE000000 		.4byte	.LBB172
 1755 05e0 44000000 		.4byte	.LBE172-.LBB172
 1756 05e4 1D       		.uleb128 0x1d
 1757 05e5 D6080000 		.4byte	0x8d6
 1758 05e9 11       		.uleb128 0x11
 1759 05ea DF080000 		.4byte	0x8df
 1760 05ee D4000000 		.4byte	.LLRL47
 1761 05f2 05       		.uleb128 0x5
 1762 05f3 E0080000 		.4byte	0x8e0
 1763 05f7 25020000 		.4byte	.LLST48
 1764 05fb 23020000 		.4byte	.LVUS48
ARM GAS  C:\Users\DEVELO~1\AppData\Local\Temp\ccpaNuUE.s 			page 32


 1765 05ff 05       		.uleb128 0x5
 1766 0600 EB080000 		.4byte	0x8eb
 1767 0604 43020000 		.4byte	.LLST49
 1768 0608 41020000 		.4byte	.LVUS49
 1769 060c 05       		.uleb128 0x5
 1770 060d F6080000 		.4byte	0x8f6
 1771 0611 4E020000 		.4byte	.LLST50
 1772 0615 4C020000 		.4byte	.LVUS50
 1773 0619 17       		.uleb128 0x17
 1774 061a 2D0A0000 		.4byte	0xa2d
 1775 061e D0000000 		.4byte	.LBI174
 1776 0622 03       		.byte	.LVU242
 1777 0623 E3000000 		.4byte	.LLRL51
 1778 0627 5D       		.byte	0x5d
 1779 0628 1B       		.uleb128 0x1b
 1780 0629 630A0000 		.4byte	0xa63
 1781 062d 01       		.byte	0x1
 1782 062e 01       		.uleb128 0x1
 1783 062f 580A0000 		.4byte	0xa58
 1784 0633 5B020000 		.4byte	.LLST52
 1785 0637 57020000 		.4byte	.LVUS52
 1786 063b 01       		.uleb128 0x1
 1787 063c 4D0A0000 		.4byte	0xa4d
 1788 0640 6D020000 		.4byte	.LLST53
 1789 0644 6B020000 		.4byte	.LVUS53
 1790 0648 03       		.uleb128 0x3
 1791 0649 420A0000 		.4byte	0xa42
 1792 064d 03       		.uleb128 0x3
 1793 064e 370A0000 		.4byte	0xa37
 1794 0652 00       		.byte	0
 1795 0653 00       		.byte	0
 1796 0654 00       		.byte	0
 1797 0655 00       		.byte	0
 1798 0656 00       		.byte	0
 1799 0657 13       		.uleb128 0x13
 1800 0658 170A0000 		.4byte	0xa17
 1801 065c 04010000 		.4byte	.LBI188
 1802 0660 01       		.byte	.LVU274
 1803 0661 F2000000 		.4byte	.LLRL54
 1804 0665 CF       		.byte	0xcf
 1805 0666 03       		.byte	0x3
 1806 0667 AE060000 		.4byte	0x6ae
 1807 066b 01       		.uleb128 0x1
 1808 066c 210A0000 		.4byte	0xa21
 1809 0670 78020000 		.4byte	.LLST55
 1810 0674 76020000 		.4byte	.LVUS55
 1811 0678 14       		.uleb128 0x14
 1812 0679 850A0000 		.4byte	0xa85
 1813 067d 10010000 		.4byte	.LBI190
 1814 0681 01       		.byte	.LVU281
 1815 0682 10010000 		.4byte	.LBB190
 1816 0686 06000000 		.4byte	.LBE190-.LBB190
 1817 068a 01       		.byte	0x1
 1818 068b 2B       		.byte	0x2b
 1819 068c 18       		.byte	0x18
 1820 068d 14       		.uleb128 0x14
 1821 068e 900A0000 		.4byte	0xa90
ARM GAS  C:\Users\DEVELO~1\AppData\Local\Temp\ccpaNuUE.s 			page 33


 1822 0692 10010000 		.4byte	.LBI191
 1823 0696 03       		.byte	.LVU283
 1824 0697 10010000 		.4byte	.LBB191
 1825 069b 06000000 		.4byte	.LBE191-.LBB191
 1826 069f 02       		.byte	0x2
 1827 06a0 8C       		.byte	0x8c
 1828 06a1 0A       		.byte	0xa
 1829 06a2 1C       		.uleb128 0x1c
 1830 06a3 14010000 		.4byte	.LVL48
 1831 06a7 38020000 		.4byte	0x238
 1832 06ab 00       		.byte	0
 1833 06ac 00       		.byte	0
 1834 06ad 00       		.byte	0
 1835 06ae 10       		.uleb128 0x10
 1836 06af 54000000 		.4byte	.LVL33
 1837 06b3 770B0000 		.4byte	0xb77
 1838 06b7 D8060000 		.4byte	0x6d8
 1839 06bb 02       		.uleb128 0x2
 1840 06bc 01       		.uleb128 0x1
 1841 06bd 50       		.byte	0x50
 1842 06be 02       		.uleb128 0x2
 1843 06bf 70       		.byte	0x70
 1844 06c0 00       		.sleb128 0
 1845 06c1 02       		.uleb128 0x2
 1846 06c2 01       		.uleb128 0x1
 1847 06c3 51       		.byte	0x51
 1848 06c4 02       		.uleb128 0x2
 1849 06c5 77       		.byte	0x77
 1850 06c6 00       		.sleb128 0
 1851 06c7 02       		.uleb128 0x2
 1852 06c8 01       		.uleb128 0x1
 1853 06c9 52       		.byte	0x52
 1854 06ca 02       		.uleb128 0x2
 1855 06cb 72       		.byte	0x72
 1856 06cc 00       		.sleb128 0
 1857 06cd 09       		.uleb128 0x9
 1858 06ce 5F090000 		.4byte	0x95f
 1859 06d2 04       		.uleb128 0x4
 1860 06d3 40       		.byte	0x40
 1861 06d4 4A       		.byte	0x4a
 1862 06d5 24       		.byte	0x24
 1863 06d6 1F       		.byte	0x1f
 1864 06d7 00       		.byte	0
 1865 06d8 10       		.uleb128 0x10
 1866 06d9 5C000000 		.4byte	.LVL34
 1867 06dd 770B0000 		.4byte	0xb77
 1868 06e1 02070000 		.4byte	0x702
 1869 06e5 02       		.uleb128 0x2
 1870 06e6 01       		.uleb128 0x1
 1871 06e7 50       		.byte	0x50
 1872 06e8 02       		.uleb128 0x2
 1873 06e9 70       		.byte	0x70
 1874 06ea 00       		.sleb128 0
 1875 06eb 02       		.uleb128 0x2
 1876 06ec 01       		.uleb128 0x1
 1877 06ed 51       		.byte	0x51
 1878 06ee 02       		.uleb128 0x2
ARM GAS  C:\Users\DEVELO~1\AppData\Local\Temp\ccpaNuUE.s 			page 34


 1879 06ef 09       		.byte	0x9
 1880 06f0 FF       		.byte	0xff
 1881 06f1 02       		.uleb128 0x2
 1882 06f2 01       		.uleb128 0x1
 1883 06f3 52       		.byte	0x52
 1884 06f4 02       		.uleb128 0x2
 1885 06f5 72       		.byte	0x72
 1886 06f6 00       		.sleb128 0
 1887 06f7 09       		.uleb128 0x9
 1888 06f8 5F090000 		.4byte	0x95f
 1889 06fc 04       		.uleb128 0x4
 1890 06fd 40       		.byte	0x40
 1891 06fe 4A       		.byte	0x4a
 1892 06ff 24       		.byte	0x24
 1893 0700 1F       		.byte	0x1f
 1894 0701 00       		.byte	0
 1895 0702 10       		.uleb128 0x10
 1896 0703 64000000 		.4byte	.LVL35
 1897 0707 770B0000 		.4byte	0xb77
 1898 070b 2D070000 		.4byte	0x72d
 1899 070f 02       		.uleb128 0x2
 1900 0710 01       		.uleb128 0x1
 1901 0711 50       		.byte	0x50
 1902 0712 02       		.uleb128 0x2
 1903 0713 70       		.byte	0x70
 1904 0714 00       		.sleb128 0
 1905 0715 02       		.uleb128 0x2
 1906 0716 01       		.uleb128 0x1
 1907 0717 51       		.byte	0x51
 1908 0718 03       		.uleb128 0x3
 1909 0719 0B       		.byte	0xb
 1910 071a AAAA     		.2byte	0xaaaa
 1911 071c 02       		.uleb128 0x2
 1912 071d 01       		.uleb128 0x1
 1913 071e 52       		.byte	0x52
 1914 071f 02       		.uleb128 0x2
 1915 0720 72       		.byte	0x72
 1916 0721 00       		.sleb128 0
 1917 0722 09       		.uleb128 0x9
 1918 0723 5F090000 		.4byte	0x95f
 1919 0727 04       		.uleb128 0x4
 1920 0728 40       		.byte	0x40
 1921 0729 4A       		.byte	0x4a
 1922 072a 24       		.byte	0x24
 1923 072b 1F       		.byte	0x1f
 1924 072c 00       		.byte	0
 1925 072d 10       		.uleb128 0x10
 1926 072e 6C000000 		.4byte	.LVL36
 1927 0732 770B0000 		.4byte	0xb77
 1928 0736 58070000 		.4byte	0x758
 1929 073a 02       		.uleb128 0x2
 1930 073b 01       		.uleb128 0x1
 1931 073c 50       		.byte	0x50
 1932 073d 02       		.uleb128 0x2
 1933 073e 70       		.byte	0x70
 1934 073f 00       		.sleb128 0
 1935 0740 02       		.uleb128 0x2
ARM GAS  C:\Users\DEVELO~1\AppData\Local\Temp\ccpaNuUE.s 			page 35


 1936 0741 01       		.uleb128 0x1
 1937 0742 51       		.byte	0x51
 1938 0743 03       		.uleb128 0x3
 1939 0744 0A       		.byte	0xa
 1940 0745 5555     		.2byte	0x5555
 1941 0747 02       		.uleb128 0x2
 1942 0748 01       		.uleb128 0x1
 1943 0749 52       		.byte	0x52
 1944 074a 02       		.uleb128 0x2
 1945 074b 72       		.byte	0x72
 1946 074c 00       		.sleb128 0
 1947 074d 09       		.uleb128 0x9
 1948 074e 5F090000 		.4byte	0x95f
 1949 0752 04       		.uleb128 0x4
 1950 0753 40       		.byte	0x40
 1951 0754 4A       		.byte	0x4a
 1952 0755 24       		.byte	0x24
 1953 0756 1F       		.byte	0x1f
 1954 0757 00       		.byte	0
 1955 0758 10       		.uleb128 0x10
 1956 0759 72000000 		.4byte	.LVL37
 1957 075d 6E0C0000 		.4byte	0xc6e
 1958 0761 81070000 		.4byte	0x781
 1959 0765 02       		.uleb128 0x2
 1960 0766 01       		.uleb128 0x1
 1961 0767 50       		.byte	0x50
 1962 0768 02       		.uleb128 0x2
 1963 0769 76       		.byte	0x76
 1964 076a 00       		.sleb128 0
 1965 076b 02       		.uleb128 0x2
 1966 076c 01       		.uleb128 0x1
 1967 076d 51       		.byte	0x51
 1968 076e 01       		.uleb128 0x1
 1969 076f 31       		.byte	0x31
 1970 0770 02       		.uleb128 0x2
 1971 0771 01       		.uleb128 0x1
 1972 0772 52       		.byte	0x52
 1973 0773 02       		.uleb128 0x2
 1974 0774 72       		.byte	0x72
 1975 0775 00       		.sleb128 0
 1976 0776 09       		.uleb128 0x9
 1977 0777 0E090000 		.4byte	0x90e
 1978 077b 04       		.uleb128 0x4
 1979 077c 40       		.byte	0x40
 1980 077d 4A       		.byte	0x4a
 1981 077e 24       		.byte	0x24
 1982 077f 1F       		.byte	0x1f
 1983 0780 00       		.byte	0
 1984 0781 32       		.uleb128 0x32
 1985 0782 7A000000 		.4byte	.LVL38
 1986 0786 6E0C0000 		.4byte	0xc6e
 1987 078a 02       		.uleb128 0x2
 1988 078b 01       		.uleb128 0x1
 1989 078c 50       		.byte	0x50
 1990 078d 02       		.uleb128 0x2
 1991 078e 76       		.byte	0x76
 1992 078f 00       		.sleb128 0
ARM GAS  C:\Users\DEVELO~1\AppData\Local\Temp\ccpaNuUE.s 			page 36


 1993 0790 02       		.uleb128 0x2
 1994 0791 01       		.uleb128 0x1
 1995 0792 51       		.byte	0x51
 1996 0793 02       		.uleb128 0x2
 1997 0794 77       		.byte	0x77
 1998 0795 00       		.sleb128 0
 1999 0796 02       		.uleb128 0x2
 2000 0797 01       		.uleb128 0x1
 2001 0798 52       		.byte	0x52
 2002 0799 02       		.uleb128 0x2
 2003 079a 72       		.byte	0x72
 2004 079b 00       		.sleb128 0
 2005 079c 09       		.uleb128 0x9
 2006 079d 0E090000 		.4byte	0x90e
 2007 07a1 04       		.uleb128 0x4
 2008 07a2 40       		.byte	0x40
 2009 07a3 4A       		.byte	0x4a
 2010 07a4 24       		.byte	0x24
 2011 07a5 1F       		.byte	0x1f
 2012 07a6 00       		.byte	0
 2013 07a7 00       		.byte	0
 2014 07a8 1E       		.uleb128 0x1e
 2015 07a9 2C020000 		.4byte	0x22c
 2016 07ad 1E       		.uleb128 0x1e
 2017 07ae A3000000 		.4byte	0xa3
 2018 07b2 19       		.uleb128 0x19
 2019 07b3 AD070000 		.4byte	0x7ad
 2020 07b7 0C       		.uleb128 0xc
 2021 07b8 C8020000 		.4byte	.LASF59
 2022 07bc 8E       		.byte	0x8e
 2023 07bd 2B080000 		.4byte	0x82b
 2024 07c1 04       		.uleb128 0x4
 2025 07c2 67050000 		.4byte	.LASF49
 2026 07c6 8E       		.byte	0x8e
 2027 07c7 42       		.byte	0x42
 2028 07c8 AD070000 		.4byte	0x7ad
 2029 07cc 04       		.uleb128 0x4
 2030 07cd 6C040000 		.4byte	.LASF54
 2031 07d1 8F       		.byte	0x8f
 2032 07d2 38       		.byte	0x38
 2033 07d3 AD000000 		.4byte	0xad
 2034 07d7 04       		.uleb128 0x4
 2035 07d8 14000000 		.4byte	.LASF55
 2036 07dc 90       		.byte	0x90
 2037 07dd 38       		.byte	0x38
 2038 07de AD000000 		.4byte	0xad
 2039 07e2 0E       		.uleb128 0xe
 2040 07e3 63747800 		.ascii	"ctx\000"
 2041 07e7 91       		.byte	0x91
 2042 07e8 45       		.byte	0x45
 2043 07e9 A8070000 		.4byte	0x7a8
 2044 07ed 0A       		.uleb128 0xa
 2045 07ee 63000000 		.4byte	.LASF56
 2046 07f2 92       		.byte	0x92
 2047 07f3 1C       		.byte	0x1c
 2048 07f4 B2070000 		.4byte	0x7b2
 2049 07f8 23       		.uleb128 0x23
ARM GAS  C:\Users\DEVELO~1\AppData\Local\Temp\ccpaNuUE.s 			page 37


 2050 07f9 07080000 		.4byte	0x807
 2051 07fd 0F       		.uleb128 0xf
 2052 07fe 6900     		.ascii	"i\000"
 2053 0800 93       		.byte	0x93
 2054 0801 11       		.byte	0x11
 2055 0802 AD000000 		.4byte	0xad
 2056 0806 00       		.byte	0
 2057 0807 0D       		.uleb128 0xd
 2058 0808 0F       		.uleb128 0xf
 2059 0809 6900     		.ascii	"i\000"
 2060 080b 97       		.byte	0x97
 2061 080c 11       		.byte	0x11
 2062 080d AD000000 		.4byte	0xad
 2063 0811 0D       		.uleb128 0xd
 2064 0812 0A       		.uleb128 0xa
 2065 0813 2E040000 		.4byte	.LASF57
 2066 0817 98       		.byte	0x98
 2067 0818 14       		.byte	0x14
 2068 0819 A8000000 		.4byte	0xa8
 2069 081d 0A       		.uleb128 0xa
 2070 081e C8030000 		.4byte	.LASF58
 2071 0822 99       		.byte	0x99
 2072 0823 14       		.byte	0x14
 2073 0824 A8000000 		.4byte	0xa8
 2074 0828 00       		.byte	0
 2075 0829 00       		.byte	0
 2076 082a 00       		.byte	0
 2077 082b 0C       		.uleb128 0xc
 2078 082c 6A020000 		.4byte	.LASF60
 2079 0830 65       		.byte	0x65
 2080 0831 83080000 		.4byte	0x883
 2081 0835 04       		.uleb128 0x4
 2082 0836 67050000 		.4byte	.LASF49
 2083 083a 65       		.byte	0x65
 2084 083b 35       		.byte	0x35
 2085 083c AD070000 		.4byte	0x7ad
 2086 0840 04       		.uleb128 0x4
 2087 0841 14000000 		.4byte	.LASF55
 2088 0845 65       		.byte	0x65
 2089 0846 44       		.byte	0x44
 2090 0847 AD000000 		.4byte	0xad
 2091 084b 0E       		.uleb128 0xe
 2092 084c 63747800 		.ascii	"ctx\000"
 2093 0850 65       		.byte	0x65
 2094 0851 61       		.byte	0x61
 2095 0852 A8070000 		.4byte	0x7a8
 2096 0856 0A       		.uleb128 0xa
 2097 0857 79010000 		.4byte	.LASF61
 2098 085b 6A       		.byte	0x6a
 2099 085c 16       		.byte	0x16
 2100 085d AD070000 		.4byte	0x7ad
 2101 0861 0A       		.uleb128 0xa
 2102 0862 80010000 		.4byte	.LASF62
 2103 0866 6B       		.byte	0x6b
 2104 0867 16       		.byte	0x16
 2105 0868 AD070000 		.4byte	0x7ad
 2106 086c 0A       		.uleb128 0xa
ARM GAS  C:\Users\DEVELO~1\AppData\Local\Temp\ccpaNuUE.s 			page 38


 2107 086d 4E030000 		.4byte	.LASF63
 2108 0871 70       		.byte	0x70
 2109 0872 12       		.byte	0x12
 2110 0873 A8000000 		.4byte	0xa8
 2111 0877 0A       		.uleb128 0xa
 2112 0878 59030000 		.4byte	.LASF64
 2113 087c 71       		.byte	0x71
 2114 087d 12       		.byte	0x12
 2115 087e A8000000 		.4byte	0xa8
 2116 0882 00       		.byte	0
 2117 0883 0C       		.uleb128 0xc
 2118 0884 1A000000 		.4byte	.LASF65
 2119 0888 4E       		.byte	0x4e
 2120 0889 04090000 		.4byte	0x904
 2121 088d 04       		.uleb128 0x4
 2122 088e 67050000 		.4byte	.LASF49
 2123 0892 4E       		.byte	0x4e
 2124 0893 2E       		.byte	0x2e
 2125 0894 AD070000 		.4byte	0x7ad
 2126 0898 04       		.uleb128 0x4
 2127 0899 14000000 		.4byte	.LASF55
 2128 089d 4E       		.byte	0x4e
 2129 089e 3D       		.byte	0x3d
 2130 089f AD000000 		.4byte	0xad
 2131 08a3 0E       		.uleb128 0xe
 2132 08a4 63747800 		.ascii	"ctx\000"
 2133 08a8 4E       		.byte	0x4e
 2134 08a9 5A       		.byte	0x5a
 2135 08aa A8070000 		.4byte	0x7a8
 2136 08ae 0A       		.uleb128 0xa
 2137 08af 0F000000 		.4byte	.LASF66
 2138 08b3 4F       		.byte	0x4f
 2139 08b4 0C       		.byte	0xc
 2140 08b5 97000000 		.4byte	0x97
 2141 08b9 23       		.uleb128 0x23
 2142 08ba D5080000 		.4byte	0x8d5
 2143 08be 0F       		.uleb128 0xf
 2144 08bf 6900     		.ascii	"i\000"
 2145 08c1 50       		.byte	0x50
 2146 08c2 11       		.byte	0x11
 2147 08c3 AD000000 		.4byte	0xad
 2148 08c7 0D       		.uleb128 0xd
 2149 08c8 0F       		.uleb128 0xf
 2150 08c9 62697400 		.ascii	"bit\000"
 2151 08cd 51       		.byte	0x51
 2152 08ce 0E       		.byte	0xe
 2153 08cf 97000000 		.4byte	0x97
 2154 08d3 00       		.byte	0
 2155 08d4 00       		.byte	0
 2156 08d5 0D       		.uleb128 0xd
 2157 08d6 0F       		.uleb128 0xf
 2158 08d7 6900     		.ascii	"i\000"
 2159 08d9 57       		.byte	0x57
 2160 08da 11       		.byte	0x11
 2161 08db AD000000 		.4byte	0xad
 2162 08df 0D       		.uleb128 0xd
 2163 08e0 0F       		.uleb128 0xf
ARM GAS  C:\Users\DEVELO~1\AppData\Local\Temp\ccpaNuUE.s 			page 39


 2164 08e1 62697400 		.ascii	"bit\000"
 2165 08e5 58       		.byte	0x58
 2166 08e6 0E       		.byte	0xe
 2167 08e7 97000000 		.4byte	0x97
 2168 08eb 0A       		.uleb128 0xa
 2169 08ec 2E040000 		.4byte	.LASF57
 2170 08f0 5A       		.byte	0x5a
 2171 08f1 0E       		.byte	0xe
 2172 08f2 97000000 		.4byte	0x97
 2173 08f6 0A       		.uleb128 0xa
 2174 08f7 C8030000 		.4byte	.LASF58
 2175 08fb 5B       		.byte	0x5b
 2176 08fc 0E       		.byte	0xe
 2177 08fd 97000000 		.4byte	0x97
 2178 0901 00       		.byte	0
 2179 0902 00       		.byte	0
 2180 0903 00       		.byte	0
 2181 0904 0C       		.uleb128 0xc
 2182 0905 FB040000 		.4byte	.LASF67
 2183 0909 44       		.byte	0x44
 2184 090a 55090000 		.4byte	0x955
 2185 090e 04       		.uleb128 0x4
 2186 090f 67050000 		.4byte	.LASF49
 2187 0913 44       		.byte	0x44
 2188 0914 31       		.byte	0x31
 2189 0915 AD070000 		.4byte	0x7ad
 2190 0919 04       		.uleb128 0x4
 2191 091a 14000000 		.4byte	.LASF55
 2192 091e 44       		.byte	0x44
 2193 091f 40       		.byte	0x40
 2194 0920 AD000000 		.4byte	0xad
 2195 0924 04       		.uleb128 0x4
 2196 0925 7A030000 		.4byte	.LASF68
 2197 0929 44       		.byte	0x44
 2198 092a 4C       		.byte	0x4c
 2199 092b DD000000 		.4byte	0xdd
 2200 092f 0E       		.uleb128 0xe
 2201 0930 63747800 		.ascii	"ctx\000"
 2202 0934 44       		.byte	0x44
 2203 0935 6F       		.byte	0x6f
 2204 0936 A8070000 		.4byte	0x7a8
 2205 093a 0D       		.uleb128 0xd
 2206 093b 0F       		.uleb128 0xf
 2207 093c 62697400 		.ascii	"bit\000"
 2208 0940 45       		.byte	0x45
 2209 0941 11       		.byte	0x11
 2210 0942 AD000000 		.4byte	0xad
 2211 0946 0D       		.uleb128 0xd
 2212 0947 0A       		.uleb128 0xa
 2213 0948 2F000000 		.4byte	.LASF69
 2214 094c 46       		.byte	0x46
 2215 094d 0E       		.byte	0xe
 2216 094e 97000000 		.4byte	0x97
 2217 0952 00       		.byte	0
 2218 0953 00       		.byte	0
 2219 0954 00       		.byte	0
 2220 0955 0C       		.uleb128 0xc
ARM GAS  C:\Users\DEVELO~1\AppData\Local\Temp\ccpaNuUE.s 			page 40


 2221 0956 A7050000 		.4byte	.LASF70
 2222 095a 3D       		.byte	0x3d
 2223 095b 8C090000 		.4byte	0x98c
 2224 095f 04       		.uleb128 0x4
 2225 0960 67050000 		.4byte	.LASF49
 2226 0964 3D       		.byte	0x3d
 2227 0965 3A       		.byte	0x3a
 2228 0966 AD070000 		.4byte	0x7ad
 2229 096a 04       		.uleb128 0x4
 2230 096b 14000000 		.4byte	.LASF55
 2231 096f 3D       		.byte	0x3d
 2232 0970 49       		.byte	0x49
 2233 0971 AD000000 		.4byte	0xad
 2234 0975 04       		.uleb128 0x4
 2235 0976 2F000000 		.4byte	.LASF69
 2236 097a 3D       		.byte	0x3d
 2237 097b 59       		.byte	0x59
 2238 097c 97000000 		.4byte	0x97
 2239 0980 0E       		.uleb128 0xe
 2240 0981 63747800 		.ascii	"ctx\000"
 2241 0985 3D       		.byte	0x3d
 2242 0986 78       		.byte	0x78
 2243 0987 A8070000 		.4byte	0x7a8
 2244 098b 00       		.byte	0
 2245 098c 0C       		.uleb128 0xc
 2246 098d 7E050000 		.4byte	.LASF71
 2247 0991 34       		.byte	0x34
 2248 0992 DB090000 		.4byte	0x9db
 2249 0996 04       		.uleb128 0x4
 2250 0997 67050000 		.4byte	.LASF49
 2251 099b 34       		.byte	0x34
 2252 099c 35       		.byte	0x35
 2253 099d AD070000 		.4byte	0x7ad
 2254 09a1 04       		.uleb128 0x4
 2255 09a2 14000000 		.4byte	.LASF55
 2256 09a6 34       		.byte	0x34
 2257 09a7 44       		.byte	0x44
 2258 09a8 AD000000 		.4byte	0xad
 2259 09ac 04       		.uleb128 0x4
 2260 09ad 2F000000 		.4byte	.LASF69
 2261 09b1 34       		.byte	0x34
 2262 09b2 54       		.byte	0x54
 2263 09b3 97000000 		.4byte	0x97
 2264 09b7 0E       		.uleb128 0xe
 2265 09b8 72657300 		.ascii	"res\000"
 2266 09bc 34       		.byte	0x34
 2267 09bd 72       		.byte	0x72
 2268 09be DB090000 		.4byte	0x9db
 2269 09c2 0D       		.uleb128 0xd
 2270 09c3 0F       		.uleb128 0xf
 2271 09c4 6900     		.ascii	"i\000"
 2272 09c6 35       		.byte	0x35
 2273 09c7 11       		.byte	0x11
 2274 09c8 AD000000 		.4byte	0xad
 2275 09cc 0D       		.uleb128 0xd
 2276 09cd 0A       		.uleb128 0xa
 2277 09ce C8030000 		.4byte	.LASF58
ARM GAS  C:\Users\DEVELO~1\AppData\Local\Temp\ccpaNuUE.s 			page 41


 2278 09d2 36       		.byte	0x36
 2279 09d3 0E       		.byte	0xe
 2280 09d4 97000000 		.4byte	0x97
 2281 09d8 00       		.byte	0
 2282 09d9 00       		.byte	0
 2283 09da 00       		.byte	0
 2284 09db 1E       		.uleb128 0x1e
 2285 09dc E3010000 		.4byte	0x1e3
 2286 09e0 0C       		.uleb128 0xc
 2287 09e1 49020000 		.4byte	.LASF72
 2288 09e5 2E       		.byte	0x2e
 2289 09e6 170A0000 		.4byte	0xa17
 2290 09ea 04       		.uleb128 0x4
 2291 09eb 67050000 		.4byte	.LASF49
 2292 09ef 2E       		.byte	0x2e
 2293 09f0 34       		.byte	0x34
 2294 09f1 AD070000 		.4byte	0x7ad
 2295 09f5 04       		.uleb128 0x4
 2296 09f6 14000000 		.4byte	.LASF55
 2297 09fa 2E       		.byte	0x2e
 2298 09fb 43       		.byte	0x43
 2299 09fc AD000000 		.4byte	0xad
 2300 0a00 04       		.uleb128 0x4
 2301 0a01 2F000000 		.4byte	.LASF69
 2302 0a05 2E       		.byte	0x2e
 2303 0a06 53       		.byte	0x53
 2304 0a07 97000000 		.4byte	0x97
 2305 0a0b 0D       		.uleb128 0xd
 2306 0a0c 0F       		.uleb128 0xf
 2307 0a0d 6900     		.ascii	"i\000"
 2308 0a0f 2F       		.byte	0x2f
 2309 0a10 11       		.byte	0x11
 2310 0a11 AD000000 		.4byte	0xad
 2311 0a15 00       		.byte	0
 2312 0a16 00       		.byte	0
 2313 0a17 0C       		.uleb128 0xc
 2314 0a18 1F050000 		.4byte	.LASF73
 2315 0a1c 27       		.byte	0x27
 2316 0a1d 2D0A0000 		.4byte	0xa2d
 2317 0a21 0E       		.uleb128 0xe
 2318 0a22 72657300 		.ascii	"res\000"
 2319 0a26 27       		.byte	0x27
 2320 0a27 37       		.byte	0x37
 2321 0a28 DB090000 		.4byte	0x9db
 2322 0a2c 00       		.byte	0
 2323 0a2d 0C       		.uleb128 0xc
 2324 0a2e 87010000 		.4byte	.LASF74
 2325 0a32 19       		.byte	0x19
 2326 0a33 6F0A0000 		.4byte	0xa6f
 2327 0a37 0E       		.uleb128 0xe
 2328 0a38 72657300 		.ascii	"res\000"
 2329 0a3c 19       		.byte	0x19
 2330 0a3d 34       		.byte	0x34
 2331 0a3e DB090000 		.4byte	0x9db
 2332 0a42 04       		.uleb128 0x4
 2333 0a43 44020000 		.4byte	.LASF75
 2334 0a47 1A       		.byte	0x1a
ARM GAS  C:\Users\DEVELO~1\AppData\Local\Temp\ccpaNuUE.s 			page 42


 2335 0a48 29       		.byte	0x29
 2336 0a49 BE000000 		.4byte	0xbe
 2337 0a4d 04       		.uleb128 0x4
 2338 0a4e 2E040000 		.4byte	.LASF57
 2339 0a52 1B       		.byte	0x1b
 2340 0a53 28       		.byte	0x28
 2341 0a54 97000000 		.4byte	0x97
 2342 0a58 04       		.uleb128 0x4
 2343 0a59 16050000 		.4byte	.LASF76
 2344 0a5d 1C       		.byte	0x1c
 2345 0a5e 28       		.byte	0x28
 2346 0a5f 97000000 		.4byte	0x97
 2347 0a63 04       		.uleb128 0x4
 2348 0a64 00000000 		.4byte	.LASF77
 2349 0a68 1D       		.byte	0x1d
 2350 0a69 32       		.byte	0x32
 2351 0a6a 36010000 		.4byte	0x136
 2352 0a6e 00       		.byte	0
 2353 0a6f 0C       		.uleb128 0xc
 2354 0a70 52000000 		.4byte	.LASF78
 2355 0a74 0D       		.byte	0xd
 2356 0a75 850A0000 		.4byte	0xa85
 2357 0a79 0E       		.uleb128 0xe
 2358 0a7a 72657300 		.ascii	"res\000"
 2359 0a7e 0D       		.byte	0xd
 2360 0a7f 33       		.byte	0x33
 2361 0a80 DB090000 		.4byte	0x9db
 2362 0a84 00       		.byte	0
 2363 0a85 24       		.uleb128 0x24
 2364 0a86 88000000 		.4byte	.LASF79
 2365 0a8a 02       		.byte	0x2
 2366 0a8b 87       		.byte	0x87
 2367 0a8c D1000000 		.4byte	0xd1
 2368 0a90 24       		.uleb128 0x24
 2369 0a91 86030000 		.4byte	.LASF80
 2370 0a95 03       		.byte	0x3
 2371 0a96 6F       		.byte	0x6f
 2372 0a97 D1000000 		.4byte	0xd1
 2373 0a9b 25       		.uleb128 0x25
 2374 0a9c B7070000 		.4byte	0x7b7
 2375 0aa0 00000000 		.4byte	.LFB459
 2376 0aa4 64000000 		.4byte	.LFE459-.LFB459
 2377 0aa8 01       		.uleb128 0x1
 2378 0aa9 9C       		.byte	0x9c
 2379 0aaa 770B0000 		.4byte	0xb77
 2380 0aae 01       		.uleb128 0x1
 2381 0aaf CC070000 		.4byte	0x7cc
 2382 0ab3 87020000 		.4byte	.LLST0
 2383 0ab7 83020000 		.4byte	.LVUS0
 2384 0abb 18       		.uleb128 0x18
 2385 0abc E2070000 		.4byte	0x7e2
 2386 0ac0 01       		.uleb128 0x1
 2387 0ac1 51       		.byte	0x51
 2388 0ac2 05       		.uleb128 0x5
 2389 0ac3 ED070000 		.4byte	0x7ed
 2390 0ac7 A2020000 		.4byte	.LLST1
 2391 0acb 9A020000 		.4byte	.LVUS1
ARM GAS  C:\Users\DEVELO~1\AppData\Local\Temp\ccpaNuUE.s 			page 43


 2392 0acf 33       		.uleb128 0x33
 2393 0ad0 D7070000 		.4byte	0x7d7
 2394 0ad4 00000200 		.4byte	0x20000
 2395 0ad8 15       		.uleb128 0x15
 2396 0ad9 C1070000 		.4byte	0x7c1
 2397 0add 80808080 		.sleb128 -1073741824
 2397      7C
 2398 0ae2 22       		.uleb128 0x22
 2399 0ae3 F8070000 		.4byte	0x7f8
 2400 0ae7 0C000000 		.4byte	.LLRL2
 2401 0aeb FD0A0000 		.4byte	0xafd
 2402 0aef 05       		.uleb128 0x5
 2403 0af0 FD070000 		.4byte	0x7fd
 2404 0af4 DE020000 		.4byte	.LLST3
 2405 0af8 D6020000 		.4byte	.LVUS3
 2406 0afc 00       		.byte	0
 2407 0afd 16       		.uleb128 0x16
 2408 0afe 07080000 		.4byte	0x807
 2409 0b02 1C000000 		.4byte	.LBB49
 2410 0b06 38000000 		.4byte	.LBE49-.LBB49
 2411 0b0a 05       		.uleb128 0x5
 2412 0b0b 08080000 		.4byte	0x808
 2413 0b0f FD020000 		.4byte	.LLST4
 2414 0b13 FB020000 		.4byte	.LVUS4
 2415 0b17 11       		.uleb128 0x11
 2416 0b18 11080000 		.4byte	0x811
 2417 0b1c 1B000000 		.4byte	.LLRL5
 2418 0b20 05       		.uleb128 0x5
 2419 0b21 12080000 		.4byte	0x812
 2420 0b25 08030000 		.4byte	.LLST6
 2421 0b29 06030000 		.4byte	.LVUS6
 2422 0b2d 05       		.uleb128 0x5
 2423 0b2e 1D080000 		.4byte	0x81d
 2424 0b32 13030000 		.4byte	.LLST7
 2425 0b36 11030000 		.4byte	.LVUS7
 2426 0b3a 17       		.uleb128 0x17
 2427 0b3b 2D0A0000 		.4byte	0xa2d
 2428 0b3f 28000000 		.4byte	.LBI51
 2429 0b43 01       		.byte	.LVU24
 2430 0b44 2A000000 		.4byte	.LLRL8
 2431 0b48 9B       		.byte	0x9b
 2432 0b49 1B       		.uleb128 0x1b
 2433 0b4a 630A0000 		.4byte	0xa63
 2434 0b4e 01       		.byte	0x1
 2435 0b4f 01       		.uleb128 0x1
 2436 0b50 580A0000 		.4byte	0xa58
 2437 0b54 1E030000 		.4byte	.LLST9
 2438 0b58 1C030000 		.4byte	.LVUS9
 2439 0b5c 01       		.uleb128 0x1
 2440 0b5d 4D0A0000 		.4byte	0xa4d
 2441 0b61 29030000 		.4byte	.LLST10
 2442 0b65 27030000 		.4byte	.LVUS10
 2443 0b69 03       		.uleb128 0x3
 2444 0b6a 420A0000 		.4byte	0xa42
 2445 0b6e 03       		.uleb128 0x3
 2446 0b6f 370A0000 		.4byte	0xa37
 2447 0b73 00       		.byte	0
ARM GAS  C:\Users\DEVELO~1\AppData\Local\Temp\ccpaNuUE.s 			page 44


 2448 0b74 00       		.byte	0
 2449 0b75 00       		.byte	0
 2450 0b76 00       		.byte	0
 2451 0b77 25       		.uleb128 0x25
 2452 0b78 55090000 		.4byte	0x955
 2453 0b7c 00000000 		.4byte	.LFB460
 2454 0b80 52000000 		.4byte	.LFE460-.LFB460
 2455 0b84 01       		.uleb128 0x1
 2456 0b85 9C       		.byte	0x9c
 2457 0b86 6E0C0000 		.4byte	0xc6e
 2458 0b8a 18       		.uleb128 0x18
 2459 0b8b 6A090000 		.4byte	0x96a
 2460 0b8f 01       		.uleb128 0x1
 2461 0b90 50       		.byte	0x50
 2462 0b91 01       		.uleb128 0x1
 2463 0b92 75090000 		.4byte	0x975
 2464 0b96 36030000 		.4byte	.LLST11
 2465 0b9a 32030000 		.4byte	.LVUS11
 2466 0b9e 18       		.uleb128 0x18
 2467 0b9f 80090000 		.4byte	0x980
 2468 0ba3 01       		.uleb128 0x1
 2469 0ba4 52       		.byte	0x52
 2470 0ba5 15       		.uleb128 0x15
 2471 0ba6 5F090000 		.4byte	0x95f
 2472 0baa 80808080 		.sleb128 -1073741824
 2472      7C
 2473 0baf 34       		.uleb128 0x34
 2474 0bb0 E0090000 		.4byte	0x9e0
 2475 0bb4 39000000 		.4byte	.LLRL12
 2476 0bb8 01       		.byte	0x1
 2477 0bb9 3E       		.byte	0x3e
 2478 0bba 03       		.byte	0x3
 2479 0bbb E60B0000 		.4byte	0xbe6
 2480 0bbf 03       		.uleb128 0x3
 2481 0bc0 000A0000 		.4byte	0xa00
 2482 0bc4 03       		.uleb128 0x3
 2483 0bc5 F5090000 		.4byte	0x9f5
 2484 0bc9 03       		.uleb128 0x3
 2485 0bca EA090000 		.4byte	0x9ea
 2486 0bce 11       		.uleb128 0x11
 2487 0bcf 0B0A0000 		.4byte	0xa0b
 2488 0bd3 39000000 		.4byte	.LLRL12
 2489 0bd7 05       		.uleb128 0x5
 2490 0bd8 0C0A0000 		.4byte	0xa0c
 2491 0bdc 4B030000 		.4byte	.LLST13
 2492 0be0 49030000 		.4byte	.LVUS13
 2493 0be4 00       		.byte	0
 2494 0be5 00       		.byte	0
 2495 0be6 26       		.uleb128 0x26
 2496 0be7 8C090000 		.4byte	0x98c
 2497 0beb 1A000000 		.4byte	.LBB77
 2498 0bef 2A000000 		.4byte	.LBE77-.LBB77
 2499 0bf3 3F       		.byte	0x3f
 2500 0bf4 03       		.byte	0x3
 2501 0bf5 03       		.uleb128 0x3
 2502 0bf6 96090000 		.4byte	0x996
 2503 0bfa 03       		.uleb128 0x3
ARM GAS  C:\Users\DEVELO~1\AppData\Local\Temp\ccpaNuUE.s 			page 45


 2504 0bfb B7090000 		.4byte	0x9b7
 2505 0bff 03       		.uleb128 0x3
 2506 0c00 AC090000 		.4byte	0x9ac
 2507 0c04 03       		.uleb128 0x3
 2508 0c05 A1090000 		.4byte	0x9a1
 2509 0c09 16       		.uleb128 0x16
 2510 0c0a C2090000 		.4byte	0x9c2
 2511 0c0e 1A000000 		.4byte	.LBB78
 2512 0c12 2A000000 		.4byte	.LBE78-.LBB78
 2513 0c16 1D       		.uleb128 0x1d
 2514 0c17 C3090000 		.4byte	0x9c3
 2515 0c1b 11       		.uleb128 0x11
 2516 0c1c CC090000 		.4byte	0x9cc
 2517 0c20 45000000 		.4byte	.LLRL14
 2518 0c24 05       		.uleb128 0x5
 2519 0c25 CD090000 		.4byte	0x9cd
 2520 0c29 57030000 		.4byte	.LLST15
 2521 0c2d 55030000 		.4byte	.LVUS15
 2522 0c31 17       		.uleb128 0x17
 2523 0c32 2D0A0000 		.4byte	0xa2d
 2524 0c36 1C000000 		.4byte	.LBI80
 2525 0c3a 03       		.byte	.LVU68
 2526 0c3b 51000000 		.4byte	.LLRL16
 2527 0c3f 38       		.byte	0x38
 2528 0c40 01       		.uleb128 0x1
 2529 0c41 630A0000 		.4byte	0xa63
 2530 0c45 62030000 		.4byte	.LLST17
 2531 0c49 60030000 		.4byte	.LVUS17
 2532 0c4d 03       		.uleb128 0x3
 2533 0c4e 580A0000 		.4byte	0xa58
 2534 0c52 03       		.uleb128 0x3
 2535 0c53 4D0A0000 		.4byte	0xa4d
 2536 0c57 01       		.uleb128 0x1
 2537 0c58 420A0000 		.4byte	0xa42
 2538 0c5c 6E030000 		.4byte	.LLST18
 2539 0c60 6C030000 		.4byte	.LVUS18
 2540 0c64 03       		.uleb128 0x3
 2541 0c65 370A0000 		.4byte	0xa37
 2542 0c69 00       		.byte	0
 2543 0c6a 00       		.byte	0
 2544 0c6b 00       		.byte	0
 2545 0c6c 00       		.byte	0
 2546 0c6d 00       		.byte	0
 2547 0c6e 35       		.uleb128 0x35
 2548 0c6f 04090000 		.4byte	0x904
 2549 0c73 00000000 		.4byte	.LFB462
 2550 0c77 80000000 		.4byte	.LFE462-.LFB462
 2551 0c7b 01       		.uleb128 0x1
 2552 0c7c 9C       		.byte	0x9c
 2553 0c7d 01       		.uleb128 0x1
 2554 0c7e 19090000 		.4byte	0x919
 2555 0c82 7B030000 		.4byte	.LLST19
 2556 0c86 77030000 		.4byte	.LVUS19
 2557 0c8a 01       		.uleb128 0x1
 2558 0c8b 24090000 		.4byte	0x924
 2559 0c8f 90030000 		.4byte	.LLST20
 2560 0c93 8C030000 		.4byte	.LVUS20
ARM GAS  C:\Users\DEVELO~1\AppData\Local\Temp\ccpaNuUE.s 			page 46


 2561 0c97 18       		.uleb128 0x18
 2562 0c98 2F090000 		.4byte	0x92f
 2563 0c9c 01       		.uleb128 0x1
 2564 0c9d 52       		.byte	0x52
 2565 0c9e 15       		.uleb128 0x15
 2566 0c9f 0E090000 		.4byte	0x90e
 2567 0ca3 80808080 		.sleb128 -1073741824
 2567      7C
 2568 0ca8 11       		.uleb128 0x11
 2569 0ca9 3A090000 		.4byte	0x93a
 2570 0cad 60000000 		.4byte	.LLRL21
 2571 0cb1 05       		.uleb128 0x5
 2572 0cb2 3B090000 		.4byte	0x93b
 2573 0cb6 AC030000 		.4byte	.LLST22
 2574 0cba A4030000 		.4byte	.LVUS22
 2575 0cbe 11       		.uleb128 0x11
 2576 0cbf 46090000 		.4byte	0x946
 2577 0cc3 6F000000 		.4byte	.LLRL23
 2578 0cc7 05       		.uleb128 0x5
 2579 0cc8 47090000 		.4byte	0x947
 2580 0ccc CC030000 		.4byte	.LLST24
 2581 0cd0 CA030000 		.4byte	.LVUS24
 2582 0cd4 13       		.uleb128 0x13
 2583 0cd5 E0090000 		.4byte	0x9e0
 2584 0cd9 2E000000 		.4byte	.LBI103
 2585 0cdd 01       		.byte	.LVU112
 2586 0cde 84000000 		.4byte	.LLRL25
 2587 0ce2 47       		.byte	0x47
 2588 0ce3 05       		.byte	0x5
 2589 0ce4 1F0D0000 		.4byte	0xd1f
 2590 0ce8 01       		.uleb128 0x1
 2591 0ce9 000A0000 		.4byte	0xa00
 2592 0ced D7030000 		.4byte	.LLST26
 2593 0cf1 D5030000 		.4byte	.LVUS26
 2594 0cf5 03       		.uleb128 0x3
 2595 0cf6 F5090000 		.4byte	0x9f5
 2596 0cfa 01       		.uleb128 0x1
 2597 0cfb EA090000 		.4byte	0x9ea
 2598 0cff E2030000 		.4byte	.LLST27
 2599 0d03 E0030000 		.4byte	.LVUS27
 2600 0d07 11       		.uleb128 0x11
 2601 0d08 0B0A0000 		.4byte	0xa0b
 2602 0d0c 84000000 		.4byte	.LLRL25
 2603 0d10 05       		.uleb128 0x5
 2604 0d11 0C0A0000 		.4byte	0xa0c
 2605 0d15 F1030000 		.4byte	.LLST28
 2606 0d19 EF030000 		.4byte	.LVUS28
 2607 0d1d 00       		.byte	0
 2608 0d1e 00       		.byte	0
 2609 0d1f 26       		.uleb128 0x26
 2610 0d20 8C090000 		.4byte	0x98c
 2611 0d24 3E000000 		.4byte	.LBB107
 2612 0d28 2E000000 		.4byte	.LBE107-.LBB107
 2613 0d2c 48       		.byte	0x48
 2614 0d2d 05       		.byte	0x5
 2615 0d2e 03       		.uleb128 0x3
 2616 0d2f 96090000 		.4byte	0x996
ARM GAS  C:\Users\DEVELO~1\AppData\Local\Temp\ccpaNuUE.s 			page 47


 2617 0d33 03       		.uleb128 0x3
 2618 0d34 B7090000 		.4byte	0x9b7
 2619 0d38 03       		.uleb128 0x3
 2620 0d39 AC090000 		.4byte	0x9ac
 2621 0d3d 03       		.uleb128 0x3
 2622 0d3e A1090000 		.4byte	0x9a1
 2623 0d42 16       		.uleb128 0x16
 2624 0d43 C2090000 		.4byte	0x9c2
 2625 0d47 3E000000 		.4byte	.LBB108
 2626 0d4b 2E000000 		.4byte	.LBE108-.LBB108
 2627 0d4f 1D       		.uleb128 0x1d
 2628 0d50 C3090000 		.4byte	0x9c3
 2629 0d54 11       		.uleb128 0x11
 2630 0d55 CC090000 		.4byte	0x9cc
 2631 0d59 90000000 		.4byte	.LLRL29
 2632 0d5d 05       		.uleb128 0x5
 2633 0d5e CD090000 		.4byte	0x9cd
 2634 0d62 FD030000 		.4byte	.LLST30
 2635 0d66 FB030000 		.4byte	.LVUS30
 2636 0d6a 17       		.uleb128 0x17
 2637 0d6b 2D0A0000 		.4byte	0xa2d
 2638 0d6f 3E000000 		.4byte	.LBI110
 2639 0d73 03       		.byte	.LVU125
 2640 0d74 9C000000 		.4byte	.LLRL31
 2641 0d78 38       		.byte	0x38
 2642 0d79 01       		.uleb128 0x1
 2643 0d7a 630A0000 		.4byte	0xa63
 2644 0d7e 08040000 		.4byte	.LLST32
 2645 0d82 06040000 		.4byte	.LVUS32
 2646 0d86 03       		.uleb128 0x3
 2647 0d87 580A0000 		.4byte	0xa58
 2648 0d8b 03       		.uleb128 0x3
 2649 0d8c 4D0A0000 		.4byte	0xa4d
 2650 0d90 01       		.uleb128 0x1
 2651 0d91 420A0000 		.4byte	0xa42
 2652 0d95 14040000 		.4byte	.LLST33
 2653 0d99 12040000 		.4byte	.LVUS33
 2654 0d9d 03       		.uleb128 0x3
 2655 0d9e 370A0000 		.4byte	0xa37
 2656 0da2 00       		.byte	0
 2657 0da3 00       		.byte	0
 2658 0da4 00       		.byte	0
 2659 0da5 00       		.byte	0
 2660 0da6 00       		.byte	0
 2661 0da7 00       		.byte	0
 2662 0da8 00       		.byte	0
 2663 0da9 00       		.byte	0
 2664              		.section	.debug_abbrev,"",%progbits
 2665              	.Ldebug_abbrev0:
 2666 0000 01       		.uleb128 0x1
 2667 0001 05       		.uleb128 0x5
 2668 0002 00       		.byte	0
 2669 0003 31       		.uleb128 0x31
 2670 0004 13       		.uleb128 0x13
 2671 0005 02       		.uleb128 0x2
 2672 0006 17       		.uleb128 0x17
 2673 0007 B742     		.uleb128 0x2137
ARM GAS  C:\Users\DEVELO~1\AppData\Local\Temp\ccpaNuUE.s 			page 48


 2674 0009 17       		.uleb128 0x17
 2675 000a 00       		.byte	0
 2676 000b 00       		.byte	0
 2677 000c 02       		.uleb128 0x2
 2678 000d 49       		.uleb128 0x49
 2679 000e 00       		.byte	0
 2680 000f 02       		.uleb128 0x2
 2681 0010 18       		.uleb128 0x18
 2682 0011 7E       		.uleb128 0x7e
 2683 0012 18       		.uleb128 0x18
 2684 0013 00       		.byte	0
 2685 0014 00       		.byte	0
 2686 0015 03       		.uleb128 0x3
 2687 0016 05       		.uleb128 0x5
 2688 0017 00       		.byte	0
 2689 0018 31       		.uleb128 0x31
 2690 0019 13       		.uleb128 0x13
 2691 001a 00       		.byte	0
 2692 001b 00       		.byte	0
 2693 001c 04       		.uleb128 0x4
 2694 001d 05       		.uleb128 0x5
 2695 001e 00       		.byte	0
 2696 001f 03       		.uleb128 0x3
 2697 0020 0E       		.uleb128 0xe
 2698 0021 3A       		.uleb128 0x3a
 2699 0022 21       		.uleb128 0x21
 2700 0023 01       		.sleb128 1
 2701 0024 3B       		.uleb128 0x3b
 2702 0025 0B       		.uleb128 0xb
 2703 0026 39       		.uleb128 0x39
 2704 0027 0B       		.uleb128 0xb
 2705 0028 49       		.uleb128 0x49
 2706 0029 13       		.uleb128 0x13
 2707 002a 00       		.byte	0
 2708 002b 00       		.byte	0
 2709 002c 05       		.uleb128 0x5
 2710 002d 34       		.uleb128 0x34
 2711 002e 00       		.byte	0
 2712 002f 31       		.uleb128 0x31
 2713 0030 13       		.uleb128 0x13
 2714 0031 02       		.uleb128 0x2
 2715 0032 17       		.uleb128 0x17
 2716 0033 B742     		.uleb128 0x2137
 2717 0035 17       		.uleb128 0x17
 2718 0036 00       		.byte	0
 2719 0037 00       		.byte	0
 2720 0038 06       		.uleb128 0x6
 2721 0039 0D       		.uleb128 0xd
 2722 003a 00       		.byte	0
 2723 003b 03       		.uleb128 0x3
 2724 003c 0E       		.uleb128 0xe
 2725 003d 3A       		.uleb128 0x3a
 2726 003e 0B       		.uleb128 0xb
 2727 003f 3B       		.uleb128 0x3b
 2728 0040 0B       		.uleb128 0xb
 2729 0041 39       		.uleb128 0x39
 2730 0042 0B       		.uleb128 0xb
ARM GAS  C:\Users\DEVELO~1\AppData\Local\Temp\ccpaNuUE.s 			page 49


 2731 0043 49       		.uleb128 0x49
 2732 0044 13       		.uleb128 0x13
 2733 0045 38       		.uleb128 0x38
 2734 0046 0B       		.uleb128 0xb
 2735 0047 00       		.byte	0
 2736 0048 00       		.byte	0
 2737 0049 07       		.uleb128 0x7
 2738 004a 24       		.uleb128 0x24
 2739 004b 00       		.byte	0
 2740 004c 0B       		.uleb128 0xb
 2741 004d 0B       		.uleb128 0xb
 2742 004e 3E       		.uleb128 0x3e
 2743 004f 0B       		.uleb128 0xb
 2744 0050 03       		.uleb128 0x3
 2745 0051 0E       		.uleb128 0xe
 2746 0052 00       		.byte	0
 2747 0053 00       		.byte	0
 2748 0054 08       		.uleb128 0x8
 2749 0055 16       		.uleb128 0x16
 2750 0056 00       		.byte	0
 2751 0057 03       		.uleb128 0x3
 2752 0058 0E       		.uleb128 0xe
 2753 0059 3A       		.uleb128 0x3a
 2754 005a 0B       		.uleb128 0xb
 2755 005b 3B       		.uleb128 0x3b
 2756 005c 0B       		.uleb128 0xb
 2757 005d 39       		.uleb128 0x39
 2758 005e 0B       		.uleb128 0xb
 2759 005f 49       		.uleb128 0x49
 2760 0060 13       		.uleb128 0x13
 2761 0061 00       		.byte	0
 2762 0062 00       		.byte	0
 2763 0063 09       		.uleb128 0x9
 2764 0064 49       		.uleb128 0x49
 2765 0065 00       		.byte	0
 2766 0066 8001     		.uleb128 0x80
 2767 0068 13       		.uleb128 0x13
 2768 0069 7E       		.uleb128 0x7e
 2769 006a 18       		.uleb128 0x18
 2770 006b 00       		.byte	0
 2771 006c 00       		.byte	0
 2772 006d 0A       		.uleb128 0xa
 2773 006e 34       		.uleb128 0x34
 2774 006f 00       		.byte	0
 2775 0070 03       		.uleb128 0x3
 2776 0071 0E       		.uleb128 0xe
 2777 0072 3A       		.uleb128 0x3a
 2778 0073 21       		.uleb128 0x21
 2779 0074 01       		.sleb128 1
 2780 0075 3B       		.uleb128 0x3b
 2781 0076 0B       		.uleb128 0xb
 2782 0077 39       		.uleb128 0x39
 2783 0078 0B       		.uleb128 0xb
 2784 0079 49       		.uleb128 0x49
 2785 007a 13       		.uleb128 0x13
 2786 007b 00       		.byte	0
 2787 007c 00       		.byte	0
ARM GAS  C:\Users\DEVELO~1\AppData\Local\Temp\ccpaNuUE.s 			page 50


 2788 007d 0B       		.uleb128 0xb
 2789 007e 28       		.uleb128 0x28
 2790 007f 00       		.byte	0
 2791 0080 03       		.uleb128 0x3
 2792 0081 0E       		.uleb128 0xe
 2793 0082 1C       		.uleb128 0x1c
 2794 0083 0B       		.uleb128 0xb
 2795 0084 00       		.byte	0
 2796 0085 00       		.byte	0
 2797 0086 0C       		.uleb128 0xc
 2798 0087 2E       		.uleb128 0x2e
 2799 0088 01       		.byte	0x1
 2800 0089 03       		.uleb128 0x3
 2801 008a 0E       		.uleb128 0xe
 2802 008b 3A       		.uleb128 0x3a
 2803 008c 21       		.uleb128 0x21
 2804 008d 01       		.sleb128 1
 2805 008e 3B       		.uleb128 0x3b
 2806 008f 0B       		.uleb128 0xb
 2807 0090 39       		.uleb128 0x39
 2808 0091 21       		.uleb128 0x21
 2809 0092 0D       		.sleb128 13
 2810 0093 27       		.uleb128 0x27
 2811 0094 19       		.uleb128 0x19
 2812 0095 20       		.uleb128 0x20
 2813 0096 21       		.uleb128 0x21
 2814 0097 01       		.sleb128 1
 2815 0098 01       		.uleb128 0x1
 2816 0099 13       		.uleb128 0x13
 2817 009a 00       		.byte	0
 2818 009b 00       		.byte	0
 2819 009c 0D       		.uleb128 0xd
 2820 009d 0B       		.uleb128 0xb
 2821 009e 01       		.byte	0x1
 2822 009f 00       		.byte	0
 2823 00a0 00       		.byte	0
 2824 00a1 0E       		.uleb128 0xe
 2825 00a2 05       		.uleb128 0x5
 2826 00a3 00       		.byte	0
 2827 00a4 03       		.uleb128 0x3
 2828 00a5 08       		.uleb128 0x8
 2829 00a6 3A       		.uleb128 0x3a
 2830 00a7 21       		.uleb128 0x21
 2831 00a8 01       		.sleb128 1
 2832 00a9 3B       		.uleb128 0x3b
 2833 00aa 0B       		.uleb128 0xb
 2834 00ab 39       		.uleb128 0x39
 2835 00ac 0B       		.uleb128 0xb
 2836 00ad 49       		.uleb128 0x49
 2837 00ae 13       		.uleb128 0x13
 2838 00af 00       		.byte	0
 2839 00b0 00       		.byte	0
 2840 00b1 0F       		.uleb128 0xf
 2841 00b2 34       		.uleb128 0x34
 2842 00b3 00       		.byte	0
 2843 00b4 03       		.uleb128 0x3
 2844 00b5 08       		.uleb128 0x8
ARM GAS  C:\Users\DEVELO~1\AppData\Local\Temp\ccpaNuUE.s 			page 51


 2845 00b6 3A       		.uleb128 0x3a
 2846 00b7 21       		.uleb128 0x21
 2847 00b8 01       		.sleb128 1
 2848 00b9 3B       		.uleb128 0x3b
 2849 00ba 0B       		.uleb128 0xb
 2850 00bb 39       		.uleb128 0x39
 2851 00bc 0B       		.uleb128 0xb
 2852 00bd 49       		.uleb128 0x49
 2853 00be 13       		.uleb128 0x13
 2854 00bf 00       		.byte	0
 2855 00c0 00       		.byte	0
 2856 00c1 10       		.uleb128 0x10
 2857 00c2 48       		.uleb128 0x48
 2858 00c3 01       		.byte	0x1
 2859 00c4 7D       		.uleb128 0x7d
 2860 00c5 01       		.uleb128 0x1
 2861 00c6 7F       		.uleb128 0x7f
 2862 00c7 13       		.uleb128 0x13
 2863 00c8 01       		.uleb128 0x1
 2864 00c9 13       		.uleb128 0x13
 2865 00ca 00       		.byte	0
 2866 00cb 00       		.byte	0
 2867 00cc 11       		.uleb128 0x11
 2868 00cd 0B       		.uleb128 0xb
 2869 00ce 01       		.byte	0x1
 2870 00cf 31       		.uleb128 0x31
 2871 00d0 13       		.uleb128 0x13
 2872 00d1 55       		.uleb128 0x55
 2873 00d2 17       		.uleb128 0x17
 2874 00d3 00       		.byte	0
 2875 00d4 00       		.byte	0
 2876 00d5 12       		.uleb128 0x12
 2877 00d6 34       		.uleb128 0x34
 2878 00d7 00       		.byte	0
 2879 00d8 03       		.uleb128 0x3
 2880 00d9 0E       		.uleb128 0xe
 2881 00da 3A       		.uleb128 0x3a
 2882 00db 21       		.uleb128 0x21
 2883 00dc 01       		.sleb128 1
 2884 00dd 3B       		.uleb128 0x3b
 2885 00de 0B       		.uleb128 0xb
 2886 00df 39       		.uleb128 0x39
 2887 00e0 0B       		.uleb128 0xb
 2888 00e1 49       		.uleb128 0x49
 2889 00e2 13       		.uleb128 0x13
 2890 00e3 02       		.uleb128 0x2
 2891 00e4 17       		.uleb128 0x17
 2892 00e5 B742     		.uleb128 0x2137
 2893 00e7 17       		.uleb128 0x17
 2894 00e8 00       		.byte	0
 2895 00e9 00       		.byte	0
 2896 00ea 13       		.uleb128 0x13
 2897 00eb 1D       		.uleb128 0x1d
 2898 00ec 01       		.byte	0x1
 2899 00ed 31       		.uleb128 0x31
 2900 00ee 13       		.uleb128 0x13
 2901 00ef 52       		.uleb128 0x52
ARM GAS  C:\Users\DEVELO~1\AppData\Local\Temp\ccpaNuUE.s 			page 52


 2902 00f0 01       		.uleb128 0x1
 2903 00f1 B842     		.uleb128 0x2138
 2904 00f3 0B       		.uleb128 0xb
 2905 00f4 55       		.uleb128 0x55
 2906 00f5 17       		.uleb128 0x17
 2907 00f6 58       		.uleb128 0x58
 2908 00f7 21       		.uleb128 0x21
 2909 00f8 01       		.sleb128 1
 2910 00f9 59       		.uleb128 0x59
 2911 00fa 0B       		.uleb128 0xb
 2912 00fb 57       		.uleb128 0x57
 2913 00fc 0B       		.uleb128 0xb
 2914 00fd 01       		.uleb128 0x1
 2915 00fe 13       		.uleb128 0x13
 2916 00ff 00       		.byte	0
 2917 0100 00       		.byte	0
 2918 0101 14       		.uleb128 0x14
 2919 0102 1D       		.uleb128 0x1d
 2920 0103 01       		.byte	0x1
 2921 0104 31       		.uleb128 0x31
 2922 0105 13       		.uleb128 0x13
 2923 0106 52       		.uleb128 0x52
 2924 0107 01       		.uleb128 0x1
 2925 0108 B842     		.uleb128 0x2138
 2926 010a 0B       		.uleb128 0xb
 2927 010b 11       		.uleb128 0x11
 2928 010c 01       		.uleb128 0x1
 2929 010d 12       		.uleb128 0x12
 2930 010e 06       		.uleb128 0x6
 2931 010f 58       		.uleb128 0x58
 2932 0110 0B       		.uleb128 0xb
 2933 0111 59       		.uleb128 0x59
 2934 0112 0B       		.uleb128 0xb
 2935 0113 57       		.uleb128 0x57
 2936 0114 0B       		.uleb128 0xb
 2937 0115 00       		.byte	0
 2938 0116 00       		.byte	0
 2939 0117 15       		.uleb128 0x15
 2940 0118 05       		.uleb128 0x5
 2941 0119 00       		.byte	0
 2942 011a 31       		.uleb128 0x31
 2943 011b 13       		.uleb128 0x13
 2944 011c 1C       		.uleb128 0x1c
 2945 011d 0D       		.uleb128 0xd
 2946 011e 00       		.byte	0
 2947 011f 00       		.byte	0
 2948 0120 16       		.uleb128 0x16
 2949 0121 0B       		.uleb128 0xb
 2950 0122 01       		.byte	0x1
 2951 0123 31       		.uleb128 0x31
 2952 0124 13       		.uleb128 0x13
 2953 0125 11       		.uleb128 0x11
 2954 0126 01       		.uleb128 0x1
 2955 0127 12       		.uleb128 0x12
 2956 0128 06       		.uleb128 0x6
 2957 0129 00       		.byte	0
 2958 012a 00       		.byte	0
ARM GAS  C:\Users\DEVELO~1\AppData\Local\Temp\ccpaNuUE.s 			page 53


 2959 012b 17       		.uleb128 0x17
 2960 012c 1D       		.uleb128 0x1d
 2961 012d 01       		.byte	0x1
 2962 012e 31       		.uleb128 0x31
 2963 012f 13       		.uleb128 0x13
 2964 0130 52       		.uleb128 0x52
 2965 0131 01       		.uleb128 0x1
 2966 0132 B842     		.uleb128 0x2138
 2967 0134 0B       		.uleb128 0xb
 2968 0135 55       		.uleb128 0x55
 2969 0136 17       		.uleb128 0x17
 2970 0137 58       		.uleb128 0x58
 2971 0138 21       		.uleb128 0x21
 2972 0139 01       		.sleb128 1
 2973 013a 59       		.uleb128 0x59
 2974 013b 0B       		.uleb128 0xb
 2975 013c 57       		.uleb128 0x57
 2976 013d 21       		.uleb128 0x21
 2977 013e 07       		.sleb128 7
 2978 013f 00       		.byte	0
 2979 0140 00       		.byte	0
 2980 0141 18       		.uleb128 0x18
 2981 0142 05       		.uleb128 0x5
 2982 0143 00       		.byte	0
 2983 0144 31       		.uleb128 0x31
 2984 0145 13       		.uleb128 0x13
 2985 0146 02       		.uleb128 0x2
 2986 0147 18       		.uleb128 0x18
 2987 0148 00       		.byte	0
 2988 0149 00       		.byte	0
 2989 014a 19       		.uleb128 0x19
 2990 014b 26       		.uleb128 0x26
 2991 014c 00       		.byte	0
 2992 014d 49       		.uleb128 0x49
 2993 014e 13       		.uleb128 0x13
 2994 014f 00       		.byte	0
 2995 0150 00       		.byte	0
 2996 0151 1A       		.uleb128 0x1a
 2997 0152 04       		.uleb128 0x4
 2998 0153 01       		.byte	0x1
 2999 0154 3E       		.uleb128 0x3e
 3000 0155 21       		.uleb128 0x21
 3001 0156 07       		.sleb128 7
 3002 0157 0B       		.uleb128 0xb
 3003 0158 21       		.uleb128 0x21
 3004 0159 01       		.sleb128 1
 3005 015a 49       		.uleb128 0x49
 3006 015b 13       		.uleb128 0x13
 3007 015c 3A       		.uleb128 0x3a
 3008 015d 21       		.uleb128 0x21
 3009 015e 07       		.sleb128 7
 3010 015f 3B       		.uleb128 0x3b
 3011 0160 0B       		.uleb128 0xb
 3012 0161 39       		.uleb128 0x39
 3013 0162 21       		.uleb128 0x21
 3014 0163 0E       		.sleb128 14
 3015 0164 01       		.uleb128 0x1
ARM GAS  C:\Users\DEVELO~1\AppData\Local\Temp\ccpaNuUE.s 			page 54


 3016 0165 13       		.uleb128 0x13
 3017 0166 00       		.byte	0
 3018 0167 00       		.byte	0
 3019 0168 1B       		.uleb128 0x1b
 3020 0169 05       		.uleb128 0x5
 3021 016a 00       		.byte	0
 3022 016b 31       		.uleb128 0x31
 3023 016c 13       		.uleb128 0x13
 3024 016d 1C       		.uleb128 0x1c
 3025 016e 0B       		.uleb128 0xb
 3026 016f 00       		.byte	0
 3027 0170 00       		.byte	0
 3028 0171 1C       		.uleb128 0x1c
 3029 0172 48       		.uleb128 0x48
 3030 0173 00       		.byte	0
 3031 0174 7D       		.uleb128 0x7d
 3032 0175 01       		.uleb128 0x1
 3033 0176 7F       		.uleb128 0x7f
 3034 0177 13       		.uleb128 0x13
 3035 0178 00       		.byte	0
 3036 0179 00       		.byte	0
 3037 017a 1D       		.uleb128 0x1d
 3038 017b 34       		.uleb128 0x34
 3039 017c 00       		.byte	0
 3040 017d 31       		.uleb128 0x31
 3041 017e 13       		.uleb128 0x13
 3042 017f 00       		.byte	0
 3043 0180 00       		.byte	0
 3044 0181 1E       		.uleb128 0x1e
 3045 0182 0F       		.uleb128 0xf
 3046 0183 00       		.byte	0
 3047 0184 0B       		.uleb128 0xb
 3048 0185 21       		.uleb128 0x21
 3049 0186 04       		.sleb128 4
 3050 0187 49       		.uleb128 0x49
 3051 0188 13       		.uleb128 0x13
 3052 0189 00       		.byte	0
 3053 018a 00       		.byte	0
 3054 018b 1F       		.uleb128 0x1f
 3055 018c 13       		.uleb128 0x13
 3056 018d 01       		.byte	0x1
 3057 018e 0B       		.uleb128 0xb
 3058 018f 0B       		.uleb128 0xb
 3059 0190 3A       		.uleb128 0x3a
 3060 0191 0B       		.uleb128 0xb
 3061 0192 3B       		.uleb128 0x3b
 3062 0193 0B       		.uleb128 0xb
 3063 0194 39       		.uleb128 0x39
 3064 0195 21       		.uleb128 0x21
 3065 0196 09       		.sleb128 9
 3066 0197 01       		.uleb128 0x1
 3067 0198 13       		.uleb128 0x13
 3068 0199 00       		.byte	0
 3069 019a 00       		.byte	0
 3070 019b 20       		.uleb128 0x20
 3071 019c 0B       		.uleb128 0xb
 3072 019d 01       		.byte	0x1
ARM GAS  C:\Users\DEVELO~1\AppData\Local\Temp\ccpaNuUE.s 			page 55


 3073 019e 55       		.uleb128 0x55
 3074 019f 17       		.uleb128 0x17
 3075 01a0 00       		.byte	0
 3076 01a1 00       		.byte	0
 3077 01a2 21       		.uleb128 0x21
 3078 01a3 1D       		.uleb128 0x1d
 3079 01a4 01       		.byte	0x1
 3080 01a5 31       		.uleb128 0x31
 3081 01a6 13       		.uleb128 0x13
 3082 01a7 52       		.uleb128 0x52
 3083 01a8 01       		.uleb128 0x1
 3084 01a9 B842     		.uleb128 0x2138
 3085 01ab 0B       		.uleb128 0xb
 3086 01ac 11       		.uleb128 0x11
 3087 01ad 01       		.uleb128 0x1
 3088 01ae 12       		.uleb128 0x12
 3089 01af 06       		.uleb128 0x6
 3090 01b0 58       		.uleb128 0x58
 3091 01b1 21       		.uleb128 0x21
 3092 01b2 01       		.sleb128 1
 3093 01b3 59       		.uleb128 0x59
 3094 01b4 0B       		.uleb128 0xb
 3095 01b5 57       		.uleb128 0x57
 3096 01b6 21       		.uleb128 0x21
 3097 01b7 07       		.sleb128 7
 3098 01b8 01       		.uleb128 0x1
 3099 01b9 13       		.uleb128 0x13
 3100 01ba 00       		.byte	0
 3101 01bb 00       		.byte	0
 3102 01bc 22       		.uleb128 0x22
 3103 01bd 0B       		.uleb128 0xb
 3104 01be 01       		.byte	0x1
 3105 01bf 31       		.uleb128 0x31
 3106 01c0 13       		.uleb128 0x13
 3107 01c1 55       		.uleb128 0x55
 3108 01c2 17       		.uleb128 0x17
 3109 01c3 01       		.uleb128 0x1
 3110 01c4 13       		.uleb128 0x13
 3111 01c5 00       		.byte	0
 3112 01c6 00       		.byte	0
 3113 01c7 23       		.uleb128 0x23
 3114 01c8 0B       		.uleb128 0xb
 3115 01c9 01       		.byte	0x1
 3116 01ca 01       		.uleb128 0x1
 3117 01cb 13       		.uleb128 0x13
 3118 01cc 00       		.byte	0
 3119 01cd 00       		.byte	0
 3120 01ce 24       		.uleb128 0x24
 3121 01cf 2E       		.uleb128 0x2e
 3122 01d0 00       		.byte	0
 3123 01d1 03       		.uleb128 0x3
 3124 01d2 0E       		.uleb128 0xe
 3125 01d3 3A       		.uleb128 0x3a
 3126 01d4 0B       		.uleb128 0xb
 3127 01d5 3B       		.uleb128 0x3b
 3128 01d6 0B       		.uleb128 0xb
 3129 01d7 39       		.uleb128 0x39
ARM GAS  C:\Users\DEVELO~1\AppData\Local\Temp\ccpaNuUE.s 			page 56


 3130 01d8 21       		.uleb128 0x21
 3131 01d9 19       		.sleb128 25
 3132 01da 27       		.uleb128 0x27
 3133 01db 19       		.uleb128 0x19
 3134 01dc 49       		.uleb128 0x49
 3135 01dd 13       		.uleb128 0x13
 3136 01de 20       		.uleb128 0x20
 3137 01df 21       		.uleb128 0x21
 3138 01e0 03       		.sleb128 3
 3139 01e1 00       		.byte	0
 3140 01e2 00       		.byte	0
 3141 01e3 25       		.uleb128 0x25
 3142 01e4 2E       		.uleb128 0x2e
 3143 01e5 01       		.byte	0x1
 3144 01e6 31       		.uleb128 0x31
 3145 01e7 13       		.uleb128 0x13
 3146 01e8 11       		.uleb128 0x11
 3147 01e9 01       		.uleb128 0x1
 3148 01ea 12       		.uleb128 0x12
 3149 01eb 06       		.uleb128 0x6
 3150 01ec 40       		.uleb128 0x40
 3151 01ed 18       		.uleb128 0x18
 3152 01ee 7A       		.uleb128 0x7a
 3153 01ef 19       		.uleb128 0x19
 3154 01f0 01       		.uleb128 0x1
 3155 01f1 13       		.uleb128 0x13
 3156 01f2 00       		.byte	0
 3157 01f3 00       		.byte	0
 3158 01f4 26       		.uleb128 0x26
 3159 01f5 1D       		.uleb128 0x1d
 3160 01f6 01       		.byte	0x1
 3161 01f7 31       		.uleb128 0x31
 3162 01f8 13       		.uleb128 0x13
 3163 01f9 11       		.uleb128 0x11
 3164 01fa 01       		.uleb128 0x1
 3165 01fb 12       		.uleb128 0x12
 3166 01fc 06       		.uleb128 0x6
 3167 01fd 58       		.uleb128 0x58
 3168 01fe 21       		.uleb128 0x21
 3169 01ff 01       		.sleb128 1
 3170 0200 59       		.uleb128 0x59
 3171 0201 0B       		.uleb128 0xb
 3172 0202 57       		.uleb128 0x57
 3173 0203 0B       		.uleb128 0xb
 3174 0204 00       		.byte	0
 3175 0205 00       		.byte	0
 3176 0206 27       		.uleb128 0x27
 3177 0207 11       		.uleb128 0x11
 3178 0208 01       		.byte	0x1
 3179 0209 25       		.uleb128 0x25
 3180 020a 0E       		.uleb128 0xe
 3181 020b 13       		.uleb128 0x13
 3182 020c 0B       		.uleb128 0xb
 3183 020d 03       		.uleb128 0x3
 3184 020e 0E       		.uleb128 0xe
 3185 020f 1B       		.uleb128 0x1b
 3186 0210 0E       		.uleb128 0xe
ARM GAS  C:\Users\DEVELO~1\AppData\Local\Temp\ccpaNuUE.s 			page 57


 3187 0211 55       		.uleb128 0x55
 3188 0212 17       		.uleb128 0x17
 3189 0213 11       		.uleb128 0x11
 3190 0214 01       		.uleb128 0x1
 3191 0215 10       		.uleb128 0x10
 3192 0216 17       		.uleb128 0x17
 3193 0217 00       		.byte	0
 3194 0218 00       		.byte	0
 3195 0219 28       		.uleb128 0x28
 3196 021a 24       		.uleb128 0x24
 3197 021b 00       		.byte	0
 3198 021c 0B       		.uleb128 0xb
 3199 021d 0B       		.uleb128 0xb
 3200 021e 3E       		.uleb128 0x3e
 3201 021f 0B       		.uleb128 0xb
 3202 0220 03       		.uleb128 0x3
 3203 0221 08       		.uleb128 0x8
 3204 0222 00       		.byte	0
 3205 0223 00       		.byte	0
 3206 0224 29       		.uleb128 0x29
 3207 0225 35       		.uleb128 0x35
 3208 0226 00       		.byte	0
 3209 0227 49       		.uleb128 0x49
 3210 0228 13       		.uleb128 0x13
 3211 0229 00       		.byte	0
 3212 022a 00       		.byte	0
 3213 022b 2A       		.uleb128 0x2a
 3214 022c 2E       		.uleb128 0x2e
 3215 022d 00       		.byte	0
 3216 022e 3F       		.uleb128 0x3f
 3217 022f 19       		.uleb128 0x19
 3218 0230 03       		.uleb128 0x3
 3219 0231 0E       		.uleb128 0xe
 3220 0232 3A       		.uleb128 0x3a
 3221 0233 0B       		.uleb128 0xb
 3222 0234 3B       		.uleb128 0x3b
 3223 0235 0B       		.uleb128 0xb
 3224 0236 39       		.uleb128 0x39
 3225 0237 0B       		.uleb128 0xb
 3226 0238 27       		.uleb128 0x27
 3227 0239 19       		.uleb128 0x19
 3228 023a 49       		.uleb128 0x49
 3229 023b 13       		.uleb128 0x13
 3230 023c 3C       		.uleb128 0x3c
 3231 023d 19       		.uleb128 0x19
 3232 023e 00       		.byte	0
 3233 023f 00       		.byte	0
 3234 0240 2B       		.uleb128 0x2b
 3235 0241 2E       		.uleb128 0x2e
 3236 0242 00       		.byte	0
 3237 0243 3F       		.uleb128 0x3f
 3238 0244 19       		.uleb128 0x19
 3239 0245 03       		.uleb128 0x3
 3240 0246 0E       		.uleb128 0xe
 3241 0247 3A       		.uleb128 0x3a
 3242 0248 0B       		.uleb128 0xb
 3243 0249 3B       		.uleb128 0x3b
ARM GAS  C:\Users\DEVELO~1\AppData\Local\Temp\ccpaNuUE.s 			page 58


 3244 024a 05       		.uleb128 0x5
 3245 024b 39       		.uleb128 0x39
 3246 024c 0B       		.uleb128 0xb
 3247 024d 27       		.uleb128 0x27
 3248 024e 19       		.uleb128 0x19
 3249 024f 3C       		.uleb128 0x3c
 3250 0250 19       		.uleb128 0x19
 3251 0251 00       		.byte	0
 3252 0252 00       		.byte	0
 3253 0253 2C       		.uleb128 0x2c
 3254 0254 2E       		.uleb128 0x2e
 3255 0255 01       		.byte	0x1
 3256 0256 3F       		.uleb128 0x3f
 3257 0257 19       		.uleb128 0x19
 3258 0258 03       		.uleb128 0x3
 3259 0259 0E       		.uleb128 0xe
 3260 025a 3A       		.uleb128 0x3a
 3261 025b 0B       		.uleb128 0xb
 3262 025c 3B       		.uleb128 0x3b
 3263 025d 0B       		.uleb128 0xb
 3264 025e 39       		.uleb128 0x39
 3265 025f 0B       		.uleb128 0xb
 3266 0260 27       		.uleb128 0x27
 3267 0261 19       		.uleb128 0x19
 3268 0262 49       		.uleb128 0x49
 3269 0263 13       		.uleb128 0x13
 3270 0264 11       		.uleb128 0x11
 3271 0265 01       		.uleb128 0x1
 3272 0266 12       		.uleb128 0x12
 3273 0267 06       		.uleb128 0x6
 3274 0268 40       		.uleb128 0x40
 3275 0269 18       		.uleb128 0x18
 3276 026a 7A       		.uleb128 0x7a
 3277 026b 19       		.uleb128 0x19
 3278 026c 01       		.uleb128 0x1
 3279 026d 13       		.uleb128 0x13
 3280 026e 00       		.byte	0
 3281 026f 00       		.byte	0
 3282 0270 2D       		.uleb128 0x2d
 3283 0271 05       		.uleb128 0x5
 3284 0272 00       		.byte	0
 3285 0273 03       		.uleb128 0x3
 3286 0274 08       		.uleb128 0x8
 3287 0275 3A       		.uleb128 0x3a
 3288 0276 0B       		.uleb128 0xb
 3289 0277 3B       		.uleb128 0x3b
 3290 0278 0B       		.uleb128 0xb
 3291 0279 39       		.uleb128 0x39
 3292 027a 0B       		.uleb128 0xb
 3293 027b 49       		.uleb128 0x49
 3294 027c 13       		.uleb128 0x13
 3295 027d 02       		.uleb128 0x2
 3296 027e 17       		.uleb128 0x17
 3297 027f B742     		.uleb128 0x2137
 3298 0281 17       		.uleb128 0x17
 3299 0282 00       		.byte	0
 3300 0283 00       		.byte	0
ARM GAS  C:\Users\DEVELO~1\AppData\Local\Temp\ccpaNuUE.s 			page 59


 3301 0284 2E       		.uleb128 0x2e
 3302 0285 34       		.uleb128 0x34
 3303 0286 00       		.byte	0
 3304 0287 03       		.uleb128 0x3
 3305 0288 0E       		.uleb128 0xe
 3306 0289 3A       		.uleb128 0x3a
 3307 028a 0B       		.uleb128 0xb
 3308 028b 3B       		.uleb128 0x3b
 3309 028c 0B       		.uleb128 0xb
 3310 028d 39       		.uleb128 0x39
 3311 028e 0B       		.uleb128 0xb
 3312 028f 49       		.uleb128 0x49
 3313 0290 13       		.uleb128 0x13
 3314 0291 1C       		.uleb128 0x1c
 3315 0292 0D       		.uleb128 0xd
 3316 0293 00       		.byte	0
 3317 0294 00       		.byte	0
 3318 0295 2F       		.uleb128 0x2f
 3319 0296 0B       		.uleb128 0xb
 3320 0297 01       		.byte	0x1
 3321 0298 11       		.uleb128 0x11
 3322 0299 01       		.uleb128 0x1
 3323 029a 12       		.uleb128 0x12
 3324 029b 06       		.uleb128 0x6
 3325 029c 01       		.uleb128 0x1
 3326 029d 13       		.uleb128 0x13
 3327 029e 00       		.byte	0
 3328 029f 00       		.byte	0
 3329 02a0 30       		.uleb128 0x30
 3330 02a1 34       		.uleb128 0x34
 3331 02a2 00       		.byte	0
 3332 02a3 03       		.uleb128 0x3
 3333 02a4 0E       		.uleb128 0xe
 3334 02a5 3A       		.uleb128 0x3a
 3335 02a6 0B       		.uleb128 0xb
 3336 02a7 3B       		.uleb128 0x3b
 3337 02a8 0B       		.uleb128 0xb
 3338 02a9 39       		.uleb128 0x39
 3339 02aa 0B       		.uleb128 0xb
 3340 02ab 49       		.uleb128 0x49
 3341 02ac 13       		.uleb128 0x13
 3342 02ad 1C       		.uleb128 0x1c
 3343 02ae 06       		.uleb128 0x6
 3344 02af 00       		.byte	0
 3345 02b0 00       		.byte	0
 3346 02b1 31       		.uleb128 0x31
 3347 02b2 34       		.uleb128 0x34
 3348 02b3 00       		.byte	0
 3349 02b4 31       		.uleb128 0x31
 3350 02b5 13       		.uleb128 0x13
 3351 02b6 1C       		.uleb128 0x1c
 3352 02b7 0D       		.uleb128 0xd
 3353 02b8 00       		.byte	0
 3354 02b9 00       		.byte	0
 3355 02ba 32       		.uleb128 0x32
 3356 02bb 48       		.uleb128 0x48
 3357 02bc 01       		.byte	0x1
ARM GAS  C:\Users\DEVELO~1\AppData\Local\Temp\ccpaNuUE.s 			page 60


 3358 02bd 7D       		.uleb128 0x7d
 3359 02be 01       		.uleb128 0x1
 3360 02bf 7F       		.uleb128 0x7f
 3361 02c0 13       		.uleb128 0x13
 3362 02c1 00       		.byte	0
 3363 02c2 00       		.byte	0
 3364 02c3 33       		.uleb128 0x33
 3365 02c4 05       		.uleb128 0x5
 3366 02c5 00       		.byte	0
 3367 02c6 31       		.uleb128 0x31
 3368 02c7 13       		.uleb128 0x13
 3369 02c8 1C       		.uleb128 0x1c
 3370 02c9 06       		.uleb128 0x6
 3371 02ca 00       		.byte	0
 3372 02cb 00       		.byte	0
 3373 02cc 34       		.uleb128 0x34
 3374 02cd 1D       		.uleb128 0x1d
 3375 02ce 01       		.byte	0x1
 3376 02cf 31       		.uleb128 0x31
 3377 02d0 13       		.uleb128 0x13
 3378 02d1 55       		.uleb128 0x55
 3379 02d2 17       		.uleb128 0x17
 3380 02d3 58       		.uleb128 0x58
 3381 02d4 0B       		.uleb128 0xb
 3382 02d5 59       		.uleb128 0x59
 3383 02d6 0B       		.uleb128 0xb
 3384 02d7 57       		.uleb128 0x57
 3385 02d8 0B       		.uleb128 0xb
 3386 02d9 01       		.uleb128 0x1
 3387 02da 13       		.uleb128 0x13
 3388 02db 00       		.byte	0
 3389 02dc 00       		.byte	0
 3390 02dd 35       		.uleb128 0x35
 3391 02de 2E       		.uleb128 0x2e
 3392 02df 01       		.byte	0x1
 3393 02e0 31       		.uleb128 0x31
 3394 02e1 13       		.uleb128 0x13
 3395 02e2 11       		.uleb128 0x11
 3396 02e3 01       		.uleb128 0x1
 3397 02e4 12       		.uleb128 0x12
 3398 02e5 06       		.uleb128 0x6
 3399 02e6 40       		.uleb128 0x40
 3400 02e7 18       		.uleb128 0x18
 3401 02e8 7A       		.uleb128 0x7a
 3402 02e9 19       		.uleb128 0x19
 3403 02ea 00       		.byte	0
 3404 02eb 00       		.byte	0
 3405 02ec 00       		.byte	0
 3406              		.section	.debug_loclists,"",%progbits
 3407 0000 19040000 		.4byte	.Ldebug_loc3-.Ldebug_loc2
 3408              	.Ldebug_loc2:
 3409 0004 0500     		.2byte	0x5
 3410 0006 04       		.byte	0x4
 3411 0007 00       		.byte	0
 3412 0008 00000000 		.4byte	0
 3413              	.Ldebug_loc0:
 3414              	.LVUS34:
ARM GAS  C:\Users\DEVELO~1\AppData\Local\Temp\ccpaNuUE.s 			page 61


 3415 000c 00       		.uleb128 0
 3416 000d 00       		.uleb128 .LVU168
 3417 000e 00       		.uleb128 .LVU168
 3418 000f 00       		.uleb128 .LVU169
 3419 0010 00       		.uleb128 .LVU169
 3420 0011 00       		.uleb128 .LVU187
 3421 0012 00       		.uleb128 .LVU187
 3422 0013 00       		.uleb128 0
 3423              	.LLST34:
 3424 0014 06       		.byte	0x6
 3425 0015 00000000 		.4byte	.LVL28
 3426 0019 04       		.byte	0x4
 3427 001a 00       		.uleb128 .LVL28-.LVL28
 3428 001b 10       		.uleb128 .LVL29-.LVL28
 3429 001c 01       		.uleb128 0x1
 3430 001d 50       		.byte	0x50
 3431 001e 04       		.byte	0x4
 3432 001f 10       		.uleb128 .LVL29-.LVL28
 3433 0020 14       		.uleb128 .LVL30-.LVL28
 3434 0021 01       		.uleb128 0x1
 3435 0022 55       		.byte	0x55
 3436 0023 04       		.byte	0x4
 3437 0024 14       		.uleb128 .LVL30-.LVL28
 3438 0025 29       		.uleb128 .LVL31-1-.LVL28
 3439 0026 01       		.uleb128 0x1
 3440 0027 50       		.byte	0x50
 3441 0028 04       		.byte	0x4
 3442 0029 29       		.uleb128 .LVL31-1-.LVL28
 3443 002a D203     		.uleb128 .LFE458-.LVL28
 3444 002c 01       		.uleb128 0x1
 3445 002d 55       		.byte	0x55
 3446 002e 00       		.byte	0
 3447              	.LVUS35:
 3448 002f 03       		.uleb128 .LVU199
 3449 0030 00       		.uleb128 .LVU273
 3450 0031 00       		.uleb128 .LVU290
 3451 0032 00       		.uleb128 .LVU297
 3452              	.LLST35:
 3453 0033 06       		.byte	0x6
 3454 0034 4E000000 		.4byte	.LVL32
 3455 0038 04       		.byte	0x4
 3456 0039 00       		.uleb128 .LVL32-.LVL32
 3457 003a B601     		.uleb128 .LVL47-.LVL32
 3458 003c 01       		.uleb128 0x1
 3459 003d 54       		.byte	0x54
 3460 003e 04       		.byte	0x4
 3461 003f D001     		.uleb128 .LVL50-.LVL32
 3462 0041 E201     		.uleb128 .LVL52-.LVL32
 3463 0043 01       		.uleb128 0x1
 3464 0044 54       		.byte	0x54
 3465 0045 00       		.byte	0
 3466              	.LVUS36:
 3467 0046 04       		.uleb128 .LVU200
 3468 0047 00       		.uleb128 .LVU273
 3469 0048 00       		.uleb128 .LVU290
 3470 0049 00       		.uleb128 .LVU297
 3471              	.LLST36:
ARM GAS  C:\Users\DEVELO~1\AppData\Local\Temp\ccpaNuUE.s 			page 62


 3472 004a 06       		.byte	0x6
 3473 004b 4E000000 		.4byte	.LVL32
 3474 004f 04       		.byte	0x4
 3475 0050 00       		.uleb128 .LVL32-.LVL32
 3476 0051 B601     		.uleb128 .LVL47-.LVL32
 3477 0053 05       		.uleb128 0x5
 3478 0054 74       		.byte	0x74
 3479 0055 00       		.sleb128 0
 3480 0056 31       		.byte	0x31
 3481 0057 25       		.byte	0x25
 3482 0058 9F       		.byte	0x9f
 3483 0059 04       		.byte	0x4
 3484 005a D001     		.uleb128 .LVL50-.LVL32
 3485 005c E201     		.uleb128 .LVL52-.LVL32
 3486 005e 05       		.uleb128 0x5
 3487 005f 74       		.byte	0x74
 3488 0060 00       		.sleb128 0
 3489 0061 31       		.byte	0x31
 3490 0062 25       		.byte	0x25
 3491 0063 9F       		.byte	0x9f
 3492 0064 00       		.byte	0
 3493              	.LVUS56:
 3494 0065 00       		.uleb128 .LVU298
 3495 0066 01       		.uleb128 .LVU299
 3496              	.LLST56:
 3497 0067 08       		.byte	0x8
 3498 0068 34010000 		.4byte	.LVL53
 3499 006c 00       		.uleb128 .LVL53-.LVL53
 3500 006d 01       		.uleb128 0x1
 3501 006e 56       		.byte	0x56
 3502 006f 00       		.byte	0
 3503              	.LVUS57:
 3504 0070 00       		.uleb128 .LVU302
 3505 0071 00       		.uleb128 0
 3506              	.LLST57:
 3507 0072 08       		.byte	0x8
 3508 0073 40010000 		.4byte	.LVL54
 3509 0077 9201     		.uleb128 .LFE458-.LVL54
 3510 0079 01       		.uleb128 0x1
 3511 007a 54       		.byte	0x54
 3512 007b 00       		.byte	0
 3513              	.LVUS58:
 3514 007c 01       		.uleb128 .LVU303
 3515 007d 00       		.uleb128 0
 3516              	.LLST58:
 3517 007e 08       		.byte	0x8
 3518 007f 40010000 		.4byte	.LVL54
 3519 0083 9201     		.uleb128 .LFE458-.LVL54
 3520 0085 01       		.uleb128 0x1
 3521 0086 56       		.byte	0x56
 3522 0087 00       		.byte	0
 3523              	.LVUS60:
 3524 0088 03       		.uleb128 .LVU305
 3525 0089 00       		.uleb128 .LVU361
 3526 008a 00       		.uleb128 .LVU366
 3527 008b 00       		.uleb128 0
 3528              	.LLST60:
ARM GAS  C:\Users\DEVELO~1\AppData\Local\Temp\ccpaNuUE.s 			page 63


 3529 008c 06       		.byte	0x6
 3530 008d 40010000 		.4byte	.LVL54
 3531 0091 04       		.byte	0x4
 3532 0092 00       		.uleb128 .LVL54-.LVL54
 3533 0093 5C       		.uleb128 .LVL62-.LVL54
 3534 0094 05       		.uleb128 0x5
 3535 0095 40       		.byte	0x40
 3536 0096 4A       		.byte	0x4a
 3537 0097 24       		.byte	0x24
 3538 0098 1F       		.byte	0x1f
 3539 0099 9F       		.byte	0x9f
 3540 009a 04       		.byte	0x4
 3541 009b 72       		.uleb128 .LVL67-.LVL54
 3542 009c 9201     		.uleb128 .LFE458-.LVL54
 3543 009e 05       		.uleb128 0x5
 3544 009f 40       		.byte	0x40
 3545 00a0 4A       		.byte	0x4a
 3546 00a1 24       		.byte	0x24
 3547 00a2 1F       		.byte	0x1f
 3548 00a3 9F       		.byte	0x9f
 3549 00a4 00       		.byte	0
 3550              	.LVUS61:
 3551 00a5 02       		.uleb128 .LVU304
 3552 00a6 00       		.uleb128 .LVU361
 3553 00a7 00       		.uleb128 .LVU366
 3554 00a8 00       		.uleb128 0
 3555              	.LLST61:
 3556 00a9 06       		.byte	0x6
 3557 00aa 40010000 		.4byte	.LVL54
 3558 00ae 04       		.byte	0x4
 3559 00af 00       		.uleb128 .LVL54-.LVL54
 3560 00b0 5C       		.uleb128 .LVL62-.LVL54
 3561 00b1 01       		.uleb128 0x1
 3562 00b2 55       		.byte	0x55
 3563 00b3 04       		.byte	0x4
 3564 00b4 72       		.uleb128 .LVL67-.LVL54
 3565 00b5 9201     		.uleb128 .LFE458-.LVL54
 3566 00b7 01       		.uleb128 0x1
 3567 00b8 55       		.byte	0x55
 3568 00b9 00       		.byte	0
 3569              	.LVUS62:
 3570 00ba 06       		.uleb128 .LVU308
 3571 00bb 00       		.uleb128 .LVU361
 3572 00bc 00       		.uleb128 .LVU366
 3573 00bd 00       		.uleb128 0
 3574              	.LLST62:
 3575 00be 06       		.byte	0x6
 3576 00bf 40010000 		.4byte	.LVL54
 3577 00c3 04       		.byte	0x4
 3578 00c4 00       		.uleb128 .LVL54-.LVL54
 3579 00c5 5C       		.uleb128 .LVL62-.LVL54
 3580 00c6 01       		.uleb128 0x1
 3581 00c7 5E       		.byte	0x5e
 3582 00c8 04       		.byte	0x4
 3583 00c9 72       		.uleb128 .LVL67-.LVL54
 3584 00ca 9201     		.uleb128 .LFE458-.LVL54
 3585 00cc 01       		.uleb128 0x1
ARM GAS  C:\Users\DEVELO~1\AppData\Local\Temp\ccpaNuUE.s 			page 64


 3586 00cd 5E       		.byte	0x5e
 3587 00ce 00       		.byte	0
 3588              	.LVUS63:
 3589 00cf 00       		.uleb128 .LVU314
 3590 00d0 00       		.uleb128 .LVU324
 3591 00d1 00       		.uleb128 .LVU366
 3592 00d2 00       		.uleb128 0
 3593              	.LLST63:
 3594 00d3 06       		.byte	0x6
 3595 00d4 4A010000 		.4byte	.LVL55
 3596 00d8 04       		.byte	0x4
 3597 00d9 00       		.uleb128 .LVL55-.LVL55
 3598 00da 0C       		.uleb128 .LVL58-.LVL55
 3599 00db 01       		.uleb128 0x1
 3600 00dc 57       		.byte	0x57
 3601 00dd 04       		.byte	0x4
 3602 00de 68       		.uleb128 .LVL67-.LVL55
 3603 00df 8801     		.uleb128 .LFE458-.LVL55
 3604 00e1 01       		.uleb128 0x1
 3605 00e2 57       		.byte	0x57
 3606 00e3 00       		.byte	0
 3607              	.LVUS64:
 3608 00e4 00       		.uleb128 .LVU316
 3609 00e5 00       		.uleb128 .LVU353
 3610 00e6 00       		.uleb128 .LVU366
 3611 00e7 00       		.uleb128 .LVU370
 3612              	.LLST64:
 3613 00e8 06       		.byte	0x6
 3614 00e9 4C010000 		.4byte	.LVL56
 3615 00ed 04       		.byte	0x4
 3616 00ee 00       		.uleb128 .LVL56-.LVL56
 3617 00ef 44       		.uleb128 .LVL61-.LVL56
 3618 00f0 01       		.uleb128 0x1
 3619 00f1 50       		.byte	0x50
 3620 00f2 04       		.byte	0x4
 3621 00f3 66       		.uleb128 .LVL67-.LVL56
 3622 00f4 68       		.uleb128 .LVL68-.LVL56
 3623 00f5 01       		.uleb128 0x1
 3624 00f6 50       		.byte	0x50
 3625 00f7 00       		.byte	0
 3626              	.LVUS65:
 3627 00f8 01       		.uleb128 .LVU321
 3628 00f9 00       		.uleb128 .LVU335
 3629              	.LLST65:
 3630 00fa 08       		.byte	0x8
 3631 00fb 54010000 		.4byte	.LVL57
 3632 00ff 1A       		.uleb128 .LVL59-.LVL57
 3633 0100 02       		.uleb128 0x2
 3634 0101 31       		.byte	0x31
 3635 0102 9F       		.byte	0x9f
 3636 0103 00       		.byte	0
 3637              	.LVUS66:
 3638 0104 01       		.uleb128 .LVU321
 3639 0105 00       		.uleb128 .LVU324
 3640              	.LLST66:
 3641 0106 08       		.byte	0x8
 3642 0107 54010000 		.4byte	.LVL57
ARM GAS  C:\Users\DEVELO~1\AppData\Local\Temp\ccpaNuUE.s 			page 65


 3643 010b 02       		.uleb128 .LVL58-.LVL57
 3644 010c 01       		.uleb128 0x1
 3645 010d 57       		.byte	0x57
 3646 010e 00       		.byte	0
 3647              	.LVUS67:
 3648 010f 01       		.uleb128 .LVU321
 3649 0110 00       		.uleb128 .LVU335
 3650              	.LLST67:
 3651 0111 08       		.byte	0x8
 3652 0112 54010000 		.4byte	.LVL57
 3653 0116 1A       		.uleb128 .LVL59-.LVL57
 3654 0117 04       		.uleb128 0x4
 3655 0118 0B       		.byte	0xb
 3656 0119 5AA5     		.2byte	0xa55a
 3657 011b 9F       		.byte	0x9f
 3658 011c 00       		.byte	0
 3659              	.LVUS68:
 3660 011d 01       		.uleb128 .LVU321
 3661 011e 00       		.uleb128 .LVU335
 3662              	.LLST68:
 3663 011f 08       		.byte	0x8
 3664 0120 54010000 		.4byte	.LVL57
 3665 0124 1A       		.uleb128 .LVL59-.LVL57
 3666 0125 05       		.uleb128 0x5
 3667 0126 40       		.byte	0x40
 3668 0127 4A       		.byte	0x4a
 3669 0128 24       		.byte	0x24
 3670 0129 1F       		.byte	0x1f
 3671 012a 9F       		.byte	0x9f
 3672 012b 00       		.byte	0
 3673              	.LVUS69:
 3674 012c 01       		.uleb128 .LVU321
 3675 012d 00       		.uleb128 .LVU335
 3676              	.LLST69:
 3677 012e 08       		.byte	0x8
 3678 012f 54010000 		.4byte	.LVL57
 3679 0133 1A       		.uleb128 .LVL59-.LVL57
 3680 0134 03       		.uleb128 0x3
 3681 0135 75       		.byte	0x75
 3682 0136 0C       		.sleb128 12
 3683 0137 9F       		.byte	0x9f
 3684 0138 00       		.byte	0
 3685              	.LVUS70:
 3686 0139 01       		.uleb128 .LVU339
 3687 013a 00       		.uleb128 .LVU353
 3688              	.LLST70:
 3689 013b 08       		.byte	0x8
 3690 013c 76010000 		.4byte	.LVL60
 3691 0140 1A       		.uleb128 .LVL61-.LVL60
 3692 0141 02       		.uleb128 0x2
 3693 0142 31       		.byte	0x31
 3694 0143 9F       		.byte	0x9f
 3695 0144 00       		.byte	0
 3696              	.LVUS71:
 3697 0145 01       		.uleb128 .LVU339
 3698 0146 00       		.uleb128 .LVU353
 3699              	.LLST71:
ARM GAS  C:\Users\DEVELO~1\AppData\Local\Temp\ccpaNuUE.s 			page 66


 3700 0147 08       		.byte	0x8
 3701 0148 76010000 		.4byte	.LVL60
 3702 014c 1A       		.uleb128 .LVL61-.LVL60
 3703 014d 01       		.uleb128 0x1
 3704 014e 50       		.byte	0x50
 3705 014f 00       		.byte	0
 3706              	.LVUS72:
 3707 0150 01       		.uleb128 .LVU339
 3708 0151 00       		.uleb128 .LVU353
 3709              	.LLST72:
 3710 0152 08       		.byte	0x8
 3711 0153 76010000 		.4byte	.LVL60
 3712 0157 1A       		.uleb128 .LVL61-.LVL60
 3713 0158 04       		.uleb128 0x4
 3714 0159 0A       		.byte	0xa
 3715 015a A55A     		.2byte	0x5aa5
 3716 015c 9F       		.byte	0x9f
 3717 015d 00       		.byte	0
 3718              	.LVUS73:
 3719 015e 01       		.uleb128 .LVU339
 3720 015f 00       		.uleb128 .LVU353
 3721              	.LLST73:
 3722 0160 08       		.byte	0x8
 3723 0161 76010000 		.4byte	.LVL60
 3724 0165 1A       		.uleb128 .LVL61-.LVL60
 3725 0166 01       		.uleb128 0x1
 3726 0167 5E       		.byte	0x5e
 3727 0168 00       		.byte	0
 3728              	.LVUS74:
 3729 0169 01       		.uleb128 .LVU339
 3730 016a 00       		.uleb128 .LVU353
 3731              	.LLST74:
 3732 016b 08       		.byte	0x8
 3733 016c 76010000 		.4byte	.LVL60
 3734 0170 1A       		.uleb128 .LVL61-.LVL60
 3735 0171 03       		.uleb128 0x3
 3736 0172 75       		.byte	0x75
 3737 0173 0C       		.sleb128 12
 3738 0174 9F       		.byte	0x9f
 3739 0175 00       		.byte	0
 3740              	.LVUS75:
 3741 0176 01       		.uleb128 .LVU367
 3742 0177 00       		.uleb128 0
 3743              	.LLST75:
 3744 0178 08       		.byte	0x8
 3745 0179 B2010000 		.4byte	.LVL67
 3746 017d 20       		.uleb128 .LFE458-.LVL67
 3747 017e 01       		.uleb128 0x1
 3748 017f 57       		.byte	0x57
 3749 0180 00       		.byte	0
 3750              	.LVUS76:
 3751 0181 01       		.uleb128 .LVU367
 3752 0182 00       		.uleb128 0
 3753              	.LLST76:
 3754 0183 08       		.byte	0x8
 3755 0184 B2010000 		.4byte	.LVL67
 3756 0188 20       		.uleb128 .LFE458-.LVL67
ARM GAS  C:\Users\DEVELO~1\AppData\Local\Temp\ccpaNuUE.s 			page 67


 3757 0189 03       		.uleb128 0x3
 3758 018a 75       		.byte	0x75
 3759 018b 0C       		.sleb128 12
 3760 018c 9F       		.byte	0x9f
 3761 018d 00       		.byte	0
 3762              	.LVUS38:
 3763 018e 01       		.uleb128 .LVU170
 3764 018f 00       		.uleb128 .LVU187
 3765 0190 00       		.uleb128 .LVU187
 3766 0191 00       		.uleb128 .LVU196
 3767              	.LLST38:
 3768 0192 06       		.byte	0x6
 3769 0193 14000000 		.4byte	.LVL30
 3770 0197 04       		.byte	0x4
 3771 0198 00       		.uleb128 .LVL30-.LVL30
 3772 0199 15       		.uleb128 .LVL31-1-.LVL30
 3773 019a 03       		.uleb128 0x3
 3774 019b 70       		.byte	0x70
 3775 019c 0C       		.sleb128 12
 3776 019d 9F       		.byte	0x9f
 3777 019e 04       		.byte	0x4
 3778 019f 15       		.uleb128 .LVL31-1-.LVL30
 3779 01a0 3A       		.uleb128 .LVL32-.LVL30
 3780 01a1 03       		.uleb128 0x3
 3781 01a2 75       		.byte	0x75
 3782 01a3 0C       		.sleb128 12
 3783 01a4 9F       		.byte	0x9f
 3784 01a5 00       		.byte	0
 3785              	.LVUS40:
 3786 01a6 02       		.uleb128 .LVU211
 3787 01a7 00       		.uleb128 .LVU270
 3788              	.LLST40:
 3789 01a8 08       		.byte	0x8
 3790 01a9 7A000000 		.4byte	.LVL38
 3791 01ad 8801     		.uleb128 .LVL46-.LVL38
 3792 01af 05       		.uleb128 0x5
 3793 01b0 40       		.byte	0x40
 3794 01b1 4A       		.byte	0x4a
 3795 01b2 24       		.byte	0x24
 3796 01b3 1F       		.byte	0x1f
 3797 01b4 9F       		.byte	0x9f
 3798 01b5 00       		.byte	0
 3799              	.LVUS41:
 3800 01b6 01       		.uleb128 .LVU210
 3801 01b7 00       		.uleb128 .LVU212
 3802 01b8 00       		.uleb128 .LVU212
 3803 01b9 00       		.uleb128 .LVU270
 3804              	.LLST41:
 3805 01ba 06       		.byte	0x6
 3806 01bb 7A000000 		.4byte	.LVL38
 3807 01bf 04       		.byte	0x4
 3808 01c0 00       		.uleb128 .LVL38-.LVL38
 3809 01c1 04       		.uleb128 .LVL39-.LVL38
 3810 01c2 01       		.uleb128 0x1
 3811 01c3 52       		.byte	0x52
 3812 01c4 04       		.byte	0x4
 3813 01c5 04       		.uleb128 .LVL39-.LVL38
ARM GAS  C:\Users\DEVELO~1\AppData\Local\Temp\ccpaNuUE.s 			page 68


 3814 01c6 8801     		.uleb128 .LVL46-.LVL38
 3815 01c8 01       		.uleb128 0x1
 3816 01c9 55       		.byte	0x55
 3817 01ca 00       		.byte	0
 3818              	.LVUS42:
 3819 01cb 01       		.uleb128 .LVU210
 3820 01cc 00       		.uleb128 .LVU270
 3821              	.LLST42:
 3822 01cd 08       		.byte	0x8
 3823 01ce 7A000000 		.4byte	.LVL38
 3824 01d2 8801     		.uleb128 .LVL46-.LVL38
 3825 01d4 05       		.uleb128 0x5
 3826 01d5 74       		.byte	0x74
 3827 01d6 00       		.sleb128 0
 3828 01d7 31       		.byte	0x31
 3829 01d8 25       		.byte	0x25
 3830 01d9 9F       		.byte	0x9f
 3831 01da 00       		.byte	0
 3832              	.LVUS43:
 3833 01db 02       		.uleb128 .LVU211
 3834 01dc 00       		.uleb128 .LVU215
 3835 01dd 00       		.uleb128 .LVU215
 3836 01de 00       		.uleb128 .LVU226
 3837 01df 00       		.uleb128 .LVU227
 3838 01e0 00       		.uleb128 .LVU265
 3839              	.LLST43:
 3840 01e1 06       		.byte	0x6
 3841 01e2 7A000000 		.4byte	.LVL38
 3842 01e6 04       		.byte	0x4
 3843 01e7 00       		.uleb128 .LVL38-.LVL38
 3844 01e8 0E       		.uleb128 .LVL40-.LVL38
 3845 01e9 04       		.uleb128 0x4
 3846 01ea 0B       		.byte	0xb
 3847 01eb E1AC     		.2byte	0xace1
 3848 01ed 9F       		.byte	0x9f
 3849 01ee 04       		.byte	0x4
 3850 01ef 0E       		.uleb128 .LVL40-.LVL38
 3851 01f0 34       		.uleb128 .LVL42-.LVL38
 3852 01f1 01       		.uleb128 0x1
 3853 01f2 51       		.byte	0x51
 3854 01f3 04       		.byte	0x4
 3855 01f4 38       		.uleb128 .LVL43-.LVL38
 3856 01f5 7C       		.uleb128 .LVL45-.LVL38
 3857 01f6 01       		.uleb128 0x1
 3858 01f7 51       		.byte	0x51
 3859 01f8 00       		.byte	0
 3860              	.LVUS45:
 3861 01f9 02       		.uleb128 .LVU211
 3862 01fa 00       		.uleb128 .LVU215
 3863              	.LLST45:
 3864 01fb 08       		.byte	0x8
 3865 01fc 7A000000 		.4byte	.LVL38
 3866 0200 0E       		.uleb128 .LVL40-.LVL38
 3867 0201 02       		.uleb128 0x2
 3868 0202 30       		.byte	0x30
 3869 0203 9F       		.byte	0x9f
 3870 0204 00       		.byte	0
ARM GAS  C:\Users\DEVELO~1\AppData\Local\Temp\ccpaNuUE.s 			page 69


 3871              	.LVUS46:
 3872 0205 01       		.uleb128 .LVU216
 3873 0206 00       		.uleb128 .LVU221
 3874              	.LLST46:
 3875 0207 08       		.byte	0x8
 3876 0208 88000000 		.4byte	.LVL40
 3877 020c 16       		.uleb128 .LVL41-.LVL40
 3878 020d 14       		.uleb128 0x14
 3879 020e 71       		.byte	0x71
 3880 020f 00       		.sleb128 0
 3881 0210 32       		.byte	0x32
 3882 0211 25       		.byte	0x25
 3883 0212 71       		.byte	0x71
 3884 0213 00       		.sleb128 0
 3885 0214 33       		.byte	0x33
 3886 0215 25       		.byte	0x25
 3887 0216 27       		.byte	0x27
 3888 0217 71       		.byte	0x71
 3889 0218 00       		.sleb128 0
 3890 0219 35       		.byte	0x35
 3891 021a 25       		.byte	0x25
 3892 021b 27       		.byte	0x27
 3893 021c 71       		.byte	0x71
 3894 021d 00       		.sleb128 0
 3895 021e 27       		.byte	0x27
 3896 021f 31       		.byte	0x31
 3897 0220 1A       		.byte	0x1a
 3898 0221 9F       		.byte	0x9f
 3899 0222 00       		.byte	0
 3900              	.LVUS48:
 3901 0223 02       		.uleb128 .LVU229
 3902 0224 00       		.uleb128 .LVU239
 3903              	.LLST48:
 3904 0225 08       		.byte	0x8
 3905 0226 B2000000 		.4byte	.LVL43
 3906 022a 1E       		.uleb128 .LVL44-.LVL43
 3907 022b 14       		.uleb128 0x14
 3908 022c 71       		.byte	0x71
 3909 022d 00       		.sleb128 0
 3910 022e 32       		.byte	0x32
 3911 022f 25       		.byte	0x25
 3912 0230 71       		.byte	0x71
 3913 0231 00       		.sleb128 0
 3914 0232 33       		.byte	0x33
 3915 0233 25       		.byte	0x25
 3916 0234 27       		.byte	0x27
 3917 0235 71       		.byte	0x71
 3918 0236 00       		.sleb128 0
 3919 0237 35       		.byte	0x35
 3920 0238 25       		.byte	0x25
 3921 0239 27       		.byte	0x27
 3922 023a 71       		.byte	0x71
 3923 023b 00       		.sleb128 0
 3924 023c 27       		.byte	0x27
 3925 023d 31       		.byte	0x31
 3926 023e 1A       		.byte	0x1a
 3927 023f 9F       		.byte	0x9f
ARM GAS  C:\Users\DEVELO~1\AppData\Local\Temp\ccpaNuUE.s 			page 70


 3928 0240 00       		.byte	0
 3929              	.LVUS49:
 3930 0241 01       		.uleb128 .LVU240
 3931 0242 00       		.uleb128 .LVU265
 3932              	.LLST49:
 3933 0243 08       		.byte	0x8
 3934 0244 D0000000 		.4byte	.LVL44
 3935 0248 26       		.uleb128 .LVL45-.LVL44
 3936 0249 01       		.uleb128 0x1
 3937 024a 51       		.byte	0x51
 3938 024b 00       		.byte	0
 3939              	.LVUS50:
 3940 024c 02       		.uleb128 .LVU241
 3941 024d 00       		.uleb128 .LVU270
 3942              	.LLST50:
 3943 024e 08       		.byte	0x8
 3944 024f D0000000 		.4byte	.LVL44
 3945 0253 32       		.uleb128 .LVL46-.LVL44
 3946 0254 01       		.uleb128 0x1
 3947 0255 5C       		.byte	0x5c
 3948 0256 00       		.byte	0
 3949              	.LVUS52:
 3950 0257 03       		.uleb128 .LVU242
 3951 0258 00       		.uleb128 .LVU273
 3952 0259 00       		.uleb128 .LVU290
 3953 025a 00       		.uleb128 .LVU294
 3954              	.LLST52:
 3955 025b 06       		.byte	0x6
 3956 025c D0000000 		.4byte	.LVL44
 3957 0260 04       		.byte	0x4
 3958 0261 00       		.uleb128 .LVL44-.LVL44
 3959 0262 34       		.uleb128 .LVL47-.LVL44
 3960 0263 01       		.uleb128 0x1
 3961 0264 5C       		.byte	0x5c
 3962 0265 04       		.byte	0x4
 3963 0266 4E       		.uleb128 .LVL50-.LVL44
 3964 0267 56       		.uleb128 .LVL51-.LVL44
 3965 0268 01       		.uleb128 0x1
 3966 0269 5C       		.byte	0x5c
 3967 026a 00       		.byte	0
 3968              	.LVUS53:
 3969 026b 03       		.uleb128 .LVU242
 3970 026c 00       		.uleb128 .LVU265
 3971              	.LLST53:
 3972 026d 08       		.byte	0x8
 3973 026e D0000000 		.4byte	.LVL44
 3974 0272 26       		.uleb128 .LVL45-.LVL44
 3975 0273 01       		.uleb128 0x1
 3976 0274 51       		.byte	0x51
 3977 0275 00       		.byte	0
 3978              	.LVUS55:
 3979 0276 01       		.uleb128 .LVU274
 3980 0277 00       		.uleb128 .LVU288
 3981              	.LLST55:
 3982 0278 08       		.byte	0x8
 3983 0279 04010000 		.4byte	.LVL47
 3984 027d 16       		.uleb128 .LVL49-.LVL47
ARM GAS  C:\Users\DEVELO~1\AppData\Local\Temp\ccpaNuUE.s 			page 71


 3985 027e 03       		.uleb128 0x3
 3986 027f 75       		.byte	0x75
 3987 0280 0C       		.sleb128 12
 3988 0281 9F       		.byte	0x9f
 3989 0282 00       		.byte	0
 3990              	.LVUS0:
 3991 0283 00       		.uleb128 0
 3992 0284 00       		.uleb128 .LVU6
 3993 0285 00       		.uleb128 .LVU6
 3994 0286 00       		.uleb128 0
 3995              	.LLST0:
 3996 0287 06       		.byte	0x6
 3997 0288 00000000 		.4byte	.LVL0
 3998 028c 04       		.byte	0x4
 3999 028d 00       		.uleb128 .LVL0-.LVL0
 4000 028e 02       		.uleb128 .LVL1-.LVL0
 4001 028f 01       		.uleb128 0x1
 4002 0290 50       		.byte	0x50
 4003 0291 04       		.byte	0x4
 4004 0292 02       		.uleb128 .LVL1-.LVL0
 4005 0293 64       		.uleb128 .LFE459-.LVL0
 4006 0294 04       		.uleb128 0x4
 4007 0295 A3       		.byte	0xa3
 4008 0296 01       		.uleb128 0x1
 4009 0297 50       		.byte	0x50
 4010 0298 9F       		.byte	0x9f
 4011 0299 00       		.byte	0
 4012              	.LVUS1:
 4013 029a 02       		.uleb128 .LVU2
 4014 029b 00       		.uleb128 .LVU6
 4015 029c 00       		.uleb128 .LVU6
 4016 029d 00       		.uleb128 .LVU8
 4017 029e 00       		.uleb128 .LVU8
 4018 029f 00       		.uleb128 .LVU18
 4019 02a0 00       		.uleb128 .LVU18
 4020 02a1 00       		.uleb128 0
 4021              	.LLST1:
 4022 02a2 06       		.byte	0x6
 4023 02a3 00000000 		.4byte	.LVL0
 4024 02a7 04       		.byte	0x4
 4025 02a8 00       		.uleb128 .LVL0-.LVL0
 4026 02a9 02       		.uleb128 .LVL1-.LVL0
 4027 02aa 09       		.uleb128 0x9
 4028 02ab 70       		.byte	0x70
 4029 02ac 00       		.sleb128 0
 4030 02ad 31       		.byte	0x31
 4031 02ae 24       		.byte	0x24
 4032 02af 40       		.byte	0x40
 4033 02b0 4A       		.byte	0x4a
 4034 02b1 24       		.byte	0x24
 4035 02b2 1C       		.byte	0x1c
 4036 02b3 9F       		.byte	0x9f
 4037 02b4 04       		.byte	0x4
 4038 02b5 02       		.uleb128 .LVL1-.LVL0
 4039 02b6 08       		.uleb128 .LVL2-.LVL0
 4040 02b7 0A       		.uleb128 0xa
 4041 02b8 A3       		.byte	0xa3
ARM GAS  C:\Users\DEVELO~1\AppData\Local\Temp\ccpaNuUE.s 			page 72


 4042 02b9 01       		.uleb128 0x1
 4043 02ba 50       		.byte	0x50
 4044 02bb 31       		.byte	0x31
 4045 02bc 24       		.byte	0x24
 4046 02bd 40       		.byte	0x40
 4047 02be 4A       		.byte	0x4a
 4048 02bf 24       		.byte	0x24
 4049 02c0 1C       		.byte	0x1c
 4050 02c1 9F       		.byte	0x9f
 4051 02c2 04       		.byte	0x4
 4052 02c3 08       		.uleb128 .LVL2-.LVL0
 4053 02c4 22       		.uleb128 .LVL7-.LVL0
 4054 02c5 01       		.uleb128 0x1
 4055 02c6 50       		.byte	0x50
 4056 02c7 04       		.byte	0x4
 4057 02c8 22       		.uleb128 .LVL7-.LVL0
 4058 02c9 64       		.uleb128 .LFE459-.LVL0
 4059 02ca 0A       		.uleb128 0xa
 4060 02cb A3       		.byte	0xa3
 4061 02cc 01       		.uleb128 0x1
 4062 02cd 50       		.byte	0x50
 4063 02ce 31       		.byte	0x31
 4064 02cf 24       		.byte	0x24
 4065 02d0 40       		.byte	0x40
 4066 02d1 4A       		.byte	0x4a
 4067 02d2 24       		.byte	0x24
 4068 02d3 1C       		.byte	0x1c
 4069 02d4 9F       		.byte	0x9f
 4070 02d5 00       		.byte	0
 4071              	.LVUS3:
 4072 02d6 04       		.uleb128 .LVU4
 4073 02d7 00       		.uleb128 .LVU10
 4074 02d8 00       		.uleb128 .LVU10
 4075 02d9 00       		.uleb128 .LVU12
 4076 02da 00       		.uleb128 .LVU12
 4077 02db 01       		.uleb128 .LVU15
 4078 02dc 01       		.uleb128 .LVU15
 4079 02dd 00       		.uleb128 .LVU17
 4080              	.LLST3:
 4081 02de 06       		.byte	0x6
 4082 02df 00000000 		.4byte	.LVL0
 4083 02e3 04       		.byte	0x4
 4084 02e4 00       		.uleb128 .LVL0-.LVL0
 4085 02e5 0C       		.uleb128 .LVL3-.LVL0
 4086 02e6 02       		.uleb128 0x2
 4087 02e7 30       		.byte	0x30
 4088 02e8 9F       		.byte	0x9f
 4089 02e9 04       		.byte	0x4
 4090 02ea 0C       		.uleb128 .LVL3-.LVL0
 4091 02eb 12       		.uleb128 .LVL4-.LVL0
 4092 02ec 01       		.uleb128 0x1
 4093 02ed 53       		.byte	0x53
 4094 02ee 04       		.byte	0x4
 4095 02ef 12       		.uleb128 .LVL4-.LVL0
 4096 02f0 1A       		.uleb128 .LVL5-.LVL0
 4097 02f1 03       		.uleb128 0x3
 4098 02f2 73       		.byte	0x73
ARM GAS  C:\Users\DEVELO~1\AppData\Local\Temp\ccpaNuUE.s 			page 73


 4099 02f3 7F       		.sleb128 -1
 4100 02f4 9F       		.byte	0x9f
 4101 02f5 04       		.byte	0x4
 4102 02f6 1A       		.uleb128 .LVL5-.LVL0
 4103 02f7 1E       		.uleb128 .LVL6-.LVL0
 4104 02f8 01       		.uleb128 0x1
 4105 02f9 53       		.byte	0x53
 4106 02fa 00       		.byte	0
 4107              	.LVUS4:
 4108 02fb 00       		.uleb128 .LVU18
 4109 02fc 00       		.uleb128 .LVU49
 4110              	.LLST4:
 4111 02fd 08       		.byte	0x8
 4112 02fe 22000000 		.4byte	.LVL7
 4113 0302 36       		.uleb128 .LVL12-.LVL7
 4114 0303 01       		.uleb128 0x1
 4115 0304 53       		.byte	0x53
 4116 0305 00       		.byte	0
 4117              	.LVUS6:
 4118 0306 00       		.uleb128 .LVU23
 4119 0307 00       		.uleb128 0
 4120              	.LLST6:
 4121 0308 08       		.byte	0x8
 4122 0309 28000000 		.4byte	.LVL8
 4123 030d 3C       		.uleb128 .LFE459-.LVL8
 4124 030e 01       		.uleb128 0x1
 4125 030f 5C       		.byte	0x5c
 4126 0310 00       		.byte	0
 4127              	.LVUS7:
 4128 0311 00       		.uleb128 .LVU29
 4129 0312 00       		.uleb128 .LVU33
 4130              	.LLST7:
 4131 0313 08       		.byte	0x8
 4132 0314 2C000000 		.4byte	.LVL10
 4133 0318 06       		.uleb128 .LVL11-.LVL10
 4134 0319 01       		.uleb128 0x1
 4135 031a 52       		.byte	0x52
 4136 031b 00       		.byte	0
 4137              	.LVUS9:
 4138 031c 01       		.uleb128 .LVU24
 4139 031d 00       		.uleb128 .LVU33
 4140              	.LLST9:
 4141 031e 08       		.byte	0x8
 4142 031f 28000000 		.4byte	.LVL8
 4143 0323 0A       		.uleb128 .LVL11-.LVL8
 4144 0324 01       		.uleb128 0x1
 4145 0325 52       		.byte	0x52
 4146 0326 00       		.byte	0
 4147              	.LVUS10:
 4148 0327 01       		.uleb128 .LVU24
 4149 0328 00       		.uleb128 0
 4150              	.LLST10:
 4151 0329 08       		.byte	0x8
 4152 032a 28000000 		.4byte	.LVL8
 4153 032e 3C       		.uleb128 .LFE459-.LVL8
 4154 032f 01       		.uleb128 0x1
 4155 0330 5C       		.byte	0x5c
ARM GAS  C:\Users\DEVELO~1\AppData\Local\Temp\ccpaNuUE.s 			page 74


 4156 0331 00       		.byte	0
 4157              	.LVUS11:
 4158 0332 00       		.uleb128 0
 4159 0333 00       		.uleb128 .LVU94
 4160 0334 00       		.uleb128 .LVU94
 4161 0335 00       		.uleb128 0
 4162              	.LLST11:
 4163 0336 06       		.byte	0x6
 4164 0337 00000000 		.4byte	.LVL13
 4165 033b 04       		.byte	0x4
 4166 033c 00       		.uleb128 .LVL13-.LVL13
 4167 033d 46       		.uleb128 .LVL18-.LVL13
 4168 033e 01       		.uleb128 0x1
 4169 033f 51       		.byte	0x51
 4170 0340 04       		.byte	0x4
 4171 0341 46       		.uleb128 .LVL18-.LVL13
 4172 0342 52       		.uleb128 .LFE460-.LVL13
 4173 0343 04       		.uleb128 0x4
 4174 0344 A3       		.byte	0xa3
 4175 0345 01       		.uleb128 0x1
 4176 0346 51       		.byte	0x51
 4177 0347 9F       		.byte	0x9f
 4178 0348 00       		.byte	0
 4179              	.LVUS13:
 4180 0349 01       		.uleb128 .LVU56
 4181 034a 00       		.uleb128 .LVU59
 4182              	.LLST13:
 4183 034b 08       		.byte	0x8
 4184 034c 00000000 		.4byte	.LVL13
 4185 0350 0E       		.uleb128 .LVL14-.LVL13
 4186 0351 02       		.uleb128 0x2
 4187 0352 30       		.byte	0x30
 4188 0353 9F       		.byte	0x9f
 4189 0354 00       		.byte	0
 4190              	.LVUS15:
 4191 0355 00       		.uleb128 .LVU74
 4192 0356 00       		.uleb128 .LVU91
 4193              	.LLST15:
 4194 0357 08       		.byte	0x8
 4195 0358 24000000 		.4byte	.LVL16
 4196 035c 20       		.uleb128 .LVL17-.LVL16
 4197 035d 01       		.uleb128 0x1
 4198 035e 5C       		.byte	0x5c
 4199 035f 00       		.byte	0
 4200              	.LVUS17:
 4201 0360 03       		.uleb128 .LVU68
 4202 0361 05       		.uleb128 .LVU70
 4203              	.LLST17:
 4204 0362 08       		.byte	0x8
 4205 0363 1C000000 		.4byte	.LVL15
 4206 0367 00       		.uleb128 .LVL15-.LVL15
 4207 0368 02       		.uleb128 0x2
 4208 0369 31       		.byte	0x31
 4209 036a 9F       		.byte	0x9f
 4210 036b 00       		.byte	0
 4211              	.LVUS18:
 4212 036c 03       		.uleb128 .LVU68
ARM GAS  C:\Users\DEVELO~1\AppData\Local\Temp\ccpaNuUE.s 			page 75


 4213 036d 05       		.uleb128 .LVU70
 4214              	.LLST18:
 4215 036e 08       		.byte	0x8
 4216 036f 1C000000 		.4byte	.LVL15
 4217 0373 00       		.uleb128 .LVL15-.LVL15
 4218 0374 01       		.uleb128 0x1
 4219 0375 53       		.byte	0x53
 4220 0376 00       		.byte	0
 4221              	.LVUS19:
 4222 0377 00       		.uleb128 0
 4223 0378 00       		.uleb128 .LVU108
 4224 0379 00       		.uleb128 .LVU108
 4225 037a 00       		.uleb128 0
 4226              	.LLST19:
 4227 037b 06       		.byte	0x6
 4228 037c 00000000 		.4byte	.LVL19
 4229 0380 04       		.byte	0x4
 4230 0381 00       		.uleb128 .LVL19-.LVL19
 4231 0382 1C       		.uleb128 .LVL20-.LVL19
 4232 0383 01       		.uleb128 0x1
 4233 0384 50       		.byte	0x50
 4234 0385 04       		.byte	0x4
 4235 0386 1C       		.uleb128 .LVL20-.LVL19
 4236 0387 8001     		.uleb128 .LFE462-.LVL19
 4237 0389 01       		.uleb128 0x1
 4238 038a 5A       		.byte	0x5a
 4239 038b 00       		.byte	0
 4240              	.LVUS20:
 4241 038c 00       		.uleb128 0
 4242 038d 00       		.uleb128 .LVU108
 4243 038e 00       		.uleb128 .LVU108
 4244 038f 00       		.uleb128 0
 4245              	.LLST20:
 4246 0390 06       		.byte	0x6
 4247 0391 00000000 		.4byte	.LVL19
 4248 0395 04       		.byte	0x4
 4249 0396 00       		.uleb128 .LVL19-.LVL19
 4250 0397 1C       		.uleb128 .LVL20-.LVL19
 4251 0398 01       		.uleb128 0x1
 4252 0399 51       		.byte	0x51
 4253 039a 04       		.byte	0x4
 4254 039b 1C       		.uleb128 .LVL20-.LVL19
 4255 039c 8001     		.uleb128 .LFE462-.LVL19
 4256 039e 04       		.uleb128 0x4
 4257 039f A3       		.byte	0xa3
 4258 03a0 01       		.uleb128 0x1
 4259 03a1 51       		.byte	0x51
 4260 03a2 9F       		.byte	0x9f
 4261 03a3 00       		.byte	0
 4262              	.LVUS22:
 4263 03a4 01       		.uleb128 .LVU102
 4264 03a5 00       		.uleb128 .LVU108
 4265 03a6 00       		.uleb128 .LVU108
 4266 03a7 00       		.uleb128 .LVU153
 4267 03a8 00       		.uleb128 .LVU153
 4268 03a9 02       		.uleb128 .LVU158
 4269 03aa 02       		.uleb128 .LVU158
ARM GAS  C:\Users\DEVELO~1\AppData\Local\Temp\ccpaNuUE.s 			page 76


 4270 03ab 00       		.uleb128 0
 4271              	.LLST22:
 4272 03ac 06       		.byte	0x6
 4273 03ad 00000000 		.4byte	.LVL19
 4274 03b1 04       		.byte	0x4
 4275 03b2 00       		.uleb128 .LVL19-.LVL19
 4276 03b3 1C       		.uleb128 .LVL20-.LVL19
 4277 03b4 02       		.uleb128 0x2
 4278 03b5 30       		.byte	0x30
 4279 03b6 9F       		.byte	0x9f
 4280 03b7 04       		.byte	0x4
 4281 03b8 1C       		.uleb128 .LVL20-.LVL19
 4282 03b9 72       		.uleb128 .LVL26-.LVL19
 4283 03ba 01       		.uleb128 0x1
 4284 03bb 56       		.byte	0x56
 4285 03bc 04       		.byte	0x4
 4286 03bd 72       		.uleb128 .LVL26-.LVL19
 4287 03be 7A       		.uleb128 .LVL27-.LVL19
 4288 03bf 03       		.uleb128 0x3
 4289 03c0 76       		.byte	0x76
 4290 03c1 7F       		.sleb128 -1
 4291 03c2 9F       		.byte	0x9f
 4292 03c3 04       		.byte	0x4
 4293 03c4 7A       		.uleb128 .LVL27-.LVL19
 4294 03c5 8001     		.uleb128 .LFE462-.LVL19
 4295 03c7 01       		.uleb128 0x1
 4296 03c8 56       		.byte	0x56
 4297 03c9 00       		.byte	0
 4298              	.LVUS24:
 4299 03ca 00       		.uleb128 .LVU111
 4300 03cb 00       		.uleb128 0
 4301              	.LLST24:
 4302 03cc 08       		.byte	0x8
 4303 03cd 2E000000 		.4byte	.LVL21
 4304 03d1 52       		.uleb128 .LFE462-.LVL21
 4305 03d2 01       		.uleb128 0x1
 4306 03d3 5E       		.byte	0x5e
 4307 03d4 00       		.byte	0
 4308              	.LVUS26:
 4309 03d5 01       		.uleb128 .LVU112
 4310 03d6 00       		.uleb128 .LVU122
 4311              	.LLST26:
 4312 03d7 08       		.byte	0x8
 4313 03d8 2E000000 		.4byte	.LVL21
 4314 03dc 10       		.uleb128 .LVL23-.LVL21
 4315 03dd 01       		.uleb128 0x1
 4316 03de 5E       		.byte	0x5e
 4317 03df 00       		.byte	0
 4318              	.LVUS27:
 4319 03e0 01       		.uleb128 .LVU112
 4320 03e1 00       		.uleb128 .LVU122
 4321              	.LLST27:
 4322 03e2 08       		.byte	0x8
 4323 03e3 2E000000 		.4byte	.LVL21
 4324 03e7 10       		.uleb128 .LVL23-.LVL21
 4325 03e8 05       		.uleb128 0x5
 4326 03e9 40       		.byte	0x40
ARM GAS  C:\Users\DEVELO~1\AppData\Local\Temp\ccpaNuUE.s 			page 77


 4327 03ea 4A       		.byte	0x4a
 4328 03eb 24       		.byte	0x24
 4329 03ec 1F       		.byte	0x1f
 4330 03ed 9F       		.byte	0x9f
 4331 03ee 00       		.byte	0
 4332              	.LVUS28:
 4333 03ef 04       		.uleb128 .LVU115
 4334 03f0 00       		.uleb128 .LVU117
 4335              	.LLST28:
 4336 03f1 08       		.byte	0x8
 4337 03f2 2E000000 		.4byte	.LVL21
 4338 03f6 04       		.uleb128 .LVL22-.LVL21
 4339 03f7 02       		.uleb128 0x2
 4340 03f8 30       		.byte	0x30
 4341 03f9 9F       		.byte	0x9f
 4342 03fa 00       		.byte	0
 4343              	.LVUS30:
 4344 03fb 00       		.uleb128 .LVU131
 4345 03fc 00       		.uleb128 .LVU137
 4346              	.LLST30:
 4347 03fd 08       		.byte	0x8
 4348 03fe 46000000 		.4byte	.LVL24
 4349 0402 0E       		.uleb128 .LVL25-.LVL24
 4350 0403 01       		.uleb128 0x1
 4351 0404 5C       		.byte	0x5c
 4352 0405 00       		.byte	0
 4353              	.LVUS32:
 4354 0406 03       		.uleb128 .LVU125
 4355 0407 05       		.uleb128 .LVU127
 4356              	.LLST32:
 4357 0408 08       		.byte	0x8
 4358 0409 3E000000 		.4byte	.LVL23
 4359 040d 00       		.uleb128 .LVL23-.LVL23
 4360 040e 02       		.uleb128 0x2
 4361 040f 31       		.byte	0x31
 4362 0410 9F       		.byte	0x9f
 4363 0411 00       		.byte	0
 4364              	.LVUS33:
 4365 0412 03       		.uleb128 .LVU125
 4366 0413 05       		.uleb128 .LVU127
 4367              	.LLST33:
 4368 0414 08       		.byte	0x8
 4369 0415 3E000000 		.4byte	.LVL23
 4370 0419 00       		.uleb128 .LVL23-.LVL23
 4371 041a 01       		.uleb128 0x1
 4372 041b 53       		.byte	0x53
 4373 041c 00       		.byte	0
 4374              	.Ldebug_loc3:
 4375              		.section	.debug_aranges,"",%progbits
 4376 0000 34000000 		.4byte	0x34
 4377 0004 0200     		.2byte	0x2
 4378 0006 00000000 		.4byte	.Ldebug_info0
 4379 000a 04       		.byte	0x4
 4380 000b 00       		.byte	0
 4381 000c 0000     		.2byte	0
 4382 000e 0000     		.2byte	0
 4383 0010 00000000 		.4byte	.LFB459
ARM GAS  C:\Users\DEVELO~1\AppData\Local\Temp\ccpaNuUE.s 			page 78


 4384 0014 64000000 		.4byte	.LFE459-.LFB459
 4385 0018 00000000 		.4byte	.LFB460
 4386 001c 52000000 		.4byte	.LFE460-.LFB460
 4387 0020 00000000 		.4byte	.LFB462
 4388 0024 80000000 		.4byte	.LFE462-.LFB462
 4389 0028 00000000 		.4byte	.LFB458
 4390 002c D2010000 		.4byte	.LFE458-.LFB458
 4391 0030 00000000 		.4byte	0
 4392 0034 00000000 		.4byte	0
 4393              		.section	.debug_rnglists,"",%progbits
 4394              	.Ldebug_ranges0:
 4395 0000 2C010000 		.4byte	.Ldebug_ranges3-.Ldebug_ranges2
 4396              	.Ldebug_ranges2:
 4397 0004 0500     		.2byte	0x5
 4398 0006 04       		.byte	0x4
 4399 0007 00       		.byte	0
 4400 0008 00000000 		.4byte	0
 4401              	.LLRL2:
 4402 000c 05       		.byte	0x5
 4403 000d 00000000 		.4byte	.LBB46
 4404 0011 04       		.byte	0x4
 4405 0012 00       		.uleb128 .LBB46-.LBB46
 4406 0013 00       		.uleb128 .LBE46-.LBB46
 4407 0014 04       		.byte	0x4
 4408 0015 02       		.uleb128 .LBB47-.LBB46
 4409 0016 04       		.uleb128 .LBE47-.LBB46
 4410 0017 04       		.byte	0x4
 4411 0018 0C       		.uleb128 .LBB48-.LBB46
 4412 0019 1C       		.uleb128 .LBE48-.LBB46
 4413 001a 00       		.byte	0
 4414              	.LLRL5:
 4415 001b 05       		.byte	0x5
 4416 001c 1E000000 		.4byte	.LBB50
 4417 0020 04       		.byte	0x4
 4418 0021 00       		.uleb128 .LBB50-.LBB50
 4419 0022 04       		.uleb128 .LBE50-.LBB50
 4420 0023 04       		.byte	0x4
 4421 0024 04       		.uleb128 .LBB57-.LBB50
 4422 0025 0A       		.uleb128 .LBE57-.LBB50
 4423 0026 04       		.byte	0x4
 4424 0027 0C       		.uleb128 .LBB58-.LBB50
 4425 0028 2C       		.uleb128 .LBE58-.LBB50
 4426 0029 00       		.byte	0
 4427              	.LLRL8:
 4428 002a 05       		.byte	0x5
 4429 002b 1E000000 		.4byte	.LBB51
 4430 002f 04       		.byte	0x4
 4431 0030 00       		.uleb128 .LBB51-.LBB51
 4432 0031 04       		.uleb128 .LBE51-.LBB51
 4433 0032 04       		.byte	0x4
 4434 0033 0A       		.uleb128 .LBB55-.LBB51
 4435 0034 0A       		.uleb128 .LBE55-.LBB51
 4436 0035 04       		.byte	0x4
 4437 0036 12       		.uleb128 .LBB56-.LBB51
 4438 0037 2C       		.uleb128 .LBE56-.LBB51
 4439 0038 00       		.byte	0
 4440              	.LLRL12:
ARM GAS  C:\Users\DEVELO~1\AppData\Local\Temp\ccpaNuUE.s 			page 79


 4441 0039 05       		.byte	0x5
 4442 003a 00000000 		.4byte	.LBB73
 4443 003e 04       		.byte	0x4
 4444 003f 00       		.uleb128 .LBB73-.LBB73
 4445 0040 00       		.uleb128 .LBE73-.LBB73
 4446 0041 04       		.byte	0x4
 4447 0042 0E       		.uleb128 .LBB76-.LBB73
 4448 0043 1A       		.uleb128 .LBE76-.LBB73
 4449 0044 00       		.byte	0
 4450              	.LLRL14:
 4451 0045 05       		.byte	0x5
 4452 0046 1A000000 		.4byte	.LBB79
 4453 004a 04       		.byte	0x4
 4454 004b 00       		.uleb128 .LBB79-.LBB79
 4455 004c 02       		.uleb128 .LBE79-.LBB79
 4456 004d 04       		.byte	0x4
 4457 004e 02       		.uleb128 .LBB86-.LBB79
 4458 004f 24       		.uleb128 .LBE86-.LBB79
 4459 0050 00       		.byte	0
 4460              	.LLRL16:
 4461 0051 05       		.byte	0x5
 4462 0052 1A000000 		.4byte	.LBB80
 4463 0056 04       		.byte	0x4
 4464 0057 00       		.uleb128 .LBB80-.LBB80
 4465 0058 02       		.uleb128 .LBE80-.LBB80
 4466 0059 04       		.byte	0x4
 4467 005a 02       		.uleb128 .LBB84-.LBB80
 4468 005b 02       		.uleb128 .LBE84-.LBB80
 4469 005c 04       		.byte	0x4
 4470 005d 0E       		.uleb128 .LBB85-.LBB80
 4471 005e 24       		.uleb128 .LBE85-.LBB80
 4472 005f 00       		.byte	0
 4473              	.LLRL21:
 4474 0060 05       		.byte	0x5
 4475 0061 00000000 		.4byte	.LBB101
 4476 0065 04       		.byte	0x4
 4477 0066 00       		.uleb128 .LBB101-.LBB101
 4478 0067 00       		.uleb128 .LBE101-.LBB101
 4479 0068 04       		.byte	0x4
 4480 0069 04       		.uleb128 .LBB119-.LBB101
 4481 006a 0C       		.uleb128 .LBE119-.LBB101
 4482 006b 04       		.byte	0x4
 4483 006c 18       		.uleb128 .LBB120-.LBB101
 4484 006d 7C       		.uleb128 .LBE120-.LBB101
 4485 006e 00       		.byte	0
 4486              	.LLRL23:
 4487 006f 05       		.byte	0x5
 4488 0070 04000000 		.4byte	.LBB102
 4489 0074 04       		.byte	0x4
 4490 0075 00       		.uleb128 .LBB102-.LBB102
 4491 0076 08       		.uleb128 .LBE102-.LBB102
 4492 0077 04       		.byte	0x4
 4493 0078 16       		.uleb128 .LBB115-.LBB102
 4494 0079 2A       		.uleb128 .LBE115-.LBB102
 4495 007a 04       		.byte	0x4
 4496 007b 2E       		.uleb128 .LBB116-.LBB102
 4497 007c 6C       		.uleb128 .LBE116-.LBB102
ARM GAS  C:\Users\DEVELO~1\AppData\Local\Temp\ccpaNuUE.s 			page 80


 4498 007d 04       		.byte	0x4
 4499 007e 6E       		.uleb128 .LBB117-.LBB102
 4500 007f 70       		.uleb128 .LBE117-.LBB102
 4501 0080 04       		.byte	0x4
 4502 0081 74       		.uleb128 .LBB118-.LBB102
 4503 0082 76       		.uleb128 .LBE118-.LBB102
 4504 0083 00       		.byte	0
 4505              	.LLRL25:
 4506 0084 05       		.byte	0x5
 4507 0085 2E000000 		.4byte	.LBB103
 4508 0089 04       		.byte	0x4
 4509 008a 00       		.uleb128 .LBB103-.LBB103
 4510 008b 00       		.uleb128 .LBE103-.LBB103
 4511 008c 04       		.byte	0x4
 4512 008d 04       		.uleb128 .LBB106-.LBB103
 4513 008e 10       		.uleb128 .LBE106-.LBB103
 4514 008f 00       		.byte	0
 4515              	.LLRL29:
 4516 0090 05       		.byte	0x5
 4517 0091 3E000000 		.4byte	.LBB109
 4518 0095 04       		.byte	0x4
 4519 0096 00       		.uleb128 .LBB109-.LBB109
 4520 0097 00       		.uleb128 .LBE109-.LBB109
 4521 0098 04       		.byte	0x4
 4522 0099 00       		.uleb128 .LBB114-.LBB109
 4523 009a 28       		.uleb128 .LBE114-.LBB109
 4524 009b 00       		.byte	0
 4525              	.LLRL31:
 4526 009c 05       		.byte	0x5
 4527 009d 3E000000 		.4byte	.LBB110
 4528 00a1 04       		.byte	0x4
 4529 00a2 00       		.uleb128 .LBB110-.LBB110
 4530 00a3 00       		.uleb128 .LBE110-.LBB110
 4531 00a4 04       		.byte	0x4
 4532 00a5 0C       		.uleb128 .LBB113-.LBB110
 4533 00a6 28       		.uleb128 .LBE113-.LBB110
 4534 00a7 00       		.byte	0
 4535              	.LLRL37:
 4536 00a8 05       		.byte	0x5
 4537 00a9 14000000 		.4byte	.LBB160
 4538 00ad 04       		.byte	0x4
 4539 00ae 00       		.uleb128 .LBB160-.LBB160
 4540 00af 16       		.uleb128 .LBE160-.LBB160
 4541 00b0 04       		.byte	0x4
 4542 00b1 36       		.uleb128 .LBB166-.LBB160
 4543 00b2 3A       		.uleb128 .LBE166-.LBB160
 4544 00b3 00       		.byte	0
 4545              	.LLRL39:
 4546 00b4 05       		.byte	0x5
 4547 00b5 7A000000 		.4byte	.LBB167
 4548 00b9 04       		.byte	0x4
 4549 00ba 00       		.uleb128 .LBB167-.LBB167
 4550 00bb 04       		.uleb128 .LBE167-.LBB167
 4551 00bc 04       		.byte	0x4
 4552 00bd 08       		.uleb128 .LBB185-.LBB167
 4553 00be 7A       		.uleb128 .LBE185-.LBB167
 4554 00bf 04       		.byte	0x4
ARM GAS  C:\Users\DEVELO~1\AppData\Local\Temp\ccpaNuUE.s 			page 81


 4555 00c0 7C       		.uleb128 .LBB186-.LBB167
 4556 00c1 7E       		.uleb128 .LBE186-.LBB167
 4557 00c2 04       		.byte	0x4
 4558 00c3 8001     		.uleb128 .LBB187-.LBB167
 4559 00c5 8801     		.uleb128 .LBE187-.LBB167
 4560 00c7 00       		.byte	0
 4561              	.LLRL44:
 4562 00c8 05       		.byte	0x5
 4563 00c9 7A000000 		.4byte	.LBB169
 4564 00cd 04       		.byte	0x4
 4565 00ce 00       		.uleb128 .LBB169-.LBB169
 4566 00cf 04       		.uleb128 .LBE169-.LBB169
 4567 00d0 04       		.byte	0x4
 4568 00d1 0E       		.uleb128 .LBB171-.LBB169
 4569 00d2 30       		.uleb128 .LBE171-.LBB169
 4570 00d3 00       		.byte	0
 4571              	.LLRL47:
 4572 00d4 05       		.byte	0x5
 4573 00d5 AE000000 		.4byte	.LBB173
 4574 00d9 04       		.byte	0x4
 4575 00da 00       		.uleb128 .LBB173-.LBB173
 4576 00db 04       		.uleb128 .LBE173-.LBB173
 4577 00dc 04       		.byte	0x4
 4578 00dd 04       		.uleb128 .LBB180-.LBB173
 4579 00de 22       		.uleb128 .LBE180-.LBB173
 4580 00df 04       		.byte	0x4
 4581 00e0 22       		.uleb128 .LBB181-.LBB173
 4582 00e1 3E       		.uleb128 .LBE181-.LBB173
 4583 00e2 00       		.byte	0
 4584              	.LLRL51:
 4585 00e3 05       		.byte	0x5
 4586 00e4 AE000000 		.4byte	.LBB174
 4587 00e8 04       		.byte	0x4
 4588 00e9 00       		.uleb128 .LBB174-.LBB174
 4589 00ea 04       		.uleb128 .LBE174-.LBB174
 4590 00eb 04       		.byte	0x4
 4591 00ec 22       		.uleb128 .LBB178-.LBB174
 4592 00ed 22       		.uleb128 .LBE178-.LBB174
 4593 00ee 04       		.byte	0x4
 4594 00ef 26       		.uleb128 .LBB179-.LBB174
 4595 00f0 3E       		.uleb128 .LBE179-.LBB174
 4596 00f1 00       		.byte	0
 4597              	.LLRL54:
 4598 00f2 05       		.byte	0x5
 4599 00f3 04010000 		.4byte	.LBB188
 4600 00f7 04       		.byte	0x4
 4601 00f8 00       		.uleb128 .LBB188-.LBB188
 4602 00f9 12       		.uleb128 .LBE188-.LBB188
 4603 00fa 04       		.byte	0x4
 4604 00fb 14       		.uleb128 .LBB194-.LBB188
 4605 00fc 16       		.uleb128 .LBE194-.LBB188
 4606 00fd 00       		.byte	0
 4607              	.LLRL59:
 4608 00fe 05       		.byte	0x5
 4609 00ff 1E010000 		.4byte	.LBB196
 4610 0103 04       		.byte	0x4
 4611 0104 00       		.uleb128 .LBB196-.LBB196
ARM GAS  C:\Users\DEVELO~1\AppData\Local\Temp\ccpaNuUE.s 			page 82


 4612 0105 10       		.uleb128 .LBE196-.LBB196
 4613 0106 04       		.byte	0x4
 4614 0107 16       		.uleb128 .LBB208-.LBB196
 4615 0108 1E       		.uleb128 .LBE208-.LBB196
 4616 0109 04       		.byte	0x4
 4617 010a 22       		.uleb128 .LBB209-.LBB196
 4618 010b 76       		.uleb128 .LBE209-.LBB196
 4619 010c 04       		.byte	0x4
 4620 010d 7A       		.uleb128 .LBB210-.LBB196
 4621 010e 7E       		.uleb128 .LBE210-.LBB196
 4622 010f 04       		.byte	0x4
 4623 0110 9401     		.uleb128 .LBB211-.LBB196
 4624 0112 B401     		.uleb128 .LBE211-.LBB196
 4625 0114 00       		.byte	0
 4626              	.LLRL77:
 4627 0115 07       		.byte	0x7
 4628 0116 00000000 		.4byte	.LFB459
 4629 011a 64       		.uleb128 .LFE459-.LFB459
 4630 011b 07       		.byte	0x7
 4631 011c 00000000 		.4byte	.LFB460
 4632 0120 52       		.uleb128 .LFE460-.LFB460
 4633 0121 07       		.byte	0x7
 4634 0122 00000000 		.4byte	.LFB462
 4635 0126 8001     		.uleb128 .LFE462-.LFB462
 4636 0128 07       		.byte	0x7
 4637 0129 00000000 		.4byte	.LFB458
 4638 012d D203     		.uleb128 .LFE458-.LFB458
 4639 012f 00       		.byte	0
 4640              	.Ldebug_ranges3:
 4641              		.section	.debug_line,"",%progbits
 4642              	.Ldebug_line0:
 4643 0000 D4070000 		.section	.debug_str,"MS",%progbits,1
 4643      0300C501 
 4643      00000201 
 4643      FB0E0D00 
 4643      01010101 
 4644              	.LASF77:
 4645 0000 636C6173 		.ascii	"classification\000"
 4645      73696669 
 4645      63617469 
 4645      6F6E00
 4646              	.LASF66:
 4647 000f 6C667372 		.ascii	"lfsr\000"
 4647      00
 4648              	.LASF55:
 4649 0014 776F7264 		.ascii	"words\000"
 4649      7300
 4650              	.LASF65:
 4651 001a 62697374 		.ascii	"bist_run_lfsr\000"
 4651      5F72756E 
 4651      5F6C6673 
 4651      7200
 4652              	.LASF45:
 4653 0028 72657375 		.ascii	"result\000"
 4653      6C7400
 4654              	.LASF69:
 4655 002f 70617474 		.ascii	"pattern\000"
ARM GAS  C:\Users\DEVELO~1\AppData\Local\Temp\ccpaNuUE.s 			page 83


 4655      65726E00 
 4656              	.LASF44:
 4657 0037 776F7264 		.ascii	"words_target\000"
 4657      735F7461 
 4657      72676574 
 4657      00
 4658              	.LASF40:
 4659 0044 74696D65 		.ascii	"timestamp_end\000"
 4659      7374616D 
 4659      705F656E 
 4659      6400
 4660              	.LASF78:
 4661 0052 62697374 		.ascii	"bist_init_result\000"
 4661      5F696E69 
 4661      745F7265 
 4661      73756C74 
 4661      00
 4662              	.LASF56:
 4663 0063 74617267 		.ascii	"target\000"
 4663      657400
 4664              	.LASF5:
 4665 006a 73686F72 		.ascii	"short int\000"
 4665      7420696E 
 4665      7400
 4666              	.LASF36:
 4667 0074 66697273 		.ascii	"first_error_address\000"
 4667      745F6572 
 4667      726F725F 
 4667      61646472 
 4667      65737300 
 4668              	.LASF79:
 4669 0088 63685654 		.ascii	"chVTGetSystemTimeX\000"
 4669      47657453 
 4669      79737465 
 4669      6D54696D 
 4669      655800
 4670              	.LASF81:
 4671 009b 474E5520 		.ascii	"GNU C17 11.3.1 20220712 -mcpu=cortex-m7 -mthumb -mf"
 4671      43313720 
 4671      31312E33 
 4671      2E312032 
 4671      30323230 
 4672 00ce 6C6F6174 		.ascii	"loat-abi=hard -mfpu=fpv5-d16 -march=armv7e-m+fp.dp "
 4672      2D616269 
 4672      3D686172 
 4672      64202D6D 
 4672      6670753D 
 4673 0101 2D676764 		.ascii	"-ggdb -O2 -ffunction-sections -fdata-sections -fno-"
 4673      62202D4F 
 4673      32202D66 
 4673      66756E63 
 4673      74696F6E 
 4674 0134 636F6D6D 		.ascii	"common\000"
 4674      6F6E00
 4675              	.LASF50:
 4676 013b 73747265 		.ascii	"stress_words\000"
 4676      73735F77 
ARM GAS  C:\Users\DEVELO~1\AppData\Local\Temp\ccpaNuUE.s 			page 84


 4676      6F726473 
 4676      00
 4677              	.LASF84:
 4678 0148 73744765 		.ascii	"stGetCounter\000"
 4678      74436F75 
 4678      6E746572 
 4678      00
 4679              	.LASF22:
 4680 0155 73647261 		.ascii	"sdram_bist_status_t\000"
 4680      6D5F6269 
 4680      73745F73 
 4680      74617475 
 4680      735F7400 
 4681              	.LASF42:
 4682 0169 6D6F6465 		.ascii	"mode\000"
 4682      00
 4683              	.LASF8:
 4684 016e 5F5F7569 		.ascii	"__uint16_t\000"
 4684      6E743136 
 4684      5F7400
 4685              	.LASF61:
 4686 0179 61646472 		.ascii	"addr_a\000"
 4686      5F6100
 4687              	.LASF62:
 4688 0180 61646472 		.ascii	"addr_b\000"
 4688      5F6200
 4689              	.LASF74:
 4690 0187 62697374 		.ascii	"bist_record_error\000"
 4690      5F726563 
 4690      6F72645F 
 4690      6572726F 
 4690      7200
 4691              	.LASF37:
 4692 0199 66697273 		.ascii	"first_error\000"
 4692      745F6572 
 4692      726F7200 
 4693              	.LASF34:
 4694 01a5 776F7264 		.ascii	"words_covered_unique\000"
 4694      735F636F 
 4694      76657265 
 4694      645F756E 
 4694      69717565 
 4695              	.LASF29:
 4696 01ba 53445241 		.ascii	"SDRAM_BIST_MODE_QUICK\000"
 4696      4D5F4249 
 4696      53545F4D 
 4696      4F44455F 
 4696      51554943 
 4697              	.LASF15:
 4698 01d0 75696E74 		.ascii	"uintptr_t\000"
 4698      7074725F 
 4698      7400
 4699              	.LASF52:
 4700 01da 6D69645F 		.ascii	"mid_offset\000"
 4700      6F666673 
 4700      657400
 4701              	.LASF24:
ARM GAS  C:\Users\DEVELO~1\AppData\Local\Temp\ccpaNuUE.s 			page 85


 4702 01e5 53445241 		.ascii	"SDRAM_BIST_ERR_DATA_MISMATCH\000"
 4702      4D5F4249 
 4702      53545F45 
 4702      52525F44 
 4702      4154415F 
 4703              	.LASF85:
 4704 0202 63685468 		.ascii	"chThdYield\000"
 4704      64596965 
 4704      6C6400
 4705              	.LASF1:
 4706 020d 6C6F6E67 		.ascii	"long long int\000"
 4706      206C6F6E 
 4706      6720696E 
 4706      7400
 4707              	.LASF48:
 4708 021b 636F7665 		.ascii	"coverage_words\000"
 4708      72616765 
 4708      5F776F72 
 4708      647300
 4709              	.LASF86:
 4710 022a 73647261 		.ascii	"sdram_bist_start\000"
 4710      6D5F6269 
 4710      73745F73 
 4710      74617274 
 4710      00
 4711              	.LASF7:
 4712 023b 6C6F6E67 		.ascii	"long int\000"
 4712      20696E74 
 4712      00
 4713              	.LASF75:
 4714 0244 61646472 		.ascii	"addr\000"
 4714      00
 4715              	.LASF72:
 4716 0249 62697374 		.ascii	"bist_write_constant\000"
 4716      5F777269 
 4716      74655F63 
 4716      6F6E7374 
 4716      616E7400 
 4717              	.LASF33:
 4718 025d 776F7264 		.ascii	"words_tested\000"
 4718      735F7465 
 4718      73746564 
 4718      00
 4719              	.LASF60:
 4720 026a 62697374 		.ascii	"bist_run_alias_probe\000"
 4720      5F72756E 
 4720      5F616C69 
 4720      61735F70 
 4720      726F6265 
 4721              	.LASF2:
 4722 027f 6C6F6E67 		.ascii	"long double\000"
 4722      20646F75 
 4722      626C6500 
 4723              	.LASF4:
 4724 028b 756E7369 		.ascii	"unsigned char\000"
 4724      676E6564 
 4724      20636861 
ARM GAS  C:\Users\DEVELO~1\AppData\Local\Temp\ccpaNuUE.s 			page 86


 4724      7200
 4725              	.LASF28:
 4726 0299 73647261 		.ascii	"sdram_bist_error_t\000"
 4726      6D5F6269 
 4726      73745F65 
 4726      72726F72 
 4726      5F7400
 4727              	.LASF19:
 4728 02ac 53445241 		.ascii	"SDRAM_BIST_PASS\000"
 4728      4D5F4249 
 4728      53545F50 
 4728      41535300 
 4729              	.LASF3:
 4730 02bc 7369676E 		.ascii	"signed char\000"
 4730      65642063 
 4730      68617200 
 4731              	.LASF59:
 4732 02c8 62697374 		.ascii	"bist_run_stress_sequential_offset\000"
 4732      5F72756E 
 4732      5F737472 
 4732      6573735F 
 4732      73657175 
 4733              	.LASF11:
 4734 02ea 6C6F6E67 		.ascii	"long long unsigned int\000"
 4734      206C6F6E 
 4734      6720756E 
 4734      7369676E 
 4734      65642069 
 4735              	.LASF14:
 4736 0301 75696E74 		.ascii	"uint32_t\000"
 4736      33325F74 
 4736      00
 4737              	.LASF0:
 4738 030a 756E7369 		.ascii	"unsigned int\000"
 4738      676E6564 
 4738      20696E74 
 4738      00
 4739              	.LASF13:
 4740 0317 75696E74 		.ascii	"uint16_t\000"
 4740      31365F74 
 4740      00
 4741              	.LASF53:
 4742 0320 656E645F 		.ascii	"end_offset\000"
 4742      6F666673 
 4742      657400
 4743              	.LASF47:
 4744 032b 636F7665 		.ascii	"coverage_bytes\000"
 4744      72616765 
 4744      5F627974 
 4744      657300
 4745              	.LASF38:
 4746 033a 66697273 		.ascii	"first_error_pattern\000"
 4746      745F6572 
 4746      726F725F 
 4746      70617474 
 4746      65726E00 
 4747              	.LASF63:
ARM GAS  C:\Users\DEVELO~1\AppData\Local\Temp\ccpaNuUE.s 			page 87


 4748 034e 6F627365 		.ascii	"observed_a\000"
 4748      72766564 
 4748      5F6100
 4749              	.LASF64:
 4750 0359 6F627365 		.ascii	"observed_b\000"
 4750      72766564 
 4750      5F6200
 4751              	.LASF32:
 4752 0364 73746174 		.ascii	"status\000"
 4752      757300
 4753              	.LASF17:
 4754 036b 73797374 		.ascii	"systime_t\000"
 4754      696D655F 
 4754      7400
 4755              	.LASF16:
 4756 0375 63686172 		.ascii	"char\000"
 4756      00
 4757              	.LASF68:
 4758 037a 77616C6B 		.ascii	"walking_one\000"
 4758      696E675F 
 4758      6F6E6500 
 4759              	.LASF80:
 4760 0386 706F7274 		.ascii	"port_timer_get_time\000"
 4760      5F74696D 
 4760      65725F67 
 4760      65745F74 
 4760      696D6500 
 4761              	.LASF26:
 4762 039a 53445241 		.ascii	"SDRAM_BIST_ERR_STUCK_AT\000"
 4762      4D5F4249 
 4762      53545F45 
 4762      52525F53 
 4762      5455434B 
 4763              	.LASF20:
 4764 03b2 53445241 		.ascii	"SDRAM_BIST_FAIL\000"
 4764      4D5F4249 
 4764      53545F46 
 4764      41494C00 
 4765              	.LASF18:
 4766 03c2 5F426F6F 		.ascii	"_Bool\000"
 4766      6C00
 4767              	.LASF58:
 4768 03c8 72656164 		.ascii	"read_back\000"
 4768      5F626163 
 4768      6B00
 4769              	.LASF39:
 4770 03d2 74696D65 		.ascii	"timestamp_start\000"
 4770      7374616D 
 4770      705F7374 
 4770      61727400 
 4771              	.LASF23:
 4772 03e2 53445241 		.ascii	"SDRAM_BIST_ERR_NONE\000"
 4772      4D5F4249 
 4772      53545F45 
 4772      52525F4E 
 4772      4F4E4500 
 4773              	.LASF25:
ARM GAS  C:\Users\DEVELO~1\AppData\Local\Temp\ccpaNuUE.s 			page 88


 4774 03f6 53445241 		.ascii	"SDRAM_BIST_ERR_ADDRESS_ALIAS\000"
 4774      4D5F4249 
 4774      53545F45 
 4774      52525F41 
 4774      44445245 
 4775              	.LASF82:
 4776 0413 64726976 		.ascii	"drivers/sdram/sdram_bist.c\000"
 4776      6572732F 
 4776      73647261 
 4776      6D2F7364 
 4776      72616D5F 
 4777              	.LASF57:
 4778 042e 65787065 		.ascii	"expected\000"
 4778      63746564 
 4778      00
 4779              	.LASF27:
 4780 0437 53445241 		.ascii	"SDRAM_BIST_ERR_TIMEOUT\000"
 4780      4D5F4249 
 4780      53545F45 
 4780      52525F54 
 4780      494D454F 
 4781              	.LASF10:
 4782 044e 6C6F6E67 		.ascii	"long unsigned int\000"
 4782      20756E73 
 4782      69676E65 
 4782      6420696E 
 4782      7400
 4783              	.LASF12:
 4784 0460 5F5F7569 		.ascii	"__uintptr_t\000"
 4784      6E747074 
 4784      725F7400 
 4785              	.LASF54:
 4786 046c 6F666673 		.ascii	"offset_words\000"
 4786      65745F77 
 4786      6F726473 
 4786      00
 4787              	.LASF30:
 4788 0479 53445241 		.ascii	"SDRAM_BIST_MODE_FULL\000"
 4788      4D5F4249 
 4788      53545F4D 
 4788      4F44455F 
 4788      46554C4C 
 4789              	.LASF9:
 4790 048e 5F5F7569 		.ascii	"__uint32_t\000"
 4790      6E743332 
 4790      5F7400
 4791              	.LASF83:
 4792 0499 433A5C43 		.ascii	"C:\\ChibiStudio\\ChibiOS-master\\demos\\STM32\\CUST"
 4792      68696269 
 4792      53747564 
 4792      696F5C43 
 4792      68696269 
 4793 04c7 4F4D5F48 		.ascii	"OM_H743IIT6_maj\000"
 4793      37343349 
 4793      4954365F 
 4793      6D616A00 
 4794              	.LASF6:
ARM GAS  C:\Users\DEVELO~1\AppData\Local\Temp\ccpaNuUE.s 			page 89


 4795 04d7 73686F72 		.ascii	"short unsigned int\000"
 4795      7420756E 
 4795      7369676E 
 4795      65642069 
 4795      6E7400
 4796              	.LASF21:
 4797 04ea 53445241 		.ascii	"SDRAM_BIST_ABORT\000"
 4797      4D5F4249 
 4797      53545F41 
 4797      424F5254 
 4797      00
 4798              	.LASF67:
 4799 04fb 62697374 		.ascii	"bist_run_walking\000"
 4799      5F72756E 
 4799      5F77616C 
 4799      6B696E67 
 4799      00
 4800              	.LASF51:
 4801 050c 6D61785F 		.ascii	"max_start\000"
 4801      73746172 
 4801      7400
 4802              	.LASF76:
 4803 0516 6F627365 		.ascii	"observed\000"
 4803      72766564 
 4803      00
 4804              	.LASF73:
 4805 051f 62697374 		.ascii	"bist_finalize_result\000"
 4805      5F66696E 
 4805      616C697A 
 4805      655F7265 
 4805      73756C74 
 4806              	.LASF35:
 4807 0534 6572726F 		.ascii	"error_count\000"
 4807      725F636F 
 4807      756E7400 
 4808              	.LASF43:
 4809 0540 70617474 		.ascii	"patterns_executed\000"
 4809      65726E73 
 4809      5F657865 
 4809      63757465 
 4809      6400
 4810              	.LASF46:
 4811 0552 73647261 		.ascii	"sdram_bist_context_t\000"
 4811      6D5F6269 
 4811      73745F63 
 4811      6F6E7465 
 4811      78745F74 
 4812              	.LASF49:
 4813 0567 62617365 		.ascii	"base\000"
 4813      00
 4814              	.LASF31:
 4815 056c 73647261 		.ascii	"sdram_bist_mode_t\000"
 4815      6D5F6269 
 4815      73745F6D 
 4815      6F64655F 
 4815      7400
 4816              	.LASF71:
ARM GAS  C:\Users\DEVELO~1\AppData\Local\Temp\ccpaNuUE.s 			page 90


 4817 057e 62697374 		.ascii	"bist_verify_constant\000"
 4817      5F766572 
 4817      6966795F 
 4817      636F6E73 
 4817      74616E74 
 4818              	.LASF41:
 4819 0593 73647261 		.ascii	"sdram_bist_result_t\000"
 4819      6D5F6269 
 4819      73745F72 
 4819      6573756C 
 4819      745F7400 
 4820              	.LASF70:
 4821 05a7 62697374 		.ascii	"bist_run_constant_pattern\000"
 4821      5F72756E 
 4821      5F636F6E 
 4821      7374616E 
 4821      745F7061 
 4822              		.ident	"GCC: (Arm GNU Toolchain 11.3.Rel1) 11.3.1 20220712"
ARM GAS  C:\Users\DEVELO~1\AppData\Local\Temp\ccpaNuUE.s 			page 91


DEFINED SYMBOLS
                            *ABS*:00000000 sdram_bist.c
C:\Users\DEVELO~1\AppData\Local\Temp\ccpaNuUE.s:19     .text.bist_run_stress_sequential_offset.constprop.0:00000000 $t
C:\Users\DEVELO~1\AppData\Local\Temp\ccpaNuUE.s:25     .text.bist_run_stress_sequential_offset.constprop.0:00000000 bist_run_stress_sequential_offset.constprop.0
C:\Users\DEVELO~1\AppData\Local\Temp\ccpaNuUE.s:173    .text.bist_run_constant_pattern.constprop.0:00000000 $t
C:\Users\DEVELO~1\AppData\Local\Temp\ccpaNuUE.s:179    .text.bist_run_constant_pattern.constprop.0:00000000 bist_run_constant_pattern.constprop.0
C:\Users\DEVELO~1\AppData\Local\Temp\ccpaNuUE.s:309    .text.bist_run_walking.constprop.0:00000000 $t
C:\Users\DEVELO~1\AppData\Local\Temp\ccpaNuUE.s:315    .text.bist_run_walking.constprop.0:00000000 bist_run_walking.constprop.0
C:\Users\DEVELO~1\AppData\Local\Temp\ccpaNuUE.s:494    .text.sdram_bist_start:00000000 $t
C:\Users\DEVELO~1\AppData\Local\Temp\ccpaNuUE.s:501    .text.sdram_bist_start:00000000 sdram_bist_start

UNDEFINED SYMBOLS
stGetCounter
chThdYield
