ARM GAS  C:\Users\DEVELO~1\AppData\Local\Temp\ccpaNuUE.s 			page 1


   1              		.cpu cortex-m7
   2              		.arch armv7e-m
   3              		.fpu fpv5-d16
   4              		.eabi_attribute 28, 1
   5              		.eabi_attribute 20, 1
   6              		.eabi_attribute 21, 1
   7              		.eabi_attribute 23, 3
   8              		.eabi_attribute 24, 1
   9              		.eabi_attribute 25, 1
  10              		.eabi_attribute 26, 1
  11              		.eabi_attribute 30, 2
  12              		.eabi_attribute 34, 1
  13              		.eabi_attribute 18, 4
  14              		.file	"sdram_bist.c"
  15              		.text
  16              	.Ltext0:
  17              		.cfi_sections	.debug_frame
  18              		.section	.text.bist_run_stress_sequential_offset.constprop.0,"ax",%progbits
  19              		.align	1
  20              		.p2align 2,,3
  21              		.syntax unified
  22              		.thumb
  23              		.thumb_func
  24              		.type	bist_run_stress_sequential_offset.constprop.0, %function
  25              	bist_run_stress_sequential_offset.constprop.0:
  26              	.LVL0:
  27              	.LFB459:
  28              		.file 1 "drivers/sdram/sdram_bist.c"
  29              		.loc 1 142 13 view -0
  30              		.cfi_startproc
  31              		@ args = 0, pretend = 0, frame = 0
  32              		@ frame_needed = 0, uses_anonymous_args = 0
  33              		.loc 1 146 3 view .LVU1
  34              		.loc 1 147 3 view .LVU2
  35              	.LBB46:
  36              		.loc 1 147 8 view .LVU3
  37              		.loc 1 147 26 view .LVU4
  38              	.LBE46:
  39              		.loc 1 146 42 is_stmt 0 view .LVU5
  40 0000 4000     		lsls	r0, r0, #1
  41              	.LVL1:
  42              	.LBB47:
  43              		.loc 1 147 17 view .LVU6
  44 0002 0023     		movs	r3, #0
  45              	.LBE47:
  46              		.loc 1 146 28 view .LVU7
  47 0004 00F14040 		add	r0, r0, #-1073741824
  48              	.LVL2:
  49              		.loc 1 146 28 view .LVU8
  50 0008 0246     		mov	r2, r0
  51              		.loc 1 142 13 view .LVU9
  52 000a 10B5     		push	{r4, lr}
  53              		.cfi_def_cfa_offset 8
  54              		.cfi_offset 4, -8
  55              		.cfi_offset 14, -4
  56              	.LVL3:
  57              	.L2:
ARM GAS  C:\Users\DEVELO~1\AppData\Local\Temp\ccpaNuUE.s 			page 2


  58              	.LBB48:
  59              		.loc 1 148 5 is_stmt 1 view .LVU10
  60 000c 1FFA83FC 		uxth	ip, r3
  61              		.loc 1 147 35 is_stmt 0 view .LVU11
  62 0010 0133     		adds	r3, r3, #1
  63              	.LVL4:
  64              		.loc 1 147 26 view .LVU12
  65 0012 B3F5003F 		cmp	r3, #131072
  66              		.loc 1 148 15 view .LVU13
  67 0016 22F802CB 		strh	ip, [r2], #2	@ movhi
  68              		.loc 1 147 35 is_stmt 1 view .LVU14
  69              	.LVL5:
  70              		.loc 1 147 26 view .LVU15
  71 001a F7D1     		bne	.L2
  72              	.LBE48:
  73              	.LBB49:
  74              		.loc 1 151 17 is_stmt 0 view .LVU16
  75 001c 0023     		movs	r3, #0
  76              	.LVL6:
  77              	.LBB50:
  78              	.LBB51:
  79              	.LBB52:
  80              		.loc 1 34 22 view .LVU17
  81 001e 4FF0010E 		mov	lr, #1
  82              	.LVL7:
  83              	.L6:
  84              		.loc 1 34 22 view .LVU18
  85              	.LBE52:
  86              	.LBE51:
  87              		.loc 1 152 5 is_stmt 1 view .LVU19
  88              		.loc 1 155 7 view .LVU20
  89              	.LBE50:
  90              		.loc 1 151 35 view .LVU21
  91              	.LBB57:
  92              		.loc 1 153 20 is_stmt 0 view .LVU22
  93 0022 0288     		ldrh	r2, [r0]
  94 0024 1FFA83FC 		uxth	ip, r3
  95              	.LVL8:
  96              		.loc 1 153 5 is_stmt 1 view .LVU23
  97              	.LBB55:
  98              	.LBI51:
  99              		.loc 1 25 13 view .LVU24
 100              	.LBB53:
 101              		.loc 1 30 3 view .LVU25
 102              	.LBE53:
 103              	.LBE55:
 104              	.LBE57:
 105              		.loc 1 151 35 is_stmt 0 view .LVU26
 106 0028 0133     		adds	r3, r3, #1
 107              	.LVL9:
 108              		.loc 1 151 26 is_stmt 1 view .LVU27
 109              	.LBB58:
 110              		.loc 1 153 20 is_stmt 0 view .LVU28
 111 002a 92B2     		uxth	r2, r2
 112              	.LVL10:
 113              		.loc 1 154 5 is_stmt 1 view .LVU29
 114              		.loc 1 154 8 is_stmt 0 view .LVU30
ARM GAS  C:\Users\DEVELO~1\AppData\Local\Temp\ccpaNuUE.s 			page 3


 115 002c 6245     		cmp	r2, ip
 116 002e 0CD0     		beq	.L4
 117              	.LBB56:
 118              	.LBB54:
 119              		.loc 1 32 5 is_stmt 1 view .LVU31
 120              		.loc 1 30 19 is_stmt 0 view .LVU32
 121 0030 8A69     		ldr	r2, [r1, #24]
 122              	.LVL11:
 123              		.loc 1 31 6 view .LVU33
 124 0032 91F82040 		ldrb	r4, [r1, #32]	@ zero_extendqisi2
 125              		.loc 1 30 19 view .LVU34
 126 0036 0132     		adds	r2, r2, #1
 127 0038 8A61     		str	r2, [r1, #24]
 128              		.loc 1 31 3 is_stmt 1 view .LVU35
 129              		.loc 1 31 6 is_stmt 0 view .LVU36
 130 003a 34B9     		cbnz	r4, .L4
 131              		.loc 1 32 30 view .LVU37
 132 003c C861     		str	r0, [r1, #28]
 133              		.loc 1 33 5 is_stmt 1 view .LVU38
 134              		.loc 1 33 30 is_stmt 0 view .LVU39
 135 003e A1F822C0 		strh	ip, [r1, #34]	@ movhi
 136              		.loc 1 34 5 is_stmt 1 view .LVU40
 137              		.loc 1 34 22 is_stmt 0 view .LVU41
 138 0042 81F820E0 		strb	lr, [r1, #32]
 139              		.loc 1 35 5 is_stmt 1 view .LVU42
 140              		.loc 1 35 17 is_stmt 0 view .LVU43
 141 0046 81F80CE0 		strb	lr, [r1, #12]
 142              	.L4:
 143              		.loc 1 35 17 view .LVU44
 144              	.LBE54:
 145              	.LBE56:
 146              	.LBE58:
 147              		.loc 1 151 26 view .LVU45
 148 004a B3F5003F 		cmp	r3, #131072
 149 004e 00F10200 		add	r0, r0, #2
 150 0052 E6D1     		bne	.L6
 151              	.LBE49:
 152              		.loc 1 159 3 is_stmt 1 view .LVU46
 153              		.loc 1 159 25 is_stmt 0 view .LVU47
 154 0054 4A68     		ldr	r2, [r1, #4]
 155              		.loc 1 160 28 view .LVU48
 156 0056 0B69     		ldr	r3, [r1, #16]
 157              	.LVL12:
 158              		.loc 1 159 25 view .LVU49
 159 0058 0132     		adds	r2, r2, #1
 160              		.loc 1 160 28 view .LVU50
 161 005a 03F50033 		add	r3, r3, #131072
 162              		.loc 1 159 25 view .LVU51
 163 005e 4A60     		str	r2, [r1, #4]
 164              		.loc 1 160 3 is_stmt 1 view .LVU52
 165              		.loc 1 160 28 is_stmt 0 view .LVU53
 166 0060 0B61     		str	r3, [r1, #16]
 167              		.loc 1 161 1 view .LVU54
 168 0062 10BD     		pop	{r4, pc}
 169              		.cfi_endproc
 170              	.LFE459:
 171              		.size	bist_run_stress_sequential_offset.constprop.0, .-bist_run_stress_sequential_offset.constprop
ARM GAS  C:\Users\DEVELO~1\AppData\Local\Temp\ccpaNuUE.s 			page 4


 172              		.section	.text.bist_run_constant_pattern.constprop.0,"ax",%progbits
 173              		.align	1
 174              		.p2align 2,,3
 175              		.syntax unified
 176              		.thumb
 177              		.thumb_func
 178              		.type	bist_run_constant_pattern.constprop.0, %function
 179              	bist_run_constant_pattern.constprop.0:
 180              	.LVL13:
 181              	.LFB460:
 182              		.loc 1 61 13 is_stmt 1 view -0
 183              		.cfi_startproc
 184              		@ args = 0, pretend = 0, frame = 0
 185              		@ frame_needed = 0, uses_anonymous_args = 0
 186              	.LBB73:
 187              	.LBB74:
 188              		.loc 1 47 26 view .LVU56
 189              	.LBE74:
 190              	.LBE73:
 191              		.loc 1 61 13 is_stmt 0 view .LVU57
 192 0000 70B5     		push	{r4, r5, r6, lr}
 193              		.cfi_def_cfa_offset 16
 194              		.cfi_offset 4, -16
 195              		.cfi_offset 5, -12
 196              		.cfi_offset 6, -8
 197              		.cfi_offset 14, -4
 198 0002 00F1C04E 		add	lr, r0, #1610612736
 199              		.loc 1 61 13 view .LVU58
 200 0006 4FF04043 		mov	r3, #-1073741824
 201 000a 4FEA4E0E 		lsl	lr, lr, #1
 202              	.LVL14:
 203              	.L12:
 204              	.LBB76:
 205              	.LBB75:
 206              		.loc 1 48 5 is_stmt 1 view .LVU59
 207              		.loc 1 48 13 is_stmt 0 view .LVU60
 208 000e 23F8021B 		strh	r1, [r3], #2	@ movhi
 209              		.loc 1 47 35 is_stmt 1 view .LVU61
 210              		.loc 1 47 26 view .LVU62
 211 0012 7345     		cmp	r3, lr
 212 0014 FBD1     		bne	.L12
 213              		.loc 1 47 26 is_stmt 0 view .LVU63
 214 0016 4FF04043 		mov	r3, #-1073741824
 215              	.LBE75:
 216              	.LBE76:
 217              	.LBB77:
 218              	.LBB78:
 219              	.LBB79:
 220              	.LBB80:
 221              	.LBB81:
 222              		.loc 1 34 22 view .LVU64
 223 001a 0126     		movs	r6, #1
 224              	.L16:
 225              		.loc 1 34 22 view .LVU65
 226              	.LBE81:
 227              	.LBE80:
 228              		.loc 1 54 5 is_stmt 1 view .LVU66
ARM GAS  C:\Users\DEVELO~1\AppData\Local\Temp\ccpaNuUE.s 			page 5


 229              		.loc 1 56 7 view .LVU67
 230              	.LVL15:
 231              	.LBB84:
 232              	.LBI80:
 233              		.loc 1 25 13 view .LVU68
 234              	.LBB82:
 235              		.loc 1 30 3 view .LVU69
 236              		.loc 1 30 3 is_stmt 0 view .LVU70
 237              	.LBE82:
 238              	.LBE84:
 239              	.LBE79:
 240              		.loc 1 53 35 is_stmt 1 view .LVU71
 241              		.loc 1 53 26 view .LVU72
 242              	.LBB86:
 243              		.loc 1 54 14 is_stmt 0 view .LVU73
 244 001c B3F800C0 		ldrh	ip, [r3]
 245 0020 1FFA8CFC 		uxth	ip, ip
 246              	.LVL16:
 247              		.loc 1 55 5 is_stmt 1 view .LVU74
 248              		.loc 1 55 8 is_stmt 0 view .LVU75
 249 0024 6145     		cmp	r1, ip
 250 0026 0AD0     		beq	.L14
 251              	.LBB85:
 252              	.LBB83:
 253              		.loc 1 32 5 is_stmt 1 view .LVU76
 254              		.loc 1 30 19 is_stmt 0 view .LVU77
 255 0028 9469     		ldr	r4, [r2, #24]
 256              		.loc 1 31 6 view .LVU78
 257 002a 92F82050 		ldrb	r5, [r2, #32]	@ zero_extendqisi2
 258              		.loc 1 30 19 view .LVU79
 259 002e 0134     		adds	r4, r4, #1
 260 0030 9461     		str	r4, [r2, #24]
 261              		.loc 1 31 3 is_stmt 1 view .LVU80
 262              		.loc 1 31 6 is_stmt 0 view .LVU81
 263 0032 25B9     		cbnz	r5, .L14
 264              		.loc 1 32 30 view .LVU82
 265 0034 D361     		str	r3, [r2, #28]
 266              		.loc 1 33 5 is_stmt 1 view .LVU83
 267              		.loc 1 33 30 is_stmt 0 view .LVU84
 268 0036 5184     		strh	r1, [r2, #34]	@ movhi
 269              		.loc 1 34 5 is_stmt 1 view .LVU85
 270              		.loc 1 34 22 is_stmt 0 view .LVU86
 271 0038 82F82060 		strb	r6, [r2, #32]
 272              		.loc 1 35 5 is_stmt 1 view .LVU87
 273              		.loc 1 35 17 is_stmt 0 view .LVU88
 274 003c 1673     		strb	r6, [r2, #12]
 275              	.L14:
 276              		.loc 1 35 17 view .LVU89
 277              	.LBE83:
 278              	.LBE85:
 279              	.LBE86:
 280              		.loc 1 53 26 view .LVU90
 281 003e 0233     		adds	r3, r3, #2
 282 0040 7345     		cmp	r3, lr
 283 0042 EBD1     		bne	.L16
 284              	.LVL17:
 285              		.loc 1 53 26 view .LVU91
ARM GAS  C:\Users\DEVELO~1\AppData\Local\Temp\ccpaNuUE.s 			page 6


 286              	.LBE78:
 287              	.LBE77:
 288              		.loc 1 64 3 is_stmt 1 view .LVU92
 289              		.loc 1 64 25 is_stmt 0 view .LVU93
 290 0044 5168     		ldr	r1, [r2, #4]
 291              	.LVL18:
 292              		.loc 1 65 28 view .LVU94
 293 0046 1369     		ldr	r3, [r2, #16]
 294              		.loc 1 64 25 view .LVU95
 295 0048 0131     		adds	r1, r1, #1
 296              		.loc 1 65 28 view .LVU96
 297 004a 0344     		add	r3, r3, r0
 298              		.loc 1 64 25 view .LVU97
 299 004c 5160     		str	r1, [r2, #4]
 300              		.loc 1 65 3 is_stmt 1 view .LVU98
 301              		.loc 1 65 28 is_stmt 0 view .LVU99
 302 004e 1361     		str	r3, [r2, #16]
 303              		.loc 1 66 1 view .LVU100
 304 0050 70BD     		pop	{r4, r5, r6, pc}
 305              		.cfi_endproc
 306              	.LFE460:
 307              		.size	bist_run_constant_pattern.constprop.0, .-bist_run_constant_pattern.constprop.0
 308 0052 00BF     		.section	.text.bist_run_walking.constprop.0,"ax",%progbits
 309              		.align	1
 310              		.p2align 2,,3
 311              		.syntax unified
 312              		.thumb
 313              		.thumb_func
 314              		.type	bist_run_walking.constprop.0, %function
 315              	bist_run_walking.constprop.0:
 316              	.LVL19:
 317              	.LFB462:
 318              		.loc 1 68 13 is_stmt 1 view -0
 319              		.cfi_startproc
 320              		@ args = 0, pretend = 0, frame = 0
 321              		@ frame_needed = 0, uses_anonymous_args = 0
 322              	.LBB101:
 323              		.loc 1 69 30 view .LVU102
 324              	.LBE101:
 325              		.loc 1 68 13 is_stmt 0 view .LVU103
 326 0000 2DE9F047 		push	{r4, r5, r6, r7, r8, r9, r10, lr}
 327              		.cfi_def_cfa_offset 32
 328              		.cfi_offset 4, -32
 329              		.cfi_offset 5, -28
 330              		.cfi_offset 6, -24
 331              		.cfi_offset 7, -20
 332              		.cfi_offset 8, -16
 333              		.cfi_offset 9, -12
 334              		.cfi_offset 10, -8
 335              		.cfi_offset 14, -4
 336              	.LBB119:
 337              	.LBB102:
 338              		.loc 1 73 8 view .LVU104
 339 0004 5368     		ldr	r3, [r2, #4]
 340 0006 00F1C044 		add	r4, r0, #1610612736
 341 000a 1769     		ldr	r7, [r2, #16]
 342              	.LBE102:
ARM GAS  C:\Users\DEVELO~1\AppData\Local\Temp\ccpaNuUE.s 			page 7


 343              	.LBE119:
 344              		.loc 1 68 13 view .LVU105
 345 000c 8246     		mov	r10, r0
 346 000e 8946     		mov	r9, r1
 347 0010 03F10108 		add	r8, r3, #1
 348 0014 0744     		add	r7, r7, r0
 349 0016 6400     		lsls	r4, r4, #1
 350              	.LBB120:
 351              		.loc 1 69 17 view .LVU106
 352 0018 0026     		movs	r6, #0
 353              	.LBB115:
 354              		.loc 1 70 88 view .LVU107
 355 001a 0125     		movs	r5, #1
 356              	.LVL20:
 357              	.L28:
 358              		.loc 1 70 5 is_stmt 1 view .LVU108
 359              		.loc 1 70 52 is_stmt 0 view .LVU109
 360 001c 05FA06FE 		lsl	lr, r5, r6
 361              		.loc 1 70 14 view .LVU110
 362 0020 B9F1000F 		cmp	r9, #0
 363 0024 01D1     		bne	.L33
 364 0026 6FEA0E0E 		mvn	lr, lr
 365              	.L33:
 366 002a 1FFA8EFE 		uxth	lr, lr
 367              	.LVL21:
 368              		.loc 1 71 5 is_stmt 1 view .LVU111
 369              	.LBB103:
 370              	.LBI103:
 371              		.loc 1 46 13 view .LVU112
 372              		.loc 1 47 3 view .LVU113
 373              	.LBB104:
 374              		.loc 1 47 8 view .LVU114
 375              		.loc 1 47 26 view .LVU115
 376              	.LBE104:
 377              	.LBE103:
 378              	.LBE115:
 379              		.loc 1 69 17 is_stmt 0 view .LVU116
 380 002e 4FF04043 		mov	r3, #-1073741824
 381              	.LVL22:
 382              	.L23:
 383              	.LBB116:
 384              	.LBB106:
 385              	.LBB105:
 386              		.loc 1 48 5 is_stmt 1 view .LVU117
 387              		.loc 1 48 13 is_stmt 0 view .LVU118
 388 0032 23F802EB 		strh	lr, [r3], #2	@ movhi
 389              		.loc 1 47 35 is_stmt 1 view .LVU119
 390              		.loc 1 47 26 view .LVU120
 391 0036 A342     		cmp	r3, r4
 392 0038 FBD1     		bne	.L23
 393              		.loc 1 47 26 is_stmt 0 view .LVU121
 394 003a 4FF04043 		mov	r3, #-1073741824
 395              	.LVL23:
 396              	.L27:
 397              		.loc 1 47 26 view .LVU122
 398              	.LBE105:
 399              	.LBE106:
ARM GAS  C:\Users\DEVELO~1\AppData\Local\Temp\ccpaNuUE.s 			page 8


 400              	.LBB107:
 401              	.LBB108:
 402              	.LBB109:
 403              		.loc 1 54 5 is_stmt 1 view .LVU123
 404              		.loc 1 56 7 view .LVU124
 405              	.LBB110:
 406              	.LBI110:
 407              		.loc 1 25 13 view .LVU125
 408              	.LBB111:
 409              		.loc 1 30 3 view .LVU126
 410              		.loc 1 30 3 is_stmt 0 view .LVU127
 411              	.LBE111:
 412              	.LBE110:
 413              	.LBE109:
 414              		.loc 1 53 35 is_stmt 1 view .LVU128
 415              		.loc 1 53 26 view .LVU129
 416              	.LBB114:
 417              		.loc 1 54 14 is_stmt 0 view .LVU130
 418 003e B3F800C0 		ldrh	ip, [r3]
 419 0042 1FFA8CFC 		uxth	ip, ip
 420              	.LVL24:
 421              		.loc 1 55 5 is_stmt 1 view .LVU131
 422              		.loc 1 55 8 is_stmt 0 view .LVU132
 423 0046 E645     		cmp	lr, ip
 424 0048 0DD0     		beq	.L25
 425              	.LBB113:
 426              	.LBB112:
 427              		.loc 1 32 5 is_stmt 1 view .LVU133
 428              		.loc 1 30 19 is_stmt 0 view .LVU134
 429 004a 9069     		ldr	r0, [r2, #24]
 430              		.loc 1 31 6 view .LVU135
 431 004c 92F82010 		ldrb	r1, [r2, #32]	@ zero_extendqisi2
 432              		.loc 1 30 19 view .LVU136
 433 0050 00F1010C 		add	ip, r0, #1
 434              	.LVL25:
 435              		.loc 1 30 19 view .LVU137
 436 0054 C2F818C0 		str	ip, [r2, #24]
 437              		.loc 1 31 3 is_stmt 1 view .LVU138
 438              		.loc 1 31 6 is_stmt 0 view .LVU139
 439 0058 29B9     		cbnz	r1, .L25
 440              		.loc 1 32 30 view .LVU140
 441 005a D361     		str	r3, [r2, #28]
 442              		.loc 1 33 5 is_stmt 1 view .LVU141
 443              		.loc 1 33 30 is_stmt 0 view .LVU142
 444 005c A2F822E0 		strh	lr, [r2, #34]	@ movhi
 445              		.loc 1 34 5 is_stmt 1 view .LVU143
 446              		.loc 1 34 22 is_stmt 0 view .LVU144
 447 0060 82F82050 		strb	r5, [r2, #32]
 448              		.loc 1 35 5 is_stmt 1 view .LVU145
 449              		.loc 1 35 17 is_stmt 0 view .LVU146
 450 0064 1573     		strb	r5, [r2, #12]
 451              	.L25:
 452              		.loc 1 35 17 view .LVU147
 453              	.LBE112:
 454              	.LBE113:
 455              	.LBE114:
 456              		.loc 1 53 26 view .LVU148
ARM GAS  C:\Users\DEVELO~1\AppData\Local\Temp\ccpaNuUE.s 			page 9


 457 0066 0233     		adds	r3, r3, #2
 458 0068 A342     		cmp	r3, r4
 459 006a E8D1     		bne	.L27
 460              		.loc 1 53 26 view .LVU149
 461              	.LBE108:
 462              	.LBE107:
 463              		.loc 1 73 5 is_stmt 1 view .LVU150
 464              		.loc 1 73 27 is_stmt 0 view .LVU151
 465 006c 08EB0603 		add	r3, r8, r6
 466              	.LBE116:
 467              		.loc 1 69 37 view .LVU152
 468 0070 0136     		adds	r6, r6, #1
 469              	.LVL26:
 470              	.LBB117:
 471              		.loc 1 74 30 view .LVU153
 472 0072 1761     		str	r7, [r2, #16]
 473              	.LBE117:
 474              		.loc 1 69 30 view .LVU154
 475 0074 5744     		add	r7, r7, r10
 476 0076 102E     		cmp	r6, #16
 477              	.LBB118:
 478              		.loc 1 73 27 view .LVU155
 479 0078 5360     		str	r3, [r2, #4]
 480              		.loc 1 74 5 is_stmt 1 view .LVU156
 481              	.LBE118:
 482              		.loc 1 69 37 view .LVU157
 483              	.LVL27:
 484              		.loc 1 69 30 view .LVU158
 485 007a CFD1     		bne	.L28
 486              	.LBE120:
 487              		.loc 1 76 1 is_stmt 0 view .LVU159
 488 007c BDE8F087 		pop	{r4, r5, r6, r7, r8, r9, r10, pc}
 489              		.loc 1 76 1 view .LVU160
 490              		.cfi_endproc
 491              	.LFE462:
 492              		.size	bist_run_walking.constprop.0, .-bist_run_walking.constprop.0
 493              		.section	.text.sdram_bist_start,"ax",%progbits
 494              		.align	1
 495              		.p2align 2,,3
 496              		.global	sdram_bist_start
 497              		.syntax unified
 498              		.thumb
 499              		.thumb_func
 500              		.type	sdram_bist_start, %function
 501              	sdram_bist_start:
 502              	.LVL28:
 503              	.LFB458:
 504              		.loc 1 163 50 is_stmt 1 view -0
 505              		.cfi_startproc
 506              		@ args = 0, pretend = 0, frame = 0
 507              		@ frame_needed = 0, uses_anonymous_args = 0
 508              		.loc 1 164 3 view .LVU162
 509              		.loc 1 163 50 is_stmt 0 view .LVU163
 510 0000 2DE9F041 		push	{r4, r5, r6, r7, r8, lr}
 511              		.cfi_def_cfa_offset 24
 512              		.cfi_offset 4, -24
 513              		.cfi_offset 5, -20
ARM GAS  C:\Users\DEVELO~1\AppData\Local\Temp\ccpaNuUE.s 			page 10


 514              		.cfi_offset 6, -16
 515              		.cfi_offset 7, -12
 516              		.cfi_offset 8, -8
 517              		.cfi_offset 14, -4
 518              		.loc 1 164 6 view .LVU164
 519 0004 0546     		mov	r5, r0
 520 0006 10B1     		cbz	r0, .L52
 521              		.loc 1 168 3 is_stmt 1 view .LVU165
 522              		.loc 1 168 6 is_stmt 0 view .LVU166
 523 0008 0378     		ldrb	r3, [r0]	@ zero_extendqisi2
 524 000a 012B     		cmp	r3, #1
 525 000c 02D9     		bls	.L60
 526              	.L52:
 527              		.loc 1 165 12 view .LVU167
 528 000e 0020     		movs	r0, #0
 529              	.LVL29:
 530              		.loc 1 209 1 view .LVU168
 531 0010 BDE8F081 		pop	{r4, r5, r6, r7, r8, pc}
 532              	.LVL30:
 533              	.L60:
 534              		.loc 1 172 3 is_stmt 1 view .LVU169
 535              	.LBB160:
 536              	.LBI160:
 537              		.loc 1 13 13 view .LVU170
 538              	.LBB161:
 539              		.loc 1 14 3 view .LVU171
 540              		.loc 1 14 15 is_stmt 0 view .LVU172
 541 0014 0027     		movs	r7, #0
 542 0016 0773     		strb	r7, [r0, #12]
 543              		.loc 1 15 3 is_stmt 1 view .LVU173
 544              		.loc 1 19 20 is_stmt 0 view .LVU174
 545 0018 80F82070 		strb	r7, [r0, #32]
 546              		.loc 1 20 28 view .LVU175
 547 001c 4784     		strh	r7, [r0, #34]	@ movhi
 548              		.loc 1 16 29 view .LVU176
 549 001e C0E90477 		strd	r7, r7, [r0, #16]
 550              		.loc 1 17 3 is_stmt 1 view .LVU177
 551              		.loc 1 18 28 is_stmt 0 view .LVU178
 552 0022 C0E90677 		strd	r7, r7, [r0, #24]
 553              		.loc 1 19 3 is_stmt 1 view .LVU179
 554              		.loc 1 20 3 view .LVU180
 555              		.loc 1 21 3 view .LVU181
 556              	.LBB162:
 557              	.LBI162:
 558              		.file 2 "./docs/ChibiOS/os/rt/include/chvt.h"
 559              		.loc 2 135 25 view .LVU182
 560              		.loc 2 140 3 view .LVU183
 561              	.LBB163:
 562              	.LBI163:
 563              		.file 3 "./docs/ChibiOS/os/hal/osal/rt-nil/chcore_timer.h"
 564              		.loc 3 111 25 view .LVU184
 565              	.LBB164:
 566              		.loc 3 113 3 view .LVU185
 567              		.loc 3 113 10 is_stmt 0 view .LVU186
 568 0026 FFF7FEFF 		bl	stGetCounter
 569              	.LVL31:
 570              		.loc 3 113 10 view .LVU187
ARM GAS  C:\Users\DEVELO~1\AppData\Local\Temp\ccpaNuUE.s 			page 11


 571              	.LBE164:
 572              	.LBE163:
 573              	.LBE162:
 574              	.LBE161:
 575              	.LBE160:
 576              		.loc 1 175 90 view .LVU188
 577 002a 2B78     		ldrb	r3, [r5]	@ zero_extendqisi2
 578              		.loc 1 182 3 view .LVU189
 579 002c 2A46     		mov	r2, r5
 580 002e 3946     		mov	r1, r7
 581              		.loc 1 175 90 view .LVU190
 582 0030 012B     		cmp	r3, #1
 583              		.loc 1 173 26 view .LVU191
 584 0032 6F60     		str	r7, [r5, #4]
 585              		.loc 1 175 90 view .LVU192
 586 0034 0BBF     		itete	eq
 587 0036 4FF08076 		moveq	r6, #16777216
 588 003a 4FF40026 		movne	r6, #524288
 589 003e 4FF00074 		moveq	r4, #33554432
 590 0042 4FF48014 		movne	r4, #1048576
 591              		.loc 1 177 21 view .LVU193
 592 0046 AE60     		str	r6, [r5, #8]
 593              		.loc 1 178 36 view .LVU194
 594 0048 6E61     		str	r6, [r5, #20]
 595              	.LBB166:
 596              	.LBB165:
 597              		.loc 1 22 22 view .LVU195
 598 004a C5E90900 		strd	r0, r0, [r5, #36]
 599              	.LVL32:
 600              		.loc 1 22 22 view .LVU196
 601              	.LBE165:
 602              	.LBE166:
 603              		.loc 1 173 3 is_stmt 1 view .LVU197
 604              		.loc 1 175 3 view .LVU198
 605              		.loc 1 176 3 view .LVU199
 606              		.loc 1 177 3 view .LVU200
 607              		.loc 1 178 3 view .LVU201
 608              		.loc 1 179 3 view .LVU202
 609              		.loc 1 182 3 view .LVU203
 610 004e 3046     		mov	r0, r6
 611 0050 FFF7FEFF 		bl	bist_run_constant_pattern.constprop.0
 612              	.LVL33:
 613              		.loc 1 183 3 view .LVU204
 614 0054 4FF6FF71 		movw	r1, #65535
 615 0058 FFF7FEFF 		bl	bist_run_constant_pattern.constprop.0
 616              	.LVL34:
 617              		.loc 1 184 3 view .LVU205
 618 005c 4AF6AA21 		movw	r1, #43690
 619 0060 FFF7FEFF 		bl	bist_run_constant_pattern.constprop.0
 620              	.LVL35:
 621              		.loc 1 185 3 view .LVU206
 622 0064 45F25551 		movw	r1, #21845
 623 0068 FFF7FEFF 		bl	bist_run_constant_pattern.constprop.0
 624              	.LVL36:
 625              		.loc 1 188 3 view .LVU207
 626 006c 0121     		movs	r1, #1
 627 006e FFF7FEFF 		bl	bist_run_walking.constprop.0
ARM GAS  C:\Users\DEVELO~1\AppData\Local\Temp\ccpaNuUE.s 			page 12


 628              	.LVL37:
 629              		.loc 1 189 3 view .LVU208
 630 0072 3946     		mov	r1, r7
 631 0074 3046     		mov	r0, r6
 632 0076 FFF7FEFF 		bl	bist_run_walking.constprop.0
 633              	.LVL38:
 634              		.loc 1 192 3 view .LVU209
 635              	.LBB167:
 636              	.LBI167:
 637              		.loc 1 78 13 view .LVU210
 638              	.LBB168:
 639              	.LBB169:
 640              		.loc 1 80 26 view .LVU211
 641 007a 06F1C042 		add	r2, r6, #1610612736
 642              	.LVL39:
 643              		.loc 1 80 26 is_stmt 0 view .LVU212
 644              	.LBE169:
 645              	.LBE168:
 646              	.LBE167:
 647              		.loc 1 189 3 view .LVU213
 648 007e 4FF04040 		mov	r0, #-1073741824
 649              	.LBB185:
 650              	.LBB182:
 651              		.loc 1 79 12 view .LVU214
 652 0082 4AF6E141 		movw	r1, #44257
 653 0086 5200     		lsls	r2, r2, #1
 654              	.LVL40:
 655              	.L37:
 656              	.LBB171:
 657              	.LBB170:
 658              		.loc 1 81 5 is_stmt 1 view .LVU215
 659              		.loc 1 82 5 view .LVU216
 660              		.loc 1 81 60 is_stmt 0 view .LVU217
 661 0088 CB08     		lsrs	r3, r1, #3
 662              		.loc 1 81 14 view .LVU218
 663 008a 83EA9103 		eor	r3, r3, r1, lsr #2
 664 008e 4B40     		eors	r3, r3, r1
 665 0090 83EA5113 		eor	r3, r3, r1, lsr #5
 666              		.loc 1 82 43 view .LVU219
 667 0094 03F00103 		and	r3, r3, #1
 668 0098 DB03     		lsls	r3, r3, #15
 669              		.loc 1 82 10 view .LVU220
 670 009a 43EA5101 		orr	r1, r3, r1, lsr #1
 671              	.LVL41:
 672              		.loc 1 83 5 is_stmt 1 view .LVU221
 673              		.loc 1 83 13 is_stmt 0 view .LVU222
 674 009e 20F8021B 		strh	r1, [r0], #2	@ movhi
 675              	.LBE170:
 676              		.loc 1 80 35 is_stmt 1 view .LVU223
 677              		.loc 1 80 26 view .LVU224
 678 00a2 8242     		cmp	r2, r0
 679 00a4 F0D1     		bne	.L37
 680 00a6 4FF04040 		mov	r0, #-1073741824
 681              	.LBE171:
 682              		.loc 1 86 8 is_stmt 0 view .LVU225
 683 00aa 4AF6E141 		movw	r1, #44257
 684              	.LVL42:
ARM GAS  C:\Users\DEVELO~1\AppData\Local\Temp\ccpaNuUE.s 			page 13


 685              	.LBB172:
 686              	.LBB173:
 687              	.LBB174:
 688              	.LBB175:
 689              		.loc 1 34 22 view .LVU226
 690 00ae 4FF0010E 		mov	lr, #1
 691              	.L41:
 692              	.LVL43:
 693              		.loc 1 34 22 view .LVU227
 694              	.LBE175:
 695              	.LBE174:
 696              		.loc 1 88 5 is_stmt 1 view .LVU228
 697              		.loc 1 89 5 view .LVU229
 698              		.loc 1 93 7 view .LVU230
 699              	.LBE173:
 700              		.loc 1 87 35 view .LVU231
 701              	.LBB180:
 702              		.loc 1 88 60 is_stmt 0 view .LVU232
 703 00b2 CB08     		lsrs	r3, r1, #3
 704              		.loc 1 91 14 view .LVU233
 705 00b4 B0F800C0 		ldrh	ip, [r0]
 706              		.loc 1 88 14 view .LVU234
 707 00b8 83EA9103 		eor	r3, r3, r1, lsr #2
 708              		.loc 1 91 14 view .LVU235
 709 00bc 1FFA8CFC 		uxth	ip, ip
 710              		.loc 1 88 14 view .LVU236
 711 00c0 4B40     		eors	r3, r3, r1
 712 00c2 83EA5113 		eor	r3, r3, r1, lsr #5
 713              		.loc 1 89 43 view .LVU237
 714 00c6 03F00103 		and	r3, r3, #1
 715 00ca DB03     		lsls	r3, r3, #15
 716              		.loc 1 89 10 view .LVU238
 717 00cc 43EA5101 		orr	r1, r3, r1, lsr #1
 718              	.LVL44:
 719              		.loc 1 90 5 is_stmt 1 view .LVU239
 720              		.loc 1 91 5 view .LVU240
 721              		.loc 1 92 5 view .LVU241
 722              	.LBB178:
 723              	.LBI174:
 724              		.loc 1 25 13 view .LVU242
 725              	.LBB176:
 726              		.loc 1 30 3 view .LVU243
 727              		.loc 1 30 3 is_stmt 0 view .LVU244
 728              	.LBE176:
 729              	.LBE178:
 730              	.LBE180:
 731              		.loc 1 87 26 is_stmt 1 view .LVU245
 732              	.LBB181:
 733              		.loc 1 92 8 is_stmt 0 view .LVU246
 734 00d0 6145     		cmp	r1, ip
 735 00d2 0BD0     		beq	.L39
 736              	.LBB179:
 737              	.LBB177:
 738              		.loc 1 32 5 is_stmt 1 view .LVU247
 739              		.loc 1 30 19 is_stmt 0 view .LVU248
 740 00d4 AB69     		ldr	r3, [r5, #24]
 741              		.loc 1 31 6 view .LVU249
ARM GAS  C:\Users\DEVELO~1\AppData\Local\Temp\ccpaNuUE.s 			page 14


 742 00d6 95F82070 		ldrb	r7, [r5, #32]	@ zero_extendqisi2
 743              		.loc 1 30 19 view .LVU250
 744 00da 0133     		adds	r3, r3, #1
 745 00dc AB61     		str	r3, [r5, #24]
 746              		.loc 1 31 3 is_stmt 1 view .LVU251
 747              		.loc 1 31 6 is_stmt 0 view .LVU252
 748 00de 2FB9     		cbnz	r7, .L39
 749              		.loc 1 32 30 view .LVU253
 750 00e0 E861     		str	r0, [r5, #28]
 751              		.loc 1 33 5 is_stmt 1 view .LVU254
 752              		.loc 1 33 30 is_stmt 0 view .LVU255
 753 00e2 6984     		strh	r1, [r5, #34]	@ movhi
 754              		.loc 1 34 5 is_stmt 1 view .LVU256
 755              		.loc 1 34 22 is_stmt 0 view .LVU257
 756 00e4 85F820E0 		strb	lr, [r5, #32]
 757              		.loc 1 35 5 is_stmt 1 view .LVU258
 758              		.loc 1 35 17 is_stmt 0 view .LVU259
 759 00e8 85F80CE0 		strb	lr, [r5, #12]
 760              	.L39:
 761              		.loc 1 35 17 view .LVU260
 762              	.LBE177:
 763              	.LBE179:
 764              	.LBE181:
 765              		.loc 1 87 26 view .LVU261
 766 00ec 0230     		adds	r0, r0, #2
 767 00ee 8242     		cmp	r2, r0
 768 00f0 DFD1     		bne	.L41
 769              	.LBE172:
 770              		.loc 1 97 3 is_stmt 1 view .LVU262
 771              		.loc 1 97 6 is_stmt 0 view .LVU263
 772 00f2 6A68     		ldr	r2, [r5, #4]
 773              	.LBE182:
 774              	.LBE185:
 775              		.loc 1 194 6 view .LVU264
 776 00f4 2978     		ldrb	r1, [r5]	@ zero_extendqisi2
 777              	.LVL45:
 778              	.LBB186:
 779              	.LBB183:
 780              		.loc 1 97 25 view .LVU265
 781 00f6 531C     		adds	r3, r2, #1
 782              	.LBE183:
 783              	.LBE186:
 784              		.loc 1 194 6 view .LVU266
 785 00f8 0129     		cmp	r1, #1
 786              	.LBB187:
 787              	.LBB184:
 788              		.loc 1 97 25 view .LVU267
 789 00fa 6B60     		str	r3, [r5, #4]
 790              		.loc 1 98 3 is_stmt 1 view .LVU268
 791              		.loc 1 98 28 is_stmt 0 view .LVU269
 792 00fc 2B69     		ldr	r3, [r5, #16]
 793 00fe 3344     		add	r3, r3, r6
 794 0100 2B61     		str	r3, [r5, #16]
 795              	.LVL46:
 796              		.loc 1 98 28 view .LVU270
 797              	.LBE184:
 798              	.LBE187:
ARM GAS  C:\Users\DEVELO~1\AppData\Local\Temp\ccpaNuUE.s 			page 15


 799              		.loc 1 194 3 is_stmt 1 view .LVU271
 800              		.loc 1 194 6 is_stmt 0 view .LVU272
 801 0102 0CD0     		beq	.L61
 802              	.LVL47:
 803              	.L42:
 804              		.loc 1 207 3 is_stmt 1 view .LVU273
 805              	.LBB188:
 806              	.LBI188:
 807              		.loc 1 39 13 view .LVU274
 808              	.LBB189:
 809              		.loc 1 40 3 view .LVU275
 810              		.loc 1 40 6 is_stmt 0 view .LVU276
 811 0104 AB69     		ldr	r3, [r5, #24]
 812 0106 1BB1     		cbz	r3, .L50
 813              		.loc 1 40 29 view .LVU277
 814 0108 2B7B     		ldrb	r3, [r5, #12]	@ zero_extendqisi2
 815 010a 0BB9     		cbnz	r3, .L50
 816              		.loc 1 41 5 is_stmt 1 view .LVU278
 817              		.loc 1 41 17 is_stmt 0 view .LVU279
 818 010c 0123     		movs	r3, #1
 819 010e 2B73     		strb	r3, [r5, #12]
 820              	.L50:
 821              		.loc 1 43 3 is_stmt 1 view .LVU280
 822              	.LBB190:
 823              	.LBI190:
 824              		.loc 2 135 25 view .LVU281
 825              		.loc 2 140 3 view .LVU282
 826              	.LBB191:
 827              	.LBI191:
 828              		.loc 3 111 25 view .LVU283
 829              	.LBB192:
 830              		.loc 3 113 3 view .LVU284
 831              		.loc 3 113 10 is_stmt 0 view .LVU285
 832 0110 FFF7FEFF 		bl	stGetCounter
 833              	.LVL48:
 834 0114 0346     		mov	r3, r0
 835              	.LBE192:
 836              	.LBE191:
 837              	.LBE190:
 838              	.LBE189:
 839              	.LBE188:
 840              		.loc 1 208 10 view .LVU286
 841 0116 0120     		movs	r0, #1
 842              	.LBB194:
 843              	.LBB193:
 844              		.loc 1 43 22 view .LVU287
 845 0118 AB62     		str	r3, [r5, #40]
 846              	.LVL49:
 847              		.loc 1 43 22 view .LVU288
 848              	.LBE193:
 849              	.LBE194:
 850              		.loc 1 209 1 view .LVU289
 851 011a BDE8F081 		pop	{r4, r5, r6, r7, r8, pc}
 852              	.LVL50:
 853              	.L61:
 854              	.LBB195:
 855              		.loc 1 195 5 is_stmt 1 discriminator 1 view .LVU290
ARM GAS  C:\Users\DEVELO~1\AppData\Local\Temp\ccpaNuUE.s 			page 16


 856              		.loc 1 196 5 discriminator 1 view .LVU291
 857              	.LBB196:
 858              	.LBB197:
 859              		.loc 1 107 22 is_stmt 0 discriminator 1 view .LVU292
 860 011e 06F1404E 		add	lr, r6, #-1073741824
 861              		.loc 1 109 13 discriminator 1 view .LVU293
 862 0122 4FF0404C 		mov	ip, #-1073741824
 863              	.LVL51:
 864              		.loc 1 110 13 discriminator 1 view .LVU294
 865 0126 45F6A520 		movw	r0, #23205
 866              		.loc 1 109 13 discriminator 1 view .LVU295
 867 012a 4AF25A58 		movw	r8, #42330
 868              	.LBE197:
 869              	.LBE196:
 870              		.loc 1 197 79 discriminator 1 view .LVU296
 871 012e A408     		lsrs	r4, r4, #2
 872              	.LVL52:
 873              		.loc 1 196 98 discriminator 1 view .LVU297
 874 0130 A6F50036 		sub	r6, r6, #131072
 875              	.LVL53:
 876              		.loc 1 197 5 is_stmt 1 discriminator 1 view .LVU298
 877              	.LBB208:
 878              	.LBB204:
 879              		.loc 1 109 13 is_stmt 0 discriminator 1 view .LVU299
 880 0134 ACF80080 		strh	r8, [ip]	@ movhi
 881              		.loc 1 110 13 discriminator 1 view .LVU300
 882 0138 AEF80000 		strh	r0, [lr]	@ movhi
 883              	.LBE204:
 884              	.LBE208:
 885              		.loc 1 197 108 discriminator 1 view .LVU301
 886 013c A4F58034 		sub	r4, r4, #65536
 887              	.LVL54:
 888              		.loc 1 198 5 is_stmt 1 discriminator 1 view .LVU302
 889              		.loc 1 200 5 discriminator 1 view .LVU303
 890              	.LBB209:
 891              	.LBI196:
 892              		.loc 1 101 13 discriminator 1 view .LVU304
 893              	.LBB205:
 894              		.loc 1 102 3 discriminator 1 view .LVU305
 895              		.loc 1 106 3 discriminator 1 view .LVU306
 896              		.loc 1 107 3 discriminator 1 view .LVU307
 897              		.loc 1 109 3 discriminator 1 view .LVU308
 898              		.loc 1 110 3 discriminator 1 view .LVU309
 899              		.loc 1 112 3 discriminator 1 view .LVU310
 900              		.loc 1 112 18 is_stmt 0 discriminator 1 view .LVU311
 901 0140 BCF80070 		ldrh	r7, [ip]
 902              		.loc 1 113 18 discriminator 1 view .LVU312
 903 0144 BEF80000 		ldrh	r0, [lr]
 904              		.loc 1 112 18 discriminator 1 view .LVU313
 905 0148 BFB2     		uxth	r7, r7
 906              	.LVL55:
 907              		.loc 1 113 3 is_stmt 1 discriminator 1 view .LVU314
 908              		.loc 1 113 18 is_stmt 0 discriminator 1 view .LVU315
 909 014a 80B2     		uxth	r0, r0
 910              	.LVL56:
 911              		.loc 1 115 3 is_stmt 1 discriminator 1 view .LVU316
 912              		.loc 1 115 6 is_stmt 0 discriminator 1 view .LVU317
ARM GAS  C:\Users\DEVELO~1\AppData\Local\Temp\ccpaNuUE.s 			page 17


 913 014c 8742     		cmp	r7, r0
 914 014e 30D0     		beq	.L62
 915              		.loc 1 122 5 is_stmt 1 view .LVU318
 916              		.loc 1 122 8 is_stmt 0 view .LVU319
 917 0150 4745     		cmp	r7, r8
 918 0152 0CD0     		beq	.L47
 919              		.loc 1 123 7 is_stmt 1 view .LVU320
 920              	.LVL57:
 921              	.LBB198:
 922              	.LBI198:
 923              		.loc 1 25 13 view .LVU321
 924              	.LBB199:
 925              		.loc 1 30 3 view .LVU322
 926              		.loc 1 30 19 is_stmt 0 view .LVU323
 927 0154 AF69     		ldr	r7, [r5, #24]
 928              	.LVL58:
 929              		.loc 1 30 19 view .LVU324
 930 0156 0137     		adds	r7, r7, #1
 931 0158 AF61     		str	r7, [r5, #24]
 932              		.loc 1 31 3 is_stmt 1 view .LVU325
 933              		.loc 1 31 6 is_stmt 0 view .LVU326
 934 015a 95F82070 		ldrb	r7, [r5, #32]	@ zero_extendqisi2
 935 015e 37B9     		cbnz	r7, .L47
 936              		.loc 1 32 5 is_stmt 1 view .LVU327
 937              		.loc 1 32 30 is_stmt 0 view .LVU328
 938 0160 C5F81CC0 		str	ip, [r5, #28]
 939              		.loc 1 33 5 is_stmt 1 view .LVU329
 940              		.loc 1 33 30 is_stmt 0 view .LVU330
 941 0164 A5F82280 		strh	r8, [r5, #34]	@ movhi
 942              		.loc 1 34 5 is_stmt 1 view .LVU331
 943              		.loc 1 34 22 is_stmt 0 view .LVU332
 944 0168 85F82010 		strb	r1, [r5, #32]
 945              		.loc 1 35 5 is_stmt 1 view .LVU333
 946              		.loc 1 35 17 is_stmt 0 view .LVU334
 947 016c 2973     		strb	r1, [r5, #12]
 948              	.LVL59:
 949              	.L47:
 950              		.loc 1 35 17 view .LVU335
 951              	.LBE199:
 952              	.LBE198:
 953              		.loc 1 129 5 is_stmt 1 view .LVU336
 954              		.loc 1 129 8 is_stmt 0 view .LVU337
 955 016e 45F6A527 		movw	r7, #23205
 956 0172 B842     		cmp	r0, r7
 957 0174 0CD0     		beq	.L45
 958              		.loc 1 130 7 is_stmt 1 view .LVU338
 959              	.LVL60:
 960              	.LBB200:
 961              	.LBI200:
 962              		.loc 1 25 13 view .LVU339
 963              	.LBB201:
 964              		.loc 1 30 3 view .LVU340
 965              		.loc 1 30 19 is_stmt 0 view .LVU341
 966 0176 A969     		ldr	r1, [r5, #24]
 967 0178 0131     		adds	r1, r1, #1
 968 017a A961     		str	r1, [r5, #24]
 969              		.loc 1 31 3 is_stmt 1 view .LVU342
ARM GAS  C:\Users\DEVELO~1\AppData\Local\Temp\ccpaNuUE.s 			page 18


 970              		.loc 1 31 6 is_stmt 0 view .LVU343
 971 017c 95F82010 		ldrb	r1, [r5, #32]	@ zero_extendqisi2
 972 0180 31B9     		cbnz	r1, .L45
 973              		.loc 1 32 5 is_stmt 1 view .LVU344
 974              		.loc 1 34 22 is_stmt 0 view .LVU345
 975 0182 0121     		movs	r1, #1
 976              		.loc 1 32 30 view .LVU346
 977 0184 C5F81CE0 		str	lr, [r5, #28]
 978              		.loc 1 33 5 is_stmt 1 view .LVU347
 979              		.loc 1 33 30 is_stmt 0 view .LVU348
 980 0188 6F84     		strh	r7, [r5, #34]	@ movhi
 981              		.loc 1 34 5 is_stmt 1 view .LVU349
 982              		.loc 1 34 22 is_stmt 0 view .LVU350
 983 018a 85F82010 		strb	r1, [r5, #32]
 984              		.loc 1 35 5 is_stmt 1 view .LVU351
 985              		.loc 1 35 17 is_stmt 0 view .LVU352
 986 018e 2973     		strb	r1, [r5, #12]
 987              	.LVL61:
 988              	.L45:
 989              		.loc 1 35 17 view .LVU353
 990              	.LBE201:
 991              	.LBE200:
 992              		.loc 1 138 3 is_stmt 1 view .LVU354
 993              		.loc 1 138 25 is_stmt 0 view .LVU355
 994 0190 0232     		adds	r2, r2, #2
 995              		.loc 1 139 28 view .LVU356
 996 0192 0233     		adds	r3, r3, #2
 997              	.LBE205:
 998              	.LBE209:
 999              		.loc 1 201 5 view .LVU357
 1000 0194 2946     		mov	r1, r5
 1001 0196 0020     		movs	r0, #0
 1002              	.LBB210:
 1003              	.LBB206:
 1004              		.loc 1 138 25 view .LVU358
 1005 0198 6A60     		str	r2, [r5, #4]
 1006              		.loc 1 139 3 is_stmt 1 view .LVU359
 1007              		.loc 1 139 28 is_stmt 0 view .LVU360
 1008 019a 2B61     		str	r3, [r5, #16]
 1009              	.LVL62:
 1010              		.loc 1 139 28 view .LVU361
 1011              	.LBE206:
 1012              	.LBE210:
 1013              		.loc 1 201 5 is_stmt 1 view .LVU362
 1014 019c FFF7FEFF 		bl	bist_run_stress_sequential_offset.constprop.0
 1015              	.LVL63:
 1016              		.loc 1 202 5 view .LVU363
 1017 01a0 2046     		mov	r0, r4
 1018 01a2 FFF7FEFF 		bl	bist_run_stress_sequential_offset.constprop.0
 1019              	.LVL64:
 1020              		.loc 1 203 5 view .LVU364
 1021 01a6 3046     		mov	r0, r6
 1022 01a8 FFF7FEFF 		bl	bist_run_stress_sequential_offset.constprop.0
 1023              	.LVL65:
 1024              		.loc 1 204 5 view .LVU365
 1025 01ac FFF7FEFF 		bl	chThdYield
 1026              	.LVL66:
ARM GAS  C:\Users\DEVELO~1\AppData\Local\Temp\ccpaNuUE.s 			page 19


 1027 01b0 A8E7     		b	.L42
 1028              	.LVL67:
 1029              	.L62:
 1030              	.LBB211:
 1031              	.LBB207:
 1032              		.loc 1 116 5 view .LVU366
 1033              	.LBB202:
 1034              	.LBI202:
 1035              		.loc 1 25 13 view .LVU367
 1036              	.LBB203:
 1037              		.loc 1 30 3 view .LVU368
 1038              		.loc 1 30 19 is_stmt 0 view .LVU369
 1039 01b2 A869     		ldr	r0, [r5, #24]
 1040              	.LVL68:
 1041              		.loc 1 30 19 view .LVU370
 1042 01b4 0130     		adds	r0, r0, #1
 1043 01b6 A861     		str	r0, [r5, #24]
 1044              		.loc 1 31 3 is_stmt 1 view .LVU371
 1045              		.loc 1 31 6 is_stmt 0 view .LVU372
 1046 01b8 95F82000 		ldrb	r0, [r5, #32]	@ zero_extendqisi2
 1047 01bc 0028     		cmp	r0, #0
 1048 01be E7D1     		bne	.L45
 1049              		.loc 1 32 5 is_stmt 1 view .LVU373
 1050              		.loc 1 35 17 is_stmt 0 view .LVU374
 1051 01c0 2973     		strb	r1, [r5, #12]
 1052              		.loc 1 34 22 view .LVU375
 1053 01c2 0221     		movs	r1, #2
 1054              		.loc 1 32 30 view .LVU376
 1055 01c4 C5F81CC0 		str	ip, [r5, #28]
 1056              		.loc 1 33 5 is_stmt 1 view .LVU377
 1057              		.loc 1 33 30 is_stmt 0 view .LVU378
 1058 01c8 A5F82280 		strh	r8, [r5, #34]	@ movhi
 1059              		.loc 1 34 5 is_stmt 1 view .LVU379
 1060              		.loc 1 34 22 is_stmt 0 view .LVU380
 1061 01cc 85F82010 		strb	r1, [r5, #32]
 1062              		.loc 1 35 5 is_stmt 1 view .LVU381
 1063 01d0 DEE7     		b	.L45
 1064              	.LBE203:
 1065              	.LBE202:
 1066              	.LBE207:
 1067              	.LBE211:
 1068              	.LBE195:
 1069              		.cfi_endproc
 1070              	.LFE458:
 1071              		.size	sdram_bist_start, .-sdram_bist_start
 1072 01d2 00BF     		.text
 1073              	.Letext0:
 1074              		.file 4 "c:\\chibistudio\\tools\\gnu tools arm embedded\\11.3 2022.08\\arm-none-eabi\\include\\mac
 1075              		.file 5 "c:\\chibistudio\\tools\\gnu tools arm embedded\\11.3 2022.08\\arm-none-eabi\\include\\sys
 1076              		.file 6 "./docs/ChibiOS/os/rt/include/chtime.h"
 1077              		.file 7 "drivers/sdram/sdram_driver.h"
 1078              		.file 8 "drivers/sdram/sdram_driver_priv.h"
 1079              		.file 9 "./docs/ChibiOS/os/hal/include/hal_st.h"
 1080              		.file 10 "./docs/ChibiOS/os/rt/include/chthreads.h"