ARM GAS  C:\Users\DEVELO~1\AppData\Local\Temp\ccBkajkH.s 			page 1


   1              		.cpu cortex-m7
   2              		.arch armv7e-m
   3              		.fpu fpv5-d16
   4              		.eabi_attribute 28, 1
   5              		.eabi_attribute 20, 1
   6              		.eabi_attribute 21, 1
   7              		.eabi_attribute 23, 3
   8              		.eabi_attribute 24, 1
   9              		.eabi_attribute 25, 1
  10              		.eabi_attribute 26, 1
  11              		.eabi_attribute 30, 2
  12              		.eabi_attribute 34, 1
  13              		.eabi_attribute 18, 4
  14              		.file	"sdram_driver.c"
  15              		.text
  16              	.Ltext0:
  17              		.cfi_sections	.debug_frame
  18              		.section	.text.sdram_init,"ax",%progbits
  19              		.align	1
  20              		.p2align 2,,3
  21              		.global	sdram_init
  22              		.syntax unified
  23              		.thumb
  24              		.thumb_func
  25              		.type	sdram_init, %function
  26              	sdram_init:
  27              	.LVL0:
  28              	.LFB450:
  29              		.file 1 "drivers/sdram/sdram_driver.c"
  30              		.loc 1 35 38 view -0
  31              		.cfi_startproc
  32              		@ args = 0, pretend = 0, frame = 48
  33              		@ frame_needed = 0, uses_anonymous_args = 0
  34              		.loc 1 37 3 view .LVU1
  35              		.loc 1 35 38 is_stmt 0 view .LVU2
  36 0000 F0B5     		push	{r4, r5, r6, r7, lr}
  37              		.cfi_def_cfa_offset 20
  38              		.cfi_offset 4, -20
  39              		.cfi_offset 5, -16
  40              		.cfi_offset 6, -12
  41              		.cfi_offset 7, -8
  42              		.cfi_offset 14, -4
  43              		.loc 1 38 16 view .LVU3
  44 0002 354C     		ldr	r4, .L18
  45              		.loc 1 35 38 view .LVU4
  46 0004 8DB0     		sub	sp, sp, #52
  47              		.cfi_def_cfa_offset 72
  48              		.loc 1 35 38 view .LVU5
  49 0006 0546     		mov	r5, r0
  50              		.loc 1 37 3 view .LVU6
  51 0008 3448     		ldr	r0, .L18+4
  52              	.LVL1:
  53              		.loc 1 37 3 view .LVU7
  54 000a FFF7FEFF 		bl	chMtxLock
  55              	.LVL2:
  56              		.loc 1 38 3 is_stmt 1 view .LVU8
  57              		.loc 1 38 6 is_stmt 0 view .LVU9
ARM GAS  C:\Users\DEVELO~1\AppData\Local\Temp\ccBkajkH.s 			page 2


  58 000e 2678     		ldrb	r6, [r4]	@ zero_extendqisi2
  59 0010 002E     		cmp	r6, #0
  60 0012 42D1     		bne	.L13
  61              		.loc 1 43 3 is_stmt 1 view .LVU10
  62              		.loc 1 44 3 view .LVU11
  63              		.loc 1 45 3 view .LVU12
  64              		.loc 1 43 19 is_stmt 0 view .LVU13
  65 0014 0127     		movs	r7, #1
  66              		.loc 1 46 3 view .LVU14
  67 0016 3148     		ldr	r0, .L18+4
  68              		.loc 1 45 26 view .LVU15
  69 0018 A670     		strb	r6, [r4, #2]
  70              		.loc 1 46 3 is_stmt 1 view .LVU16
  71              		.loc 1 43 19 is_stmt 0 view .LVU17
  72 001a 2780     		strh	r7, [r4]	@ movhi
  73              		.loc 1 46 3 view .LVU18
  74 001c FFF7FEFF 		bl	chMtxUnlock
  75              	.LVL3:
  76              		.loc 1 49 3 is_stmt 1 view .LVU19
  77              		.loc 1 49 8 is_stmt 0 view .LVU20
  78 0020 FFF7FEFF 		bl	sdram_hw_init_sequence
  79              	.LVL4:
  80              		.loc 1 49 6 view .LVU21
  81 0024 68B3     		cbz	r0, .L14
  82              		.loc 1 57 3 is_stmt 1 view .LVU22
  83              		.loc 1 57 8 is_stmt 0 view .LVU23
  84 0026 FFF7FEFF 		bl	sdram_configure_mpu_regions
  85              	.LVL5:
  86              		.loc 1 57 6 view .LVU24
  87 002a 0028     		cmp	r0, #0
  88 002c 4CD0     		beq	.L15
  89              		.loc 1 64 3 is_stmt 1 view .LVU25
  90              		.loc 1 64 6 is_stmt 0 view .LVU26
  91 002e 002D     		cmp	r5, #0
  92 0030 3FD0     		beq	.L16
  93              		.loc 1 72 3 is_stmt 1 view .LVU27
  94              		.loc 1 72 24 is_stmt 0 view .LVU28
  95 0032 2C22     		movs	r2, #44
  96 0034 3146     		mov	r1, r6
  97 0036 01A8     		add	r0, sp, #4
  98              		.loc 1 83 30 view .LVU29
  99 0038 251D     		adds	r5, r4, #4
 100              		.loc 1 72 24 view .LVU30
 101 003a FFF7FEFF 		bl	memset
 102              	.LVL6:
 103              		.loc 1 73 3 is_stmt 1 view .LVU31
 104              		.loc 1 75 3 view .LVU32
 105 003e 2748     		ldr	r0, .L18+4
 106 0040 FFF7FEFF 		bl	chMtxLock
 107              	.LVL7:
 108              		.loc 1 76 3 view .LVU33
 109              		.loc 1 77 3 is_stmt 0 view .LVU34
 110 0044 2548     		ldr	r0, .L18+4
 111              		.loc 1 76 26 view .LVU35
 112 0046 A770     		strb	r7, [r4, #2]
 113              		.loc 1 77 3 is_stmt 1 view .LVU36
 114 0048 FFF7FEFF 		bl	chMtxUnlock
ARM GAS  C:\Users\DEVELO~1\AppData\Local\Temp\ccBkajkH.s 			page 3


 115              	.LVL8:
 116              		.loc 1 79 3 view .LVU37
 117              		.loc 1 79 18 is_stmt 0 view .LVU38
 118 004c 01A8     		add	r0, sp, #4
 119 004e FFF7FEFF 		bl	sdram_bist_start
 120              	.LVL9:
 121 0052 0746     		mov	r7, r0
 122              		.loc 1 81 3 view .LVU39
 123 0054 2148     		ldr	r0, .L18+4
 124              	.LVL10:
 125              		.loc 1 81 3 is_stmt 1 view .LVU40
 126 0056 FFF7FEFF 		bl	chMtxLock
 127              	.LVL11:
 128              		.loc 1 82 3 view .LVU41
 129              		.loc 1 83 30 is_stmt 0 view .LVU42
 130 005a 0DF1100C 		add	ip, sp, #16
 131              		.loc 1 82 26 view .LVU43
 132 005e A670     		strb	r6, [r4, #2]
 133              		.loc 1 83 3 is_stmt 1 view .LVU44
 134              		.loc 1 83 30 is_stmt 0 view .LVU45
 135 0060 BCE80F00 		ldmia	ip!, {r0, r1, r2, r3}
 136 0064 0FC5     		stmia	r5!, {r0, r1, r2, r3}
 137 0066 9CE80F00 		ldm	ip, {r0, r1, r2, r3}
 138 006a 85E80F00 		stm	r5, {r0, r1, r2, r3}
 139              		.loc 1 85 3 is_stmt 1 view .LVU46
 140              		.loc 1 85 6 is_stmt 0 view .LVU47
 141 006e D7B9     		cbnz	r7, .L17
 142              	.L9:
 143 0070 0322     		movs	r2, #3
 144 0072 0423     		movs	r3, #4
 145              	.L6:
 146              		.loc 1 93 3 view .LVU48
 147 0074 1948     		ldr	r0, .L18+4
 148              		.loc 1 86 21 view .LVU49
 149 0076 2270     		strb	r2, [r4]
 150              		.loc 1 87 26 view .LVU50
 151 0078 6370     		strb	r3, [r4, #1]
 152              		.loc 1 93 3 is_stmt 1 view .LVU51
 153 007a FFF7FEFF 		bl	chMtxUnlock
 154              	.LVL12:
 155              		.loc 1 94 1 is_stmt 0 view .LVU52
 156 007e 0DB0     		add	sp, sp, #52
 157              		.cfi_remember_state
 158              		.cfi_def_cfa_offset 20
 159              		@ sp needed
 160 0080 F0BD     		pop	{r4, r5, r6, r7, pc}
 161              	.LVL13:
 162              	.L14:
 163              		.cfi_restore_state
 164              		.loc 1 50 5 is_stmt 1 view .LVU53
 165 0082 1648     		ldr	r0, .L18+4
 166 0084 FFF7FEFF 		bl	chMtxLock
 167              	.LVL14:
 168              		.loc 1 51 5 view .LVU54
 169              	.LBB12:
 170              	.LBI12:
 171              		.loc 1 18 13 view .LVU55
ARM GAS  C:\Users\DEVELO~1\AppData\Local\Temp\ccBkajkH.s 			page 4


 172              	.LBB13:
 173              		.loc 1 19 3 view .LVU56
 174              		.loc 1 20 3 view .LVU57
 175              		.loc 1 19 19 is_stmt 0 view .LVU58
 176 0088 4FF48273 		mov	r3, #260
 177              	.LBE13:
 178              	.LBE12:
 179              		.loc 1 52 5 view .LVU59
 180 008c 1348     		ldr	r0, .L18+4
 181              	.LBB15:
 182              	.LBB14:
 183              		.loc 1 19 19 view .LVU60
 184 008e 2380     		strh	r3, [r4]	@ movhi
 185              	.LVL15:
 186              		.loc 1 19 19 view .LVU61
 187              	.LBE14:
 188              	.LBE15:
 189              		.loc 1 52 5 is_stmt 1 view .LVU62
 190              	.L11:
 191              		.loc 1 67 5 view .LVU63
 192              		.loc 1 94 1 is_stmt 0 view .LVU64
 193 0090 0DB0     		add	sp, sp, #52
 194              		.cfi_remember_state
 195              		.cfi_def_cfa_offset 20
 196              		@ sp needed
 197 0092 BDE8F040 		pop	{r4, r5, r6, r7, lr}
 198              		.cfi_restore 14
 199              		.cfi_restore 7
 200              		.cfi_restore 6
 201              		.cfi_restore 5
 202              		.cfi_restore 4
 203              		.cfi_def_cfa_offset 0
 204              		.loc 1 67 5 view .LVU65
 205 0096 FFF7FEBF 		b	chMtxUnlock
 206              	.LVL16:
 207              	.L13:
 208              		.cfi_restore_state
 209              		.loc 1 39 5 is_stmt 1 view .LVU66
 210 009a 1048     		ldr	r0, .L18+4
 211              		.loc 1 67 5 view .LVU67
 212              		.loc 1 94 1 is_stmt 0 view .LVU68
 213 009c 0DB0     		add	sp, sp, #52
 214              		.cfi_remember_state
 215              		.cfi_def_cfa_offset 20
 216              		@ sp needed
 217 009e BDE8F040 		pop	{r4, r5, r6, r7, lr}
 218              		.cfi_restore 14
 219              		.cfi_restore 7
 220              		.cfi_restore 6
 221              		.cfi_restore 5
 222              		.cfi_restore 4
 223              		.cfi_def_cfa_offset 0
 224              		.loc 1 67 5 view .LVU69
 225 00a2 FFF7FEBF 		b	chMtxUnlock
 226              	.LVL17:
 227              	.L17:
 228              		.cfi_restore_state
ARM GAS  C:\Users\DEVELO~1\AppData\Local\Temp\ccBkajkH.s 			page 5


 229              		.loc 1 85 34 discriminator 1 view .LVU70
 230 00a6 9DF81030 		ldrb	r3, [sp, #16]	@ zero_extendqisi2
 231              		.loc 1 85 16 discriminator 1 view .LVU71
 232 00aa 002B     		cmp	r3, #0
 233 00ac E0D1     		bne	.L9
 234              		.loc 1 85 16 view .LVU72
 235 00ae 0222     		movs	r2, #2
 236 00b0 E0E7     		b	.L6
 237              	.LVL18:
 238              	.L16:
 239              		.loc 1 65 5 is_stmt 1 view .LVU73
 240 00b2 0A48     		ldr	r0, .L18+4
 241 00b4 FFF7FEFF 		bl	chMtxLock
 242              	.LVL19:
 243              		.loc 1 66 5 view .LVU74
 244              		.loc 1 66 21 is_stmt 0 view .LVU75
 245 00b8 0223     		movs	r3, #2
 246              		.loc 1 67 5 view .LVU76
 247 00ba 0848     		ldr	r0, .L18+4
 248              		.loc 1 66 21 view .LVU77
 249 00bc 2370     		strb	r3, [r4]
 250              		.loc 1 67 5 is_stmt 1 view .LVU78
 251              		.loc 1 94 1 is_stmt 0 view .LVU79
 252 00be 0DB0     		add	sp, sp, #52
 253              		.cfi_remember_state
 254              		.cfi_def_cfa_offset 20
 255              		@ sp needed
 256 00c0 BDE8F040 		pop	{r4, r5, r6, r7, lr}
 257              		.cfi_restore 14
 258              		.cfi_restore 7
 259              		.cfi_restore 6
 260              		.cfi_restore 5
 261              		.cfi_restore 4
 262              		.cfi_def_cfa_offset 0
 263              		.loc 1 67 5 view .LVU80
 264 00c4 FFF7FEBF 		b	chMtxUnlock
 265              	.LVL20:
 266              	.L15:
 267              		.cfi_restore_state
 268              		.loc 1 58 5 is_stmt 1 view .LVU81
 269 00c8 0448     		ldr	r0, .L18+4
 270 00ca FFF7FEFF 		bl	chMtxLock
 271              	.LVL21:
 272              		.loc 1 59 5 view .LVU82
 273              	.LBB16:
 274              	.LBI16:
 275              		.loc 1 18 13 view .LVU83
 276              	.LBB17:
 277              		.loc 1 19 3 view .LVU84
 278              		.loc 1 20 3 view .LVU85
 279              		.loc 1 19 19 is_stmt 0 view .LVU86
 280 00ce 40F20453 		movw	r3, #1284
 281              	.LBE17:
 282              	.LBE16:
 283              		.loc 1 60 5 view .LVU87
 284 00d2 0248     		ldr	r0, .L18+4
 285              	.LBB19:
ARM GAS  C:\Users\DEVELO~1\AppData\Local\Temp\ccBkajkH.s 			page 6


 286              	.LBB18:
 287              		.loc 1 19 19 view .LVU88
 288 00d4 2380     		strh	r3, [r4]	@ movhi
 289              	.LVL22:
 290              		.loc 1 19 19 view .LVU89
 291              	.LBE18:
 292              	.LBE19:
 293              		.loc 1 60 5 is_stmt 1 view .LVU90
 294 00d6 DBE7     		b	.L11
 295              	.L19:
 296              		.align	2
 297              	.L18:
 298 00d8 00000000 		.word	.LANCHOR1
 299 00dc 00000000 		.word	.LANCHOR0
 300              		.cfi_endproc
 301              	.LFE450:
 302              		.size	sdram_init, .-sdram_init
 303              		.section	.text.sdram_status,"ax",%progbits
 304              		.align	1
 305              		.p2align 2,,3
 306              		.global	sdram_status
 307              		.syntax unified
 308              		.thumb
 309              		.thumb_func
 310              		.type	sdram_status, %function
 311              	sdram_status:
 312              	.LFB451:
 313              		.loc 1 96 34 view -0
 314              		.cfi_startproc
 315              		@ args = 0, pretend = 0, frame = 0
 316              		@ frame_needed = 0, uses_anonymous_args = 0
 317              		.loc 1 97 3 view .LVU92
 318              		.loc 1 96 34 is_stmt 0 view .LVU93
 319 0000 10B5     		push	{r4, lr}
 320              		.cfi_def_cfa_offset 8
 321              		.cfi_offset 4, -8
 322              		.cfi_offset 14, -4
 323              		.loc 1 97 3 view .LVU94
 324 0002 0548     		ldr	r0, .L22
 325 0004 FFF7FEFF 		bl	chMtxLock
 326              	.LVL23:
 327              		.loc 1 98 3 is_stmt 1 view .LVU95
 328              		.loc 1 98 17 is_stmt 0 view .LVU96
 329 0008 044B     		ldr	r3, .L22+4
 330              		.loc 1 99 3 view .LVU97
 331 000a 0348     		ldr	r0, .L22
 332              		.loc 1 98 17 view .LVU98
 333 000c 1C78     		ldrb	r4, [r3]	@ zero_extendqisi2
 334              	.LVL24:
 335              		.loc 1 99 3 is_stmt 1 view .LVU99
 336 000e FFF7FEFF 		bl	chMtxUnlock
 337              	.LVL25:
 338              		.loc 1 100 3 view .LVU100
 339              		.loc 1 101 1 is_stmt 0 view .LVU101
 340 0012 2046     		mov	r0, r4
 341 0014 10BD     		pop	{r4, pc}
 342              	.LVL26:
ARM GAS  C:\Users\DEVELO~1\AppData\Local\Temp\ccBkajkH.s 			page 7


 343              	.L23:
 344              		.loc 1 101 1 view .LVU102
 345 0016 00BF     		.align	2
 346              	.L22:
 347 0018 00000000 		.word	.LANCHOR0
 348 001c 00000000 		.word	.LANCHOR1
 349              		.cfi_endproc
 350              	.LFE451:
 351              		.size	sdram_status, .-sdram_status
 352              		.section	.text.sdram_get_error,"ax",%progbits
 353              		.align	1
 354              		.p2align 2,,3
 355              		.global	sdram_get_error
 356              		.syntax unified
 357              		.thumb
 358              		.thumb_func
 359              		.type	sdram_get_error, %function
 360              	sdram_get_error:
 361              	.LFB452:
 362              		.loc 1 103 37 is_stmt 1 view -0
 363              		.cfi_startproc
 364              		@ args = 0, pretend = 0, frame = 0
 365              		@ frame_needed = 0, uses_anonymous_args = 0
 366              		.loc 1 104 3 view .LVU104
 367              		.loc 1 103 37 is_stmt 0 view .LVU105
 368 0000 10B5     		push	{r4, lr}
 369              		.cfi_def_cfa_offset 8
 370              		.cfi_offset 4, -8
 371              		.cfi_offset 14, -4
 372              		.loc 1 104 3 view .LVU106
 373 0002 0548     		ldr	r0, .L26
 374 0004 FFF7FEFF 		bl	chMtxLock
 375              	.LVL27:
 376              		.loc 1 105 3 is_stmt 1 view .LVU107
 377              		.loc 1 105 17 is_stmt 0 view .LVU108
 378 0008 044B     		ldr	r3, .L26+4
 379              		.loc 1 106 3 view .LVU109
 380 000a 0348     		ldr	r0, .L26
 381              		.loc 1 105 17 view .LVU110
 382 000c 5C78     		ldrb	r4, [r3, #1]	@ zero_extendqisi2
 383              	.LVL28:
 384              		.loc 1 106 3 is_stmt 1 view .LVU111
 385 000e FFF7FEFF 		bl	chMtxUnlock
 386              	.LVL29:
 387              		.loc 1 107 3 view .LVU112
 388              		.loc 1 108 1 is_stmt 0 view .LVU113
 389 0012 2046     		mov	r0, r4
 390 0014 10BD     		pop	{r4, pc}
 391              	.LVL30:
 392              	.L27:
 393              		.loc 1 108 1 view .LVU114
 394 0016 00BF     		.align	2
 395              	.L26:
 396 0018 00000000 		.word	.LANCHOR0
 397 001c 00000000 		.word	.LANCHOR1
 398              		.cfi_endproc
 399              	.LFE452:
ARM GAS  C:\Users\DEVELO~1\AppData\Local\Temp\ccBkajkH.s 			page 8


 400              		.size	sdram_get_error, .-sdram_get_error
 401              		.section	.text.sdram_run_bist,"ax",%progbits
 402              		.align	1
 403              		.p2align 2,,3
 404              		.global	sdram_run_bist
 405              		.syntax unified
 406              		.thumb
 407              		.thumb_func
 408              		.type	sdram_run_bist, %function
 409              	sdram_run_bist:
 410              	.LVL31:
 411              	.LFB453:
 412              		.loc 1 110 78 is_stmt 1 view -0
 413              		.cfi_startproc
 414              		@ args = 0, pretend = 0, frame = 48
 415              		@ frame_needed = 0, uses_anonymous_args = 0
 416              		.loc 1 111 3 view .LVU116
 417              		.loc 1 113 3 view .LVU117
 418              		.loc 1 110 78 is_stmt 0 view .LVU118
 419 0000 2DE9F043 		push	{r4, r5, r6, r7, r8, r9, lr}
 420              		.cfi_def_cfa_offset 28
 421              		.cfi_offset 4, -28
 422              		.cfi_offset 5, -24
 423              		.cfi_offset 6, -20
 424              		.cfi_offset 7, -16
 425              		.cfi_offset 8, -12
 426              		.cfi_offset 9, -8
 427              		.cfi_offset 14, -4
 428              		.loc 1 114 15 view .LVU119
 429 0004 2F4D     		ldr	r5, .L49
 430              		.loc 1 110 78 view .LVU120
 431 0006 8DB0     		sub	sp, sp, #52
 432              		.cfi_def_cfa_offset 80
 433              		.loc 1 110 78 view .LVU121
 434 0008 0646     		mov	r6, r0
 435              		.loc 1 113 3 view .LVU122
 436 000a 2F48     		ldr	r0, .L49+4
 437              	.LVL32:
 438              		.loc 1 110 78 view .LVU123
 439 000c 0C46     		mov	r4, r1
 440              		.loc 1 113 3 view .LVU124
 441 000e FFF7FEFF 		bl	chMtxLock
 442              	.LVL33:
 443              		.loc 1 114 3 is_stmt 1 view .LVU125
 444              		.loc 1 114 15 is_stmt 0 view .LVU126
 445 0012 95F80090 		ldrb	r9, [r5]	@ zero_extendqisi2
 446              	.LVL34:
 447              		.loc 1 116 3 is_stmt 1 view .LVU127
 448              		.loc 1 116 6 is_stmt 0 view .LVU128
 449 0016 B9F1010F 		cmp	r9, #1
 450 001a 04D9     		bls	.L29
 451              		.loc 1 116 85 discriminator 1 view .LVU129
 452 001c 95F80280 		ldrb	r8, [r5, #2]	@ zero_extendqisi2
 453 0020 B8F1000F 		cmp	r8, #0
 454 0024 07D0     		beq	.L30
 455              	.L29:
 456              		.loc 1 117 5 is_stmt 1 view .LVU130
ARM GAS  C:\Users\DEVELO~1\AppData\Local\Temp\ccBkajkH.s 			page 9


 457              		.loc 1 118 12 is_stmt 0 view .LVU131
 458 0026 0027     		movs	r7, #0
 459              		.loc 1 117 5 view .LVU132
 460 0028 2748     		ldr	r0, .L49+4
 461 002a FFF7FEFF 		bl	chMtxUnlock
 462              	.LVL35:
 463              		.loc 1 118 5 is_stmt 1 view .LVU133
 464              		.loc 1 157 1 is_stmt 0 view .LVU134
 465 002e 3846     		mov	r0, r7
 466 0030 0DB0     		add	sp, sp, #52
 467              		.cfi_remember_state
 468              		.cfi_def_cfa_offset 28
 469              		@ sp needed
 470 0032 BDE8F083 		pop	{r4, r5, r6, r7, r8, r9, pc}
 471              	.LVL36:
 472              	.L30:
 473              		.cfi_restore_state
 474              		.loc 1 121 3 is_stmt 1 view .LVU135
 475              		.loc 1 121 26 is_stmt 0 view .LVU136
 476 0036 0123     		movs	r3, #1
 477              		.loc 1 122 3 view .LVU137
 478 0038 2348     		ldr	r0, .L49+4
 479              		.loc 1 121 26 view .LVU138
 480 003a AB70     		strb	r3, [r5, #2]
 481              		.loc 1 122 3 is_stmt 1 view .LVU139
 482 003c FFF7FEFF 		bl	chMtxUnlock
 483              	.LVL37:
 484              		.loc 1 124 3 view .LVU140
 485              		.loc 1 124 24 is_stmt 0 view .LVU141
 486 0040 2C22     		movs	r2, #44
 487 0042 4146     		mov	r1, r8
 488 0044 01A8     		add	r0, sp, #4
 489 0046 FFF7FEFF 		bl	memset
 490              	.LVL38:
 491              		.loc 1 125 3 is_stmt 1 view .LVU142
 492              		.loc 1 127 18 is_stmt 0 view .LVU143
 493 004a 01A8     		add	r0, sp, #4
 494              		.loc 1 125 12 view .LVU144
 495 004c 8DF80460 		strb	r6, [sp, #4]
 496              		.loc 1 127 3 is_stmt 1 view .LVU145
 497              		.loc 1 127 18 is_stmt 0 view .LVU146
 498 0050 FFF7FEFF 		bl	sdram_bist_start
 499              	.LVL39:
 500 0054 0746     		mov	r7, r0
 501              	.LVL40:
 502              		.loc 1 129 3 is_stmt 1 view .LVU147
 503 0056 1C48     		ldr	r0, .L49+4
 504 0058 FFF7FEFF 		bl	chMtxLock
 505              	.LVL41:
 506              		.loc 1 130 3 view .LVU148
 507              		.loc 1 130 26 is_stmt 0 view .LVU149
 508 005c 85F80280 		strb	r8, [r5, #2]
 509              		.loc 1 132 3 is_stmt 1 view .LVU150
 510              		.loc 1 132 6 is_stmt 0 view .LVU151
 511 0060 BFB1     		cbz	r7, .L33
 512              		.loc 1 133 5 is_stmt 1 view .LVU152
 513              		.loc 1 133 32 is_stmt 0 view .LVU153
ARM GAS  C:\Users\DEVELO~1\AppData\Local\Temp\ccBkajkH.s 			page 10


 514 0062 0DF1100E 		add	lr, sp, #16
 515 0066 05F1040C 		add	ip, r5, #4
 516              		.loc 1 135 8 view .LVU154
 517 006a 9DF81080 		ldrb	r8, [sp, #16]	@ zero_extendqisi2
 518              		.loc 1 133 32 view .LVU155
 519 006e BEE80F00 		ldmia	lr!, {r0, r1, r2, r3}
 520 0072 ACE80F00 		stmia	ip!, {r0, r1, r2, r3}
 521 0076 9EE80F00 		ldm	lr, {r0, r1, r2, r3}
 522 007a 8CE80F00 		stm	ip, {r0, r1, r2, r3}
 523              		.loc 1 135 5 is_stmt 1 view .LVU156
 524              		.loc 1 135 8 is_stmt 0 view .LVU157
 525 007e B8F1000F 		cmp	r8, #0
 526 0082 17D1     		bne	.L34
 527              		.loc 1 136 7 is_stmt 1 view .LVU158
 528              		.loc 1 136 10 is_stmt 0 view .LVU159
 529 0084 B9F1030F 		cmp	r9, #3
 530 0088 03D1     		bne	.L33
 531 008a 012E     		cmp	r6, #1
 532 008c 01D1     		bne	.L33
 533              		.loc 1 137 9 is_stmt 1 view .LVU160
 534              		.loc 1 138 9 view .LVU161
 535              		.loc 1 137 25 is_stmt 0 view .LVU162
 536 008e 0223     		movs	r3, #2
 537 0090 2B80     		strh	r3, [r5]	@ movhi
 538              	.L33:
 539              		.loc 1 151 3 is_stmt 1 view .LVU163
 540              		.loc 1 151 6 is_stmt 0 view .LVU164
 541 0092 44B1     		cbz	r4, .L37
 542              		.loc 1 152 5 is_stmt 1 view .LVU165
 543              		.loc 1 152 17 is_stmt 0 view .LVU166
 544 0094 0D4D     		ldr	r5, .L49+8
 545 0096 A446     		mov	ip, r4
 546 0098 0FCD     		ldmia	r5!, {r0, r1, r2, r3}
 547 009a ACE80F00 		stmia	ip!, {r0, r1, r2, r3}
 548 009e 95E80F00 		ldm	r5, {r0, r1, r2, r3}
 549 00a2 8CE80F00 		stm	ip, {r0, r1, r2, r3}
 550              	.L37:
 551              		.loc 1 155 3 is_stmt 1 view .LVU167
 552 00a6 0848     		ldr	r0, .L49+4
 553 00a8 FFF7FEFF 		bl	chMtxUnlock
 554              	.LVL42:
 555              		.loc 1 156 3 view .LVU168
 556              		.loc 1 157 1 is_stmt 0 view .LVU169
 557 00ac 3846     		mov	r0, r7
 558 00ae 0DB0     		add	sp, sp, #52
 559              		.cfi_remember_state
 560              		.cfi_def_cfa_offset 28
 561              		@ sp needed
 562 00b0 BDE8F083 		pop	{r4, r5, r6, r7, r8, r9, pc}
 563              	.LVL43:
 564              	.L34:
 565              		.cfi_restore_state
 566              		.loc 1 141 7 is_stmt 1 view .LVU170
 567              		.loc 1 141 28 is_stmt 0 view .LVU171
 568 00b4 0423     		movs	r3, #4
 569              		.loc 1 143 10 view .LVU172
 570 00b6 012E     		cmp	r6, #1
ARM GAS  C:\Users\DEVELO~1\AppData\Local\Temp\ccBkajkH.s 			page 11


 571              		.loc 1 141 28 view .LVU173
 572 00b8 6B70     		strb	r3, [r5, #1]
 573              		.loc 1 143 7 is_stmt 1 view .LVU174
 574              		.loc 1 144 9 view .LVU175
 575              		.loc 1 146 9 view .LVU176
 576              		.loc 1 146 25 is_stmt 0 view .LVU177
 577 00ba 18BF     		it	ne
 578 00bc 0323     		movne	r3, #3
 579 00be 2B70     		strb	r3, [r5]
 580 00c0 E7E7     		b	.L33
 581              	.L50:
 582 00c2 00BF     		.align	2
 583              	.L49:
 584 00c4 00000000 		.word	.LANCHOR1
 585 00c8 00000000 		.word	.LANCHOR0
 586 00cc 04000000 		.word	.LANCHOR1+4
 587              		.cfi_endproc
 588              	.LFE453:
 589              		.size	sdram_run_bist, .-sdram_run_bist
 590              		.section	.text.sdram_get_region,"ax",%progbits
 591              		.align	1
 592              		.p2align 2,,3
 593              		.global	sdram_get_region
 594              		.syntax unified
 595              		.thumb
 596              		.thumb_func
 597              		.type	sdram_get_region, %function
 598              	sdram_get_region:
 599              	.LVL44:
 600              	.LFB454:
 601              		.loc 1 159 83 is_stmt 1 view -0
 602              		.cfi_startproc
 603              		@ args = 0, pretend = 0, frame = 0
 604              		@ frame_needed = 0, uses_anonymous_args = 0
 605              		.loc 1 160 3 view .LVU179
 606              		.loc 1 159 83 is_stmt 0 view .LVU180
 607 0000 F8B5     		push	{r3, r4, r5, r6, r7, lr}
 608              		.cfi_def_cfa_offset 24
 609              		.cfi_offset 3, -24
 610              		.cfi_offset 4, -20
 611              		.cfi_offset 5, -16
 612              		.cfi_offset 6, -12
 613              		.cfi_offset 7, -8
 614              		.cfi_offset 14, -4
 615              		.loc 1 160 6 view .LVU181
 616 0002 0C46     		mov	r4, r1
 617 0004 E9B1     		cbz	r1, .L56
 618              		.loc 1 164 3 is_stmt 1 view .LVU182
 619 0006 0546     		mov	r5, r0
 620 0008 0F48     		ldr	r0, .L64
 621              	.LVL45:
 622              		.loc 1 164 3 is_stmt 0 view .LVU183
 623 000a FFF7FEFF 		bl	chMtxLock
 624              	.LVL46:
 625              		.loc 1 165 3 is_stmt 1 view .LVU184
 626              		.loc 1 165 17 is_stmt 0 view .LVU185
 627 000e 0F4B     		ldr	r3, .L64+4
ARM GAS  C:\Users\DEVELO~1\AppData\Local\Temp\ccBkajkH.s 			page 12


 628              		.loc 1 167 3 view .LVU186
 629 0010 0D48     		ldr	r0, .L64
 630              		.loc 1 165 17 view .LVU187
 631 0012 1E78     		ldrb	r6, [r3]	@ zero_extendqisi2
 632              	.LVL47:
 633              		.loc 1 166 3 is_stmt 1 view .LVU188
 634              		.loc 1 166 8 is_stmt 0 view .LVU189
 635 0014 9F78     		ldrb	r7, [r3, #2]	@ zero_extendqisi2
 636              	.LVL48:
 637              		.loc 1 167 3 is_stmt 1 view .LVU190
 638 0016 FFF7FEFF 		bl	chMtxUnlock
 639              	.LVL49:
 640              		.loc 1 169 3 view .LVU191
 641              		.loc 1 169 6 is_stmt 0 view .LVU192
 642 001a 042E     		cmp	r6, #4
 643 001c 08D0     		beq	.L55
 644 001e 3FB9     		cbnz	r7, .L55
 645              		.loc 1 174 3 is_stmt 1 view .LVU193
 646              		.loc 1 174 6 is_stmt 0 view .LVU194
 647 0020 032D     		cmp	r5, #3
 648 0022 05D0     		beq	.L55
 649              		.loc 1 179 3 is_stmt 1 view .LVU195
 650              		.loc 1 179 8 is_stmt 0 view .LVU196
 651 0024 2146     		mov	r1, r4
 652 0026 2846     		mov	r0, r5
 653 0028 FFF7FEFF 		bl	sdram_query_region_descriptor
 654              	.LVL50:
 655              		.loc 1 179 6 view .LVU197
 656 002c 00B1     		cbz	r0, .L55
 657              		.loc 1 185 1 view .LVU198
 658 002e F8BD     		pop	{r3, r4, r5, r6, r7, pc}
 659              	.LVL51:
 660              	.L55:
 661              		.loc 1 170 5 is_stmt 1 view .LVU199
 662              	.LBB20:
 663              	.LBI20:
 664              		.loc 1 23 13 view .LVU200
 665              	.LBB21:
 666              		.loc 1 24 3 view .LVU201
 667              		.loc 1 28 3 view .LVU202
 668              		.loc 1 29 14 is_stmt 0 view .LVU203
 669 0030 0023     		movs	r3, #0
 670              		.loc 1 28 12 view .LVU204
 671 0032 0422     		movs	r2, #4
 672              	.LBE21:
 673              	.LBE20:
 674              		.loc 1 171 12 view .LVU205
 675 0034 1846     		mov	r0, r3
 676              	.LBB23:
 677              	.LBB22:
 678              		.loc 1 28 12 view .LVU206
 679 0036 2270     		strb	r2, [r4]
 680              		.loc 1 29 3 is_stmt 1 view .LVU207
 681              		.loc 1 30 20 is_stmt 0 view .LVU208
 682 0038 C4E90133 		strd	r3, r3, [r4, #4]
 683              		.loc 1 31 3 is_stmt 1 view .LVU209
 684              		.loc 1 32 25 is_stmt 0 view .LVU210
ARM GAS  C:\Users\DEVELO~1\AppData\Local\Temp\ccBkajkH.s 			page 13


 685 003c C4E90333 		strd	r3, r3, [r4, #12]
 686              	.LVL52:
 687              		.loc 1 32 25 view .LVU211
 688              	.LBE22:
 689              	.LBE23:
 690              		.loc 1 171 5 is_stmt 1 view .LVU212
 691              		.loc 1 185 1 is_stmt 0 view .LVU213
 692 0040 F8BD     		pop	{r3, r4, r5, r6, r7, pc}
 693              	.LVL53:
 694              	.L56:
 695              		.loc 1 161 12 view .LVU214
 696 0042 0846     		mov	r0, r1
 697              	.LVL54:
 698              		.loc 1 185 1 view .LVU215
 699 0044 F8BD     		pop	{r3, r4, r5, r6, r7, pc}
 700              	.L65:
 701 0046 00BF     		.align	2
 702              	.L64:
 703 0048 00000000 		.word	.LANCHOR0
 704 004c 00000000 		.word	.LANCHOR1
 705              		.cfi_endproc
 706              	.LFE454:
 707              		.size	sdram_get_region, .-sdram_get_region
 708              		.global	sdram_ctx_mtx
 709              		.global	sdram_ctx
 710              		.section	.bss.sdram_ctx,"aw",%nobits
 711              		.align	2
 712              		.set	.LANCHOR1,. + 0
 713              		.type	sdram_ctx, %object
 714              		.size	sdram_ctx, 36
 715              	sdram_ctx:
 716 0000 00000000 		.space	36
 716      00000000 
 716      00000000 
 716      00000000 
 716      00000000 
 717              		.section	.data.sdram_ctx_mtx,"aw"
 718              		.align	2
 719              		.set	.LANCHOR0,. + 0
 720              		.type	sdram_ctx_mtx, %object
 721              		.size	sdram_ctx_mtx, 16
 722              	sdram_ctx_mtx:
 723 0000 00000000 		.word	sdram_ctx_mtx
 724 0004 00000000 		.word	sdram_ctx_mtx
 725 0008 00000000 		.word	0
 726 000c 00000000 		.word	0
 727              		.text
 728              	.Letext0:
 729              		.file 2 "c:\\chibistudio\\tools\\gnu tools arm embedded\\11.3 2022.08\\lib\\gcc\\arm-none-eabi\\11
 730              		.file 3 "c:\\chibistudio\\tools\\gnu tools arm embedded\\11.3 2022.08\\arm-none-eabi\\include\\mac
 731              		.file 4 "c:\\chibistudio\\tools\\gnu tools arm embedded\\11.3 2022.08\\arm-none-eabi\\include\\sys
 732              		.file 5 "./docs/ChibiOS/os/common/ports/ARM-common/include/chtypes.h"
 733              		.file 6 "./docs/ChibiOS/os/rt/include/chearly.h"
 734              		.file 7 "./docs/ChibiOS/os/rt/include/chobjects.h"
 735              		.file 8 "./docs/ChibiOS/os/rt/include/chrfcu.h"
 736              		.file 9 "./docs/ChibiOS/os/rt/include/chdebug.h"
 737              		.file 10 "./docs/ChibiOS/os/rt/include/chtime.h"
ARM GAS  C:\Users\DEVELO~1\AppData\Local\Temp\ccBkajkH.s 			page 14


 738              		.file 11 "./docs/ChibiOS/os/rt/include/chtrace.h"
 739              		.file 12 "./docs/ChibiOS/os/common/ports/ARMv7-M/chcore.h"
 740              		.file 13 "./docs/ChibiOS/os/rt/include/chlists.h"
 741              		.file 14 "./docs/ChibiOS/os/rt/include/chsem.h"
 742              		.file 15 "./docs/ChibiOS/os/rt/include/chmtx.h"
 743              		.file 16 "drivers/sdram/sdram_driver.h"
 744              		.file 17 "drivers/sdram/sdram_driver_priv.h"
 745              		.file 18 "<built-in>"
 746              		.section	.debug_info,"",%progbits
 747              	.Ldebug_info0:
 748 0000 F2110000 		.4byte	0x11f2
 749 0004 0500     		.2byte	0x5
 750 0006 01       		.byte	0x1
 751 0007 04       		.byte	0x4
 752 0008 00000000 		.4byte	.Ldebug_abbrev0
 753 000c 25       		.uleb128 0x25
 754 000d FD010000 		.4byte	.LASF209
 755 0011 1D       		.byte	0x1d
 756 0012 68040000 		.4byte	.LASF210
 757 0016 41050000 		.4byte	.LASF211
 758 001a 30000000 		.4byte	.LLRL18
 759 001e 00000000 		.4byte	0
 760 0022 00000000 		.4byte	.Ldebug_line0
 761 0026 26       		.uleb128 0x26
 762 0027 04       		.byte	0x4
 763 0028 05       		.byte	0x5
 764 0029 696E7400 		.ascii	"int\000"
 765 002d 02       		.uleb128 0x2
 766 002e 23040000 		.4byte	.LASF4
 767 0032 02       		.byte	0x2
 768 0033 D1       		.byte	0xd1
 769 0034 17       		.byte	0x17
 770 0035 39000000 		.4byte	0x39
 771 0039 09       		.uleb128 0x9
 772 003a 04       		.byte	0x4
 773 003b 07       		.byte	0x7
 774 003c D2000000 		.4byte	.LASF0
 775 0040 09       		.uleb128 0x9
 776 0041 08       		.byte	0x8
 777 0042 05       		.byte	0x5
 778 0043 2C060000 		.4byte	.LASF1
 779 0047 09       		.uleb128 0x9
 780 0048 08       		.byte	0x8
 781 0049 04       		.byte	0x4
 782 004a 52070000 		.4byte	.LASF2
 783 004e 09       		.uleb128 0x9
 784 004f 01       		.byte	0x1
 785 0050 06       		.byte	0x6
 786 0051 950A0000 		.4byte	.LASF3
 787 0055 02       		.uleb128 0x2
 788 0056 B3080000 		.4byte	.LASF5
 789 005a 03       		.byte	0x3
 790 005b 2B       		.byte	0x2b
 791 005c 18       		.byte	0x18
 792 005d 61000000 		.4byte	0x61
 793 0061 09       		.uleb128 0x9
 794 0062 01       		.byte	0x1
ARM GAS  C:\Users\DEVELO~1\AppData\Local\Temp\ccBkajkH.s 			page 15


 795 0063 08       		.byte	0x8
 796 0064 FD090000 		.4byte	.LASF6
 797 0068 09       		.uleb128 0x9
 798 0069 02       		.byte	0x2
 799 006a 05       		.byte	0x5
 800 006b E3070000 		.4byte	.LASF7
 801 006f 02       		.uleb128 0x2
 802 0070 A3030000 		.4byte	.LASF8
 803 0074 03       		.byte	0x3
 804 0075 39       		.byte	0x39
 805 0076 19       		.byte	0x19
 806 0077 7B000000 		.4byte	0x7b
 807 007b 09       		.uleb128 0x9
 808 007c 02       		.byte	0x2
 809 007d 07       		.byte	0x7
 810 007e B40A0000 		.4byte	.LASF9
 811 0082 02       		.uleb128 0x2
 812 0083 01010000 		.4byte	.LASF10
 813 0087 03       		.byte	0x3
 814 0088 4D       		.byte	0x4d
 815 0089 18       		.byte	0x18
 816 008a 8E000000 		.4byte	0x8e
 817 008e 09       		.uleb128 0x9
 818 008f 04       		.byte	0x4
 819 0090 05       		.byte	0x5
 820 0091 00000000 		.4byte	.LASF11
 821 0095 02       		.uleb128 0x2
 822 0096 0B0A0000 		.4byte	.LASF12
 823 009a 03       		.byte	0x3
 824 009b 4F       		.byte	0x4f
 825 009c 19       		.byte	0x19
 826 009d A1000000 		.4byte	0xa1
 827 00a1 09       		.uleb128 0x9
 828 00a2 04       		.byte	0x4
 829 00a3 07       		.byte	0x7
 830 00a4 57090000 		.4byte	.LASF13
 831 00a8 02       		.uleb128 0x2
 832 00a9 8F050000 		.4byte	.LASF14
 833 00ad 03       		.byte	0x3
 834 00ae 69       		.byte	0x69
 835 00af 19       		.byte	0x19
 836 00b0 B4000000 		.4byte	0xb4
 837 00b4 09       		.uleb128 0x9
 838 00b5 08       		.byte	0x8
 839 00b6 07       		.byte	0x7
 840 00b7 4C030000 		.4byte	.LASF15
 841 00bb 02       		.uleb128 0x2
 842 00bc AD070000 		.4byte	.LASF16
 843 00c0 03       		.byte	0x3
 844 00c1 E8       		.byte	0xe8
 845 00c2 1A       		.byte	0x1a
 846 00c3 39000000 		.4byte	0x39
 847 00c7 02       		.uleb128 0x2
 848 00c8 A4050000 		.4byte	.LASF17
 849 00cc 04       		.byte	0x4
 850 00cd 18       		.byte	0x18
 851 00ce 13       		.byte	0x13
ARM GAS  C:\Users\DEVELO~1\AppData\Local\Temp\ccBkajkH.s 			page 16


 852 00cf 55000000 		.4byte	0x55
 853 00d3 02       		.uleb128 0x2
 854 00d4 9A070000 		.4byte	.LASF18
 855 00d8 04       		.byte	0x4
 856 00d9 24       		.byte	0x24
 857 00da 14       		.byte	0x14
 858 00db 6F000000 		.4byte	0x6f
 859 00df 02       		.uleb128 0x2
 860 00e0 84090000 		.4byte	.LASF19
 861 00e4 04       		.byte	0x4
 862 00e5 2C       		.byte	0x2c
 863 00e6 13       		.byte	0x13
 864 00e7 82000000 		.4byte	0x82
 865 00eb 02       		.uleb128 0x2
 866 00ec E4000000 		.4byte	.LASF20
 867 00f0 04       		.byte	0x4
 868 00f1 30       		.byte	0x30
 869 00f2 14       		.byte	0x14
 870 00f3 95000000 		.4byte	0x95
 871 00f7 02       		.uleb128 0x2
 872 00f8 7C080000 		.4byte	.LASF21
 873 00fc 04       		.byte	0x4
 874 00fd 3C       		.byte	0x3c
 875 00fe 14       		.byte	0x14
 876 00ff A8000000 		.4byte	0xa8
 877 0103 1A       		.uleb128 0x1a
 878 0104 F7000000 		.4byte	0xf7
 879 0108 02       		.uleb128 0x2
 880 0109 26090000 		.4byte	.LASF22
 881 010d 04       		.byte	0x4
 882 010e 52       		.byte	0x52
 883 010f 15       		.byte	0x15
 884 0110 BB000000 		.4byte	0xbb
 885 0114 02       		.uleb128 0x2
 886 0115 40000000 		.4byte	.LASF23
 887 0119 05       		.byte	0x5
 888 011a 48       		.byte	0x48
 889 011b 1D       		.byte	0x1d
 890 011c F7000000 		.4byte	0xf7
 891 0120 02       		.uleb128 0x2
 892 0121 C7030000 		.4byte	.LASF24
 893 0125 06       		.byte	0x6
 894 0126 50       		.byte	0x50
 895 0127 19       		.byte	0x19
 896 0128 14010000 		.4byte	0x114
 897 012c 02       		.uleb128 0x2
 898 012d 3F070000 		.4byte	.LASF25
 899 0131 06       		.byte	0x6
 900 0132 53       		.byte	0x53
 901 0133 19       		.byte	0x19
 902 0134 C7000000 		.4byte	0xc7
 903 0138 02       		.uleb128 0x2
 904 0139 7F050000 		.4byte	.LASF26
 905 013d 06       		.byte	0x6
 906 013e 54       		.byte	0x54
 907 013f 19       		.byte	0x19
 908 0140 C7000000 		.4byte	0xc7
ARM GAS  C:\Users\DEVELO~1\AppData\Local\Temp\ccBkajkH.s 			page 17


 909 0144 02       		.uleb128 0x2
 910 0145 4F090000 		.4byte	.LASF27
 911 0149 06       		.byte	0x6
 912 014a 55       		.byte	0x55
 913 014b 19       		.byte	0x19
 914 014c C7000000 		.4byte	0xc7
 915 0150 02       		.uleb128 0x2
 916 0151 13030000 		.4byte	.LASF28
 917 0155 06       		.byte	0x6
 918 0156 57       		.byte	0x57
 919 0157 19       		.byte	0x19
 920 0158 EB000000 		.4byte	0xeb
 921 015c 02       		.uleb128 0x2
 922 015d 57060000 		.4byte	.LASF29
 923 0161 06       		.byte	0x6
 924 0162 58       		.byte	0x58
 925 0163 19       		.byte	0x19
 926 0164 DF000000 		.4byte	0xdf
 927 0168 02       		.uleb128 0x2
 928 0169 C0020000 		.4byte	.LASF30
 929 016d 06       		.byte	0x6
 930 016e 5A       		.byte	0x5a
 931 016f 19       		.byte	0x19
 932 0170 EB000000 		.4byte	0xeb
 933 0174 02       		.uleb128 0x2
 934 0175 AE030000 		.4byte	.LASF31
 935 0179 06       		.byte	0x6
 936 017a 5C       		.byte	0x5c
 937 017b 19       		.byte	0x19
 938 017c DF000000 		.4byte	0xdf
 939 0180 02       		.uleb128 0x2
 940 0181 190B0000 		.4byte	.LASF32
 941 0185 06       		.byte	0x6
 942 0186 80       		.byte	0x80
 943 0187 12       		.byte	0x12
 944 0188 39000000 		.4byte	0x39
 945 018c 02       		.uleb128 0x2
 946 018d 15040000 		.4byte	.LASF33
 947 0191 06       		.byte	0x6
 948 0192 85       		.byte	0x85
 949 0193 1A       		.byte	0x1a
 950 0194 98010000 		.4byte	0x198
 951 0198 0A       		.uleb128 0xa
 952 0199 E4050000 		.4byte	.LASF50
 953 019d 50       		.byte	0x50
 954 019e 07       		.byte	0x7
 955 019f A9       		.byte	0xa9
 956 01a0 08       		.byte	0x8
 957 01a1 8F020000 		.4byte	0x28f
 958 01a5 0B       		.uleb128 0xb
 959 01a6 68647200 		.ascii	"hdr\000"
 960 01aa 07       		.byte	0x7
 961 01ab BA       		.byte	0xba
 962 01ac 05       		.byte	0x5
 963 01ad 5B080000 		.4byte	0x85b
 964 01b1 00       		.byte	0
 965 01b2 0B       		.uleb128 0xb
ARM GAS  C:\Users\DEVELO~1\AppData\Local\Temp\ccBkajkH.s 			page 18


 966 01b3 63747800 		.ascii	"ctx\000"
 967 01b7 07       		.byte	0x7
 968 01b8 BE       		.byte	0xbe
 969 01b9 21       		.byte	0x21
 970 01ba AC060000 		.4byte	0x6ac
 971 01be 0C       		.byte	0xc
 972 01bf 01       		.uleb128 0x1
 973 01c0 D6030000 		.4byte	.LASF34
 974 01c4 07       		.byte	0x7
 975 01c5 C2       		.byte	0xc2
 976 01c6 22       		.byte	0x22
 977 01c7 5F090000 		.4byte	0x95f
 978 01cb 10       		.byte	0x10
 979 01cc 01       		.uleb128 0x1
 980 01cd 3A050000 		.4byte	.LASF35
 981 01d1 07       		.byte	0x7
 982 01d2 C8       		.byte	0xc8
 983 01d3 22       		.byte	0x22
 984 01d4 64090000 		.4byte	0x964
 985 01d8 14       		.byte	0x14
 986 01d9 01       		.uleb128 0x1
 987 01da 46080000 		.4byte	.LASF36
 988 01de 07       		.byte	0x7
 989 01df CD       		.byte	0xcd
 990 01e0 21       		.byte	0x21
 991 01e1 64090000 		.4byte	0x964
 992 01e5 18       		.byte	0x18
 993 01e6 01       		.uleb128 0x1
 994 01e7 530A0000 		.4byte	.LASF37
 995 01eb 07       		.byte	0x7
 996 01ec D1       		.byte	0xd1
 997 01ed 21       		.byte	0x21
 998 01ee 38010000 		.4byte	0x138
 999 01f2 1C       		.byte	0x1c
 1000 01f3 01       		.uleb128 0x1
 1001 01f4 7C000000 		.4byte	.LASF38
 1002 01f8 07       		.byte	0x7
 1003 01f9 D5       		.byte	0xd5
 1004 01fa 21       		.byte	0x21
 1005 01fb 2C010000 		.4byte	0x12c
 1006 01ff 1D       		.byte	0x1d
 1007 0200 01       		.uleb128 0x1
 1008 0201 0B010000 		.4byte	.LASF39
 1009 0205 07       		.byte	0x7
 1010 0206 DA       		.byte	0xda
 1011 0207 21       		.byte	0x21
 1012 0208 44010000 		.4byte	0x144
 1013 020c 1E       		.byte	0x1e
 1014 020d 01       		.uleb128 0x1
 1015 020e D4080000 		.4byte	.LASF40
 1016 0212 07       		.byte	0x7
 1017 0213 DE       		.byte	0xde
 1018 0214 22       		.byte	0x22
 1019 0215 7C030000 		.4byte	0x37c
 1020 0219 20       		.byte	0x20
 1021 021a 01       		.uleb128 0x1
 1022 021b 88050000 		.4byte	.LASF41
ARM GAS  C:\Users\DEVELO~1\AppData\Local\Temp\ccBkajkH.s 			page 19


 1023 021f 07       		.byte	0x7
 1024 0220 E2       		.byte	0xe2
 1025 0221 21       		.byte	0x21
 1026 0222 F9060000 		.4byte	0x6f9
 1027 0226 24       		.byte	0x24
 1028 0227 01       		.uleb128 0x1
 1029 0228 38000000 		.4byte	.LASF42
 1030 022c 07       		.byte	0x7
 1031 022d E8       		.byte	0xe8
 1032 022e 21       		.byte	0x21
 1033 022f 3F080000 		.4byte	0x83f
 1034 0233 2C       		.byte	0x2c
 1035 0234 01       		.uleb128 0x1
 1036 0235 8B040000 		.4byte	.LASF43
 1037 0239 07       		.byte	0x7
 1038 023a EE       		.byte	0xee
 1039 023b 22       		.byte	0x22
 1040 023c DF030000 		.4byte	0x3df
 1041 0240 30       		.byte	0x30
 1042 0241 04       		.uleb128 0x4
 1043 0242 7500     		.ascii	"u\000"
 1044 0244 07       		.byte	0x7
 1045 0245 3F01     		.2byte	0x13f
 1046 0247 21       		.byte	0x21
 1047 0248 88080000 		.4byte	0x888
 1048 024c 34       		.byte	0x34
 1049 024d 06       		.uleb128 0x6
 1050 024e 160A0000 		.4byte	.LASF44
 1051 0252 4401     		.2byte	0x144
 1052 0254 21       		.byte	0x21
 1053 0255 CD060000 		.4byte	0x6cd
 1054 0259 38       		.byte	0x38
 1055 025a 06       		.uleb128 0x6
 1056 025b B3050000 		.4byte	.LASF45
 1057 025f 4A01     		.2byte	0x14a
 1058 0261 21       		.byte	0x21
 1059 0262 F9060000 		.4byte	0x6f9
 1060 0266 3C       		.byte	0x3c
 1061 0267 06       		.uleb128 0x6
 1062 0268 C9000000 		.4byte	.LASF46
 1063 026c 5001     		.2byte	0x150
 1064 026e 21       		.byte	0x21
 1065 026f 68010000 		.4byte	0x168
 1066 0273 44       		.byte	0x44
 1067 0274 06       		.uleb128 0x6
 1068 0275 F1030000 		.4byte	.LASF47
 1069 0279 5701     		.2byte	0x157
 1070 027b 22       		.byte	0x22
 1071 027c 5A090000 		.4byte	0x95a
 1072 0280 48       		.byte	0x48
 1073 0281 06       		.uleb128 0x6
 1074 0282 97000000 		.4byte	.LASF48
 1075 0286 5B01     		.2byte	0x15b
 1076 0288 21       		.byte	0x21
 1077 0289 50010000 		.4byte	0x150
 1078 028d 4C       		.byte	0x4c
 1079 028e 00       		.byte	0
ARM GAS  C:\Users\DEVELO~1\AppData\Local\Temp\ccBkajkH.s 			page 20


 1080 028f 02       		.uleb128 0x2
 1081 0290 590A0000 		.4byte	.LASF49
 1082 0294 06       		.byte	0x6
 1083 0295 8A       		.byte	0x8a
 1084 0296 1F       		.byte	0x1f
 1085 0297 9B020000 		.4byte	0x29b
 1086 029b 27       		.uleb128 0x27
 1087 029c C8040000 		.4byte	.LASF51
 1088 02a0 F008     		.2byte	0x8f0
 1089 02a2 07       		.byte	0x7
 1090 02a3 9701     		.2byte	0x197
 1091 02a5 08       		.byte	0x8
 1092 02a6 2E030000 		.4byte	0x32e
 1093 02aa 06       		.uleb128 0x6
 1094 02ab 85080000 		.4byte	.LASF52
 1095 02af 9B01     		.2byte	0x19b
 1096 02b1 21       		.byte	0x21
 1097 02b2 92090000 		.4byte	0x992
 1098 02b6 00       		.byte	0
 1099 02b7 06       		.uleb128 0x6
 1100 02b8 2C010000 		.4byte	.LASF53
 1101 02bc 9F01     		.2byte	0x19f
 1102 02be 21       		.byte	0x21
 1103 02bf 00080000 		.4byte	0x800
 1104 02c3 10       		.byte	0x10
 1105 02c4 06       		.uleb128 0x6
 1106 02c5 790A0000 		.4byte	.LASF54
 1107 02c9 A601     		.2byte	0x1a6
 1108 02cb 21       		.byte	0x21
 1109 02cc 27080000 		.4byte	0x827
 1110 02d0 30       		.byte	0x30
 1111 02d1 06       		.uleb128 0x6
 1112 02d2 ED000000 		.4byte	.LASF55
 1113 02d6 AB01     		.2byte	0x1ab
 1114 02d8 21       		.byte	0x21
 1115 02d9 80010000 		.4byte	0x180
 1116 02dd 38       		.byte	0x38
 1117 02de 06       		.uleb128 0x6
 1118 02df 10040000 		.4byte	.LASF56
 1119 02e3 B101     		.2byte	0x1b1
 1120 02e5 21       		.byte	0x21
 1121 02e6 55030000 		.4byte	0x355
 1122 02ea 3C       		.byte	0x3c
 1123 02eb 06       		.uleb128 0x6
 1124 02ec B9070000 		.4byte	.LASF57
 1125 02f0 B601     		.2byte	0x1b6
 1126 02f2 22       		.byte	0x22
 1127 02f3 FD090000 		.4byte	0x9fd
 1128 02f7 40       		.byte	0x40
 1129 02f8 06       		.uleb128 0x6
 1130 02f9 47070000 		.4byte	.LASF58
 1131 02fd BA01     		.2byte	0x1ba
 1132 02ff 21       		.byte	0x21
 1133 0300 8C010000 		.4byte	0x18c
 1134 0304 44       		.byte	0x44
 1135 0305 06       		.uleb128 0x6
 1136 0306 480A0000 		.4byte	.LASF59
ARM GAS  C:\Users\DEVELO~1\AppData\Local\Temp\ccBkajkH.s 			page 21


 1137 030a BF01     		.2byte	0x1bf
 1138 030c 21       		.byte	0x21
 1139 030d 8C010000 		.4byte	0x18c
 1140 0311 94       		.byte	0x94
 1141 0312 04       		.uleb128 0x4
 1142 0313 64626700 		.ascii	"dbg\000"
 1143 0317 07       		.byte	0x7
 1144 0318 C401     		.2byte	0x1c4
 1145 031a 21       		.byte	0x21
 1146 031b 92030000 		.4byte	0x392
 1147 031f E4       		.byte	0xe4
 1148 0320 06       		.uleb128 0x6
 1149 0321 93090000 		.4byte	.LASF60
 1150 0325 C901     		.2byte	0x1c9
 1151 0327 21       		.byte	0x21
 1152 0328 3A050000 		.4byte	0x53a
 1153 032c E8       		.byte	0xe8
 1154 032d 00       		.byte	0
 1155 032e 02       		.uleb128 0x2
 1156 032f 1B050000 		.4byte	.LASF61
 1157 0333 08       		.byte	0x8
 1158 0334 3F       		.byte	0x3f
 1159 0335 12       		.byte	0x12
 1160 0336 EB000000 		.4byte	0xeb
 1161 033a 0A       		.uleb128 0xa
 1162 033b A6040000 		.4byte	.LASF62
 1163 033f 04       		.byte	0x4
 1164 0340 08       		.byte	0x8
 1165 0341 44       		.byte	0x44
 1166 0342 10       		.byte	0x10
 1167 0343 55030000 		.4byte	0x355
 1168 0347 01       		.uleb128 0x1
 1169 0348 B6060000 		.4byte	.LASF63
 1170 034c 08       		.byte	0x8
 1171 034d 48       		.byte	0x48
 1172 034e 21       		.byte	0x21
 1173 034f 2E030000 		.4byte	0x32e
 1174 0353 00       		.byte	0
 1175 0354 00       		.byte	0
 1176 0355 02       		.uleb128 0x2
 1177 0356 8C090000 		.4byte	.LASF64
 1178 035a 08       		.byte	0x8
 1179 035b 49       		.byte	0x49
 1180 035c 03       		.byte	0x3
 1181 035d 3A030000 		.4byte	0x33a
 1182 0361 0A       		.uleb128 0xa
 1183 0362 B0010000 		.4byte	.LASF65
 1184 0366 04       		.byte	0x4
 1185 0367 09       		.byte	0x9
 1186 0368 3E       		.byte	0x3e
 1187 0369 10       		.byte	0x10
 1188 036a 7C030000 		.4byte	0x37c
 1189 036e 01       		.uleb128 0x1
 1190 036f 340A0000 		.4byte	.LASF66
 1191 0373 09       		.byte	0x9
 1192 0374 46       		.byte	0x46
 1193 0375 24       		.byte	0x24
ARM GAS  C:\Users\DEVELO~1\AppData\Local\Temp\ccBkajkH.s 			page 22


 1194 0376 81030000 		.4byte	0x381
 1195 037a 00       		.byte	0
 1196 037b 00       		.byte	0
 1197 037c 08       		.uleb128 0x8
 1198 037d 8D030000 		.4byte	0x38d
 1199 0381 1A       		.uleb128 0x1a
 1200 0382 7C030000 		.4byte	0x37c
 1201 0386 09       		.uleb128 0x9
 1202 0387 01       		.byte	0x1
 1203 0388 08       		.byte	0x8
 1204 0389 06050000 		.4byte	.LASF67
 1205 038d 1B       		.uleb128 0x1b
 1206 038e 86030000 		.4byte	0x386
 1207 0392 02       		.uleb128 0x2
 1208 0393 1D060000 		.4byte	.LASF68
 1209 0397 09       		.byte	0x9
 1210 0398 51       		.byte	0x51
 1211 0399 03       		.byte	0x3
 1212 039a 61030000 		.4byte	0x361
 1213 039e 02       		.uleb128 0x2
 1214 039f 82000000 		.4byte	.LASF69
 1215 03a3 0A       		.byte	0xa
 1216 03a4 6D       		.byte	0x6d
 1217 03a5 12       		.byte	0x12
 1218 03a6 EB000000 		.4byte	0xeb
 1219 03aa 02       		.uleb128 0x2
 1220 03ab CE060000 		.4byte	.LASF70
 1221 03af 0A       		.byte	0xa
 1222 03b0 79       		.byte	0x79
 1223 03b1 12       		.byte	0x12
 1224 03b2 EB000000 		.4byte	0xeb
 1225 03b6 0C       		.uleb128 0xc
 1226 03b7 08       		.byte	0x8
 1227 03b8 0B       		.byte	0xb
 1228 03b9 83       		.byte	0x83
 1229 03ba 05       		.byte	0x5
 1230 03bb DA030000 		.4byte	0x3da
 1231 03bf 0B       		.uleb128 0xb
 1232 03c0 6E747000 		.ascii	"ntp\000"
 1233 03c4 0B       		.byte	0xb
 1234 03c5 87       		.byte	0x87
 1235 03c6 1E       		.byte	0x1e
 1236 03c7 DA030000 		.4byte	0x3da
 1237 03cb 00       		.byte	0
 1238 03cc 01       		.uleb128 0x1
 1239 03cd 25010000 		.4byte	.LASF71
 1240 03d1 0B       		.byte	0xb
 1241 03d2 8B       		.byte	0x8b
 1242 03d3 1E       		.byte	0x1e
 1243 03d4 DF030000 		.4byte	0x3df
 1244 03d8 04       		.byte	0x4
 1245 03d9 00       		.byte	0
 1246 03da 08       		.uleb128 0x8
 1247 03db 8C010000 		.4byte	0x18c
 1248 03df 28       		.uleb128 0x28
 1249 03e0 04       		.byte	0x4
 1250 03e1 0C       		.uleb128 0xc
ARM GAS  C:\Users\DEVELO~1\AppData\Local\Temp\ccBkajkH.s 			page 23


 1251 03e2 08       		.byte	0x8
 1252 03e3 0B       		.byte	0xb
 1253 03e4 90       		.byte	0x90
 1254 03e5 05       		.byte	0x5
 1255 03e6 04040000 		.4byte	0x404
 1256 03ea 0B       		.uleb128 0xb
 1257 03eb 747000   		.ascii	"tp\000"
 1258 03ee 0B       		.byte	0xb
 1259 03ef 94       		.byte	0x94
 1260 03f0 1E       		.byte	0x1e
 1261 03f1 DA030000 		.4byte	0x3da
 1262 03f5 00       		.byte	0
 1263 03f6 0B       		.uleb128 0xb
 1264 03f7 6D736700 		.ascii	"msg\000"
 1265 03fb 0B       		.byte	0xb
 1266 03fc 98       		.byte	0x98
 1267 03fd 1D       		.byte	0x1d
 1268 03fe 5C010000 		.4byte	0x15c
 1269 0402 04       		.byte	0x4
 1270 0403 00       		.byte	0
 1271 0404 0C       		.uleb128 0xc
 1272 0405 04       		.byte	0x4
 1273 0406 0B       		.byte	0xb
 1274 0407 9D       		.byte	0x9d
 1275 0408 05       		.byte	0x5
 1276 0409 1B040000 		.4byte	0x41b
 1277 040d 01       		.uleb128 0x1
 1278 040e D4080000 		.4byte	.LASF40
 1279 0412 0B       		.byte	0xb
 1280 0413 A1       		.byte	0xa1
 1281 0414 1E       		.byte	0x1e
 1282 0415 7C030000 		.4byte	0x37c
 1283 0419 00       		.byte	0
 1284 041a 00       		.byte	0
 1285 041b 0C       		.uleb128 0xc
 1286 041c 04       		.byte	0x4
 1287 041d 0B       		.byte	0xb
 1288 041e A6       		.byte	0xa6
 1289 041f 05       		.byte	0x5
 1290 0420 32040000 		.4byte	0x432
 1291 0424 01       		.uleb128 0x1
 1292 0425 74030000 		.4byte	.LASF72
 1293 0429 0B       		.byte	0xb
 1294 042a AA       		.byte	0xaa
 1295 042b 1E       		.byte	0x1e
 1296 042c 7C030000 		.4byte	0x37c
 1297 0430 00       		.byte	0
 1298 0431 00       		.byte	0
 1299 0432 0C       		.uleb128 0xc
 1300 0433 08       		.byte	0x8
 1301 0434 0B       		.byte	0xb
 1302 0435 AF       		.byte	0xaf
 1303 0436 05       		.byte	0x5
 1304 0437 56040000 		.4byte	0x456
 1305 043b 0B       		.uleb128 0xb
 1306 043c 75703100 		.ascii	"up1\000"
 1307 0440 0B       		.byte	0xb
ARM GAS  C:\Users\DEVELO~1\AppData\Local\Temp\ccBkajkH.s 			page 24


 1308 0441 B3       		.byte	0xb3
 1309 0442 1E       		.byte	0x1e
 1310 0443 DF030000 		.4byte	0x3df
 1311 0447 00       		.byte	0
 1312 0448 0B       		.uleb128 0xb
 1313 0449 75703200 		.ascii	"up2\000"
 1314 044d 0B       		.byte	0xb
 1315 044e B7       		.byte	0xb7
 1316 044f 1E       		.byte	0x1e
 1317 0450 DF030000 		.4byte	0x3df
 1318 0454 04       		.byte	0x4
 1319 0455 00       		.byte	0
 1320 0456 1C       		.uleb128 0x1c
 1321 0457 08       		.byte	0x8
 1322 0458 0B       		.byte	0xb
 1323 0459 7F       		.byte	0x7f
 1324 045a 94040000 		.4byte	0x494
 1325 045e 16       		.uleb128 0x16
 1326 045f 737700   		.ascii	"sw\000"
 1327 0462 8C       		.byte	0x8c
 1328 0463 B6030000 		.4byte	0x3b6
 1329 0467 16       		.uleb128 0x16
 1330 0468 72647900 		.ascii	"rdy\000"
 1331 046c 99       		.byte	0x99
 1332 046d E1030000 		.4byte	0x3e1
 1333 0471 16       		.uleb128 0x16
 1334 0472 69737200 		.ascii	"isr\000"
 1335 0476 A2       		.byte	0xa2
 1336 0477 04040000 		.4byte	0x404
 1337 047b 11       		.uleb128 0x11
 1338 047c 47030000 		.4byte	.LASF73
 1339 0480 0B       		.byte	0xb
 1340 0481 AB       		.byte	0xab
 1341 0482 07       		.byte	0x7
 1342 0483 1B040000 		.4byte	0x41b
 1343 0487 11       		.uleb128 0x11
 1344 0488 1E040000 		.4byte	.LASF74
 1345 048c 0B       		.byte	0xb
 1346 048d B8       		.byte	0xb8
 1347 048e 07       		.byte	0x7
 1348 048f 32040000 		.4byte	0x432
 1349 0493 00       		.byte	0
 1350 0494 0C       		.uleb128 0xc
 1351 0495 10       		.byte	0x10
 1352 0496 0B       		.byte	0xb
 1353 0497 6C       		.byte	0x6c
 1354 0498 09       		.byte	0x9
 1355 0499 DA040000 		.4byte	0x4da
 1356 049d 17       		.uleb128 0x17
 1357 049e D6090000 		.4byte	.LASF75
 1358 04a2 70       		.byte	0x70
 1359 04a3 EB000000 		.4byte	0xeb
 1360 04a7 03       		.byte	0x3
 1361 04a8 00       		.byte	0
 1362 04a9 17       		.uleb128 0x17
 1363 04aa 530A0000 		.4byte	.LASF37
 1364 04ae 74       		.byte	0x74
ARM GAS  C:\Users\DEVELO~1\AppData\Local\Temp\ccBkajkH.s 			page 25


 1365 04af EB000000 		.4byte	0xeb
 1366 04b3 05       		.byte	0x5
 1367 04b4 03       		.byte	0x3
 1368 04b5 17       		.uleb128 0x17
 1369 04b6 76090000 		.4byte	.LASF76
 1370 04ba 7A       		.byte	0x7a
 1371 04bb EB000000 		.4byte	0xeb
 1372 04bf 18       		.byte	0x18
 1373 04c0 08       		.byte	0x8
 1374 04c1 01       		.uleb128 0x1
 1375 04c2 D1030000 		.4byte	.LASF77
 1376 04c6 0B       		.byte	0xb
 1377 04c7 7E       		.byte	0x7e
 1378 04c8 19       		.byte	0x19
 1379 04c9 9E030000 		.4byte	0x39e
 1380 04cd 04       		.byte	0x4
 1381 04ce 0B       		.uleb128 0xb
 1382 04cf 7500     		.ascii	"u\000"
 1383 04d1 0B       		.byte	0xb
 1384 04d2 B9       		.byte	0xb9
 1385 04d3 05       		.byte	0x5
 1386 04d4 56040000 		.4byte	0x456
 1387 04d8 08       		.byte	0x8
 1388 04d9 00       		.byte	0
 1389 04da 02       		.uleb128 0x2
 1390 04db E9020000 		.4byte	.LASF78
 1391 04df 0B       		.byte	0xb
 1392 04e0 BA       		.byte	0xba
 1393 04e1 03       		.byte	0x3
 1394 04e2 94040000 		.4byte	0x494
 1395 04e6 29       		.uleb128 0x29
 1396 04e7 0808     		.2byte	0x808
 1397 04e9 0B       		.byte	0xb
 1398 04ea C0       		.byte	0xc0
 1399 04eb 09       		.byte	0x9
 1400 04ec 25050000 		.4byte	0x525
 1401 04f0 01       		.uleb128 0x1
 1402 04f1 A7000000 		.4byte	.LASF79
 1403 04f5 0B       		.byte	0xb
 1404 04f6 C4       		.byte	0xc4
 1405 04f7 19       		.byte	0x19
 1406 04f8 D3000000 		.4byte	0xd3
 1407 04fc 00       		.byte	0
 1408 04fd 01       		.uleb128 0x1
 1409 04fe 8D060000 		.4byte	.LASF80
 1410 0502 0B       		.byte	0xb
 1411 0503 C8       		.byte	0xc8
 1412 0504 19       		.byte	0x19
 1413 0505 D3000000 		.4byte	0xd3
 1414 0509 02       		.byte	0x2
 1415 050a 0B       		.uleb128 0xb
 1416 050b 70747200 		.ascii	"ptr\000"
 1417 050f 0B       		.byte	0xb
 1418 0510 CC       		.byte	0xcc
 1419 0511 1A       		.byte	0x1a
 1420 0512 25050000 		.4byte	0x525
 1421 0516 04       		.byte	0x4
ARM GAS  C:\Users\DEVELO~1\AppData\Local\Temp\ccBkajkH.s 			page 26


 1422 0517 01       		.uleb128 0x1
 1423 0518 A0000000 		.4byte	.LASF81
 1424 051c 0B       		.byte	0xb
 1425 051d D0       		.byte	0xd0
 1426 051e 19       		.byte	0x19
 1427 051f 2A050000 		.4byte	0x52a
 1428 0523 08       		.byte	0x8
 1429 0524 00       		.byte	0
 1430 0525 08       		.uleb128 0x8
 1431 0526 DA040000 		.4byte	0x4da
 1432 052a 2A       		.uleb128 0x2a
 1433 052b DA040000 		.4byte	0x4da
 1434 052f 3A050000 		.4byte	0x53a
 1435 0533 2B       		.uleb128 0x2b
 1436 0534 39000000 		.4byte	0x39
 1437 0538 7F       		.byte	0x7f
 1438 0539 00       		.byte	0
 1439 053a 02       		.uleb128 0x2
 1440 053b 28070000 		.4byte	.LASF82
 1441 053f 0B       		.byte	0xb
 1442 0540 D1       		.byte	0xd1
 1443 0541 03       		.byte	0x3
 1444 0542 E6040000 		.4byte	0x4e6
 1445 0546 14       		.uleb128 0x14
 1446 0547 ED070000 		.4byte	.LASF83
 1447 054b 64       		.byte	0x64
 1448 054c 0C       		.byte	0xc
 1449 054d 3F02     		.2byte	0x23f
 1450 054f 08       		.byte	0x8
 1451 0550 AC060000 		.4byte	0x6ac
 1452 0554 04       		.uleb128 0x4
 1453 0555 73313600 		.ascii	"s16\000"
 1454 0559 0C       		.byte	0xc
 1455 055a 4102     		.2byte	0x241
 1456 055c 11       		.byte	0x11
 1457 055d EB000000 		.4byte	0xeb
 1458 0561 00       		.byte	0
 1459 0562 04       		.uleb128 0x4
 1460 0563 73313700 		.ascii	"s17\000"
 1461 0567 0C       		.byte	0xc
 1462 0568 4202     		.2byte	0x242
 1463 056a 11       		.byte	0x11
 1464 056b EB000000 		.4byte	0xeb
 1465 056f 04       		.byte	0x4
 1466 0570 04       		.uleb128 0x4
 1467 0571 73313800 		.ascii	"s18\000"
 1468 0575 0C       		.byte	0xc
 1469 0576 4302     		.2byte	0x243
 1470 0578 11       		.byte	0x11
 1471 0579 EB000000 		.4byte	0xeb
 1472 057d 08       		.byte	0x8
 1473 057e 04       		.uleb128 0x4
 1474 057f 73313900 		.ascii	"s19\000"
 1475 0583 0C       		.byte	0xc
 1476 0584 4402     		.2byte	0x244
 1477 0586 11       		.byte	0x11
 1478 0587 EB000000 		.4byte	0xeb
ARM GAS  C:\Users\DEVELO~1\AppData\Local\Temp\ccBkajkH.s 			page 27


 1479 058b 0C       		.byte	0xc
 1480 058c 04       		.uleb128 0x4
 1481 058d 73323000 		.ascii	"s20\000"
 1482 0591 0C       		.byte	0xc
 1483 0592 4502     		.2byte	0x245
 1484 0594 11       		.byte	0x11
 1485 0595 EB000000 		.4byte	0xeb
 1486 0599 10       		.byte	0x10
 1487 059a 04       		.uleb128 0x4
 1488 059b 73323100 		.ascii	"s21\000"
 1489 059f 0C       		.byte	0xc
 1490 05a0 4602     		.2byte	0x246
 1491 05a2 11       		.byte	0x11
 1492 05a3 EB000000 		.4byte	0xeb
 1493 05a7 14       		.byte	0x14
 1494 05a8 04       		.uleb128 0x4
 1495 05a9 73323200 		.ascii	"s22\000"
 1496 05ad 0C       		.byte	0xc
 1497 05ae 4702     		.2byte	0x247
 1498 05b0 11       		.byte	0x11
 1499 05b1 EB000000 		.4byte	0xeb
 1500 05b5 18       		.byte	0x18
 1501 05b6 04       		.uleb128 0x4
 1502 05b7 73323300 		.ascii	"s23\000"
 1503 05bb 0C       		.byte	0xc
 1504 05bc 4802     		.2byte	0x248
 1505 05be 11       		.byte	0x11
 1506 05bf EB000000 		.4byte	0xeb
 1507 05c3 1C       		.byte	0x1c
 1508 05c4 04       		.uleb128 0x4
 1509 05c5 73323400 		.ascii	"s24\000"
 1510 05c9 0C       		.byte	0xc
 1511 05ca 4902     		.2byte	0x249
 1512 05cc 11       		.byte	0x11
 1513 05cd EB000000 		.4byte	0xeb
 1514 05d1 20       		.byte	0x20
 1515 05d2 04       		.uleb128 0x4
 1516 05d3 73323500 		.ascii	"s25\000"
 1517 05d7 0C       		.byte	0xc
 1518 05d8 4A02     		.2byte	0x24a
 1519 05da 11       		.byte	0x11
 1520 05db EB000000 		.4byte	0xeb
 1521 05df 24       		.byte	0x24
 1522 05e0 04       		.uleb128 0x4
 1523 05e1 73323600 		.ascii	"s26\000"
 1524 05e5 0C       		.byte	0xc
 1525 05e6 4B02     		.2byte	0x24b
 1526 05e8 11       		.byte	0x11
 1527 05e9 EB000000 		.4byte	0xeb
 1528 05ed 28       		.byte	0x28
 1529 05ee 04       		.uleb128 0x4
 1530 05ef 73323700 		.ascii	"s27\000"
 1531 05f3 0C       		.byte	0xc
 1532 05f4 4C02     		.2byte	0x24c
 1533 05f6 11       		.byte	0x11
 1534 05f7 EB000000 		.4byte	0xeb
 1535 05fb 2C       		.byte	0x2c
ARM GAS  C:\Users\DEVELO~1\AppData\Local\Temp\ccBkajkH.s 			page 28


 1536 05fc 04       		.uleb128 0x4
 1537 05fd 73323800 		.ascii	"s28\000"
 1538 0601 0C       		.byte	0xc
 1539 0602 4D02     		.2byte	0x24d
 1540 0604 11       		.byte	0x11
 1541 0605 EB000000 		.4byte	0xeb
 1542 0609 30       		.byte	0x30
 1543 060a 04       		.uleb128 0x4
 1544 060b 73323900 		.ascii	"s29\000"
 1545 060f 0C       		.byte	0xc
 1546 0610 4E02     		.2byte	0x24e
 1547 0612 11       		.byte	0x11
 1548 0613 EB000000 		.4byte	0xeb
 1549 0617 34       		.byte	0x34
 1550 0618 04       		.uleb128 0x4
 1551 0619 73333000 		.ascii	"s30\000"
 1552 061d 0C       		.byte	0xc
 1553 061e 4F02     		.2byte	0x24f
 1554 0620 11       		.byte	0x11
 1555 0621 EB000000 		.4byte	0xeb
 1556 0625 38       		.byte	0x38
 1557 0626 04       		.uleb128 0x4
 1558 0627 73333100 		.ascii	"s31\000"
 1559 062b 0C       		.byte	0xc
 1560 062c 5002     		.2byte	0x250
 1561 062e 11       		.byte	0x11
 1562 062f EB000000 		.4byte	0xeb
 1563 0633 3C       		.byte	0x3c
 1564 0634 04       		.uleb128 0x4
 1565 0635 723400   		.ascii	"r4\000"
 1566 0638 0C       		.byte	0xc
 1567 0639 5202     		.2byte	0x252
 1568 063b 11       		.byte	0x11
 1569 063c EB000000 		.4byte	0xeb
 1570 0640 40       		.byte	0x40
 1571 0641 04       		.uleb128 0x4
 1572 0642 723500   		.ascii	"r5\000"
 1573 0645 0C       		.byte	0xc
 1574 0646 5302     		.2byte	0x253
 1575 0648 11       		.byte	0x11
 1576 0649 EB000000 		.4byte	0xeb
 1577 064d 44       		.byte	0x44
 1578 064e 04       		.uleb128 0x4
 1579 064f 723600   		.ascii	"r6\000"
 1580 0652 0C       		.byte	0xc
 1581 0653 5402     		.2byte	0x254
 1582 0655 11       		.byte	0x11
 1583 0656 EB000000 		.4byte	0xeb
 1584 065a 48       		.byte	0x48
 1585 065b 04       		.uleb128 0x4
 1586 065c 723700   		.ascii	"r7\000"
 1587 065f 0C       		.byte	0xc
 1588 0660 5502     		.2byte	0x255
 1589 0662 11       		.byte	0x11
 1590 0663 EB000000 		.4byte	0xeb
 1591 0667 4C       		.byte	0x4c
 1592 0668 04       		.uleb128 0x4
ARM GAS  C:\Users\DEVELO~1\AppData\Local\Temp\ccBkajkH.s 			page 29


 1593 0669 723800   		.ascii	"r8\000"
 1594 066c 0C       		.byte	0xc
 1595 066d 5602     		.2byte	0x256
 1596 066f 11       		.byte	0x11
 1597 0670 EB000000 		.4byte	0xeb
 1598 0674 50       		.byte	0x50
 1599 0675 04       		.uleb128 0x4
 1600 0676 723900   		.ascii	"r9\000"
 1601 0679 0C       		.byte	0xc
 1602 067a 5702     		.2byte	0x257
 1603 067c 11       		.byte	0x11
 1604 067d EB000000 		.4byte	0xeb
 1605 0681 54       		.byte	0x54
 1606 0682 04       		.uleb128 0x4
 1607 0683 72313000 		.ascii	"r10\000"
 1608 0687 0C       		.byte	0xc
 1609 0688 5802     		.2byte	0x258
 1610 068a 11       		.byte	0x11
 1611 068b EB000000 		.4byte	0xeb
 1612 068f 58       		.byte	0x58
 1613 0690 04       		.uleb128 0x4
 1614 0691 72313100 		.ascii	"r11\000"
 1615 0695 0C       		.byte	0xc
 1616 0696 5902     		.2byte	0x259
 1617 0698 11       		.byte	0x11
 1618 0699 EB000000 		.4byte	0xeb
 1619 069d 5C       		.byte	0x5c
 1620 069e 04       		.uleb128 0x4
 1621 069f 6C7200   		.ascii	"lr\000"
 1622 06a2 0C       		.byte	0xc
 1623 06a3 5A02     		.2byte	0x25a
 1624 06a5 11       		.byte	0x11
 1625 06a6 EB000000 		.4byte	0xeb
 1626 06aa 60       		.byte	0x60
 1627 06ab 00       		.byte	0
 1628 06ac 14       		.uleb128 0x14
 1629 06ad 46010000 		.4byte	.LASF84
 1630 06b1 04       		.byte	0x4
 1631 06b2 0C       		.byte	0xc
 1632 06b3 6302     		.2byte	0x263
 1633 06b5 08       		.byte	0x8
 1634 06b6 C8060000 		.4byte	0x6c8
 1635 06ba 04       		.uleb128 0x4
 1636 06bb 737000   		.ascii	"sp\000"
 1637 06be 0C       		.byte	0xc
 1638 06bf 6402     		.2byte	0x264
 1639 06c1 1A       		.byte	0x1a
 1640 06c2 C8060000 		.4byte	0x6c8
 1641 06c6 00       		.byte	0
 1642 06c7 00       		.byte	0
 1643 06c8 08       		.uleb128 0x8
 1644 06c9 46050000 		.4byte	0x546
 1645 06cd 02       		.uleb128 0x2
 1646 06ce A3070000 		.4byte	.LASF85
 1647 06d2 0D       		.byte	0xd
 1648 06d3 32       		.byte	0x32
 1649 06d4 18       		.byte	0x18
ARM GAS  C:\Users\DEVELO~1\AppData\Local\Temp\ccBkajkH.s 			page 30


 1650 06d5 D9060000 		.4byte	0x6d9
 1651 06d9 0A       		.uleb128 0xa
 1652 06da 97010000 		.4byte	.LASF86
 1653 06de 04       		.byte	0x4
 1654 06df 0D       		.byte	0xd
 1655 06e0 38       		.byte	0x38
 1656 06e1 08       		.byte	0x8
 1657 06e2 F4060000 		.4byte	0x6f4
 1658 06e6 01       		.uleb128 0x1
 1659 06e7 DF000000 		.4byte	.LASF87
 1660 06eb 0D       		.byte	0xd
 1661 06ec 39       		.byte	0x39
 1662 06ed 1A       		.byte	0x1a
 1663 06ee F4060000 		.4byte	0x6f4
 1664 06f2 00       		.byte	0
 1665 06f3 00       		.byte	0
 1666 06f4 08       		.uleb128 0x8
 1667 06f5 CD060000 		.4byte	0x6cd
 1668 06f9 02       		.uleb128 0x2
 1669 06fa DC060000 		.4byte	.LASF88
 1670 06fe 0D       		.byte	0xd
 1671 06ff 3F       		.byte	0x3f
 1672 0700 19       		.byte	0x19
 1673 0701 05070000 		.4byte	0x705
 1674 0705 0A       		.uleb128 0xa
 1675 0706 B9090000 		.4byte	.LASF89
 1676 070a 08       		.byte	0x8
 1677 070b 0D       		.byte	0xd
 1678 070c 45       		.byte	0x45
 1679 070d 08       		.byte	0x8
 1680 070e 2D070000 		.4byte	0x72d
 1681 0712 01       		.uleb128 0x1
 1682 0713 DF000000 		.4byte	.LASF87
 1683 0717 0D       		.byte	0xd
 1684 0718 46       		.byte	0x46
 1685 0719 1A       		.byte	0x1a
 1686 071a 2D070000 		.4byte	0x72d
 1687 071e 00       		.byte	0
 1688 071f 01       		.uleb128 0x1
 1689 0720 77010000 		.4byte	.LASF90
 1690 0724 0D       		.byte	0xd
 1691 0725 47       		.byte	0x47
 1692 0726 1A       		.byte	0x1a
 1693 0727 2D070000 		.4byte	0x72d
 1694 072b 04       		.byte	0x4
 1695 072c 00       		.byte	0
 1696 072d 08       		.uleb128 0x8
 1697 072e F9060000 		.4byte	0x6f9
 1698 0732 02       		.uleb128 0x2
 1699 0733 40040000 		.4byte	.LASF91
 1700 0737 0D       		.byte	0xd
 1701 0738 4E       		.byte	0x4e
 1702 0739 22       		.byte	0x22
 1703 073a 3E070000 		.4byte	0x73e
 1704 073e 0A       		.uleb128 0xa
 1705 073f A7090000 		.4byte	.LASF92
 1706 0743 0C       		.byte	0xc
ARM GAS  C:\Users\DEVELO~1\AppData\Local\Temp\ccBkajkH.s 			page 31


 1707 0744 0D       		.byte	0xd
 1708 0745 55       		.byte	0x55
 1709 0746 08       		.byte	0x8
 1710 0747 73070000 		.4byte	0x773
 1711 074b 01       		.uleb128 0x1
 1712 074c DF000000 		.4byte	.LASF87
 1713 0750 0D       		.byte	0xd
 1714 0751 56       		.byte	0x56
 1715 0752 1A       		.byte	0x1a
 1716 0753 73070000 		.4byte	0x773
 1717 0757 00       		.byte	0
 1718 0758 01       		.uleb128 0x1
 1719 0759 77010000 		.4byte	.LASF90
 1720 075d 0D       		.byte	0xd
 1721 075e 57       		.byte	0x57
 1722 075f 1A       		.byte	0x1a
 1723 0760 73070000 		.4byte	0x773
 1724 0764 04       		.byte	0x4
 1725 0765 01       		.uleb128 0x1
 1726 0766 F1040000 		.4byte	.LASF93
 1727 076a 0D       		.byte	0xd
 1728 076b 58       		.byte	0x58
 1729 076c 19       		.byte	0x19
 1730 076d 50010000 		.4byte	0x150
 1731 0771 08       		.byte	0x8
 1732 0772 00       		.byte	0
 1733 0773 08       		.uleb128 0x8
 1734 0774 32070000 		.4byte	0x732
 1735 0778 02       		.uleb128 0x2
 1736 0779 0B050000 		.4byte	.LASF94
 1737 077d 0D       		.byte	0xd
 1738 077e 5F       		.byte	0x5f
 1739 077f 1E       		.byte	0x1e
 1740 0780 84070000 		.4byte	0x784
 1741 0784 0A       		.uleb128 0xa
 1742 0785 EF010000 		.4byte	.LASF95
 1743 0789 0C       		.byte	0xc
 1744 078a 0D       		.byte	0xd
 1745 078b 64       		.byte	0x64
 1746 078c 08       		.byte	0x8
 1747 078d B9070000 		.4byte	0x7b9
 1748 0791 01       		.uleb128 0x1
 1749 0792 DF000000 		.4byte	.LASF87
 1750 0796 0D       		.byte	0xd
 1751 0797 65       		.byte	0x65
 1752 0798 1A       		.byte	0x1a
 1753 0799 B9070000 		.4byte	0x7b9
 1754 079d 00       		.byte	0
 1755 079e 01       		.uleb128 0x1
 1756 079f 77010000 		.4byte	.LASF90
 1757 07a3 0D       		.byte	0xd
 1758 07a4 66       		.byte	0x66
 1759 07a5 1A       		.byte	0x1a
 1760 07a6 B9070000 		.4byte	0x7b9
 1761 07aa 04       		.byte	0x4
 1762 07ab 01       		.uleb128 0x1
 1763 07ac A10A0000 		.4byte	.LASF96
ARM GAS  C:\Users\DEVELO~1\AppData\Local\Temp\ccBkajkH.s 			page 32


 1764 07b0 0D       		.byte	0xd
 1765 07b1 67       		.byte	0x67
 1766 07b2 19       		.byte	0x19
 1767 07b3 AA030000 		.4byte	0x3aa
 1768 07b7 08       		.byte	0x8
 1769 07b8 00       		.byte	0
 1770 07b9 08       		.uleb128 0x8
 1771 07ba 78070000 		.4byte	0x778
 1772 07be 0A       		.uleb128 0xa
 1773 07bf F9030000 		.4byte	.LASF97
 1774 07c3 20       		.byte	0x20
 1775 07c4 07       		.byte	0x7
 1776 07c5 64       		.byte	0x64
 1777 07c6 10       		.byte	0x10
 1778 07c7 00080000 		.4byte	0x800
 1779 07cb 01       		.uleb128 0x1
 1780 07cc 6D080000 		.4byte	.LASF98
 1781 07d0 07       		.byte	0x7
 1782 07d1 68       		.byte	0x68
 1783 07d2 21       		.byte	0x21
 1784 07d3 78070000 		.4byte	0x778
 1785 07d7 00       		.byte	0
 1786 07d8 01       		.uleb128 0x1
 1787 07d9 73080000 		.4byte	.LASF99
 1788 07dd 07       		.byte	0x7
 1789 07de 73       		.byte	0x73
 1790 07df 21       		.byte	0x21
 1791 07e0 9E030000 		.4byte	0x39e
 1792 07e4 0C       		.byte	0xc
 1793 07e5 01       		.uleb128 0x1
 1794 07e6 5D060000 		.4byte	.LASF100
 1795 07ea 07       		.byte	0x7
 1796 07eb 7B       		.byte	0x7b
 1797 07ec 21       		.byte	0x21
 1798 07ed AA030000 		.4byte	0x3aa
 1799 07f1 10       		.byte	0x10
 1800 07f2 01       		.uleb128 0x1
 1801 07f3 61010000 		.4byte	.LASF101
 1802 07f7 07       		.byte	0x7
 1803 07f8 81       		.byte	0x81
 1804 07f9 21       		.byte	0x21
 1805 07fa 03010000 		.4byte	0x103
 1806 07fe 18       		.byte	0x18
 1807 07ff 00       		.byte	0
 1808 0800 02       		.uleb128 0x2
 1809 0801 1E0A0000 		.4byte	.LASF102
 1810 0805 07       		.byte	0x7
 1811 0806 83       		.byte	0x83
 1812 0807 03       		.byte	0x3
 1813 0808 BE070000 		.4byte	0x7be
 1814 080c 0A       		.uleb128 0xa
 1815 080d 4F000000 		.4byte	.LASF103
 1816 0811 08       		.byte	0x8
 1817 0812 07       		.byte	0x7
 1818 0813 88       		.byte	0x88
 1819 0814 10       		.byte	0x10
 1820 0815 27080000 		.4byte	0x827
ARM GAS  C:\Users\DEVELO~1\AppData\Local\Temp\ccBkajkH.s 			page 33


 1821 0819 01       		.uleb128 0x1
 1822 081a 7E090000 		.4byte	.LASF104
 1823 081e 07       		.byte	0x7
 1824 081f 8C       		.byte	0x8c
 1825 0820 21       		.byte	0x21
 1826 0821 F9060000 		.4byte	0x6f9
 1827 0825 00       		.byte	0
 1828 0826 00       		.byte	0
 1829 0827 02       		.uleb128 0x2
 1830 0828 67060000 		.4byte	.LASF105
 1831 082c 07       		.byte	0x7
 1832 082d 8D       		.byte	0x8d
 1833 082e 03       		.byte	0x3
 1834 082f 0C080000 		.4byte	0x80c
 1835 0833 02       		.uleb128 0x2
 1836 0834 27050000 		.4byte	.LASF106
 1837 0838 07       		.byte	0x7
 1838 0839 92       		.byte	0x92
 1839 083a 14       		.byte	0x14
 1840 083b DA030000 		.4byte	0x3da
 1841 083f 02       		.uleb128 0x2
 1842 0840 3A060000 		.4byte	.LASF107
 1843 0844 07       		.byte	0x7
 1844 0845 A1       		.byte	0xa1
 1845 0846 10       		.byte	0x10
 1846 0847 4B080000 		.4byte	0x84b
 1847 084b 08       		.uleb128 0x8
 1848 084c 50080000 		.4byte	0x850
 1849 0850 2C       		.uleb128 0x2c
 1850 0851 5B080000 		.4byte	0x85b
 1851 0855 0F       		.uleb128 0xf
 1852 0856 DA030000 		.4byte	0x3da
 1853 085a 00       		.byte	0
 1854 085b 1C       		.uleb128 0x1c
 1855 085c 0C       		.byte	0xc
 1856 085d 07       		.byte	0x7
 1857 085e AD       		.byte	0xad
 1858 085f 88080000 		.4byte	0x888
 1859 0863 11       		.uleb128 0x11
 1860 0864 D4010000 		.4byte	.LASF108
 1861 0868 07       		.byte	0x7
 1862 0869 B1       		.byte	0xb1
 1863 086a 21       		.byte	0x21
 1864 086b CD060000 		.4byte	0x6cd
 1865 086f 11       		.uleb128 0x11
 1866 0870 7E090000 		.4byte	.LASF104
 1867 0874 07       		.byte	0x7
 1868 0875 B5       		.byte	0xb5
 1869 0876 21       		.byte	0x21
 1870 0877 F9060000 		.4byte	0x6f9
 1871 087b 11       		.uleb128 0x11
 1872 087c 9C030000 		.4byte	.LASF109
 1873 0880 07       		.byte	0x7
 1874 0881 B9       		.byte	0xb9
 1875 0882 21       		.byte	0x21
 1876 0883 32070000 		.4byte	0x732
 1877 0887 00       		.byte	0
ARM GAS  C:\Users\DEVELO~1\AppData\Local\Temp\ccBkajkH.s 			page 34


 1878 0888 2D       		.uleb128 0x2d
 1879 0889 04       		.byte	0x4
 1880 088a 07       		.byte	0x7
 1881 088b 0201     		.2byte	0x102
 1882 088d 03       		.byte	0x3
 1883 088e F3080000 		.4byte	0x8f3
 1884 0892 0D       		.uleb128 0xd
 1885 0893 2A040000 		.4byte	.LASF110
 1886 0897 0901     		.2byte	0x109
 1887 0899 21       		.byte	0x21
 1888 089a 5C010000 		.4byte	0x15c
 1889 089e 0D       		.uleb128 0xd
 1890 089f 100B0000 		.4byte	.LASF111
 1891 08a3 1001     		.2byte	0x110
 1892 08a5 21       		.byte	0x21
 1893 08a6 5C010000 		.4byte	0x15c
 1894 08aa 0D       		.uleb128 0xd
 1895 08ab 25010000 		.4byte	.LASF71
 1896 08af 1701     		.2byte	0x117
 1897 08b1 22       		.byte	0x22
 1898 08b2 DF030000 		.4byte	0x3df
 1899 08b6 0D       		.uleb128 0xd
 1900 08b7 810A0000 		.4byte	.LASF112
 1901 08bb 1E01     		.2byte	0x11e
 1902 08bd 22       		.byte	0x22
 1903 08be F3080000 		.4byte	0x8f3
 1904 08c2 0D       		.uleb128 0xd
 1905 08c3 9D020000 		.4byte	.LASF113
 1906 08c7 2301     		.2byte	0x123
 1907 08c9 21       		.byte	0x21
 1908 08ca 5C010000 		.4byte	0x15c
 1909 08ce 0D       		.uleb128 0xd
 1910 08cf A0090000 		.4byte	.LASF114
 1911 08d3 2C01     		.2byte	0x12c
 1912 08d5 22       		.byte	0x22
 1913 08d6 20090000 		.4byte	0x920
 1914 08da 0D       		.uleb128 0xd
 1915 08db 27000000 		.4byte	.LASF115
 1916 08df 3501     		.2byte	0x135
 1917 08e1 22       		.byte	0x22
 1918 08e2 5A090000 		.4byte	0x95a
 1919 08e6 0D       		.uleb128 0xd
 1920 08e7 6B010000 		.4byte	.LASF116
 1921 08eb 3D01     		.2byte	0x13d
 1922 08ed 21       		.byte	0x21
 1923 08ee 68010000 		.4byte	0x168
 1924 08f2 00       		.byte	0
 1925 08f3 08       		.uleb128 0x8
 1926 08f4 33080000 		.4byte	0x833
 1927 08f8 0A       		.uleb128 0xa
 1928 08f9 06030000 		.4byte	.LASF117
 1929 08fd 0C       		.byte	0xc
 1930 08fe 0E       		.byte	0xe
 1931 08ff 34       		.byte	0x34
 1932 0900 10       		.byte	0x10
 1933 0901 20090000 		.4byte	0x920
 1934 0905 01       		.uleb128 0x1
ARM GAS  C:\Users\DEVELO~1\AppData\Local\Temp\ccBkajkH.s 			page 35


 1935 0906 7E090000 		.4byte	.LASF104
 1936 090a 0E       		.byte	0xe
 1937 090b 35       		.byte	0x35
 1938 090c 19       		.byte	0x19
 1939 090d F9060000 		.4byte	0x6f9
 1940 0911 00       		.byte	0
 1941 0912 0B       		.uleb128 0xb
 1942 0913 636E7400 		.ascii	"cnt\000"
 1943 0917 0E       		.byte	0xe
 1944 0918 37       		.byte	0x37
 1945 0919 19       		.byte	0x19
 1946 091a 74010000 		.4byte	0x174
 1947 091e 08       		.byte	0x8
 1948 091f 00       		.byte	0
 1949 0920 08       		.uleb128 0x8
 1950 0921 F8080000 		.4byte	0x8f8
 1951 0925 0A       		.uleb128 0xa
 1952 0926 AE040000 		.4byte	.LASF118
 1953 092a 10       		.byte	0x10
 1954 092b 0F       		.byte	0xf
 1955 092c 39       		.byte	0x39
 1956 092d 08       		.byte	0x8
 1957 092e 5A090000 		.4byte	0x95a
 1958 0932 01       		.uleb128 0x1
 1959 0933 7E090000 		.4byte	.LASF104
 1960 0937 0F       		.byte	0xf
 1961 0938 3A       		.byte	0x3a
 1962 0939 19       		.byte	0x19
 1963 093a F9060000 		.4byte	0x6f9
 1964 093e 00       		.byte	0
 1965 093f 01       		.uleb128 0x1
 1966 0940 D6030000 		.4byte	.LASF34
 1967 0944 0F       		.byte	0xf
 1968 0945 3C       		.byte	0x3c
 1969 0946 1A       		.byte	0x1a
 1970 0947 DA030000 		.4byte	0x3da
 1971 094b 08       		.byte	0x8
 1972 094c 01       		.uleb128 0x1
 1973 094d DF000000 		.4byte	.LASF87
 1974 0951 0F       		.byte	0xf
 1975 0952 3E       		.byte	0x3e
 1976 0953 1A       		.byte	0x1a
 1977 0954 0E0A0000 		.4byte	0xa0e
 1978 0958 0C       		.byte	0xc
 1979 0959 00       		.byte	0
 1980 095a 08       		.uleb128 0x8
 1981 095b 25090000 		.4byte	0x925
 1982 095f 08       		.uleb128 0x8
 1983 0960 8F020000 		.4byte	0x28f
 1984 0964 08       		.uleb128 0x8
 1985 0965 20010000 		.4byte	0x120
 1986 0969 14       		.uleb128 0x14
 1987 096a 53010000 		.4byte	.LASF119
 1988 096e 10       		.byte	0x10
 1989 096f 07       		.byte	0x7
 1990 0970 6C01     		.2byte	0x16c
 1991 0972 10       		.byte	0x10
ARM GAS  C:\Users\DEVELO~1\AppData\Local\Temp\ccBkajkH.s 			page 36


 1992 0973 92090000 		.4byte	0x992
 1993 0977 06       		.uleb128 0x6
 1994 0978 9C030000 		.4byte	.LASF109
 1995 097c 7101     		.2byte	0x171
 1996 097e 21       		.byte	0x21
 1997 097f 32070000 		.4byte	0x732
 1998 0983 00       		.byte	0
 1999 0984 06       		.uleb128 0x6
 2000 0985 D9080000 		.4byte	.LASF120
 2001 0989 7501     		.2byte	0x175
 2002 098b 22       		.byte	0x22
 2003 098c DA030000 		.4byte	0x3da
 2004 0990 0C       		.byte	0xc
 2005 0991 00       		.byte	0
 2006 0992 1D       		.uleb128 0x1d
 2007 0993 69090000 		.4byte	.LASF121
 2008 0997 7601     		.2byte	0x176
 2009 0999 69090000 		.4byte	0x969
 2010 099d 14       		.uleb128 0x14
 2011 099e 57080000 		.4byte	.LASF122
 2012 09a2 14       		.byte	0x14
 2013 09a3 07       		.byte	0x7
 2014 09a4 7B01     		.2byte	0x17b
 2015 09a6 10       		.byte	0x10
 2016 09a7 ED090000 		.4byte	0x9ed
 2017 09ab 06       		.uleb128 0x6
 2018 09ac D4080000 		.4byte	.LASF40
 2019 09b0 7F01     		.2byte	0x17f
 2020 09b2 22       		.byte	0x22
 2021 09b3 7C030000 		.4byte	0x37c
 2022 09b7 00       		.byte	0
 2023 09b8 06       		.uleb128 0x6
 2024 09b9 09000000 		.4byte	.LASF123
 2025 09bd 8301     		.2byte	0x183
 2026 09bf 22       		.byte	0x22
 2027 09c0 64090000 		.4byte	0x964
 2028 09c4 04       		.byte	0x4
 2029 09c5 06       		.uleb128 0x6
 2030 09c6 4C080000 		.4byte	.LASF124
 2031 09ca 8701     		.2byte	0x187
 2032 09cc 22       		.byte	0x22
 2033 09cd 64090000 		.4byte	0x964
 2034 09d1 08       		.byte	0x8
 2035 09d2 06       		.uleb128 0x6
 2036 09d3 19070000 		.4byte	.LASF125
 2037 09d7 8C01     		.2byte	0x18c
 2038 09d9 22       		.byte	0x22
 2039 09da 64090000 		.4byte	0x964
 2040 09de 0C       		.byte	0xc
 2041 09df 06       		.uleb128 0x6
 2042 09e0 9F060000 		.4byte	.LASF126
 2043 09e4 9001     		.2byte	0x190
 2044 09e6 22       		.byte	0x22
 2045 09e7 64090000 		.4byte	0x964
 2046 09eb 10       		.byte	0x10
 2047 09ec 00       		.byte	0
 2048 09ed 1D       		.uleb128 0x1d
ARM GAS  C:\Users\DEVELO~1\AppData\Local\Temp\ccBkajkH.s 			page 37


 2049 09ee 20030000 		.4byte	.LASF127
 2050 09f2 9201     		.2byte	0x192
 2051 09f4 9D090000 		.4byte	0x99d
 2052 09f8 1B       		.uleb128 0x1b
 2053 09f9 ED090000 		.4byte	0x9ed
 2054 09fd 08       		.uleb128 0x8
 2055 09fe F8090000 		.4byte	0x9f8
 2056 0a02 02       		.uleb128 0x2
 2057 0a03 C2090000 		.4byte	.LASF128
 2058 0a07 0F       		.byte	0xf
 2059 0a08 34       		.byte	0x34
 2060 0a09 19       		.byte	0x19
 2061 0a0a 25090000 		.4byte	0x925
 2062 0a0e 08       		.uleb128 0x8
 2063 0a0f 020A0000 		.4byte	0xa02
 2064 0a13 09       		.uleb128 0x9
 2065 0a14 01       		.byte	0x1
 2066 0a15 02       		.byte	0x2
 2067 0a16 85040000 		.4byte	.LASF129
 2068 0a1a 10       		.uleb128 0x10
 2069 0a1b 61000000 		.4byte	0x61
 2070 0a1f 15       		.byte	0x15
 2071 0a20 430A0000 		.4byte	0xa43
 2072 0a24 05       		.uleb128 0x5
 2073 0a25 D9010000 		.4byte	.LASF130
 2074 0a29 00       		.byte	0
 2075 0a2a 05       		.uleb128 0x5
 2076 0a2b D0070000 		.4byte	.LASF131
 2077 0a2f 01       		.byte	0x1
 2078 0a30 05       		.uleb128 0x5
 2079 0a31 CA090000 		.4byte	.LASF132
 2080 0a35 02       		.byte	0x2
 2081 0a36 05       		.uleb128 0x5
 2082 0a37 F7020000 		.4byte	.LASF133
 2083 0a3b 03       		.byte	0x3
 2084 0a3c 05       		.uleb128 0x5
 2085 0a3d 8B010000 		.4byte	.LASF134
 2086 0a41 04       		.byte	0x4
 2087 0a42 00       		.byte	0
 2088 0a43 02       		.uleb128 0x2
 2089 0a44 A5020000 		.4byte	.LASF135
 2090 0a48 10       		.byte	0x10
 2091 0a49 1B       		.byte	0x1b
 2092 0a4a 03       		.byte	0x3
 2093 0a4b 1A0A0000 		.4byte	0xa1a
 2094 0a4f 10       		.uleb128 0x10
 2095 0a50 61000000 		.4byte	0x61
 2096 0a54 20       		.byte	0x20
 2097 0a55 7E0A0000 		.4byte	0xa7e
 2098 0a59 05       		.uleb128 0x5
 2099 0a5a 7C010000 		.4byte	.LASF136
 2100 0a5e 00       		.byte	0
 2101 0a5f 05       		.uleb128 0x5
 2102 0a60 BC050000 		.4byte	.LASF137
 2103 0a64 01       		.byte	0x1
 2104 0a65 05       		.uleb128 0x5
 2105 0a66 0B060000 		.4byte	.LASF138
ARM GAS  C:\Users\DEVELO~1\AppData\Local\Temp\ccBkajkH.s 			page 38


 2106 0a6a 02       		.byte	0x2
 2107 0a6b 05       		.uleb128 0x5
 2108 0a6c A1080000 		.4byte	.LASF139
 2109 0a70 03       		.byte	0x3
 2110 0a71 05       		.uleb128 0x5
 2111 0a72 C0010000 		.4byte	.LASF140
 2112 0a76 04       		.byte	0x4
 2113 0a77 05       		.uleb128 0x5
 2114 0a78 C0070000 		.4byte	.LASF141
 2115 0a7c 05       		.byte	0x5
 2116 0a7d 00       		.byte	0
 2117 0a7e 02       		.uleb128 0x2
 2118 0a7f EE050000 		.4byte	.LASF142
 2119 0a83 10       		.byte	0x10
 2120 0a84 27       		.byte	0x27
 2121 0a85 03       		.byte	0x3
 2122 0a86 4F0A0000 		.4byte	0xa4f
 2123 0a8a 10       		.uleb128 0x10
 2124 0a8b 61000000 		.4byte	0x61
 2125 0a8f 30       		.byte	0x30
 2126 0a90 B30A0000 		.4byte	0xab3
 2127 0a94 05       		.uleb128 0x5
 2128 0a95 8B030000 		.4byte	.LASF143
 2129 0a99 00       		.byte	0
 2130 0a9a 05       		.uleb128 0x5
 2131 0a9b 15000000 		.4byte	.LASF144
 2132 0a9f 01       		.byte	0x1
 2133 0aa0 05       		.uleb128 0x5
 2134 0aa1 31040000 		.4byte	.LASF145
 2135 0aa5 02       		.byte	0x2
 2136 0aa6 05       		.uleb128 0x5
 2137 0aa7 75070000 		.4byte	.LASF146
 2138 0aab 03       		.byte	0x3
 2139 0aac 05       		.uleb128 0x5
 2140 0aad E7060000 		.4byte	.LASF147
 2141 0ab1 04       		.byte	0x4
 2142 0ab2 00       		.byte	0
 2143 0ab3 02       		.uleb128 0x2
 2144 0ab4 E30A0000 		.4byte	.LASF148
 2145 0ab8 10       		.byte	0x10
 2146 0ab9 36       		.byte	0x36
 2147 0aba 03       		.byte	0x3
 2148 0abb 8A0A0000 		.4byte	0xa8a
 2149 0abf 0C       		.uleb128 0xc
 2150 0ac0 14       		.byte	0x14
 2151 0ac1 10       		.byte	0x10
 2152 0ac2 3B       		.byte	0x3b
 2153 0ac3 09       		.byte	0x9
 2154 0ac4 090B0000 		.4byte	0xb09
 2155 0ac8 0B       		.uleb128 0xb
 2156 0ac9 696400   		.ascii	"id\000"
 2157 0acc 10       		.byte	0x10
 2158 0acd 3C       		.byte	0x3c
 2159 0ace 15       		.byte	0x15
 2160 0acf B30A0000 		.4byte	0xab3
 2161 0ad3 00       		.byte	0
 2162 0ad4 01       		.uleb128 0x1
ARM GAS  C:\Users\DEVELO~1\AppData\Local\Temp\ccBkajkH.s 			page 39


 2163 0ad5 1B030000 		.4byte	.LASF149
 2164 0ad9 10       		.byte	0x10
 2165 0ada 3D       		.byte	0x3d
 2166 0adb 0D       		.byte	0xd
 2167 0adc 08010000 		.4byte	0x108
 2168 0ae0 04       		.byte	0x4
 2169 0ae1 01       		.uleb128 0x1
 2170 0ae2 8C000000 		.4byte	.LASF150
 2171 0ae6 10       		.byte	0x10
 2172 0ae7 3E       		.byte	0x3e
 2173 0ae8 0C       		.byte	0xc
 2174 0ae9 EB000000 		.4byte	0xeb
 2175 0aed 08       		.byte	0x8
 2176 0aee 01       		.uleb128 0x1
 2177 0aef 7C000000 		.4byte	.LASF38
 2178 0af3 10       		.byte	0x10
 2179 0af4 3F       		.byte	0x3f
 2180 0af5 0C       		.byte	0xc
 2181 0af6 EB000000 		.4byte	0xeb
 2182 0afa 0C       		.byte	0xc
 2183 0afb 01       		.uleb128 0x1
 2184 0afc 8A070000 		.4byte	.LASF151
 2185 0b00 10       		.byte	0x10
 2186 0b01 40       		.byte	0x40
 2187 0b02 0C       		.byte	0xc
 2188 0b03 EB000000 		.4byte	0xeb
 2189 0b07 10       		.byte	0x10
 2190 0b08 00       		.byte	0
 2191 0b09 02       		.uleb128 0x2
 2192 0b0a 79060000 		.4byte	.LASF152
 2193 0b0e 10       		.byte	0x10
 2194 0b0f 41       		.byte	0x41
 2195 0b10 03       		.byte	0x3
 2196 0b11 BF0A0000 		.4byte	0xabf
 2197 0b15 10       		.uleb128 0x10
 2198 0b16 61000000 		.4byte	0x61
 2199 0b1a 4E       		.byte	0x4e
 2200 0b1b 320B0000 		.4byte	0xb32
 2201 0b1f 05       		.uleb128 0x5
 2202 0b20 7B030000 		.4byte	.LASF153
 2203 0b24 00       		.byte	0
 2204 0b25 05       		.uleb128 0x5
 2205 0b26 DB090000 		.4byte	.LASF154
 2206 0b2a 01       		.byte	0x1
 2207 0b2b 05       		.uleb128 0x5
 2208 0b2c 63030000 		.4byte	.LASF155
 2209 0b30 02       		.byte	0x2
 2210 0b31 00       		.byte	0
 2211 0b32 02       		.uleb128 0x2
 2212 0b33 3B090000 		.4byte	.LASF156
 2213 0b37 10       		.byte	0x10
 2214 0b38 52       		.byte	0x52
 2215 0b39 03       		.byte	0x3
 2216 0b3a 150B0000 		.4byte	0xb15
 2217 0b3e 10       		.uleb128 0x10
 2218 0b3f 61000000 		.4byte	0x61
 2219 0b43 57       		.byte	0x57
ARM GAS  C:\Users\DEVELO~1\AppData\Local\Temp\ccBkajkH.s 			page 40


 2220 0b44 670B0000 		.4byte	0xb67
 2221 0b48 05       		.uleb128 0x5
 2222 0b49 92040000 		.4byte	.LASF157
 2223 0b4d 00       		.byte	0
 2224 0b4e 05       		.uleb128 0x5
 2225 0b4f FC060000 		.4byte	.LASF158
 2226 0b53 01       		.byte	0x1
 2227 0b54 05       		.uleb128 0x5
 2228 0b55 CC020000 		.4byte	.LASF159
 2229 0b59 02       		.byte	0x2
 2230 0b5a 05       		.uleb128 0x5
 2231 0b5b B1000000 		.4byte	.LASF160
 2232 0b5f 03       		.byte	0x3
 2233 0b60 05       		.uleb128 0x5
 2234 0b61 BD080000 		.4byte	.LASF161
 2235 0b65 04       		.byte	0x4
 2236 0b66 00       		.byte	0
 2237 0b67 02       		.uleb128 0x2
 2238 0b68 B4030000 		.4byte	.LASF162
 2239 0b6c 10       		.byte	0x10
 2240 0b6d 5D       		.byte	0x5d
 2241 0b6e 03       		.byte	0x3
 2242 0b6f 3E0B0000 		.4byte	0xb3e
 2243 0b73 10       		.uleb128 0x10
 2244 0b74 61000000 		.4byte	0x61
 2245 0b78 62       		.byte	0x62
 2246 0b79 8A0B0000 		.4byte	0xb8a
 2247 0b7d 05       		.uleb128 0x5
 2248 0b7e 8B080000 		.4byte	.LASF163
 2249 0b82 00       		.byte	0
 2250 0b83 05       		.uleb128 0x5
 2251 0b84 10010000 		.4byte	.LASF164
 2252 0b88 01       		.byte	0x1
 2253 0b89 00       		.byte	0
 2254 0b8a 02       		.uleb128 0x2
 2255 0b8b D2050000 		.4byte	.LASF165
 2256 0b8f 10       		.byte	0x10
 2257 0b90 65       		.byte	0x65
 2258 0b91 03       		.byte	0x3
 2259 0b92 730B0000 		.4byte	0xb73
 2260 0b96 0C       		.uleb128 0xc
 2261 0b97 20       		.byte	0x20
 2262 0b98 10       		.byte	0x10
 2263 0b99 6A       		.byte	0x6a
 2264 0b9a 09       		.byte	0x9
 2265 0b9b 150C0000 		.4byte	0xc15
 2266 0b9f 01       		.uleb128 0x1
 2267 0ba0 AC050000 		.4byte	.LASF166
 2268 0ba4 10       		.byte	0x10
 2269 0ba5 6B       		.byte	0x6b
 2270 0ba6 17       		.byte	0x17
 2271 0ba7 320B0000 		.4byte	0xb32
 2272 0bab 00       		.byte	0
 2273 0bac 01       		.uleb128 0x1
 2274 0bad B3020000 		.4byte	.LASF167
 2275 0bb1 10       		.byte	0x10
 2276 0bb2 6C       		.byte	0x6c
ARM GAS  C:\Users\DEVELO~1\AppData\Local\Temp\ccBkajkH.s 			page 41


 2277 0bb3 0C       		.byte	0xc
 2278 0bb4 EB000000 		.4byte	0xeb
 2279 0bb8 04       		.byte	0x4
 2280 0bb9 01       		.uleb128 0x1
 2281 0bba F9070000 		.4byte	.LASF168
 2282 0bbe 10       		.byte	0x10
 2283 0bbf 6D       		.byte	0x6d
 2284 0bc0 0C       		.byte	0xc
 2285 0bc1 EB000000 		.4byte	0xeb
 2286 0bc5 08       		.byte	0x8
 2287 0bc6 01       		.uleb128 0x1
 2288 0bc7 1C080000 		.4byte	.LASF169
 2289 0bcb 10       		.byte	0x10
 2290 0bcc 6E       		.byte	0x6e
 2291 0bcd 0C       		.byte	0xc
 2292 0bce EB000000 		.4byte	0xeb
 2293 0bd2 0C       		.byte	0xc
 2294 0bd3 01       		.uleb128 0x1
 2295 0bd4 54040000 		.4byte	.LASF170
 2296 0bd8 10       		.byte	0x10
 2297 0bd9 6F       		.byte	0x6f
 2298 0bda 0D       		.byte	0xd
 2299 0bdb 08010000 		.4byte	0x108
 2300 0bdf 10       		.byte	0x10
 2301 0be0 01       		.uleb128 0x1
 2302 0be1 040B0000 		.4byte	.LASF171
 2303 0be5 10       		.byte	0x10
 2304 0be6 70       		.byte	0x70
 2305 0be7 16       		.byte	0x16
 2306 0be8 670B0000 		.4byte	0xb67
 2307 0bec 14       		.byte	0x14
 2308 0bed 01       		.uleb128 0x1
 2309 0bee DD040000 		.4byte	.LASF172
 2310 0bf2 10       		.byte	0x10
 2311 0bf3 71       		.byte	0x71
 2312 0bf4 0C       		.byte	0xc
 2313 0bf5 D3000000 		.4byte	0xd3
 2314 0bf9 16       		.byte	0x16
 2315 0bfa 01       		.uleb128 0x1
 2316 0bfb F6040000 		.4byte	.LASF173
 2317 0bff 10       		.byte	0x10
 2318 0c00 72       		.byte	0x72
 2319 0c01 0D       		.byte	0xd
 2320 0c02 9E030000 		.4byte	0x39e
 2321 0c06 18       		.byte	0x18
 2322 0c07 01       		.uleb128 0x1
 2323 0c08 870A0000 		.4byte	.LASF174
 2324 0c0c 10       		.byte	0x10
 2325 0c0d 73       		.byte	0x73
 2326 0c0e 0D       		.byte	0xd
 2327 0c0f 9E030000 		.4byte	0x39e
 2328 0c13 1C       		.byte	0x1c
 2329 0c14 00       		.byte	0
 2330 0c15 02       		.uleb128 0x2
 2331 0c16 F2080000 		.4byte	.LASF175
 2332 0c1a 10       		.byte	0x10
 2333 0c1b 74       		.byte	0x74
ARM GAS  C:\Users\DEVELO~1\AppData\Local\Temp\ccBkajkH.s 			page 42


 2334 0c1c 03       		.byte	0x3
 2335 0c1d 960B0000 		.4byte	0xb96
 2336 0c21 0C       		.uleb128 0xc
 2337 0c22 24       		.byte	0x24
 2338 0c23 11       		.byte	0x11
 2339 0c24 15       		.byte	0x15
 2340 0c25 09       		.byte	0x9
 2341 0c26 5F0C0000 		.4byte	0xc5f
 2342 0c2a 01       		.uleb128 0x1
 2343 0c2b 530A0000 		.4byte	.LASF37
 2344 0c2f 11       		.byte	0x11
 2345 0c30 16       		.byte	0x16
 2346 0c31 11       		.byte	0x11
 2347 0c32 430A0000 		.4byte	0xa43
 2348 0c36 00       		.byte	0
 2349 0c37 01       		.uleb128 0x1
 2350 0c38 30090000 		.4byte	.LASF176
 2351 0c3c 11       		.byte	0x11
 2352 0c3d 17       		.byte	0x17
 2353 0c3e 11       		.byte	0x11
 2354 0c3f 7E0A0000 		.4byte	0xa7e
 2355 0c43 01       		.byte	0x1
 2356 0c44 01       		.uleb128 0x1
 2357 0c45 A70A0000 		.4byte	.LASF177
 2358 0c49 11       		.byte	0x11
 2359 0c4a 18       		.byte	0x18
 2360 0c4b 08       		.byte	0x8
 2361 0c4c 130A0000 		.4byte	0xa13
 2362 0c50 02       		.byte	0x2
 2363 0c51 01       		.uleb128 0x1
 2364 0c52 B7040000 		.4byte	.LASF178
 2365 0c56 11       		.byte	0x11
 2366 0c57 19       		.byte	0x19
 2367 0c58 17       		.byte	0x17
 2368 0c59 150C0000 		.4byte	0xc15
 2369 0c5d 04       		.byte	0x4
 2370 0c5e 00       		.byte	0
 2371 0c5f 02       		.uleb128 0x2
 2372 0c60 33010000 		.4byte	.LASF179
 2373 0c64 11       		.byte	0x11
 2374 0c65 1A       		.byte	0x1a
 2375 0c66 03       		.byte	0x3
 2376 0c67 210C0000 		.4byte	0xc21
 2377 0c6b 0C       		.uleb128 0xc
 2378 0c6c 2C       		.byte	0x2c
 2379 0c6d 11       		.byte	0x11
 2380 0c6e 1F       		.byte	0x1f
 2381 0c6f 09       		.byte	0x9
 2382 0c70 A90C0000 		.4byte	0xca9
 2383 0c74 01       		.uleb128 0x1
 2384 0c75 72010000 		.4byte	.LASF180
 2385 0c79 11       		.byte	0x11
 2386 0c7a 20       		.byte	0x20
 2387 0c7b 15       		.byte	0x15
 2388 0c7c 8A0B0000 		.4byte	0xb8a
 2389 0c80 00       		.byte	0
 2390 0c81 01       		.uleb128 0x1
ARM GAS  C:\Users\DEVELO~1\AppData\Local\Temp\ccBkajkH.s 			page 43


 2391 0c82 EB090000 		.4byte	.LASF181
 2392 0c86 11       		.byte	0x11
 2393 0c87 21       		.byte	0x21
 2394 0c88 0C       		.byte	0xc
 2395 0c89 EB000000 		.4byte	0xeb
 2396 0c8d 04       		.byte	0x4
 2397 0c8e 01       		.uleb128 0x1
 2398 0c8f 670A0000 		.4byte	.LASF182
 2399 0c93 11       		.byte	0x11
 2400 0c94 22       		.byte	0x22
 2401 0c95 0C       		.byte	0xc
 2402 0c96 EB000000 		.4byte	0xeb
 2403 0c9a 08       		.byte	0x8
 2404 0c9b 01       		.uleb128 0x1
 2405 0c9c 35030000 		.4byte	.LASF183
 2406 0ca0 11       		.byte	0x11
 2407 0ca1 23       		.byte	0x23
 2408 0ca2 17       		.byte	0x17
 2409 0ca3 150C0000 		.4byte	0xc15
 2410 0ca7 0C       		.byte	0xc
 2411 0ca8 00       		.byte	0
 2412 0ca9 02       		.uleb128 0x2
 2413 0caa DC030000 		.4byte	.LASF184
 2414 0cae 11       		.byte	0x11
 2415 0caf 24       		.byte	0x24
 2416 0cb0 03       		.byte	0x3
 2417 0cb1 6B0C0000 		.4byte	0xc6b
 2418 0cb5 2E       		.uleb128 0x2e
 2419 0cb6 9A050000 		.4byte	.LASF185
 2420 0cba 11       		.byte	0x11
 2421 0cbb 46       		.byte	0x46
 2422 0cbc 1B       		.byte	0x1b
 2423 0cbd 5F0C0000 		.4byte	0xc5f
 2424 0cc1 2F       		.uleb128 0x2f
 2425 0cc2 B50C0000 		.4byte	0xcb5
 2426 0cc6 01       		.byte	0x1
 2427 0cc7 09       		.byte	0x9
 2428 0cc8 14       		.byte	0x14
 2429 0cc9 05       		.uleb128 0x5
 2430 0cca 03       		.byte	0x3
 2431 0ccb 00000000 		.4byte	sdram_ctx
 2432 0ccf 30       		.uleb128 0x30
 2433 0cd0 0E080000 		.4byte	.LASF186
 2434 0cd4 01       		.byte	0x1
 2435 0cd5 10       		.byte	0x10
 2436 0cd6 01       		.byte	0x1
 2437 0cd7 020A0000 		.4byte	0xa02
 2438 0cdb 05       		.uleb128 0x5
 2439 0cdc 03       		.byte	0x3
 2440 0cdd 00000000 		.4byte	sdram_ctx_mtx
 2441 0ce1 1E       		.uleb128 0x1e
 2442 0ce2 28080000 		.4byte	.LASF187
 2443 0ce6 3C       		.byte	0x3c
 2444 0ce7 130A0000 		.4byte	0xa13
 2445 0ceb FA0C0000 		.4byte	0xcfa
 2446 0cef 0F       		.uleb128 0xf
 2447 0cf0 B30A0000 		.4byte	0xab3
ARM GAS  C:\Users\DEVELO~1\AppData\Local\Temp\ccBkajkH.s 			page 44


 2448 0cf4 0F       		.uleb128 0xf
 2449 0cf5 FA0C0000 		.4byte	0xcfa
 2450 0cf9 00       		.byte	0
 2451 0cfa 08       		.uleb128 0x8
 2452 0cfb 090B0000 		.4byte	0xb09
 2453 0cff 1E       		.uleb128 0x1e
 2454 0d00 9F010000 		.4byte	.LASF188
 2455 0d04 41       		.byte	0x41
 2456 0d05 130A0000 		.4byte	0xa13
 2457 0d09 130D0000 		.4byte	0xd13
 2458 0d0d 0F       		.uleb128 0xf
 2459 0d0e 130D0000 		.4byte	0xd13
 2460 0d12 00       		.byte	0
 2461 0d13 08       		.uleb128 0x8
 2462 0d14 A90C0000 		.4byte	0xca9
 2463 0d18 1F       		.uleb128 0x1f
 2464 0d19 C70A0000 		.4byte	.LASF189
 2465 0d1d 35       		.byte	0x35
 2466 0d1e 130A0000 		.4byte	0xa13
 2467 0d22 1F       		.uleb128 0x1f
 2468 0d23 0F090000 		.4byte	.LASF190
 2469 0d27 2C       		.byte	0x2c
 2470 0d28 130A0000 		.4byte	0xa13
 2471 0d2c 20       		.uleb128 0x20
 2472 0d2d 4B060000 		.4byte	.LASF191
 2473 0d31 6C       		.byte	0x6c
 2474 0d32 3C0D0000 		.4byte	0xd3c
 2475 0d36 0F       		.uleb128 0xf
 2476 0d37 0E0A0000 		.4byte	0xa0e
 2477 0d3b 00       		.byte	0
 2478 0d3c 20       		.uleb128 0x20
 2479 0d3d 2E000000 		.4byte	.LASF192
 2480 0d41 68       		.byte	0x68
 2481 0d42 4C0D0000 		.4byte	0xd4c
 2482 0d46 0F       		.uleb128 0xf
 2483 0d47 0E0A0000 		.4byte	0xa0e
 2484 0d4b 00       		.byte	0
 2485 0d4c 15       		.uleb128 0x15
 2486 0d4d 5B000000 		.4byte	.LASF195
 2487 0d51 9F       		.byte	0x9f
 2488 0d52 06       		.byte	0x6
 2489 0d53 130A0000 		.4byte	0xa13
 2490 0d57 00000000 		.4byte	.LFB454
 2491 0d5b 50000000 		.4byte	.LFE454-.LFB454
 2492 0d5f 01       		.uleb128 0x1
 2493 0d60 9C       		.byte	0x9c
 2494 0d61 170E0000 		.4byte	0xe17
 2495 0d65 12       		.uleb128 0x12
 2496 0d66 3E0A0000 		.4byte	.LASF193
 2497 0d6a 9F       		.byte	0x9f
 2498 0d6b 29       		.byte	0x29
 2499 0d6c B30A0000 		.4byte	0xab3
 2500 0d70 14000000 		.4byte	.LLST12
 2501 0d74 0C000000 		.4byte	.LVUS12
 2502 0d78 12       		.uleb128 0x12
 2503 0d79 06090000 		.4byte	.LASF194
 2504 0d7d 9F       		.byte	0x9f
ARM GAS  C:\Users\DEVELO~1\AppData\Local\Temp\ccBkajkH.s 			page 45


 2505 0d7e 49       		.byte	0x49
 2506 0d7f FA0C0000 		.4byte	0xcfa
 2507 0d83 3A000000 		.4byte	.LLST13
 2508 0d87 34000000 		.4byte	.LVUS13
 2509 0d8b 0E       		.uleb128 0xe
 2510 0d8c 530A0000 		.4byte	.LASF37
 2511 0d90 A5       		.byte	0xa5
 2512 0d91 11       		.byte	0x11
 2513 0d92 430A0000 		.4byte	0xa43
 2514 0d96 53000000 		.4byte	.LLST14
 2515 0d9a 4F000000 		.4byte	.LVUS14
 2516 0d9e 0E       		.uleb128 0xe
 2517 0d9f A70A0000 		.4byte	.LASF177
 2518 0da3 A6       		.byte	0xa6
 2519 0da4 08       		.byte	0x8
 2520 0da5 130A0000 		.4byte	0xa13
 2521 0da9 6B000000 		.4byte	.LLST15
 2522 0dad 67000000 		.4byte	.LVUS15
 2523 0db1 18       		.uleb128 0x18
 2524 0db2 BE110000 		.4byte	0x11be
 2525 0db6 30000000 		.4byte	.LBI20
 2526 0dba 01       		.byte	.LVU200
 2527 0dbb 24000000 		.4byte	.LLRL16
 2528 0dbf AA       		.byte	0xaa
 2529 0dc0 D20D0000 		.4byte	0xdd2
 2530 0dc4 19       		.uleb128 0x19
 2531 0dc5 C8110000 		.4byte	0x11c8
 2532 0dc9 81000000 		.4byte	.LLST17
 2533 0dcd 7F000000 		.4byte	.LVUS17
 2534 0dd1 00       		.byte	0
 2535 0dd2 07       		.uleb128 0x7
 2536 0dd3 0E000000 		.4byte	.LVL46
 2537 0dd7 3C0D0000 		.4byte	0xd3c
 2538 0ddb E90D0000 		.4byte	0xde9
 2539 0ddf 03       		.uleb128 0x3
 2540 0de0 01       		.uleb128 0x1
 2541 0de1 50       		.byte	0x50
 2542 0de2 05       		.uleb128 0x5
 2543 0de3 03       		.byte	0x3
 2544 0de4 00000000 		.4byte	.LANCHOR0
 2545 0de8 00       		.byte	0
 2546 0de9 07       		.uleb128 0x7
 2547 0dea 1A000000 		.4byte	.LVL49
 2548 0dee 2C0D0000 		.4byte	0xd2c
 2549 0df2 000E0000 		.4byte	0xe00
 2550 0df6 03       		.uleb128 0x3
 2551 0df7 01       		.uleb128 0x1
 2552 0df8 50       		.byte	0x50
 2553 0df9 05       		.uleb128 0x5
 2554 0dfa 03       		.byte	0x3
 2555 0dfb 00000000 		.4byte	.LANCHOR0
 2556 0dff 00       		.byte	0
 2557 0e00 13       		.uleb128 0x13
 2558 0e01 2C000000 		.4byte	.LVL50
 2559 0e05 E10C0000 		.4byte	0xce1
 2560 0e09 03       		.uleb128 0x3
 2561 0e0a 01       		.uleb128 0x1
ARM GAS  C:\Users\DEVELO~1\AppData\Local\Temp\ccBkajkH.s 			page 46


 2562 0e0b 50       		.byte	0x50
 2563 0e0c 02       		.uleb128 0x2
 2564 0e0d 75       		.byte	0x75
 2565 0e0e 00       		.sleb128 0
 2566 0e0f 03       		.uleb128 0x3
 2567 0e10 01       		.uleb128 0x1
 2568 0e11 51       		.byte	0x51
 2569 0e12 02       		.uleb128 0x2
 2570 0e13 74       		.byte	0x74
 2571 0e14 00       		.sleb128 0
 2572 0e15 00       		.byte	0
 2573 0e16 00       		.byte	0
 2574 0e17 15       		.uleb128 0x15
 2575 0e18 F50A0000 		.4byte	.LASF196
 2576 0e1c 6E       		.byte	0x6e
 2577 0e1d 06       		.byte	0x6
 2578 0e1e 130A0000 		.4byte	0xa13
 2579 0e22 00000000 		.4byte	.LFB453
 2580 0e26 D0000000 		.4byte	.LFE453-.LFB453
 2581 0e2a 01       		.uleb128 0x1
 2582 0e2b 9C       		.byte	0x9c
 2583 0e2c 320F0000 		.4byte	0xf32
 2584 0e30 12       		.uleb128 0x12
 2585 0e31 72010000 		.4byte	.LASF180
 2586 0e35 6E       		.byte	0x6e
 2587 0e36 27       		.byte	0x27
 2588 0e37 8A0B0000 		.4byte	0xb8a
 2589 0e3b 8E000000 		.4byte	.LLST8
 2590 0e3f 8A000000 		.4byte	.LVUS8
 2591 0e43 12       		.uleb128 0x12
 2592 0e44 3C030000 		.4byte	.LASF197
 2593 0e48 6E       		.byte	0x6e
 2594 0e49 42       		.byte	0x42
 2595 0e4a 320F0000 		.4byte	0xf32
 2596 0e4e A6000000 		.4byte	.LLST9
 2597 0e52 A2000000 		.4byte	.LVUS9
 2598 0e56 0E       		.uleb128 0xe
 2599 0e57 F5000000 		.4byte	.LASF198
 2600 0e5b 6F       		.byte	0x6f
 2601 0e5c 11       		.byte	0x11
 2602 0e5d 430A0000 		.4byte	0xa43
 2603 0e61 B9000000 		.4byte	.LLST10
 2604 0e65 B7000000 		.4byte	.LVUS10
 2605 0e69 31       		.uleb128 0x31
 2606 0e6a 63747800 		.ascii	"ctx\000"
 2607 0e6e 01       		.byte	0x1
 2608 0e6f 7C       		.byte	0x7c
 2609 0e70 18       		.byte	0x18
 2610 0e71 A90C0000 		.4byte	0xca9
 2611 0e75 03       		.uleb128 0x3
 2612 0e76 91       		.byte	0x91
 2613 0e77 B47F     		.sleb128 -76
 2614 0e79 0E       		.uleb128 0xe
 2615 0e7a C6060000 		.4byte	.LASF199
 2616 0e7e 7F       		.byte	0x7f
 2617 0e7f 08       		.byte	0x8
 2618 0e80 130A0000 		.4byte	0xa13
ARM GAS  C:\Users\DEVELO~1\AppData\Local\Temp\ccBkajkH.s 			page 47


 2619 0e84 C5000000 		.4byte	.LLST11
 2620 0e88 C3000000 		.4byte	.LVUS11
 2621 0e8c 07       		.uleb128 0x7
 2622 0e8d 12000000 		.4byte	.LVL33
 2623 0e91 3C0D0000 		.4byte	0xd3c
 2624 0e95 A30E0000 		.4byte	0xea3
 2625 0e99 03       		.uleb128 0x3
 2626 0e9a 01       		.uleb128 0x1
 2627 0e9b 50       		.byte	0x50
 2628 0e9c 05       		.uleb128 0x5
 2629 0e9d 03       		.byte	0x3
 2630 0e9e 00000000 		.4byte	.LANCHOR0
 2631 0ea2 00       		.byte	0
 2632 0ea3 07       		.uleb128 0x7
 2633 0ea4 2E000000 		.4byte	.LVL35
 2634 0ea8 2C0D0000 		.4byte	0xd2c
 2635 0eac BA0E0000 		.4byte	0xeba
 2636 0eb0 03       		.uleb128 0x3
 2637 0eb1 01       		.uleb128 0x1
 2638 0eb2 50       		.byte	0x50
 2639 0eb3 05       		.uleb128 0x5
 2640 0eb4 03       		.byte	0x3
 2641 0eb5 00000000 		.4byte	.LANCHOR0
 2642 0eb9 00       		.byte	0
 2643 0eba 07       		.uleb128 0x7
 2644 0ebb 40000000 		.4byte	.LVL37
 2645 0ebf 2C0D0000 		.4byte	0xd2c
 2646 0ec3 D10E0000 		.4byte	0xed1
 2647 0ec7 03       		.uleb128 0x3
 2648 0ec8 01       		.uleb128 0x1
 2649 0ec9 50       		.byte	0x50
 2650 0eca 05       		.uleb128 0x5
 2651 0ecb 03       		.byte	0x3
 2652 0ecc 00000000 		.4byte	.LANCHOR0
 2653 0ed0 00       		.byte	0
 2654 0ed1 07       		.uleb128 0x7
 2655 0ed2 4A000000 		.4byte	.LVL38
 2656 0ed6 EA110000 		.4byte	0x11ea
 2657 0eda F20E0000 		.4byte	0xef2
 2658 0ede 03       		.uleb128 0x3
 2659 0edf 01       		.uleb128 0x1
 2660 0ee0 50       		.byte	0x50
 2661 0ee1 03       		.uleb128 0x3
 2662 0ee2 91       		.byte	0x91
 2663 0ee3 B47F     		.sleb128 -76
 2664 0ee5 03       		.uleb128 0x3
 2665 0ee6 01       		.uleb128 0x1
 2666 0ee7 51       		.byte	0x51
 2667 0ee8 02       		.uleb128 0x2
 2668 0ee9 78       		.byte	0x78
 2669 0eea 00       		.sleb128 0
 2670 0eeb 03       		.uleb128 0x3
 2671 0eec 01       		.uleb128 0x1
 2672 0eed 52       		.byte	0x52
 2673 0eee 02       		.uleb128 0x2
 2674 0eef 08       		.byte	0x8
 2675 0ef0 2C       		.byte	0x2c
ARM GAS  C:\Users\DEVELO~1\AppData\Local\Temp\ccBkajkH.s 			page 48


 2676 0ef1 00       		.byte	0
 2677 0ef2 07       		.uleb128 0x7
 2678 0ef3 54000000 		.4byte	.LVL39
 2679 0ef7 FF0C0000 		.4byte	0xcff
 2680 0efb 070F0000 		.4byte	0xf07
 2681 0eff 03       		.uleb128 0x3
 2682 0f00 01       		.uleb128 0x1
 2683 0f01 50       		.byte	0x50
 2684 0f02 03       		.uleb128 0x3
 2685 0f03 91       		.byte	0x91
 2686 0f04 B47F     		.sleb128 -76
 2687 0f06 00       		.byte	0
 2688 0f07 07       		.uleb128 0x7
 2689 0f08 5C000000 		.4byte	.LVL41
 2690 0f0c 3C0D0000 		.4byte	0xd3c
 2691 0f10 1E0F0000 		.4byte	0xf1e
 2692 0f14 03       		.uleb128 0x3
 2693 0f15 01       		.uleb128 0x1
 2694 0f16 50       		.byte	0x50
 2695 0f17 05       		.uleb128 0x5
 2696 0f18 03       		.byte	0x3
 2697 0f19 00000000 		.4byte	.LANCHOR0
 2698 0f1d 00       		.byte	0
 2699 0f1e 13       		.uleb128 0x13
 2700 0f1f AC000000 		.4byte	.LVL42
 2701 0f23 2C0D0000 		.4byte	0xd2c
 2702 0f27 03       		.uleb128 0x3
 2703 0f28 01       		.uleb128 0x1
 2704 0f29 50       		.byte	0x50
 2705 0f2a 05       		.uleb128 0x5
 2706 0f2b 03       		.byte	0x3
 2707 0f2c 00000000 		.4byte	.LANCHOR0
 2708 0f30 00       		.byte	0
 2709 0f31 00       		.byte	0
 2710 0f32 08       		.uleb128 0x8
 2711 0f33 150C0000 		.4byte	0xc15
 2712 0f37 15       		.uleb128 0x15
 2713 0f38 6C000000 		.4byte	.LASF200
 2714 0f3c 67       		.byte	0x67
 2715 0f3d 0F       		.byte	0xf
 2716 0f3e 7E0A0000 		.4byte	0xa7e
 2717 0f42 00000000 		.4byte	.LFB452
 2718 0f46 20000000 		.4byte	.LFE452-.LFB452
 2719 0f4a 01       		.uleb128 0x1
 2720 0f4b 9C       		.byte	0x9c
 2721 0f4c 8E0F0000 		.4byte	0xf8e
 2722 0f50 0E       		.uleb128 0xe
 2723 0f51 D7040000 		.4byte	.LASF201
 2724 0f55 69       		.byte	0x69
 2725 0f56 11       		.byte	0x11
 2726 0f57 7E0A0000 		.4byte	0xa7e
 2727 0f5b D4000000 		.4byte	.LLST7
 2728 0f5f CE000000 		.4byte	.LVUS7
 2729 0f63 07       		.uleb128 0x7
 2730 0f64 08000000 		.4byte	.LVL27
 2731 0f68 3C0D0000 		.4byte	0xd3c
 2732 0f6c 7A0F0000 		.4byte	0xf7a
ARM GAS  C:\Users\DEVELO~1\AppData\Local\Temp\ccBkajkH.s 			page 49


 2733 0f70 03       		.uleb128 0x3
 2734 0f71 01       		.uleb128 0x1
 2735 0f72 50       		.byte	0x50
 2736 0f73 05       		.uleb128 0x5
 2737 0f74 03       		.byte	0x3
 2738 0f75 00000000 		.4byte	.LANCHOR0
 2739 0f79 00       		.byte	0
 2740 0f7a 13       		.uleb128 0x13
 2741 0f7b 12000000 		.4byte	.LVL29
 2742 0f7f 2C0D0000 		.4byte	0xd2c
 2743 0f83 03       		.uleb128 0x3
 2744 0f84 01       		.uleb128 0x1
 2745 0f85 50       		.byte	0x50
 2746 0f86 05       		.uleb128 0x5
 2747 0f87 03       		.byte	0x3
 2748 0f88 00000000 		.4byte	.LANCHOR0
 2749 0f8c 00       		.byte	0
 2750 0f8d 00       		.byte	0
 2751 0f8e 15       		.uleb128 0x15
 2752 0f8f 92060000 		.4byte	.LASF202
 2753 0f93 60       		.byte	0x60
 2754 0f94 0F       		.byte	0xf
 2755 0f95 430A0000 		.4byte	0xa43
 2756 0f99 00000000 		.4byte	.LFB451
 2757 0f9d 20000000 		.4byte	.LFE451-.LFB451
 2758 0fa1 01       		.uleb128 0x1
 2759 0fa2 9C       		.byte	0x9c
 2760 0fa3 E50F0000 		.4byte	0xfe5
 2761 0fa7 0E       		.uleb128 0xe
 2762 0fa8 530A0000 		.4byte	.LASF37
 2763 0fac 62       		.byte	0x62
 2764 0fad 11       		.byte	0x11
 2765 0fae 430A0000 		.4byte	0xa43
 2766 0fb2 F3000000 		.4byte	.LLST6
 2767 0fb6 ED000000 		.4byte	.LVUS6
 2768 0fba 07       		.uleb128 0x7
 2769 0fbb 08000000 		.4byte	.LVL23
 2770 0fbf 3C0D0000 		.4byte	0xd3c
 2771 0fc3 D10F0000 		.4byte	0xfd1
 2772 0fc7 03       		.uleb128 0x3
 2773 0fc8 01       		.uleb128 0x1
 2774 0fc9 50       		.byte	0x50
 2775 0fca 05       		.uleb128 0x5
 2776 0fcb 03       		.byte	0x3
 2777 0fcc 00000000 		.4byte	.LANCHOR0
 2778 0fd0 00       		.byte	0
 2779 0fd1 13       		.uleb128 0x13
 2780 0fd2 12000000 		.4byte	.LVL25
 2781 0fd6 2C0D0000 		.4byte	0xd2c
 2782 0fda 03       		.uleb128 0x3
 2783 0fdb 01       		.uleb128 0x1
 2784 0fdc 50       		.byte	0x50
 2785 0fdd 05       		.uleb128 0x5
 2786 0fde 03       		.byte	0x3
 2787 0fdf 00000000 		.4byte	.LANCHOR0
 2788 0fe3 00       		.byte	0
 2789 0fe4 00       		.byte	0
ARM GAS  C:\Users\DEVELO~1\AppData\Local\Temp\ccBkajkH.s 			page 50


 2790 0fe5 32       		.uleb128 0x32
 2791 0fe6 BB060000 		.4byte	.LASF212
 2792 0fea 01       		.byte	0x1
 2793 0feb 23       		.byte	0x23
 2794 0fec 06       		.byte	0x6
 2795 0fed 00000000 		.4byte	.LFB450
 2796 0ff1 E0000000 		.4byte	.LFE450-.LFB450
 2797 0ff5 01       		.uleb128 0x1
 2798 0ff6 9C       		.byte	0x9c
 2799 0ff7 BE110000 		.4byte	0x11be
 2800 0ffb 12       		.uleb128 0x12
 2801 0ffc FC050000 		.4byte	.LASF203
 2802 1000 23       		.byte	0x23
 2803 1001 16       		.byte	0x16
 2804 1002 130A0000 		.4byte	0xa13
 2805 1006 10010000 		.4byte	.LLST0
 2806 100a 0C010000 		.4byte	.LVUS0
 2807 100e 33       		.uleb128 0x33
 2808 100f AD060000 		.4byte	.LASF204
 2809 1013 01       		.byte	0x1
 2810 1014 48       		.byte	0x48
 2811 1015 18       		.byte	0x18
 2812 1016 A90C0000 		.4byte	0xca9
 2813 101a 03       		.uleb128 0x3
 2814 101b 91       		.byte	0x91
 2815 101c BC7F     		.sleb128 -68
 2816 101e 0E       		.uleb128 0xe
 2817 101f 37070000 		.4byte	.LASF205
 2818 1023 4F       		.byte	0x4f
 2819 1024 08       		.byte	0x8
 2820 1025 130A0000 		.4byte	0xa13
 2821 1029 28010000 		.4byte	.LLST1
 2822 102d 24010000 		.4byte	.LVUS1
 2823 1031 18       		.uleb128 0x18
 2824 1032 D4110000 		.4byte	0x11d4
 2825 1036 88000000 		.4byte	.LBI12
 2826 103a 01       		.byte	.LVU55
 2827 103b 0C000000 		.4byte	.LLRL2
 2828 103f 33       		.byte	0x33
 2829 1040 52100000 		.4byte	0x1052
 2830 1044 19       		.uleb128 0x19
 2831 1045 DE110000 		.4byte	0x11de
 2832 1049 3A010000 		.4byte	.LLST3
 2833 104d 38010000 		.4byte	.LVUS3
 2834 1051 00       		.byte	0
 2835 1052 18       		.uleb128 0x18
 2836 1053 D4110000 		.4byte	0x11d4
 2837 1057 CE000000 		.4byte	.LBI16
 2838 105b 01       		.byte	.LVU83
 2839 105c 18000000 		.4byte	.LLRL4
 2840 1060 3B       		.byte	0x3b
 2841 1061 73100000 		.4byte	0x1073
 2842 1065 19       		.uleb128 0x19
 2843 1066 DE110000 		.4byte	0x11de
 2844 106a 46010000 		.4byte	.LLST5
 2845 106e 44010000 		.4byte	.LVUS5
 2846 1072 00       		.byte	0
ARM GAS  C:\Users\DEVELO~1\AppData\Local\Temp\ccBkajkH.s 			page 51


 2847 1073 07       		.uleb128 0x7
 2848 1074 0E000000 		.4byte	.LVL2
 2849 1078 3C0D0000 		.4byte	0xd3c
 2850 107c 8A100000 		.4byte	0x108a
 2851 1080 03       		.uleb128 0x3
 2852 1081 01       		.uleb128 0x1
 2853 1082 50       		.byte	0x50
 2854 1083 05       		.uleb128 0x5
 2855 1084 03       		.byte	0x3
 2856 1085 00000000 		.4byte	.LANCHOR0
 2857 1089 00       		.byte	0
 2858 108a 07       		.uleb128 0x7
 2859 108b 20000000 		.4byte	.LVL3
 2860 108f 2C0D0000 		.4byte	0xd2c
 2861 1093 A1100000 		.4byte	0x10a1
 2862 1097 03       		.uleb128 0x3
 2863 1098 01       		.uleb128 0x1
 2864 1099 50       		.byte	0x50
 2865 109a 05       		.uleb128 0x5
 2866 109b 03       		.byte	0x3
 2867 109c 00000000 		.4byte	.LANCHOR0
 2868 10a0 00       		.byte	0
 2869 10a1 21       		.uleb128 0x21
 2870 10a2 24000000 		.4byte	.LVL4
 2871 10a6 220D0000 		.4byte	0xd22
 2872 10aa 21       		.uleb128 0x21
 2873 10ab 2A000000 		.4byte	.LVL5
 2874 10af 180D0000 		.4byte	0xd18
 2875 10b3 07       		.uleb128 0x7
 2876 10b4 3E000000 		.4byte	.LVL6
 2877 10b8 EA110000 		.4byte	0x11ea
 2878 10bc D4100000 		.4byte	0x10d4
 2879 10c0 03       		.uleb128 0x3
 2880 10c1 01       		.uleb128 0x1
 2881 10c2 50       		.byte	0x50
 2882 10c3 03       		.uleb128 0x3
 2883 10c4 91       		.byte	0x91
 2884 10c5 BC7F     		.sleb128 -68
 2885 10c7 03       		.uleb128 0x3
 2886 10c8 01       		.uleb128 0x1
 2887 10c9 51       		.byte	0x51
 2888 10ca 02       		.uleb128 0x2
 2889 10cb 76       		.byte	0x76
 2890 10cc 00       		.sleb128 0
 2891 10cd 03       		.uleb128 0x3
 2892 10ce 01       		.uleb128 0x1
 2893 10cf 52       		.byte	0x52
 2894 10d0 02       		.uleb128 0x2
 2895 10d1 08       		.byte	0x8
 2896 10d2 2C       		.byte	0x2c
 2897 10d3 00       		.byte	0
 2898 10d4 07       		.uleb128 0x7
 2899 10d5 44000000 		.4byte	.LVL7
 2900 10d9 3C0D0000 		.4byte	0xd3c
 2901 10dd EB100000 		.4byte	0x10eb
 2902 10e1 03       		.uleb128 0x3
 2903 10e2 01       		.uleb128 0x1
ARM GAS  C:\Users\DEVELO~1\AppData\Local\Temp\ccBkajkH.s 			page 52


 2904 10e3 50       		.byte	0x50
 2905 10e4 05       		.uleb128 0x5
 2906 10e5 03       		.byte	0x3
 2907 10e6 00000000 		.4byte	.LANCHOR0
 2908 10ea 00       		.byte	0
 2909 10eb 07       		.uleb128 0x7
 2910 10ec 4C000000 		.4byte	.LVL8
 2911 10f0 2C0D0000 		.4byte	0xd2c
 2912 10f4 02110000 		.4byte	0x1102
 2913 10f8 03       		.uleb128 0x3
 2914 10f9 01       		.uleb128 0x1
 2915 10fa 50       		.byte	0x50
 2916 10fb 05       		.uleb128 0x5
 2917 10fc 03       		.byte	0x3
 2918 10fd 00000000 		.4byte	.LANCHOR0
 2919 1101 00       		.byte	0
 2920 1102 07       		.uleb128 0x7
 2921 1103 52000000 		.4byte	.LVL9
 2922 1107 FF0C0000 		.4byte	0xcff
 2923 110b 17110000 		.4byte	0x1117
 2924 110f 03       		.uleb128 0x3
 2925 1110 01       		.uleb128 0x1
 2926 1111 50       		.byte	0x50
 2927 1112 03       		.uleb128 0x3
 2928 1113 91       		.byte	0x91
 2929 1114 BC7F     		.sleb128 -68
 2930 1116 00       		.byte	0
 2931 1117 07       		.uleb128 0x7
 2932 1118 5A000000 		.4byte	.LVL11
 2933 111c 3C0D0000 		.4byte	0xd3c
 2934 1120 2E110000 		.4byte	0x112e
 2935 1124 03       		.uleb128 0x3
 2936 1125 01       		.uleb128 0x1
 2937 1126 50       		.byte	0x50
 2938 1127 05       		.uleb128 0x5
 2939 1128 03       		.byte	0x3
 2940 1129 00000000 		.4byte	.LANCHOR0
 2941 112d 00       		.byte	0
 2942 112e 07       		.uleb128 0x7
 2943 112f 7E000000 		.4byte	.LVL12
 2944 1133 2C0D0000 		.4byte	0xd2c
 2945 1137 45110000 		.4byte	0x1145
 2946 113b 03       		.uleb128 0x3
 2947 113c 01       		.uleb128 0x1
 2948 113d 50       		.byte	0x50
 2949 113e 05       		.uleb128 0x5
 2950 113f 03       		.byte	0x3
 2951 1140 00000000 		.4byte	.LANCHOR0
 2952 1144 00       		.byte	0
 2953 1145 07       		.uleb128 0x7
 2954 1146 88000000 		.4byte	.LVL14
 2955 114a 3C0D0000 		.4byte	0xd3c
 2956 114e 5C110000 		.4byte	0x115c
 2957 1152 03       		.uleb128 0x3
 2958 1153 01       		.uleb128 0x1
 2959 1154 50       		.byte	0x50
 2960 1155 05       		.uleb128 0x5
ARM GAS  C:\Users\DEVELO~1\AppData\Local\Temp\ccBkajkH.s 			page 53


 2961 1156 03       		.byte	0x3
 2962 1157 00000000 		.4byte	.LANCHOR0
 2963 115b 00       		.byte	0
 2964 115c 34       		.uleb128 0x34
 2965 115d 9A000000 		.4byte	.LVL16
 2966 1161 2C0D0000 		.4byte	0xd2c
 2967 1165 22       		.uleb128 0x22
 2968 1166 A6000000 		.4byte	.LVL17
 2969 116a 2C0D0000 		.4byte	0xd2c
 2970 116e 7C110000 		.4byte	0x117c
 2971 1172 03       		.uleb128 0x3
 2972 1173 01       		.uleb128 0x1
 2973 1174 50       		.byte	0x50
 2974 1175 05       		.uleb128 0x5
 2975 1176 03       		.byte	0x3
 2976 1177 00000000 		.4byte	.LANCHOR0
 2977 117b 00       		.byte	0
 2978 117c 07       		.uleb128 0x7
 2979 117d B8000000 		.4byte	.LVL19
 2980 1181 3C0D0000 		.4byte	0xd3c
 2981 1185 93110000 		.4byte	0x1193
 2982 1189 03       		.uleb128 0x3
 2983 118a 01       		.uleb128 0x1
 2984 118b 50       		.byte	0x50
 2985 118c 05       		.uleb128 0x5
 2986 118d 03       		.byte	0x3
 2987 118e 00000000 		.4byte	.LANCHOR0
 2988 1192 00       		.byte	0
 2989 1193 22       		.uleb128 0x22
 2990 1194 C8000000 		.4byte	.LVL20
 2991 1198 2C0D0000 		.4byte	0xd2c
 2992 119c AA110000 		.4byte	0x11aa
 2993 11a0 03       		.uleb128 0x3
 2994 11a1 01       		.uleb128 0x1
 2995 11a2 50       		.byte	0x50
 2996 11a3 05       		.uleb128 0x5
 2997 11a4 03       		.byte	0x3
 2998 11a5 00000000 		.4byte	.LANCHOR0
 2999 11a9 00       		.byte	0
 3000 11aa 13       		.uleb128 0x13
 3001 11ab CE000000 		.4byte	.LVL21
 3002 11af 3C0D0000 		.4byte	0xd3c
 3003 11b3 03       		.uleb128 0x3
 3004 11b4 01       		.uleb128 0x1
 3005 11b5 50       		.byte	0x50
 3006 11b6 05       		.uleb128 0x5
 3007 11b7 03       		.byte	0x3
 3008 11b8 00000000 		.4byte	.LANCHOR0
 3009 11bc 00       		.byte	0
 3010 11bd 00       		.byte	0
 3011 11be 23       		.uleb128 0x23
 3012 11bf 230B0000 		.4byte	.LASF206
 3013 11c3 17       		.byte	0x17
 3014 11c4 D4110000 		.4byte	0x11d4
 3015 11c8 24       		.uleb128 0x24
 3016 11c9 740A0000 		.4byte	.LASF208
 3017 11cd 17       		.byte	0x17
ARM GAS  C:\Users\DEVELO~1\AppData\Local\Temp\ccBkajkH.s 			page 54


 3018 11ce 3A       		.byte	0x3a
 3019 11cf FA0C0000 		.4byte	0xcfa
 3020 11d3 00       		.byte	0
 3021 11d4 23       		.uleb128 0x23
 3022 11d5 5E070000 		.4byte	.LASF207
 3023 11d9 12       		.byte	0x12
 3024 11da EA110000 		.4byte	0x11ea
 3025 11de 24       		.uleb128 0x24
 3026 11df D7040000 		.4byte	.LASF201
 3027 11e3 12       		.byte	0x12
 3028 11e4 32       		.byte	0x32
 3029 11e5 7E0A0000 		.4byte	0xa7e
 3030 11e9 00       		.byte	0
 3031 11ea 35       		.uleb128 0x35
 3032 11eb 72060000 		.4byte	.LASF213
 3033 11ef E1080000 		.4byte	.LASF214
 3034 11f3 12       		.byte	0x12
 3035 11f4 00       		.byte	0
 3036 11f5 00       		.byte	0
 3037              		.section	.debug_abbrev,"",%progbits
 3038              	.Ldebug_abbrev0:
 3039 0000 01       		.uleb128 0x1
 3040 0001 0D       		.uleb128 0xd
 3041 0002 00       		.byte	0
 3042 0003 03       		.uleb128 0x3
 3043 0004 0E       		.uleb128 0xe
 3044 0005 3A       		.uleb128 0x3a
 3045 0006 0B       		.uleb128 0xb
 3046 0007 3B       		.uleb128 0x3b
 3047 0008 0B       		.uleb128 0xb
 3048 0009 39       		.uleb128 0x39
 3049 000a 0B       		.uleb128 0xb
 3050 000b 49       		.uleb128 0x49
 3051 000c 13       		.uleb128 0x13
 3052 000d 38       		.uleb128 0x38
 3053 000e 0B       		.uleb128 0xb
 3054 000f 00       		.byte	0
 3055 0010 00       		.byte	0
 3056 0011 02       		.uleb128 0x2
 3057 0012 16       		.uleb128 0x16
 3058 0013 00       		.byte	0
 3059 0014 03       		.uleb128 0x3
 3060 0015 0E       		.uleb128 0xe
 3061 0016 3A       		.uleb128 0x3a
 3062 0017 0B       		.uleb128 0xb
 3063 0018 3B       		.uleb128 0x3b
 3064 0019 0B       		.uleb128 0xb
 3065 001a 39       		.uleb128 0x39
 3066 001b 0B       		.uleb128 0xb
 3067 001c 49       		.uleb128 0x49
 3068 001d 13       		.uleb128 0x13
 3069 001e 00       		.byte	0
 3070 001f 00       		.byte	0
 3071 0020 03       		.uleb128 0x3
 3072 0021 49       		.uleb128 0x49
 3073 0022 00       		.byte	0
 3074 0023 02       		.uleb128 0x2
ARM GAS  C:\Users\DEVELO~1\AppData\Local\Temp\ccBkajkH.s 			page 55


 3075 0024 18       		.uleb128 0x18
 3076 0025 7E       		.uleb128 0x7e
 3077 0026 18       		.uleb128 0x18
 3078 0027 00       		.byte	0
 3079 0028 00       		.byte	0
 3080 0029 04       		.uleb128 0x4
 3081 002a 0D       		.uleb128 0xd
 3082 002b 00       		.byte	0
 3083 002c 03       		.uleb128 0x3
 3084 002d 08       		.uleb128 0x8
 3085 002e 3A       		.uleb128 0x3a
 3086 002f 0B       		.uleb128 0xb
 3087 0030 3B       		.uleb128 0x3b
 3088 0031 05       		.uleb128 0x5
 3089 0032 39       		.uleb128 0x39
 3090 0033 0B       		.uleb128 0xb
 3091 0034 49       		.uleb128 0x49
 3092 0035 13       		.uleb128 0x13
 3093 0036 38       		.uleb128 0x38
 3094 0037 0B       		.uleb128 0xb
 3095 0038 00       		.byte	0
 3096 0039 00       		.byte	0
 3097 003a 05       		.uleb128 0x5
 3098 003b 28       		.uleb128 0x28
 3099 003c 00       		.byte	0
 3100 003d 03       		.uleb128 0x3
 3101 003e 0E       		.uleb128 0xe
 3102 003f 1C       		.uleb128 0x1c
 3103 0040 0B       		.uleb128 0xb
 3104 0041 00       		.byte	0
 3105 0042 00       		.byte	0
 3106 0043 06       		.uleb128 0x6
 3107 0044 0D       		.uleb128 0xd
 3108 0045 00       		.byte	0
 3109 0046 03       		.uleb128 0x3
 3110 0047 0E       		.uleb128 0xe
 3111 0048 3A       		.uleb128 0x3a
 3112 0049 21       		.uleb128 0x21
 3113 004a 07       		.sleb128 7
 3114 004b 3B       		.uleb128 0x3b
 3115 004c 05       		.uleb128 0x5
 3116 004d 39       		.uleb128 0x39
 3117 004e 0B       		.uleb128 0xb
 3118 004f 49       		.uleb128 0x49
 3119 0050 13       		.uleb128 0x13
 3120 0051 38       		.uleb128 0x38
 3121 0052 0B       		.uleb128 0xb
 3122 0053 00       		.byte	0
 3123 0054 00       		.byte	0
 3124 0055 07       		.uleb128 0x7
 3125 0056 48       		.uleb128 0x48
 3126 0057 01       		.byte	0x1
 3127 0058 7D       		.uleb128 0x7d
 3128 0059 01       		.uleb128 0x1
 3129 005a 7F       		.uleb128 0x7f
 3130 005b 13       		.uleb128 0x13
 3131 005c 01       		.uleb128 0x1
ARM GAS  C:\Users\DEVELO~1\AppData\Local\Temp\ccBkajkH.s 			page 56


 3132 005d 13       		.uleb128 0x13
 3133 005e 00       		.byte	0
 3134 005f 00       		.byte	0
 3135 0060 08       		.uleb128 0x8
 3136 0061 0F       		.uleb128 0xf
 3137 0062 00       		.byte	0
 3138 0063 0B       		.uleb128 0xb
 3139 0064 21       		.uleb128 0x21
 3140 0065 04       		.sleb128 4
 3141 0066 49       		.uleb128 0x49
 3142 0067 13       		.uleb128 0x13
 3143 0068 00       		.byte	0
 3144 0069 00       		.byte	0
 3145 006a 09       		.uleb128 0x9
 3146 006b 24       		.uleb128 0x24
 3147 006c 00       		.byte	0
 3148 006d 0B       		.uleb128 0xb
 3149 006e 0B       		.uleb128 0xb
 3150 006f 3E       		.uleb128 0x3e
 3151 0070 0B       		.uleb128 0xb
 3152 0071 03       		.uleb128 0x3
 3153 0072 0E       		.uleb128 0xe
 3154 0073 00       		.byte	0
 3155 0074 00       		.byte	0
 3156 0075 0A       		.uleb128 0xa
 3157 0076 13       		.uleb128 0x13
 3158 0077 01       		.byte	0x1
 3159 0078 03       		.uleb128 0x3
 3160 0079 0E       		.uleb128 0xe
 3161 007a 0B       		.uleb128 0xb
 3162 007b 0B       		.uleb128 0xb
 3163 007c 3A       		.uleb128 0x3a
 3164 007d 0B       		.uleb128 0xb
 3165 007e 3B       		.uleb128 0x3b
 3166 007f 0B       		.uleb128 0xb
 3167 0080 39       		.uleb128 0x39
 3168 0081 0B       		.uleb128 0xb
 3169 0082 01       		.uleb128 0x1
 3170 0083 13       		.uleb128 0x13
 3171 0084 00       		.byte	0
 3172 0085 00       		.byte	0
 3173 0086 0B       		.uleb128 0xb
 3174 0087 0D       		.uleb128 0xd
 3175 0088 00       		.byte	0
 3176 0089 03       		.uleb128 0x3
 3177 008a 08       		.uleb128 0x8
 3178 008b 3A       		.uleb128 0x3a
 3179 008c 0B       		.uleb128 0xb
 3180 008d 3B       		.uleb128 0x3b
 3181 008e 0B       		.uleb128 0xb
 3182 008f 39       		.uleb128 0x39
 3183 0090 0B       		.uleb128 0xb
 3184 0091 49       		.uleb128 0x49
 3185 0092 13       		.uleb128 0x13
 3186 0093 38       		.uleb128 0x38
 3187 0094 0B       		.uleb128 0xb
 3188 0095 00       		.byte	0
ARM GAS  C:\Users\DEVELO~1\AppData\Local\Temp\ccBkajkH.s 			page 57


 3189 0096 00       		.byte	0
 3190 0097 0C       		.uleb128 0xc
 3191 0098 13       		.uleb128 0x13
 3192 0099 01       		.byte	0x1
 3193 009a 0B       		.uleb128 0xb
 3194 009b 0B       		.uleb128 0xb
 3195 009c 3A       		.uleb128 0x3a
 3196 009d 0B       		.uleb128 0xb
 3197 009e 3B       		.uleb128 0x3b
 3198 009f 0B       		.uleb128 0xb
 3199 00a0 39       		.uleb128 0x39
 3200 00a1 0B       		.uleb128 0xb
 3201 00a2 01       		.uleb128 0x1
 3202 00a3 13       		.uleb128 0x13
 3203 00a4 00       		.byte	0
 3204 00a5 00       		.byte	0
 3205 00a6 0D       		.uleb128 0xd
 3206 00a7 0D       		.uleb128 0xd
 3207 00a8 00       		.byte	0
 3208 00a9 03       		.uleb128 0x3
 3209 00aa 0E       		.uleb128 0xe
 3210 00ab 3A       		.uleb128 0x3a
 3211 00ac 21       		.uleb128 0x21
 3212 00ad 07       		.sleb128 7
 3213 00ae 3B       		.uleb128 0x3b
 3214 00af 05       		.uleb128 0x5
 3215 00b0 39       		.uleb128 0x39
 3216 00b1 0B       		.uleb128 0xb
 3217 00b2 49       		.uleb128 0x49
 3218 00b3 13       		.uleb128 0x13
 3219 00b4 00       		.byte	0
 3220 00b5 00       		.byte	0
 3221 00b6 0E       		.uleb128 0xe
 3222 00b7 34       		.uleb128 0x34
 3223 00b8 00       		.byte	0
 3224 00b9 03       		.uleb128 0x3
 3225 00ba 0E       		.uleb128 0xe
 3226 00bb 3A       		.uleb128 0x3a
 3227 00bc 21       		.uleb128 0x21
 3228 00bd 01       		.sleb128 1
 3229 00be 3B       		.uleb128 0x3b
 3230 00bf 0B       		.uleb128 0xb
 3231 00c0 39       		.uleb128 0x39
 3232 00c1 0B       		.uleb128 0xb
 3233 00c2 49       		.uleb128 0x49
 3234 00c3 13       		.uleb128 0x13
 3235 00c4 02       		.uleb128 0x2
 3236 00c5 17       		.uleb128 0x17
 3237 00c6 B742     		.uleb128 0x2137
 3238 00c8 17       		.uleb128 0x17
 3239 00c9 00       		.byte	0
 3240 00ca 00       		.byte	0
 3241 00cb 0F       		.uleb128 0xf
 3242 00cc 05       		.uleb128 0x5
 3243 00cd 00       		.byte	0
 3244 00ce 49       		.uleb128 0x49
 3245 00cf 13       		.uleb128 0x13
ARM GAS  C:\Users\DEVELO~1\AppData\Local\Temp\ccBkajkH.s 			page 58


 3246 00d0 00       		.byte	0
 3247 00d1 00       		.byte	0
 3248 00d2 10       		.uleb128 0x10
 3249 00d3 04       		.uleb128 0x4
 3250 00d4 01       		.byte	0x1
 3251 00d5 3E       		.uleb128 0x3e
 3252 00d6 21       		.uleb128 0x21
 3253 00d7 07       		.sleb128 7
 3254 00d8 0B       		.uleb128 0xb
 3255 00d9 21       		.uleb128 0x21
 3256 00da 01       		.sleb128 1
 3257 00db 49       		.uleb128 0x49
 3258 00dc 13       		.uleb128 0x13
 3259 00dd 3A       		.uleb128 0x3a
 3260 00de 21       		.uleb128 0x21
 3261 00df 10       		.sleb128 16
 3262 00e0 3B       		.uleb128 0x3b
 3263 00e1 0B       		.uleb128 0xb
 3264 00e2 39       		.uleb128 0x39
 3265 00e3 21       		.uleb128 0x21
 3266 00e4 0E       		.sleb128 14
 3267 00e5 01       		.uleb128 0x1
 3268 00e6 13       		.uleb128 0x13
 3269 00e7 00       		.byte	0
 3270 00e8 00       		.byte	0
 3271 00e9 11       		.uleb128 0x11
 3272 00ea 0D       		.uleb128 0xd
 3273 00eb 00       		.byte	0
 3274 00ec 03       		.uleb128 0x3
 3275 00ed 0E       		.uleb128 0xe
 3276 00ee 3A       		.uleb128 0x3a
 3277 00ef 0B       		.uleb128 0xb
 3278 00f0 3B       		.uleb128 0x3b
 3279 00f1 0B       		.uleb128 0xb
 3280 00f2 39       		.uleb128 0x39
 3281 00f3 0B       		.uleb128 0xb
 3282 00f4 49       		.uleb128 0x49
 3283 00f5 13       		.uleb128 0x13
 3284 00f6 00       		.byte	0
 3285 00f7 00       		.byte	0
 3286 00f8 12       		.uleb128 0x12
 3287 00f9 05       		.uleb128 0x5
 3288 00fa 00       		.byte	0
 3289 00fb 03       		.uleb128 0x3
 3290 00fc 0E       		.uleb128 0xe
 3291 00fd 3A       		.uleb128 0x3a
 3292 00fe 21       		.uleb128 0x21
 3293 00ff 01       		.sleb128 1
 3294 0100 3B       		.uleb128 0x3b
 3295 0101 0B       		.uleb128 0xb
 3296 0102 39       		.uleb128 0x39
 3297 0103 0B       		.uleb128 0xb
 3298 0104 49       		.uleb128 0x49
 3299 0105 13       		.uleb128 0x13
 3300 0106 02       		.uleb128 0x2
 3301 0107 17       		.uleb128 0x17
 3302 0108 B742     		.uleb128 0x2137
ARM GAS  C:\Users\DEVELO~1\AppData\Local\Temp\ccBkajkH.s 			page 59


 3303 010a 17       		.uleb128 0x17
 3304 010b 00       		.byte	0
 3305 010c 00       		.byte	0
 3306 010d 13       		.uleb128 0x13
 3307 010e 48       		.uleb128 0x48
 3308 010f 01       		.byte	0x1
 3309 0110 7D       		.uleb128 0x7d
 3310 0111 01       		.uleb128 0x1
 3311 0112 7F       		.uleb128 0x7f
 3312 0113 13       		.uleb128 0x13
 3313 0114 00       		.byte	0
 3314 0115 00       		.byte	0
 3315 0116 14       		.uleb128 0x14
 3316 0117 13       		.uleb128 0x13
 3317 0118 01       		.byte	0x1
 3318 0119 03       		.uleb128 0x3
 3319 011a 0E       		.uleb128 0xe
 3320 011b 0B       		.uleb128 0xb
 3321 011c 0B       		.uleb128 0xb
 3322 011d 3A       		.uleb128 0x3a
 3323 011e 0B       		.uleb128 0xb
 3324 011f 3B       		.uleb128 0x3b
 3325 0120 05       		.uleb128 0x5
 3326 0121 39       		.uleb128 0x39
 3327 0122 0B       		.uleb128 0xb
 3328 0123 01       		.uleb128 0x1
 3329 0124 13       		.uleb128 0x13
 3330 0125 00       		.byte	0
 3331 0126 00       		.byte	0
 3332 0127 15       		.uleb128 0x15
 3333 0128 2E       		.uleb128 0x2e
 3334 0129 01       		.byte	0x1
 3335 012a 3F       		.uleb128 0x3f
 3336 012b 19       		.uleb128 0x19
 3337 012c 03       		.uleb128 0x3
 3338 012d 0E       		.uleb128 0xe
 3339 012e 3A       		.uleb128 0x3a
 3340 012f 21       		.uleb128 0x21
 3341 0130 01       		.sleb128 1
 3342 0131 3B       		.uleb128 0x3b
 3343 0132 0B       		.uleb128 0xb
 3344 0133 39       		.uleb128 0x39
 3345 0134 0B       		.uleb128 0xb
 3346 0135 27       		.uleb128 0x27
 3347 0136 19       		.uleb128 0x19
 3348 0137 49       		.uleb128 0x49
 3349 0138 13       		.uleb128 0x13
 3350 0139 11       		.uleb128 0x11
 3351 013a 01       		.uleb128 0x1
 3352 013b 12       		.uleb128 0x12
 3353 013c 06       		.uleb128 0x6
 3354 013d 40       		.uleb128 0x40
 3355 013e 18       		.uleb128 0x18
 3356 013f 7A       		.uleb128 0x7a
 3357 0140 19       		.uleb128 0x19
 3358 0141 01       		.uleb128 0x1
 3359 0142 13       		.uleb128 0x13
ARM GAS  C:\Users\DEVELO~1\AppData\Local\Temp\ccBkajkH.s 			page 60


 3360 0143 00       		.byte	0
 3361 0144 00       		.byte	0
 3362 0145 16       		.uleb128 0x16
 3363 0146 0D       		.uleb128 0xd
 3364 0147 00       		.byte	0
 3365 0148 03       		.uleb128 0x3
 3366 0149 08       		.uleb128 0x8
 3367 014a 3A       		.uleb128 0x3a
 3368 014b 21       		.uleb128 0x21
 3369 014c 0B       		.sleb128 11
 3370 014d 3B       		.uleb128 0x3b
 3371 014e 0B       		.uleb128 0xb
 3372 014f 39       		.uleb128 0x39
 3373 0150 21       		.uleb128 0x21
 3374 0151 07       		.sleb128 7
 3375 0152 49       		.uleb128 0x49
 3376 0153 13       		.uleb128 0x13
 3377 0154 00       		.byte	0
 3378 0155 00       		.byte	0
 3379 0156 17       		.uleb128 0x17
 3380 0157 0D       		.uleb128 0xd
 3381 0158 00       		.byte	0
 3382 0159 03       		.uleb128 0x3
 3383 015a 0E       		.uleb128 0xe
 3384 015b 3A       		.uleb128 0x3a
 3385 015c 21       		.uleb128 0x21
 3386 015d 0B       		.sleb128 11
 3387 015e 3B       		.uleb128 0x3b
 3388 015f 0B       		.uleb128 0xb
 3389 0160 39       		.uleb128 0x39
 3390 0161 21       		.uleb128 0x21
 3391 0162 19       		.sleb128 25
 3392 0163 49       		.uleb128 0x49
 3393 0164 13       		.uleb128 0x13
 3394 0165 0D       		.uleb128 0xd
 3395 0166 0B       		.uleb128 0xb
 3396 0167 6B       		.uleb128 0x6b
 3397 0168 0B       		.uleb128 0xb
 3398 0169 00       		.byte	0
 3399 016a 00       		.byte	0
 3400 016b 18       		.uleb128 0x18
 3401 016c 1D       		.uleb128 0x1d
 3402 016d 01       		.byte	0x1
 3403 016e 31       		.uleb128 0x31
 3404 016f 13       		.uleb128 0x13
 3405 0170 52       		.uleb128 0x52
 3406 0171 01       		.uleb128 0x1
 3407 0172 B842     		.uleb128 0x2138
 3408 0174 0B       		.uleb128 0xb
 3409 0175 55       		.uleb128 0x55
 3410 0176 17       		.uleb128 0x17
 3411 0177 58       		.uleb128 0x58
 3412 0178 21       		.uleb128 0x21
 3413 0179 01       		.sleb128 1
 3414 017a 59       		.uleb128 0x59
 3415 017b 0B       		.uleb128 0xb
 3416 017c 57       		.uleb128 0x57
ARM GAS  C:\Users\DEVELO~1\AppData\Local\Temp\ccBkajkH.s 			page 61


 3417 017d 21       		.uleb128 0x21
 3418 017e 05       		.sleb128 5
 3419 017f 01       		.uleb128 0x1
 3420 0180 13       		.uleb128 0x13
 3421 0181 00       		.byte	0
 3422 0182 00       		.byte	0
 3423 0183 19       		.uleb128 0x19
 3424 0184 05       		.uleb128 0x5
 3425 0185 00       		.byte	0
 3426 0186 31       		.uleb128 0x31
 3427 0187 13       		.uleb128 0x13
 3428 0188 02       		.uleb128 0x2
 3429 0189 17       		.uleb128 0x17
 3430 018a B742     		.uleb128 0x2137
 3431 018c 17       		.uleb128 0x17
 3432 018d 00       		.byte	0
 3433 018e 00       		.byte	0
 3434 018f 1A       		.uleb128 0x1a
 3435 0190 35       		.uleb128 0x35
 3436 0191 00       		.byte	0
 3437 0192 49       		.uleb128 0x49
 3438 0193 13       		.uleb128 0x13
 3439 0194 00       		.byte	0
 3440 0195 00       		.byte	0
 3441 0196 1B       		.uleb128 0x1b
 3442 0197 26       		.uleb128 0x26
 3443 0198 00       		.byte	0
 3444 0199 49       		.uleb128 0x49
 3445 019a 13       		.uleb128 0x13
 3446 019b 00       		.byte	0
 3447 019c 00       		.byte	0
 3448 019d 1C       		.uleb128 0x1c
 3449 019e 17       		.uleb128 0x17
 3450 019f 01       		.byte	0x1
 3451 01a0 0B       		.uleb128 0xb
 3452 01a1 0B       		.uleb128 0xb
 3453 01a2 3A       		.uleb128 0x3a
 3454 01a3 0B       		.uleb128 0xb
 3455 01a4 3B       		.uleb128 0x3b
 3456 01a5 0B       		.uleb128 0xb
 3457 01a6 39       		.uleb128 0x39
 3458 01a7 21       		.uleb128 0x21
 3459 01a8 03       		.sleb128 3
 3460 01a9 01       		.uleb128 0x1
 3461 01aa 13       		.uleb128 0x13
 3462 01ab 00       		.byte	0
 3463 01ac 00       		.byte	0
 3464 01ad 1D       		.uleb128 0x1d
 3465 01ae 16       		.uleb128 0x16
 3466 01af 00       		.byte	0
 3467 01b0 03       		.uleb128 0x3
 3468 01b1 0E       		.uleb128 0xe
 3469 01b2 3A       		.uleb128 0x3a
 3470 01b3 21       		.uleb128 0x21
 3471 01b4 07       		.sleb128 7
 3472 01b5 3B       		.uleb128 0x3b
 3473 01b6 05       		.uleb128 0x5
ARM GAS  C:\Users\DEVELO~1\AppData\Local\Temp\ccBkajkH.s 			page 62


 3474 01b7 39       		.uleb128 0x39
 3475 01b8 21       		.uleb128 0x21
 3476 01b9 03       		.sleb128 3
 3477 01ba 49       		.uleb128 0x49
 3478 01bb 13       		.uleb128 0x13
 3479 01bc 00       		.byte	0
 3480 01bd 00       		.byte	0
 3481 01be 1E       		.uleb128 0x1e
 3482 01bf 2E       		.uleb128 0x2e
 3483 01c0 01       		.byte	0x1
 3484 01c1 3F       		.uleb128 0x3f
 3485 01c2 19       		.uleb128 0x19
 3486 01c3 03       		.uleb128 0x3
 3487 01c4 0E       		.uleb128 0xe
 3488 01c5 3A       		.uleb128 0x3a
 3489 01c6 21       		.uleb128 0x21
 3490 01c7 11       		.sleb128 17
 3491 01c8 3B       		.uleb128 0x3b
 3492 01c9 0B       		.uleb128 0xb
 3493 01ca 39       		.uleb128 0x39
 3494 01cb 21       		.uleb128 0x21
 3495 01cc 06       		.sleb128 6
 3496 01cd 27       		.uleb128 0x27
 3497 01ce 19       		.uleb128 0x19
 3498 01cf 49       		.uleb128 0x49
 3499 01d0 13       		.uleb128 0x13
 3500 01d1 3C       		.uleb128 0x3c
 3501 01d2 19       		.uleb128 0x19
 3502 01d3 01       		.uleb128 0x1
 3503 01d4 13       		.uleb128 0x13
 3504 01d5 00       		.byte	0
 3505 01d6 00       		.byte	0
 3506 01d7 1F       		.uleb128 0x1f
 3507 01d8 2E       		.uleb128 0x2e
 3508 01d9 00       		.byte	0
 3509 01da 3F       		.uleb128 0x3f
 3510 01db 19       		.uleb128 0x19
 3511 01dc 03       		.uleb128 0x3
 3512 01dd 0E       		.uleb128 0xe
 3513 01de 3A       		.uleb128 0x3a
 3514 01df 21       		.uleb128 0x21
 3515 01e0 11       		.sleb128 17
 3516 01e1 3B       		.uleb128 0x3b
 3517 01e2 0B       		.uleb128 0xb
 3518 01e3 39       		.uleb128 0x39
 3519 01e4 21       		.uleb128 0x21
 3520 01e5 06       		.sleb128 6
 3521 01e6 27       		.uleb128 0x27
 3522 01e7 19       		.uleb128 0x19
 3523 01e8 49       		.uleb128 0x49
 3524 01e9 13       		.uleb128 0x13
 3525 01ea 3C       		.uleb128 0x3c
 3526 01eb 19       		.uleb128 0x19
 3527 01ec 00       		.byte	0
 3528 01ed 00       		.byte	0
 3529 01ee 20       		.uleb128 0x20
 3530 01ef 2E       		.uleb128 0x2e
ARM GAS  C:\Users\DEVELO~1\AppData\Local\Temp\ccBkajkH.s 			page 63


 3531 01f0 01       		.byte	0x1
 3532 01f1 3F       		.uleb128 0x3f
 3533 01f2 19       		.uleb128 0x19
 3534 01f3 03       		.uleb128 0x3
 3535 01f4 0E       		.uleb128 0xe
 3536 01f5 3A       		.uleb128 0x3a
 3537 01f6 21       		.uleb128 0x21
 3538 01f7 0F       		.sleb128 15
 3539 01f8 3B       		.uleb128 0x3b
 3540 01f9 0B       		.uleb128 0xb
 3541 01fa 39       		.uleb128 0x39
 3542 01fb 21       		.uleb128 0x21
 3543 01fc 08       		.sleb128 8
 3544 01fd 27       		.uleb128 0x27
 3545 01fe 19       		.uleb128 0x19
 3546 01ff 3C       		.uleb128 0x3c
 3547 0200 19       		.uleb128 0x19
 3548 0201 01       		.uleb128 0x1
 3549 0202 13       		.uleb128 0x13
 3550 0203 00       		.byte	0
 3551 0204 00       		.byte	0
 3552 0205 21       		.uleb128 0x21
 3553 0206 48       		.uleb128 0x48
 3554 0207 00       		.byte	0
 3555 0208 7D       		.uleb128 0x7d
 3556 0209 01       		.uleb128 0x1
 3557 020a 7F       		.uleb128 0x7f
 3558 020b 13       		.uleb128 0x13
 3559 020c 00       		.byte	0
 3560 020d 00       		.byte	0
 3561 020e 22       		.uleb128 0x22
 3562 020f 48       		.uleb128 0x48
 3563 0210 01       		.byte	0x1
 3564 0211 7D       		.uleb128 0x7d
 3565 0212 01       		.uleb128 0x1
 3566 0213 8201     		.uleb128 0x82
 3567 0215 19       		.uleb128 0x19
 3568 0216 7F       		.uleb128 0x7f
 3569 0217 13       		.uleb128 0x13
 3570 0218 01       		.uleb128 0x1
 3571 0219 13       		.uleb128 0x13
 3572 021a 00       		.byte	0
 3573 021b 00       		.byte	0
 3574 021c 23       		.uleb128 0x23
 3575 021d 2E       		.uleb128 0x2e
 3576 021e 01       		.byte	0x1
 3577 021f 03       		.uleb128 0x3
 3578 0220 0E       		.uleb128 0xe
 3579 0221 3A       		.uleb128 0x3a
 3580 0222 21       		.uleb128 0x21
 3581 0223 01       		.sleb128 1
 3582 0224 3B       		.uleb128 0x3b
 3583 0225 0B       		.uleb128 0xb
 3584 0226 39       		.uleb128 0x39
 3585 0227 21       		.uleb128 0x21
 3586 0228 0D       		.sleb128 13
 3587 0229 27       		.uleb128 0x27
ARM GAS  C:\Users\DEVELO~1\AppData\Local\Temp\ccBkajkH.s 			page 64


 3588 022a 19       		.uleb128 0x19
 3589 022b 20       		.uleb128 0x20
 3590 022c 21       		.uleb128 0x21
 3591 022d 01       		.sleb128 1
 3592 022e 01       		.uleb128 0x1
 3593 022f 13       		.uleb128 0x13
 3594 0230 00       		.byte	0
 3595 0231 00       		.byte	0
 3596 0232 24       		.uleb128 0x24
 3597 0233 05       		.uleb128 0x5
 3598 0234 00       		.byte	0
 3599 0235 03       		.uleb128 0x3
 3600 0236 0E       		.uleb128 0xe
 3601 0237 3A       		.uleb128 0x3a
 3602 0238 21       		.uleb128 0x21
 3603 0239 01       		.sleb128 1
 3604 023a 3B       		.uleb128 0x3b
 3605 023b 0B       		.uleb128 0xb
 3606 023c 39       		.uleb128 0x39
 3607 023d 0B       		.uleb128 0xb
 3608 023e 49       		.uleb128 0x49
 3609 023f 13       		.uleb128 0x13
 3610 0240 00       		.byte	0
 3611 0241 00       		.byte	0
 3612 0242 25       		.uleb128 0x25
 3613 0243 11       		.uleb128 0x11
 3614 0244 01       		.byte	0x1
 3615 0245 25       		.uleb128 0x25
 3616 0246 0E       		.uleb128 0xe
 3617 0247 13       		.uleb128 0x13
 3618 0248 0B       		.uleb128 0xb
 3619 0249 03       		.uleb128 0x3
 3620 024a 0E       		.uleb128 0xe
 3621 024b 1B       		.uleb128 0x1b
 3622 024c 0E       		.uleb128 0xe
 3623 024d 55       		.uleb128 0x55
 3624 024e 17       		.uleb128 0x17
 3625 024f 11       		.uleb128 0x11
 3626 0250 01       		.uleb128 0x1
 3627 0251 10       		.uleb128 0x10
 3628 0252 17       		.uleb128 0x17
 3629 0253 00       		.byte	0
 3630 0254 00       		.byte	0
 3631 0255 26       		.uleb128 0x26
 3632 0256 24       		.uleb128 0x24
 3633 0257 00       		.byte	0
 3634 0258 0B       		.uleb128 0xb
 3635 0259 0B       		.uleb128 0xb
 3636 025a 3E       		.uleb128 0x3e
 3637 025b 0B       		.uleb128 0xb
 3638 025c 03       		.uleb128 0x3
 3639 025d 08       		.uleb128 0x8
 3640 025e 00       		.byte	0
 3641 025f 00       		.byte	0
 3642 0260 27       		.uleb128 0x27
 3643 0261 13       		.uleb128 0x13
 3644 0262 01       		.byte	0x1
ARM GAS  C:\Users\DEVELO~1\AppData\Local\Temp\ccBkajkH.s 			page 65


 3645 0263 03       		.uleb128 0x3
 3646 0264 0E       		.uleb128 0xe
 3647 0265 0B       		.uleb128 0xb
 3648 0266 05       		.uleb128 0x5
 3649 0267 3A       		.uleb128 0x3a
 3650 0268 0B       		.uleb128 0xb
 3651 0269 3B       		.uleb128 0x3b
 3652 026a 05       		.uleb128 0x5
 3653 026b 39       		.uleb128 0x39
 3654 026c 0B       		.uleb128 0xb
 3655 026d 01       		.uleb128 0x1
 3656 026e 13       		.uleb128 0x13
 3657 026f 00       		.byte	0
 3658 0270 00       		.byte	0
 3659 0271 28       		.uleb128 0x28
 3660 0272 0F       		.uleb128 0xf
 3661 0273 00       		.byte	0
 3662 0274 0B       		.uleb128 0xb
 3663 0275 0B       		.uleb128 0xb
 3664 0276 00       		.byte	0
 3665 0277 00       		.byte	0
 3666 0278 29       		.uleb128 0x29
 3667 0279 13       		.uleb128 0x13
 3668 027a 01       		.byte	0x1
 3669 027b 0B       		.uleb128 0xb
 3670 027c 05       		.uleb128 0x5
 3671 027d 3A       		.uleb128 0x3a
 3672 027e 0B       		.uleb128 0xb
 3673 027f 3B       		.uleb128 0x3b
 3674 0280 0B       		.uleb128 0xb
 3675 0281 39       		.uleb128 0x39
 3676 0282 0B       		.uleb128 0xb
 3677 0283 01       		.uleb128 0x1
 3678 0284 13       		.uleb128 0x13
 3679 0285 00       		.byte	0
 3680 0286 00       		.byte	0
 3681 0287 2A       		.uleb128 0x2a
 3682 0288 01       		.uleb128 0x1
 3683 0289 01       		.byte	0x1
 3684 028a 49       		.uleb128 0x49
 3685 028b 13       		.uleb128 0x13
 3686 028c 01       		.uleb128 0x1
 3687 028d 13       		.uleb128 0x13
 3688 028e 00       		.byte	0
 3689 028f 00       		.byte	0
 3690 0290 2B       		.uleb128 0x2b
 3691 0291 21       		.uleb128 0x21
 3692 0292 00       		.byte	0
 3693 0293 49       		.uleb128 0x49
 3694 0294 13       		.uleb128 0x13
 3695 0295 2F       		.uleb128 0x2f
 3696 0296 0B       		.uleb128 0xb
 3697 0297 00       		.byte	0
 3698 0298 00       		.byte	0
 3699 0299 2C       		.uleb128 0x2c
 3700 029a 15       		.uleb128 0x15
 3701 029b 01       		.byte	0x1
ARM GAS  C:\Users\DEVELO~1\AppData\Local\Temp\ccBkajkH.s 			page 66


 3702 029c 27       		.uleb128 0x27
 3703 029d 19       		.uleb128 0x19
 3704 029e 01       		.uleb128 0x1
 3705 029f 13       		.uleb128 0x13
 3706 02a0 00       		.byte	0
 3707 02a1 00       		.byte	0
 3708 02a2 2D       		.uleb128 0x2d
 3709 02a3 17       		.uleb128 0x17
 3710 02a4 01       		.byte	0x1
 3711 02a5 0B       		.uleb128 0xb
 3712 02a6 0B       		.uleb128 0xb
 3713 02a7 3A       		.uleb128 0x3a
 3714 02a8 0B       		.uleb128 0xb
 3715 02a9 3B       		.uleb128 0x3b
 3716 02aa 05       		.uleb128 0x5
 3717 02ab 39       		.uleb128 0x39
 3718 02ac 0B       		.uleb128 0xb
 3719 02ad 01       		.uleb128 0x1
 3720 02ae 13       		.uleb128 0x13
 3721 02af 00       		.byte	0
 3722 02b0 00       		.byte	0
 3723 02b1 2E       		.uleb128 0x2e
 3724 02b2 34       		.uleb128 0x34
 3725 02b3 00       		.byte	0
 3726 02b4 03       		.uleb128 0x3
 3727 02b5 0E       		.uleb128 0xe
 3728 02b6 3A       		.uleb128 0x3a
 3729 02b7 0B       		.uleb128 0xb
 3730 02b8 3B       		.uleb128 0x3b
 3731 02b9 0B       		.uleb128 0xb
 3732 02ba 39       		.uleb128 0x39
 3733 02bb 0B       		.uleb128 0xb
 3734 02bc 49       		.uleb128 0x49
 3735 02bd 13       		.uleb128 0x13
 3736 02be 3F       		.uleb128 0x3f
 3737 02bf 19       		.uleb128 0x19
 3738 02c0 3C       		.uleb128 0x3c
 3739 02c1 19       		.uleb128 0x19
 3740 02c2 00       		.byte	0
 3741 02c3 00       		.byte	0
 3742 02c4 2F       		.uleb128 0x2f
 3743 02c5 34       		.uleb128 0x34
 3744 02c6 00       		.byte	0
 3745 02c7 47       		.uleb128 0x47
 3746 02c8 13       		.uleb128 0x13
 3747 02c9 3A       		.uleb128 0x3a
 3748 02ca 0B       		.uleb128 0xb
 3749 02cb 3B       		.uleb128 0x3b
 3750 02cc 0B       		.uleb128 0xb
 3751 02cd 39       		.uleb128 0x39
 3752 02ce 0B       		.uleb128 0xb
 3753 02cf 02       		.uleb128 0x2
 3754 02d0 18       		.uleb128 0x18
 3755 02d1 00       		.byte	0
 3756 02d2 00       		.byte	0
 3757 02d3 30       		.uleb128 0x30
 3758 02d4 34       		.uleb128 0x34
ARM GAS  C:\Users\DEVELO~1\AppData\Local\Temp\ccBkajkH.s 			page 67


 3759 02d5 00       		.byte	0
 3760 02d6 03       		.uleb128 0x3
 3761 02d7 0E       		.uleb128 0xe
 3762 02d8 3A       		.uleb128 0x3a
 3763 02d9 0B       		.uleb128 0xb
 3764 02da 3B       		.uleb128 0x3b
 3765 02db 0B       		.uleb128 0xb
 3766 02dc 39       		.uleb128 0x39
 3767 02dd 0B       		.uleb128 0xb
 3768 02de 49       		.uleb128 0x49
 3769 02df 13       		.uleb128 0x13
 3770 02e0 3F       		.uleb128 0x3f
 3771 02e1 19       		.uleb128 0x19
 3772 02e2 02       		.uleb128 0x2
 3773 02e3 18       		.uleb128 0x18
 3774 02e4 00       		.byte	0
 3775 02e5 00       		.byte	0
 3776 02e6 31       		.uleb128 0x31
 3777 02e7 34       		.uleb128 0x34
 3778 02e8 00       		.byte	0
 3779 02e9 03       		.uleb128 0x3
 3780 02ea 08       		.uleb128 0x8
 3781 02eb 3A       		.uleb128 0x3a
 3782 02ec 0B       		.uleb128 0xb
 3783 02ed 3B       		.uleb128 0x3b
 3784 02ee 0B       		.uleb128 0xb
 3785 02ef 39       		.uleb128 0x39
 3786 02f0 0B       		.uleb128 0xb
 3787 02f1 49       		.uleb128 0x49
 3788 02f2 13       		.uleb128 0x13
 3789 02f3 02       		.uleb128 0x2
 3790 02f4 18       		.uleb128 0x18
 3791 02f5 00       		.byte	0
 3792 02f6 00       		.byte	0
 3793 02f7 32       		.uleb128 0x32
 3794 02f8 2E       		.uleb128 0x2e
 3795 02f9 01       		.byte	0x1
 3796 02fa 3F       		.uleb128 0x3f
 3797 02fb 19       		.uleb128 0x19
 3798 02fc 03       		.uleb128 0x3
 3799 02fd 0E       		.uleb128 0xe
 3800 02fe 3A       		.uleb128 0x3a
 3801 02ff 0B       		.uleb128 0xb
 3802 0300 3B       		.uleb128 0x3b
 3803 0301 0B       		.uleb128 0xb
 3804 0302 39       		.uleb128 0x39
 3805 0303 0B       		.uleb128 0xb
 3806 0304 27       		.uleb128 0x27
 3807 0305 19       		.uleb128 0x19
 3808 0306 11       		.uleb128 0x11
 3809 0307 01       		.uleb128 0x1
 3810 0308 12       		.uleb128 0x12
 3811 0309 06       		.uleb128 0x6
 3812 030a 40       		.uleb128 0x40
 3813 030b 18       		.uleb128 0x18
 3814 030c 7A       		.uleb128 0x7a
 3815 030d 19       		.uleb128 0x19
ARM GAS  C:\Users\DEVELO~1\AppData\Local\Temp\ccBkajkH.s 			page 68


 3816 030e 01       		.uleb128 0x1
 3817 030f 13       		.uleb128 0x13
 3818 0310 00       		.byte	0
 3819 0311 00       		.byte	0
 3820 0312 33       		.uleb128 0x33
 3821 0313 34       		.uleb128 0x34
 3822 0314 00       		.byte	0
 3823 0315 03       		.uleb128 0x3
 3824 0316 0E       		.uleb128 0xe
 3825 0317 3A       		.uleb128 0x3a
 3826 0318 0B       		.uleb128 0xb
 3827 0319 3B       		.uleb128 0x3b
 3828 031a 0B       		.uleb128 0xb
 3829 031b 39       		.uleb128 0x39
 3830 031c 0B       		.uleb128 0xb
 3831 031d 49       		.uleb128 0x49
 3832 031e 13       		.uleb128 0x13
 3833 031f 02       		.uleb128 0x2
 3834 0320 18       		.uleb128 0x18
 3835 0321 00       		.byte	0
 3836 0322 00       		.byte	0
 3837 0323 34       		.uleb128 0x34
 3838 0324 48       		.uleb128 0x48
 3839 0325 00       		.byte	0
 3840 0326 7D       		.uleb128 0x7d
 3841 0327 01       		.uleb128 0x1
 3842 0328 8201     		.uleb128 0x82
 3843 032a 19       		.uleb128 0x19
 3844 032b 7F       		.uleb128 0x7f
 3845 032c 13       		.uleb128 0x13
 3846 032d 00       		.byte	0
 3847 032e 00       		.byte	0
 3848 032f 35       		.uleb128 0x35
 3849 0330 2E       		.uleb128 0x2e
 3850 0331 00       		.byte	0
 3851 0332 3F       		.uleb128 0x3f
 3852 0333 19       		.uleb128 0x19
 3853 0334 3C       		.uleb128 0x3c
 3854 0335 19       		.uleb128 0x19
 3855 0336 6E       		.uleb128 0x6e
 3856 0337 0E       		.uleb128 0xe
 3857 0338 03       		.uleb128 0x3
 3858 0339 0E       		.uleb128 0xe
 3859 033a 3A       		.uleb128 0x3a
 3860 033b 0B       		.uleb128 0xb
 3861 033c 3B       		.uleb128 0x3b
 3862 033d 0B       		.uleb128 0xb
 3863 033e 00       		.byte	0
 3864 033f 00       		.byte	0
 3865 0340 00       		.byte	0
 3866              		.section	.debug_loclists,"",%progbits
 3867 0000 4C010000 		.4byte	.Ldebug_loc3-.Ldebug_loc2
 3868              	.Ldebug_loc2:
 3869 0004 0500     		.2byte	0x5
 3870 0006 04       		.byte	0x4
 3871 0007 00       		.byte	0
 3872 0008 00000000 		.4byte	0
ARM GAS  C:\Users\DEVELO~1\AppData\Local\Temp\ccBkajkH.s 			page 69


 3873              	.Ldebug_loc0:
 3874              	.LVUS12:
 3875 000c 00       		.uleb128 0
 3876 000d 00       		.uleb128 .LVU183
 3877 000e 00       		.uleb128 .LVU183
 3878 000f 00       		.uleb128 .LVU214
 3879 0010 00       		.uleb128 .LVU214
 3880 0011 00       		.uleb128 .LVU215
 3881 0012 00       		.uleb128 .LVU215
 3882 0013 00       		.uleb128 0
 3883              	.LLST12:
 3884 0014 06       		.byte	0x6
 3885 0015 00000000 		.4byte	.LVL44
 3886 0019 04       		.byte	0x4
 3887 001a 00       		.uleb128 .LVL44-.LVL44
 3888 001b 0A       		.uleb128 .LVL45-.LVL44
 3889 001c 01       		.uleb128 0x1
 3890 001d 50       		.byte	0x50
 3891 001e 04       		.byte	0x4
 3892 001f 0A       		.uleb128 .LVL45-.LVL44
 3893 0020 42       		.uleb128 .LVL53-.LVL44
 3894 0021 04       		.uleb128 0x4
 3895 0022 A3       		.byte	0xa3
 3896 0023 01       		.uleb128 0x1
 3897 0024 50       		.byte	0x50
 3898 0025 9F       		.byte	0x9f
 3899 0026 04       		.byte	0x4
 3900 0027 42       		.uleb128 .LVL53-.LVL44
 3901 0028 44       		.uleb128 .LVL54-.LVL44
 3902 0029 01       		.uleb128 0x1
 3903 002a 50       		.byte	0x50
 3904 002b 04       		.byte	0x4
 3905 002c 44       		.uleb128 .LVL54-.LVL44
 3906 002d 50       		.uleb128 .LFE454-.LVL44
 3907 002e 04       		.uleb128 0x4
 3908 002f A3       		.byte	0xa3
 3909 0030 01       		.uleb128 0x1
 3910 0031 50       		.byte	0x50
 3911 0032 9F       		.byte	0x9f
 3912 0033 00       		.byte	0
 3913              	.LVUS13:
 3914 0034 00       		.uleb128 0
 3915 0035 00       		.uleb128 .LVU184
 3916 0036 00       		.uleb128 .LVU184
 3917 0037 00       		.uleb128 .LVU214
 3918 0038 00       		.uleb128 .LVU214
 3919 0039 00       		.uleb128 0
 3920              	.LLST13:
 3921 003a 06       		.byte	0x6
 3922 003b 00000000 		.4byte	.LVL44
 3923 003f 04       		.byte	0x4
 3924 0040 00       		.uleb128 .LVL44-.LVL44
 3925 0041 0D       		.uleb128 .LVL46-1-.LVL44
 3926 0042 01       		.uleb128 0x1
 3927 0043 51       		.byte	0x51
 3928 0044 04       		.byte	0x4
 3929 0045 0D       		.uleb128 .LVL46-1-.LVL44
ARM GAS  C:\Users\DEVELO~1\AppData\Local\Temp\ccBkajkH.s 			page 70


 3930 0046 42       		.uleb128 .LVL53-.LVL44
 3931 0047 01       		.uleb128 0x1
 3932 0048 54       		.byte	0x54
 3933 0049 04       		.byte	0x4
 3934 004a 42       		.uleb128 .LVL53-.LVL44
 3935 004b 50       		.uleb128 .LFE454-.LVL44
 3936 004c 01       		.uleb128 0x1
 3937 004d 51       		.byte	0x51
 3938 004e 00       		.byte	0
 3939              	.LVUS14:
 3940 004f 00       		.uleb128 .LVU188
 3941 0050 00       		.uleb128 .LVU191
 3942 0051 00       		.uleb128 .LVU191
 3943 0052 00       		.uleb128 .LVU214
 3944              	.LLST14:
 3945 0053 06       		.byte	0x6
 3946 0054 14000000 		.4byte	.LVL47
 3947 0058 04       		.byte	0x4
 3948 0059 00       		.uleb128 .LVL47-.LVL47
 3949 005a 05       		.uleb128 .LVL49-1-.LVL47
 3950 005b 05       		.uleb128 0x5
 3951 005c 03       		.byte	0x3
 3952 005d 00000000 		.4byte	sdram_ctx
 3953 0061 04       		.byte	0x4
 3954 0062 05       		.uleb128 .LVL49-1-.LVL47
 3955 0063 2E       		.uleb128 .LVL53-.LVL47
 3956 0064 01       		.uleb128 0x1
 3957 0065 56       		.byte	0x56
 3958 0066 00       		.byte	0
 3959              	.LVUS15:
 3960 0067 00       		.uleb128 .LVU190
 3961 0068 00       		.uleb128 .LVU191
 3962 0069 00       		.uleb128 .LVU191
 3963 006a 00       		.uleb128 .LVU214
 3964              	.LLST15:
 3965 006b 06       		.byte	0x6
 3966 006c 16000000 		.4byte	.LVL48
 3967 0070 04       		.byte	0x4
 3968 0071 00       		.uleb128 .LVL48-.LVL48
 3969 0072 03       		.uleb128 .LVL49-1-.LVL48
 3970 0073 05       		.uleb128 0x5
 3971 0074 03       		.byte	0x3
 3972 0075 02000000 		.4byte	sdram_ctx+2
 3973 0079 04       		.byte	0x4
 3974 007a 03       		.uleb128 .LVL49-1-.LVL48
 3975 007b 2C       		.uleb128 .LVL53-.LVL48
 3976 007c 01       		.uleb128 0x1
 3977 007d 57       		.byte	0x57
 3978 007e 00       		.byte	0
 3979              	.LVUS17:
 3980 007f 01       		.uleb128 .LVU200
 3981 0080 00       		.uleb128 .LVU211
 3982              	.LLST17:
 3983 0081 08       		.byte	0x8
 3984 0082 30000000 		.4byte	.LVL51
 3985 0086 10       		.uleb128 .LVL52-.LVL51
 3986 0087 01       		.uleb128 0x1
ARM GAS  C:\Users\DEVELO~1\AppData\Local\Temp\ccBkajkH.s 			page 71


 3987 0088 54       		.byte	0x54
 3988 0089 00       		.byte	0
 3989              	.LVUS8:
 3990 008a 00       		.uleb128 0
 3991 008b 00       		.uleb128 .LVU123
 3992 008c 00       		.uleb128 .LVU123
 3993 008d 00       		.uleb128 0
 3994              	.LLST8:
 3995 008e 06       		.byte	0x6
 3996 008f 00000000 		.4byte	.LVL31
 3997 0093 04       		.byte	0x4
 3998 0094 00       		.uleb128 .LVL31-.LVL31
 3999 0095 0C       		.uleb128 .LVL32-.LVL31
 4000 0096 01       		.uleb128 0x1
 4001 0097 50       		.byte	0x50
 4002 0098 04       		.byte	0x4
 4003 0099 0C       		.uleb128 .LVL32-.LVL31
 4004 009a D001     		.uleb128 .LFE453-.LVL31
 4005 009c 04       		.uleb128 0x4
 4006 009d A3       		.byte	0xa3
 4007 009e 01       		.uleb128 0x1
 4008 009f 50       		.byte	0x50
 4009 00a0 9F       		.byte	0x9f
 4010 00a1 00       		.byte	0
 4011              	.LVUS9:
 4012 00a2 00       		.uleb128 0
 4013 00a3 00       		.uleb128 .LVU125
 4014 00a4 00       		.uleb128 .LVU125
 4015 00a5 00       		.uleb128 0
 4016              	.LLST9:
 4017 00a6 06       		.byte	0x6
 4018 00a7 00000000 		.4byte	.LVL31
 4019 00ab 04       		.byte	0x4
 4020 00ac 00       		.uleb128 .LVL31-.LVL31
 4021 00ad 11       		.uleb128 .LVL33-1-.LVL31
 4022 00ae 01       		.uleb128 0x1
 4023 00af 51       		.byte	0x51
 4024 00b0 04       		.byte	0x4
 4025 00b1 11       		.uleb128 .LVL33-1-.LVL31
 4026 00b2 D001     		.uleb128 .LFE453-.LVL31
 4027 00b4 01       		.uleb128 0x1
 4028 00b5 54       		.byte	0x54
 4029 00b6 00       		.byte	0
 4030              	.LVUS10:
 4031 00b7 00       		.uleb128 .LVU127
 4032 00b8 00       		.uleb128 0
 4033              	.LLST10:
 4034 00b9 08       		.byte	0x8
 4035 00ba 16000000 		.4byte	.LVL34
 4036 00be BA01     		.uleb128 .LFE453-.LVL34
 4037 00c0 01       		.uleb128 0x1
 4038 00c1 59       		.byte	0x59
 4039 00c2 00       		.byte	0
 4040              	.LVUS11:
 4041 00c3 00       		.uleb128 .LVU147
 4042 00c4 00       		.uleb128 0
 4043              	.LLST11:
ARM GAS  C:\Users\DEVELO~1\AppData\Local\Temp\ccBkajkH.s 			page 72


 4044 00c5 08       		.byte	0x8
 4045 00c6 56000000 		.4byte	.LVL40
 4046 00ca 7A       		.uleb128 .LFE453-.LVL40
 4047 00cb 01       		.uleb128 0x1
 4048 00cc 57       		.byte	0x57
 4049 00cd 00       		.byte	0
 4050              	.LVUS7:
 4051 00ce 00       		.uleb128 .LVU111
 4052 00cf 00       		.uleb128 .LVU112
 4053 00d0 00       		.uleb128 .LVU112
 4054 00d1 00       		.uleb128 .LVU114
 4055 00d2 00       		.uleb128 .LVU114
 4056 00d3 00       		.uleb128 0
 4057              	.LLST7:
 4058 00d4 06       		.byte	0x6
 4059 00d5 0E000000 		.4byte	.LVL28
 4060 00d9 04       		.byte	0x4
 4061 00da 00       		.uleb128 .LVL28-.LVL28
 4062 00db 03       		.uleb128 .LVL29-1-.LVL28
 4063 00dc 05       		.uleb128 0x5
 4064 00dd 03       		.byte	0x3
 4065 00de 01000000 		.4byte	sdram_ctx+1
 4066 00e2 04       		.byte	0x4
 4067 00e3 03       		.uleb128 .LVL29-1-.LVL28
 4068 00e4 08       		.uleb128 .LVL30-.LVL28
 4069 00e5 01       		.uleb128 0x1
 4070 00e6 54       		.byte	0x54
 4071 00e7 04       		.byte	0x4
 4072 00e8 08       		.uleb128 .LVL30-.LVL28
 4073 00e9 12       		.uleb128 .LFE452-.LVL28
 4074 00ea 01       		.uleb128 0x1
 4075 00eb 50       		.byte	0x50
 4076 00ec 00       		.byte	0
 4077              	.LVUS6:
 4078 00ed 00       		.uleb128 .LVU99
 4079 00ee 00       		.uleb128 .LVU100
 4080 00ef 00       		.uleb128 .LVU100
 4081 00f0 00       		.uleb128 .LVU102
 4082 00f1 00       		.uleb128 .LVU102
 4083 00f2 00       		.uleb128 0
 4084              	.LLST6:
 4085 00f3 06       		.byte	0x6
 4086 00f4 0E000000 		.4byte	.LVL24
 4087 00f8 04       		.byte	0x4
 4088 00f9 00       		.uleb128 .LVL24-.LVL24
 4089 00fa 03       		.uleb128 .LVL25-1-.LVL24
 4090 00fb 05       		.uleb128 0x5
 4091 00fc 03       		.byte	0x3
 4092 00fd 00000000 		.4byte	sdram_ctx
 4093 0101 04       		.byte	0x4
 4094 0102 03       		.uleb128 .LVL25-1-.LVL24
 4095 0103 08       		.uleb128 .LVL26-.LVL24
 4096 0104 01       		.uleb128 0x1
 4097 0105 54       		.byte	0x54
 4098 0106 04       		.byte	0x4
 4099 0107 08       		.uleb128 .LVL26-.LVL24
 4100 0108 12       		.uleb128 .LFE451-.LVL24
ARM GAS  C:\Users\DEVELO~1\AppData\Local\Temp\ccBkajkH.s 			page 73


 4101 0109 01       		.uleb128 0x1
 4102 010a 50       		.byte	0x50
 4103 010b 00       		.byte	0
 4104              	.LVUS0:
 4105 010c 00       		.uleb128 0
 4106 010d 00       		.uleb128 .LVU7
 4107 010e 00       		.uleb128 .LVU7
 4108 010f 00       		.uleb128 0
 4109              	.LLST0:
 4110 0110 06       		.byte	0x6
 4111 0111 00000000 		.4byte	.LVL0
 4112 0115 04       		.byte	0x4
 4113 0116 00       		.uleb128 .LVL0-.LVL0
 4114 0117 0A       		.uleb128 .LVL1-.LVL0
 4115 0118 01       		.uleb128 0x1
 4116 0119 50       		.byte	0x50
 4117 011a 04       		.byte	0x4
 4118 011b 0A       		.uleb128 .LVL1-.LVL0
 4119 011c E001     		.uleb128 .LFE450-.LVL0
 4120 011e 04       		.uleb128 0x4
 4121 011f A3       		.byte	0xa3
 4122 0120 01       		.uleb128 0x1
 4123 0121 50       		.byte	0x50
 4124 0122 9F       		.byte	0x9f
 4125 0123 00       		.byte	0
 4126              	.LVUS1:
 4127 0124 00       		.uleb128 .LVU40
 4128 0125 00       		.uleb128 .LVU53
 4129 0126 00       		.uleb128 .LVU70
 4130 0127 00       		.uleb128 .LVU73
 4131              	.LLST1:
 4132 0128 06       		.byte	0x6
 4133 0129 56000000 		.4byte	.LVL10
 4134 012d 04       		.byte	0x4
 4135 012e 00       		.uleb128 .LVL10-.LVL10
 4136 012f 2C       		.uleb128 .LVL13-.LVL10
 4137 0130 01       		.uleb128 0x1
 4138 0131 57       		.byte	0x57
 4139 0132 04       		.byte	0x4
 4140 0133 50       		.uleb128 .LVL17-.LVL10
 4141 0134 5C       		.uleb128 .LVL18-.LVL10
 4142 0135 01       		.uleb128 0x1
 4143 0136 57       		.byte	0x57
 4144 0137 00       		.byte	0
 4145              	.LVUS3:
 4146 0138 01       		.uleb128 .LVU55
 4147 0139 00       		.uleb128 .LVU61
 4148              	.LLST3:
 4149 013a 08       		.byte	0x8
 4150 013b 88000000 		.4byte	.LVL14
 4151 013f 08       		.uleb128 .LVL15-.LVL14
 4152 0140 02       		.uleb128 0x2
 4153 0141 31       		.byte	0x31
 4154 0142 9F       		.byte	0x9f
 4155 0143 00       		.byte	0
 4156              	.LVUS5:
 4157 0144 01       		.uleb128 .LVU83
ARM GAS  C:\Users\DEVELO~1\AppData\Local\Temp\ccBkajkH.s 			page 74


 4158 0145 00       		.uleb128 .LVU89
 4159              	.LLST5:
 4160 0146 08       		.byte	0x8
 4161 0147 CE000000 		.4byte	.LVL21
 4162 014b 08       		.uleb128 .LVL22-.LVL21
 4163 014c 02       		.uleb128 0x2
 4164 014d 35       		.byte	0x35
 4165 014e 9F       		.byte	0x9f
 4166 014f 00       		.byte	0
 4167              	.Ldebug_loc3:
 4168              		.section	.debug_aranges,"",%progbits
 4169 0000 3C000000 		.4byte	0x3c
 4170 0004 0200     		.2byte	0x2
 4171 0006 00000000 		.4byte	.Ldebug_info0
 4172 000a 04       		.byte	0x4
 4173 000b 00       		.byte	0
 4174 000c 0000     		.2byte	0
 4175 000e 0000     		.2byte	0
 4176 0010 00000000 		.4byte	.LFB450
 4177 0014 E0000000 		.4byte	.LFE450-.LFB450
 4178 0018 00000000 		.4byte	.LFB451
 4179 001c 20000000 		.4byte	.LFE451-.LFB451
 4180 0020 00000000 		.4byte	.LFB452
 4181 0024 20000000 		.4byte	.LFE452-.LFB452
 4182 0028 00000000 		.4byte	.LFB453
 4183 002c D0000000 		.4byte	.LFE453-.LFB453
 4184 0030 00000000 		.4byte	.LFB454
 4185 0034 50000000 		.4byte	.LFE454-.LFB454
 4186 0038 00000000 		.4byte	0
 4187 003c 00000000 		.4byte	0
 4188              		.section	.debug_rnglists,"",%progbits
 4189              	.Ldebug_ranges0:
 4190 0000 4D000000 		.4byte	.Ldebug_ranges3-.Ldebug_ranges2
 4191              	.Ldebug_ranges2:
 4192 0004 0500     		.2byte	0x5
 4193 0006 04       		.byte	0x4
 4194 0007 00       		.byte	0
 4195 0008 00000000 		.4byte	0
 4196              	.LLRL2:
 4197 000c 05       		.byte	0x5
 4198 000d 88000000 		.4byte	.LBB12
 4199 0011 04       		.byte	0x4
 4200 0012 00       		.uleb128 .LBB12-.LBB12
 4201 0013 04       		.uleb128 .LBE12-.LBB12
 4202 0014 04       		.byte	0x4
 4203 0015 06       		.uleb128 .LBB15-.LBB12
 4204 0016 08       		.uleb128 .LBE15-.LBB12
 4205 0017 00       		.byte	0
 4206              	.LLRL4:
 4207 0018 05       		.byte	0x5
 4208 0019 CE000000 		.4byte	.LBB16
 4209 001d 04       		.byte	0x4
 4210 001e 00       		.uleb128 .LBB16-.LBB16
 4211 001f 04       		.uleb128 .LBE16-.LBB16
 4212 0020 04       		.byte	0x4
 4213 0021 06       		.uleb128 .LBB19-.LBB16
 4214 0022 08       		.uleb128 .LBE19-.LBB16
ARM GAS  C:\Users\DEVELO~1\AppData\Local\Temp\ccBkajkH.s 			page 75


 4215 0023 00       		.byte	0
 4216              	.LLRL16:
 4217 0024 05       		.byte	0x5
 4218 0025 30000000 		.4byte	.LBB20
 4219 0029 04       		.byte	0x4
 4220 002a 00       		.uleb128 .LBB20-.LBB20
 4221 002b 04       		.uleb128 .LBE20-.LBB20
 4222 002c 04       		.byte	0x4
 4223 002d 06       		.uleb128 .LBB23-.LBB20
 4224 002e 10       		.uleb128 .LBE23-.LBB20
 4225 002f 00       		.byte	0
 4226              	.LLRL18:
 4227 0030 07       		.byte	0x7
 4228 0031 00000000 		.4byte	.LFB450
 4229 0035 E001     		.uleb128 .LFE450-.LFB450
 4230 0037 07       		.byte	0x7
 4231 0038 00000000 		.4byte	.LFB451
 4232 003c 20       		.uleb128 .LFE451-.LFB451
 4233 003d 07       		.byte	0x7
 4234 003e 00000000 		.4byte	.LFB452
 4235 0042 20       		.uleb128 .LFE452-.LFB452
 4236 0043 07       		.byte	0x7
 4237 0044 00000000 		.4byte	.LFB453
 4238 0048 D001     		.uleb128 .LFE453-.LFB453
 4239 004a 07       		.byte	0x7
 4240 004b 00000000 		.4byte	.LFB454
 4241 004f 50       		.uleb128 .LFE454-.LFB454
 4242 0050 00       		.byte	0
 4243              	.Ldebug_ranges3:
 4244              		.section	.debug_line,"",%progbits
 4245              	.Ldebug_line0:
 4246 0000 E1050000 		.section	.debug_str,"MS",%progbits,1
 4246      03009F02 
 4246      00000201 
 4246      FB0E0D00 
 4246      01010101 
 4247              	.LASF11:
 4248 0000 6C6F6E67 		.ascii	"long int\000"
 4248      20696E74 
 4248      00
 4249              	.LASF123:
 4250 0009 63737461 		.ascii	"cstack_base\000"
 4250      636B5F62 
 4250      61736500 
 4251              	.LASF144:
 4252 0015 53445241 		.ascii	"SDRAM_AUDIO_DELAY\000"
 4252      4D5F4155 
 4252      44494F5F 
 4252      44454C41 
 4252      5900
 4253              	.LASF115:
 4254 0027 77746D74 		.ascii	"wtmtxp\000"
 4254      787000
 4255              	.LASF192:
 4256 002e 63684D74 		.ascii	"chMtxLock\000"
 4256      784C6F63 
 4256      6B00
ARM GAS  C:\Users\DEVELO~1\AppData\Local\Temp\ccBkajkH.s 			page 76


 4257              	.LASF42:
 4258 0038 64697370 		.ascii	"dispose\000"
 4258      6F736500 
 4259              	.LASF23:
 4260 0040 706F7274 		.ascii	"port_stkline_t\000"
 4260      5F73746B 
 4260      6C696E65 
 4260      5F7400
 4261              	.LASF103:
 4262 004f 63685F72 		.ascii	"ch_registry\000"
 4262      65676973 
 4262      74727900 
 4263              	.LASF195:
 4264 005b 73647261 		.ascii	"sdram_get_region\000"
 4264      6D5F6765 
 4264      745F7265 
 4264      67696F6E 
 4264      00
 4265              	.LASF200:
 4266 006c 73647261 		.ascii	"sdram_get_error\000"
 4266      6D5F6765 
 4266      745F6572 
 4266      726F7200 
 4267              	.LASF38:
 4268 007c 666C6167 		.ascii	"flags\000"
 4268      7300
 4269              	.LASF69:
 4270 0082 73797374 		.ascii	"systime_t\000"
 4270      696D655F 
 4270      7400
 4271              	.LASF150:
 4272 008c 73697A65 		.ascii	"size_bytes\000"
 4272      5F627974 
 4272      657300
 4273              	.LASF48:
 4274 0097 7265616C 		.ascii	"realprio\000"
 4274      7072696F 
 4274      00
 4275              	.LASF81:
 4276 00a0 62756666 		.ascii	"buffer\000"
 4276      657200
 4277              	.LASF79:
 4278 00a7 73757370 		.ascii	"suspended\000"
 4278      656E6465 
 4278      6400
 4279              	.LASF160:
 4280 00b1 53445241 		.ascii	"SDRAM_BIST_ERR_STUCK_AT\000"
 4280      4D5F4249 
 4280      53545F45 
 4280      52525F53 
 4280      5455434B 
 4281              	.LASF46:
 4282 00c9 6570656E 		.ascii	"epending\000"
 4282      64696E67 
 4282      00
 4283              	.LASF0:
 4284 00d2 756E7369 		.ascii	"unsigned int\000"
ARM GAS  C:\Users\DEVELO~1\AppData\Local\Temp\ccBkajkH.s 			page 77


 4284      676E6564 
 4284      20696E74 
 4284      00
 4285              	.LASF87:
 4286 00df 6E657874 		.ascii	"next\000"
 4286      00
 4287              	.LASF20:
 4288 00e4 75696E74 		.ascii	"uint32_t\000"
 4288      33325F74 
 4288      00
 4289              	.LASF55:
 4290 00ed 636F7265 		.ascii	"core_id\000"
 4290      5F696400 
 4291              	.LASF198:
 4292 00f5 656E7472 		.ascii	"entry_state\000"
 4292      795F7374 
 4292      61746500 
 4293              	.LASF10:
 4294 0101 5F5F696E 		.ascii	"__int32_t\000"
 4294      7433325F 
 4294      7400
 4295              	.LASF39:
 4296 010b 72656673 		.ascii	"refs\000"
 4296      00
 4297              	.LASF164:
 4298 0110 53445241 		.ascii	"SDRAM_BIST_MODE_FULL\000"
 4298      4D5F4249 
 4298      53545F4D 
 4298      4F44455F 
 4298      46554C4C 
 4299              	.LASF71:
 4300 0125 77746F62 		.ascii	"wtobjp\000"
 4300      6A7000
 4301              	.LASF53:
 4302 012c 76746C69 		.ascii	"vtlist\000"
 4302      737400
 4303              	.LASF179:
 4304 0133 73647261 		.ascii	"sdram_driver_ctx_t\000"
 4304      6D5F6472 
 4304      69766572 
 4304      5F637478 
 4304      5F7400
 4305              	.LASF84:
 4306 0146 706F7274 		.ascii	"port_context\000"
 4306      5F636F6E 
 4306      74657874 
 4306      00
 4307              	.LASF119:
 4308 0153 63685F72 		.ascii	"ch_ready_list\000"
 4308      65616479 
 4308      5F6C6973 
 4308      7400
 4309              	.LASF101:
 4310 0161 6C617374 		.ascii	"laststamp\000"
 4310      7374616D 
 4310      7000
 4311              	.LASF116:
ARM GAS  C:\Users\DEVELO~1\AppData\Local\Temp\ccBkajkH.s 			page 78


 4312 016b 65776D61 		.ascii	"ewmask\000"
 4312      736B00
 4313              	.LASF180:
 4314 0172 6D6F6465 		.ascii	"mode\000"
 4314      00
 4315              	.LASF90:
 4316 0177 70726576 		.ascii	"prev\000"
 4316      00
 4317              	.LASF136:
 4318 017c 53445241 		.ascii	"SDRAM_ERR_NONE\000"
 4318      4D5F4552 
 4318      525F4E4F 
 4318      4E4500
 4319              	.LASF134:
 4320 018b 53445241 		.ascii	"SDRAM_FAULT\000"
 4320      4D5F4641 
 4320      554C5400 
 4321              	.LASF86:
 4322 0197 63685F6C 		.ascii	"ch_list\000"
 4322      69737400 
 4323              	.LASF188:
 4324 019f 73647261 		.ascii	"sdram_bist_start\000"
 4324      6D5F6269 
 4324      73745F73 
 4324      74617274 
 4324      00
 4325              	.LASF65:
 4326 01b0 63685F73 		.ascii	"ch_system_debug\000"
 4326      79737465 
 4326      6D5F6465 
 4326      62756700 
 4327              	.LASF140:
 4328 01c0 53445241 		.ascii	"SDRAM_ERR_BIST_FAIL\000"
 4328      4D5F4552 
 4328      525F4249 
 4328      53545F46 
 4328      41494C00 
 4329              	.LASF108:
 4330 01d4 6C697374 		.ascii	"list\000"
 4330      00
 4331              	.LASF130:
 4332 01d9 53445241 		.ascii	"SDRAM_NOT_INITIALIZED\000"
 4332      4D5F4E4F 
 4332      545F494E 
 4332      49544941 
 4332      4C495A45 
 4333              	.LASF95:
 4334 01ef 63685F64 		.ascii	"ch_delta_list\000"
 4334      656C7461 
 4334      5F6C6973 
 4334      7400
 4335              	.LASF209:
 4336 01fd 474E5520 		.ascii	"GNU C17 11.3.1 20220712 -mcpu=cortex-m7 -mthumb -mf"
 4336      43313720 
 4336      31312E33 
 4336      2E312032 
 4336      30323230 
ARM GAS  C:\Users\DEVELO~1\AppData\Local\Temp\ccBkajkH.s 			page 79


 4337 0230 6C6F6174 		.ascii	"loat-abi=hard -mfpu=fpv5-d16 -march=armv7e-m+fp.dp "
 4337      2D616269 
 4337      3D686172 
 4337      64202D6D 
 4337      6670753D 
 4338 0263 2D676764 		.ascii	"-ggdb -O2 -ffunction-sections -fdata-sections -fno-"
 4338      62202D4F 
 4338      32202D66 
 4338      66756E63 
 4338      74696F6E 
 4339 0296 636F6D6D 		.ascii	"common\000"
 4339      6F6E00
 4340              	.LASF113:
 4341 029d 73656E74 		.ascii	"sentmsg\000"
 4341      6D736700 
 4342              	.LASF135:
 4343 02a5 73647261 		.ascii	"sdram_state_t\000"
 4343      6D5F7374 
 4343      6174655F 
 4343      7400
 4344              	.LASF167:
 4345 02b3 776F7264 		.ascii	"words_tested\000"
 4345      735F7465 
 4345      73746564 
 4345      00
 4346              	.LASF30:
 4347 02c0 6576656E 		.ascii	"eventmask_t\000"
 4347      746D6173 
 4347      6B5F7400 
 4348              	.LASF159:
 4349 02cc 53445241 		.ascii	"SDRAM_BIST_ERR_ADDRESS_ALIAS\000"
 4349      4D5F4249 
 4349      53545F45 
 4349      52525F41 
 4349      44445245 
 4350              	.LASF78:
 4351 02e9 74726163 		.ascii	"trace_event_t\000"
 4351      655F6576 
 4351      656E745F 
 4351      7400
 4352              	.LASF133:
 4353 02f7 53445241 		.ascii	"SDRAM_DEGRADED\000"
 4353      4D5F4445 
 4353      47524144 
 4353      454400
 4354              	.LASF117:
 4355 0306 63685F73 		.ascii	"ch_semaphore\000"
 4355      656D6170 
 4355      686F7265 
 4355      00
 4356              	.LASF28:
 4357 0313 74707269 		.ascii	"tprio_t\000"
 4357      6F5F7400 
 4358              	.LASF149:
 4359 031b 62617365 		.ascii	"base\000"
 4359      00
 4360              	.LASF127:
ARM GAS  C:\Users\DEVELO~1\AppData\Local\Temp\ccBkajkH.s 			page 80


 4361 0320 6F735F69 		.ascii	"os_instance_config_t\000"
 4361      6E737461 
 4361      6E63655F 
 4361      636F6E66 
 4361      69675F74 
 4362              	.LASF183:
 4363 0335 72657375 		.ascii	"result\000"
 4363      6C7400
 4364              	.LASF197:
 4365 033c 6F75745F 		.ascii	"out_result\000"
 4365      72657375 
 4365      6C7400
 4366              	.LASF73:
 4367 0347 68616C74 		.ascii	"halt\000"
 4367      00
 4368              	.LASF15:
 4369 034c 6C6F6E67 		.ascii	"long long unsigned int\000"
 4369      206C6F6E 
 4369      6720756E 
 4369      7369676E 
 4369      65642069 
 4370              	.LASF155:
 4371 0363 53445241 		.ascii	"SDRAM_BIST_ABORT\000"
 4371      4D5F4249 
 4371      53545F41 
 4371      424F5254 
 4371      00
 4372              	.LASF72:
 4373 0374 72656173 		.ascii	"reason\000"
 4373      6F6E00
 4374              	.LASF153:
 4375 037b 53445241 		.ascii	"SDRAM_BIST_PASS\000"
 4375      4D5F4249 
 4375      53545F50 
 4375      41535300 
 4376              	.LASF143:
 4377 038b 53445241 		.ascii	"SDRAM_AUDIO_LOOP\000"
 4377      4D5F4155 
 4377      44494F5F 
 4377      4C4F4F50 
 4377      00
 4378              	.LASF109:
 4379 039c 70717565 		.ascii	"pqueue\000"
 4379      756500
 4380              	.LASF8:
 4381 03a3 5F5F7569 		.ascii	"__uint16_t\000"
 4381      6E743136 
 4381      5F7400
 4382              	.LASF31:
 4383 03ae 636E745F 		.ascii	"cnt_t\000"
 4383      7400
 4384              	.LASF162:
 4385 03b4 73647261 		.ascii	"sdram_bist_error_t\000"
 4385      6D5F6269 
 4385      73745F65 
 4385      72726F72 
 4385      5F7400
ARM GAS  C:\Users\DEVELO~1\AppData\Local\Temp\ccBkajkH.s 			page 81


 4386              	.LASF24:
 4387 03c7 73746B6C 		.ascii	"stkline_t\000"
 4387      696E655F 
 4387      7400
 4388              	.LASF77:
 4389 03d1 74696D65 		.ascii	"time\000"
 4389      00
 4390              	.LASF34:
 4391 03d6 6F776E65 		.ascii	"owner\000"
 4391      7200
 4392              	.LASF184:
 4393 03dc 73647261 		.ascii	"sdram_bist_context_t\000"
 4393      6D5F6269 
 4393      73745F63 
 4393      6F6E7465 
 4393      78745F74 
 4394              	.LASF47:
 4395 03f1 6D74786C 		.ascii	"mtxlist\000"
 4395      69737400 
 4396              	.LASF97:
 4397 03f9 63685F76 		.ascii	"ch_virtual_timers_list\000"
 4397      69727475 
 4397      616C5F74 
 4397      696D6572 
 4397      735F6C69 
 4398              	.LASF56:
 4399 0410 72666375 		.ascii	"rfcu\000"
 4399      00
 4400              	.LASF33:
 4401 0415 74687265 		.ascii	"thread_t\000"
 4401      61645F74 
 4401      00
 4402              	.LASF74:
 4403 041e 75736572 		.ascii	"user\000"
 4403      00
 4404              	.LASF4:
 4405 0423 73697A65 		.ascii	"size_t\000"
 4405      5F7400
 4406              	.LASF110:
 4407 042a 7264796D 		.ascii	"rdymsg\000"
 4407      736700
 4408              	.LASF145:
 4409 0431 53445241 		.ascii	"SDRAM_AUDIO_FX\000"
 4409      4D5F4155 
 4409      44494F5F 
 4409      465800
 4410              	.LASF91:
 4411 0440 63685F70 		.ascii	"ch_priority_queue_t\000"
 4411      72696F72 
 4411      6974795F 
 4411      71756575 
 4411      655F7400 
 4412              	.LASF170:
 4413 0454 66697273 		.ascii	"first_error_address\000"
 4413      745F6572 
 4413      726F725F 
 4413      61646472 
ARM GAS  C:\Users\DEVELO~1\AppData\Local\Temp\ccBkajkH.s 			page 82


 4413      65737300 
 4414              	.LASF210:
 4415 0468 64726976 		.ascii	"drivers/sdram/sdram_driver.c\000"
 4415      6572732F 
 4415      73647261 
 4415      6D2F7364 
 4415      72616D5F 
 4416              	.LASF129:
 4417 0485 5F426F6F 		.ascii	"_Bool\000"
 4417      6C00
 4418              	.LASF43:
 4419 048b 6F626A65 		.ascii	"object\000"
 4419      637400
 4420              	.LASF157:
 4421 0492 53445241 		.ascii	"SDRAM_BIST_ERR_NONE\000"
 4421      4D5F4249 
 4421      53545F45 
 4421      52525F4E 
 4421      4F4E4500 
 4422              	.LASF62:
 4423 04a6 63685F72 		.ascii	"ch_rfcu\000"
 4423      66637500 
 4424              	.LASF118:
 4425 04ae 63685F6D 		.ascii	"ch_mutex\000"
 4425      75746578 
 4425      00
 4426              	.LASF178:
 4427 04b7 6C617374 		.ascii	"last_bist_result\000"
 4427      5F626973 
 4427      745F7265 
 4427      73756C74 
 4427      00
 4428              	.LASF51:
 4429 04c8 63685F6F 		.ascii	"ch_os_instance\000"
 4429      735F696E 
 4429      7374616E 
 4429      636500
 4430              	.LASF201:
 4431 04d7 6572726F 		.ascii	"error\000"
 4431      7200
 4432              	.LASF172:
 4433 04dd 66697273 		.ascii	"first_error_pattern\000"
 4433      745F6572 
 4433      726F725F 
 4433      70617474 
 4433      65726E00 
 4434              	.LASF93:
 4435 04f1 7072696F 		.ascii	"prio\000"
 4435      00
 4436              	.LASF173:
 4437 04f6 74696D65 		.ascii	"timestamp_start\000"
 4437      7374616D 
 4437      705F7374 
 4437      61727400 
 4438              	.LASF67:
 4439 0506 63686172 		.ascii	"char\000"
 4439      00
ARM GAS  C:\Users\DEVELO~1\AppData\Local\Temp\ccBkajkH.s 			page 83


 4440              	.LASF94:
 4441 050b 63685F64 		.ascii	"ch_delta_list_t\000"
 4441      656C7461 
 4441      5F6C6973 
 4441      745F7400 
 4442              	.LASF61:
 4443 051b 72666375 		.ascii	"rfcu_mask_t\000"
 4443      5F6D6173 
 4443      6B5F7400 
 4444              	.LASF106:
 4445 0527 74687265 		.ascii	"thread_reference_t\000"
 4445      61645F72 
 4445      65666572 
 4445      656E6365 
 4445      5F7400
 4446              	.LASF35:
 4447 053a 77616261 		.ascii	"wabase\000"
 4447      736500
 4448              	.LASF211:
 4449 0541 433A5C43 		.ascii	"C:\\ChibiStudio\\ChibiOS-master\\demos\\STM32\\CUST"
 4449      68696269 
 4449      53747564 
 4449      696F5C43 
 4449      68696269 
 4450 056f 4F4D5F48 		.ascii	"OM_H743IIT6_maj\000"
 4450      37343349 
 4450      4954365F 
 4450      6D616A00 
 4451              	.LASF26:
 4452 057f 74737461 		.ascii	"tstate_t\000"
 4452      74655F74 
 4452      00
 4453              	.LASF41:
 4454 0588 72717565 		.ascii	"rqueue\000"
 4454      756500
 4455              	.LASF14:
 4456 058f 5F5F7569 		.ascii	"__uint64_t\000"
 4456      6E743634 
 4456      5F7400
 4457              	.LASF185:
 4458 059a 73647261 		.ascii	"sdram_ctx\000"
 4458      6D5F6374 
 4458      7800
 4459              	.LASF17:
 4460 05a4 75696E74 		.ascii	"uint8_t\000"
 4460      385F7400 
 4461              	.LASF166:
 4462 05ac 73746174 		.ascii	"status\000"
 4462      757300
 4463              	.LASF45:
 4464 05b3 6D736771 		.ascii	"msgqueue\000"
 4464      75657565 
 4464      00
 4465              	.LASF137:
 4466 05bc 53445241 		.ascii	"SDRAM_ERR_FMC_TIMEOUT\000"
 4466      4D5F4552 
 4466      525F464D 
ARM GAS  C:\Users\DEVELO~1\AppData\Local\Temp\ccBkajkH.s 			page 84


 4466      435F5449 
 4466      4D454F55 
 4467              	.LASF165:
 4468 05d2 73647261 		.ascii	"sdram_bist_mode_t\000"
 4468      6D5F6269 
 4468      73745F6D 
 4468      6F64655F 
 4468      7400
 4469              	.LASF50:
 4470 05e4 63685F74 		.ascii	"ch_thread\000"
 4470      68726561 
 4470      6400
 4471              	.LASF142:
 4472 05ee 73647261 		.ascii	"sdram_error_t\000"
 4472      6D5F6572 
 4472      726F725F 
 4472      7400
 4473              	.LASF203:
 4474 05fc 72756E5F 		.ascii	"run_quick_bist\000"
 4474      71756963 
 4474      6B5F6269 
 4474      737400
 4475              	.LASF138:
 4476 060b 53445241 		.ascii	"SDRAM_ERR_FMC_CMD\000"
 4476      4D5F4552 
 4476      525F464D 
 4476      435F434D 
 4476      4400
 4477              	.LASF68:
 4478 061d 73797374 		.ascii	"system_debug_t\000"
 4478      656D5F64 
 4478      65627567 
 4478      5F7400
 4479              	.LASF1:
 4480 062c 6C6F6E67 		.ascii	"long long int\000"
 4480      206C6F6E 
 4480      6720696E 
 4480      7400
 4481              	.LASF107:
 4482 063a 74687265 		.ascii	"thread_dispose_t\000"
 4482      61645F64 
 4482      6973706F 
 4482      73655F74 
 4482      00
 4483              	.LASF191:
 4484 064b 63684D74 		.ascii	"chMtxUnlock\000"
 4484      78556E6C 
 4484      6F636B00 
 4485              	.LASF29:
 4486 0657 6D73675F 		.ascii	"msg_t\000"
 4486      7400
 4487              	.LASF100:
 4488 065d 6C617374 		.ascii	"lastdelta\000"
 4488      64656C74 
 4488      6100
 4489              	.LASF105:
 4490 0667 72656769 		.ascii	"registry_t\000"
ARM GAS  C:\Users\DEVELO~1\AppData\Local\Temp\ccBkajkH.s 			page 85


 4490      73747279 
 4490      5F7400
 4491              	.LASF213:
 4492 0672 6D656D73 		.ascii	"memset\000"
 4492      657400
 4493              	.LASF152:
 4494 0679 73647261 		.ascii	"sdram_region_info_t\000"
 4494      6D5F7265 
 4494      67696F6E 
 4494      5F696E66 
 4494      6F5F7400 
 4495              	.LASF80:
 4496 068d 73697A65 		.ascii	"size\000"
 4496      00
 4497              	.LASF202:
 4498 0692 73647261 		.ascii	"sdram_status\000"
 4498      6D5F7374 
 4498      61747573 
 4498      00
 4499              	.LASF126:
 4500 069f 69646C65 		.ascii	"idlestack_end\000"
 4500      73746163 
 4500      6B5F656E 
 4500      6400
 4501              	.LASF204:
 4502 06ad 62697374 		.ascii	"bist_ctx\000"
 4502      5F637478 
 4502      00
 4503              	.LASF63:
 4504 06b6 6D61736B 		.ascii	"mask\000"
 4504      00
 4505              	.LASF212:
 4506 06bb 73647261 		.ascii	"sdram_init\000"
 4506      6D5F696E 
 4506      697400
 4507              	.LASF199:
 4508 06c6 73746172 		.ascii	"started\000"
 4508      74656400 
 4509              	.LASF70:
 4510 06ce 73797369 		.ascii	"sysinterval_t\000"
 4510      6E746572 
 4510      76616C5F 
 4510      7400
 4511              	.LASF88:
 4512 06dc 63685F71 		.ascii	"ch_queue_t\000"
 4512      75657565 
 4512      5F7400
 4513              	.LASF147:
 4514 06e7 53445241 		.ascii	"SDRAM_REGION_INVALID\000"
 4514      4D5F5245 
 4514      47494F4E 
 4514      5F494E56 
 4514      414C4944 
 4515              	.LASF158:
 4516 06fc 53445241 		.ascii	"SDRAM_BIST_ERR_DATA_MISMATCH\000"
 4516      4D5F4249 
 4516      53545F45 
ARM GAS  C:\Users\DEVELO~1\AppData\Local\Temp\ccBkajkH.s 			page 86


 4516      52525F44 
 4516      4154415F 
 4517              	.LASF125:
 4518 0719 69646C65 		.ascii	"idlestack_base\000"
 4518      73746163 
 4518      6B5F6261 
 4518      736500
 4519              	.LASF82:
 4520 0728 74726163 		.ascii	"trace_buffer_t\000"
 4520      655F6275 
 4520      66666572 
 4520      5F7400
 4521              	.LASF205:
 4522 0737 62697374 		.ascii	"bist_ok\000"
 4522      5F6F6B00 
 4523              	.LASF25:
 4524 073f 746D6F64 		.ascii	"tmode_t\000"
 4524      655F7400 
 4525              	.LASF58:
 4526 0747 69646C65 		.ascii	"idlethread\000"
 4526      74687265 
 4526      616400
 4527              	.LASF2:
 4528 0752 6C6F6E67 		.ascii	"long double\000"
 4528      20646F75 
 4528      626C6500 
 4529              	.LASF207:
 4530 075e 73647261 		.ascii	"sdram_set_fault_locked\000"
 4530      6D5F7365 
 4530      745F6661 
 4530      756C745F 
 4530      6C6F636B 
 4531              	.LASF146:
 4532 0775 53445241 		.ascii	"SDRAM_CACHE_RESIDUAL\000"
 4532      4D5F4341 
 4532      4348455F 
 4532      52455349 
 4532      4455414C 
 4533              	.LASF151:
 4534 078a 616C6967 		.ascii	"alignment_bytes\000"
 4534      6E6D656E 
 4534      745F6279 
 4534      74657300 
 4535              	.LASF18:
 4536 079a 75696E74 		.ascii	"uint16_t\000"
 4536      31365F74 
 4536      00
 4537              	.LASF85:
 4538 07a3 63685F6C 		.ascii	"ch_list_t\000"
 4538      6973745F 
 4538      7400
 4539              	.LASF16:
 4540 07ad 5F5F7569 		.ascii	"__uintptr_t\000"
 4540      6E747074 
 4540      725F7400 
 4541              	.LASF57:
 4542 07b9 636F6E66 		.ascii	"config\000"
ARM GAS  C:\Users\DEVELO~1\AppData\Local\Temp\ccBkajkH.s 			page 87


 4542      696700
 4543              	.LASF141:
 4544 07c0 53445241 		.ascii	"SDRAM_ERR_PARAM\000"
 4544      4D5F4552 
 4544      525F5041 
 4544      52414D00 
 4545              	.LASF131:
 4546 07d0 53445241 		.ascii	"SDRAM_INITIALIZING\000"
 4546      4D5F494E 
 4546      49544941 
 4546      4C495A49 
 4546      4E4700
 4547              	.LASF7:
 4548 07e3 73686F72 		.ascii	"short int\000"
 4548      7420696E 
 4548      7400
 4549              	.LASF83:
 4550 07ed 706F7274 		.ascii	"port_intctx\000"
 4550      5F696E74 
 4550      63747800 
 4551              	.LASF168:
 4552 07f9 776F7264 		.ascii	"words_covered_unique\000"
 4552      735F636F 
 4552      76657265 
 4552      645F756E 
 4552      69717565 
 4553              	.LASF186:
 4554 080e 73647261 		.ascii	"sdram_ctx_mtx\000"
 4554      6D5F6374 
 4554      785F6D74 
 4554      7800
 4555              	.LASF169:
 4556 081c 6572726F 		.ascii	"error_count\000"
 4556      725F636F 
 4556      756E7400 
 4557              	.LASF187:
 4558 0828 73647261 		.ascii	"sdram_query_region_descriptor\000"
 4558      6D5F7175 
 4558      6572795F 
 4558      72656769 
 4558      6F6E5F64 
 4559              	.LASF36:
 4560 0846 7761656E 		.ascii	"waend\000"
 4560      6400
 4561              	.LASF124:
 4562 084c 63737461 		.ascii	"cstack_end\000"
 4562      636B5F65 
 4562      6E6400
 4563              	.LASF122:
 4564 0857 63685F6F 		.ascii	"ch_os_instance_config\000"
 4564      735F696E 
 4564      7374616E 
 4564      63655F63 
 4564      6F6E6669 
 4565              	.LASF98:
 4566 086d 646C6973 		.ascii	"dlist\000"
 4566      7400
ARM GAS  C:\Users\DEVELO~1\AppData\Local\Temp\ccBkajkH.s 			page 88


 4567              	.LASF99:
 4568 0873 6C617374 		.ascii	"lasttime\000"
 4568      74696D65 
 4568      00
 4569              	.LASF21:
 4570 087c 75696E74 		.ascii	"uint64_t\000"
 4570      36345F74 
 4570      00
 4571              	.LASF52:
 4572 0885 726C6973 		.ascii	"rlist\000"
 4572      7400
 4573              	.LASF163:
 4574 088b 53445241 		.ascii	"SDRAM_BIST_MODE_QUICK\000"
 4574      4D5F4249 
 4574      53545F4D 
 4574      4F44455F 
 4574      51554943 
 4575              	.LASF139:
 4576 08a1 53445241 		.ascii	"SDRAM_ERR_REFRESH\000"
 4576      4D5F4552 
 4576      525F5245 
 4576      46524553 
 4576      4800
 4577              	.LASF5:
 4578 08b3 5F5F7569 		.ascii	"__uint8_t\000"
 4578      6E74385F 
 4578      7400
 4579              	.LASF161:
 4580 08bd 53445241 		.ascii	"SDRAM_BIST_ERR_TIMEOUT\000"
 4580      4D5F4249 
 4580      53545F45 
 4580      52525F54 
 4580      494D454F 
 4581              	.LASF40:
 4582 08d4 6E616D65 		.ascii	"name\000"
 4582      00
 4583              	.LASF120:
 4584 08d9 63757272 		.ascii	"current\000"
 4584      656E7400 
 4585              	.LASF214:
 4586 08e1 5F5F6275 		.ascii	"__builtin_memset\000"
 4586      696C7469 
 4586      6E5F6D65 
 4586      6D736574 
 4586      00
 4587              	.LASF175:
 4588 08f2 73647261 		.ascii	"sdram_bist_result_t\000"
 4588      6D5F6269 
 4588      73745F72 
 4588      6573756C 
 4588      745F7400 
 4589              	.LASF194:
 4590 0906 6F75745F 		.ascii	"out_info\000"
 4590      696E666F 
 4590      00
 4591              	.LASF190:
 4592 090f 73647261 		.ascii	"sdram_hw_init_sequence\000"
ARM GAS  C:\Users\DEVELO~1\AppData\Local\Temp\ccBkajkH.s 			page 89


 4592      6D5F6877 
 4592      5F696E69 
 4592      745F7365 
 4592      7175656E 
 4593              	.LASF22:
 4594 0926 75696E74 		.ascii	"uintptr_t\000"
 4594      7074725F 
 4594      7400
 4595              	.LASF176:
 4596 0930 6C617374 		.ascii	"last_error\000"
 4596      5F657272 
 4596      6F7200
 4597              	.LASF156:
 4598 093b 73647261 		.ascii	"sdram_bist_status_t\000"
 4598      6D5F6269 
 4598      73745F73 
 4598      74617475 
 4598      735F7400 
 4599              	.LASF27:
 4600 094f 74726566 		.ascii	"trefs_t\000"
 4600      735F7400 
 4601              	.LASF13:
 4602 0957 6C6F6E67 		.ascii	"long unsigned int\000"
 4602      20756E73 
 4602      69676E65 
 4602      6420696E 
 4602      7400
 4603              	.LASF121:
 4604 0969 72656164 		.ascii	"ready_list_t\000"
 4604      795F6C69 
 4604      73745F74 
 4604      00
 4605              	.LASF76:
 4606 0976 72747374 		.ascii	"rtstamp\000"
 4606      616D7000 
 4607              	.LASF104:
 4608 097e 71756575 		.ascii	"queue\000"
 4608      6500
 4609              	.LASF19:
 4610 0984 696E7433 		.ascii	"int32_t\000"
 4610      325F7400 
 4611              	.LASF64:
 4612 098c 72666375 		.ascii	"rfcu_t\000"
 4612      5F7400
 4613              	.LASF60:
 4614 0993 74726163 		.ascii	"trace_buffer\000"
 4614      655F6275 
 4614      66666572 
 4614      00
 4615              	.LASF114:
 4616 09a0 77747365 		.ascii	"wtsemp\000"
 4616      6D7000
 4617              	.LASF92:
 4618 09a7 63685F70 		.ascii	"ch_priority_queue\000"
 4618      72696F72 
 4618      6974795F 
 4618      71756575 
ARM GAS  C:\Users\DEVELO~1\AppData\Local\Temp\ccBkajkH.s 			page 90


 4618      6500
 4619              	.LASF89:
 4620 09b9 63685F71 		.ascii	"ch_queue\000"
 4620      75657565 
 4620      00
 4621              	.LASF128:
 4622 09c2 6D757465 		.ascii	"mutex_t\000"
 4622      785F7400 
 4623              	.LASF132:
 4624 09ca 53445241 		.ascii	"SDRAM_READY\000"
 4624      4D5F5245 
 4624      41445900 
 4625              	.LASF75:
 4626 09d6 74797065 		.ascii	"type\000"
 4626      00
 4627              	.LASF154:
 4628 09db 53445241 		.ascii	"SDRAM_BIST_FAIL\000"
 4628      4D5F4249 
 4628      53545F46 
 4628      41494C00 
 4629              	.LASF181:
 4630 09eb 70617474 		.ascii	"patterns_executed\000"
 4630      65726E73 
 4630      5F657865 
 4630      63757465 
 4630      6400
 4631              	.LASF6:
 4632 09fd 756E7369 		.ascii	"unsigned char\000"
 4632      676E6564 
 4632      20636861 
 4632      7200
 4633              	.LASF12:
 4634 0a0b 5F5F7569 		.ascii	"__uint32_t\000"
 4634      6E743332 
 4634      5F7400
 4635              	.LASF44:
 4636 0a16 77616974 		.ascii	"waiting\000"
 4636      696E6700 
 4637              	.LASF102:
 4638 0a1e 76697274 		.ascii	"virtual_timers_list_t\000"
 4638      75616C5F 
 4638      74696D65 
 4638      72735F6C 
 4638      6973745F 
 4639              	.LASF66:
 4640 0a34 70616E69 		.ascii	"panic_msg\000"
 4640      635F6D73 
 4640      6700
 4641              	.LASF193:
 4642 0a3e 72656769 		.ascii	"region_id\000"
 4642      6F6E5F69 
 4642      6400
 4643              	.LASF59:
 4644 0a48 6D61696E 		.ascii	"mainthread\000"
 4644      74687265 
 4644      616400
 4645              	.LASF37:
ARM GAS  C:\Users\DEVELO~1\AppData\Local\Temp\ccBkajkH.s 			page 91


 4646 0a53 73746174 		.ascii	"state\000"
 4646      6500
 4647              	.LASF49:
 4648 0a59 6F735F69 		.ascii	"os_instance_t\000"
 4648      6E737461 
 4648      6E63655F 
 4648      7400
 4649              	.LASF182:
 4650 0a67 776F7264 		.ascii	"words_target\000"
 4650      735F7461 
 4650      72676574 
 4650      00
 4651              	.LASF208:
 4652 0a74 696E666F 		.ascii	"info\000"
 4652      00
 4653              	.LASF54:
 4654 0a79 7265676C 		.ascii	"reglist\000"
 4654      69737400 
 4655              	.LASF112:
 4656 0a81 77747472 		.ascii	"wttrp\000"
 4656      7000
 4657              	.LASF174:
 4658 0a87 74696D65 		.ascii	"timestamp_end\000"
 4658      7374616D 
 4658      705F656E 
 4658      6400
 4659              	.LASF3:
 4660 0a95 7369676E 		.ascii	"signed char\000"
 4660      65642063 
 4660      68617200 
 4661              	.LASF96:
 4662 0aa1 64656C74 		.ascii	"delta\000"
 4662      6100
 4663              	.LASF177:
 4664 0aa7 62697374 		.ascii	"bist_running\000"
 4664      5F72756E 
 4664      6E696E67 
 4664      00
 4665              	.LASF9:
 4666 0ab4 73686F72 		.ascii	"short unsigned int\000"
 4666      7420756E 
 4666      7369676E 
 4666      65642069 
 4666      6E7400
 4667              	.LASF189:
 4668 0ac7 73647261 		.ascii	"sdram_configure_mpu_regions\000"
 4668      6D5F636F 
 4668      6E666967 
 4668      7572655F 
 4668      6D70755F 
 4669              	.LASF148:
 4670 0ae3 73647261 		.ascii	"sdram_region_id_t\000"
 4670      6D5F7265 
 4670      67696F6E 
 4670      5F69645F 
 4670      7400
 4671              	.LASF196:
ARM GAS  C:\Users\DEVELO~1\AppData\Local\Temp\ccBkajkH.s 			page 92


 4672 0af5 73647261 		.ascii	"sdram_run_bist\000"
 4672      6D5F7275 
 4672      6E5F6269 
 4672      737400
 4673              	.LASF171:
 4674 0b04 66697273 		.ascii	"first_error\000"
 4674      745F6572 
 4674      726F7200 
 4675              	.LASF111:
 4676 0b10 65786974 		.ascii	"exitcode\000"
 4676      636F6465 
 4676      00
 4677              	.LASF32:
 4678 0b19 636F7265 		.ascii	"core_id_t\000"
 4678      5F69645F 
 4678      7400
 4679              	.LASF206:
 4680 0b23 73647261 		.ascii	"sdram_clear_region_info\000"
 4680      6D5F636C 
 4680      6561725F 
 4680      72656769 
 4680      6F6E5F69 
 4681              		.ident	"GCC: (Arm GNU Toolchain 11.3.Rel1) 11.3.1 20220712"
ARM GAS  C:\Users\DEVELO~1\AppData\Local\Temp\ccBkajkH.s 			page 93


DEFINED SYMBOLS
                            *ABS*:00000000 sdram_driver.c
C:\Users\DEVELO~1\AppData\Local\Temp\ccBkajkH.s:19     .text.sdram_init:00000000 $t
C:\Users\DEVELO~1\AppData\Local\Temp\ccBkajkH.s:26     .text.sdram_init:00000000 sdram_init
C:\Users\DEVELO~1\AppData\Local\Temp\ccBkajkH.s:298    .text.sdram_init:000000d8 $d
C:\Users\DEVELO~1\AppData\Local\Temp\ccBkajkH.s:304    .text.sdram_status:00000000 $t
C:\Users\DEVELO~1\AppData\Local\Temp\ccBkajkH.s:311    .text.sdram_status:00000000 sdram_status
C:\Users\DEVELO~1\AppData\Local\Temp\ccBkajkH.s:347    .text.sdram_status:00000018 $d
C:\Users\DEVELO~1\AppData\Local\Temp\ccBkajkH.s:353    .text.sdram_get_error:00000000 $t
C:\Users\DEVELO~1\AppData\Local\Temp\ccBkajkH.s:360    .text.sdram_get_error:00000000 sdram_get_error
C:\Users\DEVELO~1\AppData\Local\Temp\ccBkajkH.s:396    .text.sdram_get_error:00000018 $d
C:\Users\DEVELO~1\AppData\Local\Temp\ccBkajkH.s:402    .text.sdram_run_bist:00000000 $t
C:\Users\DEVELO~1\AppData\Local\Temp\ccBkajkH.s:409    .text.sdram_run_bist:00000000 sdram_run_bist
C:\Users\DEVELO~1\AppData\Local\Temp\ccBkajkH.s:584    .text.sdram_run_bist:000000c4 $d
C:\Users\DEVELO~1\AppData\Local\Temp\ccBkajkH.s:591    .text.sdram_get_region:00000000 $t
C:\Users\DEVELO~1\AppData\Local\Temp\ccBkajkH.s:598    .text.sdram_get_region:00000000 sdram_get_region
C:\Users\DEVELO~1\AppData\Local\Temp\ccBkajkH.s:703    .text.sdram_get_region:00000048 $d
C:\Users\DEVELO~1\AppData\Local\Temp\ccBkajkH.s:722    .data.sdram_ctx_mtx:00000000 sdram_ctx_mtx
C:\Users\DEVELO~1\AppData\Local\Temp\ccBkajkH.s:715    .bss.sdram_ctx:00000000 sdram_ctx
C:\Users\DEVELO~1\AppData\Local\Temp\ccBkajkH.s:711    .bss.sdram_ctx:00000000 $d
C:\Users\DEVELO~1\AppData\Local\Temp\ccBkajkH.s:718    .data.sdram_ctx_mtx:00000000 $d

UNDEFINED SYMBOLS
chMtxLock
chMtxUnlock
sdram_hw_init_sequence
sdram_configure_mpu_regions
memset
sdram_bist_start
sdram_query_region_descriptor
