ARM GAS  C:\Users\DEVELO~1\AppData\Local\Temp\ccBkajkH.s 			page 1


   1              		.cpu cortex-m7
   2              		.arch armv7e-m
   3              		.fpu fpv5-d16
   4              		.eabi_attribute 28, 1
   5              		.eabi_attribute 20, 1
   6              		.eabi_attribute 21, 1
   7              		.eabi_attribute 23, 3
   8              		.eabi_attribute 24, 1
   9              		.eabi_attribute 25, 1
  10              		.eabi_attribute 26, 1
  11              		.eabi_attribute 30, 2
  12              		.eabi_attribute 34, 1
  13              		.eabi_attribute 18, 4
  14              		.file	"sdram_driver.c"
  15              		.text
  16              	.Ltext0:
  17              		.cfi_sections	.debug_frame
  18              		.section	.text.sdram_init,"ax",%progbits
  19              		.align	1
  20              		.p2align 2,,3
  21              		.global	sdram_init
  22              		.syntax unified
  23              		.thumb
  24              		.thumb_func
  25              		.type	sdram_init, %function
  26              	sdram_init:
  27              	.LVL0:
  28              	.LFB450:
  29              		.file 1 "drivers/sdram/sdram_driver.c"
  30              		.loc 1 35 38 view -0
  31              		.cfi_startproc
  32              		@ args = 0, pretend = 0, frame = 48
  33              		@ frame_needed = 0, uses_anonymous_args = 0
  34              		.loc 1 37 3 view .LVU1
  35              		.loc 1 35 38 is_stmt 0 view .LVU2
  36 0000 F0B5     		push	{r4, r5, r6, r7, lr}
  37              		.cfi_def_cfa_offset 20
  38              		.cfi_offset 4, -20
  39              		.cfi_offset 5, -16
  40              		.cfi_offset 6, -12
  41              		.cfi_offset 7, -8
  42              		.cfi_offset 14, -4
  43              		.loc 1 38 16 view .LVU3
  44 0002 354C     		ldr	r4, .L18
  45              		.loc 1 35 38 view .LVU4
  46 0004 8DB0     		sub	sp, sp, #52
  47              		.cfi_def_cfa_offset 72
  48              		.loc 1 35 38 view .LVU5
  49 0006 0546     		mov	r5, r0
  50              		.loc 1 37 3 view .LVU6
  51 0008 3448     		ldr	r0, .L18+4
  52              	.LVL1:
  53              		.loc 1 37 3 view .LVU7
  54 000a FFF7FEFF 		bl	chMtxLock
  55              	.LVL2:
  56              		.loc 1 38 3 is_stmt 1 view .LVU8
  57              		.loc 1 38 6 is_stmt 0 view .LVU9
ARM GAS  C:\Users\DEVELO~1\AppData\Local\Temp\ccBkajkH.s 			page 2


  58 000e 2678     		ldrb	r6, [r4]	@ zero_extendqisi2
  59 0010 002E     		cmp	r6, #0
  60 0012 42D1     		bne	.L13
  61              		.loc 1 43 3 is_stmt 1 view .LVU10
  62              		.loc 1 44 3 view .LVU11
  63              		.loc 1 45 3 view .LVU12
  64              		.loc 1 43 19 is_stmt 0 view .LVU13
  65 0014 0127     		movs	r7, #1
  66              		.loc 1 46 3 view .LVU14
  67 0016 3148     		ldr	r0, .L18+4
  68              		.loc 1 45 26 view .LVU15
  69 0018 A670     		strb	r6, [r4, #2]
  70              		.loc 1 46 3 is_stmt 1 view .LVU16
  71              		.loc 1 43 19 is_stmt 0 view .LVU17
  72 001a 2780     		strh	r7, [r4]	@ movhi
  73              		.loc 1 46 3 view .LVU18
  74 001c FFF7FEFF 		bl	chMtxUnlock
  75              	.LVL3:
  76              		.loc 1 49 3 is_stmt 1 view .LVU19
  77              		.loc 1 49 8 is_stmt 0 view .LVU20
  78 0020 FFF7FEFF 		bl	sdram_hw_init_sequence
  79              	.LVL4:
  80              		.loc 1 49 6 view .LVU21
  81 0024 68B3     		cbz	r0, .L14
  82              		.loc 1 57 3 is_stmt 1 view .LVU22
  83              		.loc 1 57 8 is_stmt 0 view .LVU23
  84 0026 FFF7FEFF 		bl	sdram_configure_mpu_regions
  85              	.LVL5:
  86              		.loc 1 57 6 view .LVU24
  87 002a 0028     		cmp	r0, #0
  88 002c 4CD0     		beq	.L15
  89              		.loc 1 64 3 is_stmt 1 view .LVU25
  90              		.loc 1 64 6 is_stmt 0 view .LVU26
  91 002e 002D     		cmp	r5, #0
  92 0030 3FD0     		beq	.L16
  93              		.loc 1 72 3 is_stmt 1 view .LVU27
  94              		.loc 1 72 24 is_stmt 0 view .LVU28
  95 0032 2C22     		movs	r2, #44
  96 0034 3146     		mov	r1, r6
  97 0036 01A8     		add	r0, sp, #4
  98              		.loc 1 83 30 view .LVU29
  99 0038 251D     		adds	r5, r4, #4
 100              		.loc 1 72 24 view .LVU30
 101 003a FFF7FEFF 		bl	memset
 102              	.LVL6:
 103              		.loc 1 73 3 is_stmt 1 view .LVU31
 104              		.loc 1 75 3 view .LVU32
 105 003e 2748     		ldr	r0, .L18+4
 106 0040 FFF7FEFF 		bl	chMtxLock
 107              	.LVL7:
 108              		.loc 1 76 3 view .LVU33
 109              		.loc 1 77 3 is_stmt 0 view .LVU34
 110 0044 2548     		ldr	r0, .L18+4
 111              		.loc 1 76 26 view .LVU35
 112 0046 A770     		strb	r7, [r4, #2]
 113              		.loc 1 77 3 is_stmt 1 view .LVU36
 114 0048 FFF7FEFF 		bl	chMtxUnlock
ARM GAS  C:\Users\DEVELO~1\AppData\Local\Temp\ccBkajkH.s 			page 3


 115              	.LVL8:
 116              		.loc 1 79 3 view .LVU37
 117              		.loc 1 79 18 is_stmt 0 view .LVU38
 118 004c 01A8     		add	r0, sp, #4
 119 004e FFF7FEFF 		bl	sdram_bist_start
 120              	.LVL9:
 121 0052 0746     		mov	r7, r0
 122              		.loc 1 81 3 view .LVU39
 123 0054 2148     		ldr	r0, .L18+4
 124              	.LVL10:
 125              		.loc 1 81 3 is_stmt 1 view .LVU40
 126 0056 FFF7FEFF 		bl	chMtxLock
 127              	.LVL11:
 128              		.loc 1 82 3 view .LVU41
 129              		.loc 1 83 30 is_stmt 0 view .LVU42
 130 005a 0DF1100C 		add	ip, sp, #16
 131              		.loc 1 82 26 view .LVU43
 132 005e A670     		strb	r6, [r4, #2]
 133              		.loc 1 83 3 is_stmt 1 view .LVU44
 134              		.loc 1 83 30 is_stmt 0 view .LVU45
 135 0060 BCE80F00 		ldmia	ip!, {r0, r1, r2, r3}
 136 0064 0FC5     		stmia	r5!, {r0, r1, r2, r3}
 137 0066 9CE80F00 		ldm	ip, {r0, r1, r2, r3}
 138 006a 85E80F00 		stm	r5, {r0, r1, r2, r3}
 139              		.loc 1 85 3 is_stmt 1 view .LVU46
 140              		.loc 1 85 6 is_stmt 0 view .LVU47
 141 006e D7B9     		cbnz	r7, .L17
 142              	.L9:
 143 0070 0322     		movs	r2, #3
 144 0072 0423     		movs	r3, #4
 145              	.L6:
 146              		.loc 1 93 3 view .LVU48
 147 0074 1948     		ldr	r0, .L18+4
 148              		.loc 1 86 21 view .LVU49
 149 0076 2270     		strb	r2, [r4]
 150              		.loc 1 87 26 view .LVU50
 151 0078 6370     		strb	r3, [r4, #1]
 152              		.loc 1 93 3 is_stmt 1 view .LVU51
 153 007a FFF7FEFF 		bl	chMtxUnlock
 154              	.LVL12:
 155              		.loc 1 94 1 is_stmt 0 view .LVU52
 156 007e 0DB0     		add	sp, sp, #52
 157              		.cfi_remember_state
 158              		.cfi_def_cfa_offset 20
 159              		@ sp needed
 160 0080 F0BD     		pop	{r4, r5, r6, r7, pc}
 161              	.LVL13:
 162              	.L14:
 163              		.cfi_restore_state
 164              		.loc 1 50 5 is_stmt 1 view .LVU53
 165 0082 1648     		ldr	r0, .L18+4
 166 0084 FFF7FEFF 		bl	chMtxLock
 167              	.LVL14:
 168              		.loc 1 51 5 view .LVU54
 169              	.LBB12:
 170              	.LBI12:
 171              		.loc 1 18 13 view .LVU55
ARM GAS  C:\Users\DEVELO~1\AppData\Local\Temp\ccBkajkH.s 			page 4


 172              	.LBB13:
 173              		.loc 1 19 3 view .LVU56
 174              		.loc 1 20 3 view .LVU57
 175              		.loc 1 19 19 is_stmt 0 view .LVU58
 176 0088 4FF48273 		mov	r3, #260
 177              	.LBE13:
 178              	.LBE12:
 179              		.loc 1 52 5 view .LVU59
 180 008c 1348     		ldr	r0, .L18+4
 181              	.LBB15:
 182              	.LBB14:
 183              		.loc 1 19 19 view .LVU60
 184 008e 2380     		strh	r3, [r4]	@ movhi
 185              	.LVL15:
 186              		.loc 1 19 19 view .LVU61
 187              	.LBE14:
 188              	.LBE15:
 189              		.loc 1 52 5 is_stmt 1 view .LVU62
 190              	.L11:
 191              		.loc 1 67 5 view .LVU63
 192              		.loc 1 94 1 is_stmt 0 view .LVU64
 193 0090 0DB0     		add	sp, sp, #52
 194              		.cfi_remember_state
 195              		.cfi_def_cfa_offset 20
 196              		@ sp needed
 197 0092 BDE8F040 		pop	{r4, r5, r6, r7, lr}
 198              		.cfi_restore 14
 199              		.cfi_restore 7
 200              		.cfi_restore 6
 201              		.cfi_restore 5
 202              		.cfi_restore 4
 203              		.cfi_def_cfa_offset 0
 204              		.loc 1 67 5 view .LVU65
 205 0096 FFF7FEBF 		b	chMtxUnlock
 206              	.LVL16:
 207              	.L13:
 208              		.cfi_restore_state
 209              		.loc 1 39 5 is_stmt 1 view .LVU66
 210 009a 1048     		ldr	r0, .L18+4
 211              		.loc 1 67 5 view .LVU67
 212              		.loc 1 94 1 is_stmt 0 view .LVU68
 213 009c 0DB0     		add	sp, sp, #52
 214              		.cfi_remember_state
 215              		.cfi_def_cfa_offset 20
 216              		@ sp needed
 217 009e BDE8F040 		pop	{r4, r5, r6, r7, lr}
 218              		.cfi_restore 14
 219              		.cfi_restore 7
 220              		.cfi_restore 6
 221              		.cfi_restore 5
 222              		.cfi_restore 4
 223              		.cfi_def_cfa_offset 0
 224              		.loc 1 67 5 view .LVU69
 225 00a2 FFF7FEBF 		b	chMtxUnlock
 226              	.LVL17:
 227              	.L17:
 228              		.cfi_restore_state
ARM GAS  C:\Users\DEVELO~1\AppData\Local\Temp\ccBkajkH.s 			page 5


 229              		.loc 1 85 34 discriminator 1 view .LVU70
 230 00a6 9DF81030 		ldrb	r3, [sp, #16]	@ zero_extendqisi2
 231              		.loc 1 85 16 discriminator 1 view .LVU71
 232 00aa 002B     		cmp	r3, #0
 233 00ac E0D1     		bne	.L9
 234              		.loc 1 85 16 view .LVU72
 235 00ae 0222     		movs	r2, #2
 236 00b0 E0E7     		b	.L6
 237              	.LVL18:
 238              	.L16:
 239              		.loc 1 65 5 is_stmt 1 view .LVU73
 240 00b2 0A48     		ldr	r0, .L18+4
 241 00b4 FFF7FEFF 		bl	chMtxLock
 242              	.LVL19:
 243              		.loc 1 66 5 view .LVU74
 244              		.loc 1 66 21 is_stmt 0 view .LVU75
 245 00b8 0223     		movs	r3, #2
 246              		.loc 1 67 5 view .LVU76
 247 00ba 0848     		ldr	r0, .L18+4
 248              		.loc 1 66 21 view .LVU77
 249 00bc 2370     		strb	r3, [r4]
 250              		.loc 1 67 5 is_stmt 1 view .LVU78
 251              		.loc 1 94 1 is_stmt 0 view .LVU79
 252 00be 0DB0     		add	sp, sp, #52
 253              		.cfi_remember_state
 254              		.cfi_def_cfa_offset 20
 255              		@ sp needed
 256 00c0 BDE8F040 		pop	{r4, r5, r6, r7, lr}
 257              		.cfi_restore 14
 258              		.cfi_restore 7
 259              		.cfi_restore 6
 260              		.cfi_restore 5
 261              		.cfi_restore 4
 262              		.cfi_def_cfa_offset 0
 263              		.loc 1 67 5 view .LVU80
 264 00c4 FFF7FEBF 		b	chMtxUnlock
 265              	.LVL20:
 266              	.L15:
 267              		.cfi_restore_state
 268              		.loc 1 58 5 is_stmt 1 view .LVU81
 269 00c8 0448     		ldr	r0, .L18+4
 270 00ca FFF7FEFF 		bl	chMtxLock
 271              	.LVL21:
 272              		.loc 1 59 5 view .LVU82
 273              	.LBB16:
 274              	.LBI16:
 275              		.loc 1 18 13 view .LVU83
 276              	.LBB17:
 277              		.loc 1 19 3 view .LVU84
 278              		.loc 1 20 3 view .LVU85
 279              		.loc 1 19 19 is_stmt 0 view .LVU86
 280 00ce 40F20453 		movw	r3, #1284
 281              	.LBE17:
 282              	.LBE16:
 283              		.loc 1 60 5 view .LVU87
 284 00d2 0248     		ldr	r0, .L18+4
 285              	.LBB19:
ARM GAS  C:\Users\DEVELO~1\AppData\Local\Temp\ccBkajkH.s 			page 6


 286              	.LBB18:
 287              		.loc 1 19 19 view .LVU88
 288 00d4 2380     		strh	r3, [r4]	@ movhi
 289              	.LVL22:
 290              		.loc 1 19 19 view .LVU89
 291              	.LBE18:
 292              	.LBE19:
 293              		.loc 1 60 5 is_stmt 1 view .LVU90
 294 00d6 DBE7     		b	.L11
 295              	.L19:
 296              		.align	2
 297              	.L18:
 298 00d8 00000000 		.word	.LANCHOR1
 299 00dc 00000000 		.word	.LANCHOR0
 300              		.cfi_endproc
 301              	.LFE450:
 302              		.size	sdram_init, .-sdram_init
 303              		.section	.text.sdram_status,"ax",%progbits
 304              		.align	1
 305              		.p2align 2,,3
 306              		.global	sdram_status
 307              		.syntax unified
 308              		.thumb
 309              		.thumb_func
 310              		.type	sdram_status, %function
 311              	sdram_status:
 312              	.LFB451:
 313              		.loc 1 96 34 view -0
 314              		.cfi_startproc
 315              		@ args = 0, pretend = 0, frame = 0
 316              		@ frame_needed = 0, uses_anonymous_args = 0
 317              		.loc 1 97 3 view .LVU92
 318              		.loc 1 96 34 is_stmt 0 view .LVU93
 319 0000 10B5     		push	{r4, lr}
 320              		.cfi_def_cfa_offset 8
 321              		.cfi_offset 4, -8
 322              		.cfi_offset 14, -4
 323              		.loc 1 97 3 view .LVU94
 324 0002 0548     		ldr	r0, .L22
 325 0004 FFF7FEFF 		bl	chMtxLock
 326              	.LVL23:
 327              		.loc 1 98 3 is_stmt 1 view .LVU95
 328              		.loc 1 98 17 is_stmt 0 view .LVU96
 329 0008 044B     		ldr	r3, .L22+4
 330              		.loc 1 99 3 view .LVU97
 331 000a 0348     		ldr	r0, .L22
 332              		.loc 1 98 17 view .LVU98
 333 000c 1C78     		ldrb	r4, [r3]	@ zero_extendqisi2
 334              	.LVL24:
 335              		.loc 1 99 3 is_stmt 1 view .LVU99
 336 000e FFF7FEFF 		bl	chMtxUnlock
 337              	.LVL25:
 338              		.loc 1 100 3 view .LVU100
 339              		.loc 1 101 1 is_stmt 0 view .LVU101
 340 0012 2046     		mov	r0, r4
 341 0014 10BD     		pop	{r4, pc}
 342              	.LVL26:
ARM GAS  C:\Users\DEVELO~1\AppData\Local\Temp\ccBkajkH.s 			page 7


 343              	.L23:
 344              		.loc 1 101 1 view .LVU102
 345 0016 00BF     		.align	2
 346              	.L22:
 347 0018 00000000 		.word	.LANCHOR0
 348 001c 00000000 		.word	.LANCHOR1
 349              		.cfi_endproc
 350              	.LFE451:
 351              		.size	sdram_status, .-sdram_status
 352              		.section	.text.sdram_get_error,"ax",%progbits
 353              		.align	1
 354              		.p2align 2,,3
 355              		.global	sdram_get_error
 356              		.syntax unified
 357              		.thumb
 358              		.thumb_func
 359              		.type	sdram_get_error, %function
 360              	sdram_get_error:
 361              	.LFB452:
 362              		.loc 1 103 37 is_stmt 1 view -0
 363              		.cfi_startproc
 364              		@ args = 0, pretend = 0, frame = 0
 365              		@ frame_needed = 0, uses_anonymous_args = 0
 366              		.loc 1 104 3 view .LVU104
 367              		.loc 1 103 37 is_stmt 0 view .LVU105
 368 0000 10B5     		push	{r4, lr}
 369              		.cfi_def_cfa_offset 8
 370              		.cfi_offset 4, -8
 371              		.cfi_offset 14, -4
 372              		.loc 1 104 3 view .LVU106
 373 0002 0548     		ldr	r0, .L26
 374 0004 FFF7FEFF 		bl	chMtxLock
 375              	.LVL27:
 376              		.loc 1 105 3 is_stmt 1 view .LVU107
 377              		.loc 1 105 17 is_stmt 0 view .LVU108
 378 0008 044B     		ldr	r3, .L26+4
 379              		.loc 1 106 3 view .LVU109
 380 000a 0348     		ldr	r0, .L26
 381              		.loc 1 105 17 view .LVU110
 382 000c 5C78     		ldrb	r4, [r3, #1]	@ zero_extendqisi2
 383              	.LVL28:
 384              		.loc 1 106 3 is_stmt 1 view .LVU111
 385 000e FFF7FEFF 		bl	chMtxUnlock
 386              	.LVL29:
 387              		.loc 1 107 3 view .LVU112
 388              		.loc 1 108 1 is_stmt 0 view .LVU113
 389 0012 2046     		mov	r0, r4
 390 0014 10BD     		pop	{r4, pc}
 391              	.LVL30:
 392              	.L27:
 393              		.loc 1 108 1 view .LVU114
 394 0016 00BF     		.align	2
 395              	.L26:
 396 0018 00000000 		.word	.LANCHOR0
 397 001c 00000000 		.word	.LANCHOR1
 398              		.cfi_endproc
 399              	.LFE452:
ARM GAS  C:\Users\DEVELO~1\AppData\Local\Temp\ccBkajkH.s 			page 8


 400              		.size	sdram_get_error, .-sdram_get_error
 401              		.section	.text.sdram_run_bist,"ax",%progbits
 402              		.align	1
 403              		.p2align 2,,3
 404              		.global	sdram_run_bist
 405              		.syntax unified
 406              		.thumb
 407              		.thumb_func
 408              		.type	sdram_run_bist, %function
 409              	sdram_run_bist:
 410              	.LVL31:
 411              	.LFB453:
 412              		.loc 1 110 78 is_stmt 1 view -0
 413              		.cfi_startproc
 414              		@ args = 0, pretend = 0, frame = 48
 415              		@ frame_needed = 0, uses_anonymous_args = 0
 416              		.loc 1 111 3 view .LVU116
 417              		.loc 1 113 3 view .LVU117
 418              		.loc 1 110 78 is_stmt 0 view .LVU118
 419 0000 2DE9F043 		push	{r4, r5, r6, r7, r8, r9, lr}
 420              		.cfi_def_cfa_offset 28
 421              		.cfi_offset 4, -28
 422              		.cfi_offset 5, -24
 423              		.cfi_offset 6, -20
 424              		.cfi_offset 7, -16
 425              		.cfi_offset 8, -12
 426              		.cfi_offset 9, -8
 427              		.cfi_offset 14, -4
 428              		.loc 1 114 15 view .LVU119
 429 0004 2F4D     		ldr	r5, .L49
 430              		.loc 1 110 78 view .LVU120
 431 0006 8DB0     		sub	sp, sp, #52
 432              		.cfi_def_cfa_offset 80
 433              		.loc 1 110 78 view .LVU121
 434 0008 0646     		mov	r6, r0
 435              		.loc 1 113 3 view .LVU122
 436 000a 2F48     		ldr	r0, .L49+4
 437              	.LVL32:
 438              		.loc 1 110 78 view .LVU123
 439 000c 0C46     		mov	r4, r1
 440              		.loc 1 113 3 view .LVU124
 441 000e FFF7FEFF 		bl	chMtxLock
 442              	.LVL33:
 443              		.loc 1 114 3 is_stmt 1 view .LVU125
 444              		.loc 1 114 15 is_stmt 0 view .LVU126
 445 0012 95F80090 		ldrb	r9, [r5]	@ zero_extendqisi2
 446              	.LVL34:
 447              		.loc 1 116 3 is_stmt 1 view .LVU127
 448              		.loc 1 116 6 is_stmt 0 view .LVU128
 449 0016 B9F1010F 		cmp	r9, #1
 450 001a 04D9     		bls	.L29
 451              		.loc 1 116 85 discriminator 1 view .LVU129
 452 001c 95F80280 		ldrb	r8, [r5, #2]	@ zero_extendqisi2
 453 0020 B8F1000F 		cmp	r8, #0
 454 0024 07D0     		beq	.L30
 455              	.L29:
 456              		.loc 1 117 5 is_stmt 1 view .LVU130
ARM GAS  C:\Users\DEVELO~1\AppData\Local\Temp\ccBkajkH.s 			page 9


 457              		.loc 1 118 12 is_stmt 0 view .LVU131
 458 0026 0027     		movs	r7, #0
 459              		.loc 1 117 5 view .LVU132
 460 0028 2748     		ldr	r0, .L49+4
 461 002a FFF7FEFF 		bl	chMtxUnlock
 462              	.LVL35:
 463              		.loc 1 118 5 is_stmt 1 view .LVU133
 464              		.loc 1 157 1 is_stmt 0 view .LVU134
 465 002e 3846     		mov	r0, r7
 466 0030 0DB0     		add	sp, sp, #52
 467              		.cfi_remember_state
 468              		.cfi_def_cfa_offset 28
 469              		@ sp needed
 470 0032 BDE8F083 		pop	{r4, r5, r6, r7, r8, r9, pc}
 471              	.LVL36:
 472              	.L30:
 473              		.cfi_restore_state
 474              		.loc 1 121 3 is_stmt 1 view .LVU135
 475              		.loc 1 121 26 is_stmt 0 view .LVU136
 476 0036 0123     		movs	r3, #1
 477              		.loc 1 122 3 view .LVU137
 478 0038 2348     		ldr	r0, .L49+4
 479              		.loc 1 121 26 view .LVU138
 480 003a AB70     		strb	r3, [r5, #2]
 481              		.loc 1 122 3 is_stmt 1 view .LVU139
 482 003c FFF7FEFF 		bl	chMtxUnlock
 483              	.LVL37:
 484              		.loc 1 124 3 view .LVU140
 485              		.loc 1 124 24 is_stmt 0 view .LVU141
 486 0040 2C22     		movs	r2, #44
 487 0042 4146     		mov	r1, r8
 488 0044 01A8     		add	r0, sp, #4
 489 0046 FFF7FEFF 		bl	memset
 490              	.LVL38:
 491              		.loc 1 125 3 is_stmt 1 view .LVU142
 492              		.loc 1 127 18 is_stmt 0 view .LVU143
 493 004a 01A8     		add	r0, sp, #4
 494              		.loc 1 125 12 view .LVU144
 495 004c 8DF80460 		strb	r6, [sp, #4]
 496              		.loc 1 127 3 is_stmt 1 view .LVU145
 497              		.loc 1 127 18 is_stmt 0 view .LVU146
 498 0050 FFF7FEFF 		bl	sdram_bist_start
 499              	.LVL39:
 500 0054 0746     		mov	r7, r0
 501              	.LVL40:
 502              		.loc 1 129 3 is_stmt 1 view .LVU147
 503 0056 1C48     		ldr	r0, .L49+4
 504 0058 FFF7FEFF 		bl	chMtxLock
 505              	.LVL41:
 506              		.loc 1 130 3 view .LVU148
 507              		.loc 1 130 26 is_stmt 0 view .LVU149
 508 005c 85F80280 		strb	r8, [r5, #2]
 509              		.loc 1 132 3 is_stmt 1 view .LVU150
 510              		.loc 1 132 6 is_stmt 0 view .LVU151
 511 0060 BFB1     		cbz	r7, .L33
 512              		.loc 1 133 5 is_stmt 1 view .LVU152
 513              		.loc 1 133 32 is_stmt 0 view .LVU153
ARM GAS  C:\Users\DEVELO~1\AppData\Local\Temp\ccBkajkH.s 			page 10


 514 0062 0DF1100E 		add	lr, sp, #16
 515 0066 05F1040C 		add	ip, r5, #4
 516              		.loc 1 135 8 view .LVU154
 517 006a 9DF81080 		ldrb	r8, [sp, #16]	@ zero_extendqisi2
 518              		.loc 1 133 32 view .LVU155
 519 006e BEE80F00 		ldmia	lr!, {r0, r1, r2, r3}
 520 0072 ACE80F00 		stmia	ip!, {r0, r1, r2, r3}
 521 0076 9EE80F00 		ldm	lr, {r0, r1, r2, r3}
 522 007a 8CE80F00 		stm	ip, {r0, r1, r2, r3}
 523              		.loc 1 135 5 is_stmt 1 view .LVU156
 524              		.loc 1 135 8 is_stmt 0 view .LVU157
 525 007e B8F1000F 		cmp	r8, #0
 526 0082 17D1     		bne	.L34
 527              		.loc 1 136 7 is_stmt 1 view .LVU158
 528              		.loc 1 136 10 is_stmt 0 view .LVU159
 529 0084 B9F1030F 		cmp	r9, #3
 530 0088 03D1     		bne	.L33
 531 008a 012E     		cmp	r6, #1
 532 008c 01D1     		bne	.L33
 533              		.loc 1 137 9 is_stmt 1 view .LVU160
 534              		.loc 1 138 9 view .LVU161
 535              		.loc 1 137 25 is_stmt 0 view .LVU162
 536 008e 0223     		movs	r3, #2
 537 0090 2B80     		strh	r3, [r5]	@ movhi
 538              	.L33:
 539              		.loc 1 151 3 is_stmt 1 view .LVU163
 540              		.loc 1 151 6 is_stmt 0 view .LVU164
 541 0092 44B1     		cbz	r4, .L37
 542              		.loc 1 152 5 is_stmt 1 view .LVU165
 543              		.loc 1 152 17 is_stmt 0 view .LVU166
 544 0094 0D4D     		ldr	r5, .L49+8
 545 0096 A446     		mov	ip, r4
 546 0098 0FCD     		ldmia	r5!, {r0, r1, r2, r3}
 547 009a ACE80F00 		stmia	ip!, {r0, r1, r2, r3}
 548 009e 95E80F00 		ldm	r5, {r0, r1, r2, r3}
 549 00a2 8CE80F00 		stm	ip, {r0, r1, r2, r3}
 550              	.L37:
 551              		.loc 1 155 3 is_stmt 1 view .LVU167
 552 00a6 0848     		ldr	r0, .L49+4
 553 00a8 FFF7FEFF 		bl	chMtxUnlock
 554              	.LVL42:
 555              		.loc 1 156 3 view .LVU168
 556              		.loc 1 157 1 is_stmt 0 view .LVU169
 557 00ac 3846     		mov	r0, r7
 558 00ae 0DB0     		add	sp, sp, #52
 559              		.cfi_remember_state
 560              		.cfi_def_cfa_offset 28
 561              		@ sp needed
 562 00b0 BDE8F083 		pop	{r4, r5, r6, r7, r8, r9, pc}
 563              	.LVL43:
 564              	.L34:
 565              		.cfi_restore_state
 566              		.loc 1 141 7 is_stmt 1 view .LVU170
 567              		.loc 1 141 28 is_stmt 0 view .LVU171
 568 00b4 0423     		movs	r3, #4
 569              		.loc 1 143 10 view .LVU172
 570 00b6 012E     		cmp	r6, #1
ARM GAS  C:\Users\DEVELO~1\AppData\Local\Temp\ccBkajkH.s 			page 11


 571              		.loc 1 141 28 view .LVU173
 572 00b8 6B70     		strb	r3, [r5, #1]
 573              		.loc 1 143 7 is_stmt 1 view .LVU174
 574              		.loc 1 144 9 view .LVU175
 575              		.loc 1 146 9 view .LVU176
 576              		.loc 1 146 25 is_stmt 0 view .LVU177
 577 00ba 18BF     		it	ne
 578 00bc 0323     		movne	r3, #3
 579 00be 2B70     		strb	r3, [r5]
 580 00c0 E7E7     		b	.L33
 581              	.L50:
 582 00c2 00BF     		.align	2
 583              	.L49:
 584 00c4 00000000 		.word	.LANCHOR1
 585 00c8 00000000 		.word	.LANCHOR0
 586 00cc 04000000 		.word	.LANCHOR1+4
 587              		.cfi_endproc
 588              	.LFE453:
 589              		.size	sdram_run_bist, .-sdram_run_bist
 590              		.section	.text.sdram_get_region,"ax",%progbits
 591              		.align	1
 592              		.p2align 2,,3
 593              		.global	sdram_get_region
 594              		.syntax unified
 595              		.thumb
 596              		.thumb_func
 597              		.type	sdram_get_region, %function
 598              	sdram_get_region:
 599              	.LVL44:
 600              	.LFB454:
 601              		.loc 1 159 83 is_stmt 1 view -0
 602              		.cfi_startproc
 603              		@ args = 0, pretend = 0, frame = 0
 604              		@ frame_needed = 0, uses_anonymous_args = 0
 605              		.loc 1 160 3 view .LVU179
 606              		.loc 1 159 83 is_stmt 0 view .LVU180
 607 0000 F8B5     		push	{r3, r4, r5, r6, r7, lr}
 608              		.cfi_def_cfa_offset 24
 609              		.cfi_offset 3, -24
 610              		.cfi_offset 4, -20
 611              		.cfi_offset 5, -16
 612              		.cfi_offset 6, -12
 613              		.cfi_offset 7, -8
 614              		.cfi_offset 14, -4
 615              		.loc 1 160 6 view .LVU181
 616 0002 0C46     		mov	r4, r1
 617 0004 E9B1     		cbz	r1, .L56
 618              		.loc 1 164 3 is_stmt 1 view .LVU182
 619 0006 0546     		mov	r5, r0
 620 0008 0F48     		ldr	r0, .L64
 621              	.LVL45:
 622              		.loc 1 164 3 is_stmt 0 view .LVU183
 623 000a FFF7FEFF 		bl	chMtxLock
 624              	.LVL46:
 625              		.loc 1 165 3 is_stmt 1 view .LVU184
 626              		.loc 1 165 17 is_stmt 0 view .LVU185
 627 000e 0F4B     		ldr	r3, .L64+4
ARM GAS  C:\Users\DEVELO~1\AppData\Local\Temp\ccBkajkH.s 			page 12


 628              		.loc 1 167 3 view .LVU186
 629 0010 0D48     		ldr	r0, .L64
 630              		.loc 1 165 17 view .LVU187
 631 0012 1E78     		ldrb	r6, [r3]	@ zero_extendqisi2
 632              	.LVL47:
 633              		.loc 1 166 3 is_stmt 1 view .LVU188
 634              		.loc 1 166 8 is_stmt 0 view .LVU189
 635 0014 9F78     		ldrb	r7, [r3, #2]	@ zero_extendqisi2
 636              	.LVL48:
 637              		.loc 1 167 3 is_stmt 1 view .LVU190
 638 0016 FFF7FEFF 		bl	chMtxUnlock
 639              	.LVL49:
 640              		.loc 1 169 3 view .LVU191
 641              		.loc 1 169 6 is_stmt 0 view .LVU192
 642 001a 042E     		cmp	r6, #4
 643 001c 08D0     		beq	.L55
 644 001e 3FB9     		cbnz	r7, .L55
 645              		.loc 1 174 3 is_stmt 1 view .LVU193
 646              		.loc 1 174 6 is_stmt 0 view .LVU194
 647 0020 032D     		cmp	r5, #3
 648 0022 05D0     		beq	.L55
 649              		.loc 1 179 3 is_stmt 1 view .LVU195
 650              		.loc 1 179 8 is_stmt 0 view .LVU196
 651 0024 2146     		mov	r1, r4
 652 0026 2846     		mov	r0, r5
 653 0028 FFF7FEFF 		bl	sdram_query_region_descriptor
 654              	.LVL50:
 655              		.loc 1 179 6 view .LVU197
 656 002c 00B1     		cbz	r0, .L55
 657              		.loc 1 185 1 view .LVU198
 658 002e F8BD     		pop	{r3, r4, r5, r6, r7, pc}
 659              	.LVL51:
 660              	.L55:
 661              		.loc 1 170 5 is_stmt 1 view .LVU199
 662              	.LBB20:
 663              	.LBI20:
 664              		.loc 1 23 13 view .LVU200
 665              	.LBB21:
 666              		.loc 1 24 3 view .LVU201
 667              		.loc 1 28 3 view .LVU202
 668              		.loc 1 29 14 is_stmt 0 view .LVU203
 669 0030 0023     		movs	r3, #0
 670              		.loc 1 28 12 view .LVU204
 671 0032 0422     		movs	r2, #4
 672              	.LBE21:
 673              	.LBE20:
 674              		.loc 1 171 12 view .LVU205
 675 0034 1846     		mov	r0, r3
 676              	.LBB23:
 677              	.LBB22:
 678              		.loc 1 28 12 view .LVU206
 679 0036 2270     		strb	r2, [r4]
 680              		.loc 1 29 3 is_stmt 1 view .LVU207
 681              		.loc 1 30 20 is_stmt 0 view .LVU208
 682 0038 C4E90133 		strd	r3, r3, [r4, #4]
 683              		.loc 1 31 3 is_stmt 1 view .LVU209
 684              		.loc 1 32 25 is_stmt 0 view .LVU210
ARM GAS  C:\Users\DEVELO~1\AppData\Local\Temp\ccBkajkH.s 			page 13


 685 003c C4E90333 		strd	r3, r3, [r4, #12]
 686              	.LVL52:
 687              		.loc 1 32 25 view .LVU211
 688              	.LBE22:
 689              	.LBE23:
 690              		.loc 1 171 5 is_stmt 1 view .LVU212
 691              		.loc 1 185 1 is_stmt 0 view .LVU213
 692 0040 F8BD     		pop	{r3, r4, r5, r6, r7, pc}
 693              	.LVL53:
 694              	.L56:
 695              		.loc 1 161 12 view .LVU214
 696 0042 0846     		mov	r0, r1
 697              	.LVL54:
 698              		.loc 1 185 1 view .LVU215
 699 0044 F8BD     		pop	{r3, r4, r5, r6, r7, pc}
 700              	.L65:
 701 0046 00BF     		.align	2
 702              	.L64:
 703 0048 00000000 		.word	.LANCHOR0
 704 004c 00000000 		.word	.LANCHOR1
 705              		.cfi_endproc
 706              	.LFE454:
 707              		.size	sdram_get_region, .-sdram_get_region
 708              		.global	sdram_ctx_mtx
 709              		.global	sdram_ctx
 710              		.section	.bss.sdram_ctx,"aw",%nobits
 711              		.align	2
 712              		.set	.LANCHOR1,. + 0
 713              		.type	sdram_ctx, %object
 714              		.size	sdram_ctx, 36
 715              	sdram_ctx:
 716 0000 00000000 		.space	36
 716      00000000 
 716      00000000 
 716      00000000 
 716      00000000 
 717              		.section	.data.sdram_ctx_mtx,"aw"
 718              		.align	2
 719              		.set	.LANCHOR0,. + 0
 720              		.type	sdram_ctx_mtx, %object
 721              		.size	sdram_ctx_mtx, 16
 722              	sdram_ctx_mtx:
 723 0000 00000000 		.word	sdram_ctx_mtx
 724 0004 00000000 		.word	sdram_ctx_mtx
 725 0008 00000000 		.word	0
 726 000c 00000000 		.word	0
 727              		.text
 728              	.Letext0:
 729              		.file 2 "c:\\chibistudio\\tools\\gnu tools arm embedded\\11.3 2022.08\\lib\\gcc\\arm-none-eabi\\11
 730              		.file 3 "c:\\chibistudio\\tools\\gnu tools arm embedded\\11.3 2022.08\\arm-none-eabi\\include\\mac
 731              		.file 4 "c:\\chibistudio\\tools\\gnu tools arm embedded\\11.3 2022.08\\arm-none-eabi\\include\\sys
 732              		.file 5 "./docs/ChibiOS/os/common/ports/ARM-common/include/chtypes.h"
 733              		.file 6 "./docs/ChibiOS/os/rt/include/chearly.h"
 734              		.file 7 "./docs/ChibiOS/os/rt/include/chobjects.h"
 735              		.file 8 "./docs/ChibiOS/os/rt/include/chrfcu.h"
 736              		.file 9 "./docs/ChibiOS/os/rt/include/chdebug.h"
 737              		.file 10 "./docs/ChibiOS/os/rt/include/chtime.h"
ARM GAS  C:\Users\DEVELO~1\AppData\Local\Temp\ccBkajkH.s 			page 14


 738              		.file 11 "./docs/ChibiOS/os/rt/include/chtrace.h"
 739              		.file 12 "./docs/ChibiOS/os/common/ports/ARMv7-M/chcore.h"
 740              		.file 13 "./docs/ChibiOS/os/rt/include/chlists.h"
 741              		.file 14 "./docs/ChibiOS/os/rt/include/chsem.h"
 742              		.file 15 "./docs/ChibiOS/os/rt/include/chmtx.h"
 743              		.file 16 "drivers/sdram/sdram_driver.h"
 744              		.file 17 "drivers/sdram/sdram_driver_priv.h"
 745              		.file 18 "<built-in>"