ARM GAS  C:\Users\DEVELO~1\AppData\Local\Temp\ccbkr0PB.s 			page 1


   1              		.cpu cortex-m7
   2              		.arch armv7e-m
   3              		.fpu fpv5-d16
   4              		.eabi_attribute 28, 1
   5              		.eabi_attribute 20, 1
   6              		.eabi_attribute 21, 1
   7              		.eabi_attribute 23, 3
   8              		.eabi_attribute 24, 1
   9              		.eabi_attribute 25, 1
  10              		.eabi_attribute 26, 1
  11              		.eabi_attribute 30, 2
  12              		.eabi_attribute 34, 1
  13              		.eabi_attribute 18, 4
  14              		.file	"stm32h7xx_hal_hcd.c"
  15              		.text
  16              	.Ltext0:
  17              		.cfi_sections	.debug_frame
  18              		.section	.text.HAL_HCD_HC_Init,"ax",%progbits
  19              		.align	1
  20              		.p2align 2,,3
  21              		.global	HAL_HCD_HC_Init
  22              		.syntax unified
  23              		.thumb
  24              		.thumb_func
  25              		.type	HAL_HCD_HC_Init, %function
  26              	HAL_HCD_HC_Init:
  27              	.LVL0:
  28              	.LFB142:
  29              		.file 1 "./drivers/stm32h7xx-hal-driver/Src/stm32h7xx_hal_hcd.c"
  30              		.loc 1 204 1 view -0
  31              		.cfi_startproc
  32              		@ args = 12, pretend = 0, frame = 0
  33              		@ frame_needed = 0, uses_anonymous_args = 0
  34              		.loc 1 205 3 view .LVU1
  35              		.loc 1 206 3 view .LVU2
  36              		.loc 1 207 3 view .LVU3
  37              		.loc 1 204 1 is_stmt 0 view .LVU4
  38 0000 2DE9F047 		push	{r4, r5, r6, r7, r8, r9, r10, lr}
  39              		.cfi_def_cfa_offset 32
  40              		.cfi_offset 4, -32
  41              		.cfi_offset 5, -28
  42              		.cfi_offset 6, -24
  43              		.cfi_offset 7, -20
  44              		.cfi_offset 8, -16
  45              		.cfi_offset 9, -12
  46              		.cfi_offset 10, -8
  47              		.cfi_offset 14, -4
  48 0004 9A46     		mov	r10, r3
  49              		.loc 1 209 3 view .LVU5
  50 0006 90F8D433 		ldrb	r3, [r0, #980]	@ zero_extendqisi2
  51              	.LVL1:
  52              		.loc 1 204 1 view .LVU6
  53 000a 84B0     		sub	sp, sp, #16
  54              		.cfi_def_cfa_offset 48
  55              		.loc 1 209 3 view .LVU7
  56 000c 012B     		cmp	r3, #1
  57              		.loc 1 204 1 view .LVU8
ARM GAS  C:\Users\DEVELO~1\AppData\Local\Temp\ccbkr0PB.s 			page 2


  58 000e 9DF83070 		ldrb	r7, [sp, #48]	@ zero_extendqisi2
  59 0012 9DF83460 		ldrb	r6, [sp, #52]	@ zero_extendqisi2
  60 0016 BDF83880 		ldrh	r8, [sp, #56]
  61              	.LVL2:
  62              		.loc 1 209 3 is_stmt 1 view .LVU9
  63              		.loc 1 209 3 view .LVU10
  64 001a 44D0     		beq	.L4
  65              		.loc 1 209 3 discriminator 2 view .LVU11
  66              		.loc 1 211 29 is_stmt 0 discriminator 2 view .LVU12
  67 001c C1EB011C 		rsb	ip, r1, r1, lsl #4
  68              		.loc 1 210 28 discriminator 2 view .LVU13
  69 0020 0023     		movs	r3, #0
  70 0022 9146     		mov	r9, r2
  71              		.loc 1 209 3 discriminator 2 view .LVU14
  72 0024 0122     		movs	r2, #1
  73              	.LVL3:
  74              		.loc 1 211 29 discriminator 2 view .LVU15
  75 0026 00EB8C0C 		add	ip, r0, ip, lsl #2
  76 002a 0446     		mov	r4, r0
  77              		.loc 1 209 3 discriminator 2 view .LVU16
  78 002c 80F8D423 		strb	r2, [r0, #980]
  79              		.loc 1 209 3 is_stmt 1 discriminator 2 view .LVU17
  80              		.loc 1 210 3 discriminator 2 view .LVU18
  81              		.loc 1 211 3 discriminator 2 view .LVU19
  82 0030 0D46     		mov	r5, r1
  83              		.loc 1 210 28 is_stmt 0 discriminator 2 view .LVU20
  84 0032 8CF81930 		strb	r3, [ip, #25]
  85              	.LBB4:
  86              	.LBB5:
  87              		.loc 1 1228 30 discriminator 2 view .LVU21
  88 0036 ACF81A30 		strh	r3, [ip, #26]	@ movhi
  89              		.loc 1 1231 33 discriminator 2 view .LVU22
  90 003a ACF82430 		strh	r3, [ip, #36]	@ movhi
  91              	.LBE5:
  92              	.LBE4:
  93              		.loc 1 214 35 discriminator 2 view .LVU23
  94 003e 09F07F03 		and	r3, r9, #127
  95              		.loc 1 212 27 discriminator 2 view .LVU24
  96 0042 8CF81510 		strb	r1, [ip, #21]
  97              		.loc 1 214 27 discriminator 2 view .LVU25
  98 0046 8CF81630 		strb	r3, [ip, #22]
  99              		.loc 1 218 6 discriminator 2 view .LVU26
 100 004a 4FEAD913 		lsr	r3, r9, #7
 101              		.loc 1 211 29 discriminator 2 view .LVU27
 102 004e 8CF814A0 		strb	r10, [ip, #20]
 103              		.loc 1 212 3 is_stmt 1 discriminator 2 view .LVU28
 104              		.loc 1 213 3 discriminator 2 view .LVU29
 105              		.loc 1 213 28 is_stmt 0 discriminator 2 view .LVU30
 106 0052 8CF82660 		strb	r6, [ip, #38]
 107              		.loc 1 214 3 is_stmt 1 discriminator 2 view .LVU31
 108              		.loc 1 216 3 discriminator 2 view .LVU32
 109              	.LVL4:
 110              	.LBB7:
 111              	.LBI4:
 112              		.loc 1 1226 19 discriminator 2 view .LVU33
 113              	.LBB6:
 114              		.loc 1 1228 3 discriminator 2 view .LVU34
ARM GAS  C:\Users\DEVELO~1\AppData\Local\Temp\ccbkr0PB.s 			page 3


 115              		.loc 1 1229 3 discriminator 2 view .LVU35
 116              		.loc 1 1230 3 discriminator 2 view .LVU36
 117              		.loc 1 1231 3 discriminator 2 view .LVU37
 118              		.loc 1 1233 3 discriminator 2 view .LVU38
 119              		.loc 1 1233 3 is_stmt 0 discriminator 2 view .LVU39
 120              	.LBE6:
 121              	.LBE7:
 122              		.loc 1 218 3 is_stmt 1 discriminator 2 view .LVU40
 123 0056 8CF81730 		strb	r3, [ip, #23]
 124              		.loc 1 227 3 discriminator 2 view .LVU41
 125              		.loc 1 227 19 is_stmt 0 discriminator 2 view .LVU42
 126 005a 0068     		ldr	r0, [r0]
 127              	.LVL5:
 128              		.loc 1 227 19 discriminator 2 view .LVU43
 129 005c FFF7FEFF 		bl	USB_GetHostSpeed
 130              	.LVL6:
 131              		.loc 1 229 3 is_stmt 1 discriminator 2 view .LVU44
 132              		.loc 1 229 6 is_stmt 0 discriminator 2 view .LVU45
 133 0060 012E     		cmp	r6, #1
 134              		.loc 1 211 29 discriminator 2 view .LVU46
 135 0062 4FEA0511 		lsl	r1, r5, #4
 136              		.loc 1 229 6 discriminator 2 view .LVU47
 137 0066 14D0     		beq	.L13
 138              	.LVL7:
 139              	.L3:
 140              		.loc 1 242 3 is_stmt 1 view .LVU48
 141              		.loc 1 242 26 is_stmt 0 view .LVU49
 142 0068 481B     		subs	r0, r1, r5
 143              	.LVL8:
 144              		.loc 1 245 13 view .LVU50
 145 006a 5346     		mov	r3, r10
 146 006c 4A46     		mov	r2, r9
 147 006e 2946     		mov	r1, r5
 148              		.loc 1 242 26 view .LVU51
 149 0070 04EB8000 		add	r0, r4, r0, lsl #2
 150 0074 0776     		strb	r7, [r0, #24]
 151              		.loc 1 243 3 is_stmt 1 view .LVU52
 152              		.loc 1 243 31 is_stmt 0 view .LVU53
 153 0076 A0F82880 		strh	r8, [r0, #40]	@ movhi
 154              		.loc 1 245 3 is_stmt 1 view .LVU54
 155              		.loc 1 245 13 is_stmt 0 view .LVU55
 156 007a 0097     		str	r7, [sp]
 157 007c CDE90168 		strd	r6, r8, [sp, #4]
 158 0080 2068     		ldr	r0, [r4]
 159 0082 FFF7FEFF 		bl	USB_HC_Init
 160              	.LVL9:
 161              		.loc 1 248 3 view .LVU56
 162 0086 0023     		movs	r3, #0
 163              	.LVL10:
 164              		.loc 1 248 3 is_stmt 1 view .LVU57
 165              		.loc 1 248 3 view .LVU58
 166 0088 84F8D433 		strb	r3, [r4, #980]
 167              		.loc 1 248 3 view .LVU59
 168              		.loc 1 250 3 view .LVU60
 169              		.loc 1 251 1 is_stmt 0 view .LVU61
 170 008c 04B0     		add	sp, sp, #16
 171              		.cfi_remember_state
ARM GAS  C:\Users\DEVELO~1\AppData\Local\Temp\ccbkr0PB.s 			page 4


 172              		.cfi_def_cfa_offset 32
 173              		@ sp needed
 174 008e BDE8F087 		pop	{r4, r5, r6, r7, r8, r9, r10, pc}
 175              	.LVL11:
 176              	.L13:
 177              		.cfi_restore_state
 178              		.loc 1 232 5 is_stmt 1 view .LVU62
 179              		.loc 1 232 8 is_stmt 0 view .LVU63
 180 0092 012F     		cmp	r7, #1
 181 0094 E8D1     		bne	.L3
 182 0096 0028     		cmp	r0, #0
 183 0098 E6D1     		bne	.L3
 184              		.loc 1 234 7 is_stmt 1 view .LVU64
 185              		.loc 1 243 33 is_stmt 0 view .LVU65
 186 009a B8F1BC0F 		cmp	r8, #188
 187 009e 28BF     		it	cs
 188 00a0 4FF0BC08 		movcs	r8, #188
 189              	.LVL12:
 190              		.loc 1 243 33 view .LVU66
 191 00a4 E0E7     		b	.L3
 192              	.LVL13:
 193              	.L4:
 194              		.loc 1 209 3 view .LVU67
 195 00a6 0220     		movs	r0, #2
 196              	.LVL14:
 197              		.loc 1 251 1 view .LVU68
 198 00a8 04B0     		add	sp, sp, #16
 199              		.cfi_def_cfa_offset 32
 200              		@ sp needed
 201 00aa BDE8F087 		pop	{r4, r5, r6, r7, r8, r9, r10, pc}
 202              		.loc 1 251 1 view .LVU69
 203              		.cfi_endproc
 204              	.LFE142:
 205              		.size	HAL_HCD_HC_Init, .-HAL_HCD_HC_Init
 206 00ae 00BF     		.section	.text.HAL_HCD_HC_Halt,"ax",%progbits
 207              		.align	1
 208              		.p2align 2,,3
 209              		.global	HAL_HCD_HC_Halt
 210              		.syntax unified
 211              		.thumb
 212              		.thumb_func
 213              		.type	HAL_HCD_HC_Halt, %function
 214              	HAL_HCD_HC_Halt:
 215              	.LVL15:
 216              	.LFB143:
 217              		.loc 1 261 1 is_stmt 1 view -0
 218              		.cfi_startproc
 219              		@ args = 0, pretend = 0, frame = 0
 220              		@ frame_needed = 0, uses_anonymous_args = 0
 221              		.loc 1 262 3 view .LVU71
 222              		.loc 1 264 3 view .LVU72
 223              		.loc 1 264 3 view .LVU73
 224 0000 90F8D433 		ldrb	r3, [r0, #980]	@ zero_extendqisi2
 225 0004 012B     		cmp	r3, #1
 226 0006 0CD0     		beq	.L16
 227              		.loc 1 264 3 discriminator 2 view .LVU74
 228 0008 0123     		movs	r3, #1
ARM GAS  C:\Users\DEVELO~1\AppData\Local\Temp\ccbkr0PB.s 			page 5


 229              		.loc 1 261 1 is_stmt 0 discriminator 2 view .LVU75
 230 000a 10B5     		push	{r4, lr}
 231              		.cfi_def_cfa_offset 8
 232              		.cfi_offset 4, -8
 233              		.cfi_offset 14, -4
 234 000c 0446     		mov	r4, r0
 235              		.loc 1 265 9 discriminator 2 view .LVU76
 236 000e 0068     		ldr	r0, [r0]
 237              	.LVL16:
 238              		.loc 1 264 3 discriminator 2 view .LVU77
 239 0010 84F8D433 		strb	r3, [r4, #980]
 240              		.loc 1 264 3 is_stmt 1 discriminator 2 view .LVU78
 241              		.loc 1 265 3 discriminator 2 view .LVU79
 242              		.loc 1 265 9 is_stmt 0 discriminator 2 view .LVU80
 243 0014 FFF7FEFF 		bl	USB_HC_Halt
 244              	.LVL17:
 245              		.loc 1 266 3 is_stmt 1 discriminator 2 view .LVU81
 246              		.loc 1 266 3 discriminator 2 view .LVU82
 247 0018 0023     		movs	r3, #0
 248              		.loc 1 268 10 is_stmt 0 discriminator 2 view .LVU83
 249 001a 1846     		mov	r0, r3
 250              		.loc 1 266 3 discriminator 2 view .LVU84
 251 001c 84F8D433 		strb	r3, [r4, #980]
 252              		.loc 1 266 3 is_stmt 1 discriminator 2 view .LVU85
 253              		.loc 1 268 3 discriminator 2 view .LVU86
 254              		.loc 1 269 1 is_stmt 0 discriminator 2 view .LVU87
 255 0020 10BD     		pop	{r4, pc}
 256              	.LVL18:
 257              	.L16:
 258              		.cfi_def_cfa_offset 0
 259              		.cfi_restore 4
 260              		.cfi_restore 14
 261              		.loc 1 264 3 view .LVU88
 262 0022 0220     		movs	r0, #2
 263              	.LVL19:
 264              		.loc 1 269 1 view .LVU89
 265 0024 7047     		bx	lr
 266              		.cfi_endproc
 267              	.LFE143:
 268              		.size	HAL_HCD_HC_Halt, .-HAL_HCD_HC_Halt
 269 0026 00BF     		.section	.text.HAL_HCD_MspInit,"ax",%progbits
 270              		.align	1
 271              		.p2align 2,,3
 272              		.weak	HAL_HCD_MspInit
 273              		.syntax unified
 274              		.thumb
 275              		.thumb_func
 276              		.type	HAL_HCD_MspInit, %function
 277              	HAL_HCD_MspInit:
 278              	.LVL20:
 279              	.LFB145:
 280              		.loc 1 312 1 is_stmt 1 view -0
 281              		.cfi_startproc
 282              		@ args = 0, pretend = 0, frame = 0
 283              		@ frame_needed = 0, uses_anonymous_args = 0
 284              		@ link register save eliminated.
 285              		.loc 1 314 3 view .LVU91
ARM GAS  C:\Users\DEVELO~1\AppData\Local\Temp\ccbkr0PB.s 			page 6


 286              		.loc 1 319 1 is_stmt 0 view .LVU92
 287 0000 7047     		bx	lr
 288              		.cfi_endproc
 289              	.LFE145:
 290              		.size	HAL_HCD_MspInit, .-HAL_HCD_MspInit
 291 0002 00BF     		.section	.text.HAL_HCD_Init,"ax",%progbits
 292              		.align	1
 293              		.p2align 2,,3
 294              		.global	HAL_HCD_Init
 295              		.syntax unified
 296              		.thumb
 297              		.thumb_func
 298              		.type	HAL_HCD_Init, %function
 299              	HAL_HCD_Init:
 300              	.LVL21:
 301              	.LFB141:
 302              		.loc 1 111 1 is_stmt 1 view -0
 303              		.cfi_startproc
 304              		@ args = 0, pretend = 0, frame = 0
 305              		@ frame_needed = 0, uses_anonymous_args = 0
 306              		.loc 1 113 3 view .LVU94
 307              		.loc 1 113 6 is_stmt 0 view .LVU95
 308 0000 0028     		cmp	r0, #0
 309 0002 43D0     		beq	.L28
 310              		.loc 1 119 3 is_stmt 1 view .LVU96
 311              		.loc 1 119 16 is_stmt 0 view .LVU97
 312 0004 0368     		ldr	r3, [r0]
 313 0006 224A     		ldr	r2, .L35
 314              		.loc 1 111 1 view .LVU98
 315 0008 30B5     		push	{r4, r5, lr}
 316              		.cfi_def_cfa_offset 12
 317              		.cfi_offset 4, -12
 318              		.cfi_offset 5, -8
 319              		.cfi_offset 14, -4
 320 000a 0446     		mov	r4, r0
 321              		.loc 1 119 16 view .LVU99
 322 000c 2148     		ldr	r0, .L35+4
 323              	.LVL22:
 324              		.loc 1 111 1 view .LVU100
 325 000e 83B0     		sub	sp, sp, #12
 326              		.cfi_def_cfa_offset 24
 327              		.loc 1 119 3 view .LVU101
 328 0010 9342     		cmp	r3, r2
 329 0012 18BF     		it	ne
 330 0014 8342     		cmpne	r3, r0
 331 0016 0CBF     		ite	eq
 332 0018 0120     		moveq	r0, #1
 333 001a 0020     		movne	r0, #0
 334 001c FFF7FEFF 		bl	assert_param
 335              	.LVL23:
 336              		.loc 1 121 3 is_stmt 1 view .LVU102
 337              		.loc 1 121 11 is_stmt 0 view .LVU103
 338 0020 94F8D533 		ldrb	r3, [r4, #981]	@ zero_extendqisi2
 339              		.loc 1 121 6 view .LVU104
 340 0024 03F0FF02 		and	r2, r3, #255
 341 0028 53B3     		cbz	r3, .L34
 342              	.L24:
ARM GAS  C:\Users\DEVELO~1\AppData\Local\Temp\ccbkr0PB.s 			page 7


 343              		.loc 1 147 3 is_stmt 1 view .LVU105
 344              		.loc 1 147 15 is_stmt 0 view .LVU106
 345 002a 0323     		movs	r3, #3
 346              		.loc 1 150 3 view .LVU107
 347 002c 2068     		ldr	r0, [r4]
 348              		.loc 1 153 7 view .LVU108
 349 002e 251D     		adds	r5, r4, #4
 350              		.loc 1 147 15 view .LVU109
 351 0030 84F8D533 		strb	r3, [r4, #981]
 352              		.loc 1 150 3 is_stmt 1 view .LVU110
 353 0034 FFF7FEFF 		bl	USB_DisableGlobalInt
 354              	.LVL24:
 355              		.loc 1 153 3 view .LVU111
 356              		.loc 1 153 7 is_stmt 0 view .LVU112
 357 0038 237C     		ldrb	r3, [r4, #16]	@ zero_extendqisi2
 358 003a 8DF80030 		strb	r3, [sp]
 359 003e 2068     		ldr	r0, [r4]
 360 0040 95E80E00 		ldm	r5, {r1, r2, r3}
 361 0044 FFF7FEFF 		bl	USB_CoreInit
 362              	.LVL25:
 363              		.loc 1 153 6 view .LVU113
 364 0048 28B1     		cbz	r0, .L25
 365              	.L33:
 366              		.loc 1 169 5 is_stmt 1 view .LVU114
 367              		.loc 1 169 17 is_stmt 0 view .LVU115
 368 004a 0223     		movs	r3, #2
 369              		.loc 1 170 12 view .LVU116
 370 004c 0120     		movs	r0, #1
 371              		.loc 1 169 17 view .LVU117
 372 004e 84F8D533 		strb	r3, [r4, #981]
 373              		.loc 1 170 5 is_stmt 1 view .LVU118
 374              		.loc 1 176 1 is_stmt 0 view .LVU119
 375 0052 03B0     		add	sp, sp, #12
 376              		.cfi_remember_state
 377              		.cfi_def_cfa_offset 12
 378              		@ sp needed
 379 0054 30BD     		pop	{r4, r5, pc}
 380              	.LVL26:
 381              	.L25:
 382              		.cfi_restore_state
 383              		.loc 1 160 3 is_stmt 1 view .LVU120
 384              		.loc 1 160 7 is_stmt 0 view .LVU121
 385 0056 0121     		movs	r1, #1
 386 0058 2068     		ldr	r0, [r4]
 387 005a FFF7FEFF 		bl	USB_SetCurrentMode
 388              	.LVL27:
 389              		.loc 1 160 6 view .LVU122
 390 005e 0028     		cmp	r0, #0
 391 0060 F3D1     		bne	.L33
 392              		.loc 1 167 3 is_stmt 1 view .LVU123
 393              		.loc 1 167 7 is_stmt 0 view .LVU124
 394 0062 207C     		ldrb	r0, [r4, #16]	@ zero_extendqisi2
 395 0064 95E80E00 		ldm	r5, {r1, r2, r3}
 396 0068 8DF80000 		strb	r0, [sp]
 397 006c 2068     		ldr	r0, [r4]
 398 006e FFF7FEFF 		bl	USB_HostInit
 399              	.LVL28:
ARM GAS  C:\Users\DEVELO~1\AppData\Local\Temp\ccbkr0PB.s 			page 8


 400              		.loc 1 167 6 view .LVU125
 401 0072 0028     		cmp	r0, #0
 402 0074 E9D1     		bne	.L33
 403              		.loc 1 173 3 is_stmt 1 view .LVU126
 404              		.loc 1 173 15 is_stmt 0 view .LVU127
 405 0076 0123     		movs	r3, #1
 406 0078 84F8D533 		strb	r3, [r4, #981]
 407              		.loc 1 175 3 is_stmt 1 view .LVU128
 408              		.loc 1 176 1 is_stmt 0 view .LVU129
 409 007c 03B0     		add	sp, sp, #12
 410              		.cfi_remember_state
 411              		.cfi_def_cfa_offset 12
 412              		@ sp needed
 413 007e 30BD     		pop	{r4, r5, pc}
 414              	.LVL29:
 415              	.L34:
 416              		.cfi_restore_state
 417              		.loc 1 124 5 is_stmt 1 view .LVU130
 418              		.loc 1 143 5 is_stmt 0 view .LVU131
 419 0080 2046     		mov	r0, r4
 420              		.loc 1 124 16 view .LVU132
 421 0082 84F8D423 		strb	r2, [r4, #980]
 422              		.loc 1 143 5 is_stmt 1 view .LVU133
 423 0086 FFF7FEFF 		bl	HAL_HCD_MspInit
 424              	.LVL30:
 425 008a CEE7     		b	.L24
 426              	.LVL31:
 427              	.L28:
 428              		.cfi_def_cfa_offset 0
 429              		.cfi_restore 4
 430              		.cfi_restore 5
 431              		.cfi_restore 14
 432              		.loc 1 115 12 is_stmt 0 view .LVU134
 433 008c 0120     		movs	r0, #1
 434              	.LVL32:
 435              		.loc 1 176 1 view .LVU135
 436 008e 7047     		bx	lr
 437              	.L36:
 438              		.align	2
 439              	.L35:
 440 0090 00000440 		.word	1074003968
 441 0094 00000840 		.word	1074266112
 442              		.cfi_endproc
 443              	.LFE141:
 444              		.size	HAL_HCD_Init, .-HAL_HCD_Init
 445              		.section	.text.HAL_HCD_MspDeInit,"ax",%progbits
 446              		.align	1
 447              		.p2align 2,,3
 448              		.weak	HAL_HCD_MspDeInit
 449              		.syntax unified
 450              		.thumb
 451              		.thumb_func
 452              		.type	HAL_HCD_MspDeInit, %function
 453              	HAL_HCD_MspDeInit:
 454              	.LFB171:
 455              		.cfi_startproc
 456              		@ args = 0, pretend = 0, frame = 0
ARM GAS  C:\Users\DEVELO~1\AppData\Local\Temp\ccbkr0PB.s 			page 9


 457              		@ frame_needed = 0, uses_anonymous_args = 0
 458              		@ link register save eliminated.
 459 0000 7047     		bx	lr
 460              		.cfi_endproc
 461              	.LFE171:
 462              		.size	HAL_HCD_MspDeInit, .-HAL_HCD_MspDeInit
 463 0002 00BF     		.section	.text.HAL_HCD_DeInit,"ax",%progbits
 464              		.align	1
 465              		.p2align 2,,3
 466              		.global	HAL_HCD_DeInit
 467              		.syntax unified
 468              		.thumb
 469              		.thumb_func
 470              		.type	HAL_HCD_DeInit, %function
 471              	HAL_HCD_DeInit:
 472              	.LVL33:
 473              	.LFB144:
 474              		.loc 1 277 1 is_stmt 1 view -0
 475              		.cfi_startproc
 476              		@ args = 0, pretend = 0, frame = 0
 477              		@ frame_needed = 0, uses_anonymous_args = 0
 478              		.loc 1 279 3 view .LVU137
 479              		.loc 1 279 6 is_stmt 0 view .LVU138
 480 0000 70B1     		cbz	r0, .L40
 481              		.loc 1 284 3 is_stmt 1 view .LVU139
 482              		.loc 1 284 15 is_stmt 0 view .LVU140
 483 0002 0323     		movs	r3, #3
 484              		.loc 1 277 1 view .LVU141
 485 0004 10B5     		push	{r4, lr}
 486              		.cfi_def_cfa_offset 8
 487              		.cfi_offset 4, -8
 488              		.cfi_offset 14, -4
 489 0006 0446     		mov	r4, r0
 490              		.loc 1 284 15 view .LVU142
 491 0008 80F8D533 		strb	r3, [r0, #981]
 492              		.loc 1 296 3 is_stmt 1 view .LVU143
 493 000c FFF7FEFF 		bl	HAL_HCD_MspDeInit
 494              	.LVL34:
 495              		.loc 1 299 3 view .LVU144
 496 0010 2068     		ldr	r0, [r4]
 497 0012 FFF7FEFF 		bl	USB_DisableGlobalInt
 498              	.LVL35:
 499              		.loc 1 301 3 view .LVU145
 500              		.loc 1 301 15 is_stmt 0 view .LVU146
 501 0016 0023     		movs	r3, #0
 502              		.loc 1 303 10 view .LVU147
 503 0018 1846     		mov	r0, r3
 504              		.loc 1 301 15 view .LVU148
 505 001a 84F8D533 		strb	r3, [r4, #981]
 506              		.loc 1 303 3 is_stmt 1 view .LVU149
 507              		.loc 1 304 1 is_stmt 0 view .LVU150
 508 001e 10BD     		pop	{r4, pc}
 509              	.LVL36:
 510              	.L40:
 511              		.cfi_def_cfa_offset 0
 512              		.cfi_restore 4
 513              		.cfi_restore 14
ARM GAS  C:\Users\DEVELO~1\AppData\Local\Temp\ccbkr0PB.s 			page 10


 514              		.loc 1 281 12 view .LVU151
 515 0020 0120     		movs	r0, #1
 516              	.LVL37:
 517              		.loc 1 304 1 view .LVU152
 518 0022 7047     		bx	lr
 519              		.cfi_endproc
 520              	.LFE144:
 521              		.size	HAL_HCD_DeInit, .-HAL_HCD_DeInit
 522              		.section	.text.HAL_HCD_HC_SubmitRequest,"ax",%progbits
 523              		.align	1
 524              		.p2align 2,,3
 525              		.global	HAL_HCD_HC_SubmitRequest
 526              		.syntax unified
 527              		.thumb
 528              		.thumb_func
 529              		.type	HAL_HCD_HC_SubmitRequest, %function
 530              	HAL_HCD_HC_SubmitRequest:
 531              	.LVL38:
 532              	.LFB147:
 533              		.loc 1 386 1 is_stmt 1 view -0
 534              		.cfi_startproc
 535              		@ args = 16, pretend = 0, frame = 0
 536              		@ frame_needed = 0, uses_anonymous_args = 0
 537              		.loc 1 387 3 view .LVU154
 538              		.loc 1 386 1 is_stmt 0 view .LVU155
 539 0000 F0B5     		push	{r4, r5, r6, r7, lr}
 540              		.cfi_def_cfa_offset 20
 541              		.cfi_offset 4, -20
 542              		.cfi_offset 5, -16
 543              		.cfi_offset 6, -12
 544              		.cfi_offset 7, -8
 545              		.cfi_offset 14, -4
 546              		.loc 1 387 29 view .LVU156
 547 0002 C1EB011E 		rsb	lr, r1, r1, lsl #4
 548              		.loc 1 386 1 view .LVU157
 549 0006 9DF81440 		ldrb	r4, [sp, #20]	@ zero_extendqisi2
 550 000a 069E     		ldr	r6, [sp, #24]
 551              		.loc 1 387 29 view .LVU158
 552 000c 4FEA011C 		lsl	ip, r1, #4
 553 0010 00EB8E0E 		add	lr, r0, lr, lsl #2
 554              		.loc 1 386 1 view .LVU159
 555 0014 BDF81C50 		ldrh	r5, [sp, #28]
 556 0018 9DF82070 		ldrb	r7, [sp, #32]	@ zero_extendqisi2
 557              		.loc 1 387 29 view .LVU160
 558 001c 8EF81720 		strb	r2, [lr, #23]
 559              		.loc 1 388 3 is_stmt 1 view .LVU161
 560              		.loc 1 388 29 is_stmt 0 view .LVU162
 561 0020 8EF82630 		strb	r3, [lr, #38]
 562              		.loc 1 390 3 is_stmt 1 view .LVU163
 563              		.loc 1 390 6 is_stmt 0 view .LVU164
 564 0024 FCB9     		cbnz	r4, .L46
 565              		.loc 1 392 5 is_stmt 1 view .LVU165
 566              		.loc 1 392 31 is_stmt 0 view .LVU166
 567 0026 0324     		movs	r4, #3
 568              		.loc 1 401 3 view .LVU167
 569 0028 022B     		cmp	r3, #2
 570              		.loc 1 393 30 view .LVU168
ARM GAS  C:\Users\DEVELO~1\AppData\Local\Temp\ccbkr0PB.s 			page 11


 571 002a 8EF81970 		strb	r7, [lr, #25]
 572              		.loc 1 392 31 view .LVU169
 573 002e 8EF82A40 		strb	r4, [lr, #42]
 574              		.loc 1 393 5 is_stmt 1 view .LVU170
 575              		.loc 1 401 3 view .LVU171
 576 0032 21D0     		beq	.L48
 577 0034 A342     		cmp	r3, r4
 578 0036 1FD0     		beq	.L48
 579 0038 012B     		cmp	r3, #1
 580 003a 29D0     		beq	.L49
 581              	.LVL39:
 582              	.L51:
 583              		.loc 1 507 3 view .LVU172
 584              		.loc 1 507 30 is_stmt 0 view .LVU173
 585 003c ACEB0103 		sub	r3, ip, r1
 586              		.loc 1 514 43 view .LVU174
 587 0040 3C24     		movs	r4, #60
 588              		.loc 1 510 31 view .LVU175
 589 0042 0022     		movs	r2, #0
 590              		.loc 1 507 30 view .LVU176
 591 0044 00EB8303 		add	r3, r0, r3, lsl #2
 592              		.loc 1 511 27 view .LVU177
 593 0048 5975     		strb	r1, [r3, #21]
 594              		.loc 1 514 43 view .LVU178
 595 004a 04FB0101 		mla	r1, r4, r1, r0
 596              	.LVL40:
 597              		.loc 1 509 30 view .LVU179
 598 004e A3F84C20 		strh	r2, [r3, #76]	@ movhi
 599              		.loc 1 507 30 view .LVU180
 600 0052 DE62     		str	r6, [r3, #44]
 601              		.loc 1 508 3 is_stmt 1 view .LVU181
 602              		.loc 1 514 10 is_stmt 0 view .LVU182
 603 0054 1431     		adds	r1, r1, #20
 604              		.loc 1 508 30 view .LVU183
 605 0056 C3E90D52 		strd	r5, r2, [r3, #52]
 606              		.loc 1 509 3 is_stmt 1 view .LVU184
 607              		.loc 1 510 3 view .LVU185
 608              		.loc 1 511 3 view .LVU186
 609              		.loc 1 512 3 view .LVU187
 610              		.loc 1 514 3 view .LVU188
 611              		.loc 1 515 1 is_stmt 0 view .LVU189
 612 005a BDE8F040 		pop	{r4, r5, r6, r7, lr}
 613              		.cfi_remember_state
 614              		.cfi_restore 14
 615              		.cfi_restore 7
 616              		.cfi_restore 6
 617              		.cfi_restore 5
 618              		.cfi_restore 4
 619              		.cfi_def_cfa_offset 0
 620              	.LVL41:
 621              		.loc 1 514 10 view .LVU190
 622 005e 8279     		ldrb	r2, [r0, #6]	@ zero_extendqisi2
 623 0060 0068     		ldr	r0, [r0]
 624              	.LVL42:
 625              		.loc 1 514 10 view .LVU191
 626 0062 FFF7FEBF 		b	USB_HC_StartXfer
 627              	.LVL43:
ARM GAS  C:\Users\DEVELO~1\AppData\Local\Temp\ccbkr0PB.s 			page 12


 628              	.L46:
 629              		.cfi_restore_state
 630              		.loc 1 397 5 is_stmt 1 view .LVU192
 631              		.loc 1 397 31 is_stmt 0 view .LVU193
 632 0066 0227     		movs	r7, #2
 633 0068 8EF82A70 		strb	r7, [lr, #42]
 634              		.loc 1 401 3 is_stmt 1 view .LVU194
 635 006c 032B     		cmp	r3, #3
 636 006e E5D8     		bhi	.L51
 637 0070 DFE803F0 		tbb	[pc, r3]
 638              	.L52:
 639 0074 1E       		.byte	(.L53-.L52)/2
 640 0075 0E       		.byte	(.L49-.L52)/2
 641 0076 02       		.byte	(.L48-.L52)/2
 642 0077 02       		.byte	(.L48-.L52)/2
 643              		.p2align 1
 644              	.L48:
 645              		.loc 1 472 7 view .LVU195
 646              		.loc 1 475 29 is_stmt 0 view .LVU196
 647 0078 ACEB0103 		sub	r3, ip, r1
 648              	.LVL44:
 649              		.loc 1 475 29 view .LVU197
 650 007c 00EB8303 		add	r3, r0, r3, lsl #2
 651              		.loc 1 472 10 view .LVU198
 652 0080 72B9     		cbnz	r2, .L60
 653              		.loc 1 475 9 is_stmt 1 view .LVU199
 654              		.loc 1 475 12 is_stmt 0 view .LVU200
 655 0082 93F83D40 		ldrb	r4, [r3, #61]	@ zero_extendqisi2
 656 0086 44B1     		cbz	r4, .L77
 657              		.loc 1 494 11 is_stmt 1 view .LVU201
 658              		.loc 1 494 37 is_stmt 0 view .LVU202
 659 0088 0222     		movs	r2, #2
 660              	.LVL45:
 661              		.loc 1 494 37 view .LVU203
 662 008a 83F82A20 		strb	r2, [r3, #42]
 663              	.LVL46:
 664              		.loc 1 494 37 view .LVU204
 665 008e D5E7     		b	.L51
 666              	.LVL47:
 667              	.L49:
 668              		.loc 1 500 7 is_stmt 1 view .LVU205
 669              		.loc 1 500 33 is_stmt 0 view .LVU206
 670 0090 ACEB0103 		sub	r3, ip, r1
 671              	.LVL48:
 672              		.loc 1 500 33 view .LVU207
 673 0094 0022     		movs	r2, #0
 674              	.LVL49:
 675              		.loc 1 500 33 view .LVU208
 676 0096 00EB8303 		add	r3, r0, r3, lsl #2
 677              	.L77:
 678              		.loc 1 500 33 view .LVU209
 679 009a 83F82A20 		strb	r2, [r3, #42]
 680              	.LVL50:
 681              		.loc 1 501 7 is_stmt 1 view .LVU210
 682 009e CDE7     		b	.L51
 683              	.LVL51:
 684              	.L60:
ARM GAS  C:\Users\DEVELO~1\AppData\Local\Temp\ccbkr0PB.s 			page 13


 685              		.loc 1 488 9 view .LVU211
 686              		.loc 1 488 12 is_stmt 0 view .LVU212
 687 00a0 93F83C20 		ldrb	r2, [r3, #60]	@ zero_extendqisi2
 688              	.LVL52:
 689              		.loc 1 488 12 view .LVU213
 690 00a4 002A     		cmp	r2, #0
 691 00a6 F8D0     		beq	.L77
 692              		.loc 1 494 11 is_stmt 1 view .LVU214
 693              		.loc 1 494 37 is_stmt 0 view .LVU215
 694 00a8 0222     		movs	r2, #2
 695 00aa 83F82A20 		strb	r2, [r3, #42]
 696              	.LVL53:
 697              		.loc 1 494 37 view .LVU216
 698 00ae C5E7     		b	.L51
 699              	.LVL54:
 700              	.L53:
 701              		.loc 1 404 7 is_stmt 1 view .LVU217
 702              		.loc 1 404 10 is_stmt 0 view .LVU218
 703 00b0 012C     		cmp	r4, #1
 704 00b2 C3D1     		bne	.L51
 705              		.loc 1 406 9 is_stmt 1 view .LVU219
 706              		.loc 1 411 41 is_stmt 0 view .LVU220
 707 00b4 ACEB0103 		sub	r3, ip, r1
 708              	.LVL55:
 709              		.loc 1 411 41 view .LVU221
 710 00b8 00EB8303 		add	r3, r0, r3, lsl #2
 711              		.loc 1 406 12 view .LVU222
 712 00bc 1AB9     		cbnz	r2, .L55
 713              		.loc 1 408 11 is_stmt 1 view .LVU223
 714              		.loc 1 408 14 is_stmt 0 view .LVU224
 715 00be 55B9     		cbnz	r5, .L56
 716              		.loc 1 411 13 is_stmt 1 view .LVU225
 717              		.loc 1 411 41 is_stmt 0 view .LVU226
 718 00c0 83F83D40 		strb	r4, [r3, #61]
 719              	.LVL56:
 720              		.loc 1 415 11 is_stmt 1 view .LVU227
 721 00c4 BAE7     		b	.L51
 722              	.LVL57:
 723              	.L55:
 724              		.loc 1 428 11 view .LVU228
 725              		.loc 1 428 14 is_stmt 0 view .LVU229
 726 00c6 9A7E     		ldrb	r2, [r3, #26]	@ zero_extendqisi2
 727              	.LVL58:
 728              		.loc 1 428 14 view .LVU230
 729 00c8 012A     		cmp	r2, #1
 730 00ca B7D1     		bne	.L51
 731              		.loc 1 430 13 is_stmt 1 view .LVU231
 732              		.loc 1 430 16 is_stmt 0 view .LVU232
 733 00cc 93F83C20 		ldrb	r2, [r3, #60]	@ zero_extendqisi2
 734 00d0 002A     		cmp	r2, #0
 735 00d2 B3D1     		bne	.L51
 736 00d4 E1E7     		b	.L77
 737              	.LVL59:
 738              	.L56:
 739              		.loc 1 415 11 is_stmt 1 view .LVU233
 740              		.loc 1 415 14 is_stmt 0 view .LVU234
 741 00d6 93F83D40 		ldrb	r4, [r3, #61]	@ zero_extendqisi2
ARM GAS  C:\Users\DEVELO~1\AppData\Local\Temp\ccbkr0PB.s 			page 14


 742 00da 002C     		cmp	r4, #0
 743 00dc DDD0     		beq	.L77
 744 00de ADE7     		b	.L51
 745              		.cfi_endproc
 746              	.LFE147:
 747              		.size	HAL_HCD_HC_SubmitRequest, .-HAL_HCD_HC_SubmitRequest
 748              		.section	.text.HAL_HCD_SOF_Callback,"ax",%progbits
 749              		.align	1
 750              		.p2align 2,,3
 751              		.weak	HAL_HCD_SOF_Callback
 752              		.syntax unified
 753              		.thumb
 754              		.thumb_func
 755              		.type	HAL_HCD_SOF_Callback, %function
 756              	HAL_HCD_SOF_Callback:
 757              	.LFB173:
 758              		.cfi_startproc
 759              		@ args = 0, pretend = 0, frame = 0
 760              		@ frame_needed = 0, uses_anonymous_args = 0
 761              		@ link register save eliminated.
 762 0000 7047     		bx	lr
 763              		.cfi_endproc
 764              	.LFE173:
 765              		.size	HAL_HCD_SOF_Callback, .-HAL_HCD_SOF_Callback
 766 0002 00BF     		.section	.text.HAL_HCD_Connect_Callback,"ax",%progbits
 767              		.align	1
 768              		.p2align 2,,3
 769              		.weak	HAL_HCD_Connect_Callback
 770              		.syntax unified
 771              		.thumb
 772              		.thumb_func
 773              		.type	HAL_HCD_Connect_Callback, %function
 774              	HAL_HCD_Connect_Callback:
 775              	.LFB175:
 776              		.cfi_startproc
 777              		@ args = 0, pretend = 0, frame = 0
 778              		@ frame_needed = 0, uses_anonymous_args = 0
 779              		@ link register save eliminated.
 780 0000 7047     		bx	lr
 781              		.cfi_endproc
 782              	.LFE175:
 783              		.size	HAL_HCD_Connect_Callback, .-HAL_HCD_Connect_Callback
 784 0002 00BF     		.section	.text.HAL_HCD_Disconnect_Callback,"ax",%progbits
 785              		.align	1
 786              		.p2align 2,,3
 787              		.weak	HAL_HCD_Disconnect_Callback
 788              		.syntax unified
 789              		.thumb
 790              		.thumb_func
 791              		.type	HAL_HCD_Disconnect_Callback, %function
 792              	HAL_HCD_Disconnect_Callback:
 793              	.LFB177:
 794              		.cfi_startproc
 795              		@ args = 0, pretend = 0, frame = 0
 796              		@ frame_needed = 0, uses_anonymous_args = 0
 797              		@ link register save eliminated.
 798 0000 7047     		bx	lr
ARM GAS  C:\Users\DEVELO~1\AppData\Local\Temp\ccbkr0PB.s 			page 15


 799              		.cfi_endproc
 800              	.LFE177:
 801              		.size	HAL_HCD_Disconnect_Callback, .-HAL_HCD_Disconnect_Callback
 802 0002 00BF     		.section	.text.HAL_HCD_PortEnabled_Callback,"ax",%progbits
 803              		.align	1
 804              		.p2align 2,,3
 805              		.weak	HAL_HCD_PortEnabled_Callback
 806              		.syntax unified
 807              		.thumb
 808              		.thumb_func
 809              		.type	HAL_HCD_PortEnabled_Callback, %function
 810              	HAL_HCD_PortEnabled_Callback:
 811              	.LFB179:
 812              		.cfi_startproc
 813              		@ args = 0, pretend = 0, frame = 0
 814              		@ frame_needed = 0, uses_anonymous_args = 0
 815              		@ link register save eliminated.
 816 0000 7047     		bx	lr
 817              		.cfi_endproc
 818              	.LFE179:
 819              		.size	HAL_HCD_PortEnabled_Callback, .-HAL_HCD_PortEnabled_Callback
 820 0002 00BF     		.section	.text.HAL_HCD_PortDisabled_Callback,"ax",%progbits
 821              		.align	1
 822              		.p2align 2,,3
 823              		.weak	HAL_HCD_PortDisabled_Callback
 824              		.syntax unified
 825              		.thumb
 826              		.thumb_func
 827              		.type	HAL_HCD_PortDisabled_Callback, %function
 828              	HAL_HCD_PortDisabled_Callback:
 829              	.LFB181:
 830              		.cfi_startproc
 831              		@ args = 0, pretend = 0, frame = 0
 832              		@ frame_needed = 0, uses_anonymous_args = 0
 833              		@ link register save eliminated.
 834 0000 7047     		bx	lr
 835              		.cfi_endproc
 836              	.LFE181:
 837              		.size	HAL_HCD_PortDisabled_Callback, .-HAL_HCD_PortDisabled_Callback
 838 0002 00BF     		.section	.text.HAL_HCD_HC_NotifyURBChange_Callback,"ax",%progbits
 839              		.align	1
 840              		.p2align 2,,3
 841              		.weak	HAL_HCD_HC_NotifyURBChange_Callback
 842              		.syntax unified
 843              		.thumb
 844              		.thumb_func
 845              		.type	HAL_HCD_HC_NotifyURBChange_Callback, %function
 846              	HAL_HCD_HC_NotifyURBChange_Callback:
 847              	.LVL60:
 848              	.LFB154:
 849              		.loc 1 731 1 is_stmt 1 view -0
 850              		.cfi_startproc
 851              		@ args = 0, pretend = 0, frame = 0
 852              		@ frame_needed = 0, uses_anonymous_args = 0
 853              		@ link register save eliminated.
 854              		.loc 1 733 3 view .LVU236
 855              		.loc 1 734 3 view .LVU237
ARM GAS  C:\Users\DEVELO~1\AppData\Local\Temp\ccbkr0PB.s 			page 16


 856              		.loc 1 735 3 view .LVU238
 857              		.loc 1 740 1 is_stmt 0 view .LVU239
 858 0000 7047     		bx	lr
 859              		.cfi_endproc
 860              	.LFE154:
 861              		.size	HAL_HCD_HC_NotifyURBChange_Callback, .-HAL_HCD_HC_NotifyURBChange_Callback
 862 0002 00BF     		.section	.text.HAL_HCD_IRQHandler,"ax",%progbits
 863              		.align	1
 864              		.p2align 2,,3
 865              		.global	HAL_HCD_IRQHandler
 866              		.syntax unified
 867              		.thumb
 868              		.thumb_func
 869              		.type	HAL_HCD_IRQHandler, %function
 870              	HAL_HCD_IRQHandler:
 871              	.LVL61:
 872              	.LFB148:
 873              		.loc 1 523 1 is_stmt 1 view -0
 874              		.cfi_startproc
 875              		@ args = 0, pretend = 0, frame = 16
 876              		@ frame_needed = 0, uses_anonymous_args = 0
 877              		.loc 1 524 3 view .LVU241
 878              		.loc 1 523 1 is_stmt 0 view .LVU242
 879 0000 2DE9F04F 		push	{r4, r5, r6, r7, r8, r9, r10, fp, lr}
 880              		.cfi_def_cfa_offset 36
 881              		.cfi_offset 4, -36
 882              		.cfi_offset 5, -32
 883              		.cfi_offset 6, -28
 884              		.cfi_offset 7, -24
 885              		.cfi_offset 8, -20
 886              		.cfi_offset 9, -16
 887              		.cfi_offset 10, -12
 888              		.cfi_offset 11, -8
 889              		.cfi_offset 14, -4
 890              		.loc 1 524 26 view .LVU243
 891 0004 0568     		ldr	r5, [r0]
 892              	.LVL62:
 893              		.loc 1 525 3 is_stmt 1 view .LVU244
 894              		.loc 1 526 3 view .LVU245
 895              		.loc 1 527 3 view .LVU246
 896              		.loc 1 530 3 view .LVU247
 897              		.loc 1 523 1 is_stmt 0 view .LVU248
 898 0006 85B0     		sub	sp, sp, #20
 899              		.cfi_def_cfa_offset 56
 900              		.loc 1 523 1 view .LVU249
 901 0008 0446     		mov	r4, r0
 902              		.loc 1 530 7 view .LVU250
 903 000a 2846     		mov	r0, r5
 904              	.LVL63:
 905              		.loc 1 530 7 view .LVU251
 906 000c FFF7FEFF 		bl	USB_GetMode
 907              	.LVL64:
 908              		.loc 1 530 6 view .LVU252
 909 0010 0128     		cmp	r0, #1
 910 0012 02D0     		beq	.L283
 911              	.LVL65:
 912              	.L89:
ARM GAS  C:\Users\DEVELO~1\AppData\Local\Temp\ccbkr0PB.s 			page 17


 913              		.loc 1 637 1 view .LVU253
 914 0014 05B0     		add	sp, sp, #20
 915              		.cfi_remember_state
 916              		.cfi_def_cfa_offset 36
 917              		@ sp needed
 918 0016 BDE8F08F 		pop	{r4, r5, r6, r7, r8, r9, r10, fp, pc}
 919              	.LVL66:
 920              	.L283:
 921              		.cfi_restore_state
 922              		.loc 1 533 5 is_stmt 1 view .LVU254
 923              		.loc 1 533 9 is_stmt 0 view .LVU255
 924 001a 2068     		ldr	r0, [r4]
 925 001c FFF7FEFF 		bl	USB_ReadInterrupts
 926              	.LVL67:
 927              		.loc 1 533 8 view .LVU256
 928 0020 0028     		cmp	r0, #0
 929 0022 F7D0     		beq	.L89
 930              		.loc 1 538 5 is_stmt 1 view .LVU257
 931              		.loc 1 538 9 is_stmt 0 view .LVU258
 932 0024 2068     		ldr	r0, [r4]
 933 0026 FFF7FEFF 		bl	USB_ReadInterrupts
 934              	.LVL68:
 935              		.loc 1 538 8 view .LVU259
 936 002a 10F4001F 		tst	r0, #2097152
 937              		.loc 1 541 7 view .LVU260
 938 002e 2068     		ldr	r0, [r4]
 939              		.loc 1 538 8 view .LVU261
 940 0030 02D0     		beq	.L94
 941              		.loc 1 541 7 is_stmt 1 view .LVU262
 942 0032 4FF40013 		mov	r3, #2097152
 943 0036 4361     		str	r3, [r0, #20]
 944              	.L94:
 945              		.loc 1 544 5 view .LVU263
 946              		.loc 1 544 9 is_stmt 0 view .LVU264
 947 0038 FFF7FEFF 		bl	USB_ReadInterrupts
 948              	.LVL69:
 949              		.loc 1 544 8 view .LVU265
 950 003c 10F4801F 		tst	r0, #1048576
 951              		.loc 1 547 7 view .LVU266
 952 0040 2068     		ldr	r0, [r4]
 953              		.loc 1 544 8 view .LVU267
 954 0042 02D0     		beq	.L96
 955              		.loc 1 547 7 is_stmt 1 view .LVU268
 956 0044 4FF48013 		mov	r3, #1048576
 957 0048 4361     		str	r3, [r0, #20]
 958              	.L96:
 959              		.loc 1 550 5 view .LVU269
 960              		.loc 1 550 9 is_stmt 0 view .LVU270
 961 004a FFF7FEFF 		bl	USB_ReadInterrupts
 962              	.LVL70:
 963              		.loc 1 550 8 view .LVU271
 964 004e 10F0806F 		tst	r0, #67108864
 965              		.loc 1 553 7 view .LVU272
 966 0052 2068     		ldr	r0, [r4]
 967              		.loc 1 550 8 view .LVU273
 968 0054 02D0     		beq	.L98
 969              		.loc 1 553 7 is_stmt 1 view .LVU274
ARM GAS  C:\Users\DEVELO~1\AppData\Local\Temp\ccbkr0PB.s 			page 18


 970 0056 4FF08063 		mov	r3, #67108864
 971 005a 4361     		str	r3, [r0, #20]
 972              	.L98:
 973              		.loc 1 556 5 view .LVU275
 974              		.loc 1 556 9 is_stmt 0 view .LVU276
 975 005c FFF7FEFF 		bl	USB_ReadInterrupts
 976              	.LVL71:
 977              		.loc 1 556 8 view .LVU277
 978 0060 10F0020F 		tst	r0, #2
 979              		.loc 1 559 7 view .LVU278
 980 0064 2068     		ldr	r0, [r4]
 981              		.loc 1 556 8 view .LVU279
 982 0066 01D0     		beq	.L100
 983              		.loc 1 559 7 is_stmt 1 view .LVU280
 984 0068 0223     		movs	r3, #2
 985 006a 4361     		str	r3, [r0, #20]
 986              	.L100:
 987              		.loc 1 563 5 view .LVU281
 988              		.loc 1 563 9 is_stmt 0 view .LVU282
 989 006c FFF7FEFF 		bl	USB_ReadInterrupts
 990              	.LVL72:
 991              		.loc 1 563 8 view .LVU283
 992 0070 10F0005F 		tst	r0, #536870912
 993              		.loc 1 565 7 view .LVU284
 994 0074 2068     		ldr	r0, [r4]
 995              		.loc 1 563 8 view .LVU285
 996 0076 29D1     		bne	.L101
 997              	.L102:
 998              		.loc 1 589 5 is_stmt 1 view .LVU286
 999              		.loc 1 589 9 is_stmt 0 view .LVU287
 1000 0078 FFF7FEFF 		bl	USB_ReadInterrupts
 1001              	.LVL73:
 1002              		.loc 1 589 8 view .LVU288
 1003 007c C001     		lsls	r0, r0, #7
 1004 007e 00F11E81 		bmi	.L284
 1005              	.L104:
 1006              		.loc 1 595 5 is_stmt 1 view .LVU289
 1007              		.loc 1 595 9 is_stmt 0 view .LVU290
 1008 0082 2068     		ldr	r0, [r4]
 1009 0084 FFF7FEFF 		bl	USB_ReadInterrupts
 1010              	.LVL74:
 1011              		.loc 1 595 8 view .LVU291
 1012 0088 0107     		lsls	r1, r0, #28
 1013 008a 00F11181 		bmi	.L113
 1014              		.loc 1 607 9 view .LVU292
 1015 008e 2068     		ldr	r0, [r4]
 1016              	.L114:
 1017              		.loc 1 607 5 is_stmt 1 view .LVU293
 1018              		.loc 1 607 9 is_stmt 0 view .LVU294
 1019 0090 FFF7FEFF 		bl	USB_ReadInterrupts
 1020              	.LVL75:
 1021              		.loc 1 607 8 view .LVU295
 1022 0094 10F0007F 		tst	r0, #33554432
 1023              		.loc 1 609 19 view .LVU296
 1024 0098 2068     		ldr	r0, [r4]
 1025              		.loc 1 607 8 view .LVU297
 1026 009a 2ED1     		bne	.L115
ARM GAS  C:\Users\DEVELO~1\AppData\Local\Temp\ccbkr0PB.s 			page 19


 1027              	.LVL76:
 1028              	.L116:
 1029              		.loc 1 628 5 is_stmt 1 view .LVU298
 1030              		.loc 1 628 10 is_stmt 0 view .LVU299
 1031 009c FFF7FEFF 		bl	USB_ReadInterrupts
 1032              	.LVL77:
 1033              		.loc 1 628 60 view .LVU300
 1034 00a0 C306     		lsls	r3, r0, #27
 1035 00a2 B7D5     		bpl	.L89
 1036              		.loc 1 630 7 is_stmt 1 view .LVU301
 1037 00a4 2568     		ldr	r5, [r4]
 1038 00a6 AB69     		ldr	r3, [r5, #24]
 1039 00a8 23F01003 		bic	r3, r3, #16
 1040 00ac AB61     		str	r3, [r5, #24]
 1041              		.loc 1 632 7 view .LVU302
 1042              	.LVL78:
 1043              	.LBB16:
 1044              	.LBI16:
 1045              		.loc 1 1813 13 view .LVU303
 1046              	.LBB17:
 1047              		.loc 1 1815 3 view .LVU304
 1048              		.loc 1 1816 3 view .LVU305
 1049              		.loc 1 1817 3 view .LVU306
 1050              		.loc 1 1818 3 view .LVU307
 1051              		.loc 1 1819 3 view .LVU308
 1052              		.loc 1 1820 3 view .LVU309
 1053              		.loc 1 1821 3 view .LVU310
 1054              		.loc 1 1822 3 view .LVU311
 1055              		.loc 1 1824 3 view .LVU312
 1056              		.loc 1 1824 14 is_stmt 0 view .LVU313
 1057 00ae 2E6A     		ldr	r6, [r5, #32]
 1058              	.LVL79:
 1059              		.loc 1 1825 3 is_stmt 1 view .LVU314
 1060              		.loc 1 1826 3 view .LVU315
 1061              		.loc 1 1827 3 view .LVU316
 1062              		.loc 1 1826 10 is_stmt 0 view .LVU317
 1063 00b0 C6F34341 		ubfx	r1, r6, #17, #4
 1064              		.loc 1 1827 10 view .LVU318
 1065 00b4 C6F30A17 		ubfx	r7, r6, #4, #11
 1066              	.LVL80:
 1067              		.loc 1 1829 3 is_stmt 1 view .LVU319
 1068              		.loc 1 1833 7 view .LVU320
 1069              		.loc 1 1833 10 is_stmt 0 view .LVU321
 1070 00b8 0229     		cmp	r1, #2
 1071 00ba 02D1     		bne	.L193
 1072 00bc 002F     		cmp	r7, #0
 1073 00be 40F0A181 		bne	.L285
 1074              	.LVL81:
 1075              	.L193:
 1076              		.loc 1 1833 10 view .LVU322
 1077              	.LBE17:
 1078              	.LBE16:
 1079              		.loc 1 634 7 is_stmt 1 view .LVU323
 1080 00c2 AB69     		ldr	r3, [r5, #24]
 1081 00c4 43F01003 		orr	r3, r3, #16
 1082 00c8 AB61     		str	r3, [r5, #24]
 1083 00ca A3E7     		b	.L89
ARM GAS  C:\Users\DEVELO~1\AppData\Local\Temp\ccbkr0PB.s 			page 20


 1084              	.LVL82:
 1085              	.L101:
 1086              		.loc 1 565 7 view .LVU324
 1087 00cc 4FF00053 		mov	r3, #536870912
 1088 00d0 4361     		str	r3, [r0, #20]
 1089              		.loc 1 567 7 view .LVU325
 1090              		.loc 1 567 12 is_stmt 0 view .LVU326
 1091 00d2 D5F84034 		ldr	r3, [r5, #1088]
 1092              		.loc 1 567 10 view .LVU327
 1093 00d6 DE07     		lsls	r6, r3, #31
 1094 00d8 CED4     		bmi	.L102
 1095              		.loc 1 570 9 is_stmt 1 view .LVU328
 1096              		.loc 1 570 15 is_stmt 0 view .LVU329
 1097 00da 1021     		movs	r1, #16
 1098 00dc 2846     		mov	r0, r5
 1099 00de FFF7FEFF 		bl	USB_FlushTxFifo
 1100              	.LVL83:
 1101              		.loc 1 571 9 is_stmt 1 view .LVU330
 1102              		.loc 1 571 15 is_stmt 0 view .LVU331
 1103 00e2 2846     		mov	r0, r5
 1104 00e4 FFF7FEFF 		bl	USB_FlushRxFifo
 1105              	.LVL84:
 1106              		.loc 1 573 9 is_stmt 1 view .LVU332
 1107              		.loc 1 573 12 is_stmt 0 view .LVU333
 1108 00e8 637A     		ldrb	r3, [r4, #9]	@ zero_extendqisi2
 1109 00ea 022B     		cmp	r3, #2
 1110 00ec 00F0A382 		beq	.L286
 1111              	.L103:
 1112              		.loc 1 583 9 is_stmt 1 view .LVU334
 1113 00f0 2046     		mov	r0, r4
 1114 00f2 FFF7FEFF 		bl	HAL_HCD_Disconnect_Callback
 1115              	.LVL85:
 1116              		.loc 1 589 9 is_stmt 0 view .LVU335
 1117 00f6 2068     		ldr	r0, [r4]
 1118 00f8 BEE7     		b	.L102
 1119              	.L115:
 1120              		.loc 1 609 7 is_stmt 1 view .LVU336
 1121              		.loc 1 609 19 is_stmt 0 view .LVU337
 1122 00fa FFF7FEFF 		bl	USB_HC_ReadInterrupt
 1123              	.LVL86:
 1124              		.loc 1 610 22 view .LVU338
 1125 00fe 6379     		ldrb	r3, [r4, #5]	@ zero_extendqisi2
 1126              		.loc 1 609 19 view .LVU339
 1127 0100 8046     		mov	r8, r0
 1128              	.LVL87:
 1129              		.loc 1 610 7 is_stmt 1 view .LVU340
 1130              		.loc 1 610 22 view .LVU341
 1131 0102 002B     		cmp	r3, #0
 1132 0104 00F0CF80 		beq	.L192
 1133              		.loc 1 610 14 is_stmt 0 view .LVU342
 1134 0108 4FF0000B 		mov	fp, #0
 1135 010c 2646     		mov	r6, r4
 1136 010e 05F5A065 		add	r5, r5, #1280
 1137              	.LVL88:
 1138              	.LBB21:
 1139              	.LBB22:
 1140              		.loc 1 1778 35 view .LVU343
ARM GAS  C:\Users\DEVELO~1\AppData\Local\Temp\ccbkr0PB.s 			page 21


 1141 0112 4FF0040A 		mov	r10, #4
 1142 0116 2AE0     		b	.L191
 1143              	.LVL89:
 1144              	.L287:
 1145              		.loc 1 1778 35 view .LVU344
 1146              	.LBE22:
 1147              	.LBE21:
 1148              		.loc 1 616 13 is_stmt 1 view .LVU345
 1149              	.LBB36:
 1150              	.LBB37:
 1151              		.loc 1 1259 7 is_stmt 0 view .LVU346
 1152 0118 FFF7FEFF 		bl	USB_ReadChInterrupts
 1153              	.LVL90:
 1154              		.loc 1 1259 6 view .LVU347
 1155 011c 10F0040F 		tst	r0, #4
 1156 0120 0099     		ldr	r1, [sp]
 1157 0122 46D0     		beq	.L121
 1158              		.loc 1 1261 5 is_stmt 1 view .LVU348
 1159 0124 07F5A063 		add	r3, r7, #1280
 1160 0128 4B44     		add	r3, r3, r9
 1161 012a C3F808A0 		str	r10, [r3, #8]
 1162              		.loc 1 1262 5 view .LVU349
 1163              	.LVL91:
 1164              	.L272:
 1165              		.loc 1 1286 5 view .LVU350
 1166              		.loc 1 1286 27 is_stmt 0 view .LVU351
 1167 012e 0723     		movs	r3, #7
 1168 0130 86F84D30 		strb	r3, [r6, #77]
 1169              		.loc 1 1287 5 is_stmt 1 view .LVU352
 1170              		.loc 1 1287 11 is_stmt 0 view .LVU353
 1171 0134 2068     		ldr	r0, [r4]
 1172 0136 FFF7FEFF 		bl	USB_HC_Halt
 1173              	.LVL92:
 1174 013a 0099     		ldr	r1, [sp]
 1175              	.L122:
 1176              		.loc 1 1292 3 is_stmt 1 view .LVU354
 1177              		.loc 1 1294 3 view .LVU355
 1178              		.loc 1 1294 7 is_stmt 0 view .LVU356
 1179 013c 2068     		ldr	r0, [r4]
 1180 013e 0091     		str	r1, [sp]
 1181 0140 FFF7FEFF 		bl	USB_ReadChInterrupts
 1182              	.LVL93:
 1183              		.loc 1 1294 6 view .LVU357
 1184 0144 10F40073 		ands	r3, r0, #512
 1185 0148 0099     		ldr	r1, [sp]
 1186 014a 71D0     		beq	.L126
 1187              		.loc 1 1296 5 is_stmt 1 view .LVU358
 1188              		.loc 1 1297 5 is_stmt 0 view .LVU359
 1189 014c 07F5A067 		add	r7, r7, #1280
 1190              	.LVL94:
 1191              		.loc 1 1296 11 view .LVU360
 1192 0150 2068     		ldr	r0, [r4]
 1193 0152 FFF7FEFF 		bl	USB_HC_Halt
 1194              	.LVL95:
 1195              		.loc 1 1297 5 is_stmt 1 view .LVU361
 1196 0156 4FF40073 		mov	r3, #512
 1197 015a 4F44     		add	r7, r7, r9
ARM GAS  C:\Users\DEVELO~1\AppData\Local\Temp\ccbkr0PB.s 			page 22


 1198              	.LVL96:
 1199              		.loc 1 1297 5 is_stmt 0 view .LVU362
 1200 015c BB60     		str	r3, [r7, #8]
 1201              	.LVL97:
 1202              	.L119:
 1203              		.loc 1 1297 5 view .LVU363
 1204              	.LBE37:
 1205              	.LBE36:
 1206              		.loc 1 610 51 is_stmt 1 discriminator 2 view .LVU364
 1207 015e 0BF1010B 		add	fp, fp, #1
 1208              	.LVL98:
 1209              		.loc 1 610 22 discriminator 2 view .LVU365
 1210              		.loc 1 610 34 is_stmt 0 discriminator 2 view .LVU366
 1211 0162 6379     		ldrb	r3, [r4, #5]	@ zero_extendqisi2
 1212              		.loc 1 610 22 discriminator 2 view .LVU367
 1213 0164 3C36     		adds	r6, r6, #60
 1214 0166 2035     		adds	r5, r5, #32
 1215 0168 5B45     		cmp	r3, fp
 1216 016a 40F29C80 		bls	.L192
 1217              	.LVL99:
 1218              	.L191:
 1219              		.loc 1 612 9 is_stmt 1 view .LVU368
 1220              		.loc 1 612 37 is_stmt 0 view .LVU369
 1221 016e 0BF00F03 		and	r3, fp, #15
 1222              		.loc 1 612 47 view .LVU370
 1223 0172 28FA03F3 		lsr	r3, r8, r3
 1224              		.loc 1 612 12 view .LVU371
 1225 0176 DA07     		lsls	r2, r3, #31
 1226 0178 F1D5     		bpl	.L119
 1227              		.loc 1 614 11 is_stmt 1 view .LVU372
 1228              		.loc 1 614 26 is_stmt 0 view .LVU373
 1229 017a 2B68     		ldr	r3, [r5]
 1230 017c 5FFA8BF1 		uxtb	r1, fp
 1231              	.LVL100:
 1232              	.LBB54:
 1233              	.LBI36:
 1234              		.loc 1 1253 13 is_stmt 1 view .LVU374
 1235              	.LBB38:
 1236              		.loc 1 1255 3 view .LVU375
 1237              		.loc 1 1256 3 view .LVU376
 1238              		.loc 1 1255 32 is_stmt 0 view .LVU377
 1239 0180 2768     		ldr	r7, [r4]
 1240              	.LVL101:
 1241              		.loc 1 1257 3 is_stmt 1 view .LVU378
 1242              		.loc 1 1259 3 view .LVU379
 1243 0182 4FEA4B19 		lsl	r9, fp, #5
 1244              	.LBE38:
 1245              	.LBE54:
 1246              		.loc 1 614 14 is_stmt 0 view .LVU380
 1247 0186 1B04     		lsls	r3, r3, #16
 1248              	.LBB55:
 1249              	.LBB39:
 1250              		.loc 1 1259 7 view .LVU381
 1251 0188 0091     		str	r1, [sp]
 1252 018a 3846     		mov	r0, r7
 1253              	.LBE39:
 1254              	.LBE55:
ARM GAS  C:\Users\DEVELO~1\AppData\Local\Temp\ccbkr0PB.s 			page 23


 1255              		.loc 1 614 14 view .LVU382
 1256 018c C4D4     		bmi	.L287
 1257              		.loc 1 620 13 is_stmt 1 view .LVU383
 1258              	.LBB56:
 1259              	.LBB23:
 1260              		.loc 1 1579 7 is_stmt 0 view .LVU384
 1261 018e FFF7FEFF 		bl	USB_ReadChInterrupts
 1262              	.LVL102:
 1263              		.loc 1 1579 6 view .LVU385
 1264 0192 10F00403 		ands	r3, r0, #4
 1265 0196 0099     		ldr	r1, [sp]
 1266 0198 22D0     		beq	.L160
 1267              		.loc 1 1581 5 is_stmt 1 view .LVU386
 1268 019a 07F5A067 		add	r7, r7, #1280
 1269              	.LVL103:
 1270              		.loc 1 1582 27 is_stmt 0 view .LVU387
 1271 019e 0723     		movs	r3, #7
 1272              		.loc 1 1581 5 view .LVU388
 1273 01a0 4F44     		add	r7, r7, r9
 1274              	.LVL104:
 1275              		.loc 1 1581 5 view .LVU389
 1276 01a2 C7F808A0 		str	r10, [r7, #8]
 1277              		.loc 1 1582 5 is_stmt 1 view .LVU390
 1278              		.loc 1 1582 27 is_stmt 0 view .LVU391
 1279 01a6 86F84D30 		strb	r3, [r6, #77]
 1280              	.LVL105:
 1281              		.loc 1 1583 5 is_stmt 1 view .LVU392
 1282              		.loc 1 1583 11 is_stmt 0 view .LVU393
 1283 01aa 2068     		ldr	r0, [r4]
 1284 01ac FFF7FEFF 		bl	USB_HC_Halt
 1285              	.LVL106:
 1286 01b0 D5E7     		b	.L119
 1287              	.LVL107:
 1288              	.L121:
 1289              		.loc 1 1583 11 view .LVU394
 1290              	.LBE23:
 1291              	.LBE56:
 1292              	.LBB57:
 1293              	.LBB40:
 1294              		.loc 1 1265 8 is_stmt 1 view .LVU395
 1295              		.loc 1 1265 12 is_stmt 0 view .LVU396
 1296 01b2 2068     		ldr	r0, [r4]
 1297 01b4 0091     		str	r1, [sp]
 1298              	.LVL108:
 1299              		.loc 1 1265 12 view .LVU397
 1300 01b6 FFF7FEFF 		bl	USB_ReadChInterrupts
 1301              	.LVL109:
 1302              		.loc 1 1265 11 view .LVU398
 1303 01ba 10F4807F 		tst	r0, #256
 1304 01be 0099     		ldr	r1, [sp]
 1305 01c0 00F0B780 		beq	.L123
 1306              		.loc 1 1267 5 is_stmt 1 view .LVU399
 1307 01c4 07F5A063 		add	r3, r7, #1280
 1308 01c8 4FF48072 		mov	r2, #256
 1309 01cc 4B44     		add	r3, r3, r9
 1310 01ce 9A60     		str	r2, [r3, #8]
 1311              		.loc 1 1268 5 view .LVU400
ARM GAS  C:\Users\DEVELO~1\AppData\Local\Temp\ccbkr0PB.s 			page 24


 1312              		.loc 1 1268 27 is_stmt 0 view .LVU401
 1313 01d0 0823     		movs	r3, #8
 1314 01d2 86F84D30 		strb	r3, [r6, #77]
 1315              		.loc 1 1269 5 is_stmt 1 view .LVU402
 1316              		.loc 1 1269 11 is_stmt 0 view .LVU403
 1317 01d6 2068     		ldr	r0, [r4]
 1318 01d8 FFF7FEFF 		bl	USB_HC_Halt
 1319              	.LVL110:
 1320 01dc 0099     		ldr	r1, [sp]
 1321 01de ADE7     		b	.L122
 1322              	.LVL111:
 1323              	.L160:
 1324              		.loc 1 1269 11 view .LVU404
 1325              	.LBE40:
 1326              	.LBE57:
 1327              	.LBB58:
 1328              	.LBB24:
 1329              		.loc 1 1585 12 view .LVU405
 1330 01e0 2068     		ldr	r0, [r4]
 1331 01e2 CDE90013 		strd	r1, r3, [sp]
 1332              	.LVL112:
 1333              		.loc 1 1585 12 view .LVU406
 1334 01e6 FFF7FEFF 		bl	USB_ReadChInterrupts
 1335              	.LVL113:
 1336              		.loc 1 1585 11 view .LVU407
 1337 01ea 10F0200F 		tst	r0, #32
 1338 01ee 0099     		ldr	r1, [sp]
 1339 01f0 00F0CE80 		beq	.L161
 1340              		.loc 1 1587 5 is_stmt 1 view .LVU408
 1341 01f4 07F5A067 		add	r7, r7, #1280
 1342              	.LVL114:
 1343              		.loc 1 1587 5 is_stmt 0 view .LVU409
 1344 01f8 2022     		movs	r2, #32
 1345              		.loc 1 1589 8 view .LVU410
 1346 01fa 019B     		ldr	r3, [sp, #4]
 1347              		.loc 1 1587 5 view .LVU411
 1348 01fc 4F44     		add	r7, r7, r9
 1349              	.LVL115:
 1350              		.loc 1 1587 5 view .LVU412
 1351 01fe BA60     		str	r2, [r7, #8]
 1352              		.loc 1 1589 5 is_stmt 1 view .LVU413
 1353              		.loc 1 1589 8 is_stmt 0 view .LVU414
 1354 0200 727E     		ldrb	r2, [r6, #25]	@ zero_extendqisi2
 1355 0202 012A     		cmp	r2, #1
 1356 0204 00F05681 		beq	.L288
 1357              	.L162:
 1358              		.loc 1 1597 5 is_stmt 1 view .LVU415
 1359              		.loc 1 1597 8 is_stmt 0 view .LVU416
 1360 0208 B37E     		ldrb	r3, [r6, #26]	@ zero_extendqisi2
 1361 020a 012B     		cmp	r3, #1
 1362 020c A7D1     		bne	.L119
 1363              		.loc 1 1597 43 view .LVU417
 1364 020e F27E     		ldrb	r2, [r6, #27]	@ zero_extendqisi2
 1365 0210 002A     		cmp	r2, #0
 1366 0212 A4D1     		bne	.L119
 1367              		.loc 1 1599 7 is_stmt 1 view .LVU418
 1368              		.loc 1 1599 10 is_stmt 0 view .LVU419
ARM GAS  C:\Users\DEVELO~1\AppData\Local\Temp\ccbkr0PB.s 			page 25


 1369 0214 96F82620 		ldrb	r2, [r6, #38]	@ zero_extendqisi2
 1370 0218 012A     		cmp	r2, #1
 1371              		.loc 1 1601 9 is_stmt 1 view .LVU420
 1372              		.loc 1 1604 7 view .LVU421
 1373              		.loc 1 1601 35 is_stmt 0 view .LVU422
 1374 021a 18BF     		it	ne
 1375 021c F376     		strbne	r3, [r6, #27]
 1376              		.loc 1 1604 29 view .LVU423
 1377 021e 0323     		movs	r3, #3
 1378 0220 86F84D30 		strb	r3, [r6, #77]
 1379              		.loc 1 1605 7 is_stmt 1 view .LVU424
 1380              		.loc 1 1605 13 is_stmt 0 view .LVU425
 1381 0224 2068     		ldr	r0, [r4]
 1382 0226 FFF7FEFF 		bl	USB_HC_Halt
 1383              	.LVL116:
 1384              		.loc 1 1608 7 is_stmt 1 view .LVU426
 1385              		.loc 1 1608 30 is_stmt 0 view .LVU427
 1386 022a 0023     		movs	r3, #0
 1387 022c 7364     		str	r3, [r6, #68]
 1388 022e 96E7     		b	.L119
 1389              	.LVL117:
 1390              	.L126:
 1391              		.loc 1 1608 30 view .LVU428
 1392              	.LBE24:
 1393              	.LBE58:
 1394              	.LBB59:
 1395              	.LBB41:
 1396              		.loc 1 1299 12 view .LVU429
 1397 0230 2068     		ldr	r0, [r4]
 1398 0232 CDE90013 		strd	r1, r3, [sp]
 1399 0236 FFF7FEFF 		bl	USB_ReadChInterrupts
 1400              	.LVL118:
 1401              		.loc 1 1299 11 view .LVU430
 1402 023a 10F0010F 		tst	r0, #1
 1403 023e 0099     		ldr	r1, [sp]
 1404 0240 00F08C80 		beq	.L127
 1405              		.loc 1 1302 5 is_stmt 1 view .LVU431
 1406 0244 07F5A060 		add	r0, r7, #1280
 1407 0248 2022     		movs	r2, #32
 1408              		.loc 1 1304 8 is_stmt 0 view .LVU432
 1409 024a 019B     		ldr	r3, [sp, #4]
 1410              		.loc 1 1302 5 view .LVU433
 1411 024c 00EB0907 		add	r7, r0, r9
 1412              	.LVL119:
 1413              		.loc 1 1302 5 view .LVU434
 1414 0250 BA60     		str	r2, [r7, #8]
 1415              		.loc 1 1304 5 is_stmt 1 view .LVU435
 1416              		.loc 1 1304 8 is_stmt 0 view .LVU436
 1417 0252 F27E     		ldrb	r2, [r6, #27]	@ zero_extendqisi2
 1418 0254 012A     		cmp	r2, #1
 1419 0256 04D1     		bne	.L128
 1420              		.loc 1 1306 7 is_stmt 1 view .LVU437
 1421              		.loc 1 1306 33 is_stmt 0 view .LVU438
 1422 0258 F376     		strb	r3, [r6, #27]
 1423              		.loc 1 1307 7 is_stmt 1 view .LVU439
 1424 025a 7B68     		ldr	r3, [r7, #4]
 1425 025c 23F48033 		bic	r3, r3, #65536
ARM GAS  C:\Users\DEVELO~1\AppData\Local\Temp\ccbkr0PB.s 			page 26


 1426 0260 7B60     		str	r3, [r7, #4]
 1427              	.L128:
 1428              		.loc 1 1310 5 view .LVU440
 1429              		.loc 1 1310 19 is_stmt 0 view .LVU441
 1430 0262 A279     		ldrb	r2, [r4, #6]	@ zero_extendqisi2
 1431              		.loc 1 1310 8 view .LVU442
 1432 0264 32B1     		cbz	r2, .L129
 1433              		.loc 1 1312 7 is_stmt 1 view .LVU443
 1434              		.loc 1 1312 78 is_stmt 0 view .LVU444
 1435 0266 3B69     		ldr	r3, [r7, #16]
 1436              		.loc 1 1312 87 view .LVU445
 1437 0268 C3F3120C 		ubfx	ip, r3, #0, #19
 1438              		.loc 1 1312 61 view .LVU446
 1439 026c 336B     		ldr	r3, [r6, #48]
 1440 026e A3EB0C03 		sub	r3, r3, ip
 1441              		.loc 1 1312 34 view .LVU447
 1442 0272 B363     		str	r3, [r6, #56]
 1443              	.L129:
 1444              		.loc 1 1315 5 is_stmt 1 view .LVU448
 1445              		.loc 1 1316 28 is_stmt 0 view .LVU449
 1446 0274 0023     		movs	r3, #0
 1447 0276 7364     		str	r3, [r6, #68]
 1448              		.loc 1 1315 27 view .LVU450
 1449 0278 0123     		movs	r3, #1
 1450 027a 86F84D30 		strb	r3, [r6, #77]
 1451              		.loc 1 1316 5 is_stmt 1 view .LVU451
 1452              		.loc 1 1317 5 view .LVU452
 1453 027e BB60     		str	r3, [r7, #8]
 1454              		.loc 1 1319 5 view .LVU453
 1455              		.loc 1 1319 51 is_stmt 0 view .LVU454
 1456 0280 96F82630 		ldrb	r3, [r6, #38]	@ zero_extendqisi2
 1457              		.loc 1 1319 8 view .LVU455
 1458 0284 13F0FD03 		ands	r3, r3, #253
 1459 0288 00F0B580 		beq	.L289
 1460              		.loc 1 1325 10 is_stmt 1 view .LVU456
 1461              		.loc 1 1325 13 is_stmt 0 view .LVU457
 1462 028c 012B     		cmp	r3, #1
 1463 028e 00F00381 		beq	.L290
 1464              	.LVL120:
 1465              	.L131:
 1466              		.loc 1 1340 5 is_stmt 1 view .LVU458
 1467              		.loc 1 1342 5 view .LVU459
 1468              		.loc 1 1342 8 is_stmt 0 view .LVU460
 1469 0292 012A     		cmp	r2, #1
 1470 0294 00F0A580 		beq	.L291
 1471              	.L132:
 1472              		.loc 1 1351 7 is_stmt 1 view .LVU461
 1473              		.loc 1 1351 33 is_stmt 0 view .LVU462
 1474 0298 96F83C30 		ldrb	r3, [r6, #60]	@ zero_extendqisi2
 1475 029c 83F00103 		eor	r3, r3, #1
 1476 02a0 86F83C30 		strb	r3, [r6, #60]
 1477 02a4 5BE7     		b	.L119
 1478              	.LVL121:
 1479              	.L192:
 1480              		.loc 1 1351 33 view .LVU463
 1481              	.LBE41:
 1482              	.LBE59:
ARM GAS  C:\Users\DEVELO~1\AppData\Local\Temp\ccbkr0PB.s 			page 27


 1483              		.loc 1 624 7 is_stmt 1 view .LVU464
 1484 02a6 2068     		ldr	r0, [r4]
 1485 02a8 4FF00073 		mov	r3, #33554432
 1486 02ac 4361     		str	r3, [r0, #20]
 1487 02ae F5E6     		b	.L116
 1488              	.LVL122:
 1489              	.L113:
 1490              		.loc 1 600 7 view .LVU465
 1491 02b0 2046     		mov	r0, r4
 1492 02b2 FFF7FEFF 		bl	HAL_HCD_SOF_Callback
 1493              	.LVL123:
 1494              		.loc 1 603 7 view .LVU466
 1495 02b6 2068     		ldr	r0, [r4]
 1496 02b8 0823     		movs	r3, #8
 1497 02ba 4361     		str	r3, [r0, #20]
 1498 02bc E8E6     		b	.L114
 1499              	.L284:
 1500              		.loc 1 591 7 view .LVU467
 1501              	.LVL124:
 1502              	.LBB60:
 1503              	.LBI60:
 1504              		.loc 1 1879 13 view .LVU468
 1505              	.LBB61:
 1506              		.loc 1 1881 3 view .LVU469
 1507              		.loc 1 1882 3 view .LVU470
 1508              		.loc 1 1882 12 is_stmt 0 view .LVU471
 1509 02be 2668     		ldr	r6, [r4]
 1510              	.LVL125:
 1511              		.loc 1 1883 3 is_stmt 1 view .LVU472
 1512              		.loc 1 1884 3 view .LVU473
 1513              		.loc 1 1887 3 view .LVU474
 1514              		.loc 1 1887 11 is_stmt 0 view .LVU475
 1515 02c0 D6F84034 		ldr	r3, [r6, #1088]
 1516              		.loc 1 1887 9 view .LVU476
 1517 02c4 0293     		str	r3, [sp, #8]
 1518              		.loc 1 1888 3 is_stmt 1 view .LVU477
 1519              		.loc 1 1888 15 is_stmt 0 view .LVU478
 1520 02c6 D6F84034 		ldr	r3, [r6, #1088]
 1521              		.loc 1 1888 13 view .LVU479
 1522 02ca 0393     		str	r3, [sp, #12]
 1523              		.loc 1 1890 3 is_stmt 1 view .LVU480
 1524              		.loc 1 1890 13 is_stmt 0 view .LVU481
 1525 02cc 039B     		ldr	r3, [sp, #12]
 1526 02ce 23F02E03 		bic	r3, r3, #46
 1527 02d2 0393     		str	r3, [sp, #12]
 1528              		.loc 1 1894 3 is_stmt 1 view .LVU482
 1529              		.loc 1 1894 14 is_stmt 0 view .LVU483
 1530 02d4 029B     		ldr	r3, [sp, #8]
 1531              		.loc 1 1894 6 view .LVU484
 1532 02d6 9907     		lsls	r1, r3, #30
 1533 02d8 07D5     		bpl	.L105
 1534              		.loc 1 1896 5 is_stmt 1 view .LVU485
 1535              		.loc 1 1896 16 is_stmt 0 view .LVU486
 1536 02da 029B     		ldr	r3, [sp, #8]
 1537              		.loc 1 1896 8 view .LVU487
 1538 02dc DA07     		lsls	r2, r3, #31
 1539 02de 00F1AC80 		bmi	.L292
ARM GAS  C:\Users\DEVELO~1\AppData\Local\Temp\ccbkr0PB.s 			page 28


 1540              	.LVL126:
 1541              	.L106:
 1542              		.loc 1 1904 5 is_stmt 1 view .LVU488
 1543              		.loc 1 1904 15 is_stmt 0 view .LVU489
 1544 02e2 039B     		ldr	r3, [sp, #12]
 1545 02e4 43F00203 		orr	r3, r3, #2
 1546 02e8 0393     		str	r3, [sp, #12]
 1547              	.L105:
 1548              		.loc 1 1908 3 is_stmt 1 view .LVU490
 1549              		.loc 1 1908 14 is_stmt 0 view .LVU491
 1550 02ea 029B     		ldr	r3, [sp, #8]
 1551              		.loc 1 1908 6 view .LVU492
 1552 02ec 1B07     		lsls	r3, r3, #28
 1553 02ee 15D5     		bpl	.L107
 1554              		.loc 1 1910 5 is_stmt 1 view .LVU493
 1555              		.loc 1 1910 15 is_stmt 0 view .LVU494
 1556 02f0 039B     		ldr	r3, [sp, #12]
 1557 02f2 43F00803 		orr	r3, r3, #8
 1558 02f6 0393     		str	r3, [sp, #12]
 1559              		.loc 1 1912 5 is_stmt 1 view .LVU495
 1560              		.loc 1 1912 16 is_stmt 0 view .LVU496
 1561 02f8 029B     		ldr	r3, [sp, #8]
 1562              		.loc 1 1912 8 view .LVU497
 1563 02fa 5F07     		lsls	r7, r3, #29
 1564 02fc 40F19980 		bpl	.L108
 1565              		.loc 1 1914 7 is_stmt 1 view .LVU498
 1566              		.loc 1 1914 10 is_stmt 0 view .LVU499
 1567 0300 617A     		ldrb	r1, [r4, #9]	@ zero_extendqisi2
 1568 0302 0229     		cmp	r1, #2
 1569 0304 00F0F280 		beq	.L293
 1570              		.loc 1 1927 9 is_stmt 1 view .LVU500
 1571              		.loc 1 1927 12 is_stmt 0 view .LVU501
 1572 0308 E379     		ldrb	r3, [r4, #7]	@ zero_extendqisi2
 1573 030a 012B     		cmp	r3, #1
 1574 030c 03D1     		bne	.L111
 1575              		.loc 1 1929 11 is_stmt 1 view .LVU502
 1576              		.loc 1 1929 27 is_stmt 0 view .LVU503
 1577 030e 4EF66022 		movw	r2, #60000
 1578 0312 C6F80424 		str	r2, [r6, #1028]
 1579              	.L111:
 1580              		.loc 1 1935 7 is_stmt 1 view .LVU504
 1581 0316 2046     		mov	r0, r4
 1582 0318 FFF7FEFF 		bl	HAL_HCD_PortEnabled_Callback
 1583              	.LVL127:
 1584              	.L107:
 1585              		.loc 1 1950 3 view .LVU505
 1586              		.loc 1 1950 14 is_stmt 0 view .LVU506
 1587 031c 029B     		ldr	r3, [sp, #8]
 1588              		.loc 1 1950 6 view .LVU507
 1589 031e 9806     		lsls	r0, r3, #26
 1590 0320 03D5     		bpl	.L112
 1591              		.loc 1 1952 5 is_stmt 1 view .LVU508
 1592              		.loc 1 1952 15 is_stmt 0 view .LVU509
 1593 0322 039B     		ldr	r3, [sp, #12]
 1594 0324 43F02003 		orr	r3, r3, #32
 1595 0328 0393     		str	r3, [sp, #12]
 1596              	.L112:
ARM GAS  C:\Users\DEVELO~1\AppData\Local\Temp\ccbkr0PB.s 			page 29


 1597              		.loc 1 1956 3 is_stmt 1 view .LVU510
 1598              		.loc 1 1956 14 is_stmt 0 view .LVU511
 1599 032a 039B     		ldr	r3, [sp, #12]
 1600 032c C6F84034 		str	r3, [r6, #1088]
 1601              		.loc 1 1957 1 view .LVU512
 1602 0330 A7E6     		b	.L104
 1603              	.LVL128:
 1604              	.L123:
 1605              		.loc 1 1957 1 view .LVU513
 1606              	.LBE61:
 1607              	.LBE60:
 1608              	.LBB64:
 1609              	.LBB42:
 1610              		.loc 1 1271 8 is_stmt 1 view .LVU514
 1611              		.loc 1 1271 12 is_stmt 0 view .LVU515
 1612 0332 2068     		ldr	r0, [r4]
 1613 0334 0091     		str	r1, [sp]
 1614 0336 FFF7FEFF 		bl	USB_ReadChInterrupts
 1615              	.LVL129:
 1616              		.loc 1 1271 11 view .LVU516
 1617 033a 10F0080F 		tst	r0, #8
 1618 033e 0099     		ldr	r1, [sp]
 1619 0340 38D0     		beq	.L124
 1620              		.loc 1 1273 5 is_stmt 1 view .LVU517
 1621 0342 07F5A063 		add	r3, r7, #1280
 1622 0346 0822     		movs	r2, #8
 1623 0348 4B44     		add	r3, r3, r9
 1624 034a 9A60     		str	r2, [r3, #8]
 1625              		.loc 1 1274 5 view .LVU518
 1626              		.loc 1 1274 27 is_stmt 0 view .LVU519
 1627 034c 0623     		movs	r3, #6
 1628 034e 86F84D30 		strb	r3, [r6, #77]
 1629              		.loc 1 1275 5 is_stmt 1 view .LVU520
 1630              		.loc 1 1275 11 is_stmt 0 view .LVU521
 1631 0352 2068     		ldr	r0, [r4]
 1632 0354 FFF7FEFF 		bl	USB_HC_Halt
 1633              	.LVL130:
 1634 0358 0099     		ldr	r1, [sp]
 1635 035a EFE6     		b	.L122
 1636              	.L127:
 1637              		.loc 1 1354 8 is_stmt 1 view .LVU522
 1638              		.loc 1 1354 12 is_stmt 0 view .LVU523
 1639 035c 2068     		ldr	r0, [r4]
 1640 035e 0091     		str	r1, [sp]
 1641 0360 FFF7FEFF 		bl	USB_ReadChInterrupts
 1642              	.LVL131:
 1643              		.loc 1 1354 11 view .LVU524
 1644 0364 10F0200F 		tst	r0, #32
 1645 0368 0099     		ldr	r1, [sp]
 1646 036a 00F0CA80 		beq	.L134
 1647              		.loc 1 1356 5 is_stmt 1 view .LVU525
 1648 036e 07F5A063 		add	r3, r7, #1280
 1649 0372 2022     		movs	r2, #32
 1650 0374 4B44     		add	r3, r3, r9
 1651 0376 9A60     		str	r2, [r3, #8]
 1652              		.loc 1 1358 5 view .LVU526
 1653              		.loc 1 1358 8 is_stmt 0 view .LVU527
ARM GAS  C:\Users\DEVELO~1\AppData\Local\Temp\ccbkr0PB.s 			page 30


 1654 0378 B37E     		ldrb	r3, [r6, #26]	@ zero_extendqisi2
 1655 037a 012B     		cmp	r3, #1
 1656 037c 7FF4EFAE 		bne	.L119
 1657              		.loc 1 1360 7 is_stmt 1 view .LVU528
 1658              		.loc 1 1360 33 is_stmt 0 view .LVU529
 1659 0380 F376     		strb	r3, [r6, #27]
 1660              		.loc 1 1361 7 is_stmt 1 view .LVU530
 1661              		.loc 1 1361 29 is_stmt 0 view .LVU531
 1662 0382 0323     		movs	r3, #3
 1663 0384 86F84D30 		strb	r3, [r6, #77]
 1664              		.loc 1 1363 7 is_stmt 1 view .LVU532
 1665              		.loc 1 1363 13 is_stmt 0 view .LVU533
 1666 0388 2068     		ldr	r0, [r4]
 1667 038a FFF7FEFF 		bl	USB_HC_Halt
 1668              	.LVL132:
 1669 038e E6E6     		b	.L119
 1670              	.L161:
 1671              		.loc 1 1363 13 view .LVU534
 1672              	.LBE42:
 1673              	.LBE64:
 1674              	.LBB65:
 1675              	.LBB25:
 1676              		.loc 1 1611 8 is_stmt 1 view .LVU535
 1677              		.loc 1 1611 12 is_stmt 0 view .LVU536
 1678 0390 2068     		ldr	r0, [r4]
 1679 0392 0091     		str	r1, [sp]
 1680 0394 FFF7FEFF 		bl	USB_ReadChInterrupts
 1681              	.LVL133:
 1682              		.loc 1 1611 11 view .LVU537
 1683 0398 10F40073 		ands	r3, r0, #512
 1684 039c 0099     		ldr	r1, [sp]
 1685 039e 50D0     		beq	.L164
 1686              		.loc 1 1613 5 is_stmt 1 view .LVU538
 1687 03a0 07F5A063 		add	r3, r7, #1280
 1688 03a4 4FF40072 		mov	r2, #512
 1689              		.loc 1 1614 11 is_stmt 0 view .LVU539
 1690 03a8 2068     		ldr	r0, [r4]
 1691              		.loc 1 1613 5 view .LVU540
 1692 03aa 4B44     		add	r3, r3, r9
 1693 03ac 9A60     		str	r2, [r3, #8]
 1694              		.loc 1 1614 5 is_stmt 1 view .LVU541
 1695              		.loc 1 1614 11 is_stmt 0 view .LVU542
 1696 03ae FFF7FEFF 		bl	USB_HC_Halt
 1697              	.LVL134:
 1698 03b2 D4E6     		b	.L119
 1699              	.L124:
 1700              		.loc 1 1614 11 view .LVU543
 1701              	.LBE25:
 1702              	.LBE65:
 1703              	.LBB66:
 1704              	.LBB43:
 1705              		.loc 1 1277 8 is_stmt 1 view .LVU544
 1706              		.loc 1 1277 12 is_stmt 0 view .LVU545
 1707 03b4 2068     		ldr	r0, [r4]
 1708 03b6 0091     		str	r1, [sp]
 1709 03b8 FFF7FEFF 		bl	USB_ReadChInterrupts
 1710              	.LVL135:
ARM GAS  C:\Users\DEVELO~1\AppData\Local\Temp\ccbkr0PB.s 			page 31


 1711              		.loc 1 1277 11 view .LVU546
 1712 03bc 10F4806F 		tst	r0, #1024
 1713 03c0 0099     		ldr	r1, [sp]
 1714 03c2 00F08480 		beq	.L125
 1715              		.loc 1 1279 5 is_stmt 1 view .LVU547
 1716 03c6 07F5A063 		add	r3, r7, #1280
 1717 03ca 4FF48062 		mov	r2, #1024
 1718 03ce 4B44     		add	r3, r3, r9
 1719 03d0 9A60     		str	r2, [r3, #8]
 1720              		.loc 1 1280 5 view .LVU548
 1721              		.loc 1 1280 27 is_stmt 0 view .LVU549
 1722 03d2 0923     		movs	r3, #9
 1723 03d4 86F84D30 		strb	r3, [r6, #77]
 1724              		.loc 1 1281 5 is_stmt 1 view .LVU550
 1725              		.loc 1 1281 11 is_stmt 0 view .LVU551
 1726 03d8 2068     		ldr	r0, [r4]
 1727 03da FFF7FEFF 		bl	USB_HC_Halt
 1728              	.LVL136:
 1729 03de 0099     		ldr	r1, [sp]
 1730 03e0 ACE6     		b	.L122
 1731              	.LVL137:
 1732              	.L291:
 1733              		.loc 1 1344 7 is_stmt 1 view .LVU552
 1734              		.loc 1 1344 70 is_stmt 0 view .LVU553
 1735 03e2 B36B     		ldr	r3, [r6, #56]
 1736              		.loc 1 1344 58 view .LVU554
 1737 03e4 328D     		ldrh	r2, [r6, #40]
 1738              		.loc 1 1344 70 view .LVU555
 1739 03e6 013B     		subs	r3, r3, #1
 1740 03e8 1344     		add	r3, r3, r2
 1741              		.loc 1 1344 76 view .LVU556
 1742 03ea B3FBF2F3 		udiv	r3, r3, r2
 1743              		.loc 1 1344 10 view .LVU557
 1744 03ee DF07     		lsls	r7, r3, #31
 1745 03f0 7FF5B5AE 		bpl	.L119
 1746 03f4 50E7     		b	.L132
 1747              	.LVL138:
 1748              	.L289:
 1749              		.loc 1 1322 7 is_stmt 1 view .LVU558
 1750              		.loc 1 1322 13 is_stmt 0 view .LVU559
 1751 03f6 2068     		ldr	r0, [r4]
 1752              	.LVL139:
 1753              		.loc 1 1322 13 view .LVU560
 1754 03f8 FFF7FEFF 		bl	USB_HC_Halt
 1755              	.LVL140:
 1756              		.loc 1 1323 7 is_stmt 1 view .LVU561
 1757 03fc 1023     		movs	r3, #16
 1758 03fe BB60     		str	r3, [r7, #8]
 1759              		.loc 1 1342 19 is_stmt 0 view .LVU562
 1760 0400 A279     		ldrb	r2, [r4, #6]	@ zero_extendqisi2
 1761 0402 46E7     		b	.L131
 1762              	.LVL141:
 1763              	.L285:
 1764              		.loc 1 1342 19 view .LVU563
 1765              	.LBE43:
 1766              	.LBE66:
 1767              	.LBB67:
ARM GAS  C:\Users\DEVELO~1\AppData\Local\Temp\ccbkr0PB.s 			page 32


 1768              	.LBB18:
 1769              		.loc 1 1825 9 view .LVU564
 1770 0404 06F00F06 		and	r6, r6, #15
 1771              	.LVL142:
 1772              		.loc 1 1833 44 view .LVU565
 1773 0408 C6EB0611 		rsb	r1, r6, r6, lsl #4
 1774 040c 04EB8108 		add	r8, r4, r1, lsl #2
 1775 0410 D8F82C10 		ldr	r1, [r8, #44]
 1776              		.loc 1 1833 25 view .LVU566
 1777 0414 0029     		cmp	r1, #0
 1778 0416 3FF454AE 		beq	.L193
 1779              		.loc 1 1835 9 is_stmt 1 view .LVU567
 1780              		.loc 1 1835 41 is_stmt 0 view .LVU568
 1781 041a D8F83800 		ldr	r0, [r8, #56]
 1782              		.loc 1 1835 12 view .LVU569
 1783 041e D8F83430 		ldr	r3, [r8, #52]
 1784              		.loc 1 1835 41 view .LVU570
 1785 0422 3844     		add	r0, r0, r7
 1786              		.loc 1 1835 12 view .LVU571
 1787 0424 9842     		cmp	r0, r3
 1788 0426 40F22581 		bls	.L294
 1789              		.loc 1 1859 11 is_stmt 1 view .LVU572
 1790              		.loc 1 1859 37 is_stmt 0 view .LVU573
 1791 042a 0423     		movs	r3, #4
 1792 042c 88F84C30 		strb	r3, [r8, #76]
 1793 0430 47E6     		b	.L193
 1794              	.LVL143:
 1795              	.L108:
 1796              		.loc 1 1859 37 view .LVU574
 1797              	.LBE18:
 1798              	.LBE67:
 1799              	.LBB68:
 1800              	.LBB62:
 1801              		.loc 1 1944 7 is_stmt 1 view .LVU575
 1802 0432 2046     		mov	r0, r4
 1803 0434 FFF7FEFF 		bl	HAL_HCD_PortDisabled_Callback
 1804              	.LVL144:
 1805 0438 70E7     		b	.L107
 1806              	.L292:
 1807              		.loc 1 1901 7 view .LVU576
 1808 043a 2046     		mov	r0, r4
 1809 043c FFF7FEFF 		bl	HAL_HCD_Connect_Callback
 1810              	.LVL145:
 1811 0440 4FE7     		b	.L106
 1812              	.LVL146:
 1813              	.L164:
 1814              		.loc 1 1901 7 is_stmt 0 view .LVU577
 1815              	.LBE62:
 1816              	.LBE68:
 1817              	.LBB69:
 1818              	.LBB26:
 1819              		.loc 1 1616 12 view .LVU578
 1820 0442 2068     		ldr	r0, [r4]
 1821 0444 CDE90013 		strd	r1, r3, [sp]
 1822 0448 FFF7FEFF 		bl	USB_ReadChInterrupts
 1823              	.LVL147:
 1824              		.loc 1 1616 11 view .LVU579
ARM GAS  C:\Users\DEVELO~1\AppData\Local\Temp\ccbkr0PB.s 			page 33


 1825 044c 10F0010F 		tst	r0, #1
 1826 0450 0099     		ldr	r1, [sp]
 1827 0452 00F0F580 		beq	.L165
 1828              		.loc 1 1618 5 is_stmt 1 view .LVU580
 1829              		.loc 1 1618 28 is_stmt 0 view .LVU581
 1830 0456 019B     		ldr	r3, [sp, #4]
 1831              		.loc 1 1621 9 view .LVU582
 1832 0458 2068     		ldr	r0, [r4]
 1833              		.loc 1 1618 28 view .LVU583
 1834 045a 7364     		str	r3, [r6, #68]
 1835              		.loc 1 1621 5 is_stmt 1 view .LVU584
 1836              		.loc 1 1621 9 is_stmt 0 view .LVU585
 1837 045c FFF7FEFF 		bl	USB_ReadChInterrupts
 1838              	.LVL148:
 1839              		.loc 1 1624 7 view .LVU586
 1840 0460 07F5A063 		add	r3, r7, #1280
 1841              		.loc 1 1621 8 view .LVU587
 1842 0464 10F0400F 		tst	r0, #64
 1843 0468 0099     		ldr	r1, [sp]
 1844              		.loc 1 1624 7 view .LVU588
 1845 046a 4B44     		add	r3, r3, r9
 1846              		.loc 1 1621 8 view .LVU589
 1847 046c 03D0     		beq	.L167
 1848              		.loc 1 1623 7 is_stmt 1 view .LVU590
 1849              		.loc 1 1623 31 is_stmt 0 view .LVU591
 1850 046e 0122     		movs	r2, #1
 1851 0470 7276     		strb	r2, [r6, #25]
 1852              		.loc 1 1624 7 is_stmt 1 view .LVU592
 1853 0472 4022     		movs	r2, #64
 1854 0474 9A60     		str	r2, [r3, #8]
 1855              	.L167:
 1856              		.loc 1 1627 5 view .LVU593
 1857              		.loc 1 1627 8 is_stmt 0 view .LVU594
 1858 0476 F27E     		ldrb	r2, [r6, #27]	@ zero_extendqisi2
 1859 0478 32B1     		cbz	r2, .L168
 1860              		.loc 1 1629 7 is_stmt 1 view .LVU595
 1861              		.loc 1 1629 33 is_stmt 0 view .LVU596
 1862 047a 4FF00002 		mov	r2, #0
 1863 047e F276     		strb	r2, [r6, #27]
 1864              		.loc 1 1630 7 is_stmt 1 view .LVU597
 1865 0480 5A68     		ldr	r2, [r3, #4]
 1866 0482 22F48032 		bic	r2, r2, #65536
 1867 0486 5A60     		str	r2, [r3, #4]
 1868              	.L168:
 1869              		.loc 1 1633 5 view .LVU598
 1870 0488 0122     		movs	r2, #1
 1871 048a 9A60     		str	r2, [r3, #8]
 1872              		.loc 1 1634 5 view .LVU599
 1873              		.loc 1 1634 27 is_stmt 0 view .LVU600
 1874 048c 86F84D20 		strb	r2, [r6, #77]
 1875              		.loc 1 1635 5 is_stmt 1 view .LVU601
 1876              		.loc 1 1635 11 is_stmt 0 view .LVU602
 1877 0490 2068     		ldr	r0, [r4]
 1878 0492 FFF7FEFF 		bl	USB_HC_Halt
 1879              	.LVL149:
 1880 0496 62E6     		b	.L119
 1881              	.LVL150:
ARM GAS  C:\Users\DEVELO~1\AppData\Local\Temp\ccbkr0PB.s 			page 34


 1882              	.L290:
 1883              		.loc 1 1635 11 view .LVU603
 1884              	.LBE26:
 1885              	.LBE69:
 1886              	.LBB70:
 1887              	.LBB44:
 1888              		.loc 1 1328 7 is_stmt 1 view .LVU604
 1889              		.loc 1 1328 30 is_stmt 0 view .LVU605
 1890 0498 50F80920 		ldr	r2, [r0, r9]
 1891 049c 42F00052 		orr	r2, r2, #536870912
 1892 04a0 40F80920 		str	r2, [r0, r9]
 1893              		.loc 1 1329 7 is_stmt 1 view .LVU606
 1894              		.loc 1 1334 7 is_stmt 0 view .LVU607
 1895 04a4 1A46     		mov	r2, r3
 1896 04a6 2046     		mov	r0, r4
 1897              	.LVL151:
 1898              		.loc 1 1329 33 view .LVU608
 1899 04a8 86F84C30 		strb	r3, [r6, #76]
 1900              		.loc 1 1334 7 is_stmt 1 view .LVU609
 1901 04ac FFF7FEFF 		bl	HAL_HCD_HC_NotifyURBChange_Callback
 1902              	.LVL152:
 1903              		.loc 1 1342 19 is_stmt 0 view .LVU610
 1904 04b0 A279     		ldrb	r2, [r4, #6]	@ zero_extendqisi2
 1905 04b2 EEE6     		b	.L131
 1906              	.L288:
 1907              		.loc 1 1342 19 view .LVU611
 1908              	.LBE44:
 1909              	.LBE70:
 1910              	.LBB71:
 1911              	.LBB27:
 1912              		.loc 1 1591 7 is_stmt 1 view .LVU612
 1913              		.loc 1 1591 31 is_stmt 0 view .LVU613
 1914 04b4 7376     		strb	r3, [r6, #25]
 1915              		.loc 1 1592 7 is_stmt 1 view .LVU614
 1916              		.loc 1 1592 33 is_stmt 0 view .LVU615
 1917 04b6 4FF00203 		mov	r3, #2
 1918 04ba 86F84C30 		strb	r3, [r6, #76]
 1919              		.loc 1 1593 7 is_stmt 1 view .LVU616
 1920              		.loc 1 1593 29 is_stmt 0 view .LVU617
 1921 04be 0323     		movs	r3, #3
 1922 04c0 86F84D30 		strb	r3, [r6, #77]
 1923              		.loc 1 1594 7 is_stmt 1 view .LVU618
 1924              		.loc 1 1594 13 is_stmt 0 view .LVU619
 1925 04c4 2068     		ldr	r0, [r4]
 1926 04c6 FFF7FEFF 		bl	USB_HC_Halt
 1927              	.LVL153:
 1928 04ca 0099     		ldr	r1, [sp]
 1929 04cc 9CE6     		b	.L162
 1930              	.LVL154:
 1931              	.L125:
 1932              		.loc 1 1594 13 view .LVU620
 1933              	.LBE27:
 1934              	.LBE71:
 1935              	.LBB72:
 1936              	.LBB45:
 1937              		.loc 1 1283 8 is_stmt 1 view .LVU621
 1938              		.loc 1 1283 12 is_stmt 0 view .LVU622
ARM GAS  C:\Users\DEVELO~1\AppData\Local\Temp\ccbkr0PB.s 			page 35


 1939 04ce 2068     		ldr	r0, [r4]
 1940 04d0 0091     		str	r1, [sp]
 1941 04d2 FFF7FEFF 		bl	USB_ReadChInterrupts
 1942              	.LVL155:
 1943              		.loc 1 1283 11 view .LVU623
 1944 04d6 10F0800F 		tst	r0, #128
 1945 04da 0099     		ldr	r1, [sp]
 1946 04dc 3FF42EAE 		beq	.L122
 1947              		.loc 1 1285 5 is_stmt 1 view .LVU624
 1948 04e0 07F5A063 		add	r3, r7, #1280
 1949 04e4 8022     		movs	r2, #128
 1950 04e6 4B44     		add	r3, r3, r9
 1951 04e8 9A60     		str	r2, [r3, #8]
 1952 04ea 20E6     		b	.L272
 1953              	.LVL156:
 1954              	.L293:
 1955              		.loc 1 1285 5 is_stmt 0 view .LVU625
 1956              	.LBE45:
 1957              	.LBE72:
 1958              	.LBB73:
 1959              	.LBB63:
 1960              		.loc 1 1916 9 is_stmt 1 view .LVU626
 1961              		.loc 1 1922 11 view .LVU627
 1962              		.loc 1 1916 20 is_stmt 0 view .LVU628
 1963 04ec 029B     		ldr	r3, [sp, #8]
 1964              		.loc 1 1922 17 view .LVU629
 1965 04ee 2068     		ldr	r0, [r4]
 1966              		.loc 1 1916 20 view .LVU630
 1967 04f0 03F4C023 		and	r3, r3, #393216
 1968              		.loc 1 1916 12 view .LVU631
 1969 04f4 B3F5802F 		cmp	r3, #262144
 1970              		.loc 1 1922 17 view .LVU632
 1971 04f8 18BF     		it	ne
 1972 04fa 0121     		movne	r1, #1
 1973 04fc FFF7FEFF 		bl	USB_InitFSLSPClkSel
 1974              	.LVL157:
 1975 0500 09E7     		b	.L111
 1976              	.LVL158:
 1977              	.L134:
 1978              		.loc 1 1922 17 view .LVU633
 1979              	.LBE63:
 1980              	.LBE73:
 1981              	.LBB74:
 1982              	.LBB46:
 1983              		.loc 1 1366 8 is_stmt 1 view .LVU634
 1984              		.loc 1 1366 12 is_stmt 0 view .LVU635
 1985 0502 2068     		ldr	r0, [r4]
 1986 0504 0091     		str	r1, [sp]
 1987 0506 FFF7FEFF 		bl	USB_ReadChInterrupts
 1988              	.LVL159:
 1989              		.loc 1 1366 11 view .LVU636
 1990 050a 10F0020F 		tst	r0, #2
 1991 050e 0099     		ldr	r1, [sp]
 1992 0510 00F0CD80 		beq	.L135
 1993              		.loc 1 1368 5 is_stmt 1 view .LVU637
 1994 0514 07F5A067 		add	r7, r7, #1280
 1995              	.LVL160:
ARM GAS  C:\Users\DEVELO~1\AppData\Local\Temp\ccbkr0PB.s 			page 36


 1996              		.loc 1 1368 5 is_stmt 0 view .LVU638
 1997 0518 0223     		movs	r3, #2
 1998 051a 07EB0902 		add	r2, r7, r9
 1999 051e 9360     		str	r3, [r2, #8]
 2000              		.loc 1 1370 5 is_stmt 1 view .LVU639
 2001              		.loc 1 1370 24 is_stmt 0 view .LVU640
 2002 0520 96F84D30 		ldrb	r3, [r6, #77]	@ zero_extendqisi2
 2003              		.loc 1 1370 8 view .LVU641
 2004 0524 012B     		cmp	r3, #1
 2005 0526 00F0EA80 		beq	.L295
 2006              		.loc 1 1375 10 is_stmt 1 view .LVU642
 2007 052a 023B     		subs	r3, r3, #2
 2008 052c 072B     		cmp	r3, #7
 2009 052e 25D8     		bhi	.L181
 2010 0530 01A0     		adr	r0, .L139
 2011 0532 50F823F0 		ldr	pc, [r0, r3, lsl #2]
 2012 0536 00BF     		.p2align 2
 2013              	.L139:
 2014 0538 5F010000 		.word	.L119+1
 2015 053c E9050000 		.word	.L144+1
 2016 0540 D1050000 		.word	.L143+1
 2017 0544 99050000 		.word	.L142+1
 2018 0548 89050000 		.word	.L186+1
 2019 054c 59050000 		.word	.L138+1
 2020 0550 23060000 		.word	.L140+1
 2021 0554 59050000 		.word	.L138+1
 2022              		.p2align 1
 2023              	.L138:
 2024              		.loc 1 1383 7 view .LVU643
 2025              		.loc 1 1383 29 is_stmt 0 view .LVU644
 2026 0558 4FF00203 		mov	r3, #2
 2027 055c 86F84D30 		strb	r3, [r6, #77]
 2028              		.loc 1 1384 7 is_stmt 1 view .LVU645
 2029              		.loc 1 1384 29 is_stmt 0 view .LVU646
 2030 0560 736C     		ldr	r3, [r6, #68]
 2031 0562 0133     		adds	r3, r3, #1
 2032              		.loc 1 1385 10 view .LVU647
 2033 0564 022B     		cmp	r3, #2
 2034              		.loc 1 1384 29 view .LVU648
 2035 0566 7364     		str	r3, [r6, #68]
 2036              		.loc 1 1385 7 is_stmt 1 view .LVU649
 2037              		.loc 1 1385 10 is_stmt 0 view .LVU650
 2038 0568 40F24F81 		bls	.L146
 2039              		.loc 1 1387 9 is_stmt 1 view .LVU651
 2040              		.loc 1 1387 32 is_stmt 0 view .LVU652
 2041 056c 0023     		movs	r3, #0
 2042 056e 7364     		str	r3, [r6, #68]
 2043              		.loc 1 1389 9 is_stmt 1 view .LVU653
 2044              		.loc 1 1389 12 is_stmt 0 view .LVU654
 2045 0570 B37E     		ldrb	r3, [r6, #26]	@ zero_extendqisi2
 2046 0572 012B     		cmp	r3, #1
 2047 0574 00F07981 		beq	.L296
 2048              	.LVL161:
 2049              	.L281:
 2050              		.loc 1 1389 12 view .LVU655
 2051              	.LBE46:
 2052              	.LBE74:
ARM GAS  C:\Users\DEVELO~1\AppData\Local\Temp\ccbkr0PB.s 			page 37


 2053              	.LBB75:
 2054              	.LBB28:
 2055              		.loc 1 1778 9 is_stmt 1 view .LVU656
 2056              		.loc 1 1778 35 is_stmt 0 view .LVU657
 2057 0578 86F84CA0 		strb	r10, [r6, #76]
 2058              	.L181:
 2059              		.loc 1 1799 5 is_stmt 1 view .LVU658
 2060 057c 96F84C20 		ldrb	r2, [r6, #76]	@ zero_extendqisi2
 2061 0580 2046     		mov	r0, r4
 2062 0582 FFF7FEFF 		bl	HAL_HCD_HC_NotifyURBChange_Callback
 2063              	.LVL162:
 2064 0586 EAE5     		b	.L119
 2065              	.L186:
 2066              		.loc 1 1767 7 view .LVU659
 2067              		.loc 1 1767 29 is_stmt 0 view .LVU660
 2068 0588 4FF00203 		mov	r3, #2
 2069 058c 86F84D30 		strb	r3, [r6, #77]
 2070              		.loc 1 1768 7 is_stmt 1 view .LVU661
 2071              		.loc 1 1768 34 is_stmt 0 view .LVU662
 2072 0590 0523     		movs	r3, #5
 2073 0592 86F84C30 		strb	r3, [r6, #76]
 2074 0596 F1E7     		b	.L181
 2075              	.LVL163:
 2076              	.L142:
 2077              		.loc 1 1768 34 view .LVU663
 2078              	.LBE28:
 2079              	.LBE75:
 2080              	.LBB76:
 2081              	.LBB47:
 2082              		.loc 1 1415 7 is_stmt 1 view .LVU664
 2083              		.loc 1 1417 10 is_stmt 0 view .LVU665
 2084 0598 F07E     		ldrb	r0, [r6, #27]	@ zero_extendqisi2
 2085              		.loc 1 1415 29 view .LVU666
 2086 059a 4FF00203 		mov	r3, #2
 2087              		.loc 1 1417 10 view .LVU667
 2088 059e 0128     		cmp	r0, #1
 2089              		.loc 1 1415 29 view .LVU668
 2090 05a0 86F84D30 		strb	r3, [r6, #77]
 2091              		.loc 1 1417 7 is_stmt 1 view .LVU669
 2092              		.loc 1 1417 10 is_stmt 0 view .LVU670
 2093 05a4 EAD1     		bne	.L181
 2094              		.loc 1 1419 9 is_stmt 1 view .LVU671
 2095              		.loc 1 1419 28 is_stmt 0 view .LVU672
 2096 05a6 96F82630 		ldrb	r3, [r6, #38]	@ zero_extendqisi2
 2097              		.loc 1 1419 12 view .LVU673
 2098 05aa 032B     		cmp	r3, #3
 2099 05ac 00F03881 		beq	.L297
 2100              		.loc 1 1441 11 is_stmt 1 view .LVU674
 2101              		.loc 1 1441 37 is_stmt 0 view .LVU675
 2102 05b0 4FF00202 		mov	r2, #2
 2103              		.loc 1 1444 12 view .LVU676
 2104 05b4 13F0FD0F 		tst	r3, #253
 2105              		.loc 1 1441 37 view .LVU677
 2106 05b8 86F84C20 		strb	r2, [r6, #76]
 2107              		.loc 1 1444 9 is_stmt 1 view .LVU678
 2108              		.loc 1 1444 12 is_stmt 0 view .LVU679
 2109 05bc DED1     		bne	.L181
ARM GAS  C:\Users\DEVELO~1\AppData\Local\Temp\ccbkr0PB.s 			page 38


 2110              	.LVL164:
 2111              	.L280:
 2112              		.loc 1 1444 12 view .LVU680
 2113              	.LBE47:
 2114              	.LBE76:
 2115              	.LBB77:
 2116              	.LBB29:
 2117              		.loc 1 1785 9 is_stmt 1 view .LVU681
 2118              		.loc 1 1785 16 is_stmt 0 view .LVU682
 2119 05be 57F80930 		ldr	r3, [r7, r9]
 2120              	.LVL165:
 2121              		.loc 1 1786 9 is_stmt 1 view .LVU683
 2122              		.loc 1 1786 16 is_stmt 0 view .LVU684
 2123 05c2 23F08043 		bic	r3, r3, #1073741824
 2124              	.LVL166:
 2125              		.loc 1 1787 9 is_stmt 1 view .LVU685
 2126              		.loc 1 1787 16 is_stmt 0 view .LVU686
 2127 05c6 43F00043 		orr	r3, r3, #-2147483648
 2128              	.LVL167:
 2129              		.loc 1 1788 9 is_stmt 1 view .LVU687
 2130              		.loc 1 1788 32 is_stmt 0 view .LVU688
 2131 05ca 47F80930 		str	r3, [r7, r9]
 2132 05ce D5E7     		b	.L181
 2133              	.LVL168:
 2134              	.L143:
 2135              		.loc 1 1788 32 view .LVU689
 2136              	.LBE29:
 2137              	.LBE77:
 2138              	.LBB78:
 2139              	.LBB48:
 2140              		.loc 1 1481 7 is_stmt 1 view .LVU690
 2141              		.loc 1 1481 29 is_stmt 0 view .LVU691
 2142 05d0 4FF00203 		mov	r3, #2
 2143 05d4 86F84D30 		strb	r3, [r6, #77]
 2144              		.loc 1 1482 7 is_stmt 1 view .LVU692
 2145              		.loc 1 1482 33 is_stmt 0 view .LVU693
 2146 05d8 86F84C30 		strb	r3, [r6, #76]
 2147              		.loc 1 1484 7 is_stmt 1 view .LVU694
 2148              		.loc 1 1484 53 is_stmt 0 view .LVU695
 2149 05dc 96F82630 		ldrb	r3, [r6, #38]	@ zero_extendqisi2
 2150              		.loc 1 1484 10 view .LVU696
 2151 05e0 13F0FD0F 		tst	r3, #253
 2152 05e4 CAD1     		bne	.L181
 2153 05e6 EAE7     		b	.L280
 2154              	.L144:
 2155              		.loc 1 1457 7 is_stmt 1 view .LVU697
 2156              		.loc 1 1457 29 is_stmt 0 view .LVU698
 2157 05e8 4FF00203 		mov	r3, #2
 2158 05ec 86F84D30 		strb	r3, [r6, #77]
 2159              		.loc 1 1459 7 is_stmt 1 view .LVU699
 2160              		.loc 1 1459 10 is_stmt 0 view .LVU700
 2161 05f0 F37E     		ldrb	r3, [r6, #27]	@ zero_extendqisi2
 2162 05f2 012B     		cmp	r3, #1
 2163 05f4 C2D1     		bne	.L181
 2164              		.loc 1 1461 9 is_stmt 1 view .LVU701
 2165              		.loc 1 1461 35 is_stmt 0 view .LVU702
 2166 05f6 4FF00203 		mov	r3, #2
ARM GAS  C:\Users\DEVELO~1\AppData\Local\Temp\ccbkr0PB.s 			page 39


 2167 05fa 86F84C30 		strb	r3, [r6, #76]
 2168              		.loc 1 1464 9 is_stmt 1 view .LVU703
 2169              		.loc 1 1464 32 is_stmt 0 view .LVU704
 2170 05fe 5368     		ldr	r3, [r2, #4]
 2171 0600 43F48033 		orr	r3, r3, #65536
 2172 0604 5360     		str	r3, [r2, #4]
 2173              		.loc 1 1465 9 is_stmt 1 view .LVU705
 2174              		.loc 1 1465 34 is_stmt 0 view .LVU706
 2175 0606 D368     		ldr	r3, [r2, #12]
 2176 0608 43F04003 		orr	r3, r3, #64
 2177 060c D360     		str	r3, [r2, #12]
 2178              		.loc 1 1466 9 is_stmt 1 view .LVU707
 2179              		.loc 1 1466 34 is_stmt 0 view .LVU708
 2180 060e D368     		ldr	r3, [r2, #12]
 2181 0610 23F02003 		bic	r3, r3, #32
 2182 0614 D360     		str	r3, [r2, #12]
 2183              		.loc 1 1468 9 is_stmt 1 view .LVU709
 2184              		.loc 1 1468 55 is_stmt 0 view .LVU710
 2185 0616 96F82630 		ldrb	r3, [r6, #38]	@ zero_extendqisi2
 2186              		.loc 1 1468 12 view .LVU711
 2187 061a 13F0FD0F 		tst	r3, #253
 2188 061e ADD1     		bne	.L181
 2189 0620 CDE7     		b	.L280
 2190              	.L140:
 2191              		.loc 1 1496 7 is_stmt 1 view .LVU712
 2192              		.loc 1 1496 29 is_stmt 0 view .LVU713
 2193 0622 4FF00203 		mov	r3, #2
 2194              		.loc 1 1498 33 view .LVU714
 2195 0626 86F84CA0 		strb	r10, [r6, #76]
 2196              		.loc 1 1496 29 view .LVU715
 2197 062a 86F84D30 		strb	r3, [r6, #77]
 2198              		.loc 1 1497 7 is_stmt 1 view .LVU716
 2199              		.loc 1 1497 29 is_stmt 0 view .LVU717
 2200 062e 736C     		ldr	r3, [r6, #68]
 2201 0630 0133     		adds	r3, r3, #1
 2202 0632 7364     		str	r3, [r6, #68]
 2203              		.loc 1 1498 7 is_stmt 1 view .LVU718
 2204 0634 A2E7     		b	.L181
 2205              	.LVL169:
 2206              	.L286:
 2207              		.loc 1 1498 7 is_stmt 0 view .LVU719
 2208              	.LBE48:
 2209              	.LBE78:
 2210              		.loc 1 576 11 is_stmt 1 view .LVU720
 2211              		.loc 1 576 17 is_stmt 0 view .LVU721
 2212 0636 0121     		movs	r1, #1
 2213 0638 2068     		ldr	r0, [r4]
 2214 063a FFF7FEFF 		bl	USB_InitFSLSPClkSel
 2215              	.LVL170:
 2216 063e 57E5     		b	.L103
 2217              	.LVL171:
 2218              	.L165:
 2219              	.LBB79:
 2220              	.LBB30:
 2221              		.loc 1 1637 8 is_stmt 1 view .LVU722
 2222              		.loc 1 1637 12 is_stmt 0 view .LVU723
 2223 0640 2068     		ldr	r0, [r4]
ARM GAS  C:\Users\DEVELO~1\AppData\Local\Temp\ccbkr0PB.s 			page 40


 2224 0642 0091     		str	r1, [sp]
 2225 0644 FFF7FEFF 		bl	USB_ReadChInterrupts
 2226              	.LVL172:
 2227              		.loc 1 1637 11 view .LVU724
 2228 0648 10F0400F 		tst	r0, #64
 2229 064c 0099     		ldr	r1, [sp]
 2230 064e 45D0     		beq	.L169
 2231              		.loc 1 1639 5 is_stmt 1 view .LVU725
 2232              		.loc 1 1639 27 is_stmt 0 view .LVU726
 2233 0650 0523     		movs	r3, #5
 2234 0652 86F84D30 		strb	r3, [r6, #77]
 2235              		.loc 1 1641 5 is_stmt 1 view .LVU727
 2236              		.loc 1 1641 8 is_stmt 0 view .LVU728
 2237 0656 B37E     		ldrb	r3, [r6, #26]	@ zero_extendqisi2
 2238 0658 0BB9     		cbnz	r3, .L170
 2239              		.loc 1 1643 7 is_stmt 1 view .LVU729
 2240              		.loc 1 1643 31 is_stmt 0 view .LVU730
 2241 065a 0123     		movs	r3, #1
 2242 065c 7376     		strb	r3, [r6, #25]
 2243              	.L170:
 2244              		.loc 1 1646 5 is_stmt 1 view .LVU731
 2245              		.loc 1 1646 28 is_stmt 0 view .LVU732
 2246 065e 0023     		movs	r3, #0
 2247              		.loc 1 1647 11 view .LVU733
 2248 0660 2068     		ldr	r0, [r4]
 2249              		.loc 1 1646 28 view .LVU734
 2250 0662 7364     		str	r3, [r6, #68]
 2251              		.loc 1 1647 5 is_stmt 1 view .LVU735
 2252              		.loc 1 1647 11 is_stmt 0 view .LVU736
 2253 0664 FFF7FEFF 		bl	USB_HC_Halt
 2254              	.LVL173:
 2255              		.loc 1 1648 5 is_stmt 1 view .LVU737
 2256 0668 07F5A063 		add	r3, r7, #1280
 2257 066c 4022     		movs	r2, #64
 2258 066e 4B44     		add	r3, r3, r9
 2259 0670 9A60     		str	r2, [r3, #8]
 2260 0672 74E5     		b	.L119
 2261              	.LVL174:
 2262              	.L294:
 2263              		.loc 1 1648 5 is_stmt 0 view .LVU738
 2264              	.LBE30:
 2265              	.LBE79:
 2266              	.LBB80:
 2267              	.LBB19:
 2268              		.loc 1 1837 11 is_stmt 1 view .LVU739
 2269              		.loc 1 1837 17 is_stmt 0 view .LVU740
 2270 0674 3A46     		mov	r2, r7
 2271 0676 2846     		mov	r0, r5
 2272 0678 FFF7FEFF 		bl	USB_ReadPacket
 2273              	.LVL175:
 2274              		.loc 1 1841 11 is_stmt 1 view .LVU741
 2275              		.loc 1 1841 37 is_stmt 0 view .LVU742
 2276 067c D8F82C30 		ldr	r3, [r8, #44]
 2277              		.loc 1 1845 29 view .LVU743
 2278 0680 05F5A065 		add	r5, r5, #1280
 2279              	.LVL176:
 2280              		.loc 1 1842 38 view .LVU744
ARM GAS  C:\Users\DEVELO~1\AppData\Local\Temp\ccbkr0PB.s 			page 41


 2281 0684 D8F83820 		ldr	r2, [r8, #56]
 2282              		.loc 1 1841 37 view .LVU745
 2283 0688 3B44     		add	r3, r3, r7
 2284              		.loc 1 1842 38 view .LVU746
 2285 068a 3A44     		add	r2, r2, r7
 2286              		.loc 1 1841 37 view .LVU747
 2287 068c C8F82C30 		str	r3, [r8, #44]
 2288              		.loc 1 1842 11 is_stmt 1 view .LVU748
 2289              		.loc 1 1845 29 is_stmt 0 view .LVU749
 2290 0690 05EB4613 		add	r3, r5, r6, lsl #5
 2291              		.loc 1 1845 43 view .LVU750
 2292 0694 1B69     		ldr	r3, [r3, #16]
 2293              		.loc 1 1842 38 view .LVU751
 2294 0696 C8F83820 		str	r2, [r8, #56]
 2295              		.loc 1 1845 11 is_stmt 1 view .LVU752
 2296              	.LVL177:
 2297              		.loc 1 1847 11 view .LVU753
 2298              		.loc 1 1845 29 is_stmt 0 view .LVU754
 2299 069a 7201     		lsls	r2, r6, #5
 2300              		.loc 1 1845 26 view .LVU755
 2301 069c C3F3C943 		ubfx	r3, r3, #19, #10
 2302              	.LVL178:
 2303              		.loc 1 1847 54 view .LVU756
 2304 06a0 1BB1     		cbz	r3, .L278
 2305              		.loc 1 1847 31 view .LVU757
 2306 06a2 B8F82830 		ldrh	r3, [r8, #40]
 2307              		.loc 1 1847 54 view .LVU758
 2308 06a6 BB42     		cmp	r3, r7
 2309 06a8 65D0     		beq	.L195
 2310              	.L278:
 2311              		.loc 1 1847 54 view .LVU759
 2312              	.LBE19:
 2313              	.LBE80:
 2314              		.loc 1 634 7 view .LVU760
 2315 06aa 2568     		ldr	r5, [r4]
 2316              	.LVL179:
 2317              		.loc 1 634 7 view .LVU761
 2318 06ac 09E5     		b	.L193
 2319              	.LVL180:
 2320              	.L135:
 2321              	.LBB81:
 2322              	.LBB49:
 2323              		.loc 1 1514 8 is_stmt 1 view .LVU762
 2324              		.loc 1 1514 12 is_stmt 0 view .LVU763
 2325 06ae 2068     		ldr	r0, [r4]
 2326 06b0 0091     		str	r1, [sp]
 2327 06b2 FFF7FEFF 		bl	USB_ReadChInterrupts
 2328              	.LVL181:
 2329              		.loc 1 1514 11 view .LVU764
 2330 06b6 10F04003 		ands	r3, r0, #64
 2331 06ba 0099     		ldr	r1, [sp]
 2332 06bc 26D0     		beq	.L153
 2333              		.loc 1 1516 5 is_stmt 1 view .LVU765
 2334 06be 07F5A063 		add	r3, r7, #1280
 2335 06c2 4022     		movs	r2, #64
 2336 06c4 4B44     		add	r3, r3, r9
 2337 06c6 9A60     		str	r2, [r3, #8]
ARM GAS  C:\Users\DEVELO~1\AppData\Local\Temp\ccbkr0PB.s 			page 42


 2338              		.loc 1 1517 5 view .LVU766
 2339              		.loc 1 1517 27 is_stmt 0 view .LVU767
 2340 06c8 0523     		movs	r3, #5
 2341 06ca 86F84D30 		strb	r3, [r6, #77]
 2342              		.loc 1 1519 5 is_stmt 1 view .LVU768
 2343              		.loc 1 1519 8 is_stmt 0 view .LVU769
 2344 06ce B37E     		ldrb	r3, [r6, #26]	@ zero_extendqisi2
 2345 06d0 03B9     		cbnz	r3, .L277
 2346              		.loc 1 1521 7 is_stmt 1 view .LVU770
 2347              		.loc 1 1521 30 is_stmt 0 view .LVU771
 2348 06d2 7364     		str	r3, [r6, #68]
 2349              		.loc 1 1524 5 is_stmt 1 view .LVU772
 2350              	.L277:
 2351              		.loc 1 1524 5 is_stmt 0 view .LVU773
 2352              	.LBE49:
 2353              	.LBE81:
 2354              	.LBB82:
 2355              	.LBB31:
 2356              		.loc 1 1654 5 is_stmt 1 view .LVU774
 2357              		.loc 1 1654 11 is_stmt 0 view .LVU775
 2358 06d4 2068     		ldr	r0, [r4]
 2359 06d6 FFF7FEFF 		bl	USB_HC_Halt
 2360              	.LVL182:
 2361 06da 40E5     		b	.L119
 2362              	.L169:
 2363              		.loc 1 1650 8 is_stmt 1 view .LVU776
 2364              		.loc 1 1650 12 is_stmt 0 view .LVU777
 2365 06dc 2068     		ldr	r0, [r4]
 2366 06de 0091     		str	r1, [sp]
 2367 06e0 FFF7FEFF 		bl	USB_ReadChInterrupts
 2368              	.LVL183:
 2369              		.loc 1 1650 11 view .LVU778
 2370 06e4 10F00803 		ands	r3, r0, #8
 2371 06e8 0099     		ldr	r1, [sp]
 2372 06ea 2DD0     		beq	.L171
 2373              		.loc 1 1652 5 is_stmt 1 view .LVU779
 2374 06ec 07F5A063 		add	r3, r7, #1280
 2375 06f0 0822     		movs	r2, #8
 2376 06f2 4B44     		add	r3, r3, r9
 2377 06f4 9A60     		str	r2, [r3, #8]
 2378              		.loc 1 1653 5 view .LVU780
 2379              		.loc 1 1653 27 is_stmt 0 view .LVU781
 2380 06f6 0623     		movs	r3, #6
 2381 06f8 86F84D30 		strb	r3, [r6, #77]
 2382 06fc EAE7     		b	.L277
 2383              	.LVL184:
 2384              	.L295:
 2385              		.loc 1 1653 27 view .LVU782
 2386              	.LBE31:
 2387              	.LBE82:
 2388              	.LBB83:
 2389              	.LBB50:
 2390              		.loc 1 1372 7 is_stmt 1 view .LVU783
 2391              		.loc 1 1373 33 is_stmt 0 view .LVU784
 2392 06fe 86F84C30 		strb	r3, [r6, #76]
 2393              		.loc 1 1372 29 view .LVU785
 2394 0702 4FF00203 		mov	r3, #2
ARM GAS  C:\Users\DEVELO~1\AppData\Local\Temp\ccbkr0PB.s 			page 43


 2395 0706 86F84D30 		strb	r3, [r6, #77]
 2396              		.loc 1 1373 7 is_stmt 1 view .LVU786
 2397 070a 37E7     		b	.L181
 2398              	.LVL185:
 2399              	.L153:
 2400              		.loc 1 1526 12 is_stmt 0 view .LVU787
 2401 070c 2068     		ldr	r0, [r4]
 2402 070e CDE90013 		strd	r1, r3, [sp]
 2403 0712 FFF7FEFF 		bl	USB_ReadChInterrupts
 2404              	.LVL186:
 2405              		.loc 1 1526 11 view .LVU788
 2406 0716 C006     		lsls	r0, r0, #27
 2407 0718 7FF521AD 		bpl	.L119
 2408              		.loc 1 1528 5 is_stmt 1 view .LVU789
 2409              		.loc 1 1528 24 is_stmt 0 view .LVU790
 2410 071c 96F82620 		ldrb	r2, [r6, #38]	@ zero_extendqisi2
 2411              		.loc 1 1528 8 view .LVU791
 2412 0720 032A     		cmp	r2, #3
 2413 0722 DDE90013 		ldrd	r1, r3, [sp]
 2414 0726 00F09980 		beq	.L298
 2415              		.loc 1 1534 10 is_stmt 1 view .LVU792
 2416              		.loc 1 1534 13 is_stmt 0 view .LVU793
 2417 072a 12F0FD02 		ands	r2, r2, #253
 2418 072e 37D1     		bne	.L156
 2419              		.loc 1 1537 7 is_stmt 1 view .LVU794
 2420              		.loc 1 1537 30 is_stmt 0 view .LVU795
 2421 0730 7264     		str	r2, [r6, #68]
 2422              		.loc 1 1539 7 is_stmt 1 view .LVU796
 2423              		.loc 1 1539 10 is_stmt 0 view .LVU797
 2424 0732 A379     		ldrb	r3, [r4, #6]	@ zero_extendqisi2
 2425 0734 7BB3     		cbz	r3, .L157
 2426              		.loc 1 1539 41 view .LVU798
 2427 0736 F37E     		ldrb	r3, [r6, #27]	@ zero_extendqisi2
 2428 0738 012B     		cmp	r3, #1
 2429 073a 2CD0     		beq	.L157
 2430              	.L279:
 2431              		.loc 1 1539 41 view .LVU799
 2432              	.LBE50:
 2433              	.LBE83:
 2434              	.LBB84:
 2435              	.LBB32:
 2436              		.loc 1 1670 5 is_stmt 1 view .LVU800
 2437 073c 07F5A063 		add	r3, r7, #1280
 2438              	.L276:
 2439              		.loc 1 1670 5 is_stmt 0 view .LVU801
 2440 0740 4B44     		add	r3, r3, r9
 2441 0742 1022     		movs	r2, #16
 2442 0744 9A60     		str	r2, [r3, #8]
 2443 0746 0AE5     		b	.L119
 2444              	.L171:
 2445              		.loc 1 1656 12 view .LVU802
 2446 0748 2068     		ldr	r0, [r4]
 2447 074a CDE90013 		strd	r1, r3, [sp]
 2448 074e FFF7FEFF 		bl	USB_ReadChInterrupts
 2449              	.LVL187:
 2450              		.loc 1 1656 11 view .LVU803
 2451 0752 10F0100F 		tst	r0, #16
ARM GAS  C:\Users\DEVELO~1\AppData\Local\Temp\ccbkr0PB.s 			page 44


 2452 0756 0099     		ldr	r1, [sp]
 2453 0758 35D0     		beq	.L172
 2454              		.loc 1 1658 5 is_stmt 1 view .LVU804
 2455              		.loc 1 1658 28 is_stmt 0 view .LVU805
 2456 075a 019B     		ldr	r3, [sp, #4]
 2457              		.loc 1 1659 27 view .LVU806
 2458 075c 86F84DA0 		strb	r10, [r6, #77]
 2459              		.loc 1 1658 28 view .LVU807
 2460 0760 7364     		str	r3, [r6, #68]
 2461              		.loc 1 1659 5 is_stmt 1 view .LVU808
 2462              		.loc 1 1661 5 view .LVU809
 2463              		.loc 1 1661 8 is_stmt 0 view .LVU810
 2464 0762 737E     		ldrb	r3, [r6, #25]	@ zero_extendqisi2
 2465 0764 1BB9     		cbnz	r3, .L173
 2466              		.loc 1 1663 7 is_stmt 1 view .LVU811
 2467              		.loc 1 1663 10 is_stmt 0 view .LVU812
 2468 0766 337E     		ldrb	r3, [r6, #24]	@ zero_extendqisi2
 2469 0768 0BB9     		cbnz	r3, .L173
 2470              		.loc 1 1665 9 is_stmt 1 view .LVU813
 2471              		.loc 1 1665 33 is_stmt 0 view .LVU814
 2472 076a 0123     		movs	r3, #1
 2473 076c 7376     		strb	r3, [r6, #25]
 2474              	.L173:
 2475              		.loc 1 1669 5 is_stmt 1 view .LVU815
 2476              		.loc 1 1669 11 is_stmt 0 view .LVU816
 2477 076e 2068     		ldr	r0, [r4]
 2478 0770 FFF7FEFF 		bl	USB_HC_Halt
 2479              	.LVL188:
 2480 0774 E2E7     		b	.L279
 2481              	.LVL189:
 2482              	.L195:
 2483              		.loc 1 1669 11 view .LVU817
 2484              	.LBE32:
 2485              	.LBE84:
 2486              	.LBB85:
 2487              	.LBB20:
 2488              		.loc 1 1850 13 is_stmt 1 view .LVU818
 2489              		.loc 1 1850 20 is_stmt 0 view .LVU819
 2490 0776 AB58     		ldr	r3, [r5, r2]
 2491              	.LVL190:
 2492              		.loc 1 1851 13 is_stmt 1 view .LVU820
 2493              		.loc 1 1851 20 is_stmt 0 view .LVU821
 2494 0778 23F08043 		bic	r3, r3, #1073741824
 2495              	.LVL191:
 2496              		.loc 1 1852 13 is_stmt 1 view .LVU822
 2497              		.loc 1 1852 20 is_stmt 0 view .LVU823
 2498 077c 43F00043 		orr	r3, r3, #-2147483648
 2499              	.LVL192:
 2500              		.loc 1 1853 13 is_stmt 1 view .LVU824
 2501              		.loc 1 1853 36 is_stmt 0 view .LVU825
 2502 0780 AB50     		str	r3, [r5, r2]
 2503              		.loc 1 1854 13 is_stmt 1 view .LVU826
 2504              		.loc 1 1854 39 is_stmt 0 view .LVU827
 2505 0782 3C23     		movs	r3, #60
 2506              	.LVL193:
 2507              		.loc 1 1854 39 view .LVU828
 2508 0784 03FB0643 		mla	r3, r3, r6, r4
ARM GAS  C:\Users\DEVELO~1\AppData\Local\Temp\ccbkr0PB.s 			page 45


 2509 0788 93F83C20 		ldrb	r2, [r3, #60]	@ zero_extendqisi2
 2510              	.LVL194:
 2511              		.loc 1 1854 39 view .LVU829
 2512 078c 82F00102 		eor	r2, r2, #1
 2513 0790 83F83C20 		strb	r2, [r3, #60]
 2514              	.LVL195:
 2515              		.loc 1 1854 39 view .LVU830
 2516 0794 89E7     		b	.L278
 2517              	.LVL196:
 2518              	.L157:
 2519              		.loc 1 1854 39 view .LVU831
 2520              	.LBE20:
 2521              	.LBE85:
 2522              	.LBB86:
 2523              	.LBB51:
 2524              		.loc 1 1541 9 is_stmt 1 view .LVU832
 2525              		.loc 1 1541 31 is_stmt 0 view .LVU833
 2526 0796 86F84DA0 		strb	r10, [r6, #77]
 2527              		.loc 1 1542 9 is_stmt 1 view .LVU834
 2528              		.loc 1 1542 15 is_stmt 0 view .LVU835
 2529 079a 2068     		ldr	r0, [r4]
 2530 079c FFF7FEFF 		bl	USB_HC_Halt
 2531              	.LVL197:
 2532              	.L156:
 2533              		.loc 1 1548 5 is_stmt 1 view .LVU836
 2534              		.loc 1 1550 5 view .LVU837
 2535              		.loc 1 1550 8 is_stmt 0 view .LVU838
 2536 07a0 F37E     		ldrb	r3, [r6, #27]	@ zero_extendqisi2
 2537 07a2 012B     		cmp	r3, #1
 2538              		.loc 1 1553 7 view .LVU839
 2539 07a4 07F5A063 		add	r3, r7, #1280
 2540              		.loc 1 1550 8 view .LVU840
 2541 07a8 CAD1     		bne	.L276
 2542              		.loc 1 1552 7 is_stmt 1 view .LVU841
 2543              		.loc 1 1552 33 is_stmt 0 view .LVU842
 2544 07aa 4FF00002 		mov	r2, #0
 2545 07ae F276     		strb	r2, [r6, #27]
 2546              		.loc 1 1553 7 is_stmt 1 view .LVU843
 2547 07b0 03EB0902 		add	r2, r3, r9
 2548 07b4 5168     		ldr	r1, [r2, #4]
 2549 07b6 21F48031 		bic	r1, r1, #65536
 2550 07ba 5160     		str	r1, [r2, #4]
 2551              		.loc 1 1554 7 view .LVU844
 2552 07bc D168     		ldr	r1, [r2, #12]
 2553 07be 41F02001 		orr	r1, r1, #32
 2554 07c2 D160     		str	r1, [r2, #12]
 2555              		.loc 1 1557 5 view .LVU845
 2556 07c4 BCE7     		b	.L276
 2557              	.L172:
 2558              		.loc 1 1557 5 is_stmt 0 view .LVU846
 2559              	.LBE51:
 2560              	.LBE86:
 2561              	.LBB87:
 2562              	.LBB33:
 2563              		.loc 1 1672 8 is_stmt 1 view .LVU847
 2564              		.loc 1 1672 12 is_stmt 0 view .LVU848
 2565 07c6 2068     		ldr	r0, [r4]
ARM GAS  C:\Users\DEVELO~1\AppData\Local\Temp\ccbkr0PB.s 			page 46


 2566 07c8 0091     		str	r1, [sp]
 2567 07ca FFF7FEFF 		bl	USB_ReadChInterrupts
 2568              	.LVL198:
 2569              		.loc 1 1672 11 view .LVU849
 2570 07ce 10F0800F 		tst	r0, #128
 2571 07d2 0099     		ldr	r1, [sp]
 2572 07d4 62D0     		beq	.L174
 2573              		.loc 1 1674 5 is_stmt 1 view .LVU850
 2574              		.loc 1 1674 8 is_stmt 0 view .LVU851
 2575 07d6 A379     		ldrb	r3, [r4, #6]	@ zero_extendqisi2
 2576 07d8 002B     		cmp	r3, #0
 2577 07da 56D0     		beq	.L299
 2578              		.loc 1 1681 7 is_stmt 1 view .LVU852
 2579              		.loc 1 1681 29 is_stmt 0 view .LVU853
 2580 07dc 736C     		ldr	r3, [r6, #68]
 2581 07de 0133     		adds	r3, r3, #1
 2582              		.loc 1 1682 10 view .LVU854
 2583 07e0 022B     		cmp	r3, #2
 2584              		.loc 1 1681 29 view .LVU855
 2585 07e2 7364     		str	r3, [r6, #68]
 2586              		.loc 1 1682 7 is_stmt 1 view .LVU856
 2587              		.loc 1 1682 10 is_stmt 0 view .LVU857
 2588 07e4 46D8     		bhi	.L300
 2589              		.loc 1 1695 9 is_stmt 1 view .LVU858
 2590              		.loc 1 1695 35 is_stmt 0 view .LVU859
 2591 07e6 4FF00203 		mov	r3, #2
 2592              		.loc 1 1698 18 view .LVU860
 2593 07ea 07F5A067 		add	r7, r7, #1280
 2594              	.LVL199:
 2595              		.loc 1 1695 35 view .LVU861
 2596 07ee 86F84C30 		strb	r3, [r6, #76]
 2597              		.loc 1 1698 9 is_stmt 1 view .LVU862
 2598              		.loc 1 1698 16 is_stmt 0 view .LVU863
 2599 07f2 57F80930 		ldr	r3, [r7, r9]
 2600              	.LVL200:
 2601              		.loc 1 1699 9 is_stmt 1 view .LVU864
 2602              		.loc 1 1699 16 is_stmt 0 view .LVU865
 2603 07f6 23F08043 		bic	r3, r3, #1073741824
 2604              	.LVL201:
 2605              		.loc 1 1700 9 is_stmt 1 view .LVU866
 2606              		.loc 1 1700 16 is_stmt 0 view .LVU867
 2607 07fa 43F00043 		orr	r3, r3, #-2147483648
 2608              	.LVL202:
 2609              		.loc 1 1701 9 is_stmt 1 view .LVU868
 2610              		.loc 1 1701 32 is_stmt 0 view .LVU869
 2611 07fe 47F80930 		str	r3, [r7, r9]
 2612              	.LVL203:
 2613              	.L176:
 2614              		.loc 1 1704 5 is_stmt 1 view .LVU870
 2615 0802 4F44     		add	r7, r7, r9
 2616 0804 8023     		movs	r3, #128
 2617 0806 BB60     		str	r3, [r7, #8]
 2618 0808 A9E4     		b	.L119
 2619              	.LVL204:
 2620              	.L146:
 2621              		.loc 1 1704 5 is_stmt 0 view .LVU871
 2622              	.LBE33:
ARM GAS  C:\Users\DEVELO~1\AppData\Local\Temp\ccbkr0PB.s 			page 47


 2623              	.LBE87:
 2624              	.LBB88:
 2625              	.LBB52:
 2626              		.loc 1 1400 9 is_stmt 1 view .LVU872
 2627              		.loc 1 1400 35 is_stmt 0 view .LVU873
 2628 080a 4FF00203 		mov	r3, #2
 2629 080e 86F84C30 		strb	r3, [r6, #76]
 2630              		.loc 1 1402 9 is_stmt 1 view .LVU874
 2631              		.loc 1 1402 55 is_stmt 0 view .LVU875
 2632 0812 96F82630 		ldrb	r3, [r6, #38]	@ zero_extendqisi2
 2633              		.loc 1 1402 12 view .LVU876
 2634 0816 13F0FD0F 		tst	r3, #253
 2635 081a 7FF4AFAE 		bne	.L181
 2636 081e CEE6     		b	.L280
 2637              	.L297:
 2638              		.loc 1 1421 11 is_stmt 1 view .LVU877
 2639              		.loc 1 1421 37 is_stmt 0 view .LVU878
 2640 0820 B36C     		ldr	r3, [r6, #72]
 2641 0822 0133     		adds	r3, r3, #1
 2642              		.loc 1 1422 14 view .LVU879
 2643 0824 022B     		cmp	r3, #2
 2644              		.loc 1 1421 37 view .LVU880
 2645 0826 B364     		str	r3, [r6, #72]
 2646              		.loc 1 1422 11 is_stmt 1 view .LVU881
 2647              		.loc 1 1422 14 is_stmt 0 view .LVU882
 2648 0828 13D9     		bls	.L282
 2649              		.loc 1 1424 13 is_stmt 1 view .LVU883
 2650              		.loc 1 1424 40 is_stmt 0 view .LVU884
 2651 082a 0023     		movs	r3, #0
 2652 082c B364     		str	r3, [r6, #72]
 2653              		.loc 1 1425 13 is_stmt 1 view .LVU885
 2654              		.loc 1 1425 39 is_stmt 0 view .LVU886
 2655 082e F376     		strb	r3, [r6, #27]
 2656              		.loc 1 1427 13 is_stmt 1 view .LVU887
 2657              		.loc 1 1427 16 is_stmt 0 view .LVU888
 2658 0830 736C     		ldr	r3, [r6, #68]
 2659 0832 022B     		cmp	r3, #2
 2660 0834 00D8     		bhi	.L273
 2661              		.loc 1 1429 15 is_stmt 1 view .LVU889
 2662              		.loc 1 1429 46 is_stmt 0 view .LVU890
 2663 0836 3077     		strb	r0, [r6, #28]
 2664              		.loc 1 1431 13 is_stmt 1 view .LVU891
 2665              	.L273:
 2666              		.loc 1 1393 11 view .LVU892
 2667 0838 5368     		ldr	r3, [r2, #4]
 2668 083a 23F48033 		bic	r3, r3, #65536
 2669 083e 5360     		str	r3, [r2, #4]
 2670              		.loc 1 1396 9 view .LVU893
 2671 0840 9AE6     		b	.L281
 2672              	.L189:
 2673              		.loc 1 1396 9 is_stmt 0 view .LVU894
 2674              	.LBE52:
 2675              	.LBE88:
 2676              	.LBB89:
 2677              	.LBB34:
 2678              		.loc 1 1742 7 is_stmt 1 view .LVU895
 2679              		.loc 1 1742 29 is_stmt 0 view .LVU896
ARM GAS  C:\Users\DEVELO~1\AppData\Local\Temp\ccbkr0PB.s 			page 48


 2680 0842 4FF00203 		mov	r3, #2
 2681 0846 86F84D30 		strb	r3, [r6, #77]
 2682              		.loc 1 1744 7 is_stmt 1 view .LVU897
 2683              		.loc 1 1744 10 is_stmt 0 view .LVU898
 2684 084a F37E     		ldrb	r3, [r6, #27]	@ zero_extendqisi2
 2685 084c 012B     		cmp	r3, #1
 2686 084e 7FF495AE 		bne	.L181
 2687              	.LVL205:
 2688              	.L282:
 2689              		.loc 1 1746 9 is_stmt 1 view .LVU899
 2690              		.loc 1 1746 35 is_stmt 0 view .LVU900
 2691 0852 4FF00203 		mov	r3, #2
 2692 0856 86F84C30 		strb	r3, [r6, #76]
 2693 085a 8FE6     		b	.L181
 2694              	.LVL206:
 2695              	.L298:
 2696              		.loc 1 1746 35 view .LVU901
 2697              	.LBE34:
 2698              	.LBE89:
 2699              	.LBB90:
 2700              	.LBB53:
 2701              		.loc 1 1530 7 is_stmt 1 view .LVU902
 2702              		.loc 1 1531 29 is_stmt 0 view .LVU903
 2703 085c 86F84DA0 		strb	r10, [r6, #77]
 2704              		.loc 1 1530 30 view .LVU904
 2705 0860 7364     		str	r3, [r6, #68]
 2706              		.loc 1 1531 7 is_stmt 1 view .LVU905
 2707              		.loc 1 1532 7 view .LVU906
 2708              		.loc 1 1532 13 is_stmt 0 view .LVU907
 2709 0862 2068     		ldr	r0, [r4]
 2710 0864 FFF7FEFF 		bl	USB_HC_Halt
 2711              	.LVL207:
 2712 0868 9AE7     		b	.L156
 2713              	.LVL208:
 2714              	.L296:
 2715              		.loc 1 1391 11 is_stmt 1 view .LVU908
 2716              		.loc 1 1391 37 is_stmt 0 view .LVU909
 2717 086a 4FF00003 		mov	r3, #0
 2718 086e F376     		strb	r3, [r6, #27]
 2719              		.loc 1 1392 11 is_stmt 1 view .LVU910
 2720              		.loc 1 1392 42 is_stmt 0 view .LVU911
 2721 0870 3377     		strb	r3, [r6, #28]
 2722 0872 E1E7     		b	.L273
 2723              	.LVL209:
 2724              	.L300:
 2725              		.loc 1 1392 42 view .LVU912
 2726              	.LBE53:
 2727              	.LBE90:
 2728              	.LBB91:
 2729              	.LBB35:
 2730              		.loc 1 1684 9 is_stmt 1 view .LVU913
 2731              		.loc 1 1684 32 is_stmt 0 view .LVU914
 2732 0874 0023     		movs	r3, #0
 2733              		.loc 1 1690 9 view .LVU915
 2734 0876 0422     		movs	r2, #4
 2735 0878 2046     		mov	r0, r4
 2736              		.loc 1 1685 35 view .LVU916
ARM GAS  C:\Users\DEVELO~1\AppData\Local\Temp\ccbkr0PB.s 			page 49


 2737 087a 86F84CA0 		strb	r10, [r6, #76]
 2738              		.loc 1 1684 32 view .LVU917
 2739 087e 7364     		str	r3, [r6, #68]
 2740              		.loc 1 1685 9 is_stmt 1 view .LVU918
 2741              		.loc 1 1690 9 view .LVU919
 2742 0880 07F5A067 		add	r7, r7, #1280
 2743              	.LVL210:
 2744              		.loc 1 1690 9 is_stmt 0 view .LVU920
 2745 0884 FFF7FEFF 		bl	HAL_HCD_HC_NotifyURBChange_Callback
 2746              	.LVL211:
 2747 0888 BBE7     		b	.L176
 2748              	.LVL212:
 2749              	.L299:
 2750              		.loc 1 1676 7 is_stmt 1 view .LVU921
 2751              		.loc 1 1676 29 is_stmt 0 view .LVU922
 2752 088a 0723     		movs	r3, #7
 2753 088c 07F5A067 		add	r7, r7, #1280
 2754              	.LVL213:
 2755              		.loc 1 1676 29 view .LVU923
 2756 0890 86F84D30 		strb	r3, [r6, #77]
 2757              		.loc 1 1677 7 is_stmt 1 view .LVU924
 2758              		.loc 1 1677 13 is_stmt 0 view .LVU925
 2759 0894 2068     		ldr	r0, [r4]
 2760 0896 FFF7FEFF 		bl	USB_HC_Halt
 2761              	.LVL214:
 2762 089a B2E7     		b	.L176
 2763              	.LVL215:
 2764              	.L174:
 2765              		.loc 1 1706 8 is_stmt 1 view .LVU926
 2766              		.loc 1 1706 12 is_stmt 0 view .LVU927
 2767 089c 2068     		ldr	r0, [r4]
 2768 089e 0091     		str	r1, [sp]
 2769 08a0 FFF7FEFF 		bl	USB_ReadChInterrupts
 2770              	.LVL216:
 2771              		.loc 1 1706 11 view .LVU928
 2772 08a4 10F4806F 		tst	r0, #1024
 2773 08a8 0099     		ldr	r1, [sp]
 2774 08aa 0CD0     		beq	.L178
 2775              		.loc 1 1708 5 is_stmt 1 view .LVU929
 2776              		.loc 1 1708 27 is_stmt 0 view .LVU930
 2777 08ac 0923     		movs	r3, #9
 2778 08ae 86F84D30 		strb	r3, [r6, #77]
 2779              		.loc 1 1709 5 is_stmt 1 view .LVU931
 2780              		.loc 1 1709 11 is_stmt 0 view .LVU932
 2781 08b2 2068     		ldr	r0, [r4]
 2782 08b4 FFF7FEFF 		bl	USB_HC_Halt
 2783              	.LVL217:
 2784              		.loc 1 1710 5 is_stmt 1 view .LVU933
 2785 08b8 07F5A063 		add	r3, r7, #1280
 2786 08bc 4FF48062 		mov	r2, #1024
 2787 08c0 4B44     		add	r3, r3, r9
 2788 08c2 9A60     		str	r2, [r3, #8]
 2789 08c4 4BE4     		b	.L119
 2790              	.L178:
 2791              		.loc 1 1712 8 view .LVU934
 2792              		.loc 1 1712 12 is_stmt 0 view .LVU935
 2793 08c6 2068     		ldr	r0, [r4]
ARM GAS  C:\Users\DEVELO~1\AppData\Local\Temp\ccbkr0PB.s 			page 50


 2794 08c8 0091     		str	r1, [sp]
 2795 08ca FFF7FEFF 		bl	USB_ReadChInterrupts
 2796              	.LVL218:
 2797              		.loc 1 1712 11 view .LVU936
 2798 08ce 8107     		lsls	r1, r0, #30
 2799 08d0 7FF545AC 		bpl	.L119
 2800              		.loc 1 1714 5 is_stmt 1 view .LVU937
 2801 08d4 07F5A067 		add	r7, r7, #1280
 2802              	.LVL219:
 2803              		.loc 1 1714 5 is_stmt 0 view .LVU938
 2804 08d8 0223     		movs	r3, #2
 2805              		.loc 1 1716 8 view .LVU939
 2806 08da 0099     		ldr	r1, [sp]
 2807              		.loc 1 1714 5 view .LVU940
 2808 08dc 07EB0902 		add	r2, r7, r9
 2809 08e0 9360     		str	r3, [r2, #8]
 2810              		.loc 1 1716 5 is_stmt 1 view .LVU941
 2811              		.loc 1 1716 24 is_stmt 0 view .LVU942
 2812 08e2 96F84D30 		ldrb	r3, [r6, #77]	@ zero_extendqisi2
 2813              		.loc 1 1716 8 view .LVU943
 2814 08e6 012B     		cmp	r3, #1
 2815 08e8 14D0     		beq	.L301
 2816              		.loc 1 1740 10 is_stmt 1 view .LVU944
 2817 08ea 033B     		subs	r3, r3, #3
 2818 08ec 062B     		cmp	r3, #6
 2819 08ee 3FF636AC 		bhi	.L119
 2820 08f2 01A0     		adr	r0, .L185
 2821 08f4 50F823F0 		ldr	pc, [r0, r3, lsl #2]
 2822              		.p2align 2
 2823              	.L185:
 2824 08f8 43080000 		.word	.L189+1
 2825 08fc 8D090000 		.word	.L188+1
 2826 0900 75090000 		.word	.L187+1
 2827 0904 89050000 		.word	.L186+1
 2828 0908 5D090000 		.word	.L184+1
 2829 090c 5F010000 		.word	.L119+1
 2830 0910 5D090000 		.word	.L184+1
 2831              		.p2align 1
 2832              	.L301:
 2833              		.loc 1 1718 7 view .LVU945
 2834              		.loc 1 1719 33 is_stmt 0 view .LVU946
 2835 0914 86F84C30 		strb	r3, [r6, #76]
 2836              		.loc 1 1718 29 view .LVU947
 2837 0918 4FF00203 		mov	r3, #2
 2838 091c 86F84D30 		strb	r3, [r6, #77]
 2839              		.loc 1 1719 7 is_stmt 1 view .LVU948
 2840              		.loc 1 1721 7 view .LVU949
 2841              		.loc 1 1721 53 is_stmt 0 view .LVU950
 2842 0920 96F82630 		ldrb	r3, [r6, #38]	@ zero_extendqisi2
 2843              		.loc 1 1721 10 view .LVU951
 2844 0924 023B     		subs	r3, r3, #2
 2845 0926 012B     		cmp	r3, #1
 2846 0928 3FF628AE 		bhi	.L181
 2847              		.loc 1 1724 9 is_stmt 1 view .LVU952
 2848              		.loc 1 1724 23 is_stmt 0 view .LVU953
 2849 092c A379     		ldrb	r3, [r4, #6]	@ zero_extendqisi2
 2850              		.loc 1 1724 12 view .LVU954
ARM GAS  C:\Users\DEVELO~1\AppData\Local\Temp\ccbkr0PB.s 			page 51


 2851 092e 73B1     		cbz	r3, .L275
 2852              		.loc 1 1729 9 is_stmt 1 view .LVU955
 2853              		.loc 1 1729 12 is_stmt 0 view .LVU956
 2854 0930 012B     		cmp	r3, #1
 2855 0932 7FF423AE 		bne	.L181
 2856              		.loc 1 1729 62 view .LVU957
 2857 0936 736B     		ldr	r3, [r6, #52]
 2858              		.loc 1 1729 43 view .LVU958
 2859 0938 002B     		cmp	r3, #0
 2860 093a 3FF41FAE 		beq	.L181
 2861              		.loc 1 1731 11 is_stmt 1 view .LVU959
 2862              		.loc 1 1731 68 is_stmt 0 view .LVU960
 2863 093e 328D     		ldrh	r2, [r6, #40]
 2864              	.LVL220:
 2865              		.loc 1 1733 11 is_stmt 1 view .LVU961
 2866              		.loc 1 1731 80 is_stmt 0 view .LVU962
 2867 0940 013B     		subs	r3, r3, #1
 2868              	.LVL221:
 2869              		.loc 1 1731 80 view .LVU963
 2870 0942 1344     		add	r3, r3, r2
 2871              		.loc 1 1731 23 view .LVU964
 2872 0944 B3FBF2F3 		udiv	r3, r3, r2
 2873              		.loc 1 1733 14 view .LVU965
 2874 0948 DA07     		lsls	r2, r3, #31
 2875              	.LVL222:
 2876              		.loc 1 1733 14 view .LVU966
 2877 094a 7FF517AE 		bpl	.L181
 2878              	.LVL223:
 2879              	.L275:
 2880              		.loc 1 1735 13 is_stmt 1 view .LVU967
 2881              		.loc 1 1735 40 is_stmt 0 view .LVU968
 2882 094e 96F83D30 		ldrb	r3, [r6, #61]	@ zero_extendqisi2
 2883 0952 83F00103 		eor	r3, r3, #1
 2884 0956 86F83D30 		strb	r3, [r6, #61]
 2885 095a 0FE6     		b	.L181
 2886              	.L184:
 2887              		.loc 1 1773 7 is_stmt 1 view .LVU969
 2888              		.loc 1 1773 29 is_stmt 0 view .LVU970
 2889 095c 4FF00203 		mov	r3, #2
 2890 0960 86F84D30 		strb	r3, [r6, #77]
 2891              		.loc 1 1774 7 is_stmt 1 view .LVU971
 2892              		.loc 1 1774 29 is_stmt 0 view .LVU972
 2893 0964 736C     		ldr	r3, [r6, #68]
 2894 0966 0133     		adds	r3, r3, #1
 2895              		.loc 1 1775 10 view .LVU973
 2896 0968 022B     		cmp	r3, #2
 2897              		.loc 1 1774 29 view .LVU974
 2898 096a 7364     		str	r3, [r6, #68]
 2899              		.loc 1 1775 7 is_stmt 1 view .LVU975
 2900              		.loc 1 1775 10 is_stmt 0 view .LVU976
 2901 096c 09D9     		bls	.L190
 2902              		.loc 1 1777 9 is_stmt 1 view .LVU977
 2903              		.loc 1 1777 32 is_stmt 0 view .LVU978
 2904 096e 0023     		movs	r3, #0
 2905 0970 7364     		str	r3, [r6, #68]
 2906 0972 01E6     		b	.L281
 2907              	.L187:
ARM GAS  C:\Users\DEVELO~1\AppData\Local\Temp\ccbkr0PB.s 			page 52


 2908              		.loc 1 1762 7 is_stmt 1 view .LVU979
 2909              		.loc 1 1762 29 is_stmt 0 view .LVU980
 2910 0974 4FF00203 		mov	r3, #2
 2911 0978 86F84D30 		strb	r3, [r6, #77]
 2912              		.loc 1 1763 7 is_stmt 1 view .LVU981
 2913              		.loc 1 1763 34 is_stmt 0 view .LVU982
 2914 097c 86F84C30 		strb	r3, [r6, #76]
 2915 0980 FCE5     		b	.L181
 2916              	.L190:
 2917              		.loc 1 1782 9 is_stmt 1 view .LVU983
 2918              		.loc 1 1782 35 is_stmt 0 view .LVU984
 2919 0982 4FF00203 		mov	r3, #2
 2920 0986 86F84C30 		strb	r3, [r6, #76]
 2921 098a 18E6     		b	.L280
 2922              	.L188:
 2923              		.loc 1 1751 7 is_stmt 1 view .LVU985
 2924              		.loc 1 1751 29 is_stmt 0 view .LVU986
 2925 098c 4FF00203 		mov	r3, #2
 2926 0990 86F84D30 		strb	r3, [r6, #77]
 2927              		.loc 1 1752 7 is_stmt 1 view .LVU987
 2928              		.loc 1 1752 33 is_stmt 0 view .LVU988
 2929 0994 86F84C30 		strb	r3, [r6, #76]
 2930              		.loc 1 1754 7 is_stmt 1 view .LVU989
 2931              		.loc 1 1754 10 is_stmt 0 view .LVU990
 2932 0998 F37E     		ldrb	r3, [r6, #27]	@ zero_extendqisi2
 2933 099a 012B     		cmp	r3, #1
 2934 099c 7FF4EEAD 		bne	.L181
 2935              		.loc 1 1756 9 is_stmt 1 view .LVU991
 2936              		.loc 1 1756 35 is_stmt 0 view .LVU992
 2937 09a0 4FF00003 		mov	r3, #0
 2938 09a4 F376     		strb	r3, [r6, #27]
 2939              		.loc 1 1757 9 is_stmt 1 view .LVU993
 2940 09a6 5368     		ldr	r3, [r2, #4]
 2941 09a8 23F48033 		bic	r3, r3, #65536
 2942 09ac 5360     		str	r3, [r2, #4]
 2943 09ae E5E5     		b	.L181
 2944              	.LBE35:
 2945              	.LBE91:
 2946              		.cfi_endproc
 2947              	.LFE148:
 2948              		.size	HAL_HCD_IRQHandler, .-HAL_HCD_IRQHandler
 2949              		.section	.text.HAL_HCD_Start,"ax",%progbits
 2950              		.align	1
 2951              		.p2align 2,,3
 2952              		.global	HAL_HCD_Start
 2953              		.syntax unified
 2954              		.thumb
 2955              		.thumb_func
 2956              		.type	HAL_HCD_Start, %function
 2957              	HAL_HCD_Start:
 2958              	.LVL224:
 2959              	.LFB155:
 2960              		.loc 1 1047 1 view -0
 2961              		.cfi_startproc
 2962              		@ args = 0, pretend = 0, frame = 0
 2963              		@ frame_needed = 0, uses_anonymous_args = 0
 2964              		.loc 1 1048 3 view .LVU995
ARM GAS  C:\Users\DEVELO~1\AppData\Local\Temp\ccbkr0PB.s 			page 53


 2965              		.loc 1 1048 3 view .LVU996
 2966 0000 90F8D433 		ldrb	r3, [r0, #980]	@ zero_extendqisi2
 2967 0004 012B     		cmp	r3, #1
 2968 0006 0FD0     		beq	.L304
 2969              		.loc 1 1048 3 discriminator 2 view .LVU997
 2970 0008 0121     		movs	r1, #1
 2971              		.loc 1 1047 1 is_stmt 0 discriminator 2 view .LVU998
 2972 000a 10B5     		push	{r4, lr}
 2973              		.cfi_def_cfa_offset 8
 2974              		.cfi_offset 4, -8
 2975              		.cfi_offset 14, -4
 2976 000c 0446     		mov	r4, r0
 2977              		.loc 1 1050 9 discriminator 2 view .LVU999
 2978 000e 0068     		ldr	r0, [r0]
 2979              	.LVL225:
 2980              		.loc 1 1048 3 discriminator 2 view .LVU1000
 2981 0010 84F8D413 		strb	r1, [r4, #980]
 2982              		.loc 1 1048 3 is_stmt 1 discriminator 2 view .LVU1001
 2983              		.loc 1 1050 3 discriminator 2 view .LVU1002
 2984              		.loc 1 1050 9 is_stmt 0 discriminator 2 view .LVU1003
 2985 0014 FFF7FEFF 		bl	USB_DriveVbus
 2986              	.LVL226:
 2987              		.loc 1 1053 3 is_stmt 1 discriminator 2 view .LVU1004
 2988 0018 2068     		ldr	r0, [r4]
 2989 001a FFF7FEFF 		bl	USB_EnableGlobalInt
 2990              	.LVL227:
 2991              		.loc 1 1054 3 discriminator 2 view .LVU1005
 2992              		.loc 1 1054 3 discriminator 2 view .LVU1006
 2993 001e 0023     		movs	r3, #0
 2994              		.loc 1 1056 10 is_stmt 0 discriminator 2 view .LVU1007
 2995 0020 1846     		mov	r0, r3
 2996              		.loc 1 1054 3 discriminator 2 view .LVU1008
 2997 0022 84F8D433 		strb	r3, [r4, #980]
 2998              		.loc 1 1054 3 is_stmt 1 discriminator 2 view .LVU1009
 2999              		.loc 1 1056 3 discriminator 2 view .LVU1010
 3000              		.loc 1 1057 1 is_stmt 0 discriminator 2 view .LVU1011
 3001 0026 10BD     		pop	{r4, pc}
 3002              	.LVL228:
 3003              	.L304:
 3004              		.cfi_def_cfa_offset 0
 3005              		.cfi_restore 4
 3006              		.cfi_restore 14
 3007              		.loc 1 1048 3 view .LVU1012
 3008 0028 0220     		movs	r0, #2
 3009              	.LVL229:
 3010              		.loc 1 1057 1 view .LVU1013
 3011 002a 7047     		bx	lr
 3012              		.cfi_endproc
 3013              	.LFE155:
 3014              		.size	HAL_HCD_Start, .-HAL_HCD_Start
 3015              		.section	.text.HAL_HCD_Stop,"ax",%progbits
 3016              		.align	1
 3017              		.p2align 2,,3
 3018              		.global	HAL_HCD_Stop
 3019              		.syntax unified
 3020              		.thumb
 3021              		.thumb_func
ARM GAS  C:\Users\DEVELO~1\AppData\Local\Temp\ccbkr0PB.s 			page 54


 3022              		.type	HAL_HCD_Stop, %function
 3023              	HAL_HCD_Stop:
 3024              	.LVL230:
 3025              	.LFB156:
 3026              		.loc 1 1066 1 is_stmt 1 view -0
 3027              		.cfi_startproc
 3028              		@ args = 0, pretend = 0, frame = 0
 3029              		@ frame_needed = 0, uses_anonymous_args = 0
 3030              		.loc 1 1067 3 view .LVU1015
 3031              		.loc 1 1067 3 view .LVU1016
 3032 0000 90F8D433 		ldrb	r3, [r0, #980]	@ zero_extendqisi2
 3033 0004 012B     		cmp	r3, #1
 3034 0006 0CD0     		beq	.L311
 3035              		.loc 1 1067 3 discriminator 2 view .LVU1017
 3036 0008 0123     		movs	r3, #1
 3037              		.loc 1 1066 1 is_stmt 0 discriminator 2 view .LVU1018
 3038 000a 10B5     		push	{r4, lr}
 3039              		.cfi_def_cfa_offset 8
 3040              		.cfi_offset 4, -8
 3041              		.cfi_offset 14, -4
 3042 000c 0446     		mov	r4, r0
 3043              		.loc 1 1068 9 discriminator 2 view .LVU1019
 3044 000e 0068     		ldr	r0, [r0]
 3045              	.LVL231:
 3046              		.loc 1 1067 3 discriminator 2 view .LVU1020
 3047 0010 84F8D433 		strb	r3, [r4, #980]
 3048              		.loc 1 1067 3 is_stmt 1 discriminator 2 view .LVU1021
 3049              		.loc 1 1068 3 discriminator 2 view .LVU1022
 3050              		.loc 1 1068 9 is_stmt 0 discriminator 2 view .LVU1023
 3051 0014 FFF7FEFF 		bl	USB_StopHost
 3052              	.LVL232:
 3053              		.loc 1 1069 3 is_stmt 1 discriminator 2 view .LVU1024
 3054              		.loc 1 1069 3 discriminator 2 view .LVU1025
 3055 0018 0023     		movs	r3, #0
 3056              		.loc 1 1071 10 is_stmt 0 discriminator 2 view .LVU1026
 3057 001a 1846     		mov	r0, r3
 3058              		.loc 1 1069 3 discriminator 2 view .LVU1027
 3059 001c 84F8D433 		strb	r3, [r4, #980]
 3060              		.loc 1 1069 3 is_stmt 1 discriminator 2 view .LVU1028
 3061              		.loc 1 1071 3 discriminator 2 view .LVU1029
 3062              		.loc 1 1072 1 is_stmt 0 discriminator 2 view .LVU1030
 3063 0020 10BD     		pop	{r4, pc}
 3064              	.LVL233:
 3065              	.L311:
 3066              		.cfi_def_cfa_offset 0
 3067              		.cfi_restore 4
 3068              		.cfi_restore 14
 3069              		.loc 1 1067 3 view .LVU1031
 3070 0022 0220     		movs	r0, #2
 3071              	.LVL234:
 3072              		.loc 1 1072 1 view .LVU1032
 3073 0024 7047     		bx	lr
 3074              		.cfi_endproc
 3075              	.LFE156:
 3076              		.size	HAL_HCD_Stop, .-HAL_HCD_Stop
 3077 0026 00BF     		.section	.text.HAL_HCD_ResetPort,"ax",%progbits
 3078              		.align	1
ARM GAS  C:\Users\DEVELO~1\AppData\Local\Temp\ccbkr0PB.s 			page 55


 3079              		.p2align 2,,3
 3080              		.global	HAL_HCD_ResetPort
 3081              		.syntax unified
 3082              		.thumb
 3083              		.thumb_func
 3084              		.type	HAL_HCD_ResetPort, %function
 3085              	HAL_HCD_ResetPort:
 3086              	.LVL235:
 3087              	.LFB157:
 3088              		.loc 1 1080 1 is_stmt 1 view -0
 3089              		.cfi_startproc
 3090              		@ args = 0, pretend = 0, frame = 0
 3091              		@ frame_needed = 0, uses_anonymous_args = 0
 3092              		@ link register save eliminated.
 3093              		.loc 1 1081 3 view .LVU1034
 3094              		.loc 1 1081 11 is_stmt 0 view .LVU1035
 3095 0000 0068     		ldr	r0, [r0]
 3096              	.LVL236:
 3097              		.loc 1 1081 11 view .LVU1036
 3098 0002 FFF7FEBF 		b	USB_ResetPort
 3099              	.LVL237:
 3100              		.cfi_endproc
 3101              	.LFE157:
 3102              		.size	HAL_HCD_ResetPort, .-HAL_HCD_ResetPort
 3103 0006 00BF     		.section	.text.HAL_HCD_GetState,"ax",%progbits
 3104              		.align	1
 3105              		.p2align 2,,3
 3106              		.global	HAL_HCD_GetState
 3107              		.syntax unified
 3108              		.thumb
 3109              		.thumb_func
 3110              		.type	HAL_HCD_GetState, %function
 3111              	HAL_HCD_GetState:
 3112              	.LVL238:
 3113              	.LFB158:
 3114              		.loc 1 1109 1 is_stmt 1 view -0
 3115              		.cfi_startproc
 3116              		@ args = 0, pretend = 0, frame = 0
 3117              		@ frame_needed = 0, uses_anonymous_args = 0
 3118              		@ link register save eliminated.
 3119              		.loc 1 1110 3 view .LVU1038
 3120              		.loc 1 1110 14 is_stmt 0 view .LVU1039
 3121 0000 90F8D503 		ldrb	r0, [r0, #981]	@ zero_extendqisi2
 3122              	.LVL239:
 3123              		.loc 1 1111 1 view .LVU1040
 3124 0004 7047     		bx	lr
 3125              		.cfi_endproc
 3126              	.LFE158:
 3127              		.size	HAL_HCD_GetState, .-HAL_HCD_GetState
 3128 0006 00BF     		.section	.text.HAL_HCD_HC_GetURBState,"ax",%progbits
 3129              		.align	1
 3130              		.p2align 2,,3
 3131              		.global	HAL_HCD_HC_GetURBState
 3132              		.syntax unified
 3133              		.thumb
 3134              		.thumb_func
 3135              		.type	HAL_HCD_HC_GetURBState, %function
ARM GAS  C:\Users\DEVELO~1\AppData\Local\Temp\ccbkr0PB.s 			page 56


 3136              	HAL_HCD_HC_GetURBState:
 3137              	.LVL240:
 3138              	.LFB159:
 3139              		.loc 1 1128 1 is_stmt 1 view -0
 3140              		.cfi_startproc
 3141              		@ args = 0, pretend = 0, frame = 0
 3142              		@ frame_needed = 0, uses_anonymous_args = 0
 3143              		@ link register save eliminated.
 3144              		.loc 1 1129 3 view .LVU1042
 3145              		.loc 1 1129 25 is_stmt 0 view .LVU1043
 3146 0000 C1EB0111 		rsb	r1, r1, r1, lsl #4
 3147              	.LVL241:
 3148              		.loc 1 1129 25 view .LVU1044
 3149 0004 00EB8100 		add	r0, r0, r1, lsl #2
 3150              	.LVL242:
 3151              		.loc 1 1130 1 view .LVU1045
 3152 0008 90F84C00 		ldrb	r0, [r0, #76]	@ zero_extendqisi2
 3153 000c 7047     		bx	lr
 3154              		.cfi_endproc
 3155              	.LFE159:
 3156              		.size	HAL_HCD_HC_GetURBState, .-HAL_HCD_HC_GetURBState
 3157 000e 00BF     		.section	.text.HAL_HCD_HC_GetXferCount,"ax",%progbits
 3158              		.align	1
 3159              		.p2align 2,,3
 3160              		.global	HAL_HCD_HC_GetXferCount
 3161              		.syntax unified
 3162              		.thumb
 3163              		.thumb_func
 3164              		.type	HAL_HCD_HC_GetXferCount, %function
 3165              	HAL_HCD_HC_GetXferCount:
 3166              	.LVL243:
 3167              	.LFB160:
 3168              		.loc 1 1141 1 is_stmt 1 view -0
 3169              		.cfi_startproc
 3170              		@ args = 0, pretend = 0, frame = 0
 3171              		@ frame_needed = 0, uses_anonymous_args = 0
 3172              		@ link register save eliminated.
 3173              		.loc 1 1142 3 view .LVU1047
 3174              		.loc 1 1142 25 is_stmt 0 view .LVU1048
 3175 0000 C1EB0111 		rsb	r1, r1, r1, lsl #4
 3176              	.LVL244:
 3177              		.loc 1 1142 25 view .LVU1049
 3178 0004 00EB8100 		add	r0, r0, r1, lsl #2
 3179              	.LVL245:
 3180              		.loc 1 1143 1 view .LVU1050
 3181 0008 806B     		ldr	r0, [r0, #56]
 3182 000a 7047     		bx	lr
 3183              		.cfi_endproc
 3184              	.LFE160:
 3185              		.size	HAL_HCD_HC_GetXferCount, .-HAL_HCD_HC_GetXferCount
 3186              		.section	.text.HAL_HCD_HC_GetState,"ax",%progbits
 3187              		.align	1
 3188              		.p2align 2,,3
 3189              		.global	HAL_HCD_HC_GetState
 3190              		.syntax unified
 3191              		.thumb
 3192              		.thumb_func
ARM GAS  C:\Users\DEVELO~1\AppData\Local\Temp\ccbkr0PB.s 			page 57


 3193              		.type	HAL_HCD_HC_GetState, %function
 3194              	HAL_HCD_HC_GetState:
 3195              	.LVL246:
 3196              	.LFB161:
 3197              		.loc 1 1163 1 is_stmt 1 view -0
 3198              		.cfi_startproc
 3199              		@ args = 0, pretend = 0, frame = 0
 3200              		@ frame_needed = 0, uses_anonymous_args = 0
 3201              		@ link register save eliminated.
 3202              		.loc 1 1164 3 view .LVU1052
 3203              		.loc 1 1164 25 is_stmt 0 view .LVU1053
 3204 0000 C1EB0111 		rsb	r1, r1, r1, lsl #4
 3205              	.LVL247:
 3206              		.loc 1 1164 25 view .LVU1054
 3207 0004 00EB8100 		add	r0, r0, r1, lsl #2
 3208              	.LVL248:
 3209              		.loc 1 1165 1 view .LVU1055
 3210 0008 90F84D00 		ldrb	r0, [r0, #77]	@ zero_extendqisi2
 3211 000c 7047     		bx	lr
 3212              		.cfi_endproc
 3213              	.LFE161:
 3214              		.size	HAL_HCD_HC_GetState, .-HAL_HCD_HC_GetState
 3215 000e 00BF     		.section	.text.HAL_HCD_GetCurrentFrame,"ax",%progbits
 3216              		.align	1
 3217              		.p2align 2,,3
 3218              		.global	HAL_HCD_GetCurrentFrame
 3219              		.syntax unified
 3220              		.thumb
 3221              		.thumb_func
 3222              		.type	HAL_HCD_GetCurrentFrame, %function
 3223              	HAL_HCD_GetCurrentFrame:
 3224              	.LVL249:
 3225              	.LFB162:
 3226              		.loc 1 1173 1 is_stmt 1 view -0
 3227              		.cfi_startproc
 3228              		@ args = 0, pretend = 0, frame = 0
 3229              		@ frame_needed = 0, uses_anonymous_args = 0
 3230              		@ link register save eliminated.
 3231              		.loc 1 1174 3 view .LVU1057
 3232              		.loc 1 1174 11 is_stmt 0 view .LVU1058
 3233 0000 0068     		ldr	r0, [r0]
 3234              	.LVL250:
 3235              		.loc 1 1174 11 view .LVU1059
 3236 0002 FFF7FEBF 		b	USB_GetCurrentFrame
 3237              	.LVL251:
 3238              		.cfi_endproc
 3239              	.LFE162:
 3240              		.size	HAL_HCD_GetCurrentFrame, .-HAL_HCD_GetCurrentFrame
 3241 0006 00BF     		.section	.text.HAL_HCD_GetCurrentSpeed,"ax",%progbits
 3242              		.align	1
 3243              		.p2align 2,,3
 3244              		.global	HAL_HCD_GetCurrentSpeed
 3245              		.syntax unified
 3246              		.thumb
 3247              		.thumb_func
 3248              		.type	HAL_HCD_GetCurrentSpeed, %function
 3249              	HAL_HCD_GetCurrentSpeed:
ARM GAS  C:\Users\DEVELO~1\AppData\Local\Temp\ccbkr0PB.s 			page 58


 3250              	.LVL252:
 3251              	.LFB163:
 3252              		.loc 1 1183 1 is_stmt 1 view -0
 3253              		.cfi_startproc
 3254              		@ args = 0, pretend = 0, frame = 0
 3255              		@ frame_needed = 0, uses_anonymous_args = 0
 3256              		@ link register save eliminated.
 3257              		.loc 1 1184 3 view .LVU1061
 3258              		.loc 1 1184 11 is_stmt 0 view .LVU1062
 3259 0000 0068     		ldr	r0, [r0]
 3260              	.LVL253:
 3261              		.loc 1 1184 11 view .LVU1063
 3262 0002 FFF7FEBF 		b	USB_GetHostSpeed
 3263              	.LVL254:
 3264              		.cfi_endproc
 3265              	.LFE163:
 3266              		.size	HAL_HCD_GetCurrentSpeed, .-HAL_HCD_GetCurrentSpeed
 3267 0006 00BF     		.section	.text.HAL_HCD_HC_SetHubInfo,"ax",%progbits
 3268              		.align	1
 3269              		.p2align 2,,3
 3270              		.global	HAL_HCD_HC_SetHubInfo
 3271              		.syntax unified
 3272              		.thumb
 3273              		.thumb_func
 3274              		.type	HAL_HCD_HC_SetHubInfo, %function
 3275              	HAL_HCD_HC_SetHubInfo:
 3276              	.LVL255:
 3277              	.LFB164:
 3278              		.loc 1 1198 1 is_stmt 1 view -0
 3279              		.cfi_startproc
 3280              		@ args = 0, pretend = 0, frame = 0
 3281              		@ frame_needed = 0, uses_anonymous_args = 0
 3282              		.loc 1 1199 3 view .LVU1065
 3283              		.loc 1 1198 1 is_stmt 0 view .LVU1066
 3284 0000 F8B5     		push	{r3, r4, r5, r6, r7, lr}
 3285              		.cfi_def_cfa_offset 24
 3286              		.cfi_offset 3, -24
 3287              		.cfi_offset 4, -20
 3288              		.cfi_offset 5, -16
 3289              		.cfi_offset 6, -12
 3290              		.cfi_offset 7, -8
 3291              		.cfi_offset 14, -4
 3292              		.loc 1 1198 1 view .LVU1067
 3293 0002 0D46     		mov	r5, r1
 3294 0004 0446     		mov	r4, r0
 3295              		.loc 1 1199 28 view .LVU1068
 3296 0006 0068     		ldr	r0, [r0]
 3297              	.LVL256:
 3298              		.loc 1 1198 1 view .LVU1069
 3299 0008 1746     		mov	r7, r2
 3300 000a 1E46     		mov	r6, r3
 3301              		.loc 1 1199 28 view .LVU1070
 3302 000c FFF7FEFF 		bl	USB_GetHostSpeed
 3303              	.LVL257:
 3304              		.loc 1 1202 3 is_stmt 1 view .LVU1071
 3305              		.loc 1 1202 24 is_stmt 0 view .LVU1072
 3306 0010 C5EB0511 		rsb	r1, r5, r5, lsl #4
ARM GAS  C:\Users\DEVELO~1\AppData\Local\Temp\ccbkr0PB.s 			page 59


 3307 0014 2B01     		lsls	r3, r5, #4
 3308 0016 04EB8101 		add	r1, r4, r1, lsl #2
 3309              		.loc 1 1202 6 view .LVU1073
 3310 001a 0A7E     		ldrb	r2, [r1, #24]	@ zero_extendqisi2
 3311              		.loc 1 1202 57 view .LVU1074
 3312 001c 02B1     		cbz	r2, .L326
 3313 001e 40B1     		cbz	r0, .L335
 3314              	.LVL258:
 3315              	.L326:
 3316              		.loc 1 1212 3 is_stmt 1 view .LVU1075
 3317              		.loc 1 1212 29 is_stmt 0 view .LVU1076
 3318 0020 5B1B     		subs	r3, r3, r5
 3319              		.loc 1 1216 1 view .LVU1077
 3320 0022 0020     		movs	r0, #0
 3321              		.loc 1 1212 29 view .LVU1078
 3322 0024 04EB8304 		add	r4, r4, r3, lsl #2
 3323              	.LVL259:
 3324              		.loc 1 1212 29 view .LVU1079
 3325 0028 84F82570 		strb	r7, [r4, #37]
 3326              		.loc 1 1213 3 is_stmt 1 view .LVU1080
 3327              		.loc 1 1213 33 is_stmt 0 view .LVU1081
 3328 002c 84F82460 		strb	r6, [r4, #36]
 3329              		.loc 1 1215 3 is_stmt 1 view .LVU1082
 3330              		.loc 1 1216 1 is_stmt 0 view .LVU1083
 3331 0030 F8BD     		pop	{r3, r4, r5, r6, r7, pc}
 3332              	.LVL260:
 3333              	.L335:
 3334              		.loc 1 1204 5 is_stmt 1 view .LVU1084
 3335              		.loc 1 1204 32 is_stmt 0 view .LVU1085
 3336 0032 0122     		movs	r2, #1
 3337              		.loc 1 1206 8 view .LVU1086
 3338 0034 91F82600 		ldrb	r0, [r1, #38]	@ zero_extendqisi2
 3339              	.LVL261:
 3340              		.loc 1 1204 32 view .LVU1087
 3341 0038 8A76     		strb	r2, [r1, #26]
 3342              		.loc 1 1206 5 is_stmt 1 view .LVU1088
 3343              		.loc 1 1206 8 is_stmt 0 view .LVU1089
 3344 003a 0028     		cmp	r0, #0
 3345 003c F0D1     		bne	.L326
 3346              		.loc 1 1206 52 discriminator 1 view .LVU1090
 3347 003e C87D     		ldrb	r0, [r1, #23]	@ zero_extendqisi2
 3348 0040 0028     		cmp	r0, #0
 3349 0042 EDD0     		beq	.L326
 3350              		.loc 1 1208 7 is_stmt 1 view .LVU1091
 3351              		.loc 1 1208 34 is_stmt 0 view .LVU1092
 3352 0044 81F83C20 		strb	r2, [r1, #60]
 3353 0048 EAE7     		b	.L326
 3354              		.cfi_endproc
 3355              	.LFE164:
 3356              		.size	HAL_HCD_HC_SetHubInfo, .-HAL_HCD_HC_SetHubInfo
 3357 004a 00BF     		.section	.text.HAL_HCD_HC_ClearHubInfo,"ax",%progbits
 3358              		.align	1
 3359              		.p2align 2,,3
 3360              		.global	HAL_HCD_HC_ClearHubInfo
 3361              		.syntax unified
 3362              		.thumb
 3363              		.thumb_func
ARM GAS  C:\Users\DEVELO~1\AppData\Local\Temp\ccbkr0PB.s 			page 60


 3364              		.type	HAL_HCD_HC_ClearHubInfo, %function
 3365              	HAL_HCD_HC_ClearHubInfo:
 3366              	.LVL262:
 3367              	.LFB165:
 3368              		.loc 1 1227 1 is_stmt 1 view -0
 3369              		.cfi_startproc
 3370              		@ args = 0, pretend = 0, frame = 0
 3371              		@ frame_needed = 0, uses_anonymous_args = 0
 3372              		@ link register save eliminated.
 3373              		.loc 1 1228 3 view .LVU1094
 3374              		.loc 1 1229 3 view .LVU1095
 3375              		.loc 1 1227 1 is_stmt 0 view .LVU1096
 3376 0000 0346     		mov	r3, r0
 3377              		.loc 1 1228 30 view .LVU1097
 3378 0002 C1EB0111 		rsb	r1, r1, r1, lsl #4
 3379              	.LVL263:
 3380              		.loc 1 1228 30 view .LVU1098
 3381 0006 0020     		movs	r0, #0
 3382              	.LVL264:
 3383              		.loc 1 1228 30 view .LVU1099
 3384 0008 03EB8101 		add	r1, r3, r1, lsl #2
 3385 000c 4883     		strh	r0, [r1, #26]	@ movhi
 3386              		.loc 1 1230 3 is_stmt 1 view .LVU1100
 3387              		.loc 1 1231 3 view .LVU1101
 3388              		.loc 1 1231 33 is_stmt 0 view .LVU1102
 3389 000e 8884     		strh	r0, [r1, #36]	@ movhi
 3390              		.loc 1 1233 3 is_stmt 1 view .LVU1103
 3391              		.loc 1 1234 1 is_stmt 0 view .LVU1104
 3392 0010 7047     		bx	lr
 3393              		.cfi_endproc
 3394              	.LFE165:
 3395              		.size	HAL_HCD_HC_ClearHubInfo, .-HAL_HCD_HC_ClearHubInfo
 3396 0012 00BF     		.text
 3397              	.Letext0:
 3398              		.file 2 "c:\\chibistudio\\tools\\gnu tools arm embedded\\11.3 2022.08\\arm-none-eabi\\include\\mac
 3399              		.file 3 "c:\\chibistudio\\tools\\gnu tools arm embedded\\11.3 2022.08\\arm-none-eabi\\include\\sys
 3400              		.file 4 "../../../os/common/ext/ST/STM32H7xx/stm32h743xx.h"
 3401              		.file 5 "./drivers/stm32h7xx-hal-driver/Inc/stm32h7xx_hal_def.h"
 3402              		.file 6 "./drivers/stm32h7xx-hal-driver/Inc/stm32h7xx_ll_usb.h"
 3403              		.file 7 "./drivers/stm32h7xx-hal-driver/Inc/stm32h7xx_hal_hcd.h"
 3404              		.section	.debug_info,"",%progbits
 3405              	.Ldebug_info0:
 3406 0000 C7180000 		.4byte	0x18c7
 3407 0004 0500     		.2byte	0x5
 3408 0006 01       		.byte	0x1
 3409 0007 04       		.byte	0x4
 3410 0008 00000000 		.4byte	.Ldebug_abbrev0
 3411 000c 2D       		.uleb128 0x2d
 3412 000d B4090000 		.4byte	.LASF230
 3413 0011 1D       		.byte	0x1d
 3414 0012 27060000 		.4byte	.LASF231
 3415 0016 2A000000 		.4byte	.LASF232
 3416 001a E1000000 		.4byte	.LLRL71
 3417 001e 00000000 		.4byte	0
 3418 0022 00000000 		.4byte	.Ldebug_line0
 3419 0026 0E       		.uleb128 0xe
 3420 0027 04       		.byte	0x4
ARM GAS  C:\Users\DEVELO~1\AppData\Local\Temp\ccbkr0PB.s 			page 61


 3421 0028 07       		.byte	0x7
 3422 0029 830C0000 		.4byte	.LASF0
 3423 002d 0E       		.uleb128 0xe
 3424 002e 02       		.byte	0x2
 3425 002f 05       		.byte	0x5
 3426 0030 02080000 		.4byte	.LASF1
 3427 0034 0E       		.uleb128 0xe
 3428 0035 01       		.byte	0x1
 3429 0036 06       		.byte	0x6
 3430 0037 390C0000 		.4byte	.LASF2
 3431 003b 09       		.uleb128 0x9
 3432 003c BC000000 		.4byte	.LASF4
 3433 0040 02       		.byte	0x2
 3434 0041 2B       		.byte	0x2b
 3435 0042 18       		.byte	0x18
 3436 0043 47000000 		.4byte	0x47
 3437 0047 0E       		.uleb128 0xe
 3438 0048 01       		.byte	0x1
 3439 0049 08       		.byte	0x8
 3440 004a D6070000 		.4byte	.LASF3
 3441 004e 09       		.uleb128 0x9
 3442 004f 91090000 		.4byte	.LASF5
 3443 0053 02       		.byte	0x2
 3444 0054 39       		.byte	0x39
 3445 0055 19       		.byte	0x19
 3446 0056 5A000000 		.4byte	0x5a
 3447 005a 0E       		.uleb128 0xe
 3448 005b 02       		.byte	0x2
 3449 005c 07       		.byte	0x7
 3450 005d E9040000 		.4byte	.LASF6
 3451 0061 0E       		.uleb128 0xe
 3452 0062 04       		.byte	0x4
 3453 0063 05       		.byte	0x5
 3454 0064 9B020000 		.4byte	.LASF7
 3455 0068 09       		.uleb128 0x9
 3456 0069 F50A0000 		.4byte	.LASF8
 3457 006d 02       		.byte	0x2
 3458 006e 4F       		.byte	0x4f
 3459 006f 19       		.byte	0x19
 3460 0070 74000000 		.4byte	0x74
 3461 0074 0E       		.uleb128 0xe
 3462 0075 04       		.byte	0x4
 3463 0076 07       		.byte	0x7
 3464 0077 EE010000 		.4byte	.LASF9
 3465 007b 0E       		.uleb128 0xe
 3466 007c 08       		.byte	0x8
 3467 007d 05       		.byte	0x5
 3468 007e C5010000 		.4byte	.LASF10
 3469 0082 0E       		.uleb128 0xe
 3470 0083 08       		.byte	0x8
 3471 0084 07       		.byte	0x7
 3472 0085 2C010000 		.4byte	.LASF11
 3473 0089 2E       		.uleb128 0x2e
 3474 008a 04       		.byte	0x4
 3475 008b 05       		.byte	0x5
 3476 008c 696E7400 		.ascii	"int\000"
 3477 0090 09       		.uleb128 0x9
ARM GAS  C:\Users\DEVELO~1\AppData\Local\Temp\ccbkr0PB.s 			page 62


 3478 0091 7F0A0000 		.4byte	.LASF12
 3479 0095 03       		.byte	0x3
 3480 0096 18       		.byte	0x18
 3481 0097 13       		.byte	0x13
 3482 0098 3B000000 		.4byte	0x3b
 3483 009c 09       		.uleb128 0x9
 3484 009d 08030000 		.4byte	.LASF13
 3485 00a1 03       		.byte	0x3
 3486 00a2 24       		.byte	0x24
 3487 00a3 14       		.byte	0x14
 3488 00a4 4E000000 		.4byte	0x4e
 3489 00a8 09       		.uleb128 0x9
 3490 00a9 D5080000 		.4byte	.LASF14
 3491 00ad 03       		.byte	0x3
 3492 00ae 30       		.byte	0x30
 3493 00af 14       		.byte	0x14
 3494 00b0 68000000 		.4byte	0x68
 3495 00b4 1D       		.uleb128 0x1d
 3496 00b5 A8000000 		.4byte	0xa8
 3497 00b9 16       		.uleb128 0x16
 3498 00ba A8000000 		.4byte	0xa8
 3499 00be C9000000 		.4byte	0xc9
 3500 00c2 17       		.uleb128 0x17
 3501 00c3 26000000 		.4byte	0x26
 3502 00c7 01       		.byte	0x1
 3503 00c8 00       		.byte	0
 3504 00c9 16       		.uleb128 0x16
 3505 00ca A8000000 		.4byte	0xa8
 3506 00ce D9000000 		.4byte	0xd9
 3507 00d2 17       		.uleb128 0x17
 3508 00d3 26000000 		.4byte	0x26
 3509 00d7 26       		.byte	0x26
 3510 00d8 00       		.byte	0
 3511 00d9 2F       		.uleb128 0x2f
 3512 00da 4001     		.2byte	0x140
 3513 00dc 04       		.byte	0x4
 3514 00dd 3B07     		.2byte	0x73b
 3515 00df 09       		.byte	0x9
 3516 00e0 45020000 		.4byte	0x245
 3517 00e4 05       		.uleb128 0x5
 3518 00e5 CC0A0000 		.4byte	.LASF15
 3519 00e9 3D07     		.2byte	0x73d
 3520 00eb 10       		.byte	0x10
 3521 00ec B4000000 		.4byte	0xb4
 3522 00f0 00       		.byte	0
 3523 00f1 05       		.uleb128 0x5
 3524 00f2 D7030000 		.4byte	.LASF16
 3525 00f6 3E07     		.2byte	0x73e
 3526 00f8 11       		.byte	0x11
 3527 00f9 B4000000 		.4byte	0xb4
 3528 00fd 04       		.byte	0x4
 3529 00fe 05       		.uleb128 0x5
 3530 00ff C6000000 		.4byte	.LASF17
 3531 0103 3F07     		.2byte	0x73f
 3532 0105 11       		.byte	0x11
 3533 0106 B4000000 		.4byte	0xb4
 3534 010a 08       		.byte	0x8
ARM GAS  C:\Users\DEVELO~1\AppData\Local\Temp\ccbkr0PB.s 			page 63


 3535 010b 05       		.uleb128 0x5
 3536 010c 4E070000 		.4byte	.LASF18
 3537 0110 4007     		.2byte	0x740
 3538 0112 11       		.byte	0x11
 3539 0113 B4000000 		.4byte	0xb4
 3540 0117 0C       		.byte	0xc
 3541 0118 05       		.uleb128 0x5
 3542 0119 3D050000 		.4byte	.LASF19
 3543 011d 4107     		.2byte	0x741
 3544 011f 11       		.byte	0x11
 3545 0120 B4000000 		.4byte	0xb4
 3546 0124 10       		.byte	0x10
 3547 0125 05       		.uleb128 0x5
 3548 0126 0A050000 		.4byte	.LASF20
 3549 012a 4207     		.2byte	0x742
 3550 012c 11       		.byte	0x11
 3551 012d B4000000 		.4byte	0xb4
 3552 0131 14       		.byte	0x14
 3553 0132 05       		.uleb128 0x5
 3554 0133 0C080000 		.4byte	.LASF21
 3555 0137 4307     		.2byte	0x743
 3556 0139 11       		.byte	0x11
 3557 013a B4000000 		.4byte	0xb4
 3558 013e 18       		.byte	0x18
 3559 013f 05       		.uleb128 0x5
 3560 0140 F9050000 		.4byte	.LASF22
 3561 0144 4407     		.2byte	0x744
 3562 0146 11       		.byte	0x11
 3563 0147 B4000000 		.4byte	0xb4
 3564 014b 1C       		.byte	0x1c
 3565 014c 05       		.uleb128 0x5
 3566 014d F1050000 		.4byte	.LASF23
 3567 0151 4507     		.2byte	0x745
 3568 0153 11       		.byte	0x11
 3569 0154 B4000000 		.4byte	0xb4
 3570 0158 20       		.byte	0x20
 3571 0159 05       		.uleb128 0x5
 3572 015a 10010000 		.4byte	.LASF24
 3573 015e 4607     		.2byte	0x746
 3574 0160 11       		.byte	0x11
 3575 0161 B4000000 		.4byte	0xb4
 3576 0165 24       		.byte	0x24
 3577 0166 05       		.uleb128 0x5
 3578 0167 B6030000 		.4byte	.LASF25
 3579 016b 4707     		.2byte	0x747
 3580 016d 11       		.byte	0x11
 3581 016e B4000000 		.4byte	0xb4
 3582 0172 28       		.byte	0x28
 3583 0173 05       		.uleb128 0x5
 3584 0174 7A0C0000 		.4byte	.LASF26
 3585 0178 4807     		.2byte	0x748
 3586 017a 11       		.byte	0x11
 3587 017b B4000000 		.4byte	0xb4
 3588 017f 2C       		.byte	0x2c
 3589 0180 05       		.uleb128 0x5
 3590 0181 EB060000 		.4byte	.LASF27
 3591 0185 4907     		.2byte	0x749
ARM GAS  C:\Users\DEVELO~1\AppData\Local\Temp\ccbkr0PB.s 			page 64


 3592 0187 0C       		.byte	0xc
 3593 0188 B9000000 		.4byte	0xb9
 3594 018c 30       		.byte	0x30
 3595 018d 05       		.uleb128 0x5
 3596 018e DD0B0000 		.4byte	.LASF28
 3597 0192 4A07     		.2byte	0x74a
 3598 0194 11       		.byte	0x11
 3599 0195 B4000000 		.4byte	0xb4
 3600 0199 38       		.byte	0x38
 3601 019a 30       		.uleb128 0x30
 3602 019b 43494400 		.ascii	"CID\000"
 3603 019f 04       		.byte	0x4
 3604 01a0 4B07     		.2byte	0x74b
 3605 01a2 11       		.byte	0x11
 3606 01a3 B4000000 		.4byte	0xb4
 3607 01a7 3C       		.byte	0x3c
 3608 01a8 05       		.uleb128 0x5
 3609 01a9 01060000 		.4byte	.LASF29
 3610 01ad 4C07     		.2byte	0x74c
 3611 01af 11       		.byte	0x11
 3612 01b0 B4000000 		.4byte	0xb4
 3613 01b4 40       		.byte	0x40
 3614 01b5 05       		.uleb128 0x5
 3615 01b6 C4040000 		.4byte	.LASF30
 3616 01ba 4D07     		.2byte	0x74d
 3617 01bc 11       		.byte	0x11
 3618 01bd B4000000 		.4byte	0xb4
 3619 01c1 44       		.byte	0x44
 3620 01c2 05       		.uleb128 0x5
 3621 01c3 CC040000 		.4byte	.LASF31
 3622 01c7 4E07     		.2byte	0x74e
 3623 01c9 11       		.byte	0x11
 3624 01ca B4000000 		.4byte	0xb4
 3625 01ce 48       		.byte	0x48
 3626 01cf 05       		.uleb128 0x5
 3627 01d0 980B0000 		.4byte	.LASF32
 3628 01d4 4F07     		.2byte	0x74f
 3629 01d6 11       		.byte	0x11
 3630 01d7 B4000000 		.4byte	0xb4
 3631 01db 4C       		.byte	0x4c
 3632 01dc 05       		.uleb128 0x5
 3633 01dd DF040000 		.4byte	.LASF33
 3634 01e1 5007     		.2byte	0x750
 3635 01e3 0D       		.byte	0xd
 3636 01e4 A8000000 		.4byte	0xa8
 3637 01e8 50       		.byte	0x50
 3638 01e9 05       		.uleb128 0x5
 3639 01ea 79010000 		.4byte	.LASF34
 3640 01ee 5107     		.2byte	0x751
 3641 01f0 11       		.byte	0x11
 3642 01f1 B4000000 		.4byte	0xb4
 3643 01f5 54       		.byte	0x54
 3644 01f6 05       		.uleb128 0x5
 3645 01f7 B6040000 		.4byte	.LASF35
 3646 01fb 5207     		.2byte	0x752
 3647 01fd 11       		.byte	0x11
 3648 01fe B4000000 		.4byte	0xb4
ARM GAS  C:\Users\DEVELO~1\AppData\Local\Temp\ccbkr0PB.s 			page 65


 3649 0202 58       		.byte	0x58
 3650 0203 05       		.uleb128 0x5
 3651 0204 64030000 		.4byte	.LASF36
 3652 0208 5307     		.2byte	0x753
 3653 020a 11       		.byte	0x11
 3654 020b B4000000 		.4byte	0xb4
 3655 020f 5C       		.byte	0x5c
 3656 0210 05       		.uleb128 0x5
 3657 0211 100B0000 		.4byte	.LASF37
 3658 0215 5407     		.2byte	0x754
 3659 0217 12       		.byte	0x12
 3660 0218 B4000000 		.4byte	0xb4
 3661 021c 60       		.byte	0x60
 3662 021d 05       		.uleb128 0x5
 3663 021e 70080000 		.4byte	.LASF38
 3664 0222 5507     		.2byte	0x755
 3665 0224 0F       		.byte	0xf
 3666 0225 C9000000 		.4byte	0xc9
 3667 0229 64       		.byte	0x64
 3668 022a 23       		.uleb128 0x23
 3669 022b 220B0000 		.4byte	.LASF39
 3670 022f 5607     		.2byte	0x756
 3671 0231 B4000000 		.4byte	0xb4
 3672 0235 0001     		.2byte	0x100
 3673 0237 23       		.uleb128 0x23
 3674 0238 450C0000 		.4byte	.LASF40
 3675 023c 5707     		.2byte	0x757
 3676 023e 55020000 		.4byte	0x255
 3677 0242 0401     		.2byte	0x104
 3678 0244 00       		.byte	0
 3679 0245 16       		.uleb128 0x16
 3680 0246 B4000000 		.4byte	0xb4
 3681 024a 55020000 		.4byte	0x255
 3682 024e 17       		.uleb128 0x17
 3683 024f 26000000 		.4byte	0x26
 3684 0253 0E       		.byte	0xe
 3685 0254 00       		.byte	0
 3686 0255 1D       		.uleb128 0x1d
 3687 0256 45020000 		.4byte	0x245
 3688 025a 1E       		.uleb128 0x1e
 3689 025b 540A0000 		.4byte	.LASF41
 3690 025f 5807     		.2byte	0x758
 3691 0261 D9000000 		.4byte	0xd9
 3692 0265 24       		.uleb128 0x24
 3693 0266 5A020000 		.4byte	0x25a
 3694 026a 25       		.uleb128 0x25
 3695 026b 1C       		.byte	0x1c
 3696 026c 9907     		.2byte	0x799
 3697 026e CE020000 		.4byte	0x2ce
 3698 0272 05       		.uleb128 0x5
 3699 0273 F6060000 		.4byte	.LASF42
 3700 0277 9B07     		.2byte	0x79b
 3701 0279 11       		.byte	0x11
 3702 027a B4000000 		.4byte	0xb4
 3703 027e 00       		.byte	0
 3704 027f 05       		.uleb128 0x5
 3705 0280 F1070000 		.4byte	.LASF43
ARM GAS  C:\Users\DEVELO~1\AppData\Local\Temp\ccbkr0PB.s 			page 66


 3706 0284 9C07     		.2byte	0x79c
 3707 0286 11       		.byte	0x11
 3708 0287 B4000000 		.4byte	0xb4
 3709 028b 04       		.byte	0x4
 3710 028c 05       		.uleb128 0x5
 3711 028d EF020000 		.4byte	.LASF44
 3712 0291 9D07     		.2byte	0x79d
 3713 0293 11       		.byte	0x11
 3714 0294 B4000000 		.4byte	0xb4
 3715 0298 08       		.byte	0x8
 3716 0299 05       		.uleb128 0x5
 3717 029a F6070000 		.4byte	.LASF45
 3718 029e 9E07     		.2byte	0x79e
 3719 02a0 0C       		.byte	0xc
 3720 02a1 A8000000 		.4byte	0xa8
 3721 02a5 0C       		.byte	0xc
 3722 02a6 05       		.uleb128 0x5
 3723 02a7 080B0000 		.4byte	.LASF46
 3724 02ab 9F07     		.2byte	0x79f
 3725 02ad 11       		.byte	0x11
 3726 02ae B4000000 		.4byte	0xb4
 3727 02b2 10       		.byte	0x10
 3728 02b3 05       		.uleb128 0x5
 3729 02b4 79090000 		.4byte	.LASF47
 3730 02b8 A007     		.2byte	0x7a0
 3731 02ba 11       		.byte	0x11
 3732 02bb B4000000 		.4byte	0xb4
 3733 02bf 14       		.byte	0x14
 3734 02c0 05       		.uleb128 0x5
 3735 02c1 BC010000 		.4byte	.LASF48
 3736 02c5 A107     		.2byte	0x7a1
 3737 02c7 11       		.byte	0x11
 3738 02c8 B4000000 		.4byte	0xb4
 3739 02cc 18       		.byte	0x18
 3740 02cd 00       		.byte	0
 3741 02ce 1E       		.uleb128 0x1e
 3742 02cf 5C040000 		.4byte	.LASF49
 3743 02d3 A207     		.2byte	0x7a2
 3744 02d5 6A020000 		.4byte	0x26a
 3745 02d9 25       		.uleb128 0x25
 3746 02da 20       		.byte	0x20
 3747 02db A707     		.2byte	0x7a7
 3748 02dd 3D030000 		.4byte	0x33d
 3749 02e1 05       		.uleb128 0x5
 3750 02e2 1F0C0000 		.4byte	.LASF50
 3751 02e6 A907     		.2byte	0x7a9
 3752 02e8 11       		.byte	0x11
 3753 02e9 B4000000 		.4byte	0xb4
 3754 02ed 00       		.byte	0
 3755 02ee 05       		.uleb128 0x5
 3756 02ef BD040000 		.4byte	.LASF51
 3757 02f3 AA07     		.2byte	0x7aa
 3758 02f5 11       		.byte	0x11
 3759 02f6 B4000000 		.4byte	0xb4
 3760 02fa 04       		.byte	0x4
 3761 02fb 05       		.uleb128 0x5
 3762 02fc DA060000 		.4byte	.LASF52
ARM GAS  C:\Users\DEVELO~1\AppData\Local\Temp\ccbkr0PB.s 			page 67


 3763 0300 AB07     		.2byte	0x7ab
 3764 0302 11       		.byte	0x11
 3765 0303 B4000000 		.4byte	0xb4
 3766 0307 08       		.byte	0x8
 3767 0308 05       		.uleb128 0x5
 3768 0309 C7060000 		.4byte	.LASF53
 3769 030d AC07     		.2byte	0x7ac
 3770 030f 11       		.byte	0x11
 3771 0310 B4000000 		.4byte	0xb4
 3772 0314 0C       		.byte	0xc
 3773 0315 05       		.uleb128 0x5
 3774 0316 E7010000 		.4byte	.LASF54
 3775 031a AD07     		.2byte	0x7ad
 3776 031c 11       		.byte	0x11
 3777 031d B4000000 		.4byte	0xb4
 3778 0321 10       		.byte	0x10
 3779 0322 05       		.uleb128 0x5
 3780 0323 90030000 		.4byte	.LASF55
 3781 0327 AE07     		.2byte	0x7ae
 3782 0329 11       		.byte	0x11
 3783 032a B4000000 		.4byte	0xb4
 3784 032e 14       		.byte	0x14
 3785 032f 05       		.uleb128 0x5
 3786 0330 F5000000 		.4byte	.LASF56
 3787 0334 AF07     		.2byte	0x7af
 3788 0336 0C       		.byte	0xc
 3789 0337 B9000000 		.4byte	0xb9
 3790 033b 18       		.byte	0x18
 3791 033c 00       		.byte	0
 3792 033d 1E       		.uleb128 0x1e
 3793 033e 420B0000 		.4byte	.LASF57
 3794 0342 B007     		.2byte	0x7b0
 3795 0344 D9020000 		.4byte	0x2d9
 3796 0348 0E       		.uleb128 0xe
 3797 0349 08       		.byte	0x8
 3798 034a 04       		.byte	0x4
 3799 034b 35090000 		.4byte	.LASF58
 3800 034f 31       		.uleb128 0x31
 3801 0350 04       		.byte	0x4
 3802 0351 0E       		.uleb128 0xe
 3803 0352 01       		.byte	0x1
 3804 0353 08       		.byte	0x8
 3805 0354 30090000 		.4byte	.LASF59
 3806 0358 0E       		.uleb128 0xe
 3807 0359 04       		.byte	0x4
 3808 035a 04       		.byte	0x4
 3809 035b 56070000 		.4byte	.LASF60
 3810 035f 0E       		.uleb128 0xe
 3811 0360 08       		.byte	0x8
 3812 0361 04       		.byte	0x4
 3813 0362 730C0000 		.4byte	.LASF61
 3814 0366 13       		.uleb128 0x13
 3815 0367 47000000 		.4byte	0x47
 3816 036b 05       		.byte	0x5
 3817 036c 28       		.byte	0x28
 3818 036d 8A030000 		.4byte	0x38a
 3819 0371 07       		.uleb128 0x7
ARM GAS  C:\Users\DEVELO~1\AppData\Local\Temp\ccbkr0PB.s 			page 68


 3820 0372 5E060000 		.4byte	.LASF62
 3821 0376 00       		.byte	0
 3822 0377 07       		.uleb128 0x7
 3823 0378 03090000 		.4byte	.LASF63
 3824 037c 01       		.byte	0x1
 3825 037d 07       		.uleb128 0x7
 3826 037e CE000000 		.4byte	.LASF64
 3827 0382 02       		.byte	0x2
 3828 0383 07       		.uleb128 0x7
 3829 0384 F3030000 		.4byte	.LASF65
 3830 0388 03       		.byte	0x3
 3831 0389 00       		.byte	0
 3832 038a 09       		.uleb128 0x9
 3833 038b 45050000 		.4byte	.LASF66
 3834 038f 05       		.byte	0x5
 3835 0390 2D       		.byte	0x2d
 3836 0391 03       		.byte	0x3
 3837 0392 66030000 		.4byte	0x366
 3838 0396 13       		.uleb128 0x13
 3839 0397 47000000 		.4byte	0x47
 3840 039b 05       		.byte	0x5
 3841 039c 33       		.byte	0x33
 3842 039d AE030000 		.4byte	0x3ae
 3843 03a1 07       		.uleb128 0x7
 3844 03a2 2C0C0000 		.4byte	.LASF67
 3845 03a6 00       		.byte	0
 3846 03a7 07       		.uleb128 0x7
 3847 03a8 48010000 		.4byte	.LASF68
 3848 03ac 01       		.byte	0x1
 3849 03ad 00       		.byte	0
 3850 03ae 09       		.uleb128 0x9
 3851 03af 67020000 		.4byte	.LASF69
 3852 03b3 05       		.byte	0x5
 3853 03b4 36       		.byte	0x36
 3854 03b5 03       		.byte	0x3
 3855 03b6 96030000 		.4byte	0x396
 3856 03ba 13       		.uleb128 0x13
 3857 03bb 47000000 		.4byte	0x47
 3858 03bf 06       		.byte	0x6
 3859 03c0 35       		.byte	0x35
 3860 03c1 D8030000 		.4byte	0x3d8
 3861 03c5 07       		.uleb128 0x7
 3862 03c6 77060000 		.4byte	.LASF70
 3863 03ca 00       		.byte	0
 3864 03cb 07       		.uleb128 0x7
 3865 03cc 6E030000 		.4byte	.LASF71
 3866 03d0 01       		.byte	0x1
 3867 03d1 07       		.uleb128 0x7
 3868 03d2 48090000 		.4byte	.LASF72
 3869 03d6 02       		.byte	0x2
 3870 03d7 00       		.byte	0
 3871 03d8 09       		.uleb128 0x9
 3872 03d9 B80B0000 		.4byte	.LASF73
 3873 03dd 06       		.byte	0x6
 3874 03de 39       		.byte	0x39
 3875 03df 03       		.byte	0x3
 3876 03e0 BA030000 		.4byte	0x3ba
ARM GAS  C:\Users\DEVELO~1\AppData\Local\Temp\ccbkr0PB.s 			page 69


 3877 03e4 13       		.uleb128 0x13
 3878 03e5 47000000 		.4byte	0x47
 3879 03e9 06       		.byte	0x6
 3880 03ea 3F       		.byte	0x3f
 3881 03eb 14040000 		.4byte	0x414
 3882 03ef 07       		.uleb128 0x7
 3883 03f0 85080000 		.4byte	.LASF74
 3884 03f4 00       		.byte	0
 3885 03f5 07       		.uleb128 0x7
 3886 03f6 87060000 		.4byte	.LASF75
 3887 03fa 01       		.byte	0x1
 3888 03fb 07       		.uleb128 0x7
 3889 03fc A7090000 		.4byte	.LASF76
 3890 0400 02       		.byte	0x2
 3891 0401 07       		.uleb128 0x7
 3892 0402 DF050000 		.4byte	.LASF77
 3893 0406 03       		.byte	0x3
 3894 0407 07       		.uleb128 0x7
 3895 0408 7B080000 		.4byte	.LASF78
 3896 040c 04       		.byte	0x4
 3897 040d 07       		.uleb128 0x7
 3898 040e A00B0000 		.4byte	.LASF79
 3899 0412 05       		.byte	0x5
 3900 0413 00       		.byte	0
 3901 0414 09       		.uleb128 0x9
 3902 0415 A4020000 		.4byte	.LASF80
 3903 0419 06       		.byte	0x6
 3904 041a 46       		.byte	0x46
 3905 041b 03       		.byte	0x3
 3906 041c E4030000 		.4byte	0x3e4
 3907 0420 13       		.uleb128 0x13
 3908 0421 47000000 		.4byte	0x47
 3909 0425 06       		.byte	0x6
 3910 0426 4C       		.byte	0x4c
 3911 0427 68040000 		.4byte	0x468
 3912 042b 07       		.uleb128 0x7
 3913 042c 71010000 		.4byte	.LASF81
 3914 0430 00       		.byte	0
 3915 0431 07       		.uleb128 0x7
 3916 0432 3A0B0000 		.4byte	.LASF82
 3917 0436 01       		.byte	0x1
 3918 0437 07       		.uleb128 0x7
 3919 0438 FE020000 		.4byte	.LASF83
 3920 043c 02       		.byte	0x2
 3921 043d 07       		.uleb128 0x7
 3922 043e E40A0000 		.4byte	.LASF84
 3923 0442 03       		.byte	0x3
 3924 0443 07       		.uleb128 0x7
 3925 0444 61090000 		.4byte	.LASF85
 3926 0448 04       		.byte	0x4
 3927 0449 07       		.uleb128 0x7
 3928 044a 2B0B0000 		.4byte	.LASF86
 3929 044e 05       		.byte	0x5
 3930 044f 07       		.uleb128 0x7
 3931 0450 70040000 		.4byte	.LASF87
 3932 0454 06       		.byte	0x6
 3933 0455 07       		.uleb128 0x7
ARM GAS  C:\Users\DEVELO~1\AppData\Local\Temp\ccbkr0PB.s 			page 70


 3934 0456 C10A0000 		.4byte	.LASF88
 3935 045a 07       		.byte	0x7
 3936 045b 07       		.uleb128 0x7
 3937 045c 05070000 		.4byte	.LASF89
 3938 0460 08       		.byte	0x8
 3939 0461 07       		.uleb128 0x7
 3940 0462 34080000 		.4byte	.LASF90
 3941 0466 09       		.byte	0x9
 3942 0467 00       		.byte	0
 3943 0468 09       		.uleb128 0x9
 3944 0469 850B0000 		.4byte	.LASF91
 3945 046d 06       		.byte	0x6
 3946 046e 57       		.byte	0x57
 3947 046f 03       		.byte	0x3
 3948 0470 20040000 		.4byte	0x420
 3949 0474 26       		.uleb128 0x26
 3950 0475 0D       		.byte	0xd
 3951 0476 5D       		.byte	0x5d
 3952 0477 25050000 		.4byte	0x525
 3953 047b 02       		.uleb128 0x2
 3954 047c A1010000 		.4byte	.LASF92
 3955 0480 06       		.byte	0x6
 3956 0481 5F       		.byte	0x5f
 3957 0482 0B       		.byte	0xb
 3958 0483 90000000 		.4byte	0x90
 3959 0487 00       		.byte	0
 3960 0488 02       		.uleb128 0x2
 3961 0489 C9030000 		.4byte	.LASF93
 3962 048d 06       		.byte	0x6
 3963 048e 63       		.byte	0x63
 3964 048f 0B       		.byte	0xb
 3965 0490 90000000 		.4byte	0x90
 3966 0494 01       		.byte	0x1
 3967 0495 02       		.uleb128 0x2
 3968 0496 E0060000 		.4byte	.LASF94
 3969 049a 06       		.byte	0x6
 3970 049b 67       		.byte	0x67
 3971 049c 0B       		.byte	0xb
 3972 049d 90000000 		.4byte	0x90
 3973 04a1 02       		.byte	0x2
 3974 04a2 02       		.uleb128 0x2
 3975 04a3 E30B0000 		.4byte	.LASF95
 3976 04a7 06       		.byte	0x6
 3977 04a8 6A       		.byte	0x6a
 3978 04a9 0B       		.byte	0xb
 3979 04aa 90000000 		.4byte	0x90
 3980 04ae 03       		.byte	0x3
 3981 04af 02       		.uleb128 0x2
 3982 04b0 A90A0000 		.4byte	.LASF96
 3983 04b4 06       		.byte	0x6
 3984 04b5 6E       		.byte	0x6e
 3985 04b6 0B       		.byte	0xb
 3986 04b7 90000000 		.4byte	0x90
 3987 04bb 04       		.byte	0x4
 3988 04bc 02       		.uleb128 0x2
 3989 04bd C7020000 		.4byte	.LASF97
 3990 04c1 06       		.byte	0x6
ARM GAS  C:\Users\DEVELO~1\AppData\Local\Temp\ccbkr0PB.s 			page 71


 3991 04c2 70       		.byte	0x70
 3992 04c3 0B       		.byte	0xb
 3993 04c4 90000000 		.4byte	0x90
 3994 04c8 05       		.byte	0x5
 3995 04c9 02       		.uleb128 0x2
 3996 04ca 6C060000 		.4byte	.LASF98
 3997 04ce 06       		.byte	0x6
 3998 04cf 73       		.byte	0x73
 3999 04d0 0B       		.byte	0xb
 4000 04d1 90000000 		.4byte	0x90
 4001 04d5 06       		.byte	0x6
 4002 04d6 02       		.uleb128 0x2
 4003 04d7 620C0000 		.4byte	.LASF99
 4004 04db 06       		.byte	0x6
 4005 04dc 75       		.byte	0x75
 4006 04dd 0B       		.byte	0xb
 4007 04de 90000000 		.4byte	0x90
 4008 04e2 07       		.byte	0x7
 4009 04e3 02       		.uleb128 0x2
 4010 04e4 5D0B0000 		.4byte	.LASF100
 4011 04e8 06       		.byte	0x6
 4012 04e9 77       		.byte	0x77
 4013 04ea 0B       		.byte	0xb
 4014 04eb 90000000 		.4byte	0x90
 4015 04ef 08       		.byte	0x8
 4016 04f0 02       		.uleb128 0x2
 4017 04f1 B0080000 		.4byte	.LASF101
 4018 04f5 06       		.byte	0x6
 4019 04f6 79       		.byte	0x79
 4020 04f7 0B       		.byte	0xb
 4021 04f8 90000000 		.4byte	0x90
 4022 04fc 09       		.byte	0x9
 4023 04fd 02       		.uleb128 0x2
 4024 04fe 8D010000 		.4byte	.LASF102
 4025 0502 06       		.byte	0x6
 4026 0503 7B       		.byte	0x7b
 4027 0504 0B       		.byte	0xb
 4028 0505 90000000 		.4byte	0x90
 4029 0509 0A       		.byte	0xa
 4030 050a 02       		.uleb128 0x2
 4031 050b FE000000 		.4byte	.LASF103
 4032 050f 06       		.byte	0x6
 4033 0510 7D       		.byte	0x7d
 4034 0511 0B       		.byte	0xb
 4035 0512 90000000 		.4byte	0x90
 4036 0516 0B       		.byte	0xb
 4037 0517 02       		.uleb128 0x2
 4038 0518 8F040000 		.4byte	.LASF104
 4039 051c 06       		.byte	0x6
 4040 051d 7F       		.byte	0x7f
 4041 051e 0B       		.byte	0xb
 4042 051f 90000000 		.4byte	0x90
 4043 0523 0C       		.byte	0xc
 4044 0524 00       		.byte	0
 4045 0525 09       		.uleb128 0x9
 4046 0526 8E080000 		.4byte	.LASF105
 4047 052a 06       		.byte	0x6
ARM GAS  C:\Users\DEVELO~1\AppData\Local\Temp\ccbkr0PB.s 			page 72


 4048 052b 81       		.byte	0x81
 4049 052c 03       		.byte	0x3
 4050 052d 74040000 		.4byte	0x474
 4051 0531 11       		.uleb128 0x11
 4052 0532 90000000 		.4byte	0x90
 4053 0536 26       		.uleb128 0x26
 4054 0537 3C       		.byte	0x3c
 4055 0538 AB       		.byte	0xab
 4056 0539 90060000 		.4byte	0x690
 4057 053d 02       		.uleb128 0x2
 4058 053e DE010000 		.4byte	.LASF106
 4059 0542 06       		.byte	0x6
 4060 0543 AD       		.byte	0xad
 4061 0544 0D       		.byte	0xd
 4062 0545 90000000 		.4byte	0x90
 4063 0549 00       		.byte	0
 4064 054a 02       		.uleb128 0x2
 4065 054b 29020000 		.4byte	.LASF107
 4066 054f 06       		.byte	0x6
 4067 0550 B0       		.byte	0xb0
 4068 0551 0D       		.byte	0xd
 4069 0552 90000000 		.4byte	0x90
 4070 0556 01       		.byte	0x1
 4071 0557 02       		.uleb128 0x2
 4072 0558 FC080000 		.4byte	.LASF108
 4073 055c 06       		.byte	0x6
 4074 055d B3       		.byte	0xb3
 4075 055e 0D       		.byte	0xd
 4076 055f 90000000 		.4byte	0x90
 4077 0563 02       		.byte	0x2
 4078 0564 02       		.uleb128 0x2
 4079 0565 6D050000 		.4byte	.LASF109
 4080 0569 06       		.byte	0x6
 4081 056a B6       		.byte	0xb6
 4082 056b 0D       		.byte	0xd
 4083 056c 90000000 		.4byte	0x90
 4084 0570 03       		.byte	0x3
 4085 0571 02       		.uleb128 0x2
 4086 0572 E30B0000 		.4byte	.LASF95
 4087 0576 06       		.byte	0x6
 4088 0577 B9       		.byte	0xb9
 4089 0578 0D       		.byte	0xd
 4090 0579 90000000 		.4byte	0x90
 4091 057d 04       		.byte	0x4
 4092 057e 02       		.uleb128 0x2
 4093 057f 96030000 		.4byte	.LASF110
 4094 0583 06       		.byte	0x6
 4095 0584 BD       		.byte	0xbd
 4096 0585 0D       		.byte	0xd
 4097 0586 90000000 		.4byte	0x90
 4098 058a 05       		.byte	0x5
 4099 058b 02       		.uleb128 0x2
 4100 058c FB060000 		.4byte	.LASF111
 4101 0590 06       		.byte	0x6
 4102 0591 BE       		.byte	0xbe
 4103 0592 0D       		.byte	0xd
 4104 0593 90000000 		.4byte	0x90
ARM GAS  C:\Users\DEVELO~1\AppData\Local\Temp\ccbkr0PB.s 			page 73


 4105 0597 06       		.byte	0x6
 4106 0598 02       		.uleb128 0x2
 4107 0599 53010000 		.4byte	.LASF112
 4108 059d 06       		.byte	0x6
 4109 059e BF       		.byte	0xbf
 4110 059f 0D       		.byte	0xd
 4111 05a0 90000000 		.4byte	0x90
 4112 05a4 07       		.byte	0x7
 4113 05a5 02       		.uleb128 0x2
 4114 05a6 1F050000 		.4byte	.LASF113
 4115 05aa 06       		.byte	0x6
 4116 05ab C0       		.byte	0xc0
 4117 05ac 0D       		.byte	0xd
 4118 05ad 90000000 		.4byte	0x90
 4119 05b1 08       		.byte	0x8
 4120 05b2 02       		.uleb128 0x2
 4121 05b3 72070000 		.4byte	.LASF114
 4122 05b7 06       		.byte	0x6
 4123 05b8 C1       		.byte	0xc1
 4124 05b9 0D       		.byte	0xd
 4125 05ba A8000000 		.4byte	0xa8
 4126 05be 0C       		.byte	0xc
 4127 05bf 02       		.uleb128 0x2
 4128 05c0 870A0000 		.4byte	.LASF115
 4129 05c4 06       		.byte	0x6
 4130 05c5 C3       		.byte	0xc3
 4131 05c6 0D       		.byte	0xd
 4132 05c7 90000000 		.4byte	0x90
 4133 05cb 10       		.byte	0x10
 4134 05cc 02       		.uleb128 0x2
 4135 05cd F5020000 		.4byte	.LASF116
 4136 05d1 06       		.byte	0x6
 4137 05d2 C4       		.byte	0xc4
 4138 05d3 0D       		.byte	0xd
 4139 05d4 90000000 		.4byte	0x90
 4140 05d8 11       		.byte	0x11
 4141 05d9 02       		.uleb128 0x2
 4142 05da 000B0000 		.4byte	.LASF117
 4143 05de 06       		.byte	0x6
 4144 05df C6       		.byte	0xc6
 4145 05e0 0D       		.byte	0xd
 4146 05e1 90000000 		.4byte	0x90
 4147 05e5 12       		.byte	0x12
 4148 05e6 02       		.uleb128 0x2
 4149 05e7 9C090000 		.4byte	.LASF118
 4150 05eb 06       		.byte	0x6
 4151 05ec C9       		.byte	0xc9
 4152 05ed 0D       		.byte	0xd
 4153 05ee 9C000000 		.4byte	0x9c
 4154 05f2 14       		.byte	0x14
 4155 05f3 02       		.uleb128 0x2
 4156 05f4 E8050000 		.4byte	.LASF119
 4157 05f8 06       		.byte	0x6
 4158 05f9 CC       		.byte	0xcc
 4159 05fa 0D       		.byte	0xd
 4160 05fb 90000000 		.4byte	0x90
 4161 05ff 16       		.byte	0x16
ARM GAS  C:\Users\DEVELO~1\AppData\Local\Temp\ccbkr0PB.s 			page 74


 4162 0600 02       		.uleb128 0x2
 4163 0601 180B0000 		.4byte	.LASF120
 4164 0605 06       		.byte	0x6
 4165 0606 CF       		.byte	0xcf
 4166 0607 0E       		.byte	0xe
 4167 0608 31050000 		.4byte	0x531
 4168 060c 18       		.byte	0x18
 4169 060d 02       		.uleb128 0x2
 4170 060e D2020000 		.4byte	.LASF121
 4171 0612 06       		.byte	0x6
 4172 0613 D1       		.byte	0xd1
 4173 0614 0D       		.byte	0xd
 4174 0615 A8000000 		.4byte	0xa8
 4175 0619 1C       		.byte	0x1c
 4176 061a 02       		.uleb128 0x2
 4177 061b D6050000 		.4byte	.LASF122
 4178 061f 06       		.byte	0x6
 4179 0620 D3       		.byte	0xd3
 4180 0621 0D       		.byte	0xd
 4181 0622 A8000000 		.4byte	0xa8
 4182 0626 20       		.byte	0x20
 4183 0627 02       		.uleb128 0x2
 4184 0628 09060000 		.4byte	.LASF123
 4185 062c 06       		.byte	0x6
 4186 062d D5       		.byte	0xd5
 4187 062e 0D       		.byte	0xd
 4188 062f A8000000 		.4byte	0xa8
 4189 0633 24       		.byte	0x24
 4190 0634 02       		.uleb128 0x2
 4191 0635 D0060000 		.4byte	.LASF124
 4192 0639 06       		.byte	0x6
 4193 063a D7       		.byte	0xd7
 4194 063b 0D       		.byte	0xd
 4195 063c 90000000 		.4byte	0x90
 4196 0640 28       		.byte	0x28
 4197 0641 02       		.uleb128 0x2
 4198 0642 6A0A0000 		.4byte	.LASF125
 4199 0646 06       		.byte	0x6
 4200 0647 DA       		.byte	0xda
 4201 0648 0D       		.byte	0xd
 4202 0649 90000000 		.4byte	0x90
 4203 064d 29       		.byte	0x29
 4204 064e 02       		.uleb128 0x2
 4205 064f 7C0B0000 		.4byte	.LASF126
 4206 0653 06       		.byte	0x6
 4207 0654 DD       		.byte	0xdd
 4208 0655 0D       		.byte	0xd
 4209 0656 A8000000 		.4byte	0xa8
 4210 065a 2C       		.byte	0x2c
 4211 065b 02       		.uleb128 0x2
 4212 065c D60B0000 		.4byte	.LASF127
 4213 0660 06       		.byte	0x6
 4214 0661 DF       		.byte	0xdf
 4215 0662 0D       		.byte	0xd
 4216 0663 A8000000 		.4byte	0xa8
 4217 0667 30       		.byte	0x30
 4218 0668 02       		.uleb128 0x2
ARM GAS  C:\Users\DEVELO~1\AppData\Local\Temp\ccbkr0PB.s 			page 75


 4219 0669 D4040000 		.4byte	.LASF128
 4220 066d 06       		.byte	0x6
 4221 066e E0       		.byte	0xe0
 4222 066f 0D       		.byte	0xd
 4223 0670 A8000000 		.4byte	0xa8
 4224 0674 34       		.byte	0x34
 4225 0675 02       		.uleb128 0x2
 4226 0676 8F050000 		.4byte	.LASF129
 4227 067a 06       		.byte	0x6
 4228 067b E2       		.byte	0xe2
 4229 067c 17       		.byte	0x17
 4230 067d 14040000 		.4byte	0x414
 4231 0681 38       		.byte	0x38
 4232 0682 02       		.uleb128 0x2
 4233 0683 95020000 		.4byte	.LASF130
 4234 0687 06       		.byte	0x6
 4235 0688 E5       		.byte	0xe5
 4236 0689 16       		.byte	0x16
 4237 068a 68040000 		.4byte	0x468
 4238 068e 39       		.byte	0x39
 4239 068f 00       		.byte	0
 4240 0690 09       		.uleb128 0x9
 4241 0691 FC040000 		.4byte	.LASF131
 4242 0695 06       		.byte	0x6
 4243 0696 E7       		.byte	0xe7
 4244 0697 03       		.byte	0x3
 4245 0698 36050000 		.4byte	0x536
 4246 069c 09       		.uleb128 0x9
 4247 069d 680B0000 		.4byte	.LASF132
 4248 06a1 06       		.byte	0x6
 4249 06a2 E9       		.byte	0xe9
 4250 06a3 1D       		.byte	0x1d
 4251 06a4 D8030000 		.4byte	0x3d8
 4252 06a8 09       		.uleb128 0x9
 4253 06a9 31040000 		.4byte	.LASF133
 4254 06ad 06       		.byte	0x6
 4255 06ae EA       		.byte	0xea
 4256 06af 1D       		.byte	0x1d
 4257 06b0 25050000 		.4byte	0x525
 4258 06b4 09       		.uleb128 0x9
 4259 06b5 0F070000 		.4byte	.LASF134
 4260 06b9 06       		.byte	0x6
 4261 06ba EC       		.byte	0xec
 4262 06bb 1D       		.byte	0x1d
 4263 06bc 14040000 		.4byte	0x414
 4264 06c0 09       		.uleb128 0x9
 4265 06c1 AE050000 		.4byte	.LASF135
 4266 06c5 06       		.byte	0x6
 4267 06c6 ED       		.byte	0xed
 4268 06c7 1D       		.byte	0x1d
 4269 06c8 68040000 		.4byte	0x468
 4270 06cc 09       		.uleb128 0x9
 4271 06cd B5060000 		.4byte	.LASF136
 4272 06d1 06       		.byte	0x6
 4273 06d2 EE       		.byte	0xee
 4274 06d3 1D       		.byte	0x1d
 4275 06d4 90060000 		.4byte	0x690
ARM GAS  C:\Users\DEVELO~1\AppData\Local\Temp\ccbkr0PB.s 			page 76


 4276 06d8 13       		.uleb128 0x13
 4277 06d9 47000000 		.4byte	0x47
 4278 06dd 07       		.byte	0x7
 4279 06de 30       		.byte	0x30
 4280 06df 02070000 		.4byte	0x702
 4281 06e3 07       		.uleb128 0x7
 4282 06e4 5D010000 		.4byte	.LASF137
 4283 06e8 00       		.byte	0
 4284 06e9 07       		.uleb128 0x7
 4285 06ea 17030000 		.4byte	.LASF138
 4286 06ee 01       		.byte	0x1
 4287 06ef 07       		.uleb128 0x7
 4288 06f0 900C0000 		.4byte	.LASF139
 4289 06f4 02       		.byte	0x2
 4290 06f5 07       		.uleb128 0x7
 4291 06f6 16020000 		.4byte	.LASF140
 4292 06fa 03       		.byte	0x3
 4293 06fb 07       		.uleb128 0x7
 4294 06fc 8F000000 		.4byte	.LASF141
 4295 0700 04       		.byte	0x4
 4296 0701 00       		.byte	0
 4297 0702 09       		.uleb128 0x9
 4298 0703 57050000 		.4byte	.LASF142
 4299 0707 07       		.byte	0x7
 4300 0708 36       		.byte	0x36
 4301 0709 03       		.byte	0x3
 4302 070a D8060000 		.4byte	0x6d8
 4303 070e 1D       		.uleb128 0x1d
 4304 070f 02070000 		.4byte	0x702
 4305 0713 09       		.uleb128 0x9
 4306 0714 81010000 		.4byte	.LASF143
 4307 0718 07       		.byte	0x7
 4308 0719 38       		.byte	0x38
 4309 071a 21       		.byte	0x21
 4310 071b 5A020000 		.4byte	0x25a
 4311 071f 09       		.uleb128 0x9
 4312 0720 B10A0000 		.4byte	.LASF144
 4313 0724 07       		.byte	0x7
 4314 0725 39       		.byte	0x39
 4315 0726 21       		.byte	0x21
 4316 0727 A8060000 		.4byte	0x6a8
 4317 072b 09       		.uleb128 0x9
 4318 072c C80B0000 		.4byte	.LASF145
 4319 0730 07       		.byte	0x7
 4320 0731 3A       		.byte	0x3a
 4321 0732 21       		.byte	0x21
 4322 0733 CC060000 		.4byte	0x6cc
 4323 0737 09       		.uleb128 0x9
 4324 0738 18010000 		.4byte	.LASF146
 4325 073c 07       		.byte	0x7
 4326 073d 3B       		.byte	0x3b
 4327 073e 21       		.byte	0x21
 4328 073f B4060000 		.4byte	0x6b4
 4329 0743 09       		.uleb128 0x9
 4330 0744 38030000 		.4byte	.LASF147
 4331 0748 07       		.byte	0x7
 4332 0749 3C       		.byte	0x3c
ARM GAS  C:\Users\DEVELO~1\AppData\Local\Temp\ccbkr0PB.s 			page 77


 4333 074a 21       		.byte	0x21
 4334 074b C0060000 		.4byte	0x6c0
 4335 074f 32       		.uleb128 0x32
 4336 0750 E003     		.2byte	0x3e0
 4337 0752 07       		.byte	0x7
 4338 0753 47       		.byte	0x47
 4339 0754 09       		.byte	0x9
 4340 0755 B4070000 		.4byte	0x7b4
 4341 0759 02       		.uleb128 0x2
 4342 075a 62070000 		.4byte	.LASF148
 4343 075e 07       		.byte	0x7
 4344 075f 4A       		.byte	0x4a
 4345 0760 1E       		.byte	0x1e
 4346 0761 B4070000 		.4byte	0x7b4
 4347 0765 00       		.byte	0
 4348 0766 02       		.uleb128 0x2
 4349 0767 8A000000 		.4byte	.LASF149
 4350 076b 07       		.byte	0x7
 4351 076c 4B       		.byte	0x4b
 4352 076d 1D       		.byte	0x1d
 4353 076e 1F070000 		.4byte	0x71f
 4354 0772 04       		.byte	0x4
 4355 0773 33       		.uleb128 0x33
 4356 0774 686300   		.ascii	"hc\000"
 4357 0777 07       		.byte	0x7
 4358 0778 4C       		.byte	0x4c
 4359 0779 1D       		.byte	0x1d
 4360 077a B9070000 		.4byte	0x7b9
 4361 077e 14       		.byte	0x14
 4362 077f 18       		.uleb128 0x18
 4363 0780 38050000 		.4byte	.LASF150
 4364 0784 4D       		.byte	0x4d
 4365 0785 1D       		.byte	0x1d
 4366 0786 AE030000 		.4byte	0x3ae
 4367 078a D403     		.2byte	0x3d4
 4368 078c 18       		.uleb128 0x18
 4369 078d 7F090000 		.4byte	.LASF151
 4370 0791 4E       		.byte	0x4e
 4371 0792 1D       		.byte	0x1d
 4372 0793 0E070000 		.4byte	0x70e
 4373 0797 D503     		.2byte	0x3d5
 4374 0799 18       		.uleb128 0x18
 4375 079a 2E050000 		.4byte	.LASF152
 4376 079e 4F       		.byte	0x4f
 4377 079f 1D       		.byte	0x1d
 4378 07a0 B4000000 		.4byte	0xb4
 4379 07a4 D803     		.2byte	0x3d8
 4380 07a6 18       		.uleb128 0x18
 4381 07a7 7C030000 		.4byte	.LASF153
 4382 07ab 50       		.byte	0x50
 4383 07ac 1E       		.byte	0x1e
 4384 07ad 4F030000 		.4byte	0x34f
 4385 07b1 DC03     		.2byte	0x3dc
 4386 07b3 00       		.byte	0
 4387 07b4 11       		.uleb128 0x11
 4388 07b5 13070000 		.4byte	0x713
 4389 07b9 16       		.uleb128 0x16
ARM GAS  C:\Users\DEVELO~1\AppData\Local\Temp\ccbkr0PB.s 			page 78


 4390 07ba 2B070000 		.4byte	0x72b
 4391 07be C9070000 		.4byte	0x7c9
 4392 07c2 17       		.uleb128 0x17
 4393 07c3 26000000 		.4byte	0x26
 4394 07c7 0F       		.byte	0xf
 4395 07c8 00       		.byte	0
 4396 07c9 09       		.uleb128 0x9
 4397 07ca 42080000 		.4byte	.LASF154
 4398 07ce 07       		.byte	0x7
 4399 07cf 5D       		.byte	0x5d
 4400 07d0 03       		.byte	0x3
 4401 07d1 4F070000 		.4byte	0x74f
 4402 07d5 24       		.uleb128 0x24
 4403 07d6 C9070000 		.4byte	0x7c9
 4404 07da 0A       		.uleb128 0xa
 4405 07db 1C090000 		.4byte	.LASF155
 4406 07df 1D02     		.2byte	0x21d
 4407 07e1 A8000000 		.4byte	0xa8
 4408 07e5 EF070000 		.4byte	0x7ef
 4409 07e9 03       		.uleb128 0x3
 4410 07ea EF070000 		.4byte	0x7ef
 4411 07ee 00       		.byte	0
 4412 07ef 11       		.uleb128 0x11
 4413 07f0 65020000 		.4byte	0x265
 4414 07f4 0A       		.uleb128 0xa
 4415 07f5 AA0B0000 		.4byte	.LASF156
 4416 07f9 1A02     		.2byte	0x21a
 4417 07fb 8A030000 		.4byte	0x38a
 4418 07ff 09080000 		.4byte	0x809
 4419 0803 03       		.uleb128 0x3
 4420 0804 EF070000 		.4byte	0x7ef
 4421 0808 00       		.byte	0
 4422 0809 0A       		.uleb128 0xa
 4423 080a AF010000 		.4byte	.LASF157
 4424 080e 2702     		.2byte	0x227
 4425 0810 8A030000 		.4byte	0x38a
 4426 0814 1E080000 		.4byte	0x81e
 4427 0818 03       		.uleb128 0x3
 4428 0819 1E080000 		.4byte	0x81e
 4429 081d 00       		.byte	0
 4430 081e 11       		.uleb128 0x11
 4431 081f 5A020000 		.4byte	0x25a
 4432 0823 0A       		.uleb128 0xa
 4433 0824 3A070000 		.4byte	.LASF158
 4434 0828 F501     		.2byte	0x1f5
 4435 082a 8A030000 		.4byte	0x38a
 4436 082e 38080000 		.4byte	0x838
 4437 0832 03       		.uleb128 0x3
 4438 0833 1E080000 		.4byte	0x81e
 4439 0837 00       		.byte	0
 4440 0838 0A       		.uleb128 0xa
 4441 0839 82030000 		.4byte	.LASF159
 4442 083d 1B02     		.2byte	0x21b
 4443 083f 8A030000 		.4byte	0x38a
 4444 0843 52080000 		.4byte	0x852
 4445 0847 03       		.uleb128 0x3
 4446 0848 EF070000 		.4byte	0x7ef
ARM GAS  C:\Users\DEVELO~1\AppData\Local\Temp\ccbkr0PB.s 			page 79


 4447 084c 03       		.uleb128 0x3
 4448 084d 90000000 		.4byte	0x90
 4449 0851 00       		.byte	0
 4450 0852 0A       		.uleb128 0xa
 4451 0853 B8020000 		.4byte	.LASF160
 4452 0857 0402     		.2byte	0x204
 4453 0859 4F030000 		.4byte	0x34f
 4454 085d 71080000 		.4byte	0x871
 4455 0861 03       		.uleb128 0x3
 4456 0862 EF070000 		.4byte	0x7ef
 4457 0866 03       		.uleb128 0x3
 4458 0867 31050000 		.4byte	0x531
 4459 086b 03       		.uleb128 0x3
 4460 086c 9C000000 		.4byte	0x9c
 4461 0870 00       		.byte	0
 4462 0871 0A       		.uleb128 0xa
 4463 0872 B4070000 		.4byte	.LASF161
 4464 0876 1102     		.2byte	0x211
 4465 0878 A8000000 		.4byte	0xa8
 4466 087c 8B080000 		.4byte	0x88b
 4467 0880 03       		.uleb128 0x3
 4468 0881 EF070000 		.4byte	0x7ef
 4469 0885 03       		.uleb128 0x3
 4470 0886 90000000 		.4byte	0x90
 4471 088a 00       		.byte	0
 4472 088b 0A       		.uleb128 0xa
 4473 088c 940A0000 		.4byte	.LASF162
 4474 0890 2402     		.2byte	0x224
 4475 0892 A8000000 		.4byte	0xa8
 4476 0896 A0080000 		.4byte	0x8a0
 4477 089a 03       		.uleb128 0x3
 4478 089b EF070000 		.4byte	0x7ef
 4479 089f 00       		.byte	0
 4480 08a0 0A       		.uleb128 0xa
 4481 08a1 E1000000 		.4byte	.LASF163
 4482 08a5 1902     		.2byte	0x219
 4483 08a7 8A030000 		.4byte	0x38a
 4484 08ab BA080000 		.4byte	0x8ba
 4485 08af 03       		.uleb128 0x3
 4486 08b0 EF070000 		.4byte	0x7ef
 4487 08b4 03       		.uleb128 0x3
 4488 08b5 90000000 		.4byte	0x90
 4489 08b9 00       		.byte	0
 4490 08ba 0A       		.uleb128 0xa
 4491 08bb 85020000 		.4byte	.LASF164
 4492 08bf FA01     		.2byte	0x1fa
 4493 08c1 8A030000 		.4byte	0x38a
 4494 08c5 CF080000 		.4byte	0x8cf
 4495 08c9 03       		.uleb128 0x3
 4496 08ca 1E080000 		.4byte	0x81e
 4497 08ce 00       		.byte	0
 4498 08cf 0A       		.uleb128 0xa
 4499 08d0 24080000 		.4byte	.LASF165
 4500 08d4 FB01     		.2byte	0x1fb
 4501 08d6 8A030000 		.4byte	0x38a
 4502 08da E9080000 		.4byte	0x8e9
 4503 08de 03       		.uleb128 0x3
ARM GAS  C:\Users\DEVELO~1\AppData\Local\Temp\ccbkr0PB.s 			page 80


 4504 08df 1E080000 		.4byte	0x81e
 4505 08e3 03       		.uleb128 0x3
 4506 08e4 A8000000 		.4byte	0xa8
 4507 08e8 00       		.byte	0
 4508 08e9 0A       		.uleb128 0xa
 4509 08ea 27070000 		.4byte	.LASF166
 4510 08ee 1002     		.2byte	0x210
 4511 08f0 A8000000 		.4byte	0xa8
 4512 08f4 FE080000 		.4byte	0x8fe
 4513 08f8 03       		.uleb128 0x3
 4514 08f9 EF070000 		.4byte	0x7ef
 4515 08fd 00       		.byte	0
 4516 08fe 0A       		.uleb128 0xa
 4517 08ff 9C070000 		.4byte	.LASF167
 4518 0903 0F02     		.2byte	0x20f
 4519 0905 A8000000 		.4byte	0xa8
 4520 0909 13090000 		.4byte	0x913
 4521 090d 03       		.uleb128 0x3
 4522 090e EF070000 		.4byte	0x7ef
 4523 0912 00       		.byte	0
 4524 0913 0A       		.uleb128 0xa
 4525 0914 68090000 		.4byte	.LASF168
 4526 0918 2102     		.2byte	0x221
 4527 091a 8A030000 		.4byte	0x38a
 4528 091e 32090000 		.4byte	0x932
 4529 0922 03       		.uleb128 0x3
 4530 0923 1E080000 		.4byte	0x81e
 4531 0927 03       		.uleb128 0x3
 4532 0928 32090000 		.4byte	0x932
 4533 092c 03       		.uleb128 0x3
 4534 092d 90000000 		.4byte	0x90
 4535 0931 00       		.byte	0
 4536 0932 11       		.uleb128 0x11
 4537 0933 CC060000 		.4byte	0x6cc
 4538 0937 0A       		.uleb128 0xa
 4539 0938 A8070000 		.4byte	.LASF169
 4540 093c 2502     		.2byte	0x225
 4541 093e 8A030000 		.4byte	0x38a
 4542 0942 51090000 		.4byte	0x951
 4543 0946 03       		.uleb128 0x3
 4544 0947 EF070000 		.4byte	0x7ef
 4545 094b 03       		.uleb128 0x3
 4546 094c 90000000 		.4byte	0x90
 4547 0950 00       		.byte	0
 4548 0951 0A       		.uleb128 0xa
 4549 0952 85090000 		.4byte	.LASF170
 4550 0956 1E02     		.2byte	0x21e
 4551 0958 8A030000 		.4byte	0x38a
 4552 095c 84090000 		.4byte	0x984
 4553 0960 03       		.uleb128 0x3
 4554 0961 1E080000 		.4byte	0x81e
 4555 0965 03       		.uleb128 0x3
 4556 0966 90000000 		.4byte	0x90
 4557 096a 03       		.uleb128 0x3
 4558 096b 90000000 		.4byte	0x90
 4559 096f 03       		.uleb128 0x3
 4560 0970 90000000 		.4byte	0x90
ARM GAS  C:\Users\DEVELO~1\AppData\Local\Temp\ccbkr0PB.s 			page 81


 4561 0974 03       		.uleb128 0x3
 4562 0975 90000000 		.4byte	0x90
 4563 0979 03       		.uleb128 0x3
 4564 097a 90000000 		.4byte	0x90
 4565 097e 03       		.uleb128 0x3
 4566 097f 9C000000 		.4byte	0x9c
 4567 0983 00       		.byte	0
 4568 0984 0A       		.uleb128 0xa
 4569 0985 C5050000 		.4byte	.LASF171
 4570 0989 1C02     		.2byte	0x21c
 4571 098b A8000000 		.4byte	0xa8
 4572 098f 99090000 		.4byte	0x999
 4573 0993 03       		.uleb128 0x3
 4574 0994 EF070000 		.4byte	0x7ef
 4575 0998 00       		.byte	0
 4576 0999 0A       		.uleb128 0xa
 4577 099a E4070000 		.4byte	.LASF172
 4578 099e 1802     		.2byte	0x218
 4579 09a0 8A030000 		.4byte	0x38a
 4580 09a4 B3090000 		.4byte	0x9b3
 4581 09a8 03       		.uleb128 0x3
 4582 09a9 1E080000 		.4byte	0x81e
 4583 09ad 03       		.uleb128 0x3
 4584 09ae A8060000 		.4byte	0x6a8
 4585 09b2 00       		.byte	0
 4586 09b3 0A       		.uleb128 0xa
 4587 09b4 9D080000 		.4byte	.LASF173
 4588 09b8 F801     		.2byte	0x1f8
 4589 09ba 8A030000 		.4byte	0x38a
 4590 09be CD090000 		.4byte	0x9cd
 4591 09c2 03       		.uleb128 0x3
 4592 09c3 1E080000 		.4byte	0x81e
 4593 09c7 03       		.uleb128 0x3
 4594 09c8 9C060000 		.4byte	0x69c
 4595 09cc 00       		.byte	0
 4596 09cd 0A       		.uleb128 0xa
 4597 09ce C8080000 		.4byte	.LASF174
 4598 09d2 F301     		.2byte	0x1f3
 4599 09d4 8A030000 		.4byte	0x38a
 4600 09d8 E7090000 		.4byte	0x9e7
 4601 09dc 03       		.uleb128 0x3
 4602 09dd 1E080000 		.4byte	0x81e
 4603 09e1 03       		.uleb128 0x3
 4604 09e2 A8060000 		.4byte	0x6a8
 4605 09e6 00       		.byte	0
 4606 09e7 0A       		.uleb128 0xa
 4607 09e8 99050000 		.4byte	.LASF175
 4608 09ec F601     		.2byte	0x1f6
 4609 09ee 8A030000 		.4byte	0x38a
 4610 09f2 FC090000 		.4byte	0x9fc
 4611 09f6 03       		.uleb128 0x3
 4612 09f7 1E080000 		.4byte	0x81e
 4613 09fb 00       		.byte	0
 4614 09fc 27       		.uleb128 0x27
 4615 09fd 12050000 		.4byte	.LASF220
 4616 0a01 77       		.byte	0x77
 4617 0a02 89000000 		.4byte	0x89
ARM GAS  C:\Users\DEVELO~1\AppData\Local\Temp\ccbkr0PB.s 			page 82


 4618 0a06 0C0A0000 		.4byte	0xa0c
 4619 0a0a 28       		.uleb128 0x28
 4620 0a0b 00       		.byte	0
 4621 0a0c 19       		.uleb128 0x19
 4622 0a0d DF030000 		.4byte	.LASF180
 4623 0a11 5707     		.2byte	0x757
 4624 0a13 540A0000 		.4byte	0xa54
 4625 0a17 0C       		.uleb128 0xc
 4626 0a18 68050000 		.4byte	.LASF182
 4627 0a1c 5707     		.2byte	0x757
 4628 0a1e 34       		.byte	0x34
 4629 0a1f 540A0000 		.4byte	0xa54
 4630 0a23 0B       		.uleb128 0xb
 4631 0a24 85000000 		.4byte	.LASF176
 4632 0a28 5907     		.2byte	0x759
 4633 0a2a 20       		.byte	0x20
 4634 0a2b EF070000 		.4byte	0x7ef
 4635 0a2f 0B       		.uleb128 0xb
 4636 0a30 750A0000 		.4byte	.LASF177
 4637 0a34 5A07     		.2byte	0x75a
 4638 0a36 0C       		.byte	0xc
 4639 0a37 A8000000 		.4byte	0xa8
 4640 0a3b 0B       		.uleb128 0xb
 4641 0a3c 11030000 		.4byte	.LASF178
 4642 0a40 5B07     		.2byte	0x75b
 4643 0a42 11       		.byte	0x11
 4644 0a43 B4000000 		.4byte	0xb4
 4645 0a47 0B       		.uleb128 0xb
 4646 0a48 EB0A0000 		.4byte	.LASF179
 4647 0a4c 5C07     		.2byte	0x75c
 4648 0a4e 11       		.byte	0x11
 4649 0a4f B4000000 		.4byte	0xb4
 4650 0a53 00       		.byte	0
 4651 0a54 11       		.uleb128 0x11
 4652 0a55 C9070000 		.4byte	0x7c9
 4653 0a59 19       		.uleb128 0x19
 4654 0a5a 79040000 		.4byte	.LASF181
 4655 0a5e 1507     		.2byte	0x715
 4656 0a60 D10A0000 		.4byte	0xad1
 4657 0a64 0C       		.uleb128 0xc
 4658 0a65 68050000 		.4byte	.LASF182
 4659 0a69 1507     		.2byte	0x715
 4660 0a6b 36       		.byte	0x36
 4661 0a6c 540A0000 		.4byte	0xa54
 4662 0a70 0B       		.uleb128 0xb
 4663 0a71 85000000 		.4byte	.LASF176
 4664 0a75 1707     		.2byte	0x717
 4665 0a77 20       		.byte	0x20
 4666 0a78 EF070000 		.4byte	0x7ef
 4667 0a7c 0B       		.uleb128 0xb
 4668 0a7d 750A0000 		.4byte	.LASF177
 4669 0a81 1807     		.2byte	0x718
 4670 0a83 0C       		.byte	0xc
 4671 0a84 A8000000 		.4byte	0xa8
 4672 0a88 0B       		.uleb128 0xb
 4673 0a89 65060000 		.4byte	.LASF183
 4674 0a8d 1907     		.2byte	0x719
ARM GAS  C:\Users\DEVELO~1\AppData\Local\Temp\ccbkr0PB.s 			page 83


 4675 0a8f 0C       		.byte	0xc
 4676 0a90 A8000000 		.4byte	0xa8
 4677 0a94 0B       		.uleb128 0xb
 4678 0a95 6B070000 		.4byte	.LASF184
 4679 0a99 1A07     		.2byte	0x71a
 4680 0a9b 0C       		.byte	0xc
 4681 0a9c A8000000 		.4byte	0xa8
 4682 0aa0 0B       		.uleb128 0xb
 4683 0aa1 D3010000 		.4byte	.LASF185
 4684 0aa5 1B07     		.2byte	0x71b
 4685 0aa7 0C       		.byte	0xc
 4686 0aa8 A8000000 		.4byte	0xa8
 4687 0aac 0B       		.uleb128 0xb
 4688 0aad 96060000 		.4byte	.LASF186
 4689 0ab1 1C07     		.2byte	0x71c
 4690 0ab3 0C       		.byte	0xc
 4691 0ab4 A8000000 		.4byte	0xa8
 4692 0ab8 0B       		.uleb128 0xb
 4693 0ab9 60020000 		.4byte	.LASF187
 4694 0abd 1D07     		.2byte	0x71d
 4695 0abf 0C       		.byte	0xc
 4696 0ac0 A8000000 		.4byte	0xa8
 4697 0ac4 0B       		.uleb128 0xb
 4698 0ac5 260C0000 		.4byte	.LASF188
 4699 0ac9 1E07     		.2byte	0x71e
 4700 0acb 0C       		.byte	0xc
 4701 0acc A8000000 		.4byte	0xa8
 4702 0ad0 00       		.byte	0
 4703 0ad1 19       		.uleb128 0x19
 4704 0ad2 0F040000 		.4byte	.LASF189
 4705 0ad6 2406     		.2byte	0x624
 4706 0ad8 250B0000 		.4byte	0xb25
 4707 0adc 0C       		.uleb128 0xc
 4708 0add 68050000 		.4byte	.LASF182
 4709 0ae1 2406     		.2byte	0x624
 4710 0ae3 36       		.byte	0x36
 4711 0ae4 540A0000 		.4byte	0xa54
 4712 0ae8 0C       		.uleb128 0xc
 4713 0ae9 260C0000 		.4byte	.LASF188
 4714 0aed 2406     		.2byte	0x624
 4715 0aef 44       		.byte	0x44
 4716 0af0 90000000 		.4byte	0x90
 4717 0af4 0B       		.uleb128 0xb
 4718 0af5 85000000 		.4byte	.LASF176
 4719 0af9 2606     		.2byte	0x626
 4720 0afb 20       		.byte	0x20
 4721 0afc EF070000 		.4byte	0x7ef
 4722 0b00 0B       		.uleb128 0xb
 4723 0b01 750A0000 		.4byte	.LASF177
 4724 0b05 2706     		.2byte	0x627
 4725 0b07 0C       		.byte	0xc
 4726 0b08 A8000000 		.4byte	0xa8
 4727 0b0c 0B       		.uleb128 0xb
 4728 0b0d 60020000 		.4byte	.LASF187
 4729 0b11 2806     		.2byte	0x628
 4730 0b13 0C       		.byte	0xc
 4731 0b14 A8000000 		.4byte	0xa8
ARM GAS  C:\Users\DEVELO~1\AppData\Local\Temp\ccbkr0PB.s 			page 84


 4732 0b18 0B       		.uleb128 0xb
 4733 0b19 55090000 		.4byte	.LASF190
 4734 0b1d 2906     		.2byte	0x629
 4735 0b1f 0C       		.byte	0xc
 4736 0b20 A8000000 		.4byte	0xa8
 4737 0b24 00       		.byte	0
 4738 0b25 19       		.uleb128 0x19
 4739 0b26 A1040000 		.4byte	.LASF191
 4740 0b2a E504     		.2byte	0x4e5
 4741 0b2c 6D0B0000 		.4byte	0xb6d
 4742 0b30 0C       		.uleb128 0xc
 4743 0b31 68050000 		.4byte	.LASF182
 4744 0b35 E504     		.2byte	0x4e5
 4745 0b37 35       		.byte	0x35
 4746 0b38 540A0000 		.4byte	0xa54
 4747 0b3c 0C       		.uleb128 0xc
 4748 0b3d 260C0000 		.4byte	.LASF188
 4749 0b41 E504     		.2byte	0x4e5
 4750 0b43 43       		.byte	0x43
 4751 0b44 90000000 		.4byte	0x90
 4752 0b48 0B       		.uleb128 0xb
 4753 0b49 85000000 		.4byte	.LASF176
 4754 0b4d E704     		.2byte	0x4e7
 4755 0b4f 20       		.byte	0x20
 4756 0b50 EF070000 		.4byte	0x7ef
 4757 0b54 0B       		.uleb128 0xb
 4758 0b55 750A0000 		.4byte	.LASF177
 4759 0b59 E804     		.2byte	0x4e8
 4760 0b5b 0C       		.byte	0xc
 4761 0b5c A8000000 		.4byte	0xa8
 4762 0b60 0B       		.uleb128 0xb
 4763 0b61 60020000 		.4byte	.LASF187
 4764 0b65 E904     		.2byte	0x4e9
 4765 0b67 0C       		.byte	0xc
 4766 0b68 A8000000 		.4byte	0xa8
 4767 0b6c 00       		.byte	0
 4768 0b6d 34       		.uleb128 0x34
 4769 0b6e 48020000 		.4byte	.LASF192
 4770 0b72 01       		.byte	0x1
 4771 0b73 CA04     		.2byte	0x4ca
 4772 0b75 13       		.byte	0x13
 4773 0b76 8A030000 		.4byte	0x38a
 4774 0b7a 01       		.byte	0x1
 4775 0b7b 980B0000 		.4byte	0xb98
 4776 0b7f 0C       		.uleb128 0xc
 4777 0b80 68050000 		.4byte	.LASF182
 4778 0b84 CA04     		.2byte	0x4ca
 4779 0b86 3E       		.byte	0x3e
 4780 0b87 540A0000 		.4byte	0xa54
 4781 0b8b 0C       		.uleb128 0xc
 4782 0b8c 29020000 		.4byte	.LASF107
 4783 0b90 CA04     		.2byte	0x4ca
 4784 0b92 4C       		.byte	0x4c
 4785 0b93 90000000 		.4byte	0x90
 4786 0b97 00       		.byte	0
 4787 0b98 0F       		.uleb128 0xf
 4788 0b99 00020000 		.4byte	.LASF195
ARM GAS  C:\Users\DEVELO~1\AppData\Local\Temp\ccbkr0PB.s 			page 85


 4789 0b9d AC04     		.2byte	0x4ac
 4790 0b9f 13       		.byte	0x13
 4791 0ba0 8A030000 		.4byte	0x38a
 4792 0ba4 00000000 		.4byte	.LFB164
 4793 0ba8 4A000000 		.4byte	.LFE164-.LFB164
 4794 0bac 01       		.uleb128 0x1
 4795 0bad 9C       		.byte	0x9c
 4796 0bae 200C0000 		.4byte	0xc20
 4797 0bb2 08       		.uleb128 0x8
 4798 0bb3 68050000 		.4byte	.LASF182
 4799 0bb7 AC04     		.2byte	0x4ac
 4800 0bb9 3C       		.byte	0x3c
 4801 0bba 540A0000 		.4byte	0xa54
 4802 0bbe 14000000 		.4byte	.LLST64
 4803 0bc2 0C000000 		.4byte	.LVUS64
 4804 0bc6 08       		.uleb128 0x8
 4805 0bc7 29020000 		.4byte	.LASF107
 4806 0bcb AC04     		.2byte	0x4ac
 4807 0bcd 4A       		.byte	0x4a
 4808 0bce 90000000 		.4byte	0x90
 4809 0bd2 35000000 		.4byte	.LLST65
 4810 0bd6 31000000 		.4byte	.LVUS65
 4811 0bda 08       		.uleb128 0x8
 4812 0bdb 43010000 		.4byte	.LASF193
 4813 0bdf AD04     		.2byte	0x4ad
 4814 0be1 31       		.byte	0x31
 4815 0be2 90000000 		.4byte	0x90
 4816 0be6 4C000000 		.4byte	.LLST66
 4817 0bea 48000000 		.4byte	.LVUS66
 4818 0bee 08       		.uleb128 0x8
 4819 0bef 76050000 		.4byte	.LASF194
 4820 0bf3 AD04     		.2byte	0x4ad
 4821 0bf5 3F       		.byte	0x3f
 4822 0bf6 90000000 		.4byte	0x90
 4823 0bfa 63000000 		.4byte	.LLST67
 4824 0bfe 5F000000 		.4byte	.LVUS67
 4825 0c02 1A       		.uleb128 0x1a
 4826 0c03 77020000 		.4byte	.LASF212
 4827 0c07 AF04     		.2byte	0x4af
 4828 0c09 0C       		.byte	0xc
 4829 0c0a A8000000 		.4byte	0xa8
 4830 0c0e 7A000000 		.4byte	.LLST68
 4831 0c12 76000000 		.4byte	.LVUS68
 4832 0c16 04       		.uleb128 0x4
 4833 0c17 10000000 		.4byte	.LVL257
 4834 0c1b 84090000 		.4byte	0x984
 4835 0c1f 00       		.byte	0
 4836 0c20 0F       		.uleb128 0xf
 4837 0c21 12000000 		.4byte	.LASF196
 4838 0c25 9E04     		.2byte	0x49e
 4839 0c27 0A       		.byte	0xa
 4840 0c28 A8000000 		.4byte	0xa8
 4841 0c2c 00000000 		.4byte	.LFB163
 4842 0c30 06000000 		.4byte	.LFE163-.LFB163
 4843 0c34 01       		.uleb128 0x1
 4844 0c35 9C       		.byte	0x9c
 4845 0c36 580C0000 		.4byte	0xc58
ARM GAS  C:\Users\DEVELO~1\AppData\Local\Temp\ccbkr0PB.s 			page 86


 4846 0c3a 08       		.uleb128 0x8
 4847 0c3b 68050000 		.4byte	.LASF182
 4848 0c3f 9E04     		.2byte	0x49e
 4849 0c41 35       		.byte	0x35
 4850 0c42 540A0000 		.4byte	0xa54
 4851 0c46 8E000000 		.4byte	.LLST63
 4852 0c4a 8A000000 		.4byte	.LVUS63
 4853 0c4e 1B       		.uleb128 0x1b
 4854 0c4f 06000000 		.4byte	.LVL254
 4855 0c53 84090000 		.4byte	0x984
 4856 0c57 00       		.byte	0
 4857 0c58 0F       		.uleb128 0xf
 4858 0c59 44040000 		.4byte	.LASF197
 4859 0c5d 9404     		.2byte	0x494
 4860 0c5f 0A       		.byte	0xa
 4861 0c60 A8000000 		.4byte	0xa8
 4862 0c64 00000000 		.4byte	.LFB162
 4863 0c68 06000000 		.4byte	.LFE162-.LFB162
 4864 0c6c 01       		.uleb128 0x1
 4865 0c6d 9C       		.byte	0x9c
 4866 0c6e 900C0000 		.4byte	0xc90
 4867 0c72 08       		.uleb128 0x8
 4868 0c73 68050000 		.4byte	.LASF182
 4869 0c77 9404     		.2byte	0x494
 4870 0c79 35       		.byte	0x35
 4871 0c7a 540A0000 		.4byte	0xa54
 4872 0c7e A5000000 		.4byte	.LLST62
 4873 0c82 A1000000 		.4byte	.LVUS62
 4874 0c86 1B       		.uleb128 0x1b
 4875 0c87 06000000 		.4byte	.LVL251
 4876 0c8b DA070000 		.4byte	0x7da
 4877 0c8f 00       		.byte	0
 4878 0c90 0F       		.uleb128 0xf
 4879 0c91 DB020000 		.4byte	.LASF198
 4880 0c95 8A04     		.2byte	0x48a
 4881 0c97 15       		.byte	0x15
 4882 0c98 43070000 		.4byte	0x743
 4883 0c9c 00000000 		.4byte	.LFB161
 4884 0ca0 0E000000 		.4byte	.LFE161-.LFB161
 4885 0ca4 01       		.uleb128 0x1
 4886 0ca5 9C       		.byte	0x9c
 4887 0ca6 D30C0000 		.4byte	0xcd3
 4888 0caa 08       		.uleb128 0x8
 4889 0cab 68050000 		.4byte	.LASF182
 4890 0caf 8A04     		.2byte	0x48a
 4891 0cb1 42       		.byte	0x42
 4892 0cb2 D30C0000 		.4byte	0xcd3
 4893 0cb6 BC000000 		.4byte	.LLST60
 4894 0cba B8000000 		.4byte	.LVUS60
 4895 0cbe 08       		.uleb128 0x8
 4896 0cbf 260C0000 		.4byte	.LASF188
 4897 0cc3 8A04     		.2byte	0x48a
 4898 0cc5 50       		.byte	0x50
 4899 0cc6 90000000 		.4byte	0x90
 4900 0cca D3000000 		.4byte	.LLST61
 4901 0cce CF000000 		.4byte	.LVUS61
 4902 0cd2 00       		.byte	0
ARM GAS  C:\Users\DEVELO~1\AppData\Local\Temp\ccbkr0PB.s 			page 87


 4903 0cd3 11       		.uleb128 0x11
 4904 0cd4 D5070000 		.4byte	0x7d5
 4905 0cd8 0F       		.uleb128 0xf
 4906 0cd9 9E030000 		.4byte	.LASF199
 4907 0cdd 7404     		.2byte	0x474
 4908 0cdf 0A       		.byte	0xa
 4909 0ce0 A8000000 		.4byte	0xa8
 4910 0ce4 00000000 		.4byte	.LFB160
 4911 0ce8 0C000000 		.4byte	.LFE160-.LFB160
 4912 0cec 01       		.uleb128 0x1
 4913 0ced 9C       		.byte	0x9c
 4914 0cee 1B0D0000 		.4byte	0xd1b
 4915 0cf2 08       		.uleb128 0x8
 4916 0cf3 68050000 		.4byte	.LASF182
 4917 0cf7 7404     		.2byte	0x474
 4918 0cf9 3B       		.byte	0x3b
 4919 0cfa D30C0000 		.4byte	0xcd3
 4920 0cfe EA000000 		.4byte	.LLST58
 4921 0d02 E6000000 		.4byte	.LVUS58
 4922 0d06 08       		.uleb128 0x8
 4923 0d07 260C0000 		.4byte	.LASF188
 4924 0d0b 7404     		.2byte	0x474
 4925 0d0d 49       		.byte	0x49
 4926 0d0e 90000000 		.4byte	0x90
 4927 0d12 01010000 		.4byte	.LLST59
 4928 0d16 FD000000 		.4byte	.LVUS59
 4929 0d1a 00       		.byte	0
 4930 0d1b 0F       		.uleb128 0xf
 4931 0d1c A5000000 		.4byte	.LASF200
 4932 0d20 6704     		.2byte	0x467
 4933 0d22 15       		.byte	0x15
 4934 0d23 37070000 		.4byte	0x737
 4935 0d27 00000000 		.4byte	.LFB159
 4936 0d2b 0E000000 		.4byte	.LFE159-.LFB159
 4937 0d2f 01       		.uleb128 0x1
 4938 0d30 9C       		.byte	0x9c
 4939 0d31 5E0D0000 		.4byte	0xd5e
 4940 0d35 08       		.uleb128 0x8
 4941 0d36 68050000 		.4byte	.LASF182
 4942 0d3a 6704     		.2byte	0x467
 4943 0d3c 45       		.byte	0x45
 4944 0d3d D30C0000 		.4byte	0xcd3
 4945 0d41 18010000 		.4byte	.LLST56
 4946 0d45 14010000 		.4byte	.LVUS56
 4947 0d49 08       		.uleb128 0x8
 4948 0d4a 260C0000 		.4byte	.LASF188
 4949 0d4e 6704     		.2byte	0x467
 4950 0d50 53       		.byte	0x53
 4951 0d51 90000000 		.4byte	0x90
 4952 0d55 2F010000 		.4byte	.LLST57
 4953 0d59 2B010000 		.4byte	.LVUS57
 4954 0d5d 00       		.byte	0
 4955 0d5e 0F       		.uleb128 0xf
 4956 0d5f 7E050000 		.4byte	.LASF201
 4957 0d63 5404     		.2byte	0x454
 4958 0d65 12       		.byte	0x12
 4959 0d66 02070000 		.4byte	0x702
ARM GAS  C:\Users\DEVELO~1\AppData\Local\Temp\ccbkr0PB.s 			page 88


 4960 0d6a 00000000 		.4byte	.LFB158
 4961 0d6e 06000000 		.4byte	.LFE158-.LFB158
 4962 0d72 01       		.uleb128 0x1
 4963 0d73 9C       		.byte	0x9c
 4964 0d74 8D0D0000 		.4byte	0xd8d
 4965 0d78 08       		.uleb128 0x8
 4966 0d79 68050000 		.4byte	.LASF182
 4967 0d7d 5404     		.2byte	0x454
 4968 0d7f 3C       		.byte	0x3c
 4969 0d80 D30C0000 		.4byte	0xcd3
 4970 0d84 46010000 		.4byte	.LLST55
 4971 0d88 42010000 		.4byte	.LVUS55
 4972 0d8c 00       		.byte	0
 4973 0d8d 0F       		.uleb128 0xf
 4974 0d8e E90B0000 		.4byte	.LASF202
 4975 0d92 3704     		.2byte	0x437
 4976 0d94 13       		.byte	0x13
 4977 0d95 8A030000 		.4byte	0x38a
 4978 0d99 00000000 		.4byte	.LFB157
 4979 0d9d 06000000 		.4byte	.LFE157-.LFB157
 4980 0da1 01       		.uleb128 0x1
 4981 0da2 9C       		.byte	0x9c
 4982 0da3 C50D0000 		.4byte	0xdc5
 4983 0da7 08       		.uleb128 0x8
 4984 0da8 68050000 		.4byte	.LASF182
 4985 0dac 3704     		.2byte	0x437
 4986 0dae 38       		.byte	0x38
 4987 0daf 540A0000 		.4byte	0xa54
 4988 0db3 5D010000 		.4byte	.LLST54
 4989 0db7 59010000 		.4byte	.LVUS54
 4990 0dbb 1B       		.uleb128 0x1b
 4991 0dbc 06000000 		.4byte	.LVL237
 4992 0dc0 F4070000 		.4byte	0x7f4
 4993 0dc4 00       		.byte	0
 4994 0dc5 0F       		.uleb128 0xf
 4995 0dc6 2B030000 		.4byte	.LASF203
 4996 0dca 2904     		.2byte	0x429
 4997 0dcc 13       		.byte	0x13
 4998 0dcd 8A030000 		.4byte	0x38a
 4999 0dd1 00000000 		.4byte	.LFB156
 5000 0dd5 26000000 		.4byte	.LFE156-.LFB156
 5001 0dd9 01       		.uleb128 0x1
 5002 0dda 9C       		.byte	0x9c
 5003 0ddb FD0D0000 		.4byte	0xdfd
 5004 0ddf 08       		.uleb128 0x8
 5005 0de0 68050000 		.4byte	.LASF182
 5006 0de4 2904     		.2byte	0x429
 5007 0de6 33       		.byte	0x33
 5008 0de7 540A0000 		.4byte	0xa54
 5009 0deb 78010000 		.4byte	.LLST53
 5010 0def 70010000 		.4byte	.LVUS53
 5011 0df3 04       		.uleb128 0x4
 5012 0df4 18000000 		.4byte	.LVL232
 5013 0df8 09080000 		.4byte	0x809
 5014 0dfc 00       		.byte	0
 5015 0dfd 0F       		.uleb128 0xf
 5016 0dfe 30020000 		.4byte	.LASF204
ARM GAS  C:\Users\DEVELO~1\AppData\Local\Temp\ccbkr0PB.s 			page 89


 5017 0e02 1604     		.2byte	0x416
 5018 0e04 13       		.byte	0x13
 5019 0e05 8A030000 		.4byte	0x38a
 5020 0e09 00000000 		.4byte	.LFB155
 5021 0e0d 2C000000 		.4byte	.LFE155-.LFB155
 5022 0e11 01       		.uleb128 0x1
 5023 0e12 9C       		.byte	0x9c
 5024 0e13 480E0000 		.4byte	0xe48
 5025 0e17 08       		.uleb128 0x8
 5026 0e18 68050000 		.4byte	.LASF182
 5027 0e1c 1604     		.2byte	0x416
 5028 0e1e 34       		.byte	0x34
 5029 0e1f 540A0000 		.4byte	0xa54
 5030 0e23 9D010000 		.4byte	.LLST52
 5031 0e27 95010000 		.4byte	.LVUS52
 5032 0e2b 06       		.uleb128 0x6
 5033 0e2c 18000000 		.4byte	.LVL226
 5034 0e30 38080000 		.4byte	0x838
 5035 0e34 3E0E0000 		.4byte	0xe3e
 5036 0e38 01       		.uleb128 0x1
 5037 0e39 01       		.uleb128 0x1
 5038 0e3a 51       		.byte	0x51
 5039 0e3b 01       		.uleb128 0x1
 5040 0e3c 31       		.byte	0x31
 5041 0e3d 00       		.byte	0
 5042 0e3e 04       		.uleb128 0x4
 5043 0e3f 1E000000 		.4byte	.LVL227
 5044 0e43 23080000 		.4byte	0x823
 5045 0e47 00       		.byte	0
 5046 0e48 29       		.uleb128 0x29
 5047 0e49 FB0B0000 		.4byte	.LASF210
 5048 0e4d DA02     		.2byte	0x2da
 5049 0e4f 0D       		.byte	0xd
 5050 0e50 00000000 		.4byte	.LFB154
 5051 0e54 02000000 		.4byte	.LFE154-.LFB154
 5052 0e58 01       		.uleb128 0x1
 5053 0e59 9C       		.byte	0x9c
 5054 0e5a 830E0000 		.4byte	0xe83
 5055 0e5e 1F       		.uleb128 0x1f
 5056 0e5f 68050000 		.4byte	.LASF182
 5057 0e63 44       		.byte	0x44
 5058 0e64 540A0000 		.4byte	0xa54
 5059 0e68 01       		.uleb128 0x1
 5060 0e69 50       		.byte	0x50
 5061 0e6a 1F       		.uleb128 0x1f
 5062 0e6b 260C0000 		.4byte	.LASF188
 5063 0e6f 52       		.byte	0x52
 5064 0e70 90000000 		.4byte	0x90
 5065 0e74 01       		.uleb128 0x1
 5066 0e75 51       		.byte	0x51
 5067 0e76 1F       		.uleb128 0x1f
 5068 0e77 8F050000 		.4byte	.LASF129
 5069 0e7b 6D       		.byte	0x6d
 5070 0e7c 37070000 		.4byte	0x737
 5071 0e80 01       		.uleb128 0x1
 5072 0e81 52       		.byte	0x52
 5073 0e82 00       		.byte	0
ARM GAS  C:\Users\DEVELO~1\AppData\Local\Temp\ccbkr0PB.s 			page 90


 5074 0e83 14       		.uleb128 0x14
 5075 0e84 DE080000 		.4byte	.LASF205
 5076 0e88 C102     		.2byte	0x2c1
 5077 0e8a 0D       		.byte	0xd
 5078 0e8b 9C0E0000 		.4byte	0xe9c
 5079 0e8f 0C       		.uleb128 0xc
 5080 0e90 68050000 		.4byte	.LASF182
 5081 0e94 C102     		.2byte	0x2c1
 5082 0e96 3E       		.byte	0x3e
 5083 0e97 540A0000 		.4byte	0xa54
 5084 0e9b 00       		.byte	0
 5085 0e9c 14       		.uleb128 0x14
 5086 0e9d 68000000 		.4byte	.LASF206
 5087 0ea1 B202     		.2byte	0x2b2
 5088 0ea3 0D       		.byte	0xd
 5089 0ea4 B50E0000 		.4byte	0xeb5
 5090 0ea8 0C       		.uleb128 0xc
 5091 0ea9 68050000 		.4byte	.LASF182
 5092 0ead B202     		.2byte	0x2b2
 5093 0eaf 3D       		.byte	0x3d
 5094 0eb0 540A0000 		.4byte	0xa54
 5095 0eb4 00       		.byte	0
 5096 0eb5 14       		.uleb128 0x14
 5097 0eb6 54080000 		.4byte	.LASF207
 5098 0eba A302     		.2byte	0x2a3
 5099 0ebc 0D       		.byte	0xd
 5100 0ebd CE0E0000 		.4byte	0xece
 5101 0ec1 0C       		.uleb128 0xc
 5102 0ec2 68050000 		.4byte	.LASF182
 5103 0ec6 A302     		.2byte	0x2a3
 5104 0ec8 3C       		.byte	0x3c
 5105 0ec9 540A0000 		.4byte	0xa54
 5106 0ecd 00       		.byte	0
 5107 0ece 14       		.uleb128 0x14
 5108 0ecf 4B030000 		.4byte	.LASF208
 5109 0ed3 9402     		.2byte	0x294
 5110 0ed5 0D       		.byte	0xd
 5111 0ed6 E70E0000 		.4byte	0xee7
 5112 0eda 0C       		.uleb128 0xc
 5113 0edb 68050000 		.4byte	.LASF182
 5114 0edf 9402     		.2byte	0x294
 5115 0ee1 39       		.byte	0x39
 5116 0ee2 540A0000 		.4byte	0xa54
 5117 0ee6 00       		.byte	0
 5118 0ee7 14       		.uleb128 0x14
 5119 0ee8 4D0C0000 		.4byte	.LASF209
 5120 0eec 8502     		.2byte	0x285
 5121 0eee 0D       		.byte	0xd
 5122 0eef 000F0000 		.4byte	0xf00
 5123 0ef3 0C       		.uleb128 0xc
 5124 0ef4 68050000 		.4byte	.LASF182
 5125 0ef8 8502     		.2byte	0x285
 5126 0efa 35       		.byte	0x35
 5127 0efb 540A0000 		.4byte	0xa54
 5128 0eff 00       		.byte	0
 5129 0f00 29       		.uleb128 0x29
 5130 0f01 14060000 		.4byte	.LASF211
ARM GAS  C:\Users\DEVELO~1\AppData\Local\Temp\ccbkr0PB.s 			page 91


 5131 0f05 0A02     		.2byte	0x20a
 5132 0f07 06       		.byte	0x6
 5133 0f08 00000000 		.4byte	.LFB148
 5134 0f0c B0090000 		.4byte	.LFE148-.LFB148
 5135 0f10 01       		.uleb128 0x1
 5136 0f11 9C       		.byte	0x9c
 5137 0f12 21150000 		.4byte	0x1521
 5138 0f16 08       		.uleb128 0x8
 5139 0f17 68050000 		.4byte	.LASF182
 5140 0f1b 0A02     		.2byte	0x20a
 5141 0f1d 2C       		.byte	0x2c
 5142 0f1e 540A0000 		.4byte	0xa54
 5143 0f22 BE010000 		.4byte	.LLST25
 5144 0f26 BA010000 		.4byte	.LVUS25
 5145 0f2a 1A       		.uleb128 0x1a
 5146 0f2b 85000000 		.4byte	.LASF176
 5147 0f2f 0C02     		.2byte	0x20c
 5148 0f31 1A       		.byte	0x1a
 5149 0f32 1E080000 		.4byte	0x81e
 5150 0f36 DF010000 		.4byte	.LLST26
 5151 0f3a CF010000 		.4byte	.LVUS26
 5152 0f3e 1A       		.uleb128 0x1a
 5153 0f3f 750A0000 		.4byte	.LASF177
 5154 0f43 0D02     		.2byte	0x20d
 5155 0f45 0C       		.byte	0xc
 5156 0f46 A8000000 		.4byte	0xa8
 5157 0f4a 2D020000 		.4byte	.LLST27
 5158 0f4e 1D020000 		.4byte	.LVUS27
 5159 0f52 35       		.uleb128 0x35
 5160 0f53 6900     		.ascii	"i\000"
 5161 0f55 01       		.byte	0x1
 5162 0f56 0E02     		.2byte	0x20e
 5163 0f58 0C       		.byte	0xc
 5164 0f59 A8000000 		.4byte	0xa8
 5165 0f5d 7B020000 		.4byte	.LLST28
 5166 0f61 6B020000 		.4byte	.LVUS28
 5167 0f65 1A       		.uleb128 0x1a
 5168 0f66 3E020000 		.4byte	.LASF213
 5169 0f6a 0F02     		.2byte	0x20f
 5170 0f6c 0C       		.byte	0xc
 5171 0f6d A8000000 		.4byte	0xa8
 5172 0f71 C7020000 		.4byte	.LLST29
 5173 0f75 B7020000 		.4byte	.LVUS29
 5174 0f79 20       		.uleb128 0x20
 5175 0f7a 590A0000 		.4byte	0xa59
 5176 0f7e AE000000 		.4byte	.LBI16
 5177 0f82 0100     		.2byte	.LVU303
 5178 0f84 18000000 		.4byte	.LLRL30
 5179 0f88 7802     		.2byte	0x278
 5180 0f8a 07       		.byte	0x7
 5181 0f8b 21100000 		.4byte	0x1021
 5182 0f8f 10       		.uleb128 0x10
 5183 0f90 640A0000 		.4byte	0xa64
 5184 0f94 0A030000 		.4byte	.LLST31
 5185 0f98 02030000 		.4byte	.LVUS31
 5186 0f9c 1C       		.uleb128 0x1c
 5187 0f9d 18000000 		.4byte	.LLRL30
ARM GAS  C:\Users\DEVELO~1\AppData\Local\Temp\ccbkr0PB.s 			page 92


 5188 0fa1 0D       		.uleb128 0xd
 5189 0fa2 700A0000 		.4byte	0xa70
 5190 0fa6 34030000 		.4byte	.LLST32
 5191 0faa 2A030000 		.4byte	.LVUS32
 5192 0fae 0D       		.uleb128 0xd
 5193 0faf 7C0A0000 		.4byte	0xa7c
 5194 0fb3 6B030000 		.4byte	.LLST33
 5195 0fb7 61030000 		.4byte	.LVUS33
 5196 0fbb 0D       		.uleb128 0xd
 5197 0fbc 880A0000 		.4byte	0xa88
 5198 0fc0 9C030000 		.4byte	.LLST34
 5199 0fc4 98030000 		.4byte	.LVUS34
 5200 0fc8 0D       		.uleb128 0xd
 5201 0fc9 940A0000 		.4byte	0xa94
 5202 0fcd C2030000 		.4byte	.LLST35
 5203 0fd1 BA030000 		.4byte	.LVUS35
 5204 0fd5 0D       		.uleb128 0xd
 5205 0fd6 A00A0000 		.4byte	0xaa0
 5206 0fda E6030000 		.4byte	.LLST36
 5207 0fde E2030000 		.4byte	.LVUS36
 5208 0fe2 0D       		.uleb128 0xd
 5209 0fe3 AC0A0000 		.4byte	0xaac
 5210 0fe7 FA030000 		.4byte	.LLST37
 5211 0feb F8030000 		.4byte	.LVUS37
 5212 0fef 0D       		.uleb128 0xd
 5213 0ff0 B80A0000 		.4byte	0xab8
 5214 0ff4 11040000 		.4byte	.LLST38
 5215 0ff8 0B040000 		.4byte	.LVUS38
 5216 0ffc 0D       		.uleb128 0xd
 5217 0ffd C40A0000 		.4byte	0xac4
 5218 1001 34040000 		.4byte	.LLST39
 5219 1005 30040000 		.4byte	.LVUS39
 5220 1009 15       		.uleb128 0x15
 5221 100a 7C060000 		.4byte	.LVL175
 5222 100e 52080000 		.4byte	0x852
 5223 1012 01       		.uleb128 0x1
 5224 1013 01       		.uleb128 0x1
 5225 1014 50       		.byte	0x50
 5226 1015 02       		.uleb128 0x2
 5227 1016 75       		.byte	0x75
 5228 1017 00       		.sleb128 0
 5229 1018 01       		.uleb128 0x1
 5230 1019 01       		.uleb128 0x1
 5231 101a 52       		.byte	0x52
 5232 101b 02       		.uleb128 0x2
 5233 101c 77       		.byte	0x77
 5234 101d 00       		.sleb128 0
 5235 101e 00       		.byte	0
 5236 101f 00       		.byte	0
 5237 1020 00       		.byte	0
 5238 1021 36       		.uleb128 0x36
 5239 1022 D10A0000 		.4byte	0xad1
 5240 1026 30000000 		.4byte	.LLRL40
 5241 102a 01       		.byte	0x1
 5242 102b 6C02     		.2byte	0x26c
 5243 102d 0D       		.byte	0xd
 5244 102e FF110000 		.4byte	0x11ff
ARM GAS  C:\Users\DEVELO~1\AppData\Local\Temp\ccbkr0PB.s 			page 93


 5245 1032 2A       		.uleb128 0x2a
 5246 1033 E80A0000 		.4byte	0xae8
 5247 1037 2A       		.uleb128 0x2a
 5248 1038 DC0A0000 		.4byte	0xadc
 5249 103c 1C       		.uleb128 0x1c
 5250 103d 30000000 		.4byte	.LLRL40
 5251 1041 2B       		.uleb128 0x2b
 5252 1042 F40A0000 		.4byte	0xaf4
 5253 1046 21       		.uleb128 0x21
 5254 1047 000B0000 		.4byte	0xb00
 5255 104b 01       		.uleb128 0x1
 5256 104c 57       		.byte	0x57
 5257 104d 0D       		.uleb128 0xd
 5258 104e 0C0B0000 		.4byte	0xb0c
 5259 1052 52040000 		.4byte	.LLST41
 5260 1056 4E040000 		.4byte	.LVUS41
 5261 105a 0D       		.uleb128 0xd
 5262 105b 180B0000 		.4byte	0xb18
 5263 105f 6A040000 		.4byte	.LLST42
 5264 1063 64040000 		.4byte	.LVUS42
 5265 1067 06       		.uleb128 0x6
 5266 1068 92010000 		.4byte	.LVL102
 5267 106c 71080000 		.4byte	0x871
 5268 1070 83100000 		.4byte	0x1083
 5269 1074 01       		.uleb128 0x1
 5270 1075 01       		.uleb128 0x1
 5271 1076 50       		.byte	0x50
 5272 1077 02       		.uleb128 0x2
 5273 1078 77       		.byte	0x77
 5274 1079 00       		.sleb128 0
 5275 107a 01       		.uleb128 0x1
 5276 107b 01       		.uleb128 0x1
 5277 107c 51       		.byte	0x51
 5278 107d 04       		.uleb128 0x4
 5279 107e 7D       		.byte	0x7d
 5280 107f 00       		.sleb128 0
 5281 1080 94       		.byte	0x94
 5282 1081 01       		.byte	0x1
 5283 1082 00       		.byte	0
 5284 1083 04       		.uleb128 0x4
 5285 1084 B0010000 		.4byte	.LVL106
 5286 1088 37090000 		.4byte	0x937
 5287 108c 06       		.uleb128 0x6
 5288 108d EA010000 		.4byte	.LVL113
 5289 1091 71080000 		.4byte	0x871
 5290 1095 A2100000 		.4byte	0x10a2
 5291 1099 01       		.uleb128 0x1
 5292 109a 01       		.uleb128 0x1
 5293 109b 51       		.byte	0x51
 5294 109c 04       		.uleb128 0x4
 5295 109d 7D       		.byte	0x7d
 5296 109e 00       		.sleb128 0
 5297 109f 94       		.byte	0x94
 5298 10a0 01       		.byte	0x1
 5299 10a1 00       		.byte	0
 5300 10a2 04       		.uleb128 0x4
 5301 10a3 2A020000 		.4byte	.LVL116
ARM GAS  C:\Users\DEVELO~1\AppData\Local\Temp\ccbkr0PB.s 			page 94


 5302 10a7 37090000 		.4byte	0x937
 5303 10ab 06       		.uleb128 0x6
 5304 10ac 98030000 		.4byte	.LVL133
 5305 10b0 71080000 		.4byte	0x871
 5306 10b4 C1100000 		.4byte	0x10c1
 5307 10b8 01       		.uleb128 0x1
 5308 10b9 01       		.uleb128 0x1
 5309 10ba 51       		.byte	0x51
 5310 10bb 04       		.uleb128 0x4
 5311 10bc 7D       		.byte	0x7d
 5312 10bd 00       		.sleb128 0
 5313 10be 94       		.byte	0x94
 5314 10bf 01       		.byte	0x1
 5315 10c0 00       		.byte	0
 5316 10c1 06       		.uleb128 0x6
 5317 10c2 B2030000 		.4byte	.LVL134
 5318 10c6 37090000 		.4byte	0x937
 5319 10ca D7100000 		.4byte	0x10d7
 5320 10ce 01       		.uleb128 0x1
 5321 10cf 01       		.uleb128 0x1
 5322 10d0 51       		.byte	0x51
 5323 10d1 04       		.uleb128 0x4
 5324 10d2 7D       		.byte	0x7d
 5325 10d3 00       		.sleb128 0
 5326 10d4 94       		.byte	0x94
 5327 10d5 01       		.byte	0x1
 5328 10d6 00       		.byte	0
 5329 10d7 06       		.uleb128 0x6
 5330 10d8 4C040000 		.4byte	.LVL147
 5331 10dc 71080000 		.4byte	0x871
 5332 10e0 ED100000 		.4byte	0x10ed
 5333 10e4 01       		.uleb128 0x1
 5334 10e5 01       		.uleb128 0x1
 5335 10e6 51       		.byte	0x51
 5336 10e7 04       		.uleb128 0x4
 5337 10e8 7D       		.byte	0x7d
 5338 10e9 00       		.sleb128 0
 5339 10ea 94       		.byte	0x94
 5340 10eb 01       		.byte	0x1
 5341 10ec 00       		.byte	0
 5342 10ed 06       		.uleb128 0x6
 5343 10ee 60040000 		.4byte	.LVL148
 5344 10f2 71080000 		.4byte	0x871
 5345 10f6 03110000 		.4byte	0x1103
 5346 10fa 01       		.uleb128 0x1
 5347 10fb 01       		.uleb128 0x1
 5348 10fc 51       		.byte	0x51
 5349 10fd 04       		.uleb128 0x4
 5350 10fe 7D       		.byte	0x7d
 5351 10ff 00       		.sleb128 0
 5352 1100 94       		.byte	0x94
 5353 1101 01       		.byte	0x1
 5354 1102 00       		.byte	0
 5355 1103 04       		.uleb128 0x4
 5356 1104 96040000 		.4byte	.LVL149
 5357 1108 37090000 		.4byte	0x937
 5358 110c 04       		.uleb128 0x4
ARM GAS  C:\Users\DEVELO~1\AppData\Local\Temp\ccbkr0PB.s 			page 95


 5359 110d CA040000 		.4byte	.LVL153
 5360 1111 37090000 		.4byte	0x937
 5361 1115 06       		.uleb128 0x6
 5362 1116 86050000 		.4byte	.LVL162
 5363 111a 480E0000 		.4byte	0xe48
 5364 111e 29110000 		.4byte	0x1129
 5365 1122 01       		.uleb128 0x1
 5366 1123 01       		.uleb128 0x1
 5367 1124 50       		.byte	0x50
 5368 1125 02       		.uleb128 0x2
 5369 1126 74       		.byte	0x74
 5370 1127 00       		.sleb128 0
 5371 1128 00       		.byte	0
 5372 1129 06       		.uleb128 0x6
 5373 112a 48060000 		.4byte	.LVL172
 5374 112e 71080000 		.4byte	0x871
 5375 1132 3F110000 		.4byte	0x113f
 5376 1136 01       		.uleb128 0x1
 5377 1137 01       		.uleb128 0x1
 5378 1138 51       		.byte	0x51
 5379 1139 04       		.uleb128 0x4
 5380 113a 7D       		.byte	0x7d
 5381 113b 00       		.sleb128 0
 5382 113c 94       		.byte	0x94
 5383 113d 01       		.byte	0x1
 5384 113e 00       		.byte	0
 5385 113f 04       		.uleb128 0x4
 5386 1140 68060000 		.4byte	.LVL173
 5387 1144 37090000 		.4byte	0x937
 5388 1148 04       		.uleb128 0x4
 5389 1149 DA060000 		.4byte	.LVL182
 5390 114d 37090000 		.4byte	0x937
 5391 1151 06       		.uleb128 0x6
 5392 1152 E4060000 		.4byte	.LVL183
 5393 1156 71080000 		.4byte	0x871
 5394 115a 67110000 		.4byte	0x1167
 5395 115e 01       		.uleb128 0x1
 5396 115f 01       		.uleb128 0x1
 5397 1160 51       		.byte	0x51
 5398 1161 04       		.uleb128 0x4
 5399 1162 7D       		.byte	0x7d
 5400 1163 00       		.sleb128 0
 5401 1164 94       		.byte	0x94
 5402 1165 01       		.byte	0x1
 5403 1166 00       		.byte	0
 5404 1167 06       		.uleb128 0x6
 5405 1168 52070000 		.4byte	.LVL187
 5406 116c 71080000 		.4byte	0x871
 5407 1170 7D110000 		.4byte	0x117d
 5408 1174 01       		.uleb128 0x1
 5409 1175 01       		.uleb128 0x1
 5410 1176 51       		.byte	0x51
 5411 1177 04       		.uleb128 0x4
 5412 1178 7D       		.byte	0x7d
 5413 1179 00       		.sleb128 0
 5414 117a 94       		.byte	0x94
 5415 117b 01       		.byte	0x1
ARM GAS  C:\Users\DEVELO~1\AppData\Local\Temp\ccbkr0PB.s 			page 96


 5416 117c 00       		.byte	0
 5417 117d 04       		.uleb128 0x4
 5418 117e 74070000 		.4byte	.LVL188
 5419 1182 37090000 		.4byte	0x937
 5420 1186 06       		.uleb128 0x6
 5421 1187 CE070000 		.4byte	.LVL198
 5422 118b 71080000 		.4byte	0x871
 5423 118f 9C110000 		.4byte	0x119c
 5424 1193 01       		.uleb128 0x1
 5425 1194 01       		.uleb128 0x1
 5426 1195 51       		.byte	0x51
 5427 1196 04       		.uleb128 0x4
 5428 1197 7D       		.byte	0x7d
 5429 1198 00       		.sleb128 0
 5430 1199 94       		.byte	0x94
 5431 119a 01       		.byte	0x1
 5432 119b 00       		.byte	0
 5433 119c 06       		.uleb128 0x6
 5434 119d 88080000 		.4byte	.LVL211
 5435 11a1 480E0000 		.4byte	0xe48
 5436 11a5 B6110000 		.4byte	0x11b6
 5437 11a9 01       		.uleb128 0x1
 5438 11aa 01       		.uleb128 0x1
 5439 11ab 50       		.byte	0x50
 5440 11ac 02       		.uleb128 0x2
 5441 11ad 74       		.byte	0x74
 5442 11ae 00       		.sleb128 0
 5443 11af 01       		.uleb128 0x1
 5444 11b0 01       		.uleb128 0x1
 5445 11b1 52       		.byte	0x52
 5446 11b2 02       		.uleb128 0x2
 5447 11b3 7A       		.byte	0x7a
 5448 11b4 00       		.sleb128 0
 5449 11b5 00       		.byte	0
 5450 11b6 04       		.uleb128 0x4
 5451 11b7 9A080000 		.4byte	.LVL214
 5452 11bb 37090000 		.4byte	0x937
 5453 11bf 06       		.uleb128 0x6
 5454 11c0 A4080000 		.4byte	.LVL216
 5455 11c4 71080000 		.4byte	0x871
 5456 11c8 D5110000 		.4byte	0x11d5
 5457 11cc 01       		.uleb128 0x1
 5458 11cd 01       		.uleb128 0x1
 5459 11ce 51       		.byte	0x51
 5460 11cf 04       		.uleb128 0x4
 5461 11d0 7D       		.byte	0x7d
 5462 11d1 00       		.sleb128 0
 5463 11d2 94       		.byte	0x94
 5464 11d3 01       		.byte	0x1
 5465 11d4 00       		.byte	0
 5466 11d5 06       		.uleb128 0x6
 5467 11d6 B8080000 		.4byte	.LVL217
 5468 11da 37090000 		.4byte	0x937
 5469 11de EB110000 		.4byte	0x11eb
 5470 11e2 01       		.uleb128 0x1
 5471 11e3 01       		.uleb128 0x1
 5472 11e4 51       		.byte	0x51
ARM GAS  C:\Users\DEVELO~1\AppData\Local\Temp\ccbkr0PB.s 			page 97


 5473 11e5 04       		.uleb128 0x4
 5474 11e6 7D       		.byte	0x7d
 5475 11e7 00       		.sleb128 0
 5476 11e8 94       		.byte	0x94
 5477 11e9 01       		.byte	0x1
 5478 11ea 00       		.byte	0
 5479 11eb 15       		.uleb128 0x15
 5480 11ec CE080000 		.4byte	.LVL218
 5481 11f0 71080000 		.4byte	0x871
 5482 11f4 01       		.uleb128 0x1
 5483 11f5 01       		.uleb128 0x1
 5484 11f6 51       		.byte	0x51
 5485 11f7 04       		.uleb128 0x4
 5486 11f8 7D       		.byte	0x7d
 5487 11f9 00       		.sleb128 0
 5488 11fa 94       		.byte	0x94
 5489 11fb 01       		.byte	0x1
 5490 11fc 00       		.byte	0
 5491 11fd 00       		.byte	0
 5492 11fe 00       		.byte	0
 5493 11ff 20       		.uleb128 0x20
 5494 1200 250B0000 		.4byte	0xb25
 5495 1204 80010000 		.4byte	.LBI36
 5496 1208 0000     		.2byte	.LVU374
 5497 120a 79000000 		.4byte	.LLRL43
 5498 120e 6802     		.2byte	0x268
 5499 1210 0D       		.byte	0xd
 5500 1211 AC130000 		.4byte	0x13ac
 5501 1215 10       		.uleb128 0x10
 5502 1216 3C0B0000 		.4byte	0xb3c
 5503 121a DD040000 		.4byte	.LLST44
 5504 121e BD040000 		.4byte	.LVUS44
 5505 1222 10       		.uleb128 0x10
 5506 1223 300B0000 		.4byte	0xb30
 5507 1227 5E050000 		.4byte	.LLST45
 5508 122b 4E050000 		.4byte	.LVUS45
 5509 122f 1C       		.uleb128 0x1c
 5510 1230 79000000 		.4byte	.LLRL43
 5511 1234 0D       		.uleb128 0xd
 5512 1235 480B0000 		.4byte	0xb48
 5513 1239 DB050000 		.4byte	.LLST46
 5514 123d 99050000 		.4byte	.LVUS46
 5515 1241 0D       		.uleb128 0xd
 5516 1242 540B0000 		.4byte	0xb54
 5517 1246 DB050000 		.4byte	.LLST46
 5518 124a 99050000 		.4byte	.LVUS46
 5519 124e 2B       		.uleb128 0x2b
 5520 124f 600B0000 		.4byte	0xb60
 5521 1253 04       		.uleb128 0x4
 5522 1254 1C010000 		.4byte	.LVL90
 5523 1258 71080000 		.4byte	0x871
 5524 125c 04       		.uleb128 0x4
 5525 125d 3A010000 		.4byte	.LVL92
 5526 1261 37090000 		.4byte	0x937
 5527 1265 06       		.uleb128 0x6
 5528 1266 44010000 		.4byte	.LVL93
 5529 126a 71080000 		.4byte	0x871
ARM GAS  C:\Users\DEVELO~1\AppData\Local\Temp\ccbkr0PB.s 			page 98


 5530 126e 7B120000 		.4byte	0x127b
 5531 1272 01       		.uleb128 0x1
 5532 1273 01       		.uleb128 0x1
 5533 1274 51       		.byte	0x51
 5534 1275 04       		.uleb128 0x4
 5535 1276 7D       		.byte	0x7d
 5536 1277 00       		.sleb128 0
 5537 1278 94       		.byte	0x94
 5538 1279 01       		.byte	0x1
 5539 127a 00       		.byte	0
 5540 127b 06       		.uleb128 0x6
 5541 127c 56010000 		.4byte	.LVL95
 5542 1280 37090000 		.4byte	0x937
 5543 1284 91120000 		.4byte	0x1291
 5544 1288 01       		.uleb128 0x1
 5545 1289 01       		.uleb128 0x1
 5546 128a 51       		.byte	0x51
 5547 128b 04       		.uleb128 0x4
 5548 128c 7D       		.byte	0x7d
 5549 128d 00       		.sleb128 0
 5550 128e 94       		.byte	0x94
 5551 128f 01       		.byte	0x1
 5552 1290 00       		.byte	0
 5553 1291 06       		.uleb128 0x6
 5554 1292 BA010000 		.4byte	.LVL109
 5555 1296 71080000 		.4byte	0x871
 5556 129a A7120000 		.4byte	0x12a7
 5557 129e 01       		.uleb128 0x1
 5558 129f 01       		.uleb128 0x1
 5559 12a0 51       		.byte	0x51
 5560 12a1 04       		.uleb128 0x4
 5561 12a2 7D       		.byte	0x7d
 5562 12a3 00       		.sleb128 0
 5563 12a4 94       		.byte	0x94
 5564 12a5 01       		.byte	0x1
 5565 12a6 00       		.byte	0
 5566 12a7 04       		.uleb128 0x4
 5567 12a8 DC010000 		.4byte	.LVL110
 5568 12ac 37090000 		.4byte	0x937
 5569 12b0 06       		.uleb128 0x6
 5570 12b1 3A020000 		.4byte	.LVL118
 5571 12b5 71080000 		.4byte	0x871
 5572 12b9 C6120000 		.4byte	0x12c6
 5573 12bd 01       		.uleb128 0x1
 5574 12be 01       		.uleb128 0x1
 5575 12bf 51       		.byte	0x51
 5576 12c0 04       		.uleb128 0x4
 5577 12c1 7D       		.byte	0x7d
 5578 12c2 00       		.sleb128 0
 5579 12c3 94       		.byte	0x94
 5580 12c4 01       		.byte	0x1
 5581 12c5 00       		.byte	0
 5582 12c6 06       		.uleb128 0x6
 5583 12c7 3A030000 		.4byte	.LVL129
 5584 12cb 71080000 		.4byte	0x871
 5585 12cf DC120000 		.4byte	0x12dc
 5586 12d3 01       		.uleb128 0x1
ARM GAS  C:\Users\DEVELO~1\AppData\Local\Temp\ccbkr0PB.s 			page 99


 5587 12d4 01       		.uleb128 0x1
 5588 12d5 51       		.byte	0x51
 5589 12d6 04       		.uleb128 0x4
 5590 12d7 7D       		.byte	0x7d
 5591 12d8 00       		.sleb128 0
 5592 12d9 94       		.byte	0x94
 5593 12da 01       		.byte	0x1
 5594 12db 00       		.byte	0
 5595 12dc 04       		.uleb128 0x4
 5596 12dd 58030000 		.4byte	.LVL130
 5597 12e1 37090000 		.4byte	0x937
 5598 12e5 06       		.uleb128 0x6
 5599 12e6 64030000 		.4byte	.LVL131
 5600 12ea 71080000 		.4byte	0x871
 5601 12ee FB120000 		.4byte	0x12fb
 5602 12f2 01       		.uleb128 0x1
 5603 12f3 01       		.uleb128 0x1
 5604 12f4 51       		.byte	0x51
 5605 12f5 04       		.uleb128 0x4
 5606 12f6 7D       		.byte	0x7d
 5607 12f7 00       		.sleb128 0
 5608 12f8 94       		.byte	0x94
 5609 12f9 01       		.byte	0x1
 5610 12fa 00       		.byte	0
 5611 12fb 04       		.uleb128 0x4
 5612 12fc 8E030000 		.4byte	.LVL132
 5613 1300 37090000 		.4byte	0x937
 5614 1304 06       		.uleb128 0x6
 5615 1305 BC030000 		.4byte	.LVL135
 5616 1309 71080000 		.4byte	0x871
 5617 130d 1A130000 		.4byte	0x131a
 5618 1311 01       		.uleb128 0x1
 5619 1312 01       		.uleb128 0x1
 5620 1313 51       		.byte	0x51
 5621 1314 04       		.uleb128 0x4
 5622 1315 7D       		.byte	0x7d
 5623 1316 00       		.sleb128 0
 5624 1317 94       		.byte	0x94
 5625 1318 01       		.byte	0x1
 5626 1319 00       		.byte	0
 5627 131a 04       		.uleb128 0x4
 5628 131b DE030000 		.4byte	.LVL136
 5629 131f 37090000 		.4byte	0x937
 5630 1323 04       		.uleb128 0x4
 5631 1324 FC030000 		.4byte	.LVL140
 5632 1328 37090000 		.4byte	0x937
 5633 132c 06       		.uleb128 0x6
 5634 132d B0040000 		.4byte	.LVL152
 5635 1331 480E0000 		.4byte	0xe48
 5636 1335 40130000 		.4byte	0x1340
 5637 1339 01       		.uleb128 0x1
 5638 133a 01       		.uleb128 0x1
 5639 133b 50       		.byte	0x50
 5640 133c 02       		.uleb128 0x2
 5641 133d 74       		.byte	0x74
 5642 133e 00       		.sleb128 0
 5643 133f 00       		.byte	0
ARM GAS  C:\Users\DEVELO~1\AppData\Local\Temp\ccbkr0PB.s 			page 100


 5644 1340 06       		.uleb128 0x6
 5645 1341 D6040000 		.4byte	.LVL155
 5646 1345 71080000 		.4byte	0x871
 5647 1349 56130000 		.4byte	0x1356
 5648 134d 01       		.uleb128 0x1
 5649 134e 01       		.uleb128 0x1
 5650 134f 51       		.byte	0x51
 5651 1350 04       		.uleb128 0x4
 5652 1351 7D       		.byte	0x7d
 5653 1352 00       		.sleb128 0
 5654 1353 94       		.byte	0x94
 5655 1354 01       		.byte	0x1
 5656 1355 00       		.byte	0
 5657 1356 06       		.uleb128 0x6
 5658 1357 0A050000 		.4byte	.LVL159
 5659 135b 71080000 		.4byte	0x871
 5660 135f 6C130000 		.4byte	0x136c
 5661 1363 01       		.uleb128 0x1
 5662 1364 01       		.uleb128 0x1
 5663 1365 51       		.byte	0x51
 5664 1366 04       		.uleb128 0x4
 5665 1367 7D       		.byte	0x7d
 5666 1368 00       		.sleb128 0
 5667 1369 94       		.byte	0x94
 5668 136a 01       		.byte	0x1
 5669 136b 00       		.byte	0
 5670 136c 06       		.uleb128 0x6
 5671 136d B6060000 		.4byte	.LVL181
 5672 1371 71080000 		.4byte	0x871
 5673 1375 82130000 		.4byte	0x1382
 5674 1379 01       		.uleb128 0x1
 5675 137a 01       		.uleb128 0x1
 5676 137b 51       		.byte	0x51
 5677 137c 04       		.uleb128 0x4
 5678 137d 7D       		.byte	0x7d
 5679 137e 00       		.sleb128 0
 5680 137f 94       		.byte	0x94
 5681 1380 01       		.byte	0x1
 5682 1381 00       		.byte	0
 5683 1382 06       		.uleb128 0x6
 5684 1383 16070000 		.4byte	.LVL186
 5685 1387 71080000 		.4byte	0x871
 5686 138b 98130000 		.4byte	0x1398
 5687 138f 01       		.uleb128 0x1
 5688 1390 01       		.uleb128 0x1
 5689 1391 51       		.byte	0x51
 5690 1392 04       		.uleb128 0x4
 5691 1393 7D       		.byte	0x7d
 5692 1394 00       		.sleb128 0
 5693 1395 94       		.byte	0x94
 5694 1396 01       		.byte	0x1
 5695 1397 00       		.byte	0
 5696 1398 04       		.uleb128 0x4
 5697 1399 A0070000 		.4byte	.LVL197
 5698 139d 37090000 		.4byte	0x937
 5699 13a1 04       		.uleb128 0x4
 5700 13a2 68080000 		.4byte	.LVL207
ARM GAS  C:\Users\DEVELO~1\AppData\Local\Temp\ccbkr0PB.s 			page 101


 5701 13a6 37090000 		.4byte	0x937
 5702 13aa 00       		.byte	0
 5703 13ab 00       		.byte	0
 5704 13ac 20       		.uleb128 0x20
 5705 13ad 0C0A0000 		.4byte	0xa0c
 5706 13b1 BE020000 		.4byte	.LBI60
 5707 13b5 0100     		.2byte	.LVU468
 5708 13b7 CE000000 		.4byte	.LLRL48
 5709 13bb 4F02     		.2byte	0x24f
 5710 13bd 07       		.byte	0x7
 5711 13be 45140000 		.4byte	0x1445
 5712 13c2 10       		.uleb128 0x10
 5713 13c3 170A0000 		.4byte	0xa17
 5714 13c7 F7060000 		.4byte	.LLST49
 5715 13cb F1060000 		.4byte	.LVUS49
 5716 13cf 1C       		.uleb128 0x1c
 5717 13d0 CE000000 		.4byte	.LLRL48
 5718 13d4 0D       		.uleb128 0xd
 5719 13d5 230A0000 		.4byte	0xa23
 5720 13d9 18070000 		.4byte	.LLST50
 5721 13dd 10070000 		.4byte	.LVUS50
 5722 13e1 0D       		.uleb128 0xd
 5723 13e2 2F0A0000 		.4byte	0xa2f
 5724 13e6 3F070000 		.4byte	.LLST51
 5725 13ea 37070000 		.4byte	.LVUS51
 5726 13ee 21       		.uleb128 0x21
 5727 13ef 3B0A0000 		.4byte	0xa3b
 5728 13f3 02       		.uleb128 0x2
 5729 13f4 91       		.byte	0x91
 5730 13f5 50       		.sleb128 -48
 5731 13f6 21       		.uleb128 0x21
 5732 13f7 470A0000 		.4byte	0xa47
 5733 13fb 02       		.uleb128 0x2
 5734 13fc 91       		.byte	0x91
 5735 13fd 54       		.sleb128 -44
 5736 13fe 06       		.uleb128 0x6
 5737 13ff 1C030000 		.4byte	.LVL127
 5738 1403 9C0E0000 		.4byte	0xe9c
 5739 1407 12140000 		.4byte	0x1412
 5740 140b 01       		.uleb128 0x1
 5741 140c 01       		.uleb128 0x1
 5742 140d 50       		.byte	0x50
 5743 140e 02       		.uleb128 0x2
 5744 140f 74       		.byte	0x74
 5745 1410 00       		.sleb128 0
 5746 1411 00       		.byte	0
 5747 1412 06       		.uleb128 0x6
 5748 1413 38040000 		.4byte	.LVL144
 5749 1417 830E0000 		.4byte	0xe83
 5750 141b 26140000 		.4byte	0x1426
 5751 141f 01       		.uleb128 0x1
 5752 1420 01       		.uleb128 0x1
 5753 1421 50       		.byte	0x50
 5754 1422 02       		.uleb128 0x2
 5755 1423 74       		.byte	0x74
 5756 1424 00       		.sleb128 0
 5757 1425 00       		.byte	0
ARM GAS  C:\Users\DEVELO~1\AppData\Local\Temp\ccbkr0PB.s 			page 102


 5758 1426 06       		.uleb128 0x6
 5759 1427 40040000 		.4byte	.LVL145
 5760 142b CE0E0000 		.4byte	0xece
 5761 142f 3A140000 		.4byte	0x143a
 5762 1433 01       		.uleb128 0x1
 5763 1434 01       		.uleb128 0x1
 5764 1435 50       		.byte	0x50
 5765 1436 02       		.uleb128 0x2
 5766 1437 74       		.byte	0x74
 5767 1438 00       		.sleb128 0
 5768 1439 00       		.byte	0
 5769 143a 04       		.uleb128 0x4
 5770 143b 00050000 		.4byte	.LVL157
 5771 143f A0080000 		.4byte	0x8a0
 5772 1443 00       		.byte	0
 5773 1444 00       		.byte	0
 5774 1445 06       		.uleb128 0x6
 5775 1446 10000000 		.4byte	.LVL64
 5776 144a FE080000 		.4byte	0x8fe
 5777 144e 59140000 		.4byte	0x1459
 5778 1452 01       		.uleb128 0x1
 5779 1453 01       		.uleb128 0x1
 5780 1454 50       		.byte	0x50
 5781 1455 02       		.uleb128 0x2
 5782 1456 75       		.byte	0x75
 5783 1457 00       		.sleb128 0
 5784 1458 00       		.byte	0
 5785 1459 04       		.uleb128 0x4
 5786 145a 20000000 		.4byte	.LVL67
 5787 145e E9080000 		.4byte	0x8e9
 5788 1462 04       		.uleb128 0x4
 5789 1463 2A000000 		.4byte	.LVL68
 5790 1467 E9080000 		.4byte	0x8e9
 5791 146b 04       		.uleb128 0x4
 5792 146c 3C000000 		.4byte	.LVL69
 5793 1470 E9080000 		.4byte	0x8e9
 5794 1474 04       		.uleb128 0x4
 5795 1475 4E000000 		.4byte	.LVL70
 5796 1479 E9080000 		.4byte	0x8e9
 5797 147d 04       		.uleb128 0x4
 5798 147e 60000000 		.4byte	.LVL71
 5799 1482 E9080000 		.4byte	0x8e9
 5800 1486 04       		.uleb128 0x4
 5801 1487 70000000 		.4byte	.LVL72
 5802 148b E9080000 		.4byte	0x8e9
 5803 148f 04       		.uleb128 0x4
 5804 1490 7C000000 		.4byte	.LVL73
 5805 1494 E9080000 		.4byte	0x8e9
 5806 1498 04       		.uleb128 0x4
 5807 1499 88000000 		.4byte	.LVL74
 5808 149d E9080000 		.4byte	0x8e9
 5809 14a1 04       		.uleb128 0x4
 5810 14a2 94000000 		.4byte	.LVL75
 5811 14a6 E9080000 		.4byte	0x8e9
 5812 14aa 04       		.uleb128 0x4
 5813 14ab A0000000 		.4byte	.LVL77
 5814 14af E9080000 		.4byte	0x8e9
ARM GAS  C:\Users\DEVELO~1\AppData\Local\Temp\ccbkr0PB.s 			page 103


 5815 14b3 06       		.uleb128 0x6
 5816 14b4 E2000000 		.4byte	.LVL83
 5817 14b8 CF080000 		.4byte	0x8cf
 5818 14bc CC140000 		.4byte	0x14cc
 5819 14c0 01       		.uleb128 0x1
 5820 14c1 01       		.uleb128 0x1
 5821 14c2 50       		.byte	0x50
 5822 14c3 02       		.uleb128 0x2
 5823 14c4 75       		.byte	0x75
 5824 14c5 00       		.sleb128 0
 5825 14c6 01       		.uleb128 0x1
 5826 14c7 01       		.uleb128 0x1
 5827 14c8 51       		.byte	0x51
 5828 14c9 01       		.uleb128 0x1
 5829 14ca 40       		.byte	0x40
 5830 14cb 00       		.byte	0
 5831 14cc 06       		.uleb128 0x6
 5832 14cd E8000000 		.4byte	.LVL84
 5833 14d1 BA080000 		.4byte	0x8ba
 5834 14d5 E0140000 		.4byte	0x14e0
 5835 14d9 01       		.uleb128 0x1
 5836 14da 01       		.uleb128 0x1
 5837 14db 50       		.byte	0x50
 5838 14dc 02       		.uleb128 0x2
 5839 14dd 75       		.byte	0x75
 5840 14de 00       		.sleb128 0
 5841 14df 00       		.byte	0
 5842 14e0 06       		.uleb128 0x6
 5843 14e1 F6000000 		.4byte	.LVL85
 5844 14e5 B50E0000 		.4byte	0xeb5
 5845 14e9 F4140000 		.4byte	0x14f4
 5846 14ed 01       		.uleb128 0x1
 5847 14ee 01       		.uleb128 0x1
 5848 14ef 50       		.byte	0x50
 5849 14f0 02       		.uleb128 0x2
 5850 14f1 74       		.byte	0x74
 5851 14f2 00       		.sleb128 0
 5852 14f3 00       		.byte	0
 5853 14f4 04       		.uleb128 0x4
 5854 14f5 FE000000 		.4byte	.LVL86
 5855 14f9 8B080000 		.4byte	0x88b
 5856 14fd 06       		.uleb128 0x6
 5857 14fe B6020000 		.4byte	.LVL123
 5858 1502 E70E0000 		.4byte	0xee7
 5859 1506 11150000 		.4byte	0x1511
 5860 150a 01       		.uleb128 0x1
 5861 150b 01       		.uleb128 0x1
 5862 150c 50       		.byte	0x50
 5863 150d 02       		.uleb128 0x2
 5864 150e 74       		.byte	0x74
 5865 150f 00       		.sleb128 0
 5866 1510 00       		.byte	0
 5867 1511 15       		.uleb128 0x15
 5868 1512 3E060000 		.4byte	.LVL170
 5869 1516 A0080000 		.4byte	0x8a0
 5870 151a 01       		.uleb128 0x1
 5871 151b 01       		.uleb128 0x1
ARM GAS  C:\Users\DEVELO~1\AppData\Local\Temp\ccbkr0PB.s 			page 104


 5872 151c 51       		.byte	0x51
 5873 151d 01       		.uleb128 0x1
 5874 151e 31       		.byte	0x31
 5875 151f 00       		.byte	0
 5876 1520 00       		.byte	0
 5877 1521 0F       		.uleb128 0xf
 5878 1522 83070000 		.4byte	.LASF214
 5879 1526 7A01     		.2byte	0x17a
 5880 1528 13       		.byte	0x13
 5881 1529 8A030000 		.4byte	0x38a
 5882 152d 00000000 		.4byte	.LFB147
 5883 1531 E0000000 		.4byte	.LFE147-.LFB147
 5884 1535 01       		.uleb128 0x1
 5885 1536 9C       		.byte	0x9c
 5886 1537 E5150000 		.4byte	0x15e5
 5887 153b 08       		.uleb128 0x8
 5888 153c 68050000 		.4byte	.LASF182
 5889 1540 7A01     		.2byte	0x17a
 5890 1542 3F       		.byte	0x3f
 5891 1543 540A0000 		.4byte	0xa54
 5892 1547 64070000 		.4byte	.LLST17
 5893 154b 5E070000 		.4byte	.LVUS17
 5894 154f 08       		.uleb128 0x8
 5895 1550 29020000 		.4byte	.LASF107
 5896 1554 7B01     		.2byte	0x17b
 5897 1556 34       		.byte	0x34
 5898 1557 90000000 		.4byte	0x90
 5899 155b 85070000 		.4byte	.LLST18
 5900 155f 7D070000 		.4byte	.LVUS18
 5901 1563 08       		.uleb128 0x8
 5902 1564 D7000000 		.4byte	.LASF215
 5903 1568 7C01     		.2byte	0x17c
 5904 156a 34       		.byte	0x34
 5905 156b 90000000 		.4byte	0x90
 5906 156f C0070000 		.4byte	.LLST19
 5907 1573 A4070000 		.4byte	.LVUS19
 5908 1577 08       		.uleb128 0x8
 5909 1578 000B0000 		.4byte	.LASF117
 5910 157c 7D01     		.2byte	0x17d
 5911 157e 34       		.byte	0x34
 5912 157f 90000000 		.4byte	0x90
 5913 1583 4F080000 		.4byte	.LLST20
 5914 1587 33080000 		.4byte	.LVUS20
 5915 158b 08       		.uleb128 0x8
 5916 158c 5C070000 		.4byte	.LASF216
 5917 1590 7E01     		.2byte	0x17e
 5918 1592 34       		.byte	0x34
 5919 1593 90000000 		.4byte	0x90
 5920 1597 CA080000 		.4byte	.LLST21
 5921 159b C4080000 		.4byte	.LVUS21
 5922 159f 08       		.uleb128 0x8
 5923 15a0 90060000 		.4byte	.LASF217
 5924 15a4 7F01     		.2byte	0x17f
 5925 15a6 35       		.byte	0x35
 5926 15a7 31050000 		.4byte	0x531
 5927 15ab E9080000 		.4byte	.LLST22
 5928 15af E3080000 		.4byte	.LVUS22
ARM GAS  C:\Users\DEVELO~1\AppData\Local\Temp\ccbkr0PB.s 			page 105


 5929 15b3 08       		.uleb128 0x8
 5930 15b4 41090000 		.4byte	.LASF218
 5931 15b8 8001     		.2byte	0x180
 5932 15ba 35       		.byte	0x35
 5933 15bb 9C000000 		.4byte	0x9c
 5934 15bf 08090000 		.4byte	.LLST23
 5935 15c3 02090000 		.4byte	.LVUS23
 5936 15c7 08       		.uleb128 0x8
 5937 15c8 96030000 		.4byte	.LASF110
 5938 15cc 8101     		.2byte	0x181
 5939 15ce 34       		.byte	0x34
 5940 15cf 90000000 		.4byte	0x90
 5941 15d3 27090000 		.4byte	.LLST24
 5942 15d7 21090000 		.4byte	.LVUS24
 5943 15db 1B       		.uleb128 0x1b
 5944 15dc 66000000 		.4byte	.LVL43
 5945 15e0 13090000 		.4byte	0x913
 5946 15e4 00       		.byte	0
 5947 15e5 14       		.uleb128 0x14
 5948 15e6 00000000 		.4byte	.LASF219
 5949 15ea 4601     		.2byte	0x146
 5950 15ec 0E       		.byte	0xe
 5951 15ed FE150000 		.4byte	0x15fe
 5952 15f1 0C       		.uleb128 0xc
 5953 15f2 68050000 		.4byte	.LASF182
 5954 15f6 4601     		.2byte	0x146
 5955 15f8 33       		.byte	0x33
 5956 15f9 540A0000 		.4byte	0xa54
 5957 15fd 00       		.byte	0
 5958 15fe 37       		.uleb128 0x37
 5959 15ff D40A0000 		.4byte	.LASF221
 5960 1603 01       		.byte	0x1
 5961 1604 3701     		.2byte	0x137
 5962 1606 0E       		.byte	0xe
 5963 1607 01       		.byte	0x1
 5964 1608 19160000 		.4byte	0x1619
 5965 160c 0C       		.uleb128 0xc
 5966 160d 68050000 		.4byte	.LASF182
 5967 1611 3701     		.2byte	0x137
 5968 1613 31       		.byte	0x31
 5969 1614 540A0000 		.4byte	0xa54
 5970 1618 00       		.byte	0
 5971 1619 0F       		.uleb128 0xf
 5972 161a 0D090000 		.4byte	.LASF222
 5973 161e 1401     		.2byte	0x114
 5974 1620 13       		.byte	0x13
 5975 1621 8A030000 		.4byte	0x38a
 5976 1625 00000000 		.4byte	.LFB144
 5977 1629 24000000 		.4byte	.LFE144-.LFB144
 5978 162d 01       		.uleb128 0x1
 5979 162e 9C       		.byte	0x9c
 5980 162f 65160000 		.4byte	0x1665
 5981 1633 08       		.uleb128 0x8
 5982 1634 68050000 		.4byte	.LASF182
 5983 1638 1401     		.2byte	0x114
 5984 163a 35       		.byte	0x35
 5985 163b 540A0000 		.4byte	0xa54
ARM GAS  C:\Users\DEVELO~1\AppData\Local\Temp\ccbkr0PB.s 			page 106


 5986 163f 48090000 		.4byte	.LLST16
 5987 1643 40090000 		.4byte	.LVUS16
 5988 1647 06       		.uleb128 0x6
 5989 1648 10000000 		.4byte	.LVL34
 5990 164c E5150000 		.4byte	0x15e5
 5991 1650 5B160000 		.4byte	0x165b
 5992 1654 01       		.uleb128 0x1
 5993 1655 01       		.uleb128 0x1
 5994 1656 50       		.byte	0x50
 5995 1657 02       		.uleb128 0x2
 5996 1658 74       		.byte	0x74
 5997 1659 00       		.sleb128 0
 5998 165a 00       		.byte	0
 5999 165b 04       		.uleb128 0x4
 6000 165c 16000000 		.4byte	.LVL35
 6001 1660 E7090000 		.4byte	0x9e7
 6002 1664 00       		.byte	0
 6003 1665 0F       		.uleb128 0xf
 6004 1666 A5060000 		.4byte	.LASF223
 6005 166a 0401     		.2byte	0x104
 6006 166c 13       		.byte	0x13
 6007 166d 8A030000 		.4byte	0x38a
 6008 1671 00000000 		.4byte	.LFB143
 6009 1675 26000000 		.4byte	.LFE143-.LFB143
 6010 1679 01       		.uleb128 0x1
 6011 167a 9C       		.byte	0x9c
 6012 167b BF160000 		.4byte	0x16bf
 6013 167f 08       		.uleb128 0x8
 6014 1680 68050000 		.4byte	.LASF182
 6015 1684 0401     		.2byte	0x104
 6016 1686 36       		.byte	0x36
 6017 1687 540A0000 		.4byte	0xa54
 6018 168b 6D090000 		.4byte	.LLST13
 6019 168f 65090000 		.4byte	.LVUS13
 6020 1693 08       		.uleb128 0x8
 6021 1694 29020000 		.4byte	.LASF107
 6022 1698 0401     		.2byte	0x104
 6023 169a 44       		.byte	0x44
 6024 169b 90000000 		.4byte	0x90
 6025 169f 90090000 		.4byte	.LLST14
 6026 16a3 8A090000 		.4byte	.LVUS14
 6027 16a7 38       		.uleb128 0x38
 6028 16a8 330B0000 		.4byte	.LASF227
 6029 16ac 01       		.byte	0x1
 6030 16ad 0601     		.2byte	0x106
 6031 16af 15       		.byte	0x15
 6032 16b0 8A030000 		.4byte	0x38a
 6033 16b4 00       		.byte	0
 6034 16b5 04       		.uleb128 0x4
 6035 16b6 18000000 		.4byte	.LVL17
 6036 16ba 37090000 		.4byte	0x937
 6037 16be 00       		.byte	0
 6038 16bf 2C       		.uleb128 0x2c
 6039 16c0 14080000 		.4byte	.LASF224
 6040 16c4 CA       		.byte	0xca
 6041 16c5 8A030000 		.4byte	0x38a
 6042 16c9 00000000 		.4byte	.LFB142
ARM GAS  C:\Users\DEVELO~1\AppData\Local\Temp\ccbkr0PB.s 			page 107


 6043 16cd AE000000 		.4byte	.LFE142-.LFB142
 6044 16d1 01       		.uleb128 0x1
 6045 16d2 9C       		.byte	0x9c
 6046 16d3 02180000 		.4byte	0x1802
 6047 16d7 12       		.uleb128 0x12
 6048 16d8 68050000 		.4byte	.LASF182
 6049 16dc CA       		.byte	0xca
 6050 16dd 36       		.byte	0x36
 6051 16de 540A0000 		.4byte	0xa54
 6052 16e2 B0090000 		.4byte	.LLST0
 6053 16e6 A8090000 		.4byte	.LVUS0
 6054 16ea 12       		.uleb128 0x12
 6055 16eb 29020000 		.4byte	.LASF107
 6056 16ef CA       		.byte	0xca
 6057 16f0 44       		.byte	0x44
 6058 16f1 90000000 		.4byte	0x90
 6059 16f5 D8090000 		.4byte	.LLST1
 6060 16f9 D2090000 		.4byte	.LVUS1
 6061 16fd 12       		.uleb128 0x12
 6062 16fe 09040000 		.4byte	.LASF225
 6063 1702 CA       		.byte	0xca
 6064 1703 54       		.byte	0x54
 6065 1704 90000000 		.4byte	0x90
 6066 1708 F9090000 		.4byte	.LLST2
 6067 170c F3090000 		.4byte	.LVUS2
 6068 1710 12       		.uleb128 0x12
 6069 1711 25040000 		.4byte	.LASF226
 6070 1715 CB       		.byte	0xcb
 6071 1716 2B       		.byte	0x2b
 6072 1717 90000000 		.4byte	0x90
 6073 171b 180A0000 		.4byte	.LLST3
 6074 171f 140A0000 		.4byte	.LVUS3
 6075 1723 12       		.uleb128 0x12
 6076 1724 E30B0000 		.4byte	.LASF95
 6077 1728 CB       		.byte	0xcb
 6078 1729 40       		.byte	0x40
 6079 172a 90000000 		.4byte	0x90
 6080 172e 300A0000 		.4byte	.LLST4
 6081 1732 2C0A0000 		.4byte	.LVUS4
 6082 1736 12       		.uleb128 0x12
 6083 1737 000B0000 		.4byte	.LASF117
 6084 173b CB       		.byte	0xcb
 6085 173c 4F       		.byte	0x4f
 6086 173d 90000000 		.4byte	0x90
 6087 1741 490A0000 		.4byte	.LLST5
 6088 1745 450A0000 		.4byte	.LVUS5
 6089 1749 39       		.uleb128 0x39
 6090 174a 6D707300 		.ascii	"mps\000"
 6091 174e 01       		.byte	0x1
 6092 174f CB       		.byte	0xcb
 6093 1750 61       		.byte	0x61
 6094 1751 9C000000 		.4byte	0x9c
 6095 1755 620A0000 		.4byte	.LLST6
 6096 1759 5E0A0000 		.4byte	.LVUS6
 6097 175d 22       		.uleb128 0x22
 6098 175e 330B0000 		.4byte	.LASF227
 6099 1762 CD       		.byte	0xcd
ARM GAS  C:\Users\DEVELO~1\AppData\Local\Temp\ccbkr0PB.s 			page 108


 6100 1763 15       		.byte	0x15
 6101 1764 8A030000 		.4byte	0x38a
 6102 1768 790A0000 		.4byte	.LLST7
 6103 176c 770A0000 		.4byte	.LVUS7
 6104 1770 22       		.uleb128 0x22
 6105 1771 77020000 		.4byte	.LASF212
 6106 1775 CE       		.byte	0xce
 6107 1776 0C       		.byte	0xc
 6108 1777 A8000000 		.4byte	0xa8
 6109 177b 860A0000 		.4byte	.LLST8
 6110 177f 820A0000 		.4byte	.LVUS8
 6111 1783 22       		.uleb128 0x22
 6112 1784 FF030000 		.4byte	.LASF228
 6113 1788 CF       		.byte	0xcf
 6114 1789 0C       		.byte	0xc
 6115 178a A8000000 		.4byte	0xa8
 6116 178e 9E0A0000 		.4byte	.LLST9
 6117 1792 960A0000 		.4byte	.LVUS9
 6118 1796 3A       		.uleb128 0x3a
 6119 1797 6D0B0000 		.4byte	0xb6d
 6120 179b 56000000 		.4byte	.LBI4
 6121 179f 0200     		.2byte	.LVU33
 6122 17a1 0C000000 		.4byte	.LLRL10
 6123 17a5 01       		.byte	0x1
 6124 17a6 D8       		.byte	0xd8
 6125 17a7 09       		.byte	0x9
 6126 17a8 C7170000 		.4byte	0x17c7
 6127 17ac 10       		.uleb128 0x10
 6128 17ad 8B0B0000 		.4byte	0xb8b
 6129 17b1 D90A0000 		.4byte	.LLST11
 6130 17b5 D70A0000 		.4byte	.LVUS11
 6131 17b9 10       		.uleb128 0x10
 6132 17ba 7F0B0000 		.4byte	0xb7f
 6133 17be E40A0000 		.4byte	.LLST12
 6134 17c2 E20A0000 		.4byte	.LVUS12
 6135 17c6 00       		.byte	0
 6136 17c7 04       		.uleb128 0x4
 6137 17c8 60000000 		.4byte	.LVL6
 6138 17cc 84090000 		.4byte	0x984
 6139 17d0 15       		.uleb128 0x15
 6140 17d1 86000000 		.4byte	.LVL9
 6141 17d5 51090000 		.4byte	0x951
 6142 17d9 01       		.uleb128 0x1
 6143 17da 01       		.uleb128 0x1
 6144 17db 51       		.byte	0x51
 6145 17dc 02       		.uleb128 0x2
 6146 17dd 75       		.byte	0x75
 6147 17de 00       		.sleb128 0
 6148 17df 01       		.uleb128 0x1
 6149 17e0 01       		.uleb128 0x1
 6150 17e1 52       		.byte	0x52
 6151 17e2 02       		.uleb128 0x2
 6152 17e3 79       		.byte	0x79
 6153 17e4 00       		.sleb128 0
 6154 17e5 01       		.uleb128 0x1
 6155 17e6 01       		.uleb128 0x1
 6156 17e7 53       		.byte	0x53
ARM GAS  C:\Users\DEVELO~1\AppData\Local\Temp\ccbkr0PB.s 			page 109


 6157 17e8 02       		.uleb128 0x2
 6158 17e9 7A       		.byte	0x7a
 6159 17ea 00       		.sleb128 0
 6160 17eb 01       		.uleb128 0x1
 6161 17ec 02       		.uleb128 0x2
 6162 17ed 7D       		.byte	0x7d
 6163 17ee 00       		.sleb128 0
 6164 17ef 02       		.uleb128 0x2
 6165 17f0 77       		.byte	0x77
 6166 17f1 00       		.sleb128 0
 6167 17f2 01       		.uleb128 0x1
 6168 17f3 02       		.uleb128 0x2
 6169 17f4 7D       		.byte	0x7d
 6170 17f5 04       		.sleb128 4
 6171 17f6 02       		.uleb128 0x2
 6172 17f7 76       		.byte	0x76
 6173 17f8 00       		.sleb128 0
 6174 17f9 01       		.uleb128 0x1
 6175 17fa 02       		.uleb128 0x2
 6176 17fb 7D       		.byte	0x7d
 6177 17fc 08       		.sleb128 8
 6178 17fd 02       		.uleb128 0x2
 6179 17fe 78       		.byte	0x78
 6180 17ff 00       		.sleb128 0
 6181 1800 00       		.byte	0
 6182 1801 00       		.byte	0
 6183 1802 2C       		.uleb128 0x2c
 6184 1803 C9070000 		.4byte	.LASF229
 6185 1807 6E       		.byte	0x6e
 6186 1808 8A030000 		.4byte	0x38a
 6187 180c 00000000 		.4byte	.LFB141
 6188 1810 98000000 		.4byte	.LFE141-.LFB141
 6189 1814 01       		.uleb128 0x1
 6190 1815 9C       		.byte	0x9c
 6191 1816 85180000 		.4byte	0x1885
 6192 181a 12       		.uleb128 0x12
 6193 181b 68050000 		.4byte	.LASF182
 6194 181f 6E       		.byte	0x6e
 6195 1820 33       		.byte	0x33
 6196 1821 540A0000 		.4byte	0xa54
 6197 1825 F50A0000 		.4byte	.LLST15
 6198 1829 ED0A0000 		.4byte	.LVUS15
 6199 182d 27       		.uleb128 0x27
 6200 182e 12050000 		.4byte	.LASF220
 6201 1832 77       		.byte	0x77
 6202 1833 89000000 		.4byte	0x89
 6203 1837 3D180000 		.4byte	0x183d
 6204 183b 28       		.uleb128 0x28
 6205 183c 00       		.byte	0
 6206 183d 04       		.uleb128 0x4
 6207 183e 20000000 		.4byte	.LVL23
 6208 1842 FC090000 		.4byte	0x9fc
 6209 1846 04       		.uleb128 0x4
 6210 1847 38000000 		.4byte	.LVL24
 6211 184b E7090000 		.4byte	0x9e7
 6212 184f 04       		.uleb128 0x4
 6213 1850 48000000 		.4byte	.LVL25
ARM GAS  C:\Users\DEVELO~1\AppData\Local\Temp\ccbkr0PB.s 			page 110


 6214 1854 CD090000 		.4byte	0x9cd
 6215 1858 06       		.uleb128 0x6
 6216 1859 5E000000 		.4byte	.LVL27
 6217 185d B3090000 		.4byte	0x9b3
 6218 1861 6B180000 		.4byte	0x186b
 6219 1865 01       		.uleb128 0x1
 6220 1866 01       		.uleb128 0x1
 6221 1867 51       		.byte	0x51
 6222 1868 01       		.uleb128 0x1
 6223 1869 31       		.byte	0x31
 6224 186a 00       		.byte	0
 6225 186b 04       		.uleb128 0x4
 6226 186c 72000000 		.4byte	.LVL28
 6227 1870 99090000 		.4byte	0x999
 6228 1874 15       		.uleb128 0x15
 6229 1875 8A000000 		.4byte	.LVL30
 6230 1879 FE150000 		.4byte	0x15fe
 6231 187d 01       		.uleb128 0x1
 6232 187e 01       		.uleb128 0x1
 6233 187f 50       		.byte	0x50
 6234 1880 02       		.uleb128 0x2
 6235 1881 74       		.byte	0x74
 6236 1882 00       		.sleb128 0
 6237 1883 00       		.byte	0
 6238 1884 00       		.byte	0
 6239 1885 3B       		.uleb128 0x3b
 6240 1886 FE150000 		.4byte	0x15fe
 6241 188a 00000000 		.4byte	.LFB145
 6242 188e 02000000 		.4byte	.LFE145-.LFB145
 6243 1892 01       		.uleb128 0x1
 6244 1893 9C       		.byte	0x9c
 6245 1894 A0180000 		.4byte	0x18a0
 6246 1898 3C       		.uleb128 0x3c
 6247 1899 0C160000 		.4byte	0x160c
 6248 189d 01       		.uleb128 0x1
 6249 189e 50       		.byte	0x50
 6250 189f 00       		.byte	0
 6251 18a0 3D       		.uleb128 0x3d
 6252 18a1 6D0B0000 		.4byte	0xb6d
 6253 18a5 00000000 		.4byte	.LFB165
 6254 18a9 12000000 		.4byte	.LFE165-.LFB165
 6255 18ad 01       		.uleb128 0x1
 6256 18ae 9C       		.byte	0x9c
 6257 18af 10       		.uleb128 0x10
 6258 18b0 7F0B0000 		.4byte	0xb7f
 6259 18b4 1B0B0000 		.4byte	.LLST69
 6260 18b8 170B0000 		.4byte	.LVUS69
 6261 18bc 10       		.uleb128 0x10
 6262 18bd 8B0B0000 		.4byte	0xb8b
 6263 18c1 2F0B0000 		.4byte	.LLST70
 6264 18c5 2B0B0000 		.4byte	.LVUS70
 6265 18c9 00       		.byte	0
 6266 18ca 00       		.byte	0
 6267              		.section	.debug_abbrev,"",%progbits
 6268              	.Ldebug_abbrev0:
 6269 0000 01       		.uleb128 0x1
 6270 0001 49       		.uleb128 0x49
ARM GAS  C:\Users\DEVELO~1\AppData\Local\Temp\ccbkr0PB.s 			page 111


 6271 0002 00       		.byte	0
 6272 0003 02       		.uleb128 0x2
 6273 0004 18       		.uleb128 0x18
 6274 0005 7E       		.uleb128 0x7e
 6275 0006 18       		.uleb128 0x18
 6276 0007 00       		.byte	0
 6277 0008 00       		.byte	0
 6278 0009 02       		.uleb128 0x2
 6279 000a 0D       		.uleb128 0xd
 6280 000b 00       		.byte	0
 6281 000c 03       		.uleb128 0x3
 6282 000d 0E       		.uleb128 0xe
 6283 000e 3A       		.uleb128 0x3a
 6284 000f 0B       		.uleb128 0xb
 6285 0010 3B       		.uleb128 0x3b
 6286 0011 0B       		.uleb128 0xb
 6287 0012 39       		.uleb128 0x39
 6288 0013 0B       		.uleb128 0xb
 6289 0014 49       		.uleb128 0x49
 6290 0015 13       		.uleb128 0x13
 6291 0016 38       		.uleb128 0x38
 6292 0017 0B       		.uleb128 0xb
 6293 0018 00       		.byte	0
 6294 0019 00       		.byte	0
 6295 001a 03       		.uleb128 0x3
 6296 001b 05       		.uleb128 0x5
 6297 001c 00       		.byte	0
 6298 001d 49       		.uleb128 0x49
 6299 001e 13       		.uleb128 0x13
 6300 001f 00       		.byte	0
 6301 0020 00       		.byte	0
 6302 0021 04       		.uleb128 0x4
 6303 0022 48       		.uleb128 0x48
 6304 0023 00       		.byte	0
 6305 0024 7D       		.uleb128 0x7d
 6306 0025 01       		.uleb128 0x1
 6307 0026 7F       		.uleb128 0x7f
 6308 0027 13       		.uleb128 0x13
 6309 0028 00       		.byte	0
 6310 0029 00       		.byte	0
 6311 002a 05       		.uleb128 0x5
 6312 002b 0D       		.uleb128 0xd
 6313 002c 00       		.byte	0
 6314 002d 03       		.uleb128 0x3
 6315 002e 0E       		.uleb128 0xe
 6316 002f 3A       		.uleb128 0x3a
 6317 0030 21       		.uleb128 0x21
 6318 0031 04       		.sleb128 4
 6319 0032 3B       		.uleb128 0x3b
 6320 0033 05       		.uleb128 0x5
 6321 0034 39       		.uleb128 0x39
 6322 0035 0B       		.uleb128 0xb
 6323 0036 49       		.uleb128 0x49
 6324 0037 13       		.uleb128 0x13
 6325 0038 38       		.uleb128 0x38
 6326 0039 0B       		.uleb128 0xb
 6327 003a 00       		.byte	0
ARM GAS  C:\Users\DEVELO~1\AppData\Local\Temp\ccbkr0PB.s 			page 112


 6328 003b 00       		.byte	0
 6329 003c 06       		.uleb128 0x6
 6330 003d 48       		.uleb128 0x48
 6331 003e 01       		.byte	0x1
 6332 003f 7D       		.uleb128 0x7d
 6333 0040 01       		.uleb128 0x1
 6334 0041 7F       		.uleb128 0x7f
 6335 0042 13       		.uleb128 0x13
 6336 0043 01       		.uleb128 0x1
 6337 0044 13       		.uleb128 0x13
 6338 0045 00       		.byte	0
 6339 0046 00       		.byte	0
 6340 0047 07       		.uleb128 0x7
 6341 0048 28       		.uleb128 0x28
 6342 0049 00       		.byte	0
 6343 004a 03       		.uleb128 0x3
 6344 004b 0E       		.uleb128 0xe
 6345 004c 1C       		.uleb128 0x1c
 6346 004d 0B       		.uleb128 0xb
 6347 004e 00       		.byte	0
 6348 004f 00       		.byte	0
 6349 0050 08       		.uleb128 0x8
 6350 0051 05       		.uleb128 0x5
 6351 0052 00       		.byte	0
 6352 0053 03       		.uleb128 0x3
 6353 0054 0E       		.uleb128 0xe
 6354 0055 3A       		.uleb128 0x3a
 6355 0056 21       		.uleb128 0x21
 6356 0057 01       		.sleb128 1
 6357 0058 3B       		.uleb128 0x3b
 6358 0059 05       		.uleb128 0x5
 6359 005a 39       		.uleb128 0x39
 6360 005b 0B       		.uleb128 0xb
 6361 005c 49       		.uleb128 0x49
 6362 005d 13       		.uleb128 0x13
 6363 005e 02       		.uleb128 0x2
 6364 005f 17       		.uleb128 0x17
 6365 0060 B742     		.uleb128 0x2137
 6366 0062 17       		.uleb128 0x17
 6367 0063 00       		.byte	0
 6368 0064 00       		.byte	0
 6369 0065 09       		.uleb128 0x9
 6370 0066 16       		.uleb128 0x16
 6371 0067 00       		.byte	0
 6372 0068 03       		.uleb128 0x3
 6373 0069 0E       		.uleb128 0xe
 6374 006a 3A       		.uleb128 0x3a
 6375 006b 0B       		.uleb128 0xb
 6376 006c 3B       		.uleb128 0x3b
 6377 006d 0B       		.uleb128 0xb
 6378 006e 39       		.uleb128 0x39
 6379 006f 0B       		.uleb128 0xb
 6380 0070 49       		.uleb128 0x49
 6381 0071 13       		.uleb128 0x13
 6382 0072 00       		.byte	0
 6383 0073 00       		.byte	0
 6384 0074 0A       		.uleb128 0xa
ARM GAS  C:\Users\DEVELO~1\AppData\Local\Temp\ccbkr0PB.s 			page 113


 6385 0075 2E       		.uleb128 0x2e
 6386 0076 01       		.byte	0x1
 6387 0077 3F       		.uleb128 0x3f
 6388 0078 19       		.uleb128 0x19
 6389 0079 03       		.uleb128 0x3
 6390 007a 0E       		.uleb128 0xe
 6391 007b 3A       		.uleb128 0x3a
 6392 007c 21       		.uleb128 0x21
 6393 007d 06       		.sleb128 6
 6394 007e 3B       		.uleb128 0x3b
 6395 007f 05       		.uleb128 0x5
 6396 0080 39       		.uleb128 0x39
 6397 0081 21       		.uleb128 0x21
 6398 0082 13       		.sleb128 19
 6399 0083 27       		.uleb128 0x27
 6400 0084 19       		.uleb128 0x19
 6401 0085 49       		.uleb128 0x49
 6402 0086 13       		.uleb128 0x13
 6403 0087 3C       		.uleb128 0x3c
 6404 0088 19       		.uleb128 0x19
 6405 0089 01       		.uleb128 0x1
 6406 008a 13       		.uleb128 0x13
 6407 008b 00       		.byte	0
 6408 008c 00       		.byte	0
 6409 008d 0B       		.uleb128 0xb
 6410 008e 34       		.uleb128 0x34
 6411 008f 00       		.byte	0
 6412 0090 03       		.uleb128 0x3
 6413 0091 0E       		.uleb128 0xe
 6414 0092 3A       		.uleb128 0x3a
 6415 0093 21       		.uleb128 0x21
 6416 0094 01       		.sleb128 1
 6417 0095 3B       		.uleb128 0x3b
 6418 0096 05       		.uleb128 0x5
 6419 0097 39       		.uleb128 0x39
 6420 0098 0B       		.uleb128 0xb
 6421 0099 49       		.uleb128 0x49
 6422 009a 13       		.uleb128 0x13
 6423 009b 00       		.byte	0
 6424 009c 00       		.byte	0
 6425 009d 0C       		.uleb128 0xc
 6426 009e 05       		.uleb128 0x5
 6427 009f 00       		.byte	0
 6428 00a0 03       		.uleb128 0x3
 6429 00a1 0E       		.uleb128 0xe
 6430 00a2 3A       		.uleb128 0x3a
 6431 00a3 21       		.uleb128 0x21
 6432 00a4 01       		.sleb128 1
 6433 00a5 3B       		.uleb128 0x3b
 6434 00a6 05       		.uleb128 0x5
 6435 00a7 39       		.uleb128 0x39
 6436 00a8 0B       		.uleb128 0xb
 6437 00a9 49       		.uleb128 0x49
 6438 00aa 13       		.uleb128 0x13
 6439 00ab 00       		.byte	0
 6440 00ac 00       		.byte	0
 6441 00ad 0D       		.uleb128 0xd
ARM GAS  C:\Users\DEVELO~1\AppData\Local\Temp\ccbkr0PB.s 			page 114


 6442 00ae 34       		.uleb128 0x34
 6443 00af 00       		.byte	0
 6444 00b0 31       		.uleb128 0x31
 6445 00b1 13       		.uleb128 0x13
 6446 00b2 02       		.uleb128 0x2
 6447 00b3 17       		.uleb128 0x17
 6448 00b4 B742     		.uleb128 0x2137
 6449 00b6 17       		.uleb128 0x17
 6450 00b7 00       		.byte	0
 6451 00b8 00       		.byte	0
 6452 00b9 0E       		.uleb128 0xe
 6453 00ba 24       		.uleb128 0x24
 6454 00bb 00       		.byte	0
 6455 00bc 0B       		.uleb128 0xb
 6456 00bd 0B       		.uleb128 0xb
 6457 00be 3E       		.uleb128 0x3e
 6458 00bf 0B       		.uleb128 0xb
 6459 00c0 03       		.uleb128 0x3
 6460 00c1 0E       		.uleb128 0xe
 6461 00c2 00       		.byte	0
 6462 00c3 00       		.byte	0
 6463 00c4 0F       		.uleb128 0xf
 6464 00c5 2E       		.uleb128 0x2e
 6465 00c6 01       		.byte	0x1
 6466 00c7 3F       		.uleb128 0x3f
 6467 00c8 19       		.uleb128 0x19
 6468 00c9 03       		.uleb128 0x3
 6469 00ca 0E       		.uleb128 0xe
 6470 00cb 3A       		.uleb128 0x3a
 6471 00cc 21       		.uleb128 0x21
 6472 00cd 01       		.sleb128 1
 6473 00ce 3B       		.uleb128 0x3b
 6474 00cf 05       		.uleb128 0x5
 6475 00d0 39       		.uleb128 0x39
 6476 00d1 0B       		.uleb128 0xb
 6477 00d2 27       		.uleb128 0x27
 6478 00d3 19       		.uleb128 0x19
 6479 00d4 49       		.uleb128 0x49
 6480 00d5 13       		.uleb128 0x13
 6481 00d6 11       		.uleb128 0x11
 6482 00d7 01       		.uleb128 0x1
 6483 00d8 12       		.uleb128 0x12
 6484 00d9 06       		.uleb128 0x6
 6485 00da 40       		.uleb128 0x40
 6486 00db 18       		.uleb128 0x18
 6487 00dc 7A       		.uleb128 0x7a
 6488 00dd 19       		.uleb128 0x19
 6489 00de 01       		.uleb128 0x1
 6490 00df 13       		.uleb128 0x13
 6491 00e0 00       		.byte	0
 6492 00e1 00       		.byte	0
 6493 00e2 10       		.uleb128 0x10
 6494 00e3 05       		.uleb128 0x5
 6495 00e4 00       		.byte	0
 6496 00e5 31       		.uleb128 0x31
 6497 00e6 13       		.uleb128 0x13
 6498 00e7 02       		.uleb128 0x2
ARM GAS  C:\Users\DEVELO~1\AppData\Local\Temp\ccbkr0PB.s 			page 115


 6499 00e8 17       		.uleb128 0x17
 6500 00e9 B742     		.uleb128 0x2137
 6501 00eb 17       		.uleb128 0x17
 6502 00ec 00       		.byte	0
 6503 00ed 00       		.byte	0
 6504 00ee 11       		.uleb128 0x11
 6505 00ef 0F       		.uleb128 0xf
 6506 00f0 00       		.byte	0
 6507 00f1 0B       		.uleb128 0xb
 6508 00f2 21       		.uleb128 0x21
 6509 00f3 04       		.sleb128 4
 6510 00f4 49       		.uleb128 0x49
 6511 00f5 13       		.uleb128 0x13
 6512 00f6 00       		.byte	0
 6513 00f7 00       		.byte	0
 6514 00f8 12       		.uleb128 0x12
 6515 00f9 05       		.uleb128 0x5
 6516 00fa 00       		.byte	0
 6517 00fb 03       		.uleb128 0x3
 6518 00fc 0E       		.uleb128 0xe
 6519 00fd 3A       		.uleb128 0x3a
 6520 00fe 21       		.uleb128 0x21
 6521 00ff 01       		.sleb128 1
 6522 0100 3B       		.uleb128 0x3b
 6523 0101 0B       		.uleb128 0xb
 6524 0102 39       		.uleb128 0x39
 6525 0103 0B       		.uleb128 0xb
 6526 0104 49       		.uleb128 0x49
 6527 0105 13       		.uleb128 0x13
 6528 0106 02       		.uleb128 0x2
 6529 0107 17       		.uleb128 0x17
 6530 0108 B742     		.uleb128 0x2137
 6531 010a 17       		.uleb128 0x17
 6532 010b 00       		.byte	0
 6533 010c 00       		.byte	0
 6534 010d 13       		.uleb128 0x13
 6535 010e 04       		.uleb128 0x4
 6536 010f 01       		.byte	0x1
 6537 0110 3E       		.uleb128 0x3e
 6538 0111 21       		.uleb128 0x21
 6539 0112 07       		.sleb128 7
 6540 0113 0B       		.uleb128 0xb
 6541 0114 21       		.uleb128 0x21
 6542 0115 01       		.sleb128 1
 6543 0116 49       		.uleb128 0x49
 6544 0117 13       		.uleb128 0x13
 6545 0118 3A       		.uleb128 0x3a
 6546 0119 0B       		.uleb128 0xb
 6547 011a 3B       		.uleb128 0x3b
 6548 011b 0B       		.uleb128 0xb
 6549 011c 39       		.uleb128 0x39
 6550 011d 21       		.uleb128 0x21
 6551 011e 01       		.sleb128 1
 6552 011f 01       		.uleb128 0x1
 6553 0120 13       		.uleb128 0x13
 6554 0121 00       		.byte	0
 6555 0122 00       		.byte	0
ARM GAS  C:\Users\DEVELO~1\AppData\Local\Temp\ccbkr0PB.s 			page 116


 6556 0123 14       		.uleb128 0x14
 6557 0124 2E       		.uleb128 0x2e
 6558 0125 01       		.byte	0x1
 6559 0126 3F       		.uleb128 0x3f
 6560 0127 19       		.uleb128 0x19
 6561 0128 03       		.uleb128 0x3
 6562 0129 0E       		.uleb128 0xe
 6563 012a 3A       		.uleb128 0x3a
 6564 012b 21       		.uleb128 0x21
 6565 012c 01       		.sleb128 1
 6566 012d 3B       		.uleb128 0x3b
 6567 012e 05       		.uleb128 0x5
 6568 012f 39       		.uleb128 0x39
 6569 0130 0B       		.uleb128 0xb
 6570 0131 27       		.uleb128 0x27
 6571 0132 19       		.uleb128 0x19
 6572 0133 01       		.uleb128 0x1
 6573 0134 13       		.uleb128 0x13
 6574 0135 00       		.byte	0
 6575 0136 00       		.byte	0
 6576 0137 15       		.uleb128 0x15
 6577 0138 48       		.uleb128 0x48
 6578 0139 01       		.byte	0x1
 6579 013a 7D       		.uleb128 0x7d
 6580 013b 01       		.uleb128 0x1
 6581 013c 7F       		.uleb128 0x7f
 6582 013d 13       		.uleb128 0x13
 6583 013e 00       		.byte	0
 6584 013f 00       		.byte	0
 6585 0140 16       		.uleb128 0x16
 6586 0141 01       		.uleb128 0x1
 6587 0142 01       		.byte	0x1
 6588 0143 49       		.uleb128 0x49
 6589 0144 13       		.uleb128 0x13
 6590 0145 01       		.uleb128 0x1
 6591 0146 13       		.uleb128 0x13
 6592 0147 00       		.byte	0
 6593 0148 00       		.byte	0
 6594 0149 17       		.uleb128 0x17
 6595 014a 21       		.uleb128 0x21
 6596 014b 00       		.byte	0
 6597 014c 49       		.uleb128 0x49
 6598 014d 13       		.uleb128 0x13
 6599 014e 2F       		.uleb128 0x2f
 6600 014f 0B       		.uleb128 0xb
 6601 0150 00       		.byte	0
 6602 0151 00       		.byte	0
 6603 0152 18       		.uleb128 0x18
 6604 0153 0D       		.uleb128 0xd
 6605 0154 00       		.byte	0
 6606 0155 03       		.uleb128 0x3
 6607 0156 0E       		.uleb128 0xe
 6608 0157 3A       		.uleb128 0x3a
 6609 0158 21       		.uleb128 0x21
 6610 0159 07       		.sleb128 7
 6611 015a 3B       		.uleb128 0x3b
 6612 015b 0B       		.uleb128 0xb
ARM GAS  C:\Users\DEVELO~1\AppData\Local\Temp\ccbkr0PB.s 			page 117


 6613 015c 39       		.uleb128 0x39
 6614 015d 0B       		.uleb128 0xb
 6615 015e 49       		.uleb128 0x49
 6616 015f 13       		.uleb128 0x13
 6617 0160 38       		.uleb128 0x38
 6618 0161 05       		.uleb128 0x5
 6619 0162 00       		.byte	0
 6620 0163 00       		.byte	0
 6621 0164 19       		.uleb128 0x19
 6622 0165 2E       		.uleb128 0x2e
 6623 0166 01       		.byte	0x1
 6624 0167 03       		.uleb128 0x3
 6625 0168 0E       		.uleb128 0xe
 6626 0169 3A       		.uleb128 0x3a
 6627 016a 21       		.uleb128 0x21
 6628 016b 01       		.sleb128 1
 6629 016c 3B       		.uleb128 0x3b
 6630 016d 05       		.uleb128 0x5
 6631 016e 39       		.uleb128 0x39
 6632 016f 21       		.uleb128 0x21
 6633 0170 0D       		.sleb128 13
 6634 0171 27       		.uleb128 0x27
 6635 0172 19       		.uleb128 0x19
 6636 0173 20       		.uleb128 0x20
 6637 0174 21       		.uleb128 0x21
 6638 0175 01       		.sleb128 1
 6639 0176 01       		.uleb128 0x1
 6640 0177 13       		.uleb128 0x13
 6641 0178 00       		.byte	0
 6642 0179 00       		.byte	0
 6643 017a 1A       		.uleb128 0x1a
 6644 017b 34       		.uleb128 0x34
 6645 017c 00       		.byte	0
 6646 017d 03       		.uleb128 0x3
 6647 017e 0E       		.uleb128 0xe
 6648 017f 3A       		.uleb128 0x3a
 6649 0180 21       		.uleb128 0x21
 6650 0181 01       		.sleb128 1
 6651 0182 3B       		.uleb128 0x3b
 6652 0183 05       		.uleb128 0x5
 6653 0184 39       		.uleb128 0x39
 6654 0185 0B       		.uleb128 0xb
 6655 0186 49       		.uleb128 0x49
 6656 0187 13       		.uleb128 0x13
 6657 0188 02       		.uleb128 0x2
 6658 0189 17       		.uleb128 0x17
 6659 018a B742     		.uleb128 0x2137
 6660 018c 17       		.uleb128 0x17
 6661 018d 00       		.byte	0
 6662 018e 00       		.byte	0
 6663 018f 1B       		.uleb128 0x1b
 6664 0190 48       		.uleb128 0x48
 6665 0191 00       		.byte	0
 6666 0192 7D       		.uleb128 0x7d
 6667 0193 01       		.uleb128 0x1
 6668 0194 8201     		.uleb128 0x82
 6669 0196 19       		.uleb128 0x19
ARM GAS  C:\Users\DEVELO~1\AppData\Local\Temp\ccbkr0PB.s 			page 118


 6670 0197 7F       		.uleb128 0x7f
 6671 0198 13       		.uleb128 0x13
 6672 0199 00       		.byte	0
 6673 019a 00       		.byte	0
 6674 019b 1C       		.uleb128 0x1c
 6675 019c 0B       		.uleb128 0xb
 6676 019d 01       		.byte	0x1
 6677 019e 55       		.uleb128 0x55
 6678 019f 17       		.uleb128 0x17
 6679 01a0 00       		.byte	0
 6680 01a1 00       		.byte	0
 6681 01a2 1D       		.uleb128 0x1d
 6682 01a3 35       		.uleb128 0x35
 6683 01a4 00       		.byte	0
 6684 01a5 49       		.uleb128 0x49
 6685 01a6 13       		.uleb128 0x13
 6686 01a7 00       		.byte	0
 6687 01a8 00       		.byte	0
 6688 01a9 1E       		.uleb128 0x1e
 6689 01aa 16       		.uleb128 0x16
 6690 01ab 00       		.byte	0
 6691 01ac 03       		.uleb128 0x3
 6692 01ad 0E       		.uleb128 0xe
 6693 01ae 3A       		.uleb128 0x3a
 6694 01af 21       		.uleb128 0x21
 6695 01b0 04       		.sleb128 4
 6696 01b1 3B       		.uleb128 0x3b
 6697 01b2 05       		.uleb128 0x5
 6698 01b3 39       		.uleb128 0x39
 6699 01b4 21       		.uleb128 0x21
 6700 01b5 03       		.sleb128 3
 6701 01b6 49       		.uleb128 0x49
 6702 01b7 13       		.uleb128 0x13
 6703 01b8 00       		.byte	0
 6704 01b9 00       		.byte	0
 6705 01ba 1F       		.uleb128 0x1f
 6706 01bb 05       		.uleb128 0x5
 6707 01bc 00       		.byte	0
 6708 01bd 03       		.uleb128 0x3
 6709 01be 0E       		.uleb128 0xe
 6710 01bf 3A       		.uleb128 0x3a
 6711 01c0 21       		.uleb128 0x21
 6712 01c1 01       		.sleb128 1
 6713 01c2 3B       		.uleb128 0x3b
 6714 01c3 21       		.uleb128 0x21
 6715 01c4 DA05     		.sleb128 730
 6716 01c6 39       		.uleb128 0x39
 6717 01c7 0B       		.uleb128 0xb
 6718 01c8 49       		.uleb128 0x49
 6719 01c9 13       		.uleb128 0x13
 6720 01ca 02       		.uleb128 0x2
 6721 01cb 18       		.uleb128 0x18
 6722 01cc 00       		.byte	0
 6723 01cd 00       		.byte	0
 6724 01ce 20       		.uleb128 0x20
 6725 01cf 1D       		.uleb128 0x1d
 6726 01d0 01       		.byte	0x1
ARM GAS  C:\Users\DEVELO~1\AppData\Local\Temp\ccbkr0PB.s 			page 119


 6727 01d1 31       		.uleb128 0x31
 6728 01d2 13       		.uleb128 0x13
 6729 01d3 52       		.uleb128 0x52
 6730 01d4 01       		.uleb128 0x1
 6731 01d5 B842     		.uleb128 0x2138
 6732 01d7 05       		.uleb128 0x5
 6733 01d8 55       		.uleb128 0x55
 6734 01d9 17       		.uleb128 0x17
 6735 01da 58       		.uleb128 0x58
 6736 01db 21       		.uleb128 0x21
 6737 01dc 01       		.sleb128 1
 6738 01dd 59       		.uleb128 0x59
 6739 01de 05       		.uleb128 0x5
 6740 01df 57       		.uleb128 0x57
 6741 01e0 0B       		.uleb128 0xb
 6742 01e1 01       		.uleb128 0x1
 6743 01e2 13       		.uleb128 0x13
 6744 01e3 00       		.byte	0
 6745 01e4 00       		.byte	0
 6746 01e5 21       		.uleb128 0x21
 6747 01e6 34       		.uleb128 0x34
 6748 01e7 00       		.byte	0
 6749 01e8 31       		.uleb128 0x31
 6750 01e9 13       		.uleb128 0x13
 6751 01ea 02       		.uleb128 0x2
 6752 01eb 18       		.uleb128 0x18
 6753 01ec 00       		.byte	0
 6754 01ed 00       		.byte	0
 6755 01ee 22       		.uleb128 0x22
 6756 01ef 34       		.uleb128 0x34
 6757 01f0 00       		.byte	0
 6758 01f1 03       		.uleb128 0x3
 6759 01f2 0E       		.uleb128 0xe
 6760 01f3 3A       		.uleb128 0x3a
 6761 01f4 21       		.uleb128 0x21
 6762 01f5 01       		.sleb128 1
 6763 01f6 3B       		.uleb128 0x3b
 6764 01f7 0B       		.uleb128 0xb
 6765 01f8 39       		.uleb128 0x39
 6766 01f9 0B       		.uleb128 0xb
 6767 01fa 49       		.uleb128 0x49
 6768 01fb 13       		.uleb128 0x13
 6769 01fc 02       		.uleb128 0x2
 6770 01fd 17       		.uleb128 0x17
 6771 01fe B742     		.uleb128 0x2137
 6772 0200 17       		.uleb128 0x17
 6773 0201 00       		.byte	0
 6774 0202 00       		.byte	0
 6775 0203 23       		.uleb128 0x23
 6776 0204 0D       		.uleb128 0xd
 6777 0205 00       		.byte	0
 6778 0206 03       		.uleb128 0x3
 6779 0207 0E       		.uleb128 0xe
 6780 0208 3A       		.uleb128 0x3a
 6781 0209 21       		.uleb128 0x21
 6782 020a 04       		.sleb128 4
 6783 020b 3B       		.uleb128 0x3b
ARM GAS  C:\Users\DEVELO~1\AppData\Local\Temp\ccbkr0PB.s 			page 120


 6784 020c 05       		.uleb128 0x5
 6785 020d 39       		.uleb128 0x39
 6786 020e 21       		.uleb128 0x21
 6787 020f 11       		.sleb128 17
 6788 0210 49       		.uleb128 0x49
 6789 0211 13       		.uleb128 0x13
 6790 0212 38       		.uleb128 0x38
 6791 0213 05       		.uleb128 0x5
 6792 0214 00       		.byte	0
 6793 0215 00       		.byte	0
 6794 0216 24       		.uleb128 0x24
 6795 0217 26       		.uleb128 0x26
 6796 0218 00       		.byte	0
 6797 0219 49       		.uleb128 0x49
 6798 021a 13       		.uleb128 0x13
 6799 021b 00       		.byte	0
 6800 021c 00       		.byte	0
 6801 021d 25       		.uleb128 0x25
 6802 021e 13       		.uleb128 0x13
 6803 021f 01       		.byte	0x1
 6804 0220 0B       		.uleb128 0xb
 6805 0221 0B       		.uleb128 0xb
 6806 0222 3A       		.uleb128 0x3a
 6807 0223 21       		.uleb128 0x21
 6808 0224 04       		.sleb128 4
 6809 0225 3B       		.uleb128 0x3b
 6810 0226 05       		.uleb128 0x5
 6811 0227 39       		.uleb128 0x39
 6812 0228 21       		.uleb128 0x21
 6813 0229 09       		.sleb128 9
 6814 022a 01       		.uleb128 0x1
 6815 022b 13       		.uleb128 0x13
 6816 022c 00       		.byte	0
 6817 022d 00       		.byte	0
 6818 022e 26       		.uleb128 0x26
 6819 022f 13       		.uleb128 0x13
 6820 0230 01       		.byte	0x1
 6821 0231 0B       		.uleb128 0xb
 6822 0232 0B       		.uleb128 0xb
 6823 0233 3A       		.uleb128 0x3a
 6824 0234 21       		.uleb128 0x21
 6825 0235 06       		.sleb128 6
 6826 0236 3B       		.uleb128 0x3b
 6827 0237 0B       		.uleb128 0xb
 6828 0238 39       		.uleb128 0x39
 6829 0239 21       		.uleb128 0x21
 6830 023a 09       		.sleb128 9
 6831 023b 01       		.uleb128 0x1
 6832 023c 13       		.uleb128 0x13
 6833 023d 00       		.byte	0
 6834 023e 00       		.byte	0
 6835 023f 27       		.uleb128 0x27
 6836 0240 2E       		.uleb128 0x2e
 6837 0241 01       		.byte	0x1
 6838 0242 3F       		.uleb128 0x3f
 6839 0243 19       		.uleb128 0x19
 6840 0244 03       		.uleb128 0x3
ARM GAS  C:\Users\DEVELO~1\AppData\Local\Temp\ccbkr0PB.s 			page 121


 6841 0245 0E       		.uleb128 0xe
 6842 0246 3A       		.uleb128 0x3a
 6843 0247 21       		.uleb128 0x21
 6844 0248 01       		.sleb128 1
 6845 0249 3B       		.uleb128 0x3b
 6846 024a 0B       		.uleb128 0xb
 6847 024b 39       		.uleb128 0x39
 6848 024c 21       		.uleb128 0x21
 6849 024d 03       		.sleb128 3
 6850 024e 49       		.uleb128 0x49
 6851 024f 13       		.uleb128 0x13
 6852 0250 3C       		.uleb128 0x3c
 6853 0251 19       		.uleb128 0x19
 6854 0252 01       		.uleb128 0x1
 6855 0253 13       		.uleb128 0x13
 6856 0254 00       		.byte	0
 6857 0255 00       		.byte	0
 6858 0256 28       		.uleb128 0x28
 6859 0257 18       		.uleb128 0x18
 6860 0258 00       		.byte	0
 6861 0259 00       		.byte	0
 6862 025a 00       		.byte	0
 6863 025b 29       		.uleb128 0x29
 6864 025c 2E       		.uleb128 0x2e
 6865 025d 01       		.byte	0x1
 6866 025e 3F       		.uleb128 0x3f
 6867 025f 19       		.uleb128 0x19
 6868 0260 03       		.uleb128 0x3
 6869 0261 0E       		.uleb128 0xe
 6870 0262 3A       		.uleb128 0x3a
 6871 0263 21       		.uleb128 0x21
 6872 0264 01       		.sleb128 1
 6873 0265 3B       		.uleb128 0x3b
 6874 0266 05       		.uleb128 0x5
 6875 0267 39       		.uleb128 0x39
 6876 0268 0B       		.uleb128 0xb
 6877 0269 27       		.uleb128 0x27
 6878 026a 19       		.uleb128 0x19
 6879 026b 11       		.uleb128 0x11
 6880 026c 01       		.uleb128 0x1
 6881 026d 12       		.uleb128 0x12
 6882 026e 06       		.uleb128 0x6
 6883 026f 40       		.uleb128 0x40
 6884 0270 18       		.uleb128 0x18
 6885 0271 7A       		.uleb128 0x7a
 6886 0272 19       		.uleb128 0x19
 6887 0273 01       		.uleb128 0x1
 6888 0274 13       		.uleb128 0x13
 6889 0275 00       		.byte	0
 6890 0276 00       		.byte	0
 6891 0277 2A       		.uleb128 0x2a
 6892 0278 05       		.uleb128 0x5
 6893 0279 00       		.byte	0
 6894 027a 31       		.uleb128 0x31
 6895 027b 13       		.uleb128 0x13
 6896 027c 00       		.byte	0
 6897 027d 00       		.byte	0
ARM GAS  C:\Users\DEVELO~1\AppData\Local\Temp\ccbkr0PB.s 			page 122


 6898 027e 2B       		.uleb128 0x2b
 6899 027f 34       		.uleb128 0x34
 6900 0280 00       		.byte	0
 6901 0281 31       		.uleb128 0x31
 6902 0282 13       		.uleb128 0x13
 6903 0283 00       		.byte	0
 6904 0284 00       		.byte	0
 6905 0285 2C       		.uleb128 0x2c
 6906 0286 2E       		.uleb128 0x2e
 6907 0287 01       		.byte	0x1
 6908 0288 3F       		.uleb128 0x3f
 6909 0289 19       		.uleb128 0x19
 6910 028a 03       		.uleb128 0x3
 6911 028b 0E       		.uleb128 0xe
 6912 028c 3A       		.uleb128 0x3a
 6913 028d 21       		.uleb128 0x21
 6914 028e 01       		.sleb128 1
 6915 028f 3B       		.uleb128 0x3b
 6916 0290 0B       		.uleb128 0xb
 6917 0291 39       		.uleb128 0x39
 6918 0292 21       		.uleb128 0x21
 6919 0293 13       		.sleb128 19
 6920 0294 27       		.uleb128 0x27
 6921 0295 19       		.uleb128 0x19
 6922 0296 49       		.uleb128 0x49
 6923 0297 13       		.uleb128 0x13
 6924 0298 11       		.uleb128 0x11
 6925 0299 01       		.uleb128 0x1
 6926 029a 12       		.uleb128 0x12
 6927 029b 06       		.uleb128 0x6
 6928 029c 40       		.uleb128 0x40
 6929 029d 18       		.uleb128 0x18
 6930 029e 7A       		.uleb128 0x7a
 6931 029f 19       		.uleb128 0x19
 6932 02a0 01       		.uleb128 0x1
 6933 02a1 13       		.uleb128 0x13
 6934 02a2 00       		.byte	0
 6935 02a3 00       		.byte	0
 6936 02a4 2D       		.uleb128 0x2d
 6937 02a5 11       		.uleb128 0x11
 6938 02a6 01       		.byte	0x1
 6939 02a7 25       		.uleb128 0x25
 6940 02a8 0E       		.uleb128 0xe
 6941 02a9 13       		.uleb128 0x13
 6942 02aa 0B       		.uleb128 0xb
 6943 02ab 03       		.uleb128 0x3
 6944 02ac 0E       		.uleb128 0xe
 6945 02ad 1B       		.uleb128 0x1b
 6946 02ae 0E       		.uleb128 0xe
 6947 02af 55       		.uleb128 0x55
 6948 02b0 17       		.uleb128 0x17
 6949 02b1 11       		.uleb128 0x11
 6950 02b2 01       		.uleb128 0x1
 6951 02b3 10       		.uleb128 0x10
 6952 02b4 17       		.uleb128 0x17
 6953 02b5 00       		.byte	0
 6954 02b6 00       		.byte	0
ARM GAS  C:\Users\DEVELO~1\AppData\Local\Temp\ccbkr0PB.s 			page 123


 6955 02b7 2E       		.uleb128 0x2e
 6956 02b8 24       		.uleb128 0x24
 6957 02b9 00       		.byte	0
 6958 02ba 0B       		.uleb128 0xb
 6959 02bb 0B       		.uleb128 0xb
 6960 02bc 3E       		.uleb128 0x3e
 6961 02bd 0B       		.uleb128 0xb
 6962 02be 03       		.uleb128 0x3
 6963 02bf 08       		.uleb128 0x8
 6964 02c0 00       		.byte	0
 6965 02c1 00       		.byte	0
 6966 02c2 2F       		.uleb128 0x2f
 6967 02c3 13       		.uleb128 0x13
 6968 02c4 01       		.byte	0x1
 6969 02c5 0B       		.uleb128 0xb
 6970 02c6 05       		.uleb128 0x5
 6971 02c7 3A       		.uleb128 0x3a
 6972 02c8 0B       		.uleb128 0xb
 6973 02c9 3B       		.uleb128 0x3b
 6974 02ca 05       		.uleb128 0x5
 6975 02cb 39       		.uleb128 0x39
 6976 02cc 0B       		.uleb128 0xb
 6977 02cd 01       		.uleb128 0x1
 6978 02ce 13       		.uleb128 0x13
 6979 02cf 00       		.byte	0
 6980 02d0 00       		.byte	0
 6981 02d1 30       		.uleb128 0x30
 6982 02d2 0D       		.uleb128 0xd
 6983 02d3 00       		.byte	0
 6984 02d4 03       		.uleb128 0x3
 6985 02d5 08       		.uleb128 0x8
 6986 02d6 3A       		.uleb128 0x3a
 6987 02d7 0B       		.uleb128 0xb
 6988 02d8 3B       		.uleb128 0x3b
 6989 02d9 05       		.uleb128 0x5
 6990 02da 39       		.uleb128 0x39
 6991 02db 0B       		.uleb128 0xb
 6992 02dc 49       		.uleb128 0x49
 6993 02dd 13       		.uleb128 0x13
 6994 02de 38       		.uleb128 0x38
 6995 02df 0B       		.uleb128 0xb
 6996 02e0 00       		.byte	0
 6997 02e1 00       		.byte	0
 6998 02e2 31       		.uleb128 0x31
 6999 02e3 0F       		.uleb128 0xf
 7000 02e4 00       		.byte	0
 7001 02e5 0B       		.uleb128 0xb
 7002 02e6 0B       		.uleb128 0xb
 7003 02e7 00       		.byte	0
 7004 02e8 00       		.byte	0
 7005 02e9 32       		.uleb128 0x32
 7006 02ea 13       		.uleb128 0x13
 7007 02eb 01       		.byte	0x1
 7008 02ec 0B       		.uleb128 0xb
 7009 02ed 05       		.uleb128 0x5
 7010 02ee 3A       		.uleb128 0x3a
 7011 02ef 0B       		.uleb128 0xb
ARM GAS  C:\Users\DEVELO~1\AppData\Local\Temp\ccbkr0PB.s 			page 124


 7012 02f0 3B       		.uleb128 0x3b
 7013 02f1 0B       		.uleb128 0xb
 7014 02f2 39       		.uleb128 0x39
 7015 02f3 0B       		.uleb128 0xb
 7016 02f4 01       		.uleb128 0x1
 7017 02f5 13       		.uleb128 0x13
 7018 02f6 00       		.byte	0
 7019 02f7 00       		.byte	0
 7020 02f8 33       		.uleb128 0x33
 7021 02f9 0D       		.uleb128 0xd
 7022 02fa 00       		.byte	0
 7023 02fb 03       		.uleb128 0x3
 7024 02fc 08       		.uleb128 0x8
 7025 02fd 3A       		.uleb128 0x3a
 7026 02fe 0B       		.uleb128 0xb
 7027 02ff 3B       		.uleb128 0x3b
 7028 0300 0B       		.uleb128 0xb
 7029 0301 39       		.uleb128 0x39
 7030 0302 0B       		.uleb128 0xb
 7031 0303 49       		.uleb128 0x49
 7032 0304 13       		.uleb128 0x13
 7033 0305 38       		.uleb128 0x38
 7034 0306 0B       		.uleb128 0xb
 7035 0307 00       		.byte	0
 7036 0308 00       		.byte	0
 7037 0309 34       		.uleb128 0x34
 7038 030a 2E       		.uleb128 0x2e
 7039 030b 01       		.byte	0x1
 7040 030c 3F       		.uleb128 0x3f
 7041 030d 19       		.uleb128 0x19
 7042 030e 03       		.uleb128 0x3
 7043 030f 0E       		.uleb128 0xe
 7044 0310 3A       		.uleb128 0x3a
 7045 0311 0B       		.uleb128 0xb
 7046 0312 3B       		.uleb128 0x3b
 7047 0313 05       		.uleb128 0x5
 7048 0314 39       		.uleb128 0x39
 7049 0315 0B       		.uleb128 0xb
 7050 0316 27       		.uleb128 0x27
 7051 0317 19       		.uleb128 0x19
 7052 0318 49       		.uleb128 0x49
 7053 0319 13       		.uleb128 0x13
 7054 031a 20       		.uleb128 0x20
 7055 031b 0B       		.uleb128 0xb
 7056 031c 01       		.uleb128 0x1
 7057 031d 13       		.uleb128 0x13
 7058 031e 00       		.byte	0
 7059 031f 00       		.byte	0
 7060 0320 35       		.uleb128 0x35
 7061 0321 34       		.uleb128 0x34
 7062 0322 00       		.byte	0
 7063 0323 03       		.uleb128 0x3
 7064 0324 08       		.uleb128 0x8
 7065 0325 3A       		.uleb128 0x3a
 7066 0326 0B       		.uleb128 0xb
 7067 0327 3B       		.uleb128 0x3b
 7068 0328 05       		.uleb128 0x5
ARM GAS  C:\Users\DEVELO~1\AppData\Local\Temp\ccbkr0PB.s 			page 125


 7069 0329 39       		.uleb128 0x39
 7070 032a 0B       		.uleb128 0xb
 7071 032b 49       		.uleb128 0x49
 7072 032c 13       		.uleb128 0x13
 7073 032d 02       		.uleb128 0x2
 7074 032e 17       		.uleb128 0x17
 7075 032f B742     		.uleb128 0x2137
 7076 0331 17       		.uleb128 0x17
 7077 0332 00       		.byte	0
 7078 0333 00       		.byte	0
 7079 0334 36       		.uleb128 0x36
 7080 0335 1D       		.uleb128 0x1d
 7081 0336 01       		.byte	0x1
 7082 0337 31       		.uleb128 0x31
 7083 0338 13       		.uleb128 0x13
 7084 0339 55       		.uleb128 0x55
 7085 033a 17       		.uleb128 0x17
 7086 033b 58       		.uleb128 0x58
 7087 033c 0B       		.uleb128 0xb
 7088 033d 59       		.uleb128 0x59
 7089 033e 05       		.uleb128 0x5
 7090 033f 57       		.uleb128 0x57
 7091 0340 0B       		.uleb128 0xb
 7092 0341 01       		.uleb128 0x1
 7093 0342 13       		.uleb128 0x13
 7094 0343 00       		.byte	0
 7095 0344 00       		.byte	0
 7096 0345 37       		.uleb128 0x37
 7097 0346 2E       		.uleb128 0x2e
 7098 0347 01       		.byte	0x1
 7099 0348 3F       		.uleb128 0x3f
 7100 0349 19       		.uleb128 0x19
 7101 034a 03       		.uleb128 0x3
 7102 034b 0E       		.uleb128 0xe
 7103 034c 3A       		.uleb128 0x3a
 7104 034d 0B       		.uleb128 0xb
 7105 034e 3B       		.uleb128 0x3b
 7106 034f 05       		.uleb128 0x5
 7107 0350 39       		.uleb128 0x39
 7108 0351 0B       		.uleb128 0xb
 7109 0352 27       		.uleb128 0x27
 7110 0353 19       		.uleb128 0x19
 7111 0354 20       		.uleb128 0x20
 7112 0355 0B       		.uleb128 0xb
 7113 0356 01       		.uleb128 0x1
 7114 0357 13       		.uleb128 0x13
 7115 0358 00       		.byte	0
 7116 0359 00       		.byte	0
 7117 035a 38       		.uleb128 0x38
 7118 035b 34       		.uleb128 0x34
 7119 035c 00       		.byte	0
 7120 035d 03       		.uleb128 0x3
 7121 035e 0E       		.uleb128 0xe
 7122 035f 3A       		.uleb128 0x3a
 7123 0360 0B       		.uleb128 0xb
 7124 0361 3B       		.uleb128 0x3b
 7125 0362 05       		.uleb128 0x5
ARM GAS  C:\Users\DEVELO~1\AppData\Local\Temp\ccbkr0PB.s 			page 126


 7126 0363 39       		.uleb128 0x39
 7127 0364 0B       		.uleb128 0xb
 7128 0365 49       		.uleb128 0x49
 7129 0366 13       		.uleb128 0x13
 7130 0367 1C       		.uleb128 0x1c
 7131 0368 0B       		.uleb128 0xb
 7132 0369 00       		.byte	0
 7133 036a 00       		.byte	0
 7134 036b 39       		.uleb128 0x39
 7135 036c 05       		.uleb128 0x5
 7136 036d 00       		.byte	0
 7137 036e 03       		.uleb128 0x3
 7138 036f 08       		.uleb128 0x8
 7139 0370 3A       		.uleb128 0x3a
 7140 0371 0B       		.uleb128 0xb
 7141 0372 3B       		.uleb128 0x3b
 7142 0373 0B       		.uleb128 0xb
 7143 0374 39       		.uleb128 0x39
 7144 0375 0B       		.uleb128 0xb
 7145 0376 49       		.uleb128 0x49
 7146 0377 13       		.uleb128 0x13
 7147 0378 02       		.uleb128 0x2
 7148 0379 17       		.uleb128 0x17
 7149 037a B742     		.uleb128 0x2137
 7150 037c 17       		.uleb128 0x17
 7151 037d 00       		.byte	0
 7152 037e 00       		.byte	0
 7153 037f 3A       		.uleb128 0x3a
 7154 0380 1D       		.uleb128 0x1d
 7155 0381 01       		.byte	0x1
 7156 0382 31       		.uleb128 0x31
 7157 0383 13       		.uleb128 0x13
 7158 0384 52       		.uleb128 0x52
 7159 0385 01       		.uleb128 0x1
 7160 0386 B842     		.uleb128 0x2138
 7161 0388 05       		.uleb128 0x5
 7162 0389 55       		.uleb128 0x55
 7163 038a 17       		.uleb128 0x17
 7164 038b 58       		.uleb128 0x58
 7165 038c 0B       		.uleb128 0xb
 7166 038d 59       		.uleb128 0x59
 7167 038e 0B       		.uleb128 0xb
 7168 038f 57       		.uleb128 0x57
 7169 0390 0B       		.uleb128 0xb
 7170 0391 01       		.uleb128 0x1
 7171 0392 13       		.uleb128 0x13
 7172 0393 00       		.byte	0
 7173 0394 00       		.byte	0
 7174 0395 3B       		.uleb128 0x3b
 7175 0396 2E       		.uleb128 0x2e
 7176 0397 01       		.byte	0x1
 7177 0398 31       		.uleb128 0x31
 7178 0399 13       		.uleb128 0x13
 7179 039a 11       		.uleb128 0x11
 7180 039b 01       		.uleb128 0x1
 7181 039c 12       		.uleb128 0x12
 7182 039d 06       		.uleb128 0x6
ARM GAS  C:\Users\DEVELO~1\AppData\Local\Temp\ccbkr0PB.s 			page 127


 7183 039e 40       		.uleb128 0x40
 7184 039f 18       		.uleb128 0x18
 7185 03a0 7A       		.uleb128 0x7a
 7186 03a1 19       		.uleb128 0x19
 7187 03a2 01       		.uleb128 0x1
 7188 03a3 13       		.uleb128 0x13
 7189 03a4 00       		.byte	0
 7190 03a5 00       		.byte	0
 7191 03a6 3C       		.uleb128 0x3c
 7192 03a7 05       		.uleb128 0x5
 7193 03a8 00       		.byte	0
 7194 03a9 31       		.uleb128 0x31
 7195 03aa 13       		.uleb128 0x13
 7196 03ab 02       		.uleb128 0x2
 7197 03ac 18       		.uleb128 0x18
 7198 03ad 00       		.byte	0
 7199 03ae 00       		.byte	0
 7200 03af 3D       		.uleb128 0x3d
 7201 03b0 2E       		.uleb128 0x2e
 7202 03b1 01       		.byte	0x1
 7203 03b2 31       		.uleb128 0x31
 7204 03b3 13       		.uleb128 0x13
 7205 03b4 11       		.uleb128 0x11
 7206 03b5 01       		.uleb128 0x1
 7207 03b6 12       		.uleb128 0x12
 7208 03b7 06       		.uleb128 0x6
 7209 03b8 40       		.uleb128 0x40
 7210 03b9 18       		.uleb128 0x18
 7211 03ba 7A       		.uleb128 0x7a
 7212 03bb 19       		.uleb128 0x19
 7213 03bc 00       		.byte	0
 7214 03bd 00       		.byte	0
 7215 03be 00       		.byte	0
 7216              		.section	.debug_loclists,"",%progbits
 7217 0000 3E0B0000 		.4byte	.Ldebug_loc3-.Ldebug_loc2
 7218              	.Ldebug_loc2:
 7219 0004 0500     		.2byte	0x5
 7220 0006 04       		.byte	0x4
 7221 0007 00       		.byte	0
 7222 0008 00000000 		.4byte	0
 7223              	.Ldebug_loc0:
 7224              	.LVUS64:
 7225 000c 00       		.uleb128 0
 7226 000d 00       		.uleb128 .LVU1069
 7227 000e 00       		.uleb128 .LVU1069
 7228 000f 00       		.uleb128 .LVU1079
 7229 0010 00       		.uleb128 .LVU1079
 7230 0011 00       		.uleb128 .LVU1084
 7231 0012 00       		.uleb128 .LVU1084
 7232 0013 00       		.uleb128 0
 7233              	.LLST64:
 7234 0014 06       		.byte	0x6
 7235 0015 00000000 		.4byte	.LVL255
 7236 0019 04       		.byte	0x4
 7237 001a 00       		.uleb128 .LVL255-.LVL255
 7238 001b 08       		.uleb128 .LVL256-.LVL255
 7239 001c 01       		.uleb128 0x1
ARM GAS  C:\Users\DEVELO~1\AppData\Local\Temp\ccbkr0PB.s 			page 128


 7240 001d 50       		.byte	0x50
 7241 001e 04       		.byte	0x4
 7242 001f 08       		.uleb128 .LVL256-.LVL255
 7243 0020 28       		.uleb128 .LVL259-.LVL255
 7244 0021 01       		.uleb128 0x1
 7245 0022 54       		.byte	0x54
 7246 0023 04       		.byte	0x4
 7247 0024 28       		.uleb128 .LVL259-.LVL255
 7248 0025 32       		.uleb128 .LVL260-.LVL255
 7249 0026 04       		.uleb128 0x4
 7250 0027 A3       		.byte	0xa3
 7251 0028 01       		.uleb128 0x1
 7252 0029 50       		.byte	0x50
 7253 002a 9F       		.byte	0x9f
 7254 002b 04       		.byte	0x4
 7255 002c 32       		.uleb128 .LVL260-.LVL255
 7256 002d 4A       		.uleb128 .LFE164-.LVL255
 7257 002e 01       		.uleb128 0x1
 7258 002f 54       		.byte	0x54
 7259 0030 00       		.byte	0
 7260              	.LVUS65:
 7261 0031 00       		.uleb128 0
 7262 0032 00       		.uleb128 .LVU1071
 7263 0033 00       		.uleb128 .LVU1071
 7264 0034 00       		.uleb128 0
 7265              	.LLST65:
 7266 0035 06       		.byte	0x6
 7267 0036 00000000 		.4byte	.LVL255
 7268 003a 04       		.byte	0x4
 7269 003b 00       		.uleb128 .LVL255-.LVL255
 7270 003c 0F       		.uleb128 .LVL257-1-.LVL255
 7271 003d 01       		.uleb128 0x1
 7272 003e 51       		.byte	0x51
 7273 003f 04       		.byte	0x4
 7274 0040 0F       		.uleb128 .LVL257-1-.LVL255
 7275 0041 4A       		.uleb128 .LFE164-.LVL255
 7276 0042 04       		.uleb128 0x4
 7277 0043 A3       		.byte	0xa3
 7278 0044 01       		.uleb128 0x1
 7279 0045 51       		.byte	0x51
 7280 0046 9F       		.byte	0x9f
 7281 0047 00       		.byte	0
 7282              	.LVUS66:
 7283 0048 00       		.uleb128 0
 7284 0049 00       		.uleb128 .LVU1071
 7285 004a 00       		.uleb128 .LVU1071
 7286 004b 00       		.uleb128 0
 7287              	.LLST66:
 7288 004c 06       		.byte	0x6
 7289 004d 00000000 		.4byte	.LVL255
 7290 0051 04       		.byte	0x4
 7291 0052 00       		.uleb128 .LVL255-.LVL255
 7292 0053 0F       		.uleb128 .LVL257-1-.LVL255
 7293 0054 01       		.uleb128 0x1
 7294 0055 52       		.byte	0x52
 7295 0056 04       		.byte	0x4
 7296 0057 0F       		.uleb128 .LVL257-1-.LVL255
ARM GAS  C:\Users\DEVELO~1\AppData\Local\Temp\ccbkr0PB.s 			page 129


 7297 0058 4A       		.uleb128 .LFE164-.LVL255
 7298 0059 04       		.uleb128 0x4
 7299 005a A3       		.byte	0xa3
 7300 005b 01       		.uleb128 0x1
 7301 005c 52       		.byte	0x52
 7302 005d 9F       		.byte	0x9f
 7303 005e 00       		.byte	0
 7304              	.LVUS67:
 7305 005f 00       		.uleb128 0
 7306 0060 00       		.uleb128 .LVU1071
 7307 0061 00       		.uleb128 .LVU1071
 7308 0062 00       		.uleb128 0
 7309              	.LLST67:
 7310 0063 06       		.byte	0x6
 7311 0064 00000000 		.4byte	.LVL255
 7312 0068 04       		.byte	0x4
 7313 0069 00       		.uleb128 .LVL255-.LVL255
 7314 006a 0F       		.uleb128 .LVL257-1-.LVL255
 7315 006b 01       		.uleb128 0x1
 7316 006c 53       		.byte	0x53
 7317 006d 04       		.byte	0x4
 7318 006e 0F       		.uleb128 .LVL257-1-.LVL255
 7319 006f 4A       		.uleb128 .LFE164-.LVL255
 7320 0070 04       		.uleb128 0x4
 7321 0071 A3       		.byte	0xa3
 7322 0072 01       		.uleb128 0x1
 7323 0073 53       		.byte	0x53
 7324 0074 9F       		.byte	0x9f
 7325 0075 00       		.byte	0
 7326              	.LVUS68:
 7327 0076 00       		.uleb128 .LVU1071
 7328 0077 00       		.uleb128 .LVU1075
 7329 0078 00       		.uleb128 .LVU1084
 7330 0079 00       		.uleb128 .LVU1087
 7331              	.LLST68:
 7332 007a 06       		.byte	0x6
 7333 007b 10000000 		.4byte	.LVL257
 7334 007f 04       		.byte	0x4
 7335 0080 00       		.uleb128 .LVL257-.LVL257
 7336 0081 10       		.uleb128 .LVL258-.LVL257
 7337 0082 01       		.uleb128 0x1
 7338 0083 50       		.byte	0x50
 7339 0084 04       		.byte	0x4
 7340 0085 22       		.uleb128 .LVL260-.LVL257
 7341 0086 28       		.uleb128 .LVL261-.LVL257
 7342 0087 01       		.uleb128 0x1
 7343 0088 50       		.byte	0x50
 7344 0089 00       		.byte	0
 7345              	.LVUS63:
 7346 008a 00       		.uleb128 0
 7347 008b 00       		.uleb128 .LVU1063
 7348 008c 00       		.uleb128 .LVU1063
 7349 008d 00       		.uleb128 0
 7350              	.LLST63:
 7351 008e 06       		.byte	0x6
 7352 008f 00000000 		.4byte	.LVL252
 7353 0093 04       		.byte	0x4
ARM GAS  C:\Users\DEVELO~1\AppData\Local\Temp\ccbkr0PB.s 			page 130


 7354 0094 00       		.uleb128 .LVL252-.LVL252
 7355 0095 02       		.uleb128 .LVL253-.LVL252
 7356 0096 01       		.uleb128 0x1
 7357 0097 50       		.byte	0x50
 7358 0098 04       		.byte	0x4
 7359 0099 02       		.uleb128 .LVL253-.LVL252
 7360 009a 06       		.uleb128 .LFE163-.LVL252
 7361 009b 04       		.uleb128 0x4
 7362 009c A3       		.byte	0xa3
 7363 009d 01       		.uleb128 0x1
 7364 009e 50       		.byte	0x50
 7365 009f 9F       		.byte	0x9f
 7366 00a0 00       		.byte	0
 7367              	.LVUS62:
 7368 00a1 00       		.uleb128 0
 7369 00a2 00       		.uleb128 .LVU1059
 7370 00a3 00       		.uleb128 .LVU1059
 7371 00a4 00       		.uleb128 0
 7372              	.LLST62:
 7373 00a5 06       		.byte	0x6
 7374 00a6 00000000 		.4byte	.LVL249
 7375 00aa 04       		.byte	0x4
 7376 00ab 00       		.uleb128 .LVL249-.LVL249
 7377 00ac 02       		.uleb128 .LVL250-.LVL249
 7378 00ad 01       		.uleb128 0x1
 7379 00ae 50       		.byte	0x50
 7380 00af 04       		.byte	0x4
 7381 00b0 02       		.uleb128 .LVL250-.LVL249
 7382 00b1 06       		.uleb128 .LFE162-.LVL249
 7383 00b2 04       		.uleb128 0x4
 7384 00b3 A3       		.byte	0xa3
 7385 00b4 01       		.uleb128 0x1
 7386 00b5 50       		.byte	0x50
 7387 00b6 9F       		.byte	0x9f
 7388 00b7 00       		.byte	0
 7389              	.LVUS60:
 7390 00b8 00       		.uleb128 0
 7391 00b9 00       		.uleb128 .LVU1055
 7392 00ba 00       		.uleb128 .LVU1055
 7393 00bb 00       		.uleb128 0
 7394              	.LLST60:
 7395 00bc 06       		.byte	0x6
 7396 00bd 00000000 		.4byte	.LVL246
 7397 00c1 04       		.byte	0x4
 7398 00c2 00       		.uleb128 .LVL246-.LVL246
 7399 00c3 08       		.uleb128 .LVL248-.LVL246
 7400 00c4 01       		.uleb128 0x1
 7401 00c5 50       		.byte	0x50
 7402 00c6 04       		.byte	0x4
 7403 00c7 08       		.uleb128 .LVL248-.LVL246
 7404 00c8 0E       		.uleb128 .LFE161-.LVL246
 7405 00c9 04       		.uleb128 0x4
 7406 00ca A3       		.byte	0xa3
 7407 00cb 01       		.uleb128 0x1
 7408 00cc 50       		.byte	0x50
 7409 00cd 9F       		.byte	0x9f
 7410 00ce 00       		.byte	0
ARM GAS  C:\Users\DEVELO~1\AppData\Local\Temp\ccbkr0PB.s 			page 131


 7411              	.LVUS61:
 7412 00cf 00       		.uleb128 0
 7413 00d0 00       		.uleb128 .LVU1054
 7414 00d1 00       		.uleb128 .LVU1054
 7415 00d2 00       		.uleb128 0
 7416              	.LLST61:
 7417 00d3 06       		.byte	0x6
 7418 00d4 00000000 		.4byte	.LVL246
 7419 00d8 04       		.byte	0x4
 7420 00d9 00       		.uleb128 .LVL246-.LVL246
 7421 00da 04       		.uleb128 .LVL247-.LVL246
 7422 00db 01       		.uleb128 0x1
 7423 00dc 51       		.byte	0x51
 7424 00dd 04       		.byte	0x4
 7425 00de 04       		.uleb128 .LVL247-.LVL246
 7426 00df 0E       		.uleb128 .LFE161-.LVL246
 7427 00e0 04       		.uleb128 0x4
 7428 00e1 A3       		.byte	0xa3
 7429 00e2 01       		.uleb128 0x1
 7430 00e3 51       		.byte	0x51
 7431 00e4 9F       		.byte	0x9f
 7432 00e5 00       		.byte	0
 7433              	.LVUS58:
 7434 00e6 00       		.uleb128 0
 7435 00e7 00       		.uleb128 .LVU1050
 7436 00e8 00       		.uleb128 .LVU1050
 7437 00e9 00       		.uleb128 0
 7438              	.LLST58:
 7439 00ea 06       		.byte	0x6
 7440 00eb 00000000 		.4byte	.LVL243
 7441 00ef 04       		.byte	0x4
 7442 00f0 00       		.uleb128 .LVL243-.LVL243
 7443 00f1 08       		.uleb128 .LVL245-.LVL243
 7444 00f2 01       		.uleb128 0x1
 7445 00f3 50       		.byte	0x50
 7446 00f4 04       		.byte	0x4
 7447 00f5 08       		.uleb128 .LVL245-.LVL243
 7448 00f6 0C       		.uleb128 .LFE160-.LVL243
 7449 00f7 04       		.uleb128 0x4
 7450 00f8 A3       		.byte	0xa3
 7451 00f9 01       		.uleb128 0x1
 7452 00fa 50       		.byte	0x50
 7453 00fb 9F       		.byte	0x9f
 7454 00fc 00       		.byte	0
 7455              	.LVUS59:
 7456 00fd 00       		.uleb128 0
 7457 00fe 00       		.uleb128 .LVU1049
 7458 00ff 00       		.uleb128 .LVU1049
 7459 0100 00       		.uleb128 0
 7460              	.LLST59:
 7461 0101 06       		.byte	0x6
 7462 0102 00000000 		.4byte	.LVL243
 7463 0106 04       		.byte	0x4
 7464 0107 00       		.uleb128 .LVL243-.LVL243
 7465 0108 04       		.uleb128 .LVL244-.LVL243
 7466 0109 01       		.uleb128 0x1
 7467 010a 51       		.byte	0x51
ARM GAS  C:\Users\DEVELO~1\AppData\Local\Temp\ccbkr0PB.s 			page 132


 7468 010b 04       		.byte	0x4
 7469 010c 04       		.uleb128 .LVL244-.LVL243
 7470 010d 0C       		.uleb128 .LFE160-.LVL243
 7471 010e 04       		.uleb128 0x4
 7472 010f A3       		.byte	0xa3
 7473 0110 01       		.uleb128 0x1
 7474 0111 51       		.byte	0x51
 7475 0112 9F       		.byte	0x9f
 7476 0113 00       		.byte	0
 7477              	.LVUS56:
 7478 0114 00       		.uleb128 0
 7479 0115 00       		.uleb128 .LVU1045
 7480 0116 00       		.uleb128 .LVU1045
 7481 0117 00       		.uleb128 0
 7482              	.LLST56:
 7483 0118 06       		.byte	0x6
 7484 0119 00000000 		.4byte	.LVL240
 7485 011d 04       		.byte	0x4
 7486 011e 00       		.uleb128 .LVL240-.LVL240
 7487 011f 08       		.uleb128 .LVL242-.LVL240
 7488 0120 01       		.uleb128 0x1
 7489 0121 50       		.byte	0x50
 7490 0122 04       		.byte	0x4
 7491 0123 08       		.uleb128 .LVL242-.LVL240
 7492 0124 0E       		.uleb128 .LFE159-.LVL240
 7493 0125 04       		.uleb128 0x4
 7494 0126 A3       		.byte	0xa3
 7495 0127 01       		.uleb128 0x1
 7496 0128 50       		.byte	0x50
 7497 0129 9F       		.byte	0x9f
 7498 012a 00       		.byte	0
 7499              	.LVUS57:
 7500 012b 00       		.uleb128 0
 7501 012c 00       		.uleb128 .LVU1044
 7502 012d 00       		.uleb128 .LVU1044
 7503 012e 00       		.uleb128 0
 7504              	.LLST57:
 7505 012f 06       		.byte	0x6
 7506 0130 00000000 		.4byte	.LVL240
 7507 0134 04       		.byte	0x4
 7508 0135 00       		.uleb128 .LVL240-.LVL240
 7509 0136 04       		.uleb128 .LVL241-.LVL240
 7510 0137 01       		.uleb128 0x1
 7511 0138 51       		.byte	0x51
 7512 0139 04       		.byte	0x4
 7513 013a 04       		.uleb128 .LVL241-.LVL240
 7514 013b 0E       		.uleb128 .LFE159-.LVL240
 7515 013c 04       		.uleb128 0x4
 7516 013d A3       		.byte	0xa3
 7517 013e 01       		.uleb128 0x1
 7518 013f 51       		.byte	0x51
 7519 0140 9F       		.byte	0x9f
 7520 0141 00       		.byte	0
 7521              	.LVUS55:
 7522 0142 00       		.uleb128 0
 7523 0143 00       		.uleb128 .LVU1040
 7524 0144 00       		.uleb128 .LVU1040
ARM GAS  C:\Users\DEVELO~1\AppData\Local\Temp\ccbkr0PB.s 			page 133


 7525 0145 00       		.uleb128 0
 7526              	.LLST55:
 7527 0146 06       		.byte	0x6
 7528 0147 00000000 		.4byte	.LVL238
 7529 014b 04       		.byte	0x4
 7530 014c 00       		.uleb128 .LVL238-.LVL238
 7531 014d 04       		.uleb128 .LVL239-.LVL238
 7532 014e 01       		.uleb128 0x1
 7533 014f 50       		.byte	0x50
 7534 0150 04       		.byte	0x4
 7535 0151 04       		.uleb128 .LVL239-.LVL238
 7536 0152 06       		.uleb128 .LFE158-.LVL238
 7537 0153 04       		.uleb128 0x4
 7538 0154 A3       		.byte	0xa3
 7539 0155 01       		.uleb128 0x1
 7540 0156 50       		.byte	0x50
 7541 0157 9F       		.byte	0x9f
 7542 0158 00       		.byte	0
 7543              	.LVUS54:
 7544 0159 00       		.uleb128 0
 7545 015a 00       		.uleb128 .LVU1036
 7546 015b 00       		.uleb128 .LVU1036
 7547 015c 00       		.uleb128 0
 7548              	.LLST54:
 7549 015d 06       		.byte	0x6
 7550 015e 00000000 		.4byte	.LVL235
 7551 0162 04       		.byte	0x4
 7552 0163 00       		.uleb128 .LVL235-.LVL235
 7553 0164 02       		.uleb128 .LVL236-.LVL235
 7554 0165 01       		.uleb128 0x1
 7555 0166 50       		.byte	0x50
 7556 0167 04       		.byte	0x4
 7557 0168 02       		.uleb128 .LVL236-.LVL235
 7558 0169 06       		.uleb128 .LFE157-.LVL235
 7559 016a 04       		.uleb128 0x4
 7560 016b A3       		.byte	0xa3
 7561 016c 01       		.uleb128 0x1
 7562 016d 50       		.byte	0x50
 7563 016e 9F       		.byte	0x9f
 7564 016f 00       		.byte	0
 7565              	.LVUS53:
 7566 0170 00       		.uleb128 0
 7567 0171 00       		.uleb128 .LVU1020
 7568 0172 00       		.uleb128 .LVU1020
 7569 0173 00       		.uleb128 .LVU1031
 7570 0174 00       		.uleb128 .LVU1031
 7571 0175 00       		.uleb128 .LVU1032
 7572 0176 00       		.uleb128 .LVU1032
 7573 0177 00       		.uleb128 0
 7574              	.LLST53:
 7575 0178 06       		.byte	0x6
 7576 0179 00000000 		.4byte	.LVL230
 7577 017d 04       		.byte	0x4
 7578 017e 00       		.uleb128 .LVL230-.LVL230
 7579 017f 10       		.uleb128 .LVL231-.LVL230
 7580 0180 01       		.uleb128 0x1
 7581 0181 50       		.byte	0x50
ARM GAS  C:\Users\DEVELO~1\AppData\Local\Temp\ccbkr0PB.s 			page 134


 7582 0182 04       		.byte	0x4
 7583 0183 10       		.uleb128 .LVL231-.LVL230
 7584 0184 22       		.uleb128 .LVL233-.LVL230
 7585 0185 01       		.uleb128 0x1
 7586 0186 54       		.byte	0x54
 7587 0187 04       		.byte	0x4
 7588 0188 22       		.uleb128 .LVL233-.LVL230
 7589 0189 24       		.uleb128 .LVL234-.LVL230
 7590 018a 01       		.uleb128 0x1
 7591 018b 50       		.byte	0x50
 7592 018c 04       		.byte	0x4
 7593 018d 24       		.uleb128 .LVL234-.LVL230
 7594 018e 26       		.uleb128 .LFE156-.LVL230
 7595 018f 04       		.uleb128 0x4
 7596 0190 A3       		.byte	0xa3
 7597 0191 01       		.uleb128 0x1
 7598 0192 50       		.byte	0x50
 7599 0193 9F       		.byte	0x9f
 7600 0194 00       		.byte	0
 7601              	.LVUS52:
 7602 0195 00       		.uleb128 0
 7603 0196 00       		.uleb128 .LVU1000
 7604 0197 00       		.uleb128 .LVU1000
 7605 0198 00       		.uleb128 .LVU1012
 7606 0199 00       		.uleb128 .LVU1012
 7607 019a 00       		.uleb128 .LVU1013
 7608 019b 00       		.uleb128 .LVU1013
 7609 019c 00       		.uleb128 0
 7610              	.LLST52:
 7611 019d 06       		.byte	0x6
 7612 019e 00000000 		.4byte	.LVL224
 7613 01a2 04       		.byte	0x4
 7614 01a3 00       		.uleb128 .LVL224-.LVL224
 7615 01a4 10       		.uleb128 .LVL225-.LVL224
 7616 01a5 01       		.uleb128 0x1
 7617 01a6 50       		.byte	0x50
 7618 01a7 04       		.byte	0x4
 7619 01a8 10       		.uleb128 .LVL225-.LVL224
 7620 01a9 28       		.uleb128 .LVL228-.LVL224
 7621 01aa 01       		.uleb128 0x1
 7622 01ab 54       		.byte	0x54
 7623 01ac 04       		.byte	0x4
 7624 01ad 28       		.uleb128 .LVL228-.LVL224
 7625 01ae 2A       		.uleb128 .LVL229-.LVL224
 7626 01af 01       		.uleb128 0x1
 7627 01b0 50       		.byte	0x50
 7628 01b1 04       		.byte	0x4
 7629 01b2 2A       		.uleb128 .LVL229-.LVL224
 7630 01b3 2C       		.uleb128 .LFE155-.LVL224
 7631 01b4 04       		.uleb128 0x4
 7632 01b5 A3       		.byte	0xa3
 7633 01b6 01       		.uleb128 0x1
 7634 01b7 50       		.byte	0x50
 7635 01b8 9F       		.byte	0x9f
 7636 01b9 00       		.byte	0
 7637              	.LVUS25:
 7638 01ba 00       		.uleb128 0
ARM GAS  C:\Users\DEVELO~1\AppData\Local\Temp\ccbkr0PB.s 			page 135


 7639 01bb 00       		.uleb128 .LVU251
 7640 01bc 00       		.uleb128 .LVU251
 7641 01bd 00       		.uleb128 0
 7642              	.LLST25:
 7643 01be 06       		.byte	0x6
 7644 01bf 00000000 		.4byte	.LVL61
 7645 01c3 04       		.byte	0x4
 7646 01c4 00       		.uleb128 .LVL61-.LVL61
 7647 01c5 0C       		.uleb128 .LVL63-.LVL61
 7648 01c6 01       		.uleb128 0x1
 7649 01c7 50       		.byte	0x50
 7650 01c8 04       		.byte	0x4
 7651 01c9 0C       		.uleb128 .LVL63-.LVL61
 7652 01ca B013     		.uleb128 .LFE148-.LVL61
 7653 01cc 01       		.uleb128 0x1
 7654 01cd 54       		.byte	0x54
 7655 01ce 00       		.byte	0
 7656              	.LVUS26:
 7657 01cf 00       		.uleb128 .LVU244
 7658 01d0 00       		.uleb128 .LVU253
 7659 01d1 00       		.uleb128 .LVU254
 7660 01d2 00       		.uleb128 .LVU298
 7661 01d3 00       		.uleb128 .LVU324
 7662 01d4 00       		.uleb128 .LVU343
 7663 01d5 00       		.uleb128 .LVU343
 7664 01d6 00       		.uleb128 .LVU344
 7665 01d7 00       		.uleb128 .LVU465
 7666 01d8 00       		.uleb128 .LVU513
 7667 01d9 00       		.uleb128 .LVU574
 7668 01da 00       		.uleb128 .LVU577
 7669 01db 00       		.uleb128 .LVU625
 7670 01dc 00       		.uleb128 .LVU633
 7671 01dd 00       		.uleb128 .LVU719
 7672 01de 00       		.uleb128 .LVU722
 7673              	.LLST26:
 7674 01df 06       		.byte	0x6
 7675 01e0 06000000 		.4byte	.LVL62
 7676 01e4 04       		.byte	0x4
 7677 01e5 00       		.uleb128 .LVL62-.LVL62
 7678 01e6 0E       		.uleb128 .LVL65-.LVL62
 7679 01e7 01       		.uleb128 0x1
 7680 01e8 55       		.byte	0x55
 7681 01e9 04       		.byte	0x4
 7682 01ea 14       		.uleb128 .LVL66-.LVL62
 7683 01eb 9601     		.uleb128 .LVL76-.LVL62
 7684 01ed 01       		.uleb128 0x1
 7685 01ee 55       		.byte	0x55
 7686 01ef 04       		.byte	0x4
 7687 01f0 C601     		.uleb128 .LVL82-.LVL62
 7688 01f2 8C02     		.uleb128 .LVL88-.LVL62
 7689 01f4 01       		.uleb128 0x1
 7690 01f5 55       		.byte	0x55
 7691 01f6 04       		.byte	0x4
 7692 01f7 8C02     		.uleb128 .LVL88-.LVL62
 7693 01f9 9202     		.uleb128 .LVL89-.LVL62
 7694 01fb 04       		.uleb128 0x4
 7695 01fc 75       		.byte	0x75
ARM GAS  C:\Users\DEVELO~1\AppData\Local\Temp\ccbkr0PB.s 			page 136


 7696 01fd 8076     		.sleb128 -1280
 7697 01ff 9F       		.byte	0x9f
 7698 0200 04       		.byte	0x4
 7699 0201 AA05     		.uleb128 .LVL122-.LVL62
 7700 0203 AC06     		.uleb128 .LVL128-.LVL62
 7701 0205 01       		.uleb128 0x1
 7702 0206 55       		.byte	0x55
 7703 0207 04       		.byte	0x4
 7704 0208 AC08     		.uleb128 .LVL143-.LVL62
 7705 020a BC08     		.uleb128 .LVL146-.LVL62
 7706 020c 01       		.uleb128 0x1
 7707 020d 55       		.byte	0x55
 7708 020e 04       		.byte	0x4
 7709 020f E609     		.uleb128 .LVL156-.LVL62
 7710 0211 FC09     		.uleb128 .LVL158-.LVL62
 7711 0213 01       		.uleb128 0x1
 7712 0214 55       		.byte	0x55
 7713 0215 04       		.byte	0x4
 7714 0216 B00C     		.uleb128 .LVL169-.LVL62
 7715 0218 BA0C     		.uleb128 .LVL171-.LVL62
 7716 021a 01       		.uleb128 0x1
 7717 021b 55       		.byte	0x55
 7718 021c 00       		.byte	0
 7719              	.LVUS27:
 7720 021d 01       		.uleb128 .LVU245
 7721 021e 00       		.uleb128 .LVU253
 7722 021f 00       		.uleb128 .LVU254
 7723 0220 00       		.uleb128 .LVU298
 7724 0221 00       		.uleb128 .LVU324
 7725 0222 00       		.uleb128 .LVU343
 7726 0223 00       		.uleb128 .LVU343
 7727 0224 00       		.uleb128 .LVU344
 7728 0225 00       		.uleb128 .LVU465
 7729 0226 00       		.uleb128 .LVU513
 7730 0227 00       		.uleb128 .LVU574
 7731 0228 00       		.uleb128 .LVU577
 7732 0229 00       		.uleb128 .LVU625
 7733 022a 00       		.uleb128 .LVU633
 7734 022b 00       		.uleb128 .LVU719
 7735 022c 00       		.uleb128 .LVU722
 7736              	.LLST27:
 7737 022d 06       		.byte	0x6
 7738 022e 06000000 		.4byte	.LVL62
 7739 0232 04       		.byte	0x4
 7740 0233 00       		.uleb128 .LVL62-.LVL62
 7741 0234 0E       		.uleb128 .LVL65-.LVL62
 7742 0235 01       		.uleb128 0x1
 7743 0236 55       		.byte	0x55
 7744 0237 04       		.byte	0x4
 7745 0238 14       		.uleb128 .LVL66-.LVL62
 7746 0239 9601     		.uleb128 .LVL76-.LVL62
 7747 023b 01       		.uleb128 0x1
 7748 023c 55       		.byte	0x55
 7749 023d 04       		.byte	0x4
 7750 023e C601     		.uleb128 .LVL82-.LVL62
 7751 0240 8C02     		.uleb128 .LVL88-.LVL62
 7752 0242 01       		.uleb128 0x1
ARM GAS  C:\Users\DEVELO~1\AppData\Local\Temp\ccbkr0PB.s 			page 137


 7753 0243 55       		.byte	0x55
 7754 0244 04       		.byte	0x4
 7755 0245 8C02     		.uleb128 .LVL88-.LVL62
 7756 0247 9202     		.uleb128 .LVL89-.LVL62
 7757 0249 04       		.uleb128 0x4
 7758 024a 75       		.byte	0x75
 7759 024b 8076     		.sleb128 -1280
 7760 024d 9F       		.byte	0x9f
 7761 024e 04       		.byte	0x4
 7762 024f AA05     		.uleb128 .LVL122-.LVL62
 7763 0251 AC06     		.uleb128 .LVL128-.LVL62
 7764 0253 01       		.uleb128 0x1
 7765 0254 55       		.byte	0x55
 7766 0255 04       		.byte	0x4
 7767 0256 AC08     		.uleb128 .LVL143-.LVL62
 7768 0258 BC08     		.uleb128 .LVL146-.LVL62
 7769 025a 01       		.uleb128 0x1
 7770 025b 55       		.byte	0x55
 7771 025c 04       		.byte	0x4
 7772 025d E609     		.uleb128 .LVL156-.LVL62
 7773 025f FC09     		.uleb128 .LVL158-.LVL62
 7774 0261 01       		.uleb128 0x1
 7775 0262 55       		.byte	0x55
 7776 0263 04       		.byte	0x4
 7777 0264 B00C     		.uleb128 .LVL169-.LVL62
 7778 0266 BA0C     		.uleb128 .LVL171-.LVL62
 7779 0268 01       		.uleb128 0x1
 7780 0269 55       		.byte	0x55
 7781 026a 00       		.byte	0
 7782              	.LVUS28:
 7783 026b 01       		.uleb128 .LVU341
 7784 026c 00       		.uleb128 .LVU344
 7785 026d 00       		.uleb128 .LVU344
 7786 026e 00       		.uleb128 .LVU463
 7787 026f 00       		.uleb128 .LVU513
 7788 0270 00       		.uleb128 .LVU563
 7789 0271 00       		.uleb128 .LVU577
 7790 0272 00       		.uleb128 .LVU625
 7791 0273 00       		.uleb128 .LVU633
 7792 0274 00       		.uleb128 .LVU719
 7793 0275 00       		.uleb128 .LVU722
 7794 0276 00       		.uleb128 .LVU738
 7795 0277 00       		.uleb128 .LVU762
 7796 0278 00       		.uleb128 .LVU817
 7797 0279 00       		.uleb128 .LVU831
 7798 027a 00       		.uleb128 0
 7799              	.LLST28:
 7800 027b 06       		.byte	0x6
 7801 027c 02010000 		.4byte	.LVL87
 7802 0280 04       		.byte	0x4
 7803 0281 00       		.uleb128 .LVL87-.LVL87
 7804 0282 16       		.uleb128 .LVL89-.LVL87
 7805 0283 02       		.uleb128 0x2
 7806 0284 30       		.byte	0x30
 7807 0285 9F       		.byte	0x9f
 7808 0286 04       		.byte	0x4
 7809 0287 16       		.uleb128 .LVL89-.LVL87
ARM GAS  C:\Users\DEVELO~1\AppData\Local\Temp\ccbkr0PB.s 			page 138


 7810 0288 A403     		.uleb128 .LVL121-.LVL87
 7811 028a 01       		.uleb128 0x1
 7812 028b 5B       		.byte	0x5b
 7813 028c 04       		.byte	0x4
 7814 028d B004     		.uleb128 .LVL128-.LVL87
 7815 028f 8206     		.uleb128 .LVL141-.LVL87
 7816 0291 01       		.uleb128 0x1
 7817 0292 5B       		.byte	0x5b
 7818 0293 04       		.byte	0x4
 7819 0294 C006     		.uleb128 .LVL146-.LVL87
 7820 0296 EA07     		.uleb128 .LVL156-.LVL87
 7821 0298 01       		.uleb128 0x1
 7822 0299 5B       		.byte	0x5b
 7823 029a 04       		.byte	0x4
 7824 029b 8008     		.uleb128 .LVL158-.LVL87
 7825 029d B40A     		.uleb128 .LVL169-.LVL87
 7826 029f 01       		.uleb128 0x1
 7827 02a0 5B       		.byte	0x5b
 7828 02a1 04       		.byte	0x4
 7829 02a2 BE0A     		.uleb128 .LVL171-.LVL87
 7830 02a4 F20A     		.uleb128 .LVL174-.LVL87
 7831 02a6 01       		.uleb128 0x1
 7832 02a7 5B       		.byte	0x5b
 7833 02a8 04       		.byte	0x4
 7834 02a9 AC0B     		.uleb128 .LVL180-.LVL87
 7835 02ab F40C     		.uleb128 .LVL189-.LVL87
 7836 02ad 01       		.uleb128 0x1
 7837 02ae 5B       		.byte	0x5b
 7838 02af 04       		.byte	0x4
 7839 02b0 940D     		.uleb128 .LVL196-.LVL87
 7840 02b2 AE11     		.uleb128 .LFE148-.LVL87
 7841 02b4 01       		.uleb128 0x1
 7842 02b5 5B       		.byte	0x5b
 7843 02b6 00       		.byte	0
 7844              	.LVUS29:
 7845 02b7 00       		.uleb128 .LVU340
 7846 02b8 00       		.uleb128 .LVU344
 7847 02b9 00       		.uleb128 .LVU344
 7848 02ba 00       		.uleb128 .LVU465
 7849 02bb 00       		.uleb128 .LVU513
 7850 02bc 00       		.uleb128 .LVU563
 7851 02bd 00       		.uleb128 .LVU577
 7852 02be 00       		.uleb128 .LVU625
 7853 02bf 00       		.uleb128 .LVU633
 7854 02c0 00       		.uleb128 .LVU719
 7855 02c1 00       		.uleb128 .LVU722
 7856 02c2 00       		.uleb128 .LVU738
 7857 02c3 00       		.uleb128 .LVU762
 7858 02c4 00       		.uleb128 .LVU817
 7859 02c5 00       		.uleb128 .LVU831
 7860 02c6 00       		.uleb128 0
 7861              	.LLST29:
 7862 02c7 06       		.byte	0x6
 7863 02c8 02010000 		.4byte	.LVL87
 7864 02cc 04       		.byte	0x4
 7865 02cd 00       		.uleb128 .LVL87-.LVL87
 7866 02ce 16       		.uleb128 .LVL89-.LVL87
ARM GAS  C:\Users\DEVELO~1\AppData\Local\Temp\ccbkr0PB.s 			page 139


 7867 02cf 01       		.uleb128 0x1
 7868 02d0 50       		.byte	0x50
 7869 02d1 04       		.byte	0x4
 7870 02d2 16       		.uleb128 .LVL89-.LVL87
 7871 02d3 AE03     		.uleb128 .LVL122-.LVL87
 7872 02d5 01       		.uleb128 0x1
 7873 02d6 58       		.byte	0x58
 7874 02d7 04       		.byte	0x4
 7875 02d8 B004     		.uleb128 .LVL128-.LVL87
 7876 02da 8206     		.uleb128 .LVL141-.LVL87
 7877 02dc 01       		.uleb128 0x1
 7878 02dd 58       		.byte	0x58
 7879 02de 04       		.byte	0x4
 7880 02df C006     		.uleb128 .LVL146-.LVL87
 7881 02e1 EA07     		.uleb128 .LVL156-.LVL87
 7882 02e3 01       		.uleb128 0x1
 7883 02e4 58       		.byte	0x58
 7884 02e5 04       		.byte	0x4
 7885 02e6 8008     		.uleb128 .LVL158-.LVL87
 7886 02e8 B40A     		.uleb128 .LVL169-.LVL87
 7887 02ea 01       		.uleb128 0x1
 7888 02eb 58       		.byte	0x58
 7889 02ec 04       		.byte	0x4
 7890 02ed BE0A     		.uleb128 .LVL171-.LVL87
 7891 02ef F20A     		.uleb128 .LVL174-.LVL87
 7892 02f1 01       		.uleb128 0x1
 7893 02f2 58       		.byte	0x58
 7894 02f3 04       		.byte	0x4
 7895 02f4 AC0B     		.uleb128 .LVL180-.LVL87
 7896 02f6 F40C     		.uleb128 .LVL189-.LVL87
 7897 02f8 01       		.uleb128 0x1
 7898 02f9 58       		.byte	0x58
 7899 02fa 04       		.byte	0x4
 7900 02fb 940D     		.uleb128 .LVL196-.LVL87
 7901 02fd AE11     		.uleb128 .LFE148-.LVL87
 7902 02ff 01       		.uleb128 0x1
 7903 0300 58       		.byte	0x58
 7904 0301 00       		.byte	0
 7905              	.LVUS31:
 7906 0302 01       		.uleb128 .LVU303
 7907 0303 00       		.uleb128 .LVU322
 7908 0304 00       		.uleb128 .LVU563
 7909 0305 00       		.uleb128 .LVU574
 7910 0306 00       		.uleb128 .LVU738
 7911 0307 00       		.uleb128 .LVU762
 7912 0308 00       		.uleb128 .LVU817
 7913 0309 00       		.uleb128 .LVU831
 7914              	.LLST31:
 7915 030a 06       		.byte	0x6
 7916 030b AE000000 		.4byte	.LVL78
 7917 030f 04       		.byte	0x4
 7918 0310 00       		.uleb128 .LVL78-.LVL78
 7919 0311 14       		.uleb128 .LVL81-.LVL78
 7920 0312 01       		.uleb128 0x1
 7921 0313 54       		.byte	0x54
 7922 0314 04       		.byte	0x4
 7923 0315 D606     		.uleb128 .LVL141-.LVL78
ARM GAS  C:\Users\DEVELO~1\AppData\Local\Temp\ccbkr0PB.s 			page 140


 7924 0317 8407     		.uleb128 .LVL143-.LVL78
 7925 0319 01       		.uleb128 0x1
 7926 031a 54       		.byte	0x54
 7927 031b 04       		.byte	0x4
 7928 031c C60B     		.uleb128 .LVL174-.LVL78
 7929 031e 800C     		.uleb128 .LVL180-.LVL78
 7930 0320 01       		.uleb128 0x1
 7931 0321 54       		.byte	0x54
 7932 0322 04       		.byte	0x4
 7933 0323 C80D     		.uleb128 .LVL189-.LVL78
 7934 0325 E80D     		.uleb128 .LVL196-.LVL78
 7935 0327 01       		.uleb128 0x1
 7936 0328 54       		.byte	0x54
 7937 0329 00       		.byte	0
 7938              	.LVUS32:
 7939 032a 03       		.uleb128 .LVU305
 7940 032b 00       		.uleb128 .LVU322
 7941 032c 00       		.uleb128 .LVU563
 7942 032d 00       		.uleb128 .LVU574
 7943 032e 00       		.uleb128 .LVU738
 7944 032f 00       		.uleb128 .LVU744
 7945 0330 00       		.uleb128 .LVU744
 7946 0331 00       		.uleb128 .LVU761
 7947 0332 00       		.uleb128 .LVU817
 7948 0333 00       		.uleb128 .LVU831
 7949              	.LLST32:
 7950 0334 06       		.byte	0x6
 7951 0335 AE000000 		.4byte	.LVL78
 7952 0339 04       		.byte	0x4
 7953 033a 00       		.uleb128 .LVL78-.LVL78
 7954 033b 14       		.uleb128 .LVL81-.LVL78
 7955 033c 01       		.uleb128 0x1
 7956 033d 55       		.byte	0x55
 7957 033e 04       		.byte	0x4
 7958 033f D606     		.uleb128 .LVL141-.LVL78
 7959 0341 8407     		.uleb128 .LVL143-.LVL78
 7960 0343 01       		.uleb128 0x1
 7961 0344 55       		.byte	0x55
 7962 0345 04       		.byte	0x4
 7963 0346 C60B     		.uleb128 .LVL174-.LVL78
 7964 0348 D60B     		.uleb128 .LVL176-.LVL78
 7965 034a 01       		.uleb128 0x1
 7966 034b 55       		.byte	0x55
 7967 034c 04       		.byte	0x4
 7968 034d D60B     		.uleb128 .LVL176-.LVL78
 7969 034f FE0B     		.uleb128 .LVL179-.LVL78
 7970 0351 04       		.uleb128 0x4
 7971 0352 75       		.byte	0x75
 7972 0353 8076     		.sleb128 -1280
 7973 0355 9F       		.byte	0x9f
 7974 0356 04       		.byte	0x4
 7975 0357 C80D     		.uleb128 .LVL189-.LVL78
 7976 0359 E80D     		.uleb128 .LVL196-.LVL78
 7977 035b 04       		.uleb128 0x4
 7978 035c 75       		.byte	0x75
 7979 035d 8076     		.sleb128 -1280
 7980 035f 9F       		.byte	0x9f
ARM GAS  C:\Users\DEVELO~1\AppData\Local\Temp\ccbkr0PB.s 			page 141


 7981 0360 00       		.byte	0
 7982              	.LVUS33:
 7983 0361 04       		.uleb128 .LVU306
 7984 0362 00       		.uleb128 .LVU322
 7985 0363 00       		.uleb128 .LVU563
 7986 0364 00       		.uleb128 .LVU574
 7987 0365 00       		.uleb128 .LVU738
 7988 0366 00       		.uleb128 .LVU744
 7989 0367 00       		.uleb128 .LVU744
 7990 0368 00       		.uleb128 .LVU761
 7991 0369 00       		.uleb128 .LVU817
 7992 036a 00       		.uleb128 .LVU831
 7993              	.LLST33:
 7994 036b 06       		.byte	0x6
 7995 036c AE000000 		.4byte	.LVL78
 7996 0370 04       		.byte	0x4
 7997 0371 00       		.uleb128 .LVL78-.LVL78
 7998 0372 14       		.uleb128 .LVL81-.LVL78
 7999 0373 01       		.uleb128 0x1
 8000 0374 55       		.byte	0x55
 8001 0375 04       		.byte	0x4
 8002 0376 D606     		.uleb128 .LVL141-.LVL78
 8003 0378 8407     		.uleb128 .LVL143-.LVL78
 8004 037a 01       		.uleb128 0x1
 8005 037b 55       		.byte	0x55
 8006 037c 04       		.byte	0x4
 8007 037d C60B     		.uleb128 .LVL174-.LVL78
 8008 037f D60B     		.uleb128 .LVL176-.LVL78
 8009 0381 01       		.uleb128 0x1
 8010 0382 55       		.byte	0x55
 8011 0383 04       		.byte	0x4
 8012 0384 D60B     		.uleb128 .LVL176-.LVL78
 8013 0386 FE0B     		.uleb128 .LVL179-.LVL78
 8014 0388 04       		.uleb128 0x4
 8015 0389 75       		.byte	0x75
 8016 038a 8076     		.sleb128 -1280
 8017 038c 9F       		.byte	0x9f
 8018 038d 04       		.byte	0x4
 8019 038e C80D     		.uleb128 .LVL189-.LVL78
 8020 0390 E80D     		.uleb128 .LVL196-.LVL78
 8021 0392 04       		.uleb128 0x4
 8022 0393 75       		.byte	0x75
 8023 0394 8076     		.sleb128 -1280
 8024 0396 9F       		.byte	0x9f
 8025 0397 00       		.byte	0
 8026              	.LVUS34:
 8027 0398 02       		.uleb128 .LVU316
 8028 0399 00       		.uleb128 .LVU322
 8029 039a 00       		.uleb128 .LVU563
 8030 039b 00       		.uleb128 .LVU565
 8031              	.LLST34:
 8032 039c 06       		.byte	0x6
 8033 039d B0000000 		.4byte	.LVL79
 8034 03a1 04       		.byte	0x4
 8035 03a2 00       		.uleb128 .LVL79-.LVL79
 8036 03a3 12       		.uleb128 .LVL81-.LVL79
 8037 03a4 07       		.uleb128 0x7
ARM GAS  C:\Users\DEVELO~1\AppData\Local\Temp\ccbkr0PB.s 			page 142


 8038 03a5 76       		.byte	0x76
 8039 03a6 00       		.sleb128 0
 8040 03a7 41       		.byte	0x41
 8041 03a8 25       		.byte	0x25
 8042 03a9 3F       		.byte	0x3f
 8043 03aa 1A       		.byte	0x1a
 8044 03ab 9F       		.byte	0x9f
 8045 03ac 04       		.byte	0x4
 8046 03ad D406     		.uleb128 .LVL141-.LVL79
 8047 03af D806     		.uleb128 .LVL142-.LVL79
 8048 03b1 07       		.uleb128 0x7
 8049 03b2 76       		.byte	0x76
 8050 03b3 00       		.sleb128 0
 8051 03b4 41       		.byte	0x41
 8052 03b5 25       		.byte	0x25
 8053 03b6 3F       		.byte	0x3f
 8054 03b7 1A       		.byte	0x1a
 8055 03b8 9F       		.byte	0x9f
 8056 03b9 00       		.byte	0
 8057              	.LVUS35:
 8058 03ba 00       		.uleb128 .LVU319
 8059 03bb 00       		.uleb128 .LVU322
 8060 03bc 00       		.uleb128 .LVU563
 8061 03bd 00       		.uleb128 .LVU574
 8062 03be 00       		.uleb128 .LVU738
 8063 03bf 00       		.uleb128 .LVU762
 8064 03c0 00       		.uleb128 .LVU817
 8065 03c1 00       		.uleb128 .LVU831
 8066              	.LLST35:
 8067 03c2 06       		.byte	0x6
 8068 03c3 B8000000 		.4byte	.LVL80
 8069 03c7 04       		.byte	0x4
 8070 03c8 00       		.uleb128 .LVL80-.LVL80
 8071 03c9 0A       		.uleb128 .LVL81-.LVL80
 8072 03ca 01       		.uleb128 0x1
 8073 03cb 57       		.byte	0x57
 8074 03cc 04       		.byte	0x4
 8075 03cd CC06     		.uleb128 .LVL141-.LVL80
 8076 03cf FA06     		.uleb128 .LVL143-.LVL80
 8077 03d1 01       		.uleb128 0x1
 8078 03d2 57       		.byte	0x57
 8079 03d3 04       		.byte	0x4
 8080 03d4 BC0B     		.uleb128 .LVL174-.LVL80
 8081 03d6 F60B     		.uleb128 .LVL180-.LVL80
 8082 03d8 01       		.uleb128 0x1
 8083 03d9 57       		.byte	0x57
 8084 03da 04       		.byte	0x4
 8085 03db BE0D     		.uleb128 .LVL189-.LVL80
 8086 03dd DE0D     		.uleb128 .LVL196-.LVL80
 8087 03df 01       		.uleb128 0x1
 8088 03e0 57       		.byte	0x57
 8089 03e1 00       		.byte	0
 8090              	.LVUS36:
 8091 03e2 00       		.uleb128 .LVU314
 8092 03e3 00       		.uleb128 .LVU322
 8093 03e4 00       		.uleb128 .LVU563
 8094 03e5 00       		.uleb128 .LVU565
ARM GAS  C:\Users\DEVELO~1\AppData\Local\Temp\ccbkr0PB.s 			page 143


 8095              	.LLST36:
 8096 03e6 06       		.byte	0x6
 8097 03e7 B0000000 		.4byte	.LVL79
 8098 03eb 04       		.byte	0x4
 8099 03ec 00       		.uleb128 .LVL79-.LVL79
 8100 03ed 12       		.uleb128 .LVL81-.LVL79
 8101 03ee 01       		.uleb128 0x1
 8102 03ef 56       		.byte	0x56
 8103 03f0 04       		.byte	0x4
 8104 03f1 D406     		.uleb128 .LVL141-.LVL79
 8105 03f3 D806     		.uleb128 .LVL142-.LVL79
 8106 03f5 01       		.uleb128 0x1
 8107 03f6 56       		.byte	0x56
 8108 03f7 00       		.byte	0
 8109              	.LVUS37:
 8110 03f8 01       		.uleb128 .LVU753
 8111 03f9 00       		.uleb128 .LVU756
 8112              	.LLST37:
 8113 03fa 08       		.byte	0x8
 8114 03fb 9A060000 		.4byte	.LVL177
 8115 03ff 06       		.uleb128 .LVL178-.LVL177
 8116 0400 09       		.uleb128 0x9
 8117 0401 73       		.byte	0x73
 8118 0402 00       		.sleb128 0
 8119 0403 43       		.byte	0x43
 8120 0404 25       		.byte	0x25
 8121 0405 0A       		.byte	0xa
 8122 0406 FF03     		.2byte	0x3ff
 8123 0408 1A       		.byte	0x1a
 8124 0409 9F       		.byte	0x9f
 8125 040a 00       		.byte	0
 8126              	.LVUS38:
 8127 040b 00       		.uleb128 .LVU820
 8128 040c 00       		.uleb128 .LVU828
 8129 040d 00       		.uleb128 .LVU828
 8130 040e 00       		.uleb128 .LVU829
 8131 040f 00       		.uleb128 .LVU829
 8132 0410 00       		.uleb128 .LVU830
 8133              	.LLST38:
 8134 0411 06       		.byte	0x6
 8135 0412 78070000 		.4byte	.LVL190
 8136 0416 04       		.byte	0x4
 8137 0417 00       		.uleb128 .LVL190-.LVL190
 8138 0418 0C       		.uleb128 .LVL193-.LVL190
 8139 0419 01       		.uleb128 0x1
 8140 041a 53       		.byte	0x53
 8141 041b 04       		.byte	0x4
 8142 041c 0C       		.uleb128 .LVL193-.LVL190
 8143 041d 14       		.uleb128 .LVL194-.LVL190
 8144 041e 05       		.uleb128 0x5
 8145 041f 75       		.byte	0x75
 8146 0420 00       		.sleb128 0
 8147 0421 72       		.byte	0x72
 8148 0422 00       		.sleb128 0
 8149 0423 22       		.byte	0x22
 8150 0424 04       		.byte	0x4
 8151 0425 14       		.uleb128 .LVL194-.LVL190
ARM GAS  C:\Users\DEVELO~1\AppData\Local\Temp\ccbkr0PB.s 			page 144


 8152 0426 1C       		.uleb128 .LVL195-.LVL190
 8153 0427 07       		.uleb128 0x7
 8154 0428 76       		.byte	0x76
 8155 0429 00       		.sleb128 0
 8156 042a 35       		.byte	0x35
 8157 042b 24       		.byte	0x24
 8158 042c 75       		.byte	0x75
 8159 042d 00       		.sleb128 0
 8160 042e 22       		.byte	0x22
 8161 042f 00       		.byte	0
 8162              	.LVUS39:
 8163 0430 01       		.uleb128 .LVU315
 8164 0431 00       		.uleb128 .LVU322
 8165 0432 00       		.uleb128 .LVU563
 8166 0433 00       		.uleb128 .LVU565
 8167              	.LLST39:
 8168 0434 06       		.byte	0x6
 8169 0435 B0000000 		.4byte	.LVL79
 8170 0439 04       		.byte	0x4
 8171 043a 00       		.uleb128 .LVL79-.LVL79
 8172 043b 12       		.uleb128 .LVL81-.LVL79
 8173 043c 05       		.uleb128 0x5
 8174 043d 76       		.byte	0x76
 8175 043e 00       		.sleb128 0
 8176 043f 3F       		.byte	0x3f
 8177 0440 1A       		.byte	0x1a
 8178 0441 9F       		.byte	0x9f
 8179 0442 04       		.byte	0x4
 8180 0443 D406     		.uleb128 .LVL141-.LVL79
 8181 0445 D806     		.uleb128 .LVL142-.LVL79
 8182 0447 05       		.uleb128 0x5
 8183 0448 76       		.byte	0x76
 8184 0449 00       		.sleb128 0
 8185 044a 3F       		.byte	0x3f
 8186 044b 1A       		.byte	0x1a
 8187 044c 9F       		.byte	0x9f
 8188 044d 00       		.byte	0
 8189              	.LVUS41:
 8190 044e 00       		.uleb128 .LVU683
 8191 044f 00       		.uleb128 .LVU689
 8192 0450 00       		.uleb128 .LVU864
 8193 0451 00       		.uleb128 .LVU870
 8194              	.LLST41:
 8195 0452 06       		.byte	0x6
 8196 0453 C2050000 		.4byte	.LVL165
 8197 0457 04       		.byte	0x4
 8198 0458 00       		.uleb128 .LVL165-.LVL165
 8199 0459 0E       		.uleb128 .LVL168-.LVL165
 8200 045a 01       		.uleb128 0x1
 8201 045b 53       		.byte	0x53
 8202 045c 04       		.byte	0x4
 8203 045d B404     		.uleb128 .LVL200-.LVL165
 8204 045f C004     		.uleb128 .LVL203-.LVL165
 8205 0461 01       		.uleb128 0x1
 8206 0462 53       		.byte	0x53
 8207 0463 00       		.byte	0
 8208              	.LVUS42:
ARM GAS  C:\Users\DEVELO~1\AppData\Local\Temp\ccbkr0PB.s 			page 145


 8209 0464 00       		.uleb128 .LVU961
 8210 0465 00       		.uleb128 .LVU963
 8211 0466 00       		.uleb128 .LVU963
 8212 0467 00       		.uleb128 .LVU966
 8213 0468 00       		.uleb128 .LVU966
 8214 0469 00       		.uleb128 .LVU967
 8215              	.LLST42:
 8216 046a 06       		.byte	0x6
 8217 046b 40090000 		.4byte	.LVL220
 8218 046f 04       		.byte	0x4
 8219 0470 00       		.uleb128 .LVL220-.LVL220
 8220 0471 02       		.uleb128 .LVL221-.LVL220
 8221 0472 11       		.uleb128 0x11
 8222 0473 72       		.byte	0x72
 8223 0474 00       		.sleb128 0
 8224 0475 73       		.byte	0x73
 8225 0476 00       		.sleb128 0
 8226 0477 22       		.byte	0x22
 8227 0478 31       		.byte	0x31
 8228 0479 1C       		.byte	0x1c
 8229 047a A8       		.byte	0xa8
 8230 047b 26       		.uleb128 0x26
 8231 047c 72       		.byte	0x72
 8232 047d 00       		.sleb128 0
 8233 047e A8       		.byte	0xa8
 8234 047f 26       		.uleb128 0x26
 8235 0480 1B       		.byte	0x1b
 8236 0481 A8       		.byte	0xa8
 8237 0482 00       		.uleb128 0
 8238 0483 9F       		.byte	0x9f
 8239 0484 04       		.byte	0x4
 8240 0485 02       		.uleb128 .LVL221-.LVL220
 8241 0486 0A       		.uleb128 .LVL222-.LVL220
 8242 0487 12       		.uleb128 0x12
 8243 0488 76       		.byte	0x76
 8244 0489 34       		.sleb128 52
 8245 048a 06       		.byte	0x6
 8246 048b 72       		.byte	0x72
 8247 048c 00       		.sleb128 0
 8248 048d 22       		.byte	0x22
 8249 048e 31       		.byte	0x31
 8250 048f 1C       		.byte	0x1c
 8251 0490 A8       		.byte	0xa8
 8252 0491 26       		.uleb128 0x26
 8253 0492 72       		.byte	0x72
 8254 0493 00       		.sleb128 0
 8255 0494 A8       		.byte	0xa8
 8256 0495 26       		.uleb128 0x26
 8257 0496 1B       		.byte	0x1b
 8258 0497 A8       		.byte	0xa8
 8259 0498 00       		.uleb128 0
 8260 0499 9F       		.byte	0x9f
 8261 049a 04       		.byte	0x4
 8262 049b 0A       		.uleb128 .LVL222-.LVL220
 8263 049c 0E       		.uleb128 .LVL223-.LVL220
 8264 049d 1E       		.uleb128 0x1e
 8265 049e 76       		.byte	0x76
ARM GAS  C:\Users\DEVELO~1\AppData\Local\Temp\ccbkr0PB.s 			page 146


 8266 049f 28       		.sleb128 40
 8267 04a0 94       		.byte	0x94
 8268 04a1 02       		.byte	0x2
 8269 04a2 0A       		.byte	0xa
 8270 04a3 FFFF     		.2byte	0xffff
 8271 04a5 1A       		.byte	0x1a
 8272 04a6 76       		.byte	0x76
 8273 04a7 34       		.sleb128 52
 8274 04a8 06       		.byte	0x6
 8275 04a9 22       		.byte	0x22
 8276 04aa 31       		.byte	0x31
 8277 04ab 1C       		.byte	0x1c
 8278 04ac A8       		.byte	0xa8
 8279 04ad 26       		.uleb128 0x26
 8280 04ae 76       		.byte	0x76
 8281 04af 28       		.sleb128 40
 8282 04b0 94       		.byte	0x94
 8283 04b1 02       		.byte	0x2
 8284 04b2 0A       		.byte	0xa
 8285 04b3 FFFF     		.2byte	0xffff
 8286 04b5 1A       		.byte	0x1a
 8287 04b6 A8       		.byte	0xa8
 8288 04b7 26       		.uleb128 0x26
 8289 04b8 1B       		.byte	0x1b
 8290 04b9 A8       		.byte	0xa8
 8291 04ba 00       		.uleb128 0
 8292 04bb 9F       		.byte	0x9f
 8293 04bc 00       		.byte	0
 8294              	.LVUS44:
 8295 04bd 00       		.uleb128 .LVU344
 8296 04be 00       		.uleb128 .LVU347
 8297 04bf 00       		.uleb128 .LVU347
 8298 04c0 01       		.uleb128 .LVU350
 8299 04c1 01       		.uleb128 .LVU350
 8300 04c2 00       		.uleb128 .LVU363
 8301 04c3 00       		.uleb128 .LVU374
 8302 04c4 00       		.uleb128 .LVU385
 8303 04c5 00       		.uleb128 .LVU385
 8304 04c6 00       		.uleb128 .LVU392
 8305 04c7 00       		.uleb128 .LVU392
 8306 04c8 00       		.uleb128 .LVU394
 8307 04c9 00       		.uleb128 .LVU394
 8308 04ca 00       		.uleb128 .LVU397
 8309 04cb 00       		.uleb128 .LVU397
 8310 04cc 00       		.uleb128 .LVU404
 8311 04cd 00       		.uleb128 .LVU404
 8312 04ce 00       		.uleb128 .LVU406
 8313 04cf 00       		.uleb128 .LVU406
 8314 04d0 00       		.uleb128 .LVU463
 8315 04d1 00       		.uleb128 .LVU513
 8316 04d2 00       		.uleb128 .LVU563
 8317 04d3 00       		.uleb128 .LVU577
 8318 04d4 00       		.uleb128 .LVU625
 8319 04d5 00       		.uleb128 .LVU633
 8320 04d6 00       		.uleb128 .LVU719
 8321 04d7 00       		.uleb128 .LVU722
 8322 04d8 00       		.uleb128 .LVU738
ARM GAS  C:\Users\DEVELO~1\AppData\Local\Temp\ccbkr0PB.s 			page 147


 8323 04d9 00       		.uleb128 .LVU762
 8324 04da 00       		.uleb128 .LVU817
 8325 04db 00       		.uleb128 .LVU831
 8326 04dc 00       		.uleb128 0
 8327              	.LLST44:
 8328 04dd 06       		.byte	0x6
 8329 04de 18010000 		.4byte	.LVL89
 8330 04e2 04       		.byte	0x4
 8331 04e3 00       		.uleb128 .LVL89-.LVL89
 8332 04e4 03       		.uleb128 .LVL90-1-.LVL89
 8333 04e5 01       		.uleb128 0x1
 8334 04e6 51       		.byte	0x51
 8335 04e7 04       		.byte	0x4
 8336 04e8 03       		.uleb128 .LVL90-1-.LVL89
 8337 04e9 16       		.uleb128 .LVL91-.LVL89
 8338 04ea 02       		.uleb128 0x2
 8339 04eb 7D       		.byte	0x7d
 8340 04ec 00       		.sleb128 0
 8341 04ed 04       		.byte	0x4
 8342 04ee 16       		.uleb128 .LVL91-.LVL89
 8343 04ef 46       		.uleb128 .LVL97-.LVL89
 8344 04f0 01       		.uleb128 0x1
 8345 04f1 5B       		.byte	0x5b
 8346 04f2 04       		.byte	0x4
 8347 04f3 68       		.uleb128 .LVL100-.LVL89
 8348 04f4 79       		.uleb128 .LVL102-1-.LVL89
 8349 04f5 01       		.uleb128 0x1
 8350 04f6 51       		.byte	0x51
 8351 04f7 04       		.byte	0x4
 8352 04f8 79       		.uleb128 .LVL102-1-.LVL89
 8353 04f9 9201     		.uleb128 .LVL105-.LVL89
 8354 04fb 02       		.uleb128 0x2
 8355 04fc 7D       		.byte	0x7d
 8356 04fd 00       		.sleb128 0
 8357 04fe 04       		.byte	0x4
 8358 04ff 9201     		.uleb128 .LVL105-.LVL89
 8359 0501 9A01     		.uleb128 .LVL107-.LVL89
 8360 0503 01       		.uleb128 0x1
 8361 0504 5B       		.byte	0x5b
 8362 0505 04       		.byte	0x4
 8363 0506 9A01     		.uleb128 .LVL107-.LVL89
 8364 0508 9E01     		.uleb128 .LVL108-.LVL89
 8365 050a 02       		.uleb128 0x2
 8366 050b 7D       		.byte	0x7d
 8367 050c 00       		.sleb128 0
 8368 050d 04       		.byte	0x4
 8369 050e 9E01     		.uleb128 .LVL108-.LVL89
 8370 0510 C801     		.uleb128 .LVL111-.LVL89
 8371 0512 01       		.uleb128 0x1
 8372 0513 5B       		.byte	0x5b
 8373 0514 04       		.byte	0x4
 8374 0515 C801     		.uleb128 .LVL111-.LVL89
 8375 0517 CE01     		.uleb128 .LVL112-.LVL89
 8376 0519 02       		.uleb128 0x2
 8377 051a 7D       		.byte	0x7d
 8378 051b 00       		.sleb128 0
 8379 051c 04       		.byte	0x4
ARM GAS  C:\Users\DEVELO~1\AppData\Local\Temp\ccbkr0PB.s 			page 148


 8380 051d CE01     		.uleb128 .LVL112-.LVL89
 8381 051f 8E03     		.uleb128 .LVL121-.LVL89
 8382 0521 01       		.uleb128 0x1
 8383 0522 5B       		.byte	0x5b
 8384 0523 04       		.byte	0x4
 8385 0524 9A04     		.uleb128 .LVL128-.LVL89
 8386 0526 EC05     		.uleb128 .LVL141-.LVL89
 8387 0528 01       		.uleb128 0x1
 8388 0529 5B       		.byte	0x5b
 8389 052a 04       		.byte	0x4
 8390 052b AA06     		.uleb128 .LVL146-.LVL89
 8391 052d D407     		.uleb128 .LVL156-.LVL89
 8392 052f 01       		.uleb128 0x1
 8393 0530 5B       		.byte	0x5b
 8394 0531 04       		.byte	0x4
 8395 0532 EA07     		.uleb128 .LVL158-.LVL89
 8396 0534 9E0A     		.uleb128 .LVL169-.LVL89
 8397 0536 01       		.uleb128 0x1
 8398 0537 5B       		.byte	0x5b
 8399 0538 04       		.byte	0x4
 8400 0539 A80A     		.uleb128 .LVL171-.LVL89
 8401 053b DC0A     		.uleb128 .LVL174-.LVL89
 8402 053d 01       		.uleb128 0x1
 8403 053e 5B       		.byte	0x5b
 8404 053f 04       		.byte	0x4
 8405 0540 960B     		.uleb128 .LVL180-.LVL89
 8406 0542 DE0C     		.uleb128 .LVL189-.LVL89
 8407 0544 01       		.uleb128 0x1
 8408 0545 5B       		.byte	0x5b
 8409 0546 04       		.byte	0x4
 8410 0547 FE0C     		.uleb128 .LVL196-.LVL89
 8411 0549 9811     		.uleb128 .LFE148-.LVL89
 8412 054b 01       		.uleb128 0x1
 8413 054c 5B       		.byte	0x5b
 8414 054d 00       		.byte	0
 8415              	.LVUS45:
 8416 054e 00       		.uleb128 .LVU344
 8417 054f 00       		.uleb128 .LVU363
 8418 0550 00       		.uleb128 .LVU374
 8419 0551 00       		.uleb128 .LVU463
 8420 0552 00       		.uleb128 .LVU513
 8421 0553 00       		.uleb128 .LVU563
 8422 0554 00       		.uleb128 .LVU577
 8423 0555 00       		.uleb128 .LVU625
 8424 0556 00       		.uleb128 .LVU633
 8425 0557 00       		.uleb128 .LVU719
 8426 0558 00       		.uleb128 .LVU722
 8427 0559 00       		.uleb128 .LVU738
 8428 055a 00       		.uleb128 .LVU762
 8429 055b 00       		.uleb128 .LVU817
 8430 055c 00       		.uleb128 .LVU831
 8431 055d 00       		.uleb128 0
 8432              	.LLST45:
 8433 055e 06       		.byte	0x6
 8434 055f 18010000 		.4byte	.LVL89
 8435 0563 04       		.byte	0x4
 8436 0564 00       		.uleb128 .LVL89-.LVL89
ARM GAS  C:\Users\DEVELO~1\AppData\Local\Temp\ccbkr0PB.s 			page 149


 8437 0565 46       		.uleb128 .LVL97-.LVL89
 8438 0566 01       		.uleb128 0x1
 8439 0567 54       		.byte	0x54
 8440 0568 04       		.byte	0x4
 8441 0569 68       		.uleb128 .LVL100-.LVL89
 8442 056a 8E03     		.uleb128 .LVL121-.LVL89
 8443 056c 01       		.uleb128 0x1
 8444 056d 54       		.byte	0x54
 8445 056e 04       		.byte	0x4
 8446 056f 9A04     		.uleb128 .LVL128-.LVL89
 8447 0571 EC05     		.uleb128 .LVL141-.LVL89
 8448 0573 01       		.uleb128 0x1
 8449 0574 54       		.byte	0x54
 8450 0575 04       		.byte	0x4
 8451 0576 AA06     		.uleb128 .LVL146-.LVL89
 8452 0578 D407     		.uleb128 .LVL156-.LVL89
 8453 057a 01       		.uleb128 0x1
 8454 057b 54       		.byte	0x54
 8455 057c 04       		.byte	0x4
 8456 057d EA07     		.uleb128 .LVL158-.LVL89
 8457 057f 9E0A     		.uleb128 .LVL169-.LVL89
 8458 0581 01       		.uleb128 0x1
 8459 0582 54       		.byte	0x54
 8460 0583 04       		.byte	0x4
 8461 0584 A80A     		.uleb128 .LVL171-.LVL89
 8462 0586 DC0A     		.uleb128 .LVL174-.LVL89
 8463 0588 01       		.uleb128 0x1
 8464 0589 54       		.byte	0x54
 8465 058a 04       		.byte	0x4
 8466 058b 960B     		.uleb128 .LVL180-.LVL89
 8467 058d DE0C     		.uleb128 .LVL189-.LVL89
 8468 058f 01       		.uleb128 0x1
 8469 0590 54       		.byte	0x54
 8470 0591 04       		.byte	0x4
 8471 0592 FE0C     		.uleb128 .LVL196-.LVL89
 8472 0594 9811     		.uleb128 .LFE148-.LVL89
 8473 0596 01       		.uleb128 0x1
 8474 0597 54       		.byte	0x54
 8475 0598 00       		.byte	0
 8476              	.LVUS46:
 8477 0599 00       		.uleb128 .LVU344
 8478 059a 00       		.uleb128 .LVU347
 8479 059b 00       		.uleb128 .LVU347
 8480 059c 00       		.uleb128 .LVU360
 8481 059d 00       		.uleb128 .LVU360
 8482 059e 00       		.uleb128 .LVU362
 8483 059f 00       		.uleb128 .LVU378
 8484 05a0 00       		.uleb128 .LVU387
 8485 05a1 00       		.uleb128 .LVU387
 8486 05a2 00       		.uleb128 .LVU389
 8487 05a3 00       		.uleb128 .LVU394
 8488 05a4 00       		.uleb128 .LVU409
 8489 05a5 00       		.uleb128 .LVU409
 8490 05a6 00       		.uleb128 .LVU412
 8491 05a7 00       		.uleb128 .LVU428
 8492 05a8 00       		.uleb128 .LVU434
 8493 05a9 00       		.uleb128 .LVU434
ARM GAS  C:\Users\DEVELO~1\AppData\Local\Temp\ccbkr0PB.s 			page 150


 8494 05aa 00       		.uleb128 .LVU458
 8495 05ab 00       		.uleb128 .LVU513
 8496 05ac 00       		.uleb128 .LVU552
 8497 05ad 00       		.uleb128 .LVU558
 8498 05ae 00       		.uleb128 .LVU560
 8499 05af 00       		.uleb128 .LVU577
 8500 05b0 00       		.uleb128 .LVU603
 8501 05b1 00       		.uleb128 .LVU603
 8502 05b2 00       		.uleb128 .LVU608
 8503 05b3 00       		.uleb128 .LVU620
 8504 05b4 00       		.uleb128 .LVU625
 8505 05b5 00       		.uleb128 .LVU633
 8506 05b6 00       		.uleb128 .LVU638
 8507 05b7 00       		.uleb128 .LVU638
 8508 05b8 00       		.uleb128 .LVU655
 8509 05b9 00       		.uleb128 .LVU663
 8510 05ba 00       		.uleb128 .LVU680
 8511 05bb 00       		.uleb128 .LVU689
 8512 05bc 00       		.uleb128 .LVU719
 8513 05bd 00       		.uleb128 .LVU722
 8514 05be 00       		.uleb128 .LVU738
 8515 05bf 00       		.uleb128 .LVU762
 8516 05c0 00       		.uleb128 .LVU782
 8517 05c1 00       		.uleb128 .LVU782
 8518 05c2 00       		.uleb128 .LVU787
 8519 05c3 00       		.uleb128 .LVU787
 8520 05c4 00       		.uleb128 .LVU817
 8521 05c5 00       		.uleb128 .LVU831
 8522 05c6 00       		.uleb128 .LVU861
 8523 05c7 00       		.uleb128 .LVU861
 8524 05c8 00       		.uleb128 .LVU870
 8525 05c9 00       		.uleb128 .LVU871
 8526 05ca 00       		.uleb128 .LVU899
 8527 05cb 00       		.uleb128 .LVU901
 8528 05cc 00       		.uleb128 .LVU908
 8529 05cd 00       		.uleb128 .LVU908
 8530 05ce 00       		.uleb128 .LVU912
 8531 05cf 00       		.uleb128 .LVU912
 8532 05d0 00       		.uleb128 .LVU920
 8533 05d1 00       		.uleb128 .LVU920
 8534 05d2 00       		.uleb128 .LVU921
 8535 05d3 00       		.uleb128 .LVU921
 8536 05d4 00       		.uleb128 .LVU923
 8537 05d5 00       		.uleb128 .LVU923
 8538 05d6 00       		.uleb128 .LVU926
 8539 05d7 00       		.uleb128 .LVU926
 8540 05d8 00       		.uleb128 .LVU938
 8541 05d9 00       		.uleb128 .LVU938
 8542 05da 00       		.uleb128 0
 8543              	.LLST46:
 8544 05db 06       		.byte	0x6
 8545 05dc 18010000 		.4byte	.LVL89
 8546 05e0 04       		.byte	0x4
 8547 05e1 00       		.uleb128 .LVL89-.LVL89
 8548 05e2 03       		.uleb128 .LVL90-1-.LVL89
 8549 05e3 01       		.uleb128 0x1
 8550 05e4 50       		.byte	0x50
ARM GAS  C:\Users\DEVELO~1\AppData\Local\Temp\ccbkr0PB.s 			page 151


 8551 05e5 04       		.byte	0x4
 8552 05e6 03       		.uleb128 .LVL90-1-.LVL89
 8553 05e7 38       		.uleb128 .LVL94-.LVL89
 8554 05e8 01       		.uleb128 0x1
 8555 05e9 57       		.byte	0x57
 8556 05ea 04       		.byte	0x4
 8557 05eb 38       		.uleb128 .LVL94-.LVL89
 8558 05ec 44       		.uleb128 .LVL96-.LVL89
 8559 05ed 04       		.uleb128 0x4
 8560 05ee 77       		.byte	0x77
 8561 05ef 8076     		.sleb128 -1280
 8562 05f1 9F       		.byte	0x9f
 8563 05f2 04       		.byte	0x4
 8564 05f3 6A       		.uleb128 .LVL101-.LVL89
 8565 05f4 8601     		.uleb128 .LVL103-.LVL89
 8566 05f6 01       		.uleb128 0x1
 8567 05f7 57       		.byte	0x57
 8568 05f8 04       		.byte	0x4
 8569 05f9 8601     		.uleb128 .LVL103-.LVL89
 8570 05fb 8A01     		.uleb128 .LVL104-.LVL89
 8571 05fd 04       		.uleb128 0x4
 8572 05fe 77       		.byte	0x77
 8573 05ff 8076     		.sleb128 -1280
 8574 0601 9F       		.byte	0x9f
 8575 0602 04       		.byte	0x4
 8576 0603 9A01     		.uleb128 .LVL107-.LVL89
 8577 0605 E001     		.uleb128 .LVL114-.LVL89
 8578 0607 01       		.uleb128 0x1
 8579 0608 57       		.byte	0x57
 8580 0609 04       		.byte	0x4
 8581 060a E001     		.uleb128 .LVL114-.LVL89
 8582 060c E601     		.uleb128 .LVL115-.LVL89
 8583 060e 04       		.uleb128 0x4
 8584 060f 77       		.byte	0x77
 8585 0610 8076     		.sleb128 -1280
 8586 0612 9F       		.byte	0x9f
 8587 0613 04       		.byte	0x4
 8588 0614 9802     		.uleb128 .LVL117-.LVL89
 8589 0616 B802     		.uleb128 .LVL119-.LVL89
 8590 0618 01       		.uleb128 0x1
 8591 0619 57       		.byte	0x57
 8592 061a 04       		.byte	0x4
 8593 061b B802     		.uleb128 .LVL119-.LVL89
 8594 061d FA02     		.uleb128 .LVL120-.LVL89
 8595 061f 04       		.uleb128 0x4
 8596 0620 70       		.byte	0x70
 8597 0621 8076     		.sleb128 -1280
 8598 0623 9F       		.byte	0x9f
 8599 0624 04       		.byte	0x4
 8600 0625 9A04     		.uleb128 .LVL128-.LVL89
 8601 0627 CA05     		.uleb128 .LVL137-.LVL89
 8602 0629 01       		.uleb128 0x1
 8603 062a 57       		.byte	0x57
 8604 062b 04       		.byte	0x4
 8605 062c DE05     		.uleb128 .LVL138-.LVL89
 8606 062e E005     		.uleb128 .LVL139-.LVL89
 8607 0630 04       		.uleb128 0x4
ARM GAS  C:\Users\DEVELO~1\AppData\Local\Temp\ccbkr0PB.s 			page 152


 8608 0631 70       		.byte	0x70
 8609 0632 8076     		.sleb128 -1280
 8610 0634 9F       		.byte	0x9f
 8611 0635 04       		.byte	0x4
 8612 0636 AA06     		.uleb128 .LVL146-.LVL89
 8613 0638 8007     		.uleb128 .LVL150-.LVL89
 8614 063a 01       		.uleb128 0x1
 8615 063b 57       		.byte	0x57
 8616 063c 04       		.byte	0x4
 8617 063d 8007     		.uleb128 .LVL150-.LVL89
 8618 063f 9007     		.uleb128 .LVL151-.LVL89
 8619 0641 04       		.uleb128 0x4
 8620 0642 70       		.byte	0x70
 8621 0643 8076     		.sleb128 -1280
 8622 0645 9F       		.byte	0x9f
 8623 0646 04       		.byte	0x4
 8624 0647 B607     		.uleb128 .LVL154-.LVL89
 8625 0649 D407     		.uleb128 .LVL156-.LVL89
 8626 064b 01       		.uleb128 0x1
 8627 064c 57       		.byte	0x57
 8628 064d 04       		.byte	0x4
 8629 064e EA07     		.uleb128 .LVL158-.LVL89
 8630 0650 8008     		.uleb128 .LVL160-.LVL89
 8631 0652 01       		.uleb128 0x1
 8632 0653 57       		.byte	0x57
 8633 0654 04       		.byte	0x4
 8634 0655 8008     		.uleb128 .LVL160-.LVL89
 8635 0657 E008     		.uleb128 .LVL161-.LVL89
 8636 0659 04       		.uleb128 0x4
 8637 065a 77       		.byte	0x77
 8638 065b 8076     		.sleb128 -1280
 8639 065d 9F       		.byte	0x9f
 8640 065e 04       		.byte	0x4
 8641 065f 8009     		.uleb128 .LVL163-.LVL89
 8642 0661 A609     		.uleb128 .LVL164-.LVL89
 8643 0663 04       		.uleb128 0x4
 8644 0664 77       		.byte	0x77
 8645 0665 8076     		.sleb128 -1280
 8646 0667 9F       		.byte	0x9f
 8647 0668 04       		.byte	0x4
 8648 0669 B809     		.uleb128 .LVL168-.LVL89
 8649 066b 9E0A     		.uleb128 .LVL169-.LVL89
 8650 066d 04       		.uleb128 0x4
 8651 066e 77       		.byte	0x77
 8652 066f 8076     		.sleb128 -1280
 8653 0671 9F       		.byte	0x9f
 8654 0672 04       		.byte	0x4
 8655 0673 A80A     		.uleb128 .LVL171-.LVL89
 8656 0675 DC0A     		.uleb128 .LVL174-.LVL89
 8657 0677 01       		.uleb128 0x1
 8658 0678 57       		.byte	0x57
 8659 0679 04       		.byte	0x4
 8660 067a 960B     		.uleb128 .LVL180-.LVL89
 8661 067c E60B     		.uleb128 .LVL184-.LVL89
 8662 067e 01       		.uleb128 0x1
 8663 067f 57       		.byte	0x57
 8664 0680 04       		.byte	0x4
ARM GAS  C:\Users\DEVELO~1\AppData\Local\Temp\ccbkr0PB.s 			page 153


 8665 0681 E60B     		.uleb128 .LVL184-.LVL89
 8666 0683 F40B     		.uleb128 .LVL185-.LVL89
 8667 0685 04       		.uleb128 0x4
 8668 0686 77       		.byte	0x77
 8669 0687 8076     		.sleb128 -1280
 8670 0689 9F       		.byte	0x9f
 8671 068a 04       		.byte	0x4
 8672 068b F40B     		.uleb128 .LVL185-.LVL89
 8673 068d DE0C     		.uleb128 .LVL189-.LVL89
 8674 068f 01       		.uleb128 0x1
 8675 0690 57       		.byte	0x57
 8676 0691 04       		.byte	0x4
 8677 0692 FE0C     		.uleb128 .LVL196-.LVL89
 8678 0694 D60D     		.uleb128 .LVL199-.LVL89
 8679 0696 01       		.uleb128 0x1
 8680 0697 57       		.byte	0x57
 8681 0698 04       		.byte	0x4
 8682 0699 D60D     		.uleb128 .LVL199-.LVL89
 8683 069b EA0D     		.uleb128 .LVL203-.LVL89
 8684 069d 04       		.uleb128 0x4
 8685 069e 77       		.byte	0x77
 8686 069f 8076     		.sleb128 -1280
 8687 06a1 9F       		.byte	0x9f
 8688 06a2 04       		.byte	0x4
 8689 06a3 F20D     		.uleb128 .LVL204-.LVL89
 8690 06a5 BA0E     		.uleb128 .LVL205-.LVL89
 8691 06a7 04       		.uleb128 0x4
 8692 06a8 77       		.byte	0x77
 8693 06a9 8076     		.sleb128 -1280
 8694 06ab 9F       		.byte	0x9f
 8695 06ac 04       		.byte	0x4
 8696 06ad C40E     		.uleb128 .LVL206-.LVL89
 8697 06af D20E     		.uleb128 .LVL208-.LVL89
 8698 06b1 01       		.uleb128 0x1
 8699 06b2 57       		.byte	0x57
 8700 06b3 04       		.byte	0x4
 8701 06b4 D20E     		.uleb128 .LVL208-.LVL89
 8702 06b6 DC0E     		.uleb128 .LVL209-.LVL89
 8703 06b8 04       		.uleb128 0x4
 8704 06b9 77       		.byte	0x77
 8705 06ba 8076     		.sleb128 -1280
 8706 06bc 9F       		.byte	0x9f
 8707 06bd 04       		.byte	0x4
 8708 06be DC0E     		.uleb128 .LVL209-.LVL89
 8709 06c0 EC0E     		.uleb128 .LVL210-.LVL89
 8710 06c2 01       		.uleb128 0x1
 8711 06c3 57       		.byte	0x57
 8712 06c4 04       		.byte	0x4
 8713 06c5 EC0E     		.uleb128 .LVL210-.LVL89
 8714 06c7 F20E     		.uleb128 .LVL212-.LVL89
 8715 06c9 04       		.uleb128 0x4
 8716 06ca 77       		.byte	0x77
 8717 06cb 8076     		.sleb128 -1280
 8718 06cd 9F       		.byte	0x9f
 8719 06ce 04       		.byte	0x4
 8720 06cf F20E     		.uleb128 .LVL212-.LVL89
 8721 06d1 F80E     		.uleb128 .LVL213-.LVL89
ARM GAS  C:\Users\DEVELO~1\AppData\Local\Temp\ccbkr0PB.s 			page 154


 8722 06d3 01       		.uleb128 0x1
 8723 06d4 57       		.byte	0x57
 8724 06d5 04       		.byte	0x4
 8725 06d6 F80E     		.uleb128 .LVL213-.LVL89
 8726 06d8 840F     		.uleb128 .LVL215-.LVL89
 8727 06da 04       		.uleb128 0x4
 8728 06db 77       		.byte	0x77
 8729 06dc 8076     		.sleb128 -1280
 8730 06de 9F       		.byte	0x9f
 8731 06df 04       		.byte	0x4
 8732 06e0 840F     		.uleb128 .LVL215-.LVL89
 8733 06e2 C00F     		.uleb128 .LVL219-.LVL89
 8734 06e4 01       		.uleb128 0x1
 8735 06e5 57       		.byte	0x57
 8736 06e6 04       		.byte	0x4
 8737 06e7 C00F     		.uleb128 .LVL219-.LVL89
 8738 06e9 9811     		.uleb128 .LFE148-.LVL89
 8739 06eb 04       		.uleb128 0x4
 8740 06ec 77       		.byte	0x77
 8741 06ed 8076     		.sleb128 -1280
 8742 06ef 9F       		.byte	0x9f
 8743 06f0 00       		.byte	0
 8744              	.LVUS49:
 8745 06f1 01       		.uleb128 .LVU468
 8746 06f2 00       		.uleb128 .LVU513
 8747 06f3 00       		.uleb128 .LVU574
 8748 06f4 00       		.uleb128 .LVU577
 8749 06f5 00       		.uleb128 .LVU625
 8750 06f6 00       		.uleb128 .LVU633
 8751              	.LLST49:
 8752 06f7 06       		.byte	0x6
 8753 06f8 BE020000 		.4byte	.LVL124
 8754 06fc 04       		.byte	0x4
 8755 06fd 00       		.uleb128 .LVL124-.LVL124
 8756 06fe 74       		.uleb128 .LVL128-.LVL124
 8757 06ff 01       		.uleb128 0x1
 8758 0700 54       		.byte	0x54
 8759 0701 04       		.byte	0x4
 8760 0702 F402     		.uleb128 .LVL143-.LVL124
 8761 0704 8403     		.uleb128 .LVL146-.LVL124
 8762 0706 01       		.uleb128 0x1
 8763 0707 54       		.byte	0x54
 8764 0708 04       		.byte	0x4
 8765 0709 AE04     		.uleb128 .LVL156-.LVL124
 8766 070b C404     		.uleb128 .LVL158-.LVL124
 8767 070d 01       		.uleb128 0x1
 8768 070e 54       		.byte	0x54
 8769 070f 00       		.byte	0
 8770              	.LVUS50:
 8771 0710 03       		.uleb128 .LVU470
 8772 0711 00       		.uleb128 .LVU488
 8773 0712 00       		.uleb128 .LVU488
 8774 0713 00       		.uleb128 .LVU513
 8775 0714 00       		.uleb128 .LVU574
 8776 0715 00       		.uleb128 .LVU577
 8777 0716 00       		.uleb128 .LVU625
 8778 0717 00       		.uleb128 .LVU633
ARM GAS  C:\Users\DEVELO~1\AppData\Local\Temp\ccbkr0PB.s 			page 155


 8779              	.LLST50:
 8780 0718 06       		.byte	0x6
 8781 0719 BE020000 		.4byte	.LVL124
 8782 071d 04       		.byte	0x4
 8783 071e 00       		.uleb128 .LVL124-.LVL124
 8784 071f 24       		.uleb128 .LVL126-.LVL124
 8785 0720 02       		.uleb128 0x2
 8786 0721 74       		.byte	0x74
 8787 0722 00       		.sleb128 0
 8788 0723 04       		.byte	0x4
 8789 0724 24       		.uleb128 .LVL126-.LVL124
 8790 0725 74       		.uleb128 .LVL128-.LVL124
 8791 0726 01       		.uleb128 0x1
 8792 0727 56       		.byte	0x56
 8793 0728 04       		.byte	0x4
 8794 0729 F402     		.uleb128 .LVL143-.LVL124
 8795 072b 8403     		.uleb128 .LVL146-.LVL124
 8796 072d 01       		.uleb128 0x1
 8797 072e 56       		.byte	0x56
 8798 072f 04       		.byte	0x4
 8799 0730 AE04     		.uleb128 .LVL156-.LVL124
 8800 0732 C404     		.uleb128 .LVL158-.LVL124
 8801 0734 01       		.uleb128 0x1
 8802 0735 56       		.byte	0x56
 8803 0736 00       		.byte	0
 8804              	.LVUS51:
 8805 0737 00       		.uleb128 .LVU472
 8806 0738 00       		.uleb128 .LVU488
 8807 0739 00       		.uleb128 .LVU488
 8808 073a 00       		.uleb128 .LVU513
 8809 073b 00       		.uleb128 .LVU574
 8810 073c 00       		.uleb128 .LVU577
 8811 073d 00       		.uleb128 .LVU625
 8812 073e 00       		.uleb128 .LVU633
 8813              	.LLST51:
 8814 073f 06       		.byte	0x6
 8815 0740 C0020000 		.4byte	.LVL125
 8816 0744 04       		.byte	0x4
 8817 0745 00       		.uleb128 .LVL125-.LVL125
 8818 0746 22       		.uleb128 .LVL126-.LVL125
 8819 0747 02       		.uleb128 0x2
 8820 0748 74       		.byte	0x74
 8821 0749 00       		.sleb128 0
 8822 074a 04       		.byte	0x4
 8823 074b 22       		.uleb128 .LVL126-.LVL125
 8824 074c 72       		.uleb128 .LVL128-.LVL125
 8825 074d 01       		.uleb128 0x1
 8826 074e 56       		.byte	0x56
 8827 074f 04       		.byte	0x4
 8828 0750 F202     		.uleb128 .LVL143-.LVL125
 8829 0752 8203     		.uleb128 .LVL146-.LVL125
 8830 0754 01       		.uleb128 0x1
 8831 0755 56       		.byte	0x56
 8832 0756 04       		.byte	0x4
 8833 0757 AC04     		.uleb128 .LVL156-.LVL125
 8834 0759 C204     		.uleb128 .LVL158-.LVL125
 8835 075b 01       		.uleb128 0x1
ARM GAS  C:\Users\DEVELO~1\AppData\Local\Temp\ccbkr0PB.s 			page 156


 8836 075c 56       		.byte	0x56
 8837 075d 00       		.byte	0
 8838              	.LVUS17:
 8839 075e 00       		.uleb128 0
 8840 075f 00       		.uleb128 .LVU191
 8841 0760 00       		.uleb128 .LVU191
 8842 0761 00       		.uleb128 .LVU192
 8843 0762 00       		.uleb128 .LVU192
 8844 0763 00       		.uleb128 0
 8845              	.LLST17:
 8846 0764 06       		.byte	0x6
 8847 0765 00000000 		.4byte	.LVL38
 8848 0769 04       		.byte	0x4
 8849 076a 00       		.uleb128 .LVL38-.LVL38
 8850 076b 62       		.uleb128 .LVL42-.LVL38
 8851 076c 01       		.uleb128 0x1
 8852 076d 50       		.byte	0x50
 8853 076e 04       		.byte	0x4
 8854 076f 62       		.uleb128 .LVL42-.LVL38
 8855 0770 66       		.uleb128 .LVL43-.LVL38
 8856 0771 04       		.uleb128 0x4
 8857 0772 A3       		.byte	0xa3
 8858 0773 01       		.uleb128 0x1
 8859 0774 50       		.byte	0x50
 8860 0775 9F       		.byte	0x9f
 8861 0776 04       		.byte	0x4
 8862 0777 66       		.uleb128 .LVL43-.LVL38
 8863 0778 E001     		.uleb128 .LFE147-.LVL38
 8864 077a 01       		.uleb128 0x1
 8865 077b 50       		.byte	0x50
 8866 077c 00       		.byte	0
 8867              	.LVUS18:
 8868 077d 00       		.uleb128 0
 8869 077e 00       		.uleb128 .LVU179
 8870 077f 00       		.uleb128 .LVU179
 8871 0780 00       		.uleb128 .LVU192
 8872 0781 00       		.uleb128 .LVU192
 8873 0782 00       		.uleb128 .LVU192
 8874 0783 00       		.uleb128 .LVU192
 8875 0784 00       		.uleb128 0
 8876              	.LLST18:
 8877 0785 06       		.byte	0x6
 8878 0786 00000000 		.4byte	.LVL38
 8879 078a 04       		.byte	0x4
 8880 078b 00       		.uleb128 .LVL38-.LVL38
 8881 078c 4E       		.uleb128 .LVL40-.LVL38
 8882 078d 01       		.uleb128 0x1
 8883 078e 51       		.byte	0x51
 8884 078f 04       		.byte	0x4
 8885 0790 4E       		.uleb128 .LVL40-.LVL38
 8886 0791 65       		.uleb128 .LVL43-1-.LVL38
 8887 0792 02       		.uleb128 0x2
 8888 0793 73       		.byte	0x73
 8889 0794 15       		.sleb128 21
 8890 0795 04       		.byte	0x4
 8891 0796 65       		.uleb128 .LVL43-1-.LVL38
 8892 0797 66       		.uleb128 .LVL43-.LVL38
ARM GAS  C:\Users\DEVELO~1\AppData\Local\Temp\ccbkr0PB.s 			page 157


 8893 0798 04       		.uleb128 0x4
 8894 0799 A3       		.byte	0xa3
 8895 079a 01       		.uleb128 0x1
 8896 079b 51       		.byte	0x51
 8897 079c 9F       		.byte	0x9f
 8898 079d 04       		.byte	0x4
 8899 079e 66       		.uleb128 .LVL43-.LVL38
 8900 079f E001     		.uleb128 .LFE147-.LVL38
 8901 07a1 01       		.uleb128 0x1
 8902 07a2 51       		.byte	0x51
 8903 07a3 00       		.byte	0
 8904              	.LVUS19:
 8905 07a4 00       		.uleb128 0
 8906 07a5 00       		.uleb128 .LVU172
 8907 07a6 00       		.uleb128 .LVU172
 8908 07a7 00       		.uleb128 .LVU192
 8909 07a8 00       		.uleb128 .LVU192
 8910 07a9 00       		.uleb128 .LVU203
 8911 07aa 00       		.uleb128 .LVU203
 8912 07ab 00       		.uleb128 .LVU204
 8913 07ac 00       		.uleb128 .LVU204
 8914 07ad 00       		.uleb128 .LVU205
 8915 07ae 00       		.uleb128 .LVU205
 8916 07af 00       		.uleb128 .LVU208
 8917 07b0 00       		.uleb128 .LVU208
 8918 07b1 00       		.uleb128 .LVU210
 8919 07b2 00       		.uleb128 .LVU210
 8920 07b3 00       		.uleb128 .LVU211
 8921 07b4 00       		.uleb128 .LVU211
 8922 07b5 00       		.uleb128 .LVU213
 8923 07b6 00       		.uleb128 .LVU213
 8924 07b7 00       		.uleb128 .LVU216
 8925 07b8 00       		.uleb128 .LVU216
 8926 07b9 00       		.uleb128 .LVU217
 8927 07ba 00       		.uleb128 .LVU217
 8928 07bb 00       		.uleb128 .LVU230
 8929 07bc 00       		.uleb128 .LVU230
 8930 07bd 00       		.uleb128 .LVU233
 8931 07be 00       		.uleb128 .LVU233
 8932 07bf 00       		.uleb128 0
 8933              	.LLST19:
 8934 07c0 06       		.byte	0x6
 8935 07c1 00000000 		.4byte	.LVL38
 8936 07c5 04       		.byte	0x4
 8937 07c6 00       		.uleb128 .LVL38-.LVL38
 8938 07c7 3C       		.uleb128 .LVL39-.LVL38
 8939 07c8 01       		.uleb128 0x1
 8940 07c9 52       		.byte	0x52
 8941 07ca 04       		.byte	0x4
 8942 07cb 3C       		.uleb128 .LVL39-.LVL38
 8943 07cc 66       		.uleb128 .LVL43-.LVL38
 8944 07cd 04       		.uleb128 0x4
 8945 07ce A3       		.byte	0xa3
 8946 07cf 01       		.uleb128 0x1
 8947 07d0 52       		.byte	0x52
 8948 07d1 9F       		.byte	0x9f
 8949 07d2 04       		.byte	0x4
ARM GAS  C:\Users\DEVELO~1\AppData\Local\Temp\ccbkr0PB.s 			page 158


 8950 07d3 66       		.uleb128 .LVL43-.LVL38
 8951 07d4 8A01     		.uleb128 .LVL45-.LVL38
 8952 07d6 01       		.uleb128 0x1
 8953 07d7 52       		.byte	0x52
 8954 07d8 04       		.byte	0x4
 8955 07d9 8A01     		.uleb128 .LVL45-.LVL38
 8956 07db 8E01     		.uleb128 .LVL46-.LVL38
 8957 07dd 02       		.uleb128 0x2
 8958 07de 7E       		.byte	0x7e
 8959 07df 17       		.sleb128 23
 8960 07e0 04       		.byte	0x4
 8961 07e1 8E01     		.uleb128 .LVL46-.LVL38
 8962 07e3 9001     		.uleb128 .LVL47-.LVL38
 8963 07e5 04       		.uleb128 0x4
 8964 07e6 A3       		.byte	0xa3
 8965 07e7 01       		.uleb128 0x1
 8966 07e8 52       		.byte	0x52
 8967 07e9 9F       		.byte	0x9f
 8968 07ea 04       		.byte	0x4
 8969 07eb 9001     		.uleb128 .LVL47-.LVL38
 8970 07ed 9601     		.uleb128 .LVL49-.LVL38
 8971 07ef 01       		.uleb128 0x1
 8972 07f0 52       		.byte	0x52
 8973 07f1 04       		.byte	0x4
 8974 07f2 9601     		.uleb128 .LVL49-.LVL38
 8975 07f4 9E01     		.uleb128 .LVL50-.LVL38
 8976 07f6 02       		.uleb128 0x2
 8977 07f7 7E       		.byte	0x7e
 8978 07f8 17       		.sleb128 23
 8979 07f9 04       		.byte	0x4
 8980 07fa 9E01     		.uleb128 .LVL50-.LVL38
 8981 07fc A001     		.uleb128 .LVL51-.LVL38
 8982 07fe 04       		.uleb128 0x4
 8983 07ff A3       		.byte	0xa3
 8984 0800 01       		.uleb128 0x1
 8985 0801 52       		.byte	0x52
 8986 0802 9F       		.byte	0x9f
 8987 0803 04       		.byte	0x4
 8988 0804 A001     		.uleb128 .LVL51-.LVL38
 8989 0806 A401     		.uleb128 .LVL52-.LVL38
 8990 0808 01       		.uleb128 0x1
 8991 0809 52       		.byte	0x52
 8992 080a 04       		.byte	0x4
 8993 080b A401     		.uleb128 .LVL52-.LVL38
 8994 080d AE01     		.uleb128 .LVL53-.LVL38
 8995 080f 02       		.uleb128 0x2
 8996 0810 7E       		.byte	0x7e
 8997 0811 17       		.sleb128 23
 8998 0812 04       		.byte	0x4
 8999 0813 AE01     		.uleb128 .LVL53-.LVL38
 9000 0815 B001     		.uleb128 .LVL54-.LVL38
 9001 0817 04       		.uleb128 0x4
 9002 0818 A3       		.byte	0xa3
 9003 0819 01       		.uleb128 0x1
 9004 081a 52       		.byte	0x52
 9005 081b 9F       		.byte	0x9f
 9006 081c 04       		.byte	0x4
ARM GAS  C:\Users\DEVELO~1\AppData\Local\Temp\ccbkr0PB.s 			page 159


 9007 081d B001     		.uleb128 .LVL54-.LVL38
 9008 081f C801     		.uleb128 .LVL58-.LVL38
 9009 0821 01       		.uleb128 0x1
 9010 0822 52       		.byte	0x52
 9011 0823 04       		.byte	0x4
 9012 0824 C801     		.uleb128 .LVL58-.LVL38
 9013 0826 D601     		.uleb128 .LVL59-.LVL38
 9014 0828 02       		.uleb128 0x2
 9015 0829 7E       		.byte	0x7e
 9016 082a 17       		.sleb128 23
 9017 082b 04       		.byte	0x4
 9018 082c D601     		.uleb128 .LVL59-.LVL38
 9019 082e E001     		.uleb128 .LFE147-.LVL38
 9020 0830 01       		.uleb128 0x1
 9021 0831 52       		.byte	0x52
 9022 0832 00       		.byte	0
 9023              	.LVUS20:
 9024 0833 00       		.uleb128 0
 9025 0834 00       		.uleb128 .LVU172
 9026 0835 00       		.uleb128 .LVU172
 9027 0836 00       		.uleb128 .LVU192
 9028 0837 00       		.uleb128 .LVU192
 9029 0838 00       		.uleb128 .LVU197
 9030 0839 00       		.uleb128 .LVU197
 9031 083a 00       		.uleb128 .LVU204
 9032 083b 00       		.uleb128 .LVU204
 9033 083c 00       		.uleb128 .LVU205
 9034 083d 00       		.uleb128 .LVU205
 9035 083e 00       		.uleb128 .LVU207
 9036 083f 00       		.uleb128 .LVU207
 9037 0840 00       		.uleb128 .LVU210
 9038 0841 00       		.uleb128 .LVU210
 9039 0842 00       		.uleb128 .LVU211
 9040 0843 00       		.uleb128 .LVU211
 9041 0844 00       		.uleb128 .LVU216
 9042 0845 00       		.uleb128 .LVU216
 9043 0846 00       		.uleb128 .LVU217
 9044 0847 00       		.uleb128 .LVU217
 9045 0848 00       		.uleb128 .LVU221
 9046 0849 00       		.uleb128 .LVU221
 9047 084a 00       		.uleb128 .LVU227
 9048 084b 00       		.uleb128 .LVU227
 9049 084c 00       		.uleb128 .LVU228
 9050 084d 00       		.uleb128 .LVU228
 9051 084e 00       		.uleb128 0
 9052              	.LLST20:
 9053 084f 06       		.byte	0x6
 9054 0850 00000000 		.4byte	.LVL38
 9055 0854 04       		.byte	0x4
 9056 0855 00       		.uleb128 .LVL38-.LVL38
 9057 0856 3C       		.uleb128 .LVL39-.LVL38
 9058 0857 01       		.uleb128 0x1
 9059 0858 53       		.byte	0x53
 9060 0859 04       		.byte	0x4
 9061 085a 3C       		.uleb128 .LVL39-.LVL38
 9062 085b 66       		.uleb128 .LVL43-.LVL38
 9063 085c 04       		.uleb128 0x4
ARM GAS  C:\Users\DEVELO~1\AppData\Local\Temp\ccbkr0PB.s 			page 160


 9064 085d A3       		.byte	0xa3
 9065 085e 01       		.uleb128 0x1
 9066 085f 53       		.byte	0x53
 9067 0860 9F       		.byte	0x9f
 9068 0861 04       		.byte	0x4
 9069 0862 66       		.uleb128 .LVL43-.LVL38
 9070 0863 7C       		.uleb128 .LVL44-.LVL38
 9071 0864 01       		.uleb128 0x1
 9072 0865 53       		.byte	0x53
 9073 0866 04       		.byte	0x4
 9074 0867 7C       		.uleb128 .LVL44-.LVL38
 9075 0868 8E01     		.uleb128 .LVL46-.LVL38
 9076 086a 02       		.uleb128 0x2
 9077 086b 7E       		.byte	0x7e
 9078 086c 26       		.sleb128 38
 9079 086d 04       		.byte	0x4
 9080 086e 8E01     		.uleb128 .LVL46-.LVL38
 9081 0870 9001     		.uleb128 .LVL47-.LVL38
 9082 0872 04       		.uleb128 0x4
 9083 0873 A3       		.byte	0xa3
 9084 0874 01       		.uleb128 0x1
 9085 0875 53       		.byte	0x53
 9086 0876 9F       		.byte	0x9f
 9087 0877 04       		.byte	0x4
 9088 0878 9001     		.uleb128 .LVL47-.LVL38
 9089 087a 9401     		.uleb128 .LVL48-.LVL38
 9090 087c 01       		.uleb128 0x1
 9091 087d 53       		.byte	0x53
 9092 087e 04       		.byte	0x4
 9093 087f 9401     		.uleb128 .LVL48-.LVL38
 9094 0881 9E01     		.uleb128 .LVL50-.LVL38
 9095 0883 02       		.uleb128 0x2
 9096 0884 7E       		.byte	0x7e
 9097 0885 26       		.sleb128 38
 9098 0886 04       		.byte	0x4
 9099 0887 9E01     		.uleb128 .LVL50-.LVL38
 9100 0889 A001     		.uleb128 .LVL51-.LVL38
 9101 088b 04       		.uleb128 0x4
 9102 088c A3       		.byte	0xa3
 9103 088d 01       		.uleb128 0x1
 9104 088e 53       		.byte	0x53
 9105 088f 9F       		.byte	0x9f
 9106 0890 04       		.byte	0x4
 9107 0891 A001     		.uleb128 .LVL51-.LVL38
 9108 0893 AE01     		.uleb128 .LVL53-.LVL38
 9109 0895 02       		.uleb128 0x2
 9110 0896 7E       		.byte	0x7e
 9111 0897 26       		.sleb128 38
 9112 0898 04       		.byte	0x4
 9113 0899 AE01     		.uleb128 .LVL53-.LVL38
 9114 089b B001     		.uleb128 .LVL54-.LVL38
 9115 089d 04       		.uleb128 0x4
 9116 089e A3       		.byte	0xa3
 9117 089f 01       		.uleb128 0x1
 9118 08a0 53       		.byte	0x53
 9119 08a1 9F       		.byte	0x9f
 9120 08a2 04       		.byte	0x4
ARM GAS  C:\Users\DEVELO~1\AppData\Local\Temp\ccbkr0PB.s 			page 161


 9121 08a3 B001     		.uleb128 .LVL54-.LVL38
 9122 08a5 B801     		.uleb128 .LVL55-.LVL38
 9123 08a7 01       		.uleb128 0x1
 9124 08a8 53       		.byte	0x53
 9125 08a9 04       		.byte	0x4
 9126 08aa B801     		.uleb128 .LVL55-.LVL38
 9127 08ac C401     		.uleb128 .LVL56-.LVL38
 9128 08ae 02       		.uleb128 0x2
 9129 08af 7E       		.byte	0x7e
 9130 08b0 26       		.sleb128 38
 9131 08b1 04       		.byte	0x4
 9132 08b2 C401     		.uleb128 .LVL56-.LVL38
 9133 08b4 C601     		.uleb128 .LVL57-.LVL38
 9134 08b6 04       		.uleb128 0x4
 9135 08b7 A3       		.byte	0xa3
 9136 08b8 01       		.uleb128 0x1
 9137 08b9 53       		.byte	0x53
 9138 08ba 9F       		.byte	0x9f
 9139 08bb 04       		.byte	0x4
 9140 08bc C601     		.uleb128 .LVL57-.LVL38
 9141 08be E001     		.uleb128 .LFE147-.LVL38
 9142 08c0 02       		.uleb128 0x2
 9143 08c1 7E       		.byte	0x7e
 9144 08c2 26       		.sleb128 38
 9145 08c3 00       		.byte	0
 9146              	.LVUS21:
 9147 08c4 00       		.uleb128 0
 9148 08c5 00       		.uleb128 .LVU190
 9149 08c6 00       		.uleb128 .LVU190
 9150 08c7 00       		.uleb128 .LVU192
 9151 08c8 00       		.uleb128 .LVU192
 9152 08c9 00       		.uleb128 0
 9153              	.LLST21:
 9154 08ca 06       		.byte	0x6
 9155 08cb 00000000 		.4byte	.LVL38
 9156 08cf 04       		.byte	0x4
 9157 08d0 00       		.uleb128 .LVL38-.LVL38
 9158 08d1 5E       		.uleb128 .LVL41-.LVL38
 9159 08d2 02       		.uleb128 0x2
 9160 08d3 91       		.byte	0x91
 9161 08d4 00       		.sleb128 0
 9162 08d5 04       		.byte	0x4
 9163 08d6 5E       		.uleb128 .LVL41-.LVL38
 9164 08d7 66       		.uleb128 .LVL43-.LVL38
 9165 08d8 02       		.uleb128 0x2
 9166 08d9 7D       		.byte	0x7d
 9167 08da 00       		.sleb128 0
 9168 08db 04       		.byte	0x4
 9169 08dc 66       		.uleb128 .LVL43-.LVL38
 9170 08dd E001     		.uleb128 .LFE147-.LVL38
 9171 08df 02       		.uleb128 0x2
 9172 08e0 91       		.byte	0x91
 9173 08e1 00       		.sleb128 0
 9174 08e2 00       		.byte	0
 9175              	.LVUS22:
 9176 08e3 00       		.uleb128 0
 9177 08e4 00       		.uleb128 .LVU190
ARM GAS  C:\Users\DEVELO~1\AppData\Local\Temp\ccbkr0PB.s 			page 162


 9178 08e5 00       		.uleb128 .LVU190
 9179 08e6 00       		.uleb128 .LVU192
 9180 08e7 00       		.uleb128 .LVU192
 9181 08e8 00       		.uleb128 0
 9182              	.LLST22:
 9183 08e9 06       		.byte	0x6
 9184 08ea 00000000 		.4byte	.LVL38
 9185 08ee 04       		.byte	0x4
 9186 08ef 00       		.uleb128 .LVL38-.LVL38
 9187 08f0 5E       		.uleb128 .LVL41-.LVL38
 9188 08f1 02       		.uleb128 0x2
 9189 08f2 91       		.byte	0x91
 9190 08f3 04       		.sleb128 4
 9191 08f4 04       		.byte	0x4
 9192 08f5 5E       		.uleb128 .LVL41-.LVL38
 9193 08f6 66       		.uleb128 .LVL43-.LVL38
 9194 08f7 02       		.uleb128 0x2
 9195 08f8 7D       		.byte	0x7d
 9196 08f9 04       		.sleb128 4
 9197 08fa 04       		.byte	0x4
 9198 08fb 66       		.uleb128 .LVL43-.LVL38
 9199 08fc E001     		.uleb128 .LFE147-.LVL38
 9200 08fe 02       		.uleb128 0x2
 9201 08ff 91       		.byte	0x91
 9202 0900 04       		.sleb128 4
 9203 0901 00       		.byte	0
 9204              	.LVUS23:
 9205 0902 00       		.uleb128 0
 9206 0903 00       		.uleb128 .LVU190
 9207 0904 00       		.uleb128 .LVU190
 9208 0905 00       		.uleb128 .LVU192
 9209 0906 00       		.uleb128 .LVU192
 9210 0907 00       		.uleb128 0
 9211              	.LLST23:
 9212 0908 06       		.byte	0x6
 9213 0909 00000000 		.4byte	.LVL38
 9214 090d 04       		.byte	0x4
 9215 090e 00       		.uleb128 .LVL38-.LVL38
 9216 090f 5E       		.uleb128 .LVL41-.LVL38
 9217 0910 02       		.uleb128 0x2
 9218 0911 91       		.byte	0x91
 9219 0912 08       		.sleb128 8
 9220 0913 04       		.byte	0x4
 9221 0914 5E       		.uleb128 .LVL41-.LVL38
 9222 0915 66       		.uleb128 .LVL43-.LVL38
 9223 0916 02       		.uleb128 0x2
 9224 0917 7D       		.byte	0x7d
 9225 0918 08       		.sleb128 8
 9226 0919 04       		.byte	0x4
 9227 091a 66       		.uleb128 .LVL43-.LVL38
 9228 091b E001     		.uleb128 .LFE147-.LVL38
 9229 091d 02       		.uleb128 0x2
 9230 091e 91       		.byte	0x91
 9231 091f 08       		.sleb128 8
 9232 0920 00       		.byte	0
 9233              	.LVUS24:
 9234 0921 00       		.uleb128 0
ARM GAS  C:\Users\DEVELO~1\AppData\Local\Temp\ccbkr0PB.s 			page 163


 9235 0922 00       		.uleb128 .LVU190
 9236 0923 00       		.uleb128 .LVU190
 9237 0924 00       		.uleb128 .LVU192
 9238 0925 00       		.uleb128 .LVU192
 9239 0926 00       		.uleb128 0
 9240              	.LLST24:
 9241 0927 06       		.byte	0x6
 9242 0928 00000000 		.4byte	.LVL38
 9243 092c 04       		.byte	0x4
 9244 092d 00       		.uleb128 .LVL38-.LVL38
 9245 092e 5E       		.uleb128 .LVL41-.LVL38
 9246 092f 02       		.uleb128 0x2
 9247 0930 91       		.byte	0x91
 9248 0931 0C       		.sleb128 12
 9249 0932 04       		.byte	0x4
 9250 0933 5E       		.uleb128 .LVL41-.LVL38
 9251 0934 66       		.uleb128 .LVL43-.LVL38
 9252 0935 02       		.uleb128 0x2
 9253 0936 7D       		.byte	0x7d
 9254 0937 0C       		.sleb128 12
 9255 0938 04       		.byte	0x4
 9256 0939 66       		.uleb128 .LVL43-.LVL38
 9257 093a E001     		.uleb128 .LFE147-.LVL38
 9258 093c 02       		.uleb128 0x2
 9259 093d 91       		.byte	0x91
 9260 093e 0C       		.sleb128 12
 9261 093f 00       		.byte	0
 9262              	.LVUS16:
 9263 0940 00       		.uleb128 0
 9264 0941 00       		.uleb128 .LVU144
 9265 0942 00       		.uleb128 .LVU144
 9266 0943 00       		.uleb128 .LVU151
 9267 0944 00       		.uleb128 .LVU151
 9268 0945 00       		.uleb128 .LVU152
 9269 0946 00       		.uleb128 .LVU152
 9270 0947 00       		.uleb128 0
 9271              	.LLST16:
 9272 0948 06       		.byte	0x6
 9273 0949 00000000 		.4byte	.LVL33
 9274 094d 04       		.byte	0x4
 9275 094e 00       		.uleb128 .LVL33-.LVL33
 9276 094f 0F       		.uleb128 .LVL34-1-.LVL33
 9277 0950 01       		.uleb128 0x1
 9278 0951 50       		.byte	0x50
 9279 0952 04       		.byte	0x4
 9280 0953 0F       		.uleb128 .LVL34-1-.LVL33
 9281 0954 20       		.uleb128 .LVL36-.LVL33
 9282 0955 01       		.uleb128 0x1
 9283 0956 54       		.byte	0x54
 9284 0957 04       		.byte	0x4
 9285 0958 20       		.uleb128 .LVL36-.LVL33
 9286 0959 22       		.uleb128 .LVL37-.LVL33
 9287 095a 01       		.uleb128 0x1
 9288 095b 50       		.byte	0x50
 9289 095c 04       		.byte	0x4
 9290 095d 22       		.uleb128 .LVL37-.LVL33
 9291 095e 24       		.uleb128 .LFE144-.LVL33
ARM GAS  C:\Users\DEVELO~1\AppData\Local\Temp\ccbkr0PB.s 			page 164


 9292 095f 04       		.uleb128 0x4
 9293 0960 A3       		.byte	0xa3
 9294 0961 01       		.uleb128 0x1
 9295 0962 50       		.byte	0x50
 9296 0963 9F       		.byte	0x9f
 9297 0964 00       		.byte	0
 9298              	.LVUS13:
 9299 0965 00       		.uleb128 0
 9300 0966 00       		.uleb128 .LVU77
 9301 0967 00       		.uleb128 .LVU77
 9302 0968 00       		.uleb128 .LVU88
 9303 0969 00       		.uleb128 .LVU88
 9304 096a 00       		.uleb128 .LVU89
 9305 096b 00       		.uleb128 .LVU89
 9306 096c 00       		.uleb128 0
 9307              	.LLST13:
 9308 096d 06       		.byte	0x6
 9309 096e 00000000 		.4byte	.LVL15
 9310 0972 04       		.byte	0x4
 9311 0973 00       		.uleb128 .LVL15-.LVL15
 9312 0974 10       		.uleb128 .LVL16-.LVL15
 9313 0975 01       		.uleb128 0x1
 9314 0976 50       		.byte	0x50
 9315 0977 04       		.byte	0x4
 9316 0978 10       		.uleb128 .LVL16-.LVL15
 9317 0979 22       		.uleb128 .LVL18-.LVL15
 9318 097a 01       		.uleb128 0x1
 9319 097b 54       		.byte	0x54
 9320 097c 04       		.byte	0x4
 9321 097d 22       		.uleb128 .LVL18-.LVL15
 9322 097e 24       		.uleb128 .LVL19-.LVL15
 9323 097f 01       		.uleb128 0x1
 9324 0980 50       		.byte	0x50
 9325 0981 04       		.byte	0x4
 9326 0982 24       		.uleb128 .LVL19-.LVL15
 9327 0983 26       		.uleb128 .LFE143-.LVL15
 9328 0984 04       		.uleb128 0x4
 9329 0985 A3       		.byte	0xa3
 9330 0986 01       		.uleb128 0x1
 9331 0987 50       		.byte	0x50
 9332 0988 9F       		.byte	0x9f
 9333 0989 00       		.byte	0
 9334              	.LVUS14:
 9335 098a 00       		.uleb128 0
 9336 098b 00       		.uleb128 .LVU81
 9337 098c 00       		.uleb128 .LVU81
 9338 098d 00       		.uleb128 .LVU88
 9339 098e 00       		.uleb128 .LVU88
 9340 098f 00       		.uleb128 0
 9341              	.LLST14:
 9342 0990 06       		.byte	0x6
 9343 0991 00000000 		.4byte	.LVL15
 9344 0995 04       		.byte	0x4
 9345 0996 00       		.uleb128 .LVL15-.LVL15
 9346 0997 17       		.uleb128 .LVL17-1-.LVL15
 9347 0998 01       		.uleb128 0x1
 9348 0999 51       		.byte	0x51
ARM GAS  C:\Users\DEVELO~1\AppData\Local\Temp\ccbkr0PB.s 			page 165


 9349 099a 04       		.byte	0x4
 9350 099b 17       		.uleb128 .LVL17-1-.LVL15
 9351 099c 22       		.uleb128 .LVL18-.LVL15
 9352 099d 04       		.uleb128 0x4
 9353 099e A3       		.byte	0xa3
 9354 099f 01       		.uleb128 0x1
 9355 09a0 51       		.byte	0x51
 9356 09a1 9F       		.byte	0x9f
 9357 09a2 04       		.byte	0x4
 9358 09a3 22       		.uleb128 .LVL18-.LVL15
 9359 09a4 26       		.uleb128 .LFE143-.LVL15
 9360 09a5 01       		.uleb128 0x1
 9361 09a6 51       		.byte	0x51
 9362 09a7 00       		.byte	0
 9363              	.LVUS0:
 9364 09a8 00       		.uleb128 0
 9365 09a9 00       		.uleb128 .LVU43
 9366 09aa 00       		.uleb128 .LVU43
 9367 09ab 00       		.uleb128 .LVU67
 9368 09ac 00       		.uleb128 .LVU67
 9369 09ad 00       		.uleb128 .LVU68
 9370 09ae 00       		.uleb128 .LVU68
 9371 09af 00       		.uleb128 0
 9372              	.LLST0:
 9373 09b0 06       		.byte	0x6
 9374 09b1 00000000 		.4byte	.LVL0
 9375 09b5 04       		.byte	0x4
 9376 09b6 00       		.uleb128 .LVL0-.LVL0
 9377 09b7 5C       		.uleb128 .LVL5-.LVL0
 9378 09b8 01       		.uleb128 0x1
 9379 09b9 50       		.byte	0x50
 9380 09ba 04       		.byte	0x4
 9381 09bb 5C       		.uleb128 .LVL5-.LVL0
 9382 09bc A601     		.uleb128 .LVL13-.LVL0
 9383 09be 01       		.uleb128 0x1
 9384 09bf 54       		.byte	0x54
 9385 09c0 04       		.byte	0x4
 9386 09c1 A601     		.uleb128 .LVL13-.LVL0
 9387 09c3 A801     		.uleb128 .LVL14-.LVL0
 9388 09c5 01       		.uleb128 0x1
 9389 09c6 50       		.byte	0x50
 9390 09c7 04       		.byte	0x4
 9391 09c8 A801     		.uleb128 .LVL14-.LVL0
 9392 09ca AE01     		.uleb128 .LFE142-.LVL0
 9393 09cc 04       		.uleb128 0x4
 9394 09cd A3       		.byte	0xa3
 9395 09ce 01       		.uleb128 0x1
 9396 09cf 50       		.byte	0x50
 9397 09d0 9F       		.byte	0x9f
 9398 09d1 00       		.byte	0
 9399              	.LVUS1:
 9400 09d2 00       		.uleb128 0
 9401 09d3 00       		.uleb128 .LVU44
 9402 09d4 00       		.uleb128 .LVU44
 9403 09d5 00       		.uleb128 .LVU67
 9404 09d6 00       		.uleb128 .LVU67
 9405 09d7 00       		.uleb128 0
ARM GAS  C:\Users\DEVELO~1\AppData\Local\Temp\ccbkr0PB.s 			page 166


 9406              	.LLST1:
 9407 09d8 06       		.byte	0x6
 9408 09d9 00000000 		.4byte	.LVL0
 9409 09dd 04       		.byte	0x4
 9410 09de 00       		.uleb128 .LVL0-.LVL0
 9411 09df 5F       		.uleb128 .LVL6-1-.LVL0
 9412 09e0 01       		.uleb128 0x1
 9413 09e1 51       		.byte	0x51
 9414 09e2 04       		.byte	0x4
 9415 09e3 5F       		.uleb128 .LVL6-1-.LVL0
 9416 09e4 A601     		.uleb128 .LVL13-.LVL0
 9417 09e6 04       		.uleb128 0x4
 9418 09e7 A3       		.byte	0xa3
 9419 09e8 01       		.uleb128 0x1
 9420 09e9 51       		.byte	0x51
 9421 09ea 9F       		.byte	0x9f
 9422 09eb 04       		.byte	0x4
 9423 09ec A601     		.uleb128 .LVL13-.LVL0
 9424 09ee AE01     		.uleb128 .LFE142-.LVL0
 9425 09f0 01       		.uleb128 0x1
 9426 09f1 51       		.byte	0x51
 9427 09f2 00       		.byte	0
 9428              	.LVUS2:
 9429 09f3 00       		.uleb128 0
 9430 09f4 00       		.uleb128 .LVU15
 9431 09f5 00       		.uleb128 .LVU15
 9432 09f6 00       		.uleb128 .LVU67
 9433 09f7 00       		.uleb128 .LVU67
 9434 09f8 00       		.uleb128 0
 9435              	.LLST2:
 9436 09f9 06       		.byte	0x6
 9437 09fa 00000000 		.4byte	.LVL0
 9438 09fe 04       		.byte	0x4
 9439 09ff 00       		.uleb128 .LVL0-.LVL0
 9440 0a00 26       		.uleb128 .LVL3-.LVL0
 9441 0a01 01       		.uleb128 0x1
 9442 0a02 52       		.byte	0x52
 9443 0a03 04       		.byte	0x4
 9444 0a04 26       		.uleb128 .LVL3-.LVL0
 9445 0a05 A601     		.uleb128 .LVL13-.LVL0
 9446 0a07 04       		.uleb128 0x4
 9447 0a08 A3       		.byte	0xa3
 9448 0a09 01       		.uleb128 0x1
 9449 0a0a 52       		.byte	0x52
 9450 0a0b 9F       		.byte	0x9f
 9451 0a0c 04       		.byte	0x4
 9452 0a0d A601     		.uleb128 .LVL13-.LVL0
 9453 0a0f AE01     		.uleb128 .LFE142-.LVL0
 9454 0a11 01       		.uleb128 0x1
 9455 0a12 52       		.byte	0x52
 9456 0a13 00       		.byte	0
 9457              	.LVUS3:
 9458 0a14 00       		.uleb128 0
 9459 0a15 00       		.uleb128 .LVU6
 9460 0a16 00       		.uleb128 .LVU6
 9461 0a17 00       		.uleb128 0
 9462              	.LLST3:
ARM GAS  C:\Users\DEVELO~1\AppData\Local\Temp\ccbkr0PB.s 			page 167


 9463 0a18 06       		.byte	0x6
 9464 0a19 00000000 		.4byte	.LVL0
 9465 0a1d 04       		.byte	0x4
 9466 0a1e 00       		.uleb128 .LVL0-.LVL0
 9467 0a1f 0A       		.uleb128 .LVL1-.LVL0
 9468 0a20 01       		.uleb128 0x1
 9469 0a21 53       		.byte	0x53
 9470 0a22 04       		.byte	0x4
 9471 0a23 0A       		.uleb128 .LVL1-.LVL0
 9472 0a24 AE01     		.uleb128 .LFE142-.LVL0
 9473 0a26 04       		.uleb128 0x4
 9474 0a27 A3       		.byte	0xa3
 9475 0a28 01       		.uleb128 0x1
 9476 0a29 53       		.byte	0x53
 9477 0a2a 9F       		.byte	0x9f
 9478 0a2b 00       		.byte	0
 9479              	.LVUS4:
 9480 0a2c 00       		.uleb128 0
 9481 0a2d 00       		.uleb128 .LVU62
 9482 0a2e 00       		.uleb128 .LVU62
 9483 0a2f 00       		.uleb128 0
 9484              	.LLST4:
 9485 0a30 06       		.byte	0x6
 9486 0a31 00000000 		.4byte	.LVL0
 9487 0a35 04       		.byte	0x4
 9488 0a36 00       		.uleb128 .LVL0-.LVL0
 9489 0a37 9201     		.uleb128 .LVL11-.LVL0
 9490 0a39 02       		.uleb128 0x2
 9491 0a3a 91       		.byte	0x91
 9492 0a3b 00       		.sleb128 0
 9493 0a3c 04       		.byte	0x4
 9494 0a3d 9201     		.uleb128 .LVL11-.LVL0
 9495 0a3f AE01     		.uleb128 .LFE142-.LVL0
 9496 0a41 02       		.uleb128 0x2
 9497 0a42 91       		.byte	0x91
 9498 0a43 00       		.sleb128 0
 9499 0a44 00       		.byte	0
 9500              	.LVUS5:
 9501 0a45 00       		.uleb128 0
 9502 0a46 00       		.uleb128 .LVU62
 9503 0a47 00       		.uleb128 .LVU62
 9504 0a48 00       		.uleb128 0
 9505              	.LLST5:
 9506 0a49 06       		.byte	0x6
 9507 0a4a 00000000 		.4byte	.LVL0
 9508 0a4e 04       		.byte	0x4
 9509 0a4f 00       		.uleb128 .LVL0-.LVL0
 9510 0a50 9201     		.uleb128 .LVL11-.LVL0
 9511 0a52 02       		.uleb128 0x2
 9512 0a53 91       		.byte	0x91
 9513 0a54 04       		.sleb128 4
 9514 0a55 04       		.byte	0x4
 9515 0a56 9201     		.uleb128 .LVL11-.LVL0
 9516 0a58 AE01     		.uleb128 .LFE142-.LVL0
 9517 0a5a 02       		.uleb128 0x2
 9518 0a5b 91       		.byte	0x91
 9519 0a5c 04       		.sleb128 4
ARM GAS  C:\Users\DEVELO~1\AppData\Local\Temp\ccbkr0PB.s 			page 168


 9520 0a5d 00       		.byte	0
 9521              	.LVUS6:
 9522 0a5e 00       		.uleb128 0
 9523 0a5f 00       		.uleb128 .LVU62
 9524 0a60 00       		.uleb128 .LVU62
 9525 0a61 00       		.uleb128 0
 9526              	.LLST6:
 9527 0a62 06       		.byte	0x6
 9528 0a63 00000000 		.4byte	.LVL0
 9529 0a67 04       		.byte	0x4
 9530 0a68 00       		.uleb128 .LVL0-.LVL0
 9531 0a69 9201     		.uleb128 .LVL11-.LVL0
 9532 0a6b 02       		.uleb128 0x2
 9533 0a6c 91       		.byte	0x91
 9534 0a6d 08       		.sleb128 8
 9535 0a6e 04       		.byte	0x4
 9536 0a6f 9201     		.uleb128 .LVL11-.LVL0
 9537 0a71 AE01     		.uleb128 .LFE142-.LVL0
 9538 0a73 02       		.uleb128 0x2
 9539 0a74 91       		.byte	0x91
 9540 0a75 08       		.sleb128 8
 9541 0a76 00       		.byte	0
 9542              	.LVUS7:
 9543 0a77 00       		.uleb128 .LVU57
 9544 0a78 00       		.uleb128 .LVU62
 9545              	.LLST7:
 9546 0a79 08       		.byte	0x8
 9547 0a7a 88000000 		.4byte	.LVL10
 9548 0a7e 0A       		.uleb128 .LVL11-.LVL10
 9549 0a7f 01       		.uleb128 0x1
 9550 0a80 50       		.byte	0x50
 9551 0a81 00       		.byte	0
 9552              	.LVUS8:
 9553 0a82 00       		.uleb128 .LVU44
 9554 0a83 00       		.uleb128 .LVU50
 9555 0a84 00       		.uleb128 .LVU62
 9556 0a85 00       		.uleb128 .LVU67
 9557              	.LLST8:
 9558 0a86 06       		.byte	0x6
 9559 0a87 60000000 		.4byte	.LVL6
 9560 0a8b 04       		.byte	0x4
 9561 0a8c 00       		.uleb128 .LVL6-.LVL6
 9562 0a8d 0A       		.uleb128 .LVL8-.LVL6
 9563 0a8e 01       		.uleb128 0x1
 9564 0a8f 50       		.byte	0x50
 9565 0a90 04       		.byte	0x4
 9566 0a91 32       		.uleb128 .LVL11-.LVL6
 9567 0a92 46       		.uleb128 .LVL13-.LVL6
 9568 0a93 01       		.uleb128 0x1
 9569 0a94 50       		.byte	0x50
 9570 0a95 00       		.byte	0
 9571              	.LVUS9:
 9572 0a96 00       		.uleb128 .LVU9
 9573 0a97 00       		.uleb128 .LVU48
 9574 0a98 00       		.uleb128 .LVU62
 9575 0a99 00       		.uleb128 .LVU66
 9576 0a9a 00       		.uleb128 .LVU66
ARM GAS  C:\Users\DEVELO~1\AppData\Local\Temp\ccbkr0PB.s 			page 169


 9577 0a9b 00       		.uleb128 .LVU67
 9578 0a9c 00       		.uleb128 .LVU67
 9579 0a9d 00       		.uleb128 0
 9580              	.LLST9:
 9581 0a9e 06       		.byte	0x6
 9582 0a9f 1A000000 		.4byte	.LVL2
 9583 0aa3 04       		.byte	0x4
 9584 0aa4 00       		.uleb128 .LVL2-.LVL2
 9585 0aa5 4E       		.uleb128 .LVL7-.LVL2
 9586 0aa6 07       		.uleb128 0x7
 9587 0aa7 78       		.byte	0x78
 9588 0aa8 00       		.sleb128 0
 9589 0aa9 0A       		.byte	0xa
 9590 0aaa FFFF     		.2byte	0xffff
 9591 0aac 1A       		.byte	0x1a
 9592 0aad 9F       		.byte	0x9f
 9593 0aae 04       		.byte	0x4
 9594 0aaf 78       		.uleb128 .LVL11-.LVL2
 9595 0ab0 8A01     		.uleb128 .LVL12-.LVL2
 9596 0ab2 07       		.uleb128 0x7
 9597 0ab3 78       		.byte	0x78
 9598 0ab4 00       		.sleb128 0
 9599 0ab5 0A       		.byte	0xa
 9600 0ab6 FFFF     		.2byte	0xffff
 9601 0ab8 1A       		.byte	0x1a
 9602 0ab9 9F       		.byte	0x9f
 9603 0aba 04       		.byte	0x4
 9604 0abb 8A01     		.uleb128 .LVL12-.LVL2
 9605 0abd 8C01     		.uleb128 .LVL13-.LVL2
 9606 0abf 09       		.uleb128 0x9
 9607 0ac0 91       		.byte	0x91
 9608 0ac1 08       		.sleb128 8
 9609 0ac2 94       		.byte	0x94
 9610 0ac3 02       		.byte	0x2
 9611 0ac4 0A       		.byte	0xa
 9612 0ac5 FFFF     		.2byte	0xffff
 9613 0ac7 1A       		.byte	0x1a
 9614 0ac8 9F       		.byte	0x9f
 9615 0ac9 04       		.byte	0x4
 9616 0aca 8C01     		.uleb128 .LVL13-.LVL2
 9617 0acc 9401     		.uleb128 .LFE142-.LVL2
 9618 0ace 07       		.uleb128 0x7
 9619 0acf 78       		.byte	0x78
 9620 0ad0 00       		.sleb128 0
 9621 0ad1 0A       		.byte	0xa
 9622 0ad2 FFFF     		.2byte	0xffff
 9623 0ad4 1A       		.byte	0x1a
 9624 0ad5 9F       		.byte	0x9f
 9625 0ad6 00       		.byte	0
 9626              	.LVUS11:
 9627 0ad7 02       		.uleb128 .LVU33
 9628 0ad8 08       		.uleb128 .LVU39
 9629              	.LLST11:
 9630 0ad9 08       		.byte	0x8
 9631 0ada 56000000 		.4byte	.LVL4
 9632 0ade 00       		.uleb128 .LVL4-.LVL4
 9633 0adf 01       		.uleb128 0x1
ARM GAS  C:\Users\DEVELO~1\AppData\Local\Temp\ccbkr0PB.s 			page 170


 9634 0ae0 55       		.byte	0x55
 9635 0ae1 00       		.byte	0
 9636              	.LVUS12:
 9637 0ae2 02       		.uleb128 .LVU33
 9638 0ae3 08       		.uleb128 .LVU39
 9639              	.LLST12:
 9640 0ae4 08       		.byte	0x8
 9641 0ae5 56000000 		.4byte	.LVL4
 9642 0ae9 00       		.uleb128 .LVL4-.LVL4
 9643 0aea 01       		.uleb128 0x1
 9644 0aeb 50       		.byte	0x50
 9645 0aec 00       		.byte	0
 9646              	.LVUS15:
 9647 0aed 00       		.uleb128 0
 9648 0aee 00       		.uleb128 .LVU100
 9649 0aef 00       		.uleb128 .LVU100
 9650 0af0 00       		.uleb128 .LVU134
 9651 0af1 00       		.uleb128 .LVU134
 9652 0af2 00       		.uleb128 .LVU135
 9653 0af3 00       		.uleb128 .LVU135
 9654 0af4 00       		.uleb128 0
 9655              	.LLST15:
 9656 0af5 06       		.byte	0x6
 9657 0af6 00000000 		.4byte	.LVL21
 9658 0afa 04       		.byte	0x4
 9659 0afb 00       		.uleb128 .LVL21-.LVL21
 9660 0afc 0E       		.uleb128 .LVL22-.LVL21
 9661 0afd 01       		.uleb128 0x1
 9662 0afe 50       		.byte	0x50
 9663 0aff 04       		.byte	0x4
 9664 0b00 0E       		.uleb128 .LVL22-.LVL21
 9665 0b01 8C01     		.uleb128 .LVL31-.LVL21
 9666 0b03 01       		.uleb128 0x1
 9667 0b04 54       		.byte	0x54
 9668 0b05 04       		.byte	0x4
 9669 0b06 8C01     		.uleb128 .LVL31-.LVL21
 9670 0b08 8E01     		.uleb128 .LVL32-.LVL21
 9671 0b0a 01       		.uleb128 0x1
 9672 0b0b 50       		.byte	0x50
 9673 0b0c 04       		.byte	0x4
 9674 0b0d 8E01     		.uleb128 .LVL32-.LVL21
 9675 0b0f 9801     		.uleb128 .LFE141-.LVL21
 9676 0b11 04       		.uleb128 0x4
 9677 0b12 A3       		.byte	0xa3
 9678 0b13 01       		.uleb128 0x1
 9679 0b14 50       		.byte	0x50
 9680 0b15 9F       		.byte	0x9f
 9681 0b16 00       		.byte	0
 9682              	.LVUS69:
 9683 0b17 00       		.uleb128 0
 9684 0b18 00       		.uleb128 .LVU1099
 9685 0b19 00       		.uleb128 .LVU1099
 9686 0b1a 00       		.uleb128 0
 9687              	.LLST69:
 9688 0b1b 06       		.byte	0x6
 9689 0b1c 00000000 		.4byte	.LVL262
 9690 0b20 04       		.byte	0x4
ARM GAS  C:\Users\DEVELO~1\AppData\Local\Temp\ccbkr0PB.s 			page 171


 9691 0b21 00       		.uleb128 .LVL262-.LVL262
 9692 0b22 08       		.uleb128 .LVL264-.LVL262
 9693 0b23 01       		.uleb128 0x1
 9694 0b24 50       		.byte	0x50
 9695 0b25 04       		.byte	0x4
 9696 0b26 08       		.uleb128 .LVL264-.LVL262
 9697 0b27 12       		.uleb128 .LFE165-.LVL262
 9698 0b28 01       		.uleb128 0x1
 9699 0b29 53       		.byte	0x53
 9700 0b2a 00       		.byte	0
 9701              	.LVUS70:
 9702 0b2b 00       		.uleb128 0
 9703 0b2c 00       		.uleb128 .LVU1098
 9704 0b2d 00       		.uleb128 .LVU1098
 9705 0b2e 00       		.uleb128 0
 9706              	.LLST70:
 9707 0b2f 06       		.byte	0x6
 9708 0b30 00000000 		.4byte	.LVL262
 9709 0b34 04       		.byte	0x4
 9710 0b35 00       		.uleb128 .LVL262-.LVL262
 9711 0b36 06       		.uleb128 .LVL263-.LVL262
 9712 0b37 01       		.uleb128 0x1
 9713 0b38 51       		.byte	0x51
 9714 0b39 04       		.byte	0x4
 9715 0b3a 06       		.uleb128 .LVL263-.LVL262
 9716 0b3b 12       		.uleb128 .LFE165-.LVL262
 9717 0b3c 04       		.uleb128 0x4
 9718 0b3d A3       		.byte	0xa3
 9719 0b3e 01       		.uleb128 0x1
 9720 0b3f 51       		.byte	0x51
 9721 0b40 9F       		.byte	0x9f
 9722 0b41 00       		.byte	0
 9723              	.Ldebug_loc3:
 9724              		.section	.debug_aranges,"",%progbits
 9725 0000 AC000000 		.4byte	0xac
 9726 0004 0200     		.2byte	0x2
 9727 0006 00000000 		.4byte	.Ldebug_info0
 9728 000a 04       		.byte	0x4
 9729 000b 00       		.byte	0
 9730 000c 0000     		.2byte	0
 9731 000e 0000     		.2byte	0
 9732 0010 00000000 		.4byte	.LFB142
 9733 0014 AE000000 		.4byte	.LFE142-.LFB142
 9734 0018 00000000 		.4byte	.LFB143
 9735 001c 26000000 		.4byte	.LFE143-.LFB143
 9736 0020 00000000 		.4byte	.LFB145
 9737 0024 02000000 		.4byte	.LFE145-.LFB145
 9738 0028 00000000 		.4byte	.LFB141
 9739 002c 98000000 		.4byte	.LFE141-.LFB141
 9740 0030 00000000 		.4byte	.LFB144
 9741 0034 24000000 		.4byte	.LFE144-.LFB144
 9742 0038 00000000 		.4byte	.LFB147
 9743 003c E0000000 		.4byte	.LFE147-.LFB147
 9744 0040 00000000 		.4byte	.LFB154
 9745 0044 02000000 		.4byte	.LFE154-.LFB154
 9746 0048 00000000 		.4byte	.LFB148
 9747 004c B0090000 		.4byte	.LFE148-.LFB148
ARM GAS  C:\Users\DEVELO~1\AppData\Local\Temp\ccbkr0PB.s 			page 172


 9748 0050 00000000 		.4byte	.LFB155
 9749 0054 2C000000 		.4byte	.LFE155-.LFB155
 9750 0058 00000000 		.4byte	.LFB156
 9751 005c 26000000 		.4byte	.LFE156-.LFB156
 9752 0060 00000000 		.4byte	.LFB157
 9753 0064 06000000 		.4byte	.LFE157-.LFB157
 9754 0068 00000000 		.4byte	.LFB158
 9755 006c 06000000 		.4byte	.LFE158-.LFB158
 9756 0070 00000000 		.4byte	.LFB159
 9757 0074 0E000000 		.4byte	.LFE159-.LFB159
 9758 0078 00000000 		.4byte	.LFB160
 9759 007c 0C000000 		.4byte	.LFE160-.LFB160
 9760 0080 00000000 		.4byte	.LFB161
 9761 0084 0E000000 		.4byte	.LFE161-.LFB161
 9762 0088 00000000 		.4byte	.LFB162
 9763 008c 06000000 		.4byte	.LFE162-.LFB162
 9764 0090 00000000 		.4byte	.LFB163
 9765 0094 06000000 		.4byte	.LFE163-.LFB163
 9766 0098 00000000 		.4byte	.LFB164
 9767 009c 4A000000 		.4byte	.LFE164-.LFB164
 9768 00a0 00000000 		.4byte	.LFB165
 9769 00a4 12000000 		.4byte	.LFE165-.LFB165
 9770 00a8 00000000 		.4byte	0
 9771 00ac 00000000 		.4byte	0
 9772              		.section	.debug_rnglists,"",%progbits
 9773              	.Ldebug_ranges0:
 9774 0000 54010000 		.4byte	.Ldebug_ranges3-.Ldebug_ranges2
 9775              	.Ldebug_ranges2:
 9776 0004 0500     		.2byte	0x5
 9777 0006 04       		.byte	0x4
 9778 0007 00       		.byte	0
 9779 0008 00000000 		.4byte	0
 9780              	.LLRL10:
 9781 000c 05       		.byte	0x5
 9782 000d 36000000 		.4byte	.LBB4
 9783 0011 04       		.byte	0x4
 9784 0012 00       		.uleb128 .LBB4-.LBB4
 9785 0013 08       		.uleb128 .LBE4-.LBB4
 9786 0014 04       		.byte	0x4
 9787 0015 20       		.uleb128 .LBB7-.LBB4
 9788 0016 20       		.uleb128 .LBE7-.LBB4
 9789 0017 00       		.byte	0
 9790              	.LLRL30:
 9791 0018 05       		.byte	0x5
 9792 0019 AE000000 		.4byte	.LBB16
 9793 001d 04       		.byte	0x4
 9794 001e 00       		.uleb128 .LBB16-.LBB16
 9795 001f 14       		.uleb128 .LBE16-.LBB16
 9796 0020 04       		.byte	0x4
 9797 0021 D606     		.uleb128 .LBB67-.LBB16
 9798 0023 8407     		.uleb128 .LBE67-.LBB16
 9799 0025 04       		.byte	0x4
 9800 0026 C60B     		.uleb128 .LBB80-.LBB16
 9801 0028 FC0B     		.uleb128 .LBE80-.LBB16
 9802 002a 04       		.byte	0x4
 9803 002b C80D     		.uleb128 .LBB85-.LBB16
 9804 002d E80D     		.uleb128 .LBE85-.LBB16
ARM GAS  C:\Users\DEVELO~1\AppData\Local\Temp\ccbkr0PB.s 			page 173


 9805 002f 00       		.byte	0
 9806              	.LLRL40:
 9807 0030 05       		.byte	0x5
 9808 0031 12010000 		.4byte	.LBB21
 9809 0035 04       		.byte	0x4
 9810 0036 00       		.uleb128 .LBB21-.LBB21
 9811 0037 06       		.uleb128 .LBE21-.LBB21
 9812 0038 04       		.byte	0x4
 9813 0039 7C       		.uleb128 .LBB56-.LBB21
 9814 003a A001     		.uleb128 .LBE56-.LBB21
 9815 003c 04       		.byte	0x4
 9816 003d CE01     		.uleb128 .LBB58-.LBB21
 9817 003f 9E02     		.uleb128 .LBE58-.LBB21
 9818 0041 04       		.byte	0x4
 9819 0042 FE04     		.uleb128 .LBB65-.LBB21
 9820 0044 A205     		.uleb128 .LBE65-.LBB21
 9821 0046 04       		.byte	0x4
 9822 0047 B006     		.uleb128 .LBB69-.LBB21
 9823 0049 8607     		.uleb128 .LBE69-.LBB21
 9824 004b 04       		.byte	0x4
 9825 004c A207     		.uleb128 .LBB71-.LBB21
 9826 004e BC07     		.uleb128 .LBE71-.LBB21
 9827 0050 04       		.byte	0x4
 9828 0051 E608     		.uleb128 .LBB75-.LBB21
 9829 0053 8609     		.uleb128 .LBE75-.LBB21
 9830 0055 04       		.byte	0x4
 9831 0056 AC09     		.uleb128 .LBB77-.LBB21
 9832 0058 BE09     		.uleb128 .LBE77-.LBB21
 9833 005a 04       		.byte	0x4
 9834 005b AE0A     		.uleb128 .LBB79-.LBB21
 9835 005d E20A     		.uleb128 .LBE79-.LBB21
 9836 005f 04       		.byte	0x4
 9837 0060 C20B     		.uleb128 .LBB82-.LBB21
 9838 0062 EC0B     		.uleb128 .LBE82-.LBB21
 9839 0064 04       		.byte	0x4
 9840 0065 AA0C     		.uleb128 .LBB84-.LBB21
 9841 0067 E40C     		.uleb128 .LBE84-.LBB21
 9842 0069 04       		.byte	0x4
 9843 006a B40D     		.uleb128 .LBB87-.LBB21
 9844 006c F80D     		.uleb128 .LBE87-.LBB21
 9845 006e 04       		.byte	0x4
 9846 006f B00E     		.uleb128 .LBB89-.LBB21
 9847 0071 CA0E     		.uleb128 .LBE89-.LBB21
 9848 0073 04       		.byte	0x4
 9849 0074 E20E     		.uleb128 .LBB91-.LBB21
 9850 0076 9E11     		.uleb128 .LBE91-.LBB21
 9851 0078 00       		.byte	0
 9852              	.LLRL43:
 9853 0079 05       		.byte	0x5
 9854 007a 18010000 		.4byte	.LBB36
 9855 007e 04       		.byte	0x4
 9856 007f 00       		.uleb128 .LBB36-.LBB36
 9857 0080 46       		.uleb128 .LBE36-.LBB36
 9858 0081 04       		.byte	0x4
 9859 0082 68       		.uleb128 .LBB54-.LBB36
 9860 0083 6E       		.uleb128 .LBE54-.LBB36
 9861 0084 04       		.byte	0x4
ARM GAS  C:\Users\DEVELO~1\AppData\Local\Temp\ccbkr0PB.s 			page 174


 9862 0085 70       		.uleb128 .LBB55-.LBB36
 9863 0086 74       		.uleb128 .LBE55-.LBB36
 9864 0087 04       		.byte	0x4
 9865 0088 9A01     		.uleb128 .LBB57-.LBB36
 9866 008a C801     		.uleb128 .LBE57-.LBB36
 9867 008c 04       		.byte	0x4
 9868 008d 9802     		.uleb128 .LBB59-.LBB36
 9869 008f 8E03     		.uleb128 .LBE59-.LBB36
 9870 0091 04       		.byte	0x4
 9871 0092 9A04     		.uleb128 .LBB64-.LBB36
 9872 0094 F804     		.uleb128 .LBE64-.LBB36
 9873 0096 04       		.byte	0x4
 9874 0097 9C05     		.uleb128 .LBB66-.LBB36
 9875 0099 EC05     		.uleb128 .LBE66-.LBB36
 9876 009b 04       		.byte	0x4
 9877 009c 8007     		.uleb128 .LBB70-.LBB36
 9878 009e 9C07     		.uleb128 .LBE70-.LBB36
 9879 00a0 04       		.byte	0x4
 9880 00a1 B607     		.uleb128 .LBB72-.LBB36
 9881 00a3 D407     		.uleb128 .LBE72-.LBB36
 9882 00a5 04       		.byte	0x4
 9883 00a6 EA07     		.uleb128 .LBB74-.LBB36
 9884 00a8 E008     		.uleb128 .LBE74-.LBB36
 9885 00aa 04       		.byte	0x4
 9886 00ab 8009     		.uleb128 .LBB76-.LBB36
 9887 00ad A609     		.uleb128 .LBE76-.LBB36
 9888 00af 04       		.byte	0x4
 9889 00b0 B809     		.uleb128 .LBB78-.LBB36
 9890 00b2 9E0A     		.uleb128 .LBE78-.LBB36
 9891 00b4 04       		.byte	0x4
 9892 00b5 960B     		.uleb128 .LBB81-.LBB36
 9893 00b7 BC0B     		.uleb128 .LBE81-.LBB36
 9894 00b9 04       		.byte	0x4
 9895 00ba E60B     		.uleb128 .LBB83-.LBB36
 9896 00bc A40C     		.uleb128 .LBE83-.LBB36
 9897 00be 04       		.byte	0x4
 9898 00bf FE0C     		.uleb128 .LBB86-.LBB36
 9899 00c1 AE0D     		.uleb128 .LBE86-.LBB36
 9900 00c3 04       		.byte	0x4
 9901 00c4 F20D     		.uleb128 .LBB88-.LBB36
 9902 00c6 AA0E     		.uleb128 .LBE88-.LBB36
 9903 00c8 04       		.byte	0x4
 9904 00c9 C40E     		.uleb128 .LBB90-.LBB36
 9905 00cb DC0E     		.uleb128 .LBE90-.LBB36
 9906 00cd 00       		.byte	0
 9907              	.LLRL48:
 9908 00ce 05       		.byte	0x5
 9909 00cf BE020000 		.4byte	.LBB60
 9910 00d3 04       		.byte	0x4
 9911 00d4 00       		.uleb128 .LBB60-.LBB60
 9912 00d5 74       		.uleb128 .LBE60-.LBB60
 9913 00d6 04       		.byte	0x4
 9914 00d7 F402     		.uleb128 .LBB68-.LBB60
 9915 00d9 8403     		.uleb128 .LBE68-.LBB60
 9916 00db 04       		.byte	0x4
 9917 00dc AE04     		.uleb128 .LBB73-.LBB60
 9918 00de C404     		.uleb128 .LBE73-.LBB60
ARM GAS  C:\Users\DEVELO~1\AppData\Local\Temp\ccbkr0PB.s 			page 175


 9919 00e0 00       		.byte	0
 9920              	.LLRL71:
 9921 00e1 07       		.byte	0x7
 9922 00e2 00000000 		.4byte	.LFB142
 9923 00e6 AE01     		.uleb128 .LFE142-.LFB142
 9924 00e8 07       		.byte	0x7
 9925 00e9 00000000 		.4byte	.LFB143
 9926 00ed 26       		.uleb128 .LFE143-.LFB143
 9927 00ee 07       		.byte	0x7
 9928 00ef 00000000 		.4byte	.LFB145
 9929 00f3 02       		.uleb128 .LFE145-.LFB145
 9930 00f4 07       		.byte	0x7
 9931 00f5 00000000 		.4byte	.LFB141
 9932 00f9 9801     		.uleb128 .LFE141-.LFB141
 9933 00fb 07       		.byte	0x7
 9934 00fc 00000000 		.4byte	.LFB144
 9935 0100 24       		.uleb128 .LFE144-.LFB144
 9936 0101 07       		.byte	0x7
 9937 0102 00000000 		.4byte	.LFB147
 9938 0106 E001     		.uleb128 .LFE147-.LFB147
 9939 0108 07       		.byte	0x7
 9940 0109 00000000 		.4byte	.LFB154
 9941 010d 02       		.uleb128 .LFE154-.LFB154
 9942 010e 07       		.byte	0x7
 9943 010f 00000000 		.4byte	.LFB148
 9944 0113 B013     		.uleb128 .LFE148-.LFB148
 9945 0115 07       		.byte	0x7
 9946 0116 00000000 		.4byte	.LFB155
 9947 011a 2C       		.uleb128 .LFE155-.LFB155
 9948 011b 07       		.byte	0x7
 9949 011c 00000000 		.4byte	.LFB156
 9950 0120 26       		.uleb128 .LFE156-.LFB156
 9951 0121 07       		.byte	0x7
 9952 0122 00000000 		.4byte	.LFB157
 9953 0126 06       		.uleb128 .LFE157-.LFB157
 9954 0127 07       		.byte	0x7
 9955 0128 00000000 		.4byte	.LFB158
 9956 012c 06       		.uleb128 .LFE158-.LFB158
 9957 012d 07       		.byte	0x7
 9958 012e 00000000 		.4byte	.LFB159
 9959 0132 0E       		.uleb128 .LFE159-.LFB159
 9960 0133 07       		.byte	0x7
 9961 0134 00000000 		.4byte	.LFB160
 9962 0138 0C       		.uleb128 .LFE160-.LFB160
 9963 0139 07       		.byte	0x7
 9964 013a 00000000 		.4byte	.LFB161
 9965 013e 0E       		.uleb128 .LFE161-.LFB161
 9966 013f 07       		.byte	0x7
 9967 0140 00000000 		.4byte	.LFB162
 9968 0144 06       		.uleb128 .LFE162-.LFB162
 9969 0145 07       		.byte	0x7
 9970 0146 00000000 		.4byte	.LFB163
 9971 014a 06       		.uleb128 .LFE163-.LFB163
 9972 014b 07       		.byte	0x7
 9973 014c 00000000 		.4byte	.LFB164
 9974 0150 4A       		.uleb128 .LFE164-.LFB164
 9975 0151 07       		.byte	0x7
ARM GAS  C:\Users\DEVELO~1\AppData\Local\Temp\ccbkr0PB.s 			page 176


 9976 0152 00000000 		.4byte	.LFB165
 9977 0156 12       		.uleb128 .LFE165-.LFB165
 9978 0157 00       		.byte	0
 9979              	.Ldebug_ranges3:
 9980              		.section	.debug_line,"",%progbits
 9981              	.Ldebug_line0:
 9982 0000 4E130000 		.section	.debug_str,"MS",%progbits,1
 9982      0300B401 
 9982      00000201 
 9982      FB0E0D00 
 9982      01010101 
 9983              	.LASF219:
 9984 0000 48414C5F 		.ascii	"HAL_HCD_MspDeInit\000"
 9984      4843445F 
 9984      4D737044 
 9984      65496E69 
 9984      7400
 9985              	.LASF196:
 9986 0012 48414C5F 		.ascii	"HAL_HCD_GetCurrentSpeed\000"
 9986      4843445F 
 9986      47657443 
 9986      75727265 
 9986      6E745370 
 9987              	.LASF232:
 9988 002a 433A5C43 		.ascii	"C:\\ChibiStudio\\ChibiOS-master\\demos\\STM32\\CUST"
 9988      68696269 
 9988      53747564 
 9988      696F5C43 
 9988      68696269 
 9989 0058 4F4D5F48 		.ascii	"OM_H743IIT6_maj\000"
 9989      37343349 
 9989      4954365F 
 9989      6D616A00 
 9990              	.LASF206:
 9991 0068 48414C5F 		.ascii	"HAL_HCD_PortEnabled_Callback\000"
 9991      4843445F 
 9991      506F7274 
 9991      456E6162 
 9991      6C65645F 
 9992              	.LASF176:
 9993 0085 55534278 		.ascii	"USBx\000"
 9993      00
 9994              	.LASF149:
 9995 008a 496E6974 		.ascii	"Init\000"
 9995      00
 9996              	.LASF141:
 9997 008f 48414C5F 		.ascii	"HAL_HCD_STATE_TIMEOUT\000"
 9997      4843445F 
 9997      53544154 
 9997      455F5449 
 9997      4D454F55 
 9998              	.LASF200:
 9999 00a5 48414C5F 		.ascii	"HAL_HCD_HC_GetURBState\000"
 9999      4843445F 
 9999      48435F47 
 9999      65745552 
 9999      42537461 
ARM GAS  C:\Users\DEVELO~1\AppData\Local\Temp\ccbkr0PB.s 			page 177


 10000              	.LASF4:
 10001 00bc 5F5F7569 		.ascii	"__uint8_t\000"
 10001      6E74385F 
 10001      7400
 10002              	.LASF17:
 10003 00c6 47414842 		.ascii	"GAHBCFG\000"
 10003      43464700 
 10004              	.LASF64:
 10005 00ce 48414C5F 		.ascii	"HAL_BUSY\000"
 10005      42555359 
 10005      00
 10006              	.LASF215:
 10007 00d7 64697265 		.ascii	"direction\000"
 10007      6374696F 
 10007      6E00
 10008              	.LASF163:
 10009 00e1 5553425F 		.ascii	"USB_InitFSLSPClkSel\000"
 10009      496E6974 
 10009      46534C53 
 10009      50436C6B 
 10009      53656C00 
 10010              	.LASF56:
 10011 00f5 52657365 		.ascii	"Reserved\000"
 10011      72766564 
 10011      00
 10012              	.LASF103:
 10013 00fe 7573655F 		.ascii	"use_dedicated_ep1\000"
 10013      64656469 
 10013      63617465 
 10013      645F6570 
 10013      3100
 10014              	.LASF24:
 10015 0110 47525846 		.ascii	"GRXFSIZ\000"
 10015      53495A00 
 10016              	.LASF146:
 10017 0118 4843445F 		.ascii	"HCD_URBStateTypeDef\000"
 10017      55524253 
 10017      74617465 
 10017      54797065 
 10017      44656600 
 10018              	.LASF11:
 10019 012c 6C6F6E67 		.ascii	"long long unsigned int\000"
 10019      206C6F6E 
 10019      6720756E 
 10019      7369676E 
 10019      65642069 
 10020              	.LASF193:
 10021 0143 61646472 		.ascii	"addr\000"
 10021      00
 10022              	.LASF68:
 10023 0148 48414C5F 		.ascii	"HAL_LOCKED\000"
 10023      4C4F434B 
 10023      454400
 10024              	.LASF112:
 10025 0153 646F5F63 		.ascii	"do_csplit\000"
 10025      73706C69 
 10025      7400
ARM GAS  C:\Users\DEVELO~1\AppData\Local\Temp\ccbkr0PB.s 			page 178


 10026              	.LASF137:
 10027 015d 48414C5F 		.ascii	"HAL_HCD_STATE_RESET\000"
 10027      4843445F 
 10027      53544154 
 10027      455F5245 
 10027      53455400 
 10028              	.LASF81:
 10029 0171 48435F49 		.ascii	"HC_IDLE\000"
 10029      444C4500 
 10030              	.LASF34:
 10031 0179 474C504D 		.ascii	"GLPMCFG\000"
 10031      43464700 
 10032              	.LASF143:
 10033 0181 4843445F 		.ascii	"HCD_TypeDef\000"
 10033      54797065 
 10033      44656600 
 10034              	.LASF102:
 10035 018d 76627573 		.ascii	"vbus_sensing_enable\000"
 10035      5F73656E 
 10035      73696E67 
 10035      5F656E61 
 10035      626C6500 
 10036              	.LASF92:
 10037 01a1 6465765F 		.ascii	"dev_endpoints\000"
 10037      656E6470 
 10037      6F696E74 
 10037      7300
 10038              	.LASF157:
 10039 01af 5553425F 		.ascii	"USB_StopHost\000"
 10039      53746F70 
 10039      486F7374 
 10039      00
 10040              	.LASF48:
 10041 01bc 4841494E 		.ascii	"HAINTMSK\000"
 10041      544D534B 
 10041      00
 10042              	.LASF10:
 10043 01c5 6C6F6E67 		.ascii	"long long int\000"
 10043      206C6F6E 
 10043      6720696E 
 10043      7400
 10044              	.LASF185:
 10045 01d3 47727873 		.ascii	"GrxstspReg\000"
 10045      74737052 
 10045      656700
 10046              	.LASF106:
 10047 01de 6465765F 		.ascii	"dev_addr\000"
 10047      61646472 
 10047      00
 10048              	.LASF54:
 10049 01e7 48435453 		.ascii	"HCTSIZ\000"
 10049      495A00
 10050              	.LASF9:
 10051 01ee 6C6F6E67 		.ascii	"long unsigned int\000"
 10051      20756E73 
 10051      69676E65 
 10051      6420696E 
ARM GAS  C:\Users\DEVELO~1\AppData\Local\Temp\ccbkr0PB.s 			page 179


 10051      7400
 10052              	.LASF195:
 10053 0200 48414C5F 		.ascii	"HAL_HCD_HC_SetHubInfo\000"
 10053      4843445F 
 10053      48435F53 
 10053      65744875 
 10053      62496E66 
 10054              	.LASF140:
 10055 0216 48414C5F 		.ascii	"HAL_HCD_STATE_BUSY\000"
 10055      4843445F 
 10055      53544154 
 10055      455F4255 
 10055      535900
 10056              	.LASF107:
 10057 0229 63685F6E 		.ascii	"ch_num\000"
 10057      756D00
 10058              	.LASF204:
 10059 0230 48414C5F 		.ascii	"HAL_HCD_Start\000"
 10059      4843445F 
 10059      53746172 
 10059      7400
 10060              	.LASF213:
 10061 023e 696E7465 		.ascii	"interrupt\000"
 10061      72727570 
 10061      7400
 10062              	.LASF192:
 10063 0248 48414C5F 		.ascii	"HAL_HCD_HC_ClearHubInfo\000"
 10063      4843445F 
 10063      48435F43 
 10063      6C656172 
 10063      48756249 
 10064              	.LASF187:
 10065 0260 746D7072 		.ascii	"tmpreg\000"
 10065      656700
 10066              	.LASF69:
 10067 0267 48414C5F 		.ascii	"HAL_LockTypeDef\000"
 10067      4C6F636B 
 10067      54797065 
 10067      44656600 
 10068              	.LASF212:
 10069 0277 486F7374 		.ascii	"HostCoreSpeed\000"
 10069      436F7265 
 10069      53706565 
 10069      6400
 10070              	.LASF164:
 10071 0285 5553425F 		.ascii	"USB_FlushRxFifo\000"
 10071      466C7573 
 10071      68527846 
 10071      69666F00 
 10072              	.LASF130:
 10073 0295 73746174 		.ascii	"state\000"
 10073      6500
 10074              	.LASF7:
 10075 029b 6C6F6E67 		.ascii	"long int\000"
 10075      20696E74 
 10075      00
 10076              	.LASF80:
ARM GAS  C:\Users\DEVELO~1\AppData\Local\Temp\ccbkr0PB.s 			page 180


 10077 02a4 5553425F 		.ascii	"USB_URBStateTypeDef\000"
 10077      55524253 
 10077      74617465 
 10077      54797065 
 10077      44656600 
 10078              	.LASF160:
 10079 02b8 5553425F 		.ascii	"USB_ReadPacket\000"
 10079      52656164 
 10079      5061636B 
 10079      657400
 10080              	.LASF97:
 10081 02c7 7068795F 		.ascii	"phy_itface\000"
 10081      69746661 
 10081      636500
 10082              	.LASF121:
 10083 02d2 58666572 		.ascii	"XferSize\000"
 10083      53697A65 
 10083      00
 10084              	.LASF198:
 10085 02db 48414C5F 		.ascii	"HAL_HCD_HC_GetState\000"
 10085      4843445F 
 10085      48435F47 
 10085      65745374 
 10085      61746500 
 10086              	.LASF44:
 10087 02ef 48464E55 		.ascii	"HFNUM\000"
 10087      4D00
 10088              	.LASF116:
 10089 02f5 6875625F 		.ascii	"hub_addr\000"
 10089      61646472 
 10089      00
 10090              	.LASF83:
 10091 02fe 48435F48 		.ascii	"HC_HALTED\000"
 10091      414C5445 
 10091      4400
 10092              	.LASF13:
 10093 0308 75696E74 		.ascii	"uint16_t\000"
 10093      31365F74 
 10093      00
 10094              	.LASF178:
 10095 0311 68707274 		.ascii	"hprt0\000"
 10095      3000
 10096              	.LASF138:
 10097 0317 48414C5F 		.ascii	"HAL_HCD_STATE_READY\000"
 10097      4843445F 
 10097      53544154 
 10097      455F5245 
 10097      41445900 
 10098              	.LASF203:
 10099 032b 48414C5F 		.ascii	"HAL_HCD_Stop\000"
 10099      4843445F 
 10099      53746F70 
 10099      00
 10100              	.LASF147:
 10101 0338 4843445F 		.ascii	"HCD_HCStateTypeDef\000"
 10101      48435374 
 10101      61746554 
ARM GAS  C:\Users\DEVELO~1\AppData\Local\Temp\ccbkr0PB.s 			page 181


 10101      79706544 
 10101      656600
 10102              	.LASF208:
 10103 034b 48414C5F 		.ascii	"HAL_HCD_Connect_Callback\000"
 10103      4843445F 
 10103      436F6E6E 
 10103      6563745F 
 10103      43616C6C 
 10104              	.LASF36:
 10105 0364 47444649 		.ascii	"GDFIFOCFG\000"
 10105      464F4346 
 10105      4700
 10106              	.LASF71:
 10107 036e 5553425F 		.ascii	"USB_HOST_MODE\000"
 10107      484F5354 
 10107      5F4D4F44 
 10107      4500
 10108              	.LASF153:
 10109 037c 70446174 		.ascii	"pData\000"
 10109      6100
 10110              	.LASF159:
 10111 0382 5553425F 		.ascii	"USB_DriveVbus\000"
 10111      44726976 
 10111      65566275 
 10111      7300
 10112              	.LASF55:
 10113 0390 4843444D 		.ascii	"HCDMA\000"
 10113      4100
 10114              	.LASF110:
 10115 0396 646F5F70 		.ascii	"do_ping\000"
 10115      696E6700 
 10116              	.LASF199:
 10117 039e 48414C5F 		.ascii	"HAL_HCD_HC_GetXferCount\000"
 10117      4843445F 
 10117      48435F47 
 10117      65745866 
 10117      6572436F 
 10118              	.LASF25:
 10119 03b6 44494550 		.ascii	"DIEPTXF0_HNPTXFSIZ\000"
 10119      54584630 
 10119      5F484E50 
 10119      54584653 
 10119      495A00
 10120              	.LASF93:
 10121 03c9 486F7374 		.ascii	"Host_channels\000"
 10121      5F636861 
 10121      6E6E656C 
 10121      7300
 10122              	.LASF16:
 10123 03d7 474F5447 		.ascii	"GOTGINT\000"
 10123      494E5400 
 10124              	.LASF180:
 10125 03df 4843445F 		.ascii	"HCD_Port_IRQHandler\000"
 10125      506F7274 
 10125      5F495251 
 10125      48616E64 
 10125      6C657200 
ARM GAS  C:\Users\DEVELO~1\AppData\Local\Temp\ccbkr0PB.s 			page 182


 10126              	.LASF65:
 10127 03f3 48414C5F 		.ascii	"HAL_TIMEOUT\000"
 10127      54494D45 
 10127      4F555400 
 10128              	.LASF228:
 10129 03ff 48436368 		.ascii	"HCcharMps\000"
 10129      61724D70 
 10129      7300
 10130              	.LASF225:
 10131 0409 65706E75 		.ascii	"epnum\000"
 10131      6D00
 10132              	.LASF189:
 10133 040f 4843445F 		.ascii	"HCD_HC_OUT_IRQHandler\000"
 10133      48435F4F 
 10133      55545F49 
 10133      52514861 
 10133      6E646C65 
 10134              	.LASF226:
 10135 0425 6465765F 		.ascii	"dev_address\000"
 10135      61646472 
 10135      65737300 
 10136              	.LASF133:
 10137 0431 5553425F 		.ascii	"USB_OTG_CfgTypeDef\000"
 10137      4F54475F 
 10137      43666754 
 10137      79706544 
 10137      656600
 10138              	.LASF197:
 10139 0444 48414C5F 		.ascii	"HAL_HCD_GetCurrentFrame\000"
 10139      4843445F 
 10139      47657443 
 10139      75727265 
 10139      6E744672 
 10140              	.LASF49:
 10141 045c 5553425F 		.ascii	"USB_OTG_HostTypeDef\000"
 10141      4F54475F 
 10141      486F7374 
 10141      54797065 
 10141      44656600 
 10142              	.LASF87:
 10143 0470 48435F53 		.ascii	"HC_STALL\000"
 10143      54414C4C 
 10143      00
 10144              	.LASF181:
 10145 0479 4843445F 		.ascii	"HCD_RXQLVL_IRQHandler\000"
 10145      5258514C 
 10145      564C5F49 
 10145      52514861 
 10145      6E646C65 
 10146              	.LASF104:
 10147 048f 7573655F 		.ascii	"use_external_vbus\000"
 10147      65787465 
 10147      726E616C 
 10147      5F766275 
 10147      7300
 10148              	.LASF191:
 10149 04a1 4843445F 		.ascii	"HCD_HC_IN_IRQHandler\000"
ARM GAS  C:\Users\DEVELO~1\AppData\Local\Temp\ccbkr0PB.s 			page 183


 10149      48435F49 
 10149      4E5F4952 
 10149      5148616E 
 10149      646C6572 
 10150              	.LASF35:
 10151 04b6 47505752 		.ascii	"GPWRDN\000"
 10151      444E00
 10152              	.LASF51:
 10153 04bd 48435350 		.ascii	"HCSPLT\000"
 10153      4C5400
 10154              	.LASF30:
 10155 04c4 47485743 		.ascii	"GHWCFG1\000"
 10155      46473100 
 10156              	.LASF31:
 10157 04cc 47485743 		.ascii	"GHWCFG2\000"
 10157      46473200 
 10158              	.LASF128:
 10159 04d4 4E796574 		.ascii	"NyetErrCnt\000"
 10159      45727243 
 10159      6E7400
 10160              	.LASF33:
 10161 04df 52657365 		.ascii	"Reserved6\000"
 10161      72766564 
 10161      3600
 10162              	.LASF6:
 10163 04e9 73686F72 		.ascii	"short unsigned int\000"
 10163      7420756E 
 10163      7369676E 
 10163      65642069 
 10163      6E7400
 10164              	.LASF131:
 10165 04fc 5553425F 		.ascii	"USB_HCTypeDef\000"
 10165      48435479 
 10165      70654465 
 10165      6600
 10166              	.LASF20:
 10167 050a 47494E54 		.ascii	"GINTSTS\000"
 10167      53545300 
 10168              	.LASF220:
 10169 0512 61737365 		.ascii	"assert_param\000"
 10169      72745F70 
 10169      6172616D 
 10169      00
 10170              	.LASF113:
 10171 051f 65705F73 		.ascii	"ep_ss_schedule\000"
 10171      735F7363 
 10171      68656475 
 10171      6C6500
 10172              	.LASF152:
 10173 052e 4572726F 		.ascii	"ErrorCode\000"
 10173      72436F64 
 10173      6500
 10174              	.LASF150:
 10175 0538 4C6F636B 		.ascii	"Lock\000"
 10175      00
 10176              	.LASF19:
 10177 053d 47525354 		.ascii	"GRSTCTL\000"
ARM GAS  C:\Users\DEVELO~1\AppData\Local\Temp\ccbkr0PB.s 			page 184


 10177      43544C00 
 10178              	.LASF66:
 10179 0545 48414C5F 		.ascii	"HAL_StatusTypeDef\000"
 10179      53746174 
 10179      75735479 
 10179      70654465 
 10179      6600
 10180              	.LASF142:
 10181 0557 4843445F 		.ascii	"HCD_StateTypeDef\000"
 10181      53746174 
 10181      65547970 
 10181      65446566 
 10181      00
 10182              	.LASF182:
 10183 0568 68686364 		.ascii	"hhcd\000"
 10183      00
 10184              	.LASF109:
 10185 056d 65705F69 		.ascii	"ep_is_in\000"
 10185      735F696E 
 10185      00
 10186              	.LASF194:
 10187 0576 506F7274 		.ascii	"PortNbr\000"
 10187      4E627200 
 10188              	.LASF201:
 10189 057e 48414C5F 		.ascii	"HAL_HCD_GetState\000"
 10189      4843445F 
 10189      47657453 
 10189      74617465 
 10189      00
 10190              	.LASF129:
 10191 058f 7572625F 		.ascii	"urb_state\000"
 10191      73746174 
 10191      6500
 10192              	.LASF175:
 10193 0599 5553425F 		.ascii	"USB_DisableGlobalInt\000"
 10193      44697361 
 10193      626C6547 
 10193      6C6F6261 
 10193      6C496E74 
 10194              	.LASF135:
 10195 05ae 5553425F 		.ascii	"USB_OTG_HCStateTypeDef\000"
 10195      4F54475F 
 10195      48435374 
 10195      61746554 
 10195      79706544 
 10196              	.LASF171:
 10197 05c5 5553425F 		.ascii	"USB_GetHostSpeed\000"
 10197      47657448 
 10197      6F737453 
 10197      70656564 
 10197      00
 10198              	.LASF122:
 10199 05d6 78666572 		.ascii	"xfer_len\000"
 10199      5F6C656E 
 10199      00
 10200              	.LASF77:
 10201 05df 5552425F 		.ascii	"URB_NYET\000"
ARM GAS  C:\Users\DEVELO~1\AppData\Local\Temp\ccbkr0PB.s 			page 185


 10201      4E594554 
 10201      00
 10202              	.LASF119:
 10203 05e8 64617461 		.ascii	"data_pid\000"
 10203      5F706964 
 10203      00
 10204              	.LASF23:
 10205 05f1 47525853 		.ascii	"GRXSTSP\000"
 10205      54535000 
 10206              	.LASF22:
 10207 05f9 47525853 		.ascii	"GRXSTSR\000"
 10207      54535200 
 10208              	.LASF29:
 10209 0601 47534E50 		.ascii	"GSNPSID\000"
 10209      53494400 
 10210              	.LASF123:
 10211 0609 78666572 		.ascii	"xfer_count\000"
 10211      5F636F75 
 10211      6E7400
 10212              	.LASF211:
 10213 0614 48414C5F 		.ascii	"HAL_HCD_IRQHandler\000"
 10213      4843445F 
 10213      49525148 
 10213      616E646C 
 10213      657200
 10214              	.LASF231:
 10215 0627 2E2F6472 		.ascii	"./drivers/stm32h7xx-hal-driver/Src/stm32h7xx_hal_hc"
 10215      69766572 
 10215      732F7374 
 10215      6D333268 
 10215      3778782D 
 10216 065a 642E6300 		.ascii	"d.c\000"
 10217              	.LASF62:
 10218 065e 48414C5F 		.ascii	"HAL_OK\000"
 10218      4F4B00
 10219              	.LASF183:
 10220 0665 706B7473 		.ascii	"pktsts\000"
 10220      747300
 10221              	.LASF98:
 10222 066c 536F665F 		.ascii	"Sof_enable\000"
 10222      656E6162 
 10222      6C6500
 10223              	.LASF70:
 10224 0677 5553425F 		.ascii	"USB_DEVICE_MODE\000"
 10224      44455649 
 10224      43455F4D 
 10224      4F444500 
 10225              	.LASF75:
 10226 0687 5552425F 		.ascii	"URB_DONE\000"
 10226      444F4E45 
 10226      00
 10227              	.LASF217:
 10228 0690 70627566 		.ascii	"pbuff\000"
 10228      6600
 10229              	.LASF186:
 10230 0696 78666572 		.ascii	"xferSizePktCnt\000"
 10230      53697A65 
ARM GAS  C:\Users\DEVELO~1\AppData\Local\Temp\ccbkr0PB.s 			page 186


 10230      506B7443 
 10230      6E7400
 10231              	.LASF223:
 10232 06a5 48414C5F 		.ascii	"HAL_HCD_HC_Halt\000"
 10232      4843445F 
 10232      48435F48 
 10232      616C7400 
 10233              	.LASF136:
 10234 06b5 5553425F 		.ascii	"USB_OTG_HCTypeDef\000"
 10234      4F54475F 
 10234      48435479 
 10234      70654465 
 10234      6600
 10235              	.LASF53:
 10236 06c7 4843494E 		.ascii	"HCINTMSK\000"
 10236      544D534B 
 10236      00
 10237              	.LASF124:
 10238 06d0 746F6767 		.ascii	"toggle_in\000"
 10238      6C655F69 
 10238      6E00
 10239              	.LASF52:
 10240 06da 4843494E 		.ascii	"HCINT\000"
 10240      5400
 10241              	.LASF94:
 10242 06e0 646D615F 		.ascii	"dma_enable\000"
 10242      656E6162 
 10242      6C6500
 10243              	.LASF27:
 10244 06eb 52657365 		.ascii	"Reserved30\000"
 10244      72766564 
 10244      333000
 10245              	.LASF42:
 10246 06f6 48434647 		.ascii	"HCFG\000"
 10246      00
 10247              	.LASF111:
 10248 06fb 646F5F73 		.ascii	"do_ssplit\000"
 10248      73706C69 
 10248      7400
 10249              	.LASF89:
 10250 0705 48435F42 		.ascii	"HC_BBLERR\000"
 10250      424C4552 
 10250      5200
 10251              	.LASF134:
 10252 070f 5553425F 		.ascii	"USB_OTG_URBStateTypeDef\000"
 10252      4F54475F 
 10252      55524253 
 10252      74617465 
 10252      54797065 
 10253              	.LASF166:
 10254 0727 5553425F 		.ascii	"USB_ReadInterrupts\000"
 10254      52656164 
 10254      496E7465 
 10254      72727570 
 10254      747300
 10255              	.LASF158:
 10256 073a 5553425F 		.ascii	"USB_EnableGlobalInt\000"
ARM GAS  C:\Users\DEVELO~1\AppData\Local\Temp\ccbkr0PB.s 			page 187


 10256      456E6162 
 10256      6C65476C 
 10256      6F62616C 
 10256      496E7400 
 10257              	.LASF18:
 10258 074e 47555342 		.ascii	"GUSBCFG\000"
 10258      43464700 
 10259              	.LASF60:
 10260 0756 666C6F61 		.ascii	"float\000"
 10260      7400
 10261              	.LASF216:
 10262 075c 746F6B65 		.ascii	"token\000"
 10262      6E00
 10263              	.LASF148:
 10264 0762 496E7374 		.ascii	"Instance\000"
 10264      616E6365 
 10264      00
 10265              	.LASF184:
 10266 076b 706B7463 		.ascii	"pktcnt\000"
 10266      6E7400
 10267              	.LASF114:
 10268 0772 69736F5F 		.ascii	"iso_splt_xactPos\000"
 10268      73706C74 
 10268      5F786163 
 10268      74506F73 
 10268      00
 10269              	.LASF214:
 10270 0783 48414C5F 		.ascii	"HAL_HCD_HC_SubmitRequest\000"
 10270      4843445F 
 10270      48435F53 
 10270      75626D69 
 10270      74526571 
 10271              	.LASF167:
 10272 079c 5553425F 		.ascii	"USB_GetMode\000"
 10272      4765744D 
 10272      6F646500 
 10273              	.LASF169:
 10274 07a8 5553425F 		.ascii	"USB_HC_Halt\000"
 10274      48435F48 
 10274      616C7400 
 10275              	.LASF161:
 10276 07b4 5553425F 		.ascii	"USB_ReadChInterrupts\000"
 10276      52656164 
 10276      4368496E 
 10276      74657272 
 10276      75707473 
 10277              	.LASF229:
 10278 07c9 48414C5F 		.ascii	"HAL_HCD_Init\000"
 10278      4843445F 
 10278      496E6974 
 10278      00
 10279              	.LASF3:
 10280 07d6 756E7369 		.ascii	"unsigned char\000"
 10280      676E6564 
 10280      20636861 
 10280      7200
 10281              	.LASF172:
ARM GAS  C:\Users\DEVELO~1\AppData\Local\Temp\ccbkr0PB.s 			page 188


 10282 07e4 5553425F 		.ascii	"USB_HostInit\000"
 10282      486F7374 
 10282      496E6974 
 10282      00
 10283              	.LASF43:
 10284 07f1 48464952 		.ascii	"HFIR\000"
 10284      00
 10285              	.LASF45:
 10286 07f6 52657365 		.ascii	"Reserved40C\000"
 10286      72766564 
 10286      34304300 
 10287              	.LASF1:
 10288 0802 73686F72 		.ascii	"short int\000"
 10288      7420696E 
 10288      7400
 10289              	.LASF21:
 10290 080c 47494E54 		.ascii	"GINTMSK\000"
 10290      4D534B00 
 10291              	.LASF224:
 10292 0814 48414C5F 		.ascii	"HAL_HCD_HC_Init\000"
 10292      4843445F 
 10292      48435F49 
 10292      6E697400 
 10293              	.LASF165:
 10294 0824 5553425F 		.ascii	"USB_FlushTxFifo\000"
 10294      466C7573 
 10294      68547846 
 10294      69666F00 
 10295              	.LASF90:
 10296 0834 48435F44 		.ascii	"HC_DATATGLERR\000"
 10296      41544154 
 10296      474C4552 
 10296      5200
 10297              	.LASF154:
 10298 0842 4843445F 		.ascii	"HCD_HandleTypeDef\000"
 10298      48616E64 
 10298      6C655479 
 10298      70654465 
 10298      6600
 10299              	.LASF207:
 10300 0854 48414C5F 		.ascii	"HAL_HCD_Disconnect_Callback\000"
 10300      4843445F 
 10300      44697363 
 10300      6F6E6E65 
 10300      63745F43 
 10301              	.LASF38:
 10302 0870 52657365 		.ascii	"Reserved43\000"
 10302      72766564 
 10302      343300
 10303              	.LASF78:
 10304 087b 5552425F 		.ascii	"URB_ERROR\000"
 10304      4552524F 
 10304      5200
 10305              	.LASF74:
 10306 0885 5552425F 		.ascii	"URB_IDLE\000"
 10306      49444C45 
 10306      00
ARM GAS  C:\Users\DEVELO~1\AppData\Local\Temp\ccbkr0PB.s 			page 189


 10307              	.LASF105:
 10308 088e 5553425F 		.ascii	"USB_CfgTypeDef\000"
 10308      43666754 
 10308      79706544 
 10308      656600
 10309              	.LASF173:
 10310 089d 5553425F 		.ascii	"USB_SetCurrentMode\000"
 10310      53657443 
 10310      75727265 
 10310      6E744D6F 
 10310      646500
 10311              	.LASF101:
 10312 08b0 62617474 		.ascii	"battery_charging_enable\000"
 10312      6572795F 
 10312      63686172 
 10312      67696E67 
 10312      5F656E61 
 10313              	.LASF174:
 10314 08c8 5553425F 		.ascii	"USB_CoreInit\000"
 10314      436F7265 
 10314      496E6974 
 10314      00
 10315              	.LASF14:
 10316 08d5 75696E74 		.ascii	"uint32_t\000"
 10316      33325F74 
 10316      00
 10317              	.LASF205:
 10318 08de 48414C5F 		.ascii	"HAL_HCD_PortDisabled_Callback\000"
 10318      4843445F 
 10318      506F7274 
 10318      44697361 
 10318      626C6564 
 10319              	.LASF108:
 10320 08fc 65705F6E 		.ascii	"ep_num\000"
 10320      756D00
 10321              	.LASF63:
 10322 0903 48414C5F 		.ascii	"HAL_ERROR\000"
 10322      4552524F 
 10322      5200
 10323              	.LASF222:
 10324 090d 48414C5F 		.ascii	"HAL_HCD_DeInit\000"
 10324      4843445F 
 10324      4465496E 
 10324      697400
 10325              	.LASF155:
 10326 091c 5553425F 		.ascii	"USB_GetCurrentFrame\000"
 10326      47657443 
 10326      75727265 
 10326      6E744672 
 10326      616D6500 
 10327              	.LASF59:
 10328 0930 63686172 		.ascii	"char\000"
 10328      00
 10329              	.LASF58:
 10330 0935 6C6F6E67 		.ascii	"long double\000"
 10330      20646F75 
 10330      626C6500 
ARM GAS  C:\Users\DEVELO~1\AppData\Local\Temp\ccbkr0PB.s 			page 190


 10331              	.LASF218:
 10332 0941 6C656E67 		.ascii	"length\000"
 10332      746800
 10333              	.LASF72:
 10334 0948 5553425F 		.ascii	"USB_DRD_MODE\000"
 10334      4452445F 
 10334      4D4F4445 
 10334      00
 10335              	.LASF190:
 10336 0955 6E756D5F 		.ascii	"num_packets\000"
 10336      7061636B 
 10336      65747300 
 10337              	.LASF85:
 10338 0961 48435F4E 		.ascii	"HC_NAK\000"
 10338      414B00
 10339              	.LASF168:
 10340 0968 5553425F 		.ascii	"USB_HC_StartXfer\000"
 10340      48435F53 
 10340      74617274 
 10340      58666572 
 10340      00
 10341              	.LASF47:
 10342 0979 4841494E 		.ascii	"HAINT\000"
 10342      5400
 10343              	.LASF151:
 10344 097f 53746174 		.ascii	"State\000"
 10344      6500
 10345              	.LASF170:
 10346 0985 5553425F 		.ascii	"USB_HC_Init\000"
 10346      48435F49 
 10346      6E697400 
 10347              	.LASF5:
 10348 0991 5F5F7569 		.ascii	"__uint16_t\000"
 10348      6E743136 
 10348      5F7400
 10349              	.LASF118:
 10350 099c 6D61785F 		.ascii	"max_packet\000"
 10350      7061636B 
 10350      657400
 10351              	.LASF76:
 10352 09a7 5552425F 		.ascii	"URB_NOTREADY\000"
 10352      4E4F5452 
 10352      45414459 
 10352      00
 10353              	.LASF230:
 10354 09b4 474E5520 		.ascii	"GNU C17 11.3.1 20220712 -mcpu=cortex-m7 -mthumb -mf"
 10354      43313720 
 10354      31312E33 
 10354      2E312032 
 10354      30323230 
 10355 09e7 6C6F6174 		.ascii	"loat-abi=hard -mfpu=fpv5-d16 -march=armv7e-m+fp.dp "
 10355      2D616269 
 10355      3D686172 
 10355      64202D6D 
 10355      6670753D 
 10356 0a1a 2D676764 		.ascii	"-ggdb -O2 -ffunction-sections -fdata-sections -fno-"
 10356      62202D4F 
ARM GAS  C:\Users\DEVELO~1\AppData\Local\Temp\ccbkr0PB.s 			page 191


 10356      32202D66 
 10356      66756E63 
 10356      74696F6E 
 10357 0a4d 636F6D6D 		.ascii	"common\000"
 10357      6F6E00
 10358              	.LASF41:
 10359 0a54 5553425F 		.ascii	"USB_OTG_GlobalTypeDef\000"
 10359      4F54475F 
 10359      476C6F62 
 10359      616C5479 
 10359      70654465 
 10360              	.LASF125:
 10361 0a6a 746F6767 		.ascii	"toggle_out\000"
 10361      6C655F6F 
 10361      757400
 10362              	.LASF177:
 10363 0a75 55534278 		.ascii	"USBx_BASE\000"
 10363      5F424153 
 10363      4500
 10364              	.LASF12:
 10365 0a7f 75696E74 		.ascii	"uint8_t\000"
 10365      385F7400 
 10366              	.LASF115:
 10367 0a87 6875625F 		.ascii	"hub_port_nbr\000"
 10367      706F7274 
 10367      5F6E6272 
 10367      00
 10368              	.LASF162:
 10369 0a94 5553425F 		.ascii	"USB_HC_ReadInterrupt\000"
 10369      48435F52 
 10369      65616449 
 10369      6E746572 
 10369      72757074 
 10370              	.LASF96:
 10371 0aa9 6570305F 		.ascii	"ep0_mps\000"
 10371      6D707300 
 10372              	.LASF144:
 10373 0ab1 4843445F 		.ascii	"HCD_InitTypeDef\000"
 10373      496E6974 
 10373      54797065 
 10373      44656600 
 10374              	.LASF88:
 10375 0ac1 48435F58 		.ascii	"HC_XACTERR\000"
 10375      41435445 
 10375      525200
 10376              	.LASF15:
 10377 0acc 474F5447 		.ascii	"GOTGCTL\000"
 10377      43544C00 
 10378              	.LASF221:
 10379 0ad4 48414C5F 		.ascii	"HAL_HCD_MspInit\000"
 10379      4843445F 
 10379      4D737049 
 10379      6E697400 
 10380              	.LASF84:
 10381 0ae4 48435F41 		.ascii	"HC_ACK\000"
 10381      434B00
 10382              	.LASF179:
ARM GAS  C:\Users\DEVELO~1\AppData\Local\Temp\ccbkr0PB.s 			page 192


 10383 0aeb 68707274 		.ascii	"hprt0_dup\000"
 10383      305F6475 
 10383      7000
 10384              	.LASF8:
 10385 0af5 5F5F7569 		.ascii	"__uint32_t\000"
 10385      6E743332 
 10385      5F7400
 10386              	.LASF117:
 10387 0b00 65705F74 		.ascii	"ep_type\000"
 10387      79706500 
 10388              	.LASF46:
 10389 0b08 48505458 		.ascii	"HPTXSTS\000"
 10389      53545300 
 10390              	.LASF37:
 10391 0b10 47414450 		.ascii	"GADPCTL\000"
 10391      43544C00 
 10392              	.LASF120:
 10393 0b18 78666572 		.ascii	"xfer_buff\000"
 10393      5F627566 
 10393      6600
 10394              	.LASF39:
 10395 0b22 48505458 		.ascii	"HPTXFSIZ\000"
 10395      4653495A 
 10395      00
 10396              	.LASF86:
 10397 0b2b 48435F4E 		.ascii	"HC_NYET\000"
 10397      59455400 
 10398              	.LASF227:
 10399 0b33 73746174 		.ascii	"status\000"
 10399      757300
 10400              	.LASF82:
 10401 0b3a 48435F58 		.ascii	"HC_XFRC\000"
 10401      46524300 
 10402              	.LASF57:
 10403 0b42 5553425F 		.ascii	"USB_OTG_HostChannelTypeDef\000"
 10403      4F54475F 
 10403      486F7374 
 10403      4368616E 
 10403      6E656C54 
 10404              	.LASF100:
 10405 0b5d 6C706D5F 		.ascii	"lpm_enable\000"
 10405      656E6162 
 10405      6C6500
 10406              	.LASF132:
 10407 0b68 5553425F 		.ascii	"USB_OTG_ModeTypeDef\000"
 10407      4F54475F 
 10407      4D6F6465 
 10407      54797065 
 10407      44656600 
 10408              	.LASF126:
 10409 0b7c 646D615F 		.ascii	"dma_addr\000"
 10409      61646472 
 10409      00
 10410              	.LASF91:
 10411 0b85 5553425F 		.ascii	"USB_HCStateTypeDef\000"
 10411      48435374 
 10411      61746554 
ARM GAS  C:\Users\DEVELO~1\AppData\Local\Temp\ccbkr0PB.s 			page 193


 10411      79706544 
 10411      656600
 10412              	.LASF32:
 10413 0b98 47485743 		.ascii	"GHWCFG3\000"
 10413      46473300 
 10414              	.LASF79:
 10415 0ba0 5552425F 		.ascii	"URB_STALL\000"
 10415      5354414C 
 10415      4C00
 10416              	.LASF156:
 10417 0baa 5553425F 		.ascii	"USB_ResetPort\000"
 10417      52657365 
 10417      74506F72 
 10417      7400
 10418              	.LASF73:
 10419 0bb8 5553425F 		.ascii	"USB_ModeTypeDef\000"
 10419      4D6F6465 
 10419      54797065 
 10419      44656600 
 10420              	.LASF145:
 10421 0bc8 4843445F 		.ascii	"HCD_HCTypeDef\000"
 10421      48435479 
 10421      70654465 
 10421      6600
 10422              	.LASF127:
 10423 0bd6 45727243 		.ascii	"ErrCnt\000"
 10423      6E7400
 10424              	.LASF28:
 10425 0bdd 47434346 		.ascii	"GCCFG\000"
 10425      4700
 10426              	.LASF95:
 10427 0be3 73706565 		.ascii	"speed\000"
 10427      6400
 10428              	.LASF202:
 10429 0be9 48414C5F 		.ascii	"HAL_HCD_ResetPort\000"
 10429      4843445F 
 10429      52657365 
 10429      74506F72 
 10429      7400
 10430              	.LASF210:
 10431 0bfb 48414C5F 		.ascii	"HAL_HCD_HC_NotifyURBChange_Callback\000"
 10431      4843445F 
 10431      48435F4E 
 10431      6F746966 
 10431      79555242 
 10432              	.LASF50:
 10433 0c1f 48434348 		.ascii	"HCCHAR\000"
 10433      415200
 10434              	.LASF188:
 10435 0c26 63686E75 		.ascii	"chnum\000"
 10435      6D00
 10436              	.LASF67:
 10437 0c2c 48414C5F 		.ascii	"HAL_UNLOCKED\000"
 10437      554E4C4F 
 10437      434B4544 
 10437      00
 10438              	.LASF2:
ARM GAS  C:\Users\DEVELO~1\AppData\Local\Temp\ccbkr0PB.s 			page 194


 10439 0c39 7369676E 		.ascii	"signed char\000"
 10439      65642063 
 10439      68617200 
 10440              	.LASF40:
 10441 0c45 44494550 		.ascii	"DIEPTXF\000"
 10441      54584600 
 10442              	.LASF209:
 10443 0c4d 48414C5F 		.ascii	"HAL_HCD_SOF_Callback\000"
 10443      4843445F 
 10443      534F465F 
 10443      43616C6C 
 10443      6261636B 
 10444              	.LASF99:
 10445 0c62 6C6F775F 		.ascii	"low_power_enable\000"
 10445      706F7765 
 10445      725F656E 
 10445      61626C65 
 10445      00
 10446              	.LASF61:
 10447 0c73 646F7562 		.ascii	"double\000"
 10447      6C6500
 10448              	.LASF26:
 10449 0c7a 484E5054 		.ascii	"HNPTXSTS\000"
 10449      58535453 
 10449      00
 10450              	.LASF0:
 10451 0c83 756E7369 		.ascii	"unsigned int\000"
 10451      676E6564 
 10451      20696E74 
 10451      00
 10452              	.LASF139:
 10453 0c90 48414C5F 		.ascii	"HAL_HCD_STATE_ERROR\000"
 10453      4843445F 
 10453      53544154 
 10453      455F4552 
 10453      524F5200 
 10454              		.ident	"GCC: (Arm GNU Toolchain 11.3.Rel1) 11.3.1 20220712"
ARM GAS  C:\Users\DEVELO~1\AppData\Local\Temp\ccbkr0PB.s 			page 195


DEFINED SYMBOLS
                            *ABS*:00000000 stm32h7xx_hal_hcd.c
C:\Users\DEVELO~1\AppData\Local\Temp\ccbkr0PB.s:19     .text.HAL_HCD_HC_Init:00000000 $t
C:\Users\DEVELO~1\AppData\Local\Temp\ccbkr0PB.s:26     .text.HAL_HCD_HC_Init:00000000 HAL_HCD_HC_Init
C:\Users\DEVELO~1\AppData\Local\Temp\ccbkr0PB.s:207    .text.HAL_HCD_HC_Halt:00000000 $t
C:\Users\DEVELO~1\AppData\Local\Temp\ccbkr0PB.s:214    .text.HAL_HCD_HC_Halt:00000000 HAL_HCD_HC_Halt
C:\Users\DEVELO~1\AppData\Local\Temp\ccbkr0PB.s:270    .text.HAL_HCD_MspInit:00000000 $t
C:\Users\DEVELO~1\AppData\Local\Temp\ccbkr0PB.s:277    .text.HAL_HCD_MspInit:00000000 HAL_HCD_MspInit
C:\Users\DEVELO~1\AppData\Local\Temp\ccbkr0PB.s:292    .text.HAL_HCD_Init:00000000 $t
C:\Users\DEVELO~1\AppData\Local\Temp\ccbkr0PB.s:299    .text.HAL_HCD_Init:00000000 HAL_HCD_Init
C:\Users\DEVELO~1\AppData\Local\Temp\ccbkr0PB.s:440    .text.HAL_HCD_Init:00000090 $d
C:\Users\DEVELO~1\AppData\Local\Temp\ccbkr0PB.s:446    .text.HAL_HCD_MspDeInit:00000000 $t
C:\Users\DEVELO~1\AppData\Local\Temp\ccbkr0PB.s:453    .text.HAL_HCD_MspDeInit:00000000 HAL_HCD_MspDeInit
C:\Users\DEVELO~1\AppData\Local\Temp\ccbkr0PB.s:464    .text.HAL_HCD_DeInit:00000000 $t
C:\Users\DEVELO~1\AppData\Local\Temp\ccbkr0PB.s:471    .text.HAL_HCD_DeInit:00000000 HAL_HCD_DeInit
C:\Users\DEVELO~1\AppData\Local\Temp\ccbkr0PB.s:523    .text.HAL_HCD_HC_SubmitRequest:00000000 $t
C:\Users\DEVELO~1\AppData\Local\Temp\ccbkr0PB.s:530    .text.HAL_HCD_HC_SubmitRequest:00000000 HAL_HCD_HC_SubmitRequest
C:\Users\DEVELO~1\AppData\Local\Temp\ccbkr0PB.s:639    .text.HAL_HCD_HC_SubmitRequest:00000074 $d
C:\Users\DEVELO~1\AppData\Local\Temp\ccbkr0PB.s:643    .text.HAL_HCD_HC_SubmitRequest:00000078 $t
C:\Users\DEVELO~1\AppData\Local\Temp\ccbkr0PB.s:749    .text.HAL_HCD_SOF_Callback:00000000 $t
C:\Users\DEVELO~1\AppData\Local\Temp\ccbkr0PB.s:756    .text.HAL_HCD_SOF_Callback:00000000 HAL_HCD_SOF_Callback
C:\Users\DEVELO~1\AppData\Local\Temp\ccbkr0PB.s:767    .text.HAL_HCD_Connect_Callback:00000000 $t
C:\Users\DEVELO~1\AppData\Local\Temp\ccbkr0PB.s:774    .text.HAL_HCD_Connect_Callback:00000000 HAL_HCD_Connect_Callback
C:\Users\DEVELO~1\AppData\Local\Temp\ccbkr0PB.s:785    .text.HAL_HCD_Disconnect_Callback:00000000 $t
C:\Users\DEVELO~1\AppData\Local\Temp\ccbkr0PB.s:792    .text.HAL_HCD_Disconnect_Callback:00000000 HAL_HCD_Disconnect_Callback
C:\Users\DEVELO~1\AppData\Local\Temp\ccbkr0PB.s:803    .text.HAL_HCD_PortEnabled_Callback:00000000 $t
C:\Users\DEVELO~1\AppData\Local\Temp\ccbkr0PB.s:810    .text.HAL_HCD_PortEnabled_Callback:00000000 HAL_HCD_PortEnabled_Callback
C:\Users\DEVELO~1\AppData\Local\Temp\ccbkr0PB.s:821    .text.HAL_HCD_PortDisabled_Callback:00000000 $t
C:\Users\DEVELO~1\AppData\Local\Temp\ccbkr0PB.s:828    .text.HAL_HCD_PortDisabled_Callback:00000000 HAL_HCD_PortDisabled_Callback
C:\Users\DEVELO~1\AppData\Local\Temp\ccbkr0PB.s:839    .text.HAL_HCD_HC_NotifyURBChange_Callback:00000000 $t
C:\Users\DEVELO~1\AppData\Local\Temp\ccbkr0PB.s:846    .text.HAL_HCD_HC_NotifyURBChange_Callback:00000000 HAL_HCD_HC_NotifyURBChange_Callback
C:\Users\DEVELO~1\AppData\Local\Temp\ccbkr0PB.s:863    .text.HAL_HCD_IRQHandler:00000000 $t
C:\Users\DEVELO~1\AppData\Local\Temp\ccbkr0PB.s:870    .text.HAL_HCD_IRQHandler:00000000 HAL_HCD_IRQHandler
C:\Users\DEVELO~1\AppData\Local\Temp\ccbkr0PB.s:2014   .text.HAL_HCD_IRQHandler:00000538 $d
C:\Users\DEVELO~1\AppData\Local\Temp\ccbkr0PB.s:2022   .text.HAL_HCD_IRQHandler:00000558 $t
C:\Users\DEVELO~1\AppData\Local\Temp\ccbkr0PB.s:2824   .text.HAL_HCD_IRQHandler:000008f8 $d
C:\Users\DEVELO~1\AppData\Local\Temp\ccbkr0PB.s:2831   .text.HAL_HCD_IRQHandler:00000914 $t
C:\Users\DEVELO~1\AppData\Local\Temp\ccbkr0PB.s:2950   .text.HAL_HCD_Start:00000000 $t
C:\Users\DEVELO~1\AppData\Local\Temp\ccbkr0PB.s:2957   .text.HAL_HCD_Start:00000000 HAL_HCD_Start
C:\Users\DEVELO~1\AppData\Local\Temp\ccbkr0PB.s:3016   .text.HAL_HCD_Stop:00000000 $t
C:\Users\DEVELO~1\AppData\Local\Temp\ccbkr0PB.s:3023   .text.HAL_HCD_Stop:00000000 HAL_HCD_Stop
C:\Users\DEVELO~1\AppData\Local\Temp\ccbkr0PB.s:3078   .text.HAL_HCD_ResetPort:00000000 $t
C:\Users\DEVELO~1\AppData\Local\Temp\ccbkr0PB.s:3085   .text.HAL_HCD_ResetPort:00000000 HAL_HCD_ResetPort
C:\Users\DEVELO~1\AppData\Local\Temp\ccbkr0PB.s:3104   .text.HAL_HCD_GetState:00000000 $t
C:\Users\DEVELO~1\AppData\Local\Temp\ccbkr0PB.s:3111   .text.HAL_HCD_GetState:00000000 HAL_HCD_GetState
C:\Users\DEVELO~1\AppData\Local\Temp\ccbkr0PB.s:3129   .text.HAL_HCD_HC_GetURBState:00000000 $t
C:\Users\DEVELO~1\AppData\Local\Temp\ccbkr0PB.s:3136   .text.HAL_HCD_HC_GetURBState:00000000 HAL_HCD_HC_GetURBState
C:\Users\DEVELO~1\AppData\Local\Temp\ccbkr0PB.s:3158   .text.HAL_HCD_HC_GetXferCount:00000000 $t
C:\Users\DEVELO~1\AppData\Local\Temp\ccbkr0PB.s:3165   .text.HAL_HCD_HC_GetXferCount:00000000 HAL_HCD_HC_GetXferCount
C:\Users\DEVELO~1\AppData\Local\Temp\ccbkr0PB.s:3187   .text.HAL_HCD_HC_GetState:00000000 $t
C:\Users\DEVELO~1\AppData\Local\Temp\ccbkr0PB.s:3194   .text.HAL_HCD_HC_GetState:00000000 HAL_HCD_HC_GetState
C:\Users\DEVELO~1\AppData\Local\Temp\ccbkr0PB.s:3216   .text.HAL_HCD_GetCurrentFrame:00000000 $t
C:\Users\DEVELO~1\AppData\Local\Temp\ccbkr0PB.s:3223   .text.HAL_HCD_GetCurrentFrame:00000000 HAL_HCD_GetCurrentFrame
C:\Users\DEVELO~1\AppData\Local\Temp\ccbkr0PB.s:3242   .text.HAL_HCD_GetCurrentSpeed:00000000 $t
C:\Users\DEVELO~1\AppData\Local\Temp\ccbkr0PB.s:3249   .text.HAL_HCD_GetCurrentSpeed:00000000 HAL_HCD_GetCurrentSpeed
C:\Users\DEVELO~1\AppData\Local\Temp\ccbkr0PB.s:3268   .text.HAL_HCD_HC_SetHubInfo:00000000 $t
C:\Users\DEVELO~1\AppData\Local\Temp\ccbkr0PB.s:3275   .text.HAL_HCD_HC_SetHubInfo:00000000 HAL_HCD_HC_SetHubInfo
ARM GAS  C:\Users\DEVELO~1\AppData\Local\Temp\ccbkr0PB.s 			page 196


C:\Users\DEVELO~1\AppData\Local\Temp\ccbkr0PB.s:3358   .text.HAL_HCD_HC_ClearHubInfo:00000000 $t
C:\Users\DEVELO~1\AppData\Local\Temp\ccbkr0PB.s:3365   .text.HAL_HCD_HC_ClearHubInfo:00000000 HAL_HCD_HC_ClearHubInfo

UNDEFINED SYMBOLS
USB_GetHostSpeed
USB_HC_Init
USB_HC_Halt
assert_param
USB_DisableGlobalInt
USB_CoreInit
USB_SetCurrentMode
USB_HostInit
USB_HC_StartXfer
USB_GetMode
USB_ReadInterrupts
USB_FlushTxFifo
USB_FlushRxFifo
USB_HC_ReadInterrupt
USB_ReadChInterrupts
USB_InitFSLSPClkSel
USB_ReadPacket
USB_DriveVbus
USB_EnableGlobalInt
USB_StopHost
USB_ResetPort
USB_GetCurrentFrame
