ARM GAS  C:\Users\DEVELO~1\AppData\Local\Temp\ccxGW0hd.s 			page 1


   1              		.cpu cortex-m7
   2              		.arch armv7e-m
   3              		.fpu fpv5-d16
   4              		.eabi_attribute 28, 1
   5              		.eabi_attribute 20, 1
   6              		.eabi_attribute 21, 1
   7              		.eabi_attribute 23, 3
   8              		.eabi_attribute 24, 1
   9              		.eabi_attribute 25, 1
  10              		.eabi_attribute 26, 1
  11              		.eabi_attribute 30, 2
  12              		.eabi_attribute 34, 1
  13              		.eabi_attribute 18, 4
  14              		.file	"stm32h7xx_hal.c"
  15              		.text
  16              	.Ltext0:
  17              		.cfi_sections	.debug_frame
  18              		.section	.text.HAL_MspInit,"ax",%progbits
  19              		.align	1
  20              		.p2align 2,,3
  21              		.weak	HAL_MspInit
  22              		.syntax unified
  23              		.thumb
  24              		.thumb_func
  25              		.type	HAL_MspInit, %function
  26              	HAL_MspInit:
  27              	.LFB143:
  28              		.file 1 "./drivers/stm32h7xx-hal-driver/Src/stm32h7xx_hal.c"
  29              		.loc 1 229 1 view -0
  30              		.cfi_startproc
  31              		@ args = 0, pretend = 0, frame = 0
  32              		@ frame_needed = 0, uses_anonymous_args = 0
  33              		@ link register save eliminated.
  34              		.loc 1 233 1 view .LVU1
  35 0000 7047     		bx	lr
  36              		.cfi_endproc
  37              	.LFE143:
  38              		.size	HAL_MspInit, .-HAL_MspInit
  39 0002 00BF     		.section	.text.HAL_MspDeInit,"ax",%progbits
  40              		.align	1
  41              		.p2align 2,,3
  42              		.weak	HAL_MspDeInit
  43              		.syntax unified
  44              		.thumb
  45              		.thumb_func
  46              		.type	HAL_MspDeInit, %function
  47              	HAL_MspDeInit:
  48              	.LFB191:
  49              		.cfi_startproc
  50              		@ args = 0, pretend = 0, frame = 0
  51              		@ frame_needed = 0, uses_anonymous_args = 0
  52              		@ link register save eliminated.
  53 0000 7047     		bx	lr
  54              		.cfi_endproc
  55              	.LFE191:
  56              		.size	HAL_MspDeInit, .-HAL_MspDeInit
  57 0002 00BF     		.section	.text.HAL_DeInit,"ax",%progbits
ARM GAS  C:\Users\DEVELO~1\AppData\Local\Temp\ccxGW0hd.s 			page 2


  58              		.align	1
  59              		.p2align 2,,3
  60              		.global	HAL_DeInit
  61              		.syntax unified
  62              		.thumb
  63              		.thumb_func
  64              		.type	HAL_DeInit, %function
  65              	HAL_DeInit:
  66              	.LFB142:
  67              		.loc 1 188 1 view -0
  68              		.cfi_startproc
  69              		@ args = 0, pretend = 0, frame = 0
  70              		@ frame_needed = 0, uses_anonymous_args = 0
  71              		.loc 1 190 3 view .LVU3
  72              		.loc 1 188 1 is_stmt 0 view .LVU4
  73 0000 10B5     		push	{r4, lr}
  74              		.cfi_def_cfa_offset 8
  75              		.cfi_offset 4, -8
  76              		.cfi_offset 14, -4
  77              		.loc 1 190 3 view .LVU5
  78 0002 194B     		ldr	r3, .L6
  79              		.loc 1 191 3 view .LVU6
  80 0004 0024     		movs	r4, #0
  81              		.loc 1 190 3 view .LVU7
  82 0006 1949     		ldr	r1, .L6+4
  83              		.loc 1 196 3 view .LVU8
  84 0008 40F27120 		movw	r0, #625
  85              		.loc 1 193 3 view .LVU9
  86 000c 184A     		ldr	r2, .L6+8
  87              		.loc 1 190 3 view .LVU10
  88 000e D967     		str	r1, [r3, #124]
  89              		.loc 1 191 3 is_stmt 1 view .LVU11
  90              		.loc 1 202 3 is_stmt 0 view .LVU12
  91 0010 1821     		movs	r1, #24
  92              		.loc 1 191 3 view .LVU13
  93 0012 DC67     		str	r4, [r3, #124]
  94              		.loc 1 193 3 is_stmt 1 view .LVU14
  95 0014 C3F88020 		str	r2, [r3, #128]
  96              		.loc 1 194 3 view .LVU15
  97              		.loc 1 199 3 is_stmt 0 view .LVU16
  98 0018 164A     		ldr	r2, .L6+12
  99              		.loc 1 194 3 view .LVU17
 100 001a C3F88040 		str	r4, [r3, #128]
 101              		.loc 1 196 3 is_stmt 1 view .LVU18
 102 001e C3F88400 		str	r0, [r3, #132]
 103              		.loc 1 197 3 view .LVU19
 104              		.loc 1 208 3 is_stmt 0 view .LVU20
 105 0022 4FF49B70 		mov	r0, #310
 106              		.loc 1 197 3 view .LVU21
 107 0026 C3F88440 		str	r4, [r3, #132]
 108              		.loc 1 199 3 is_stmt 1 view .LVU22
 109 002a C3F88820 		str	r2, [r3, #136]
 110              		.loc 1 200 2 view .LVU23
 111              		.loc 1 205 3 is_stmt 0 view .LVU24
 112 002e 124A     		ldr	r2, .L6+16
 113              		.loc 1 200 2 view .LVU25
 114 0030 C3F88840 		str	r4, [r3, #136]
ARM GAS  C:\Users\DEVELO~1\AppData\Local\Temp\ccxGW0hd.s 			page 3


 115              		.loc 1 202 3 is_stmt 1 view .LVU26
 116 0034 C3F88C10 		str	r1, [r3, #140]
 117              		.loc 1 203 3 view .LVU27
 118 0038 C3F88C40 		str	r4, [r3, #140]
 119              		.loc 1 205 3 view .LVU28
 120              		.loc 1 211 4 is_stmt 0 view .LVU29
 121 003c 0F49     		ldr	r1, .L6+20
 122              		.loc 1 205 3 view .LVU30
 123 003e C3F89020 		str	r2, [r3, #144]
 124              		.loc 1 206 3 is_stmt 1 view .LVU31
 125              		.loc 1 214 3 is_stmt 0 view .LVU32
 126 0042 0F4A     		ldr	r2, .L6+24
 127              		.loc 1 206 3 view .LVU33
 128 0044 C3F89040 		str	r4, [r3, #144]
 129              		.loc 1 208 3 is_stmt 1 view .LVU34
 130 0048 C3F89400 		str	r0, [r3, #148]
 131              		.loc 1 209 3 view .LVU35
 132 004c C3F89440 		str	r4, [r3, #148]
 133              		.loc 1 211 4 view .LVU36
 134 0050 C3F89810 		str	r1, [r3, #152]
 135              		.loc 1 212 4 view .LVU37
 136 0054 C3F89840 		str	r4, [r3, #152]
 137              		.loc 1 214 3 view .LVU38
 138 0058 C3F89C20 		str	r2, [r3, #156]
 139              		.loc 1 215 3 view .LVU39
 140 005c C3F89C40 		str	r4, [r3, #156]
 141              		.loc 1 218 3 view .LVU40
 142 0060 FFF7FEFF 		bl	HAL_MspDeInit
 143              	.LVL0:
 144              		.loc 1 221 3 view .LVU41
 145              		.loc 1 222 1 is_stmt 0 view .LVU42
 146 0064 2046     		mov	r0, r4
 147 0066 10BD     		pop	{r4, pc}
 148              	.L7:
 149              		.align	2
 150              	.L6:
 151 0068 00440258 		.word	1476543488
 152 006c 31500100 		.word	86065
 153 0070 23C0000A 		.word	167821347
 154 0074 FF072803 		.word	52955135
 155 0078 FFC3FFE8 		.word	-385891329
 156 007c 3330D731 		.word	836186163
 157 0080 AADE2000 		.word	2154154
 158              		.cfi_endproc
 159              	.LFE142:
 160              		.size	HAL_DeInit, .-HAL_DeInit
 161              		.section	.text.HAL_InitTick,"ax",%progbits
 162              		.align	1
 163              		.p2align 2,,3
 164              		.weak	HAL_InitTick
 165              		.syntax unified
 166              		.thumb
 167              		.thumb_func
 168              		.type	HAL_InitTick, %function
 169              	HAL_InitTick:
 170              	.LVL1:
 171              	.LFB145:
ARM GAS  C:\Users\DEVELO~1\AppData\Local\Temp\ccxGW0hd.s 			page 4


 172              		.loc 1 263 1 is_stmt 1 view -0
 173              		.cfi_startproc
 174              		@ args = 0, pretend = 0, frame = 0
 175              		@ frame_needed = 0, uses_anonymous_args = 0
 176              		.loc 1 265 3 view .LVU44
 177              		.loc 1 265 27 is_stmt 0 view .LVU45
 178 0000 0F4B     		ldr	r3, .L22
 179 0002 1B78     		ldrb	r3, [r3]	@ zero_extendqisi2
 180              		.loc 1 265 5 view .LVU46
 181 0004 0BB9     		cbnz	r3, .L9
 182              		.loc 1 267 12 view .LVU47
 183 0006 0120     		movs	r0, #1
 184              	.LVL2:
 185              		.loc 1 289 1 view .LVU48
 186 0008 7047     		bx	lr
 187              	.LVL3:
 188              	.L9:
 189              		.loc 1 271 5 is_stmt 1 view .LVU49
 190              		.loc 1 263 1 is_stmt 0 view .LVU50
 191 000a 10B5     		push	{r4, lr}
 192              		.cfi_def_cfa_offset 8
 193              		.cfi_offset 4, -8
 194              		.cfi_offset 14, -4
 195 000c 0446     		mov	r4, r0
 196              		.loc 1 271 54 view .LVU51
 197 000e 4FF47A70 		mov	r0, #1000
 198              	.LVL4:
 199              		.loc 1 271 9 view .LVU52
 200 0012 0C4A     		ldr	r2, .L22+4
 201              		.loc 1 271 54 view .LVU53
 202 0014 B0FBF3F3 		udiv	r3, r0, r3
 203              		.loc 1 271 9 view .LVU54
 204 0018 1068     		ldr	r0, [r2]
 205 001a B0FBF3F0 		udiv	r0, r0, r3
 206 001e FFF7FEFF 		bl	HAL_SYSTICK_Config
 207              	.LVL5:
 208              		.loc 1 277 3 is_stmt 1 view .LVU55
 209              		.loc 1 277 6 is_stmt 0 view .LVU56
 210 0022 0F2C     		cmp	r4, #15
 211 0024 00D8     		bhi	.L11
 212              		.loc 1 277 6 view .LVU57
 213 0026 08B1     		cbz	r0, .L21
 214              	.L11:
 215              		.loc 1 267 12 view .LVU58
 216 0028 0120     		movs	r0, #1
 217              		.loc 1 289 1 view .LVU59
 218 002a 10BD     		pop	{r4, pc}
 219              	.LVL6:
 220              	.L21:
 221              	.LBB4:
 222              	.LBI4:
 223              		.loc 1 262 26 is_stmt 1 view .LVU60
 224              	.LBB5:
 225              		.loc 1 279 5 view .LVU61
 226 002c 0022     		movs	r2, #0
 227 002e 2146     		mov	r1, r4
 228 0030 4FF0FF30 		mov	r0, #-1
ARM GAS  C:\Users\DEVELO~1\AppData\Local\Temp\ccxGW0hd.s 			page 5


 229 0034 FFF7FEFF 		bl	HAL_NVIC_SetPriority
 230              	.LVL7:
 231              		.loc 1 280 5 view .LVU62
 232              		.loc 1 280 16 is_stmt 0 view .LVU63
 233 0038 034B     		ldr	r3, .L22+8
 234 003a 0020     		movs	r0, #0
 235 003c 1C60     		str	r4, [r3]
 236              		.loc 1 288 3 is_stmt 1 view .LVU64
 237              	.LVL8:
 238              		.loc 1 288 3 is_stmt 0 view .LVU65
 239              	.LBE5:
 240              	.LBE4:
 241              		.loc 1 289 1 view .LVU66
 242 003e 10BD     		pop	{r4, pc}
 243              	.LVL9:
 244              	.L23:
 245              		.loc 1 289 1 view .LVU67
 246              		.align	2
 247              	.L22:
 248 0040 00000000 		.word	.LANCHOR0
 249 0044 00000000 		.word	SystemCoreClock
 250 0048 00000000 		.word	.LANCHOR1
 251              		.cfi_endproc
 252              	.LFE145:
 253              		.size	HAL_InitTick, .-HAL_InitTick
 254              		.section	.text.HAL_Init,"ax",%progbits
 255              		.align	1
 256              		.p2align 2,,3
 257              		.global	HAL_Init
 258              		.syntax unified
 259              		.thumb
 260              		.thumb_func
 261              		.type	HAL_Init, %function
 262              	HAL_Init:
 263              	.LFB141:
 264              		.loc 1 135 1 is_stmt 1 view -0
 265              		.cfi_startproc
 266              		@ args = 0, pretend = 0, frame = 0
 267              		@ frame_needed = 0, uses_anonymous_args = 0
 268              		.loc 1 137 1 view .LVU69
 269              		.loc 1 147 3 view .LVU70
 270              		.loc 1 135 1 is_stmt 0 view .LVU71
 271 0000 10B5     		push	{r4, lr}
 272              		.cfi_def_cfa_offset 8
 273              		.cfi_offset 4, -8
 274              		.cfi_offset 14, -4
 275              		.loc 1 147 3 view .LVU72
 276 0002 0320     		movs	r0, #3
 277              		.loc 1 158 17 view .LVU73
 278 0004 124C     		ldr	r4, .L29
 279              		.loc 1 147 3 view .LVU74
 280 0006 FFF7FEFF 		bl	HAL_NVIC_SetPriorityGrouping
 281              	.LVL10:
 282              		.loc 1 151 3 is_stmt 1 view .LVU75
 283              		.loc 1 151 25 is_stmt 0 view .LVU76
 284 000a FFF7FEFF 		bl	HAL_RCC_GetSysClockFreq
 285              	.LVL11:
ARM GAS  C:\Users\DEVELO~1\AppData\Local\Temp\ccxGW0hd.s 			page 6


 286              		.loc 1 151 77 view .LVU77
 287 000e 114B     		ldr	r3, .L29+4
 288              		.loc 1 151 72 view .LVU78
 289 0010 1149     		ldr	r1, .L29+8
 290              		.loc 1 151 77 view .LVU79
 291 0012 9A69     		ldr	r2, [r3, #24]
 292              		.loc 1 158 66 view .LVU80
 293 0014 9B69     		ldr	r3, [r3, #24]
 294              		.loc 1 151 106 view .LVU81
 295 0016 C2F30322 		ubfx	r2, r2, #8, #4
 296              		.loc 1 158 93 view .LVU82
 297 001a 03F00F03 		and	r3, r3, #15
 298              		.loc 1 151 133 view .LVU83
 299 001e 8A5C     		ldrb	r2, [r1, r2]	@ zero_extendqisi2
 300              		.loc 1 158 118 view .LVU84
 301 0020 CB5C     		ldrb	r3, [r1, r3]	@ zero_extendqisi2
 302              		.loc 1 151 133 view .LVU85
 303 0022 02F01F02 		and	r2, r2, #31
 304              		.loc 1 166 19 view .LVU86
 305 0026 0D49     		ldr	r1, .L29+12
 306              		.loc 1 158 118 view .LVU87
 307 0028 03F01F03 		and	r3, r3, #31
 308              		.loc 1 151 23 view .LVU88
 309 002c D040     		lsrs	r0, r0, r2
 310              	.LVL12:
 311              		.loc 1 158 3 is_stmt 1 view .LVU89
 312              		.loc 1 158 40 is_stmt 0 view .LVU90
 313 002e 20FA03F3 		lsr	r3, r0, r3
 314              		.loc 1 166 19 view .LVU91
 315 0032 0860     		str	r0, [r1]
 316              		.loc 1 170 6 view .LVU92
 317 0034 0F20     		movs	r0, #15
 318              	.LVL13:
 319              		.loc 1 158 17 view .LVU93
 320 0036 2360     		str	r3, [r4]
 321              		.loc 1 166 3 is_stmt 1 view .LVU94
 322              		.loc 1 170 3 view .LVU95
 323              		.loc 1 170 6 is_stmt 0 view .LVU96
 324 0038 FFF7FEFF 		bl	HAL_InitTick
 325              	.LVL14:
 326              		.loc 1 170 5 view .LVU97
 327 003c 10B1     		cbz	r0, .L28
 328              		.loc 1 172 12 view .LVU98
 329 003e 0124     		movs	r4, #1
 330              		.loc 1 180 1 view .LVU99
 331 0040 2046     		mov	r0, r4
 332 0042 10BD     		pop	{r4, pc}
 333              	.L28:
 334 0044 0446     		mov	r4, r0
 335              		.loc 1 176 3 is_stmt 1 view .LVU100
 336 0046 FFF7FEFF 		bl	HAL_MspInit
 337              	.LVL15:
 338              		.loc 1 179 3 view .LVU101
 339              		.loc 1 180 1 is_stmt 0 view .LVU102
 340 004a 2046     		mov	r0, r4
 341 004c 10BD     		pop	{r4, pc}
 342              	.L30:
ARM GAS  C:\Users\DEVELO~1\AppData\Local\Temp\ccxGW0hd.s 			page 7


 343 004e 00BF     		.align	2
 344              	.L29:
 345 0050 00000000 		.word	SystemD2Clock
 346 0054 00440258 		.word	1476543488
 347 0058 00000000 		.word	D1CorePrescTable
 348 005c 00000000 		.word	SystemCoreClock
 349              		.cfi_endproc
 350              	.LFE141:
 351              		.size	HAL_Init, .-HAL_Init
 352              		.section	.text.HAL_IncTick,"ax",%progbits
 353              		.align	1
 354              		.p2align 2,,3
 355              		.weak	HAL_IncTick
 356              		.syntax unified
 357              		.thumb
 358              		.thumb_func
 359              		.type	HAL_IncTick, %function
 360              	HAL_IncTick:
 361              	.LFB146:
 362              		.loc 1 328 1 is_stmt 1 view -0
 363              		.cfi_startproc
 364              		@ args = 0, pretend = 0, frame = 0
 365              		@ frame_needed = 0, uses_anonymous_args = 0
 366              		@ link register save eliminated.
 367              		.loc 1 329 3 view .LVU104
 368              		.loc 1 329 10 is_stmt 0 view .LVU105
 369 0000 034A     		ldr	r2, .L32
 370              		.loc 1 329 13 view .LVU106
 371 0002 044B     		ldr	r3, .L32+4
 372              		.loc 1 329 10 view .LVU107
 373 0004 1168     		ldr	r1, [r2]
 374              		.loc 1 329 13 view .LVU108
 375 0006 1B78     		ldrb	r3, [r3]	@ zero_extendqisi2
 376              		.loc 1 329 10 view .LVU109
 377 0008 0B44     		add	r3, r3, r1
 378 000a 1360     		str	r3, [r2]
 379              		.loc 1 330 1 view .LVU110
 380 000c 7047     		bx	lr
 381              	.L33:
 382 000e 00BF     		.align	2
 383              	.L32:
 384 0010 00000000 		.word	.LANCHOR2
 385 0014 00000000 		.word	.LANCHOR0
 386              		.cfi_endproc
 387              	.LFE146:
 388              		.size	HAL_IncTick, .-HAL_IncTick
 389              		.section	.text.HAL_GetTick,"ax",%progbits
 390              		.align	1
 391              		.p2align 2,,3
 392              		.weak	HAL_GetTick
 393              		.syntax unified
 394              		.thumb
 395              		.thumb_func
 396              		.type	HAL_GetTick, %function
 397              	HAL_GetTick:
 398              	.LFB147:
 399              		.loc 1 339 1 is_stmt 1 view -0
ARM GAS  C:\Users\DEVELO~1\AppData\Local\Temp\ccxGW0hd.s 			page 8


 400              		.cfi_startproc
 401              		@ args = 0, pretend = 0, frame = 0
 402              		@ frame_needed = 0, uses_anonymous_args = 0
 403              		@ link register save eliminated.
 404              		.loc 1 340 3 view .LVU112
 405              		.loc 1 340 10 is_stmt 0 view .LVU113
 406 0000 014B     		ldr	r3, .L35
 407 0002 1868     		ldr	r0, [r3]
 408              		.loc 1 341 1 view .LVU114
 409 0004 7047     		bx	lr
 410              	.L36:
 411 0006 00BF     		.align	2
 412              	.L35:
 413 0008 00000000 		.word	.LANCHOR2
 414              		.cfi_endproc
 415              	.LFE147:
 416              		.size	HAL_GetTick, .-HAL_GetTick
 417              		.section	.text.HAL_GetTickPrio,"ax",%progbits
 418              		.align	1
 419              		.p2align 2,,3
 420              		.global	HAL_GetTickPrio
 421              		.syntax unified
 422              		.thumb
 423              		.thumb_func
 424              		.type	HAL_GetTickPrio, %function
 425              	HAL_GetTickPrio:
 426              	.LFB148:
 427              		.loc 1 348 1 is_stmt 1 view -0
 428              		.cfi_startproc
 429              		@ args = 0, pretend = 0, frame = 0
 430              		@ frame_needed = 0, uses_anonymous_args = 0
 431              		@ link register save eliminated.
 432              		.loc 1 349 3 view .LVU116
 433              		.loc 1 349 10 is_stmt 0 view .LVU117
 434 0000 014B     		ldr	r3, .L38
 435              		.loc 1 350 1 view .LVU118
 436 0002 1868     		ldr	r0, [r3]
 437 0004 7047     		bx	lr
 438              	.L39:
 439 0006 00BF     		.align	2
 440              	.L38:
 441 0008 00000000 		.word	.LANCHOR1
 442              		.cfi_endproc
 443              	.LFE148:
 444              		.size	HAL_GetTickPrio, .-HAL_GetTickPrio
 445              		.section	.text.HAL_SetTickFreq,"ax",%progbits
 446              		.align	1
 447              		.p2align 2,,3
 448              		.global	HAL_SetTickFreq
 449              		.syntax unified
 450              		.thumb
 451              		.thumb_func
 452              		.type	HAL_SetTickFreq, %function
 453              	HAL_SetTickFreq:
 454              	.LVL16:
 455              	.LFB149:
 456              		.loc 1 357 1 is_stmt 1 view -0
ARM GAS  C:\Users\DEVELO~1\AppData\Local\Temp\ccxGW0hd.s 			page 9


 457              		.cfi_startproc
 458              		@ args = 0, pretend = 0, frame = 0
 459              		@ frame_needed = 0, uses_anonymous_args = 0
 460              		.loc 1 358 3 view .LVU120
 461              		.loc 1 359 3 view .LVU121
 462              		.loc 1 361 3 view .LVU122
 463              		.loc 1 361 16 is_stmt 0 view .LVU123
 464 0000 0A28     		cmp	r0, #10
 465 0002 18BF     		it	ne
 466 0004 6428     		cmpne	r0, #100
 467              		.loc 1 357 1 view .LVU124
 468 0006 70B5     		push	{r4, r5, r6, lr}
 469              		.cfi_def_cfa_offset 16
 470              		.cfi_offset 4, -16
 471              		.cfi_offset 5, -12
 472              		.cfi_offset 6, -8
 473              		.cfi_offset 14, -4
 474              		.loc 1 357 1 view .LVU125
 475 0008 0446     		mov	r4, r0
 476              		.loc 1 361 16 view .LVU126
 477 000a 0CBF     		ite	eq
 478 000c 0120     		moveq	r0, #1
 479              	.LVL17:
 480              		.loc 1 361 16 view .LVU127
 481 000e 0020     		movne	r0, #0
 482              		.loc 1 363 18 view .LVU128
 483 0010 0A4D     		ldr	r5, .L48
 484              		.loc 1 361 3 view .LVU129
 485 0012 012C     		cmp	r4, #1
 486 0014 08BF     		it	eq
 487 0016 40F00100 		orreq	r0, r0, #1
 488 001a FFF7FEFF 		bl	assert_param
 489              	.LVL18:
 490              		.loc 1 363 3 is_stmt 1 view .LVU130
 491              		.loc 1 363 18 is_stmt 0 view .LVU131
 492 001e 2E78     		ldrb	r6, [r5]	@ zero_extendqisi2
 493              		.loc 1 363 6 view .LVU132
 494 0020 A642     		cmp	r6, r4
 495 0022 01D1     		bne	.L47
 496              		.loc 1 358 21 view .LVU133
 497 0024 0020     		movs	r0, #0
 498              	.LVL19:
 499              	.L41:
 500              		.loc 1 381 3 is_stmt 1 view .LVU134
 501              		.loc 1 382 1 is_stmt 0 view .LVU135
 502 0026 70BD     		pop	{r4, r5, r6, pc}
 503              	.LVL20:
 504              	.L47:
 505              		.loc 1 367 5 is_stmt 1 view .LVU136
 506              		.loc 1 370 5 view .LVU137
 507              		.loc 1 373 14 is_stmt 0 view .LVU138
 508 0028 054B     		ldr	r3, .L48+4
 509              		.loc 1 370 16 view .LVU139
 510 002a 2C70     		strb	r4, [r5]
 511              		.loc 1 373 5 is_stmt 1 view .LVU140
 512              		.loc 1 373 14 is_stmt 0 view .LVU141
 513 002c 1868     		ldr	r0, [r3]
ARM GAS  C:\Users\DEVELO~1\AppData\Local\Temp\ccxGW0hd.s 			page 10


 514 002e FFF7FEFF 		bl	HAL_InitTick
 515              	.LVL21:
 516              		.loc 1 374 5 is_stmt 1 view .LVU142
 517              		.loc 1 374 8 is_stmt 0 view .LVU143
 518 0032 0028     		cmp	r0, #0
 519 0034 F7D0     		beq	.L41
 520              		.loc 1 377 7 is_stmt 1 view .LVU144
 521              		.loc 1 377 18 is_stmt 0 view .LVU145
 522 0036 2E70     		strb	r6, [r5]
 523              		.loc 1 381 3 is_stmt 1 view .LVU146
 524              		.loc 1 382 1 is_stmt 0 view .LVU147
 525 0038 70BD     		pop	{r4, r5, r6, pc}
 526              	.LVL22:
 527              	.L49:
 528              		.loc 1 382 1 view .LVU148
 529 003a 00BF     		.align	2
 530              	.L48:
 531 003c 00000000 		.word	.LANCHOR0
 532 0040 00000000 		.word	.LANCHOR1
 533              		.cfi_endproc
 534              	.LFE149:
 535              		.size	HAL_SetTickFreq, .-HAL_SetTickFreq
 536              		.section	.text.HAL_GetTickFreq,"ax",%progbits
 537              		.align	1
 538              		.p2align 2,,3
 539              		.global	HAL_GetTickFreq
 540              		.syntax unified
 541              		.thumb
 542              		.thumb_func
 543              		.type	HAL_GetTickFreq, %function
 544              	HAL_GetTickFreq:
 545              	.LFB150:
 546              		.loc 1 390 1 is_stmt 1 view -0
 547              		.cfi_startproc
 548              		@ args = 0, pretend = 0, frame = 0
 549              		@ frame_needed = 0, uses_anonymous_args = 0
 550              		@ link register save eliminated.
 551              		.loc 1 391 3 view .LVU150
 552              		.loc 1 391 10 is_stmt 0 view .LVU151
 553 0000 014B     		ldr	r3, .L51
 554              		.loc 1 392 1 view .LVU152
 555 0002 1878     		ldrb	r0, [r3]	@ zero_extendqisi2
 556 0004 7047     		bx	lr
 557              	.L52:
 558 0006 00BF     		.align	2
 559              	.L51:
 560 0008 00000000 		.word	.LANCHOR0
 561              		.cfi_endproc
 562              	.LFE150:
 563              		.size	HAL_GetTickFreq, .-HAL_GetTickFreq
 564              		.section	.text.HAL_Delay,"ax",%progbits
 565              		.align	1
 566              		.p2align 2,,3
 567              		.weak	HAL_Delay
 568              		.syntax unified
 569              		.thumb
 570              		.thumb_func
ARM GAS  C:\Users\DEVELO~1\AppData\Local\Temp\ccxGW0hd.s 			page 11


 571              		.type	HAL_Delay, %function
 572              	HAL_Delay:
 573              	.LVL23:
 574              	.LFB151:
 575              		.loc 1 406 1 is_stmt 1 view -0
 576              		.cfi_startproc
 577              		@ args = 0, pretend = 0, frame = 0
 578              		@ frame_needed = 0, uses_anonymous_args = 0
 579              		.loc 1 407 3 view .LVU154
 580              		.loc 1 406 1 is_stmt 0 view .LVU155
 581 0000 38B5     		push	{r3, r4, r5, lr}
 582              		.cfi_def_cfa_offset 16
 583              		.cfi_offset 3, -16
 584              		.cfi_offset 4, -12
 585              		.cfi_offset 5, -8
 586              		.cfi_offset 14, -4
 587              		.loc 1 406 1 view .LVU156
 588 0002 0446     		mov	r4, r0
 589              		.loc 1 407 24 view .LVU157
 590 0004 FFF7FEFF 		bl	HAL_GetTick
 591              	.LVL24:
 592              		.loc 1 407 24 view .LVU158
 593 0008 0546     		mov	r5, r0
 594              	.LVL25:
 595              		.loc 1 408 3 is_stmt 1 view .LVU159
 596              		.loc 1 411 3 view .LVU160
 597              		.loc 1 411 6 is_stmt 0 view .LVU161
 598 000a 631C     		adds	r3, r4, #1
 599 000c 02D0     		beq	.L55
 600              		.loc 1 413 5 is_stmt 1 view .LVU162
 601              		.loc 1 413 13 is_stmt 0 view .LVU163
 602 000e 044B     		ldr	r3, .L61
 603 0010 1B78     		ldrb	r3, [r3]	@ zero_extendqisi2
 604              		.loc 1 413 10 view .LVU164
 605 0012 1C44     		add	r4, r4, r3
 606              	.LVL26:
 607              	.L55:
 608              		.loc 1 418 3 is_stmt 1 discriminator 1 view .LVU165
 609              		.loc 1 416 38 discriminator 1 view .LVU166
 610              		.loc 1 416 11 is_stmt 0 discriminator 1 view .LVU167
 611 0014 FFF7FEFF 		bl	HAL_GetTick
 612              	.LVL27:
 613              		.loc 1 416 25 discriminator 1 view .LVU168
 614 0018 431B     		subs	r3, r0, r5
 615              		.loc 1 416 38 discriminator 1 view .LVU169
 616 001a A342     		cmp	r3, r4
 617 001c FAD3     		bcc	.L55
 618              		.loc 1 419 1 view .LVU170
 619 001e 38BD     		pop	{r3, r4, r5, pc}
 620              	.LVL28:
 621              	.L62:
 622              		.loc 1 419 1 view .LVU171
 623              		.align	2
 624              	.L61:
 625 0020 00000000 		.word	.LANCHOR0
 626              		.cfi_endproc
 627              	.LFE151:
ARM GAS  C:\Users\DEVELO~1\AppData\Local\Temp\ccxGW0hd.s 			page 12


 628              		.size	HAL_Delay, .-HAL_Delay
 629              		.section	.text.HAL_SuspendTick,"ax",%progbits
 630              		.align	1
 631              		.p2align 2,,3
 632              		.weak	HAL_SuspendTick
 633              		.syntax unified
 634              		.thumb
 635              		.thumb_func
 636              		.type	HAL_SuspendTick, %function
 637              	HAL_SuspendTick:
 638              	.LFB152:
 639              		.loc 1 432 1 is_stmt 1 view -0
 640              		.cfi_startproc
 641              		@ args = 0, pretend = 0, frame = 0
 642              		@ frame_needed = 0, uses_anonymous_args = 0
 643              		@ link register save eliminated.
 644              		.loc 1 434 3 view .LVU173
 645              		.loc 1 434 17 is_stmt 0 view .LVU174
 646 0000 4FF0E022 		mov	r2, #-536813568
 647 0004 1369     		ldr	r3, [r2, #16]
 648 0006 23F00203 		bic	r3, r3, #2
 649 000a 1361     		str	r3, [r2, #16]
 650              		.loc 1 435 1 view .LVU175
 651 000c 7047     		bx	lr
 652              		.cfi_endproc
 653              	.LFE152:
 654              		.size	HAL_SuspendTick, .-HAL_SuspendTick
 655 000e 00BF     		.section	.text.HAL_ResumeTick,"ax",%progbits
 656              		.align	1
 657              		.p2align 2,,3
 658              		.weak	HAL_ResumeTick
 659              		.syntax unified
 660              		.thumb
 661              		.thumb_func
 662              		.type	HAL_ResumeTick, %function
 663              	HAL_ResumeTick:
 664              	.LFB153:
 665              		.loc 1 448 1 is_stmt 1 view -0
 666              		.cfi_startproc
 667              		@ args = 0, pretend = 0, frame = 0
 668              		@ frame_needed = 0, uses_anonymous_args = 0
 669              		@ link register save eliminated.
 670              		.loc 1 450 3 view .LVU177
 671              		.loc 1 450 18 is_stmt 0 view .LVU178
 672 0000 4FF0E022 		mov	r2, #-536813568
 673 0004 1369     		ldr	r3, [r2, #16]
 674 0006 43F00203 		orr	r3, r3, #2
 675 000a 1361     		str	r3, [r2, #16]
 676              		.loc 1 451 1 view .LVU179
 677 000c 7047     		bx	lr
 678              		.cfi_endproc
 679              	.LFE153:
 680              		.size	HAL_ResumeTick, .-HAL_ResumeTick
 681 000e 00BF     		.section	.text.HAL_GetHalVersion,"ax",%progbits
 682              		.align	1
 683              		.p2align 2,,3
 684              		.global	HAL_GetHalVersion
ARM GAS  C:\Users\DEVELO~1\AppData\Local\Temp\ccxGW0hd.s 			page 13


 685              		.syntax unified
 686              		.thumb
 687              		.thumb_func
 688              		.type	HAL_GetHalVersion, %function
 689              	HAL_GetHalVersion:
 690              	.LFB154:
 691              		.loc 1 458 1 is_stmt 1 view -0
 692              		.cfi_startproc
 693              		@ args = 0, pretend = 0, frame = 0
 694              		@ frame_needed = 0, uses_anonymous_args = 0
 695              		@ link register save eliminated.
 696              		.loc 1 459 2 view .LVU181
 697              		.loc 1 460 1 is_stmt 0 view .LVU182
 698 0000 0048     		ldr	r0, .L66
 699 0002 7047     		bx	lr
 700              	.L67:
 701              		.align	2
 702              	.L66:
 703 0004 00050B01 		.word	17499392
 704              		.cfi_endproc
 705              	.LFE154:
 706              		.size	HAL_GetHalVersion, .-HAL_GetHalVersion
 707              		.section	.text.HAL_GetREVID,"ax",%progbits
 708              		.align	1
 709              		.p2align 2,,3
 710              		.global	HAL_GetREVID
 711              		.syntax unified
 712              		.thumb
 713              		.thumb_func
 714              		.type	HAL_GetREVID, %function
 715              	HAL_GetREVID:
 716              	.LFB155:
 717              		.loc 1 467 1 is_stmt 1 view -0
 718              		.cfi_startproc
 719              		@ args = 0, pretend = 0, frame = 0
 720              		@ frame_needed = 0, uses_anonymous_args = 0
 721              		@ link register save eliminated.
 722              		.loc 1 468 4 view .LVU184
 723              		.loc 1 468 18 is_stmt 0 view .LVU185
 724 0000 014B     		ldr	r3, .L69
 725 0002 1868     		ldr	r0, [r3]
 726              		.loc 1 469 1 view .LVU186
 727 0004 000C     		lsrs	r0, r0, #16
 728 0006 7047     		bx	lr
 729              	.L70:
 730              		.align	2
 731              	.L69:
 732 0008 0010005C 		.word	1543507968
 733              		.cfi_endproc
 734              	.LFE155:
 735              		.size	HAL_GetREVID, .-HAL_GetREVID
 736              		.section	.text.HAL_GetDEVID,"ax",%progbits
 737              		.align	1
 738              		.p2align 2,,3
 739              		.global	HAL_GetDEVID
 740              		.syntax unified
 741              		.thumb
ARM GAS  C:\Users\DEVELO~1\AppData\Local\Temp\ccxGW0hd.s 			page 14


 742              		.thumb_func
 743              		.type	HAL_GetDEVID, %function
 744              	HAL_GetDEVID:
 745              	.LFB156:
 746              		.loc 1 476 1 is_stmt 1 view -0
 747              		.cfi_startproc
 748              		@ args = 0, pretend = 0, frame = 0
 749              		@ frame_needed = 0, uses_anonymous_args = 0
 750              		@ link register save eliminated.
 751              		.loc 1 477 4 view .LVU188
 752              		.loc 1 477 18 is_stmt 0 view .LVU189
 753 0000 024B     		ldr	r3, .L72
 754 0002 1868     		ldr	r0, [r3]
 755              		.loc 1 478 1 view .LVU190
 756 0004 C0F30B00 		ubfx	r0, r0, #0, #12
 757 0008 7047     		bx	lr
 758              	.L73:
 759 000a 00BF     		.align	2
 760              	.L72:
 761 000c 0010005C 		.word	1543507968
 762              		.cfi_endproc
 763              	.LFE156:
 764              		.size	HAL_GetDEVID, .-HAL_GetDEVID
 765              		.section	.text.HAL_GetUIDw0,"ax",%progbits
 766              		.align	1
 767              		.p2align 2,,3
 768              		.global	HAL_GetUIDw0
 769              		.syntax unified
 770              		.thumb
 771              		.thumb_func
 772              		.type	HAL_GetUIDw0, %function
 773              	HAL_GetUIDw0:
 774              	.LFB157:
 775              		.loc 1 485 1 is_stmt 1 view -0
 776              		.cfi_startproc
 777              		@ args = 0, pretend = 0, frame = 0
 778              		@ frame_needed = 0, uses_anonymous_args = 0
 779              		@ link register save eliminated.
 780              		.loc 1 486 3 view .LVU192
 781              		.loc 1 486 10 is_stmt 0 view .LVU193
 782 0000 014B     		ldr	r3, .L75
 783              		.loc 1 487 1 view .LVU194
 784 0002 D3F80008 		ldr	r0, [r3, #2048]
 785 0006 7047     		bx	lr
 786              	.L76:
 787              		.align	2
 788              	.L75:
 789 0008 00E0F11F 		.word	535945216
 790              		.cfi_endproc
 791              	.LFE157:
 792              		.size	HAL_GetUIDw0, .-HAL_GetUIDw0
 793              		.section	.text.HAL_GetUIDw1,"ax",%progbits
 794              		.align	1
 795              		.p2align 2,,3
 796              		.global	HAL_GetUIDw1
 797              		.syntax unified
 798              		.thumb
ARM GAS  C:\Users\DEVELO~1\AppData\Local\Temp\ccxGW0hd.s 			page 15


 799              		.thumb_func
 800              		.type	HAL_GetUIDw1, %function
 801              	HAL_GetUIDw1:
 802              	.LFB158:
 803              		.loc 1 494 1 is_stmt 1 view -0
 804              		.cfi_startproc
 805              		@ args = 0, pretend = 0, frame = 0
 806              		@ frame_needed = 0, uses_anonymous_args = 0
 807              		@ link register save eliminated.
 808              		.loc 1 495 3 view .LVU196
 809              		.loc 1 495 10 is_stmt 0 view .LVU197
 810 0000 014B     		ldr	r3, .L78
 811              		.loc 1 496 1 view .LVU198
 812 0002 D3F80408 		ldr	r0, [r3, #2052]
 813 0006 7047     		bx	lr
 814              	.L79:
 815              		.align	2
 816              	.L78:
 817 0008 00E0F11F 		.word	535945216
 818              		.cfi_endproc
 819              	.LFE158:
 820              		.size	HAL_GetUIDw1, .-HAL_GetUIDw1
 821              		.section	.text.HAL_GetUIDw2,"ax",%progbits
 822              		.align	1
 823              		.p2align 2,,3
 824              		.global	HAL_GetUIDw2
 825              		.syntax unified
 826              		.thumb
 827              		.thumb_func
 828              		.type	HAL_GetUIDw2, %function
 829              	HAL_GetUIDw2:
 830              	.LFB159:
 831              		.loc 1 503 1 is_stmt 1 view -0
 832              		.cfi_startproc
 833              		@ args = 0, pretend = 0, frame = 0
 834              		@ frame_needed = 0, uses_anonymous_args = 0
 835              		@ link register save eliminated.
 836              		.loc 1 504 3 view .LVU200
 837              		.loc 1 504 10 is_stmt 0 view .LVU201
 838 0000 014B     		ldr	r3, .L81
 839              		.loc 1 505 1 view .LVU202
 840 0002 D3F80808 		ldr	r0, [r3, #2056]
 841 0006 7047     		bx	lr
 842              	.L82:
 843              		.align	2
 844              	.L81:
 845 0008 00E0F11F 		.word	535945216
 846              		.cfi_endproc
 847              	.LFE159:
 848              		.size	HAL_GetUIDw2, .-HAL_GetUIDw2
 849              		.section	.text.HAL_SYSCFG_VREFBUF_VoltageScalingConfig,"ax",%progbits
 850              		.align	1
 851              		.p2align 2,,3
 852              		.global	HAL_SYSCFG_VREFBUF_VoltageScalingConfig
 853              		.syntax unified
 854              		.thumb
 855              		.thumb_func
ARM GAS  C:\Users\DEVELO~1\AppData\Local\Temp\ccxGW0hd.s 			page 16


 856              		.type	HAL_SYSCFG_VREFBUF_VoltageScalingConfig, %function
 857              	HAL_SYSCFG_VREFBUF_VoltageScalingConfig:
 858              	.LVL29:
 859              	.LFB160:
 860              		.loc 1 522 1 is_stmt 1 view -0
 861              		.cfi_startproc
 862              		@ args = 0, pretend = 0, frame = 0
 863              		@ frame_needed = 0, uses_anonymous_args = 0
 864              		.loc 1 524 3 view .LVU204
 865 0000 2028     		cmp	r0, #32
 866              		.loc 1 522 1 is_stmt 0 view .LVU205
 867 0002 10B5     		push	{r4, lr}
 868              		.cfi_def_cfa_offset 8
 869              		.cfi_offset 4, -8
 870              		.cfi_offset 14, -4
 871              		.loc 1 522 1 view .LVU206
 872 0004 0446     		mov	r4, r0
 873 0006 14D0     		beq	.L86
 874 0008 0DD8     		bhi	.L85
 875 000a 30F01003 		bics	r3, r0, #16
 876 000e 0CBF     		ite	eq
 877 0010 0120     		moveq	r0, #1
 878              	.LVL30:
 879              		.loc 1 522 1 view .LVU207
 880 0012 0020     		movne	r0, #0
 881              	.L84:
 882              		.loc 1 524 3 discriminator 6 view .LVU208
 883 0014 FFF7FEFF 		bl	assert_param
 884              	.LVL31:
 885              		.loc 1 526 3 is_stmt 1 discriminator 6 view .LVU209
 886 0018 074A     		ldr	r2, .L88
 887 001a 1368     		ldr	r3, [r2]
 888 001c 23F07003 		bic	r3, r3, #112
 889 0020 2343     		orrs	r3, r3, r4
 890 0022 1360     		str	r3, [r2]
 891              		.loc 1 527 1 is_stmt 0 discriminator 6 view .LVU210
 892 0024 10BD     		pop	{r4, pc}
 893              	.LVL32:
 894              	.L85:
 895              		.loc 1 527 1 discriminator 6 view .LVU211
 896 0026 A0F13000 		sub	r0, #48
 897              	.LVL33:
 898              		.loc 1 527 1 discriminator 6 view .LVU212
 899 002a B0FA80F0 		clz	r0, r0
 900 002e 4009     		lsrs	r0, r0, #5
 901 0030 F0E7     		b	.L84
 902              	.LVL34:
 903              	.L86:
 904              		.loc 1 522 1 view .LVU213
 905 0032 0120     		movs	r0, #1
 906              	.LVL35:
 907              		.loc 1 522 1 view .LVU214
 908 0034 EEE7     		b	.L84
 909              	.L89:
 910 0036 00BF     		.align	2
 911              	.L88:
 912 0038 003C0058 		.word	1476410368
ARM GAS  C:\Users\DEVELO~1\AppData\Local\Temp\ccxGW0hd.s 			page 17


 913              		.cfi_endproc
 914              	.LFE160:
 915              		.size	HAL_SYSCFG_VREFBUF_VoltageScalingConfig, .-HAL_SYSCFG_VREFBUF_VoltageScalingConfig
 916              		.section	.text.HAL_SYSCFG_VREFBUF_HighImpedanceConfig,"ax",%progbits
 917              		.align	1
 918              		.p2align 2,,3
 919              		.global	HAL_SYSCFG_VREFBUF_HighImpedanceConfig
 920              		.syntax unified
 921              		.thumb
 922              		.thumb_func
 923              		.type	HAL_SYSCFG_VREFBUF_HighImpedanceConfig, %function
 924              	HAL_SYSCFG_VREFBUF_HighImpedanceConfig:
 925              	.LVL36:
 926              	.LFB161:
 927              		.loc 1 538 1 is_stmt 1 view -0
 928              		.cfi_startproc
 929              		@ args = 0, pretend = 0, frame = 0
 930              		@ frame_needed = 0, uses_anonymous_args = 0
 931              		.loc 1 540 3 view .LVU216
 932              		.loc 1 540 16 is_stmt 0 view .LVU217
 933 0000 30F00203 		bics	r3, r0, #2
 934              		.loc 1 538 1 view .LVU218
 935 0004 10B5     		push	{r4, lr}
 936              		.cfi_def_cfa_offset 8
 937              		.cfi_offset 4, -8
 938              		.cfi_offset 14, -4
 939              		.loc 1 538 1 view .LVU219
 940 0006 0446     		mov	r4, r0
 941              		.loc 1 540 3 view .LVU220
 942 0008 0CBF     		ite	eq
 943 000a 0120     		moveq	r0, #1
 944              	.LVL37:
 945              		.loc 1 540 3 view .LVU221
 946 000c 0020     		movne	r0, #0
 947 000e FFF7FEFF 		bl	assert_param
 948              	.LVL38:
 949              		.loc 1 542 3 is_stmt 1 view .LVU222
 950 0012 034A     		ldr	r2, .L92
 951 0014 1368     		ldr	r3, [r2]
 952 0016 23F00203 		bic	r3, r3, #2
 953 001a 2343     		orrs	r3, r3, r4
 954 001c 1360     		str	r3, [r2]
 955              		.loc 1 543 1 is_stmt 0 view .LVU223
 956 001e 10BD     		pop	{r4, pc}
 957              	.LVL39:
 958              	.L93:
 959              		.loc 1 543 1 view .LVU224
 960              		.align	2
 961              	.L92:
 962 0020 003C0058 		.word	1476410368
 963              		.cfi_endproc
 964              	.LFE161:
 965              		.size	HAL_SYSCFG_VREFBUF_HighImpedanceConfig, .-HAL_SYSCFG_VREFBUF_HighImpedanceConfig
 966              		.section	.text.HAL_SYSCFG_VREFBUF_TrimmingConfig,"ax",%progbits
 967              		.align	1
 968              		.p2align 2,,3
 969              		.global	HAL_SYSCFG_VREFBUF_TrimmingConfig
ARM GAS  C:\Users\DEVELO~1\AppData\Local\Temp\ccxGW0hd.s 			page 18


 970              		.syntax unified
 971              		.thumb
 972              		.thumb_func
 973              		.type	HAL_SYSCFG_VREFBUF_TrimmingConfig, %function
 974              	HAL_SYSCFG_VREFBUF_TrimmingConfig:
 975              	.LVL40:
 976              	.LFB162:
 977              		.loc 1 550 1 is_stmt 1 view -0
 978              		.cfi_startproc
 979              		@ args = 0, pretend = 0, frame = 0
 980              		@ frame_needed = 0, uses_anonymous_args = 0
 981              		.loc 1 552 3 view .LVU226
 982              		.loc 1 550 1 is_stmt 0 view .LVU227
 983 0000 10B5     		push	{r4, lr}
 984              		.cfi_def_cfa_offset 8
 985              		.cfi_offset 4, -8
 986              		.cfi_offset 14, -4
 987              		.loc 1 550 1 view .LVU228
 988 0002 0446     		mov	r4, r0
 989              		.loc 1 552 16 view .LVU229
 990 0004 0138     		subs	r0, r0, #1
 991              	.LVL41:
 992              		.loc 1 552 3 view .LVU230
 993 0006 3E28     		cmp	r0, #62
 994 0008 8CBF     		ite	hi
 995 000a 0020     		movhi	r0, #0
 996 000c 0120     		movls	r0, #1
 997 000e FFF7FEFF 		bl	assert_param
 998              	.LVL42:
 999              		.loc 1 554 3 is_stmt 1 view .LVU231
 1000 0012 034A     		ldr	r2, .L96
 1001 0014 5368     		ldr	r3, [r2, #4]
 1002 0016 23F03F03 		bic	r3, r3, #63
 1003 001a 2343     		orrs	r3, r3, r4
 1004 001c 5360     		str	r3, [r2, #4]
 1005              		.loc 1 555 1 is_stmt 0 view .LVU232
 1006 001e 10BD     		pop	{r4, pc}
 1007              	.LVL43:
 1008              	.L97:
 1009              		.loc 1 555 1 view .LVU233
 1010              		.align	2
 1011              	.L96:
 1012 0020 003C0058 		.word	1476410368
 1013              		.cfi_endproc
 1014              	.LFE162:
 1015              		.size	HAL_SYSCFG_VREFBUF_TrimmingConfig, .-HAL_SYSCFG_VREFBUF_TrimmingConfig
 1016              		.section	.text.HAL_SYSCFG_EnableVREFBUF,"ax",%progbits
 1017              		.align	1
 1018              		.p2align 2,,3
 1019              		.global	HAL_SYSCFG_EnableVREFBUF
 1020              		.syntax unified
 1021              		.thumb
 1022              		.thumb_func
 1023              		.type	HAL_SYSCFG_EnableVREFBUF, %function
 1024              	HAL_SYSCFG_EnableVREFBUF:
 1025              	.LFB163:
 1026              		.loc 1 562 1 is_stmt 1 view -0
ARM GAS  C:\Users\DEVELO~1\AppData\Local\Temp\ccxGW0hd.s 			page 19


 1027              		.cfi_startproc
 1028              		@ args = 0, pretend = 0, frame = 0
 1029              		@ frame_needed = 0, uses_anonymous_args = 0
 1030              		.loc 1 563 3 view .LVU235
 1031              		.loc 1 565 3 view .LVU236
 1032              		.loc 1 562 1 is_stmt 0 view .LVU237
 1033 0000 38B5     		push	{r3, r4, r5, lr}
 1034              		.cfi_def_cfa_offset 16
 1035              		.cfi_offset 3, -16
 1036              		.cfi_offset 4, -12
 1037              		.cfi_offset 5, -8
 1038              		.cfi_offset 14, -4
 1039              		.loc 1 565 3 view .LVU238
 1040 0002 0A4C     		ldr	r4, .L104
 1041 0004 2368     		ldr	r3, [r4]
 1042 0006 43F00103 		orr	r3, r3, #1
 1043 000a 2360     		str	r3, [r4]
 1044              		.loc 1 568 3 is_stmt 1 view .LVU239
 1045              		.loc 1 568 15 is_stmt 0 view .LVU240
 1046 000c FFF7FEFF 		bl	HAL_GetTick
 1047              	.LVL44:
 1048 0010 0546     		mov	r5, r0
 1049              	.LVL45:
 1050              		.loc 1 571 3 is_stmt 1 view .LVU241
 1051              		.loc 1 571 8 is_stmt 0 view .LVU242
 1052 0012 04E0     		b	.L99
 1053              	.LVL46:
 1054              	.L101:
 1055              		.loc 1 573 9 view .LVU243
 1056 0014 FFF7FEFF 		bl	HAL_GetTick
 1057              	.LVL47:
 1058              		.loc 1 573 23 view .LVU244
 1059 0018 401B     		subs	r0, r0, r5
 1060              		.loc 1 573 7 view .LVU245
 1061 001a 0A28     		cmp	r0, #10
 1062 001c 04D8     		bhi	.L102
 1063              	.L99:
 1064              		.loc 1 573 5 is_stmt 1 view .LVU246
 1065              		.loc 1 571 49 view .LVU247
 1066              		.loc 1 571 9 is_stmt 0 view .LVU248
 1067 001e 2368     		ldr	r3, [r4]
 1068              		.loc 1 571 49 view .LVU249
 1069 0020 1B07     		lsls	r3, r3, #28
 1070 0022 F7D5     		bpl	.L101
 1071              		.loc 1 579 10 view .LVU250
 1072 0024 0020     		movs	r0, #0
 1073              		.loc 1 580 1 view .LVU251
 1074 0026 38BD     		pop	{r3, r4, r5, pc}
 1075              	.LVL48:
 1076              	.L102:
 1077              		.loc 1 575 14 view .LVU252
 1078 0028 0320     		movs	r0, #3
 1079              		.loc 1 580 1 view .LVU253
 1080 002a 38BD     		pop	{r3, r4, r5, pc}
 1081              	.LVL49:
 1082              	.L105:
 1083              		.loc 1 580 1 view .LVU254
ARM GAS  C:\Users\DEVELO~1\AppData\Local\Temp\ccxGW0hd.s 			page 20


 1084              		.align	2
 1085              	.L104:
 1086 002c 003C0058 		.word	1476410368
 1087              		.cfi_endproc
 1088              	.LFE163:
 1089              		.size	HAL_SYSCFG_EnableVREFBUF, .-HAL_SYSCFG_EnableVREFBUF
 1090              		.section	.text.HAL_SYSCFG_DisableVREFBUF,"ax",%progbits
 1091              		.align	1
 1092              		.p2align 2,,3
 1093              		.global	HAL_SYSCFG_DisableVREFBUF
 1094              		.syntax unified
 1095              		.thumb
 1096              		.thumb_func
 1097              		.type	HAL_SYSCFG_DisableVREFBUF, %function
 1098              	HAL_SYSCFG_DisableVREFBUF:
 1099              	.LFB164:
 1100              		.loc 1 588 1 is_stmt 1 view -0
 1101              		.cfi_startproc
 1102              		@ args = 0, pretend = 0, frame = 0
 1103              		@ frame_needed = 0, uses_anonymous_args = 0
 1104              		@ link register save eliminated.
 1105              		.loc 1 589 3 view .LVU256
 1106 0000 024A     		ldr	r2, .L107
 1107 0002 1368     		ldr	r3, [r2]
 1108 0004 23F00103 		bic	r3, r3, #1
 1109 0008 1360     		str	r3, [r2]
 1110              		.loc 1 590 1 is_stmt 0 view .LVU257
 1111 000a 7047     		bx	lr
 1112              	.L108:
 1113              		.align	2
 1114              	.L107:
 1115 000c 003C0058 		.word	1476410368
 1116              		.cfi_endproc
 1117              	.LFE164:
 1118              		.size	HAL_SYSCFG_DisableVREFBUF, .-HAL_SYSCFG_DisableVREFBUF
 1119              		.section	.text.HAL_SYSCFG_ETHInterfaceSelect,"ax",%progbits
 1120              		.align	1
 1121              		.p2align 2,,3
 1122              		.global	HAL_SYSCFG_ETHInterfaceSelect
 1123              		.syntax unified
 1124              		.thumb
 1125              		.thumb_func
 1126              		.type	HAL_SYSCFG_ETHInterfaceSelect, %function
 1127              	HAL_SYSCFG_ETHInterfaceSelect:
 1128              	.LVL50:
 1129              	.LFB165:
 1130              		.loc 1 602 1 is_stmt 1 view -0
 1131              		.cfi_startproc
 1132              		@ args = 0, pretend = 0, frame = 0
 1133              		@ frame_needed = 0, uses_anonymous_args = 0
 1134              		.loc 1 604 3 view .LVU259
 1135              		.loc 1 604 16 is_stmt 0 view .LVU260
 1136 0000 30F40003 		bics	r3, r0, #8388608
 1137              		.loc 1 602 1 view .LVU261
 1138 0004 10B5     		push	{r4, lr}
 1139              		.cfi_def_cfa_offset 8
 1140              		.cfi_offset 4, -8
ARM GAS  C:\Users\DEVELO~1\AppData\Local\Temp\ccxGW0hd.s 			page 21


 1141              		.cfi_offset 14, -4
 1142              		.loc 1 602 1 view .LVU262
 1143 0006 0446     		mov	r4, r0
 1144              		.loc 1 604 3 view .LVU263
 1145 0008 0CBF     		ite	eq
 1146 000a 0120     		moveq	r0, #1
 1147              	.LVL51:
 1148              		.loc 1 604 3 view .LVU264
 1149 000c 0020     		movne	r0, #0
 1150 000e FFF7FEFF 		bl	assert_param
 1151              	.LVL52:
 1152              		.loc 1 606 3 is_stmt 1 view .LVU265
 1153 0012 034A     		ldr	r2, .L111
 1154 0014 5368     		ldr	r3, [r2, #4]
 1155 0016 23F46003 		bic	r3, r3, #14680064
 1156 001a 2343     		orrs	r3, r3, r4
 1157 001c 5360     		str	r3, [r2, #4]
 1158              		.loc 1 607 1 is_stmt 0 view .LVU266
 1159 001e 10BD     		pop	{r4, pc}
 1160              	.LVL53:
 1161              	.L112:
 1162              		.loc 1 607 1 view .LVU267
 1163              		.align	2
 1164              	.L111:
 1165 0020 00040058 		.word	1476396032
 1166              		.cfi_endproc
 1167              	.LFE165:
 1168              		.size	HAL_SYSCFG_ETHInterfaceSelect, .-HAL_SYSCFG_ETHInterfaceSelect
 1169              		.section	.text.HAL_SYSCFG_AnalogSwitchConfig,"ax",%progbits
 1170              		.align	1
 1171              		.p2align 2,,3
 1172              		.global	HAL_SYSCFG_AnalogSwitchConfig
 1173              		.syntax unified
 1174              		.thumb
 1175              		.thumb_func
 1176              		.type	HAL_SYSCFG_AnalogSwitchConfig, %function
 1177              	HAL_SYSCFG_AnalogSwitchConfig:
 1178              	.LVL54:
 1179              	.LFB166:
 1180              		.loc 1 632 1 is_stmt 1 view -0
 1181              		.cfi_startproc
 1182              		@ args = 0, pretend = 0, frame = 0
 1183              		@ frame_needed = 0, uses_anonymous_args = 0
 1184              		.loc 1 634 3 view .LVU269
 1185 0000 10F0706F 		tst	r0, #251658240
 1186              		.loc 1 632 1 is_stmt 0 view .LVU270
 1187 0004 38B5     		push	{r3, r4, r5, lr}
 1188              		.cfi_def_cfa_offset 16
 1189              		.cfi_offset 3, -16
 1190              		.cfi_offset 4, -12
 1191              		.cfi_offset 5, -8
 1192              		.cfi_offset 14, -4
 1193              		.loc 1 632 1 view .LVU271
 1194 0006 0446     		mov	r4, r0
 1195              		.loc 1 634 3 view .LVU272
 1196 0008 14BF     		ite	ne
 1197 000a 0120     		movne	r0, #1
ARM GAS  C:\Users\DEVELO~1\AppData\Local\Temp\ccxGW0hd.s 			page 22


 1198              	.LVL55:
 1199              		.loc 1 634 3 view .LVU273
 1200 000c 0020     		moveq	r0, #0
 1201              		.loc 1 632 1 view .LVU274
 1202 000e 0D46     		mov	r5, r1
 1203              		.loc 1 634 3 view .LVU275
 1204 0010 FFF7FEFF 		bl	assert_param
 1205              	.LVL56:
 1206              		.loc 1 635 3 is_stmt 1 view .LVU276
 1207 0014 0120     		movs	r0, #1
 1208 0016 FFF7FEFF 		bl	assert_param
 1209              	.LVL57:
 1210              		.loc 1 637 3 view .LVU277
 1211 001a 034A     		ldr	r2, .L115
 1212 001c 5068     		ldr	r0, [r2, #4]
 1213 001e 20EA0400 		bic	r0, r0, r4
 1214 0022 2843     		orrs	r0, r0, r5
 1215 0024 5060     		str	r0, [r2, #4]
 1216              		.loc 1 638 1 is_stmt 0 view .LVU278
 1217 0026 38BD     		pop	{r3, r4, r5, pc}
 1218              	.LVL58:
 1219              	.L116:
 1220              		.loc 1 638 1 view .LVU279
 1221              		.align	2
 1222              	.L115:
 1223 0028 00040058 		.word	1476396032
 1224              		.cfi_endproc
 1225              	.LFE166:
 1226              		.size	HAL_SYSCFG_AnalogSwitchConfig, .-HAL_SYSCFG_AnalogSwitchConfig
 1227              		.section	.text.HAL_SYSCFG_EnableBOOST,"ax",%progbits
 1228              		.align	1
 1229              		.p2align 2,,3
 1230              		.global	HAL_SYSCFG_EnableBOOST
 1231              		.syntax unified
 1232              		.thumb
 1233              		.thumb_func
 1234              		.type	HAL_SYSCFG_EnableBOOST, %function
 1235              	HAL_SYSCFG_EnableBOOST:
 1236              	.LFB167:
 1237              		.loc 1 650 1 is_stmt 1 view -0
 1238              		.cfi_startproc
 1239              		@ args = 0, pretend = 0, frame = 0
 1240              		@ frame_needed = 0, uses_anonymous_args = 0
 1241              		@ link register save eliminated.
 1242              		.loc 1 651 2 view .LVU281
 1243 0000 024A     		ldr	r2, .L118
 1244 0002 5368     		ldr	r3, [r2, #4]
 1245 0004 43F48073 		orr	r3, r3, #256
 1246 0008 5360     		str	r3, [r2, #4]
 1247              		.loc 1 652 1 is_stmt 0 view .LVU282
 1248 000a 7047     		bx	lr
 1249              	.L119:
 1250              		.align	2
 1251              	.L118:
 1252 000c 00040058 		.word	1476396032
 1253              		.cfi_endproc
 1254              	.LFE167:
ARM GAS  C:\Users\DEVELO~1\AppData\Local\Temp\ccxGW0hd.s 			page 23


 1255              		.size	HAL_SYSCFG_EnableBOOST, .-HAL_SYSCFG_EnableBOOST
 1256              		.section	.text.HAL_SYSCFG_DisableBOOST,"ax",%progbits
 1257              		.align	1
 1258              		.p2align 2,,3
 1259              		.global	HAL_SYSCFG_DisableBOOST
 1260              		.syntax unified
 1261              		.thumb
 1262              		.thumb_func
 1263              		.type	HAL_SYSCFG_DisableBOOST, %function
 1264              	HAL_SYSCFG_DisableBOOST:
 1265              	.LFB168:
 1266              		.loc 1 662 1 is_stmt 1 view -0
 1267              		.cfi_startproc
 1268              		@ args = 0, pretend = 0, frame = 0
 1269              		@ frame_needed = 0, uses_anonymous_args = 0
 1270              		@ link register save eliminated.
 1271              		.loc 1 663 2 view .LVU284
 1272 0000 024A     		ldr	r2, .L121
 1273 0002 5368     		ldr	r3, [r2, #4]
 1274 0004 23F48073 		bic	r3, r3, #256
 1275 0008 5360     		str	r3, [r2, #4]
 1276              		.loc 1 664 1 is_stmt 0 view .LVU285
 1277 000a 7047     		bx	lr
 1278              	.L122:
 1279              		.align	2
 1280              	.L121:
 1281 000c 00040058 		.word	1476396032
 1282              		.cfi_endproc
 1283              	.LFE168:
 1284              		.size	HAL_SYSCFG_DisableBOOST, .-HAL_SYSCFG_DisableBOOST
 1285              		.section	.text.HAL_SYSCFG_CM7BootAddConfig,"ax",%progbits
 1286              		.align	1
 1287              		.p2align 2,,3
 1288              		.global	HAL_SYSCFG_CM7BootAddConfig
 1289              		.syntax unified
 1290              		.thumb
 1291              		.thumb_func
 1292              		.type	HAL_SYSCFG_CM7BootAddConfig, %function
 1293              	HAL_SYSCFG_CM7BootAddConfig:
 1294              	.LVL59:
 1295              	.LFB169:
 1296              		.loc 1 678 1 is_stmt 1 view -0
 1297              		.cfi_startproc
 1298              		@ args = 0, pretend = 0, frame = 0
 1299              		@ frame_needed = 0, uses_anonymous_args = 0
 1300              		.loc 1 680 3 view .LVU287
 1301 0000 0128     		cmp	r0, #1
 1302              		.loc 1 678 1 is_stmt 0 view .LVU288
 1303 0002 38B5     		push	{r3, r4, r5, lr}
 1304              		.cfi_def_cfa_offset 16
 1305              		.cfi_offset 3, -16
 1306              		.cfi_offset 4, -12
 1307              		.cfi_offset 5, -8
 1308              		.cfi_offset 14, -4
 1309              		.loc 1 678 1 view .LVU289
 1310 0004 0C46     		mov	r4, r1
 1311 0006 0546     		mov	r5, r0
ARM GAS  C:\Users\DEVELO~1\AppData\Local\Temp\ccxGW0hd.s 			page 24


 1312              		.loc 1 680 3 view .LVU290
 1313 0008 8CBF     		ite	hi
 1314 000a 0020     		movhi	r0, #0
 1315              	.LVL60:
 1316              		.loc 1 680 3 view .LVU291
 1317 000c 0120     		movls	r0, #1
 1318 000e FFF7FEFF 		bl	assert_param
 1319              	.LVL61:
 1320              		.loc 1 681 3 is_stmt 1 view .LVU292
 1321 0012 B4F1804F 		cmp	r4, #1073741824
 1322 0016 2CBF     		ite	cs
 1323 0018 0020     		movcs	r0, #0
 1324 001a 0120     		movcc	r0, #1
 1325 001c FFF7FEFF 		bl	assert_param
 1326              	.LVL62:
 1327              		.loc 1 682 3 view .LVU293
 1328              		.loc 1 682 6 is_stmt 0 view .LVU294
 1329 0020 4DB9     		cbnz	r5, .L124
 1330              		.loc 1 688 5 is_stmt 1 view .LVU295
 1331 0022 0A49     		ldr	r1, .L127
 1332 0024 0A4B     		ldr	r3, .L127+4
 1333 0026 D1F80823 		ldr	r2, [r1, #776]
 1334 002a 2340     		ands	r3, r3, r4
 1335 002c 92B2     		uxth	r2, r2
 1336 002e 1343     		orrs	r3, r3, r2
 1337 0030 C1F80833 		str	r3, [r1, #776]
 1338              		.loc 1 700 1 is_stmt 0 view .LVU296
 1339 0034 38BD     		pop	{r3, r4, r5, pc}
 1340              	.LVL63:
 1341              	.L124:
 1342              		.loc 1 697 5 is_stmt 1 view .LVU297
 1343 0036 054A     		ldr	r2, .L127
 1344 0038 054B     		ldr	r3, .L127+4
 1345 003a D2F80C13 		ldr	r1, [r2, #780]
 1346 003e 0B40     		ands	r3, r3, r1
 1347 0040 43EA1443 		orr	r3, r3, r4, lsr #16
 1348 0044 C2F80C33 		str	r3, [r2, #780]
 1349              		.loc 1 700 1 is_stmt 0 view .LVU298
 1350 0048 38BD     		pop	{r3, r4, r5, pc}
 1351              	.LVL64:
 1352              	.L128:
 1353              		.loc 1 700 1 view .LVU299
 1354 004a 00BF     		.align	2
 1355              	.L127:
 1356 004c 00040058 		.word	1476396032
 1357 0050 0000FFFF 		.word	-65536
 1358              		.cfi_endproc
 1359              	.LFE169:
 1360              		.size	HAL_SYSCFG_CM7BootAddConfig, .-HAL_SYSCFG_CM7BootAddConfig
 1361              		.section	.text.HAL_EnableCompensationCell,"ax",%progbits
 1362              		.align	1
 1363              		.p2align 2,,3
 1364              		.global	HAL_EnableCompensationCell
 1365              		.syntax unified
 1366              		.thumb
 1367              		.thumb_func
 1368              		.type	HAL_EnableCompensationCell, %function
ARM GAS  C:\Users\DEVELO~1\AppData\Local\Temp\ccxGW0hd.s 			page 25


 1369              	HAL_EnableCompensationCell:
 1370              	.LFB170:
 1371              		.loc 1 777 1 is_stmt 1 view -0
 1372              		.cfi_startproc
 1373              		@ args = 0, pretend = 0, frame = 0
 1374              		@ frame_needed = 0, uses_anonymous_args = 0
 1375              		@ link register save eliminated.
 1376              		.loc 1 778 3 view .LVU301
 1377 0000 024A     		ldr	r2, .L130
 1378 0002 136A     		ldr	r3, [r2, #32]
 1379 0004 43F00103 		orr	r3, r3, #1
 1380 0008 1362     		str	r3, [r2, #32]
 1381              		.loc 1 779 1 is_stmt 0 view .LVU302
 1382 000a 7047     		bx	lr
 1383              	.L131:
 1384              		.align	2
 1385              	.L130:
 1386 000c 00040058 		.word	1476396032
 1387              		.cfi_endproc
 1388              	.LFE170:
 1389              		.size	HAL_EnableCompensationCell, .-HAL_EnableCompensationCell
 1390              		.section	.text.HAL_DisableCompensationCell,"ax",%progbits
 1391              		.align	1
 1392              		.p2align 2,,3
 1393              		.global	HAL_DisableCompensationCell
 1394              		.syntax unified
 1395              		.thumb
 1396              		.thumb_func
 1397              		.type	HAL_DisableCompensationCell, %function
 1398              	HAL_DisableCompensationCell:
 1399              	.LFB171:
 1400              		.loc 1 788 1 is_stmt 1 view -0
 1401              		.cfi_startproc
 1402              		@ args = 0, pretend = 0, frame = 0
 1403              		@ frame_needed = 0, uses_anonymous_args = 0
 1404              		@ link register save eliminated.
 1405              		.loc 1 789 3 view .LVU304
 1406 0000 024A     		ldr	r2, .L133
 1407 0002 136A     		ldr	r3, [r2, #32]
 1408 0004 23F00103 		bic	r3, r3, #1
 1409 0008 1362     		str	r3, [r2, #32]
 1410              		.loc 1 790 1 is_stmt 0 view .LVU305
 1411 000a 7047     		bx	lr
 1412              	.L134:
 1413              		.align	2
 1414              	.L133:
 1415 000c 00040058 		.word	1476396032
 1416              		.cfi_endproc
 1417              	.LFE171:
 1418              		.size	HAL_DisableCompensationCell, .-HAL_DisableCompensationCell
 1419              		.section	.text.HAL_SYSCFG_EnableIOSpeedOptimize,"ax",%progbits
 1420              		.align	1
 1421              		.p2align 2,,3
 1422              		.global	HAL_SYSCFG_EnableIOSpeedOptimize
 1423              		.syntax unified
 1424              		.thumb
 1425              		.thumb_func
ARM GAS  C:\Users\DEVELO~1\AppData\Local\Temp\ccxGW0hd.s 			page 26


 1426              		.type	HAL_SYSCFG_EnableIOSpeedOptimize, %function
 1427              	HAL_SYSCFG_EnableIOSpeedOptimize:
 1428              	.LFB172:
 1429              		.loc 1 801 1 is_stmt 1 view -0
 1430              		.cfi_startproc
 1431              		@ args = 0, pretend = 0, frame = 0
 1432              		@ frame_needed = 0, uses_anonymous_args = 0
 1433              		@ link register save eliminated.
 1434              		.loc 1 803 3 view .LVU307
 1435 0000 024A     		ldr	r2, .L136
 1436 0002 136A     		ldr	r3, [r2, #32]
 1437 0004 43F48033 		orr	r3, r3, #65536
 1438 0008 1362     		str	r3, [r2, #32]
 1439              		.loc 1 807 1 is_stmt 0 view .LVU308
 1440 000a 7047     		bx	lr
 1441              	.L137:
 1442              		.align	2
 1443              	.L136:
 1444 000c 00040058 		.word	1476396032
 1445              		.cfi_endproc
 1446              	.LFE172:
 1447              		.size	HAL_SYSCFG_EnableIOSpeedOptimize, .-HAL_SYSCFG_EnableIOSpeedOptimize
 1448              		.section	.text.HAL_SYSCFG_DisableIOSpeedOptimize,"ax",%progbits
 1449              		.align	1
 1450              		.p2align 2,,3
 1451              		.global	HAL_SYSCFG_DisableIOSpeedOptimize
 1452              		.syntax unified
 1453              		.thumb
 1454              		.thumb_func
 1455              		.type	HAL_SYSCFG_DisableIOSpeedOptimize, %function
 1456              	HAL_SYSCFG_DisableIOSpeedOptimize:
 1457              	.LFB173:
 1458              		.loc 1 817 1 is_stmt 1 view -0
 1459              		.cfi_startproc
 1460              		@ args = 0, pretend = 0, frame = 0
 1461              		@ frame_needed = 0, uses_anonymous_args = 0
 1462              		@ link register save eliminated.
 1463              		.loc 1 819 3 view .LVU310
 1464 0000 024A     		ldr	r2, .L139
 1465 0002 136A     		ldr	r3, [r2, #32]
 1466 0004 23F48033 		bic	r3, r3, #65536
 1467 0008 1362     		str	r3, [r2, #32]
 1468              		.loc 1 823 1 is_stmt 0 view .LVU311
 1469 000a 7047     		bx	lr
 1470              	.L140:
 1471              		.align	2
 1472              	.L139:
 1473 000c 00040058 		.word	1476396032
 1474              		.cfi_endproc
 1475              	.LFE173:
 1476              		.size	HAL_SYSCFG_DisableIOSpeedOptimize, .-HAL_SYSCFG_DisableIOSpeedOptimize
 1477              		.section	.text.HAL_SYSCFG_CompensationCodeSelect,"ax",%progbits
 1478              		.align	1
 1479              		.p2align 2,,3
 1480              		.global	HAL_SYSCFG_CompensationCodeSelect
 1481              		.syntax unified
 1482              		.thumb
ARM GAS  C:\Users\DEVELO~1\AppData\Local\Temp\ccxGW0hd.s 			page 27


 1483              		.thumb_func
 1484              		.type	HAL_SYSCFG_CompensationCodeSelect, %function
 1485              	HAL_SYSCFG_CompensationCodeSelect:
 1486              	.LVL65:
 1487              	.LFB174:
 1488              		.loc 1 834 1 is_stmt 1 view -0
 1489              		.cfi_startproc
 1490              		@ args = 0, pretend = 0, frame = 0
 1491              		@ frame_needed = 0, uses_anonymous_args = 0
 1492              		.loc 1 836 3 view .LVU313
 1493              		.loc 1 836 16 is_stmt 0 view .LVU314
 1494 0000 30F00203 		bics	r3, r0, #2
 1495              		.loc 1 834 1 view .LVU315
 1496 0004 10B5     		push	{r4, lr}
 1497              		.cfi_def_cfa_offset 8
 1498              		.cfi_offset 4, -8
 1499              		.cfi_offset 14, -4
 1500              		.loc 1 834 1 view .LVU316
 1501 0006 0446     		mov	r4, r0
 1502              		.loc 1 836 3 view .LVU317
 1503 0008 0CBF     		ite	eq
 1504 000a 0120     		moveq	r0, #1
 1505              	.LVL66:
 1506              		.loc 1 836 3 view .LVU318
 1507 000c 0020     		movne	r0, #0
 1508 000e FFF7FEFF 		bl	assert_param
 1509              	.LVL67:
 1510              		.loc 1 837 3 is_stmt 1 view .LVU319
 1511 0012 034A     		ldr	r2, .L143
 1512 0014 136A     		ldr	r3, [r2, #32]
 1513 0016 23F00203 		bic	r3, r3, #2
 1514 001a 2343     		orrs	r3, r3, r4
 1515 001c 1362     		str	r3, [r2, #32]
 1516              		.loc 1 838 1 is_stmt 0 view .LVU320
 1517 001e 10BD     		pop	{r4, pc}
 1518              	.LVL68:
 1519              	.L144:
 1520              		.loc 1 838 1 view .LVU321
 1521              		.align	2
 1522              	.L143:
 1523 0020 00040058 		.word	1476396032
 1524              		.cfi_endproc
 1525              	.LFE174:
 1526              		.size	HAL_SYSCFG_CompensationCodeSelect, .-HAL_SYSCFG_CompensationCodeSelect
 1527              		.section	.text.HAL_SYSCFG_CompensationCodeConfig,"ax",%progbits
 1528              		.align	1
 1529              		.p2align 2,,3
 1530              		.global	HAL_SYSCFG_CompensationCodeConfig
 1531              		.syntax unified
 1532              		.thumb
 1533              		.thumb_func
 1534              		.type	HAL_SYSCFG_CompensationCodeConfig, %function
 1535              	HAL_SYSCFG_CompensationCodeConfig:
 1536              	.LVL69:
 1537              	.LFB175:
 1538              		.loc 1 851 1 is_stmt 1 view -0
 1539              		.cfi_startproc
ARM GAS  C:\Users\DEVELO~1\AppData\Local\Temp\ccxGW0hd.s 			page 28


 1540              		@ args = 0, pretend = 0, frame = 0
 1541              		@ frame_needed = 0, uses_anonymous_args = 0
 1542              		.loc 1 853 3 view .LVU323
 1543 0000 0F28     		cmp	r0, #15
 1544              		.loc 1 851 1 is_stmt 0 view .LVU324
 1545 0002 38B5     		push	{r3, r4, r5, lr}
 1546              		.cfi_def_cfa_offset 16
 1547              		.cfi_offset 3, -16
 1548              		.cfi_offset 4, -12
 1549              		.cfi_offset 5, -8
 1550              		.cfi_offset 14, -4
 1551              		.loc 1 851 1 view .LVU325
 1552 0004 0D46     		mov	r5, r1
 1553 0006 0446     		mov	r4, r0
 1554              		.loc 1 853 3 view .LVU326
 1555 0008 8CBF     		ite	hi
 1556 000a 0020     		movhi	r0, #0
 1557              	.LVL70:
 1558              		.loc 1 853 3 view .LVU327
 1559 000c 0120     		movls	r0, #1
 1560 000e FFF7FEFF 		bl	assert_param
 1561              	.LVL71:
 1562              		.loc 1 854 3 is_stmt 1 view .LVU328
 1563 0012 0F2D     		cmp	r5, #15
 1564 0014 8CBF     		ite	hi
 1565 0016 0020     		movhi	r0, #0
 1566 0018 0120     		movls	r0, #1
 1567 001a FFF7FEFF 		bl	assert_param
 1568              	.LVL72:
 1569              		.loc 1 855 3 view .LVU329
 1570 001e 054A     		ldr	r2, .L147
 1571 0020 936A     		ldr	r3, [r2, #40]
 1572 0022 23F0FF03 		bic	r3, r3, #255
 1573 0026 43EA0501 		orr	r1, r3, r5
 1574 002a 41EA0411 		orr	r1, r1, r4, lsl #4
 1575 002e 9162     		str	r1, [r2, #40]
 1576              		.loc 1 856 1 is_stmt 0 view .LVU330
 1577 0030 38BD     		pop	{r3, r4, r5, pc}
 1578              	.LVL73:
 1579              	.L148:
 1580              		.loc 1 856 1 view .LVU331
 1581 0032 00BF     		.align	2
 1582              	.L147:
 1583 0034 00040058 		.word	1476396032
 1584              		.cfi_endproc
 1585              	.LFE175:
 1586              		.size	HAL_SYSCFG_CompensationCodeConfig, .-HAL_SYSCFG_CompensationCodeConfig
 1587              		.section	.text.HAL_DBGMCU_EnableDBGSleepMode,"ax",%progbits
 1588              		.align	1
 1589              		.p2align 2,,3
 1590              		.global	HAL_DBGMCU_EnableDBGSleepMode
 1591              		.syntax unified
 1592              		.thumb
 1593              		.thumb_func
 1594              		.type	HAL_DBGMCU_EnableDBGSleepMode, %function
 1595              	HAL_DBGMCU_EnableDBGSleepMode:
 1596              	.LFB176:
ARM GAS  C:\Users\DEVELO~1\AppData\Local\Temp\ccxGW0hd.s 			page 29


 1597              		.loc 1 913 1 is_stmt 1 view -0
 1598              		.cfi_startproc
 1599              		@ args = 0, pretend = 0, frame = 0
 1600              		@ frame_needed = 0, uses_anonymous_args = 0
 1601              		@ link register save eliminated.
 1602              		.loc 1 914 3 view .LVU333
 1603 0000 024A     		ldr	r2, .L150
 1604 0002 5368     		ldr	r3, [r2, #4]
 1605 0004 43F00103 		orr	r3, r3, #1
 1606 0008 5360     		str	r3, [r2, #4]
 1607              		.loc 1 915 1 is_stmt 0 view .LVU334
 1608 000a 7047     		bx	lr
 1609              	.L151:
 1610              		.align	2
 1611              	.L150:
 1612 000c 0010005C 		.word	1543507968
 1613              		.cfi_endproc
 1614              	.LFE176:
 1615              		.size	HAL_DBGMCU_EnableDBGSleepMode, .-HAL_DBGMCU_EnableDBGSleepMode
 1616              		.section	.text.HAL_DBGMCU_DisableDBGSleepMode,"ax",%progbits
 1617              		.align	1
 1618              		.p2align 2,,3
 1619              		.global	HAL_DBGMCU_DisableDBGSleepMode
 1620              		.syntax unified
 1621              		.thumb
 1622              		.thumb_func
 1623              		.type	HAL_DBGMCU_DisableDBGSleepMode, %function
 1624              	HAL_DBGMCU_DisableDBGSleepMode:
 1625              	.LFB177:
 1626              		.loc 1 922 1 is_stmt 1 view -0
 1627              		.cfi_startproc
 1628              		@ args = 0, pretend = 0, frame = 0
 1629              		@ frame_needed = 0, uses_anonymous_args = 0
 1630              		@ link register save eliminated.
 1631              		.loc 1 923 3 view .LVU336
 1632 0000 024A     		ldr	r2, .L153
 1633 0002 5368     		ldr	r3, [r2, #4]
 1634 0004 23F00103 		bic	r3, r3, #1
 1635 0008 5360     		str	r3, [r2, #4]
 1636              		.loc 1 924 1 is_stmt 0 view .LVU337
 1637 000a 7047     		bx	lr
 1638              	.L154:
 1639              		.align	2
 1640              	.L153:
 1641 000c 0010005C 		.word	1543507968
 1642              		.cfi_endproc
 1643              	.LFE177:
 1644              		.size	HAL_DBGMCU_DisableDBGSleepMode, .-HAL_DBGMCU_DisableDBGSleepMode
 1645              		.section	.text.HAL_DBGMCU_EnableDBGStopMode,"ax",%progbits
 1646              		.align	1
 1647              		.p2align 2,,3
 1648              		.global	HAL_DBGMCU_EnableDBGStopMode
 1649              		.syntax unified
 1650              		.thumb
 1651              		.thumb_func
 1652              		.type	HAL_DBGMCU_EnableDBGStopMode, %function
 1653              	HAL_DBGMCU_EnableDBGStopMode:
ARM GAS  C:\Users\DEVELO~1\AppData\Local\Temp\ccxGW0hd.s 			page 30


 1654              	.LFB178:
 1655              		.loc 1 932 1 is_stmt 1 view -0
 1656              		.cfi_startproc
 1657              		@ args = 0, pretend = 0, frame = 0
 1658              		@ frame_needed = 0, uses_anonymous_args = 0
 1659              		@ link register save eliminated.
 1660              		.loc 1 933 3 view .LVU339
 1661 0000 024A     		ldr	r2, .L156
 1662 0002 5368     		ldr	r3, [r2, #4]
 1663 0004 43F00203 		orr	r3, r3, #2
 1664 0008 5360     		str	r3, [r2, #4]
 1665              		.loc 1 934 1 is_stmt 0 view .LVU340
 1666 000a 7047     		bx	lr
 1667              	.L157:
 1668              		.align	2
 1669              	.L156:
 1670 000c 0010005C 		.word	1543507968
 1671              		.cfi_endproc
 1672              	.LFE178:
 1673              		.size	HAL_DBGMCU_EnableDBGStopMode, .-HAL_DBGMCU_EnableDBGStopMode
 1674              		.section	.text.HAL_DBGMCU_DisableDBGStopMode,"ax",%progbits
 1675              		.align	1
 1676              		.p2align 2,,3
 1677              		.global	HAL_DBGMCU_DisableDBGStopMode
 1678              		.syntax unified
 1679              		.thumb
 1680              		.thumb_func
 1681              		.type	HAL_DBGMCU_DisableDBGStopMode, %function
 1682              	HAL_DBGMCU_DisableDBGStopMode:
 1683              	.LFB179:
 1684              		.loc 1 941 1 is_stmt 1 view -0
 1685              		.cfi_startproc
 1686              		@ args = 0, pretend = 0, frame = 0
 1687              		@ frame_needed = 0, uses_anonymous_args = 0
 1688              		@ link register save eliminated.
 1689              		.loc 1 942 3 view .LVU342
 1690 0000 024A     		ldr	r2, .L159
 1691 0002 5368     		ldr	r3, [r2, #4]
 1692 0004 23F00203 		bic	r3, r3, #2
 1693 0008 5360     		str	r3, [r2, #4]
 1694              		.loc 1 943 1 is_stmt 0 view .LVU343
 1695 000a 7047     		bx	lr
 1696              	.L160:
 1697              		.align	2
 1698              	.L159:
 1699 000c 0010005C 		.word	1543507968
 1700              		.cfi_endproc
 1701              	.LFE179:
 1702              		.size	HAL_DBGMCU_DisableDBGStopMode, .-HAL_DBGMCU_DisableDBGStopMode
 1703              		.section	.text.HAL_DBGMCU_EnableDBGStandbyMode,"ax",%progbits
 1704              		.align	1
 1705              		.p2align 2,,3
 1706              		.global	HAL_DBGMCU_EnableDBGStandbyMode
 1707              		.syntax unified
 1708              		.thumb
 1709              		.thumb_func
 1710              		.type	HAL_DBGMCU_EnableDBGStandbyMode, %function
ARM GAS  C:\Users\DEVELO~1\AppData\Local\Temp\ccxGW0hd.s 			page 31


 1711              	HAL_DBGMCU_EnableDBGStandbyMode:
 1712              	.LFB180:
 1713              		.loc 1 950 1 is_stmt 1 view -0
 1714              		.cfi_startproc
 1715              		@ args = 0, pretend = 0, frame = 0
 1716              		@ frame_needed = 0, uses_anonymous_args = 0
 1717              		@ link register save eliminated.
 1718              		.loc 1 951 3 view .LVU345
 1719 0000 024A     		ldr	r2, .L162
 1720 0002 5368     		ldr	r3, [r2, #4]
 1721 0004 43F00403 		orr	r3, r3, #4
 1722 0008 5360     		str	r3, [r2, #4]
 1723              		.loc 1 952 1 is_stmt 0 view .LVU346
 1724 000a 7047     		bx	lr
 1725              	.L163:
 1726              		.align	2
 1727              	.L162:
 1728 000c 0010005C 		.word	1543507968
 1729              		.cfi_endproc
 1730              	.LFE180:
 1731              		.size	HAL_DBGMCU_EnableDBGStandbyMode, .-HAL_DBGMCU_EnableDBGStandbyMode
 1732              		.section	.text.HAL_DBGMCU_DisableDBGStandbyMode,"ax",%progbits
 1733              		.align	1
 1734              		.p2align 2,,3
 1735              		.global	HAL_DBGMCU_DisableDBGStandbyMode
 1736              		.syntax unified
 1737              		.thumb
 1738              		.thumb_func
 1739              		.type	HAL_DBGMCU_DisableDBGStandbyMode, %function
 1740              	HAL_DBGMCU_DisableDBGStandbyMode:
 1741              	.LFB181:
 1742              		.loc 1 959 1 is_stmt 1 view -0
 1743              		.cfi_startproc
 1744              		@ args = 0, pretend = 0, frame = 0
 1745              		@ frame_needed = 0, uses_anonymous_args = 0
 1746              		@ link register save eliminated.
 1747              		.loc 1 960 3 view .LVU348
 1748 0000 024A     		ldr	r2, .L165
 1749 0002 5368     		ldr	r3, [r2, #4]
 1750 0004 23F00403 		bic	r3, r3, #4
 1751 0008 5360     		str	r3, [r2, #4]
 1752              		.loc 1 961 1 is_stmt 0 view .LVU349
 1753 000a 7047     		bx	lr
 1754              	.L166:
 1755              		.align	2
 1756              	.L165:
 1757 000c 0010005C 		.word	1543507968
 1758              		.cfi_endproc
 1759              	.LFE181:
 1760              		.size	HAL_DBGMCU_DisableDBGStandbyMode, .-HAL_DBGMCU_DisableDBGStandbyMode
 1761              		.section	.text.HAL_SetFMCMemorySwappingConfig,"ax",%progbits
 1762              		.align	1
 1763              		.p2align 2,,3
 1764              		.global	HAL_SetFMCMemorySwappingConfig
 1765              		.syntax unified
 1766              		.thumb
 1767              		.thumb_func
ARM GAS  C:\Users\DEVELO~1\AppData\Local\Temp\ccxGW0hd.s 			page 32


 1768              		.type	HAL_SetFMCMemorySwappingConfig, %function
 1769              	HAL_SetFMCMemorySwappingConfig:
 1770              	.LVL74:
 1771              	.LFB182:
 1772              		.loc 1 1066 1 is_stmt 1 view -0
 1773              		.cfi_startproc
 1774              		@ args = 0, pretend = 0, frame = 0
 1775              		@ frame_needed = 0, uses_anonymous_args = 0
 1776              		.loc 1 1068 3 view .LVU351
 1777              		.loc 1 1066 1 is_stmt 0 view .LVU352
 1778 0000 10B5     		push	{r4, lr}
 1779              		.cfi_def_cfa_offset 8
 1780              		.cfi_offset 4, -8
 1781              		.cfi_offset 14, -4
 1782              		.loc 1 1066 1 view .LVU353
 1783 0002 0446     		mov	r4, r0
 1784              		.loc 1 1068 16 view .LVU354
 1785 0004 20F08070 		bic	r0, r0, #16777216
 1786              	.LVL75:
 1787              		.loc 1 1068 3 view .LVU355
 1788 0008 0028     		cmp	r0, #0
 1789 000a 18BF     		it	ne
 1790 000c B4F1007F 		cmpne	r4, #33554432
 1791 0010 0CBF     		ite	eq
 1792 0012 0120     		moveq	r0, #1
 1793 0014 0020     		movne	r0, #0
 1794 0016 FFF7FEFF 		bl	assert_param
 1795              	.LVL76:
 1796              		.loc 1 1069 3 is_stmt 1 view .LVU356
 1797 001a 034A     		ldr	r2, .L169
 1798 001c 1368     		ldr	r3, [r2]
 1799 001e 23F04073 		bic	r3, r3, #50331648
 1800 0022 2343     		orrs	r3, r3, r4
 1801 0024 1360     		str	r3, [r2]
 1802              		.loc 1 1070 1 is_stmt 0 view .LVU357
 1803 0026 10BD     		pop	{r4, pc}
 1804              	.LVL77:
 1805              	.L170:
 1806              		.loc 1 1070 1 view .LVU358
 1807              		.align	2
 1808              	.L169:
 1809 0028 00400052 		.word	1375748096
 1810              		.cfi_endproc
 1811              	.LFE182:
 1812              		.size	HAL_SetFMCMemorySwappingConfig, .-HAL_SetFMCMemorySwappingConfig
 1813              		.section	.text.HAL_GetFMCMemorySwappingConfig,"ax",%progbits
 1814              		.align	1
 1815              		.p2align 2,,3
 1816              		.global	HAL_GetFMCMemorySwappingConfig
 1817              		.syntax unified
 1818              		.thumb
 1819              		.thumb_func
 1820              		.type	HAL_GetFMCMemorySwappingConfig, %function
 1821              	HAL_GetFMCMemorySwappingConfig:
 1822              	.LFB183:
 1823              		.loc 1 1078 1 is_stmt 1 view -0
 1824              		.cfi_startproc
ARM GAS  C:\Users\DEVELO~1\AppData\Local\Temp\ccxGW0hd.s 			page 33


 1825              		@ args = 0, pretend = 0, frame = 0
 1826              		@ frame_needed = 0, uses_anonymous_args = 0
 1827              		@ link register save eliminated.
 1828              		.loc 1 1079 3 view .LVU360
 1829              		.loc 1 1079 10 is_stmt 0 view .LVU361
 1830 0000 024B     		ldr	r3, .L172
 1831 0002 1868     		ldr	r0, [r3]
 1832              		.loc 1 1080 1 view .LVU362
 1833 0004 00F04070 		and	r0, r0, #50331648
 1834 0008 7047     		bx	lr
 1835              	.L173:
 1836 000a 00BF     		.align	2
 1837              	.L172:
 1838 000c 00400052 		.word	1375748096
 1839              		.cfi_endproc
 1840              	.LFE183:
 1841              		.size	HAL_GetFMCMemorySwappingConfig, .-HAL_GetFMCMemorySwappingConfig
 1842              		.section	.text.HAL_EXTI_EdgeConfig,"ax",%progbits
 1843              		.align	1
 1844              		.p2align 2,,3
 1845              		.global	HAL_EXTI_EdgeConfig
 1846              		.syntax unified
 1847              		.thumb
 1848              		.thumb_func
 1849              		.type	HAL_EXTI_EdgeConfig, %function
 1850              	HAL_EXTI_EdgeConfig:
 1851              	.LVL78:
 1852              	.LFB184:
 1853              		.loc 1 1095 1 is_stmt 1 view -0
 1854              		.cfi_startproc
 1855              		@ args = 0, pretend = 0, frame = 0
 1856              		@ frame_needed = 0, uses_anonymous_args = 0
 1857              		.loc 1 1097 3 view .LVU364
 1858 0000 3328     		cmp	r0, #51
 1859              		.loc 1 1095 1 is_stmt 0 view .LVU365
 1860 0002 38B5     		push	{r3, r4, r5, lr}
 1861              		.cfi_def_cfa_offset 16
 1862              		.cfi_offset 3, -16
 1863              		.cfi_offset 4, -12
 1864              		.cfi_offset 5, -8
 1865              		.cfi_offset 14, -4
 1866              		.loc 1 1095 1 view .LVU366
 1867 0004 0446     		mov	r4, r0
 1868 0006 0D46     		mov	r5, r1
 1869 0008 02D0     		beq	.L180
 1870 000a 30D8     		bhi	.L176
 1871 000c 1528     		cmp	r0, #21
 1872 000e 28D8     		bhi	.L188
 1873              	.L180:
 1874 0010 0120     		movs	r0, #1
 1875              	.LVL79:
 1876              	.L175:
 1877              		.loc 1 1097 3 discriminator 8 view .LVU367
 1878 0012 FFF7FEFF 		bl	assert_param
 1879              	.LVL80:
 1880              		.loc 1 1098 3 is_stmt 1 discriminator 8 view .LVU368
 1881 0016 B5F5001F 		cmp	r5, #2097152
ARM GAS  C:\Users\DEVELO~1\AppData\Local\Temp\ccxGW0hd.s 			page 34


 1882 001a 18BF     		it	ne
 1883 001c B5F5801F 		cmpne	r5, #1048576
 1884 0020 0CBF     		ite	eq
 1885 0022 0120     		moveq	r0, #1
 1886 0024 0020     		movne	r0, #0
 1887 0026 FFF7FEFF 		bl	assert_param
 1888              	.LVL81:
 1889              		.loc 1 1101 3 discriminator 8 view .LVU369
 1890 002a 24F01F02 		bic	r2, r4, #31
 1891 002e 1349     		ldr	r1, .L189
 1892 0030 04F01F04 		and	r4, r4, #31
 1893              	.LVL82:
 1894              		.loc 1 1101 3 is_stmt 0 discriminator 8 view .LVU370
 1895 0034 0123     		movs	r3, #1
 1896 0036 5058     		ldr	r0, [r2, r1]
 1897 0038 A340     		lsls	r3, r3, r4
 1898 003a 20EA0300 		bic	r0, r0, r3
 1899 003e 5050     		str	r0, [r2, r1]
 1900              		.loc 1 1102 3 is_stmt 1 discriminator 8 view .LVU371
 1901 0040 02F1B040 		add	r0, r2, #1476395008
 1902 0044 0468     		ldr	r4, [r0]
 1903 0046 24EA0304 		bic	r4, r4, r3
 1904 004a 0460     		str	r4, [r0]
 1905              		.loc 1 1104 3 discriminator 8 view .LVU372
 1906              		.loc 1 1104 5 is_stmt 0 discriminator 8 view .LVU373
 1907 004c EC02     		lsls	r4, r5, #11
 1908 004e 02D5     		bpl	.L177
 1909              		.loc 1 1106 4 is_stmt 1 view .LVU374
 1910 0050 0468     		ldr	r4, [r0]
 1911 0052 1C43     		orrs	r4, r4, r3
 1912 0054 0460     		str	r4, [r0]
 1913              	.L177:
 1914              		.loc 1 1108 3 view .LVU375
 1915              		.loc 1 1108 5 is_stmt 0 view .LVU376
 1916 0056 A802     		lsls	r0, r5, #10
 1917 0058 02D5     		bpl	.L174
 1918              		.loc 1 1110 4 is_stmt 1 view .LVU377
 1919 005a 5058     		ldr	r0, [r2, r1]
 1920 005c 0343     		orrs	r3, r3, r0
 1921 005e 5350     		str	r3, [r2, r1]
 1922              	.L174:
 1923              		.loc 1 1112 1 is_stmt 0 view .LVU378
 1924 0060 38BD     		pop	{r3, r4, r5, pc}
 1925              	.LVL83:
 1926              	.L188:
 1927              		.loc 1 1112 1 view .LVU379
 1928 0062 A0F13100 		sub	r0, #49
 1929              	.LVL84:
 1930              		.loc 1 1112 1 view .LVU380
 1931 0066 B0FA80F0 		clz	r0, r0
 1932 006a 4009     		lsrs	r0, r0, #5
 1933 006c D1E7     		b	.L175
 1934              	.LVL85:
 1935              	.L176:
 1936              		.loc 1 1112 1 view .LVU381
 1937 006e 5538     		subs	r0, r0, #85
 1938              	.LVL86:
ARM GAS  C:\Users\DEVELO~1\AppData\Local\Temp\ccxGW0hd.s 			page 35


 1939              		.loc 1 1112 1 view .LVU382
 1940 0070 0128     		cmp	r0, #1
 1941 0072 8CBF     		ite	hi
 1942 0074 0020     		movhi	r0, #0
 1943 0076 0120     		movls	r0, #1
 1944 0078 CBE7     		b	.L175
 1945              	.L190:
 1946 007a 00BF     		.align	2
 1947              	.L189:
 1948 007c 04000058 		.word	1476395012
 1949              		.cfi_endproc
 1950              	.LFE184:
 1951              		.size	HAL_EXTI_EdgeConfig, .-HAL_EXTI_EdgeConfig
 1952              		.section	.text.HAL_EXTI_GenerateSWInterrupt,"ax",%progbits
 1953              		.align	1
 1954              		.p2align 2,,3
 1955              		.global	HAL_EXTI_GenerateSWInterrupt
 1956              		.syntax unified
 1957              		.thumb
 1958              		.thumb_func
 1959              		.type	HAL_EXTI_GenerateSWInterrupt, %function
 1960              	HAL_EXTI_GenerateSWInterrupt:
 1961              	.LVL87:
 1962              	.LFB185:
 1963              		.loc 1 1121 1 is_stmt 1 view -0
 1964              		.cfi_startproc
 1965              		@ args = 0, pretend = 0, frame = 0
 1966              		@ frame_needed = 0, uses_anonymous_args = 0
 1967              		.loc 1 1123 3 view .LVU384
 1968 0000 3328     		cmp	r0, #51
 1969              		.loc 1 1121 1 is_stmt 0 view .LVU385
 1970 0002 10B5     		push	{r4, lr}
 1971              		.cfi_def_cfa_offset 8
 1972              		.cfi_offset 4, -8
 1973              		.cfi_offset 14, -4
 1974              		.loc 1 1121 1 view .LVU386
 1975 0004 0446     		mov	r4, r0
 1976 0006 02D0     		beq	.L195
 1977 0008 15D8     		bhi	.L193
 1978 000a 1528     		cmp	r0, #21
 1979 000c 0DD8     		bhi	.L197
 1980              	.L195:
 1981 000e 0120     		movs	r0, #1
 1982              	.LVL88:
 1983              	.L192:
 1984              		.loc 1 1123 3 discriminator 8 view .LVU387
 1985 0010 FFF7FEFF 		bl	assert_param
 1986              	.LVL89:
 1987              		.loc 1 1125 3 is_stmt 1 discriminator 8 view .LVU388
 1988 0014 24F01F01 		bic	r1, r4, #31
 1989 0018 0A4A     		ldr	r2, .L198
 1990 001a 04F01F04 		and	r4, r4, #31
 1991              	.LVL90:
 1992              		.loc 1 1125 3 is_stmt 0 discriminator 8 view .LVU389
 1993 001e 0123     		movs	r3, #1
 1994 0020 8858     		ldr	r0, [r1, r2]
 1995 0022 A340     		lsls	r3, r3, r4
ARM GAS  C:\Users\DEVELO~1\AppData\Local\Temp\ccxGW0hd.s 			page 36


 1996 0024 0343     		orrs	r3, r3, r0
 1997 0026 8B50     		str	r3, [r1, r2]
 1998              		.loc 1 1126 1 discriminator 8 view .LVU390
 1999 0028 10BD     		pop	{r4, pc}
 2000              	.LVL91:
 2001              	.L197:
 2002              		.loc 1 1126 1 discriminator 8 view .LVU391
 2003 002a A0F13100 		sub	r0, #49
 2004              	.LVL92:
 2005              		.loc 1 1126 1 discriminator 8 view .LVU392
 2006 002e B0FA80F0 		clz	r0, r0
 2007 0032 4009     		lsrs	r0, r0, #5
 2008 0034 ECE7     		b	.L192
 2009              	.LVL93:
 2010              	.L193:
 2011              		.loc 1 1126 1 discriminator 8 view .LVU393
 2012 0036 5538     		subs	r0, r0, #85
 2013              	.LVL94:
 2014              		.loc 1 1126 1 discriminator 8 view .LVU394
 2015 0038 0128     		cmp	r0, #1
 2016 003a 8CBF     		ite	hi
 2017 003c 0020     		movhi	r0, #0
 2018 003e 0120     		movls	r0, #1
 2019 0040 E6E7     		b	.L192
 2020              	.L199:
 2021 0042 00BF     		.align	2
 2022              	.L198:
 2023 0044 08000058 		.word	1476395016
 2024              		.cfi_endproc
 2025              	.LFE185:
 2026              		.size	HAL_EXTI_GenerateSWInterrupt, .-HAL_EXTI_GenerateSWInterrupt
 2027              		.section	.text.HAL_EXTI_D1_ClearFlag,"ax",%progbits
 2028              		.align	1
 2029              		.p2align 2,,3
 2030              		.global	HAL_EXTI_D1_ClearFlag
 2031              		.syntax unified
 2032              		.thumb
 2033              		.thumb_func
 2034              		.type	HAL_EXTI_D1_ClearFlag, %function
 2035              	HAL_EXTI_D1_ClearFlag:
 2036              	.LVL95:
 2037              	.LFB186:
 2038              		.loc 1 1136 1 is_stmt 1 view -0
 2039              		.cfi_startproc
 2040              		@ args = 0, pretend = 0, frame = 0
 2041              		@ frame_needed = 0, uses_anonymous_args = 0
 2042              		.loc 1 1138 2 view .LVU396
 2043 0000 5B28     		cmp	r0, #91
 2044              		.loc 1 1136 1 is_stmt 0 view .LVU397
 2045 0002 10B5     		push	{r4, lr}
 2046              		.cfi_def_cfa_offset 8
 2047              		.cfi_offset 4, -8
 2048              		.cfi_offset 14, -4
 2049              		.loc 1 1136 1 view .LVU398
 2050 0004 0446     		mov	r4, r0
 2051 0006 0CD8     		bhi	.L202
 2052 0008 074B     		ldr	r3, .L204
ARM GAS  C:\Users\DEVELO~1\AppData\Local\Temp\ccxGW0hd.s 			page 37


 2053 000a 1856     		ldrsb	r0, [r3, r0]
 2054              	.LVL96:
 2055              	.L201:
 2056              		.loc 1 1138 2 discriminator 40 view .LVU399
 2057 000c FFF7FEFF 		bl	assert_param
 2058              	.LVL97:
 2059              		.loc 1 1139 2 is_stmt 1 discriminator 40 view .LVU400
 2060 0010 0122     		movs	r2, #1
 2061 0012 6309     		lsrs	r3, r4, #5
 2062 0014 04F01F04 		and	r4, r4, #31
 2063              	.LVL98:
 2064              		.loc 1 1139 2 is_stmt 0 discriminator 40 view .LVU401
 2065 0018 0449     		ldr	r1, .L204+4
 2066 001a 1B01     		lsls	r3, r3, #4
 2067 001c A240     		lsls	r2, r2, r4
 2068 001e 5A50     		str	r2, [r3, r1]
 2069              		.loc 1 1141 1 discriminator 40 view .LVU402
 2070 0020 10BD     		pop	{r4, pc}
 2071              	.LVL99:
 2072              	.L202:
 2073              		.loc 1 1136 1 view .LVU403
 2074 0022 0020     		movs	r0, #0
 2075              	.LVL100:
 2076              		.loc 1 1136 1 view .LVU404
 2077 0024 F2E7     		b	.L201
 2078              	.L205:
 2079 0026 00BF     		.align	2
 2080              	.L204:
 2081 0028 00000000 		.word	.LANCHOR3
 2082 002c 88000058 		.word	1476395144
 2083              		.cfi_endproc
 2084              	.LFE186:
 2085              		.size	HAL_EXTI_D1_ClearFlag, .-HAL_EXTI_D1_ClearFlag
 2086              		.section	.text.HAL_EXTI_D1_EventInputConfig,"ax",%progbits
 2087              		.align	1
 2088              		.p2align 2,,3
 2089              		.global	HAL_EXTI_D1_EventInputConfig
 2090              		.syntax unified
 2091              		.thumb
 2092              		.thumb_func
 2093              		.type	HAL_EXTI_D1_EventInputConfig, %function
 2094              	HAL_EXTI_D1_EventInputConfig:
 2095              	.LVL101:
 2096              	.LFB187:
 2097              		.loc 1 1171 1 is_stmt 1 view -0
 2098              		.cfi_startproc
 2099              		@ args = 0, pretend = 0, frame = 0
 2100              		@ frame_needed = 0, uses_anonymous_args = 0
 2101              		.loc 1 1173 3 view .LVU406
 2102 0000 5B28     		cmp	r0, #91
 2103              		.loc 1 1171 1 is_stmt 0 view .LVU407
 2104 0002 70B5     		push	{r4, r5, r6, lr}
 2105              		.cfi_def_cfa_offset 16
 2106              		.cfi_offset 4, -16
 2107              		.cfi_offset 5, -12
 2108              		.cfi_offset 6, -8
 2109              		.cfi_offset 14, -4
ARM GAS  C:\Users\DEVELO~1\AppData\Local\Temp\ccxGW0hd.s 			page 38


 2110              		.loc 1 1171 1 view .LVU408
 2111 0004 0546     		mov	r5, r0
 2112 0006 0C46     		mov	r4, r1
 2113 0008 1646     		mov	r6, r2
 2114 000a 29D8     		bhi	.L215
 2115 000c 254B     		ldr	r3, .L221
 2116 000e 1856     		ldrsb	r0, [r3, r0]
 2117              	.LVL102:
 2118              	.L207:
 2119              		.loc 1 1173 3 discriminator 40 view .LVU409
 2120 0010 FFF7FEFF 		bl	assert_param
 2121              	.LVL103:
 2122              		.loc 1 1174 3 is_stmt 1 discriminator 40 view .LVU410
 2123 0014 B4F5003F 		cmp	r4, #131072
 2124 0018 18BF     		it	ne
 2125 001a B4F5803F 		cmpne	r4, #65536
 2126 001e 0CBF     		ite	eq
 2127 0020 0120     		moveq	r0, #1
 2128 0022 0020     		movne	r0, #0
 2129 0024 FFF7FEFF 		bl	assert_param
 2130              	.LVL104:
 2131              		.loc 1 1176 3 discriminator 40 view .LVU411
 2132              		.loc 1 1176 5 is_stmt 0 discriminator 40 view .LVU412
 2133 0028 E303     		lsls	r3, r4, #15
 2134 002a 1BD5     		bpl	.L208
 2135              		.loc 1 1178 6 is_stmt 1 view .LVU413
 2136              		.loc 1 1181 9 is_stmt 0 view .LVU414
 2137 002c 1E4B     		ldr	r3, .L221+4
 2138 002e 05F01F00 		and	r0, r5, #31
 2139              		.loc 1 1178 8 view .LVU415
 2140 0032 0EBB     		cbnz	r6, .L209
 2141              		.loc 1 1181 9 is_stmt 1 view .LVU416
 2142 0034 03EB5513 		add	r3, r3, r5, lsr #5
 2143 0038 0121     		movs	r1, #1
 2144 003a 6A09     		lsrs	r2, r5, #5
 2145              		.loc 1 1189 5 is_stmt 0 view .LVU417
 2146 003c A403     		lsls	r4, r4, #14
 2147              	.LVL105:
 2148              		.loc 1 1181 9 view .LVU418
 2149 003e 4FEA0313 		lsl	r3, r3, #4
 2150 0042 01FA00F1 		lsl	r1, r1, r0
 2151 0046 1D68     		ldr	r5, [r3]
 2152              	.LVL106:
 2153              		.loc 1 1181 9 view .LVU419
 2154 0048 6FEA0100 		mvn	r0, r1
 2155 004c 25EA0101 		bic	r1, r5, r1
 2156 0050 1960     		str	r1, [r3]
 2157              		.loc 1 1189 3 is_stmt 1 view .LVU420
 2158              		.loc 1 1189 5 is_stmt 0 view .LVU421
 2159 0052 04D5     		bpl	.L206
 2160              	.L210:
 2161              		.loc 1 1194 7 is_stmt 1 view .LVU422
 2162 0054 1301     		lsls	r3, r2, #4
 2163 0056 1549     		ldr	r1, .L221+8
 2164 0058 5A58     		ldr	r2, [r3, r1]
 2165 005a 0240     		ands	r2, r2, r0
 2166 005c 5A50     		str	r2, [r3, r1]
ARM GAS  C:\Users\DEVELO~1\AppData\Local\Temp\ccxGW0hd.s 			page 39


 2167              	.L206:
 2168              		.loc 1 1201 1 is_stmt 0 view .LVU423
 2169 005e 70BD     		pop	{r4, r5, r6, pc}
 2170              	.LVL107:
 2171              	.L215:
 2172              		.loc 1 1171 1 view .LVU424
 2173 0060 0020     		movs	r0, #0
 2174              	.LVL108:
 2175              		.loc 1 1171 1 view .LVU425
 2176 0062 D5E7     		b	.L207
 2177              	.LVL109:
 2178              	.L208:
 2179              		.loc 1 1189 3 is_stmt 1 view .LVU426
 2180              		.loc 1 1189 5 is_stmt 0 view .LVU427
 2181 0064 A303     		lsls	r3, r4, #14
 2182 0066 FAD5     		bpl	.L206
 2183              		.loc 1 1191 5 is_stmt 1 view .LVU428
 2184              		.loc 1 1181 9 is_stmt 0 view .LVU429
 2185 0068 05F01F03 		and	r3, r5, #31
 2186              		.loc 1 1191 7 view .LVU430
 2187 006c AEB9     		cbnz	r6, .L220
 2188              		.loc 1 1181 9 view .LVU431
 2189 006e 0120     		movs	r0, #1
 2190 0070 6A09     		lsrs	r2, r5, #5
 2191 0072 9840     		lsls	r0, r0, r3
 2192 0074 C043     		mvns	r0, r0
 2193 0076 EDE7     		b	.L210
 2194              	.L209:
 2195              		.loc 1 1185 9 is_stmt 1 view .LVU432
 2196 0078 03EB5513 		add	r3, r3, r5, lsr #5
 2197 007c 0122     		movs	r2, #1
 2198 007e 6909     		lsrs	r1, r5, #5
 2199 0080 1B01     		lsls	r3, r3, #4
 2200 0082 8240     		lsls	r2, r2, r0
 2201 0084 1868     		ldr	r0, [r3]
 2202 0086 1043     		orrs	r0, r0, r2
 2203 0088 1860     		str	r0, [r3]
 2204              		.loc 1 1189 3 view .LVU433
 2205              		.loc 1 1189 5 is_stmt 0 view .LVU434
 2206 008a A003     		lsls	r0, r4, #14
 2207 008c E7D5     		bpl	.L206
 2208              	.L212:
 2209              		.loc 1 1198 7 is_stmt 1 view .LVU435
 2210 008e 0B01     		lsls	r3, r1, #4
 2211 0090 0648     		ldr	r0, .L221+8
 2212 0092 1958     		ldr	r1, [r3, r0]
 2213 0094 0A43     		orrs	r2, r2, r1
 2214 0096 1A50     		str	r2, [r3, r0]
 2215              		.loc 1 1201 1 is_stmt 0 view .LVU436
 2216 0098 70BD     		pop	{r4, r5, r6, pc}
 2217              	.LVL110:
 2218              	.L220:
 2219              		.loc 1 1181 9 view .LVU437
 2220 009a 0122     		movs	r2, #1
 2221 009c 6909     		lsrs	r1, r5, #5
 2222 009e 9A40     		lsls	r2, r2, r3
 2223 00a0 F5E7     		b	.L212
ARM GAS  C:\Users\DEVELO~1\AppData\Local\Temp\ccxGW0hd.s 			page 40


 2224              	.L222:
 2225 00a2 00BF     		.align	2
 2226              	.L221:
 2227 00a4 00000000 		.word	CSWTCH.64
 2228 00a8 08008005 		.word	92274696
 2229 00ac 84000058 		.word	1476395140
 2230              		.cfi_endproc
 2231              	.LFE187:
 2232              		.size	HAL_EXTI_D1_EventInputConfig, .-HAL_EXTI_D1_EventInputConfig
 2233              		.section	.text.HAL_EXTI_D3_EventInputConfig,"ax",%progbits
 2234              		.align	1
 2235              		.p2align 2,,3
 2236              		.global	HAL_EXTI_D3_EventInputConfig
 2237              		.syntax unified
 2238              		.thumb
 2239              		.thumb_func
 2240              		.type	HAL_EXTI_D3_EventInputConfig, %function
 2241              	HAL_EXTI_D3_EventInputConfig:
 2242              	.LVL111:
 2243              	.LFB188:
 2244              		.loc 1 1265 1 is_stmt 1 view -0
 2245              		.cfi_startproc
 2246              		@ args = 0, pretend = 0, frame = 0
 2247              		@ frame_needed = 0, uses_anonymous_args = 0
 2248              		.loc 1 1266 3 view .LVU439
 2249              		.loc 1 1269 3 view .LVU440
 2250 0000 5828     		cmp	r0, #88
 2251              		.loc 1 1265 1 is_stmt 0 view .LVU441
 2252 0002 70B5     		push	{r4, r5, r6, lr}
 2253              		.cfi_def_cfa_offset 16
 2254              		.cfi_offset 4, -16
 2255              		.cfi_offset 5, -12
 2256              		.cfi_offset 6, -8
 2257              		.cfi_offset 14, -4
 2258              		.loc 1 1265 1 view .LVU442
 2259 0004 0446     		mov	r4, r0
 2260 0006 0E46     		mov	r6, r1
 2261 0008 1546     		mov	r5, r2
 2262 000a 29D8     		bhi	.L229
 2263 000c 1A4B     		ldr	r3, .L231
 2264 000e 1856     		ldrsb	r0, [r3, r0]
 2265              	.LVL112:
 2266              	.L224:
 2267              		.loc 1 1269 3 discriminator 18 view .LVU443
 2268 0010 FFF7FEFF 		bl	assert_param
 2269              	.LVL113:
 2270              		.loc 1 1270 3 is_stmt 1 discriminator 18 view .LVU444
 2271 0014 032D     		cmp	r5, #3
 2272 0016 8CBF     		ite	hi
 2273 0018 0020     		movhi	r0, #0
 2274 001a 0120     		movls	r0, #1
 2275 001c FFF7FEFF 		bl	assert_param
 2276              	.LVL114:
 2277              		.loc 1 1272 3 discriminator 18 view .LVU445
 2278              		.loc 1 1275 5 is_stmt 0 discriminator 18 view .LVU446
 2279 0020 24F01F03 		bic	r3, r4, #31
 2280              		.loc 1 1272 5 discriminator 18 view .LVU447
ARM GAS  C:\Users\DEVELO~1\AppData\Local\Temp\ccxGW0hd.s 			page 41


 2281 0024 F6B9     		cbnz	r6, .L225
 2282              		.loc 1 1275 5 is_stmt 1 view .LVU448
 2283 0026 1548     		ldr	r0, .L231+4
 2284 0028 04F01F06 		and	r6, r4, #31
 2285              	.LVL115:
 2286              		.loc 1 1275 5 is_stmt 0 view .LVU449
 2287 002c 0121     		movs	r1, #1
 2288 002e 1A58     		ldr	r2, [r3, r0]
 2289 0030 B140     		lsls	r1, r1, r6
 2290 0032 22EA0102 		bic	r2, r2, r1
 2291 0036 1A50     		str	r2, [r3, r0]
 2292              	.L226:
 2293              		.loc 1 1282 3 is_stmt 1 view .LVU450
 2294              		.loc 1 1284 5 view .LVU451
 2295              		.loc 1 1288 5 view .LVU452
 2296              		.loc 1 1282 5 is_stmt 0 view .LVU453
 2297 0038 E206     		lsls	r2, r4, #27
 2298              		.loc 1 1290 3 view .LVU454
 2299 003a 4FEA4404 		lsl	r4, r4, #1
 2300              	.LVL116:
 2301              		.loc 1 1290 3 view .LVU455
 2302 003e 4FF00301 		mov	r1, #3
 2303              		.loc 1 1284 62 view .LVU456
 2304 0042 58BF     		it	pl
 2305 0044 0E4A     		ldrpl	r2, .L231+8
 2306              		.loc 1 1290 3 view .LVU457
 2307 0046 04F01E04 		and	r4, r4, #30
 2308              		.loc 1 1288 62 view .LVU458
 2309 004a 48BF     		it	mi
 2310 004c 0D4A     		ldrmi	r2, .L231+12
 2311              		.loc 1 1290 3 view .LVU459
 2312 004e A140     		lsls	r1, r1, r4
 2313 0050 A540     		lsls	r5, r5, r4
 2314              	.LVL117:
 2315              		.loc 1 1288 62 view .LVU460
 2316 0052 1A44     		add	r2, r2, r3
 2317              	.LVL118:
 2318              		.loc 1 1290 3 is_stmt 1 view .LVU461
 2319 0054 1368     		ldr	r3, [r2]
 2320 0056 23EA0103 		bic	r3, r3, r1
 2321 005a 1D43     		orrs	r5, r5, r3
 2322 005c 1560     		str	r5, [r2]
 2323              		.loc 1 1292 1 is_stmt 0 view .LVU462
 2324 005e 70BD     		pop	{r4, r5, r6, pc}
 2325              	.LVL119:
 2326              	.L229:
 2327              		.loc 1 1265 1 view .LVU463
 2328 0060 0020     		movs	r0, #0
 2329              	.LVL120:
 2330              		.loc 1 1265 1 view .LVU464
 2331 0062 D5E7     		b	.L224
 2332              	.LVL121:
 2333              	.L225:
 2334              		.loc 1 1279 5 is_stmt 1 view .LVU465
 2335 0064 0549     		ldr	r1, .L231+4
 2336 0066 04F01F06 		and	r6, r4, #31
 2337              	.LVL122:
ARM GAS  C:\Users\DEVELO~1\AppData\Local\Temp\ccxGW0hd.s 			page 42


 2338              		.loc 1 1279 5 is_stmt 0 view .LVU466
 2339 006a 0122     		movs	r2, #1
 2340 006c 5858     		ldr	r0, [r3, r1]
 2341 006e B240     		lsls	r2, r2, r6
 2342 0070 0243     		orrs	r2, r2, r0
 2343 0072 5A50     		str	r2, [r3, r1]
 2344 0074 E0E7     		b	.L226
 2345              	.L232:
 2346 0076 00BF     		.align	2
 2347              	.L231:
 2348 0078 00000000 		.word	.LANCHOR4
 2349 007c 0C000058 		.word	1476395020
 2350 0080 10000058 		.word	1476395024
 2351 0084 14000058 		.word	1476395028
 2352              		.cfi_endproc
 2353              	.LFE188:
 2354              		.size	HAL_EXTI_D3_EventInputConfig, .-HAL_EXTI_D3_EventInputConfig
 2355              		.set	CSWTCH.64,CSWTCH.62
 2356              		.global	uwTickFreq
 2357              		.global	uwTickPrio
 2358              		.global	uwTick
 2359              		.section	.bss.uwTick,"aw",%nobits
 2360              		.align	2
 2361              		.set	.LANCHOR2,. + 0
 2362              		.type	uwTick, %object
 2363              		.size	uwTick, 4
 2364              	uwTick:
 2365 0000 00000000 		.space	4
 2366              		.section	.data.uwTickFreq,"aw"
 2367              		.set	.LANCHOR0,. + 0
 2368              		.type	uwTickFreq, %object
 2369              		.size	uwTickFreq, 1
 2370              	uwTickFreq:
 2371 0000 01       		.byte	1
 2372              		.section	.data.uwTickPrio,"aw"
 2373              		.align	2
 2374              		.set	.LANCHOR1,. + 0
 2375              		.type	uwTickPrio, %object
 2376              		.size	uwTickPrio, 4
 2377              	uwTickPrio:
 2378 0000 10000000 		.word	16
 2379              		.section	.rodata.CSWTCH.62,"a"
 2380              		.align	2
 2381              		.set	.LANCHOR3,. + 0
 2382              		.type	CSWTCH.62, %object
 2383              		.size	CSWTCH.62, 92
 2384              	CSWTCH.62:
 2385 0000 01       		.byte	1
 2386 0001 01       		.byte	1
 2387 0002 01       		.byte	1
 2388 0003 01       		.byte	1
 2389 0004 01       		.byte	1
 2390 0005 01       		.byte	1
 2391 0006 01       		.byte	1
 2392 0007 01       		.byte	1
 2393 0008 01       		.byte	1
 2394 0009 01       		.byte	1
ARM GAS  C:\Users\DEVELO~1\AppData\Local\Temp\ccxGW0hd.s 			page 43


 2395 000a 01       		.byte	1
 2396 000b 01       		.byte	1
 2397 000c 01       		.byte	1
 2398 000d 01       		.byte	1
 2399 000e 01       		.byte	1
 2400 000f 01       		.byte	1
 2401 0010 01       		.byte	1
 2402 0011 01       		.byte	1
 2403 0012 01       		.byte	1
 2404 0013 01       		.byte	1
 2405 0014 01       		.byte	1
 2406 0015 01       		.byte	1
 2407 0016 01       		.byte	1
 2408 0017 01       		.byte	1
 2409 0018 01       		.byte	1
 2410 0019 01       		.byte	1
 2411 001a 01       		.byte	1
 2412 001b 01       		.byte	1
 2413 001c 01       		.byte	1
 2414 001d 01       		.byte	1
 2415 001e 01       		.byte	1
 2416 001f 01       		.byte	1
 2417 0020 01       		.byte	1
 2418 0021 01       		.byte	1
 2419 0022 01       		.byte	1
 2420 0023 01       		.byte	1
 2421 0024 01       		.byte	1
 2422 0025 01       		.byte	1
 2423 0026 01       		.byte	1
 2424 0027 01       		.byte	1
 2425 0028 01       		.byte	1
 2426 0029 01       		.byte	1
 2427 002a 01       		.byte	1
 2428 002b 01       		.byte	1
 2429 002c 01       		.byte	1
 2430 002d 00       		.byte	0
 2431 002e 00       		.byte	0
 2432 002f 01       		.byte	1
 2433 0030 01       		.byte	1
 2434 0031 01       		.byte	1
 2435 0032 01       		.byte	1
 2436 0033 01       		.byte	1
 2437 0034 01       		.byte	1
 2438 0035 01       		.byte	1
 2439 0036 01       		.byte	1
 2440 0037 01       		.byte	1
 2441 0038 01       		.byte	1
 2442 0039 01       		.byte	1
 2443 003a 01       		.byte	1
 2444 003b 01       		.byte	1
 2445 003c 01       		.byte	1
 2446 003d 01       		.byte	1
 2447 003e 01       		.byte	1
 2448 003f 01       		.byte	1
 2449 0040 01       		.byte	1
 2450 0041 01       		.byte	1
 2451 0042 01       		.byte	1
ARM GAS  C:\Users\DEVELO~1\AppData\Local\Temp\ccxGW0hd.s 			page 44


 2452 0043 01       		.byte	1
 2453 0044 01       		.byte	1
 2454 0045 01       		.byte	1
 2455 0046 01       		.byte	1
 2456 0047 01       		.byte	1
 2457 0048 01       		.byte	1
 2458 0049 01       		.byte	1
 2459 004a 01       		.byte	1
 2460 004b 01       		.byte	1
 2461 004c 01       		.byte	1
 2462 004d 00       		.byte	0
 2463 004e 00       		.byte	0
 2464 004f 00       		.byte	0
 2465 0050 00       		.byte	0
 2466 0051 00       		.byte	0
 2467 0052 00       		.byte	0
 2468 0053 00       		.byte	0
 2469 0054 00       		.byte	0
 2470 0055 01       		.byte	1
 2471 0056 01       		.byte	1
 2472 0057 01       		.byte	1
 2473 0058 01       		.byte	1
 2474 0059 01       		.byte	1
 2475 005a 01       		.byte	1
 2476 005b 01       		.byte	1
 2477              		.section	.rodata.CSWTCH.66,"a"
 2478              		.align	2
 2479              		.set	.LANCHOR4,. + 0
 2480              		.type	CSWTCH.66, %object
 2481              		.size	CSWTCH.66, 89
 2482              	CSWTCH.66:
 2483 0000 01       		.byte	1
 2484 0001 01       		.byte	1
 2485 0002 01       		.byte	1
 2486 0003 01       		.byte	1
 2487 0004 01       		.byte	1
 2488 0005 01       		.byte	1
 2489 0006 01       		.byte	1
 2490 0007 01       		.byte	1
 2491 0008 01       		.byte	1
 2492 0009 01       		.byte	1
 2493 000a 01       		.byte	1
 2494 000b 01       		.byte	1
 2495 000c 01       		.byte	1
 2496 000d 01       		.byte	1
 2497 000e 01       		.byte	1
 2498 000f 01       		.byte	1
 2499 0010 00       		.byte	0
 2500 0011 00       		.byte	0
 2501 0012 00       		.byte	0
 2502 0013 01       		.byte	1
 2503 0014 01       		.byte	1
 2504 0015 01       		.byte	1
 2505 0016 00       		.byte	0
 2506 0017 00       		.byte	0
 2507 0018 00       		.byte	0
 2508 0019 01       		.byte	1
ARM GAS  C:\Users\DEVELO~1\AppData\Local\Temp\ccxGW0hd.s 			page 45


 2509 001a 00       		.byte	0
 2510 001b 00       		.byte	0
 2511 001c 00       		.byte	0
 2512 001d 00       		.byte	0
 2513 001e 00       		.byte	0
 2514 001f 00       		.byte	0
 2515 0020 00       		.byte	0
 2516 0021 00       		.byte	0
 2517 0022 01       		.byte	1
 2518 0023 01       		.byte	1
 2519 0024 00       		.byte	0
 2520 0025 00       		.byte	0
 2521 0026 00       		.byte	0
 2522 0027 00       		.byte	0
 2523 0028 00       		.byte	0
 2524 0029 01       		.byte	1
 2525 002a 00       		.byte	0
 2526 002b 00       		.byte	0
 2527 002c 00       		.byte	0
 2528 002d 00       		.byte	0
 2529 002e 00       		.byte	0
 2530 002f 00       		.byte	0
 2531 0030 01       		.byte	1
 2532 0031 01       		.byte	1
 2533 0032 01       		.byte	1
 2534 0033 01       		.byte	1
 2535 0034 01       		.byte	1
 2536 0035 01       		.byte	1
 2537 0036 00       		.byte	0
 2538 0037 00       		.byte	0
 2539 0038 00       		.byte	0
 2540 0039 00       		.byte	0
 2541 003a 00       		.byte	0
 2542 003b 00       		.byte	0
 2543 003c 00       		.byte	0
 2544 003d 00       		.byte	0
 2545 003e 00       		.byte	0
 2546 003f 00       		.byte	0
 2547 0040 00       		.byte	0
 2548 0041 00       		.byte	0
 2549 0042 00       		.byte	0
 2550 0043 00       		.byte	0
 2551 0044 00       		.byte	0
 2552 0045 00       		.byte	0
 2553 0046 00       		.byte	0
 2554 0047 00       		.byte	0
 2555 0048 00       		.byte	0
 2556 0049 00       		.byte	0
 2557 004a 00       		.byte	0
 2558 004b 00       		.byte	0
 2559 004c 00       		.byte	0
 2560 004d 00       		.byte	0
 2561 004e 00       		.byte	0
 2562 004f 00       		.byte	0
 2563 0050 00       		.byte	0
 2564 0051 00       		.byte	0
 2565 0052 00       		.byte	0
ARM GAS  C:\Users\DEVELO~1\AppData\Local\Temp\ccxGW0hd.s 			page 46


 2566 0053 00       		.byte	0
 2567 0054 00       		.byte	0
 2568 0055 00       		.byte	0
 2569 0056 00       		.byte	0
 2570 0057 00       		.byte	0
 2571 0058 01       		.byte	1
 2572              		.text
 2573              	.Letext0:
 2574              		.file 2 "../../../os/common/ext/ST/STM32H7xx/stm32h743xx.h"
 2575              		.file 3 "c:\\chibistudio\\tools\\gnu tools arm embedded\\11.3 2022.08\\arm-none-eabi\\include\\mac
 2576              		.file 4 "c:\\chibistudio\\tools\\gnu tools arm embedded\\11.3 2022.08\\arm-none-eabi\\include\\sys
 2577              		.file 5 "../../../os/common/ext/ARM/CMSIS/Core/Include/core_cm7.h"
 2578              		.file 6 "../../../os/common/ext/ST/STM32H7xx/system_stm32h7xx.h"
 2579              		.file 7 "./drivers/stm32h7xx-hal-driver/Inc/stm32h7xx_hal_def.h"
 2580              		.file 8 "./drivers/stm32h7xx-hal-driver/Inc/stm32h7xx_hal.h"
 2581              		.file 9 "./drivers/stm32h7xx-hal-driver/Inc/stm32h7xx_hal_cortex.h"
 2582              		.file 10 "./drivers/stm32h7xx-hal-driver/Inc/stm32h7xx_hal_rcc.h"