ARM GAS  C:\Users\DEVELO~1\AppData\Local\Temp\ccZmF6ca.s 			page 1


   1              		.cpu cortex-m7
   2              		.arch armv7e-m
   3              		.fpu fpv5-d16
   4              		.eabi_attribute 28, 1
   5              		.eabi_attribute 20, 1
   6              		.eabi_attribute 21, 1
   7              		.eabi_attribute 23, 3
   8              		.eabi_attribute 24, 1
   9              		.eabi_attribute 25, 1
  10              		.eabi_attribute 26, 1
  11              		.eabi_attribute 30, 2
  12              		.eabi_attribute 34, 1
  13              		.eabi_attribute 18, 4
  14              		.file	"stm32h7xx_hal_pwr.c"
  15              		.text
  16              	.Ltext0:
  17              		.cfi_sections	.debug_frame
  18              		.section	.text.HAL_PWR_DeInit,"ax",%progbits
  19              		.align	1
  20              		.p2align 2,,3
  21              		.global	HAL_PWR_DeInit
  22              		.syntax unified
  23              		.thumb
  24              		.thumb_func
  25              		.type	HAL_PWR_DeInit, %function
  26              	HAL_PWR_DeInit:
  27              	.LFB141:
  28              		.file 1 "./drivers/stm32h7xx-hal-driver/Src/stm32h7xx_hal_pwr.c"
  29              		.loc 1 226 1 view -0
  30              		.cfi_startproc
  31              		@ args = 0, pretend = 0, frame = 0
  32              		@ frame_needed = 0, uses_anonymous_args = 0
  33              		@ link register save eliminated.
  34              		.loc 1 227 1 view .LVU1
  35 0000 7047     		bx	lr
  36              		.cfi_endproc
  37              	.LFE141:
  38              		.size	HAL_PWR_DeInit, .-HAL_PWR_DeInit
  39 0002 00BF     		.section	.text.HAL_PWR_EnableBkUpAccess,"ax",%progbits
  40              		.align	1
  41              		.p2align 2,,3
  42              		.global	HAL_PWR_EnableBkUpAccess
  43              		.syntax unified
  44              		.thumb
  45              		.thumb_func
  46              		.type	HAL_PWR_EnableBkUpAccess, %function
  47              	HAL_PWR_EnableBkUpAccess:
  48              	.LFB142:
  49              		.loc 1 237 1 view -0
  50              		.cfi_startproc
  51              		@ args = 0, pretend = 0, frame = 0
  52              		@ frame_needed = 0, uses_anonymous_args = 0
  53              		@ link register save eliminated.
  54              		.loc 1 239 3 view .LVU3
  55 0000 024A     		ldr	r2, .L4
  56 0002 1368     		ldr	r3, [r2]
  57 0004 43F48073 		orr	r3, r3, #256
ARM GAS  C:\Users\DEVELO~1\AppData\Local\Temp\ccZmF6ca.s 			page 2


  58 0008 1360     		str	r3, [r2]
  59              		.loc 1 240 1 is_stmt 0 view .LVU4
  60 000a 7047     		bx	lr
  61              	.L5:
  62              		.align	2
  63              	.L4:
  64 000c 00480258 		.word	1476544512
  65              		.cfi_endproc
  66              	.LFE142:
  67              		.size	HAL_PWR_EnableBkUpAccess, .-HAL_PWR_EnableBkUpAccess
  68              		.section	.text.HAL_PWR_DisableBkUpAccess,"ax",%progbits
  69              		.align	1
  70              		.p2align 2,,3
  71              		.global	HAL_PWR_DisableBkUpAccess
  72              		.syntax unified
  73              		.thumb
  74              		.thumb_func
  75              		.type	HAL_PWR_DisableBkUpAccess, %function
  76              	HAL_PWR_DisableBkUpAccess:
  77              	.LFB143:
  78              		.loc 1 250 1 is_stmt 1 view -0
  79              		.cfi_startproc
  80              		@ args = 0, pretend = 0, frame = 0
  81              		@ frame_needed = 0, uses_anonymous_args = 0
  82              		@ link register save eliminated.
  83              		.loc 1 252 3 view .LVU6
  84 0000 024A     		ldr	r2, .L7
  85 0002 1368     		ldr	r3, [r2]
  86 0004 23F48073 		bic	r3, r3, #256
  87 0008 1360     		str	r3, [r2]
  88              		.loc 1 253 1 is_stmt 0 view .LVU7
  89 000a 7047     		bx	lr
  90              	.L8:
  91              		.align	2
  92              	.L7:
  93 000c 00480258 		.word	1476544512
  94              		.cfi_endproc
  95              	.LFE143:
  96              		.size	HAL_PWR_DisableBkUpAccess, .-HAL_PWR_DisableBkUpAccess
  97              		.section	.text.HAL_PWR_ConfigPVD,"ax",%progbits
  98              		.align	1
  99              		.p2align 2,,3
 100              		.global	HAL_PWR_ConfigPVD
 101              		.syntax unified
 102              		.thumb
 103              		.thumb_func
 104              		.type	HAL_PWR_ConfigPVD, %function
 105              	HAL_PWR_ConfigPVD:
 106              	.LVL0:
 107              	.LFB144:
 108              		.loc 1 416 1 is_stmt 1 view -0
 109              		.cfi_startproc
 110              		@ args = 0, pretend = 0, frame = 0
 111              		@ frame_needed = 0, uses_anonymous_args = 0
 112              		@ link register save eliminated.
 113              		.loc 1 418 3 view .LVU9
 114              		.loc 1 418 6 is_stmt 0 view .LVU10
ARM GAS  C:\Users\DEVELO~1\AppData\Local\Temp\ccZmF6ca.s 			page 3


 115 0000 0028     		cmp	r0, #0
 116 0002 43D0     		beq	.L29
 117              		.loc 1 424 3 is_stmt 1 view .LVU11
 118              		.loc 1 425 3 view .LVU12
 119              		.loc 1 428 3 view .LVU13
 120 0004 2249     		ldr	r1, .L32
 121              		.loc 1 432 3 is_stmt 0 view .LVU14
 122 0006 4FF0B043 		mov	r3, #1476395008
 123              		.loc 1 428 3 view .LVU15
 124 000a 0A68     		ldr	r2, [r1]
 125              		.loc 1 416 1 view .LVU16
 126 000c 10B4     		push	{r4}
 127              		.cfi_def_cfa_offset 4
 128              		.cfi_offset 4, -4
 129              		.loc 1 428 3 view .LVU17
 130 000e 22F0E002 		bic	r2, r2, #224
 131 0012 0468     		ldr	r4, [r0]
 132 0014 2243     		orrs	r2, r2, r4
 133 0016 0A60     		str	r2, [r1]
 134              		.loc 1 432 3 is_stmt 1 view .LVU18
 135 0018 D3F88420 		ldr	r2, [r3, #132]
 136 001c 22F48032 		bic	r2, r2, #65536
 137 0020 C3F88420 		str	r2, [r3, #132]
 138              		.loc 1 433 3 view .LVU19
 139 0024 D3F88020 		ldr	r2, [r3, #128]
 140 0028 22F48032 		bic	r2, r2, #65536
 141 002c C3F88020 		str	r2, [r3, #128]
 142              		.loc 1 436 3 view .LVU20
 143 0030 1A68     		ldr	r2, [r3]
 144 0032 22F48032 		bic	r2, r2, #65536
 145 0036 1A60     		str	r2, [r3]
 146              		.loc 1 437 3 view .LVU21
 147 0038 5A68     		ldr	r2, [r3, #4]
 148 003a 22F48032 		bic	r2, r2, #65536
 149 003e 5A60     		str	r2, [r3, #4]
 150              		.loc 1 441 3 view .LVU22
 151              		.loc 1 441 18 is_stmt 0 view .LVU23
 152 0040 4268     		ldr	r2, [r0, #4]
 153              		.loc 1 441 6 view .LVU24
 154 0042 D403     		lsls	r4, r2, #15
 155 0044 05D5     		bpl	.L12
 156              		.loc 1 443 5 is_stmt 1 view .LVU25
 157 0046 D3F88010 		ldr	r1, [r3, #128]
 158 004a 41F48031 		orr	r1, r1, #65536
 159 004e C3F88010 		str	r1, [r3, #128]
 160              	.L12:
 161              		.loc 1 447 3 view .LVU26
 162              		.loc 1 447 6 is_stmt 0 view .LVU27
 163 0052 9003     		lsls	r0, r2, #14
 164              	.LVL1:
 165              		.loc 1 447 6 view .LVU28
 166 0054 07D5     		bpl	.L13
 167              		.loc 1 449 5 is_stmt 1 view .LVU29
 168 0056 4FF0B041 		mov	r1, #1476395008
 169 005a D1F88430 		ldr	r3, [r1, #132]
 170 005e 43F48033 		orr	r3, r3, #65536
 171 0062 C1F88430 		str	r3, [r1, #132]
ARM GAS  C:\Users\DEVELO~1\AppData\Local\Temp\ccZmF6ca.s 			page 4


 172              	.L13:
 173              		.loc 1 454 3 view .LVU30
 174              		.loc 1 454 6 is_stmt 0 view .LVU31
 175 0066 D107     		lsls	r1, r2, #31
 176 0068 05D5     		bpl	.L14
 177              		.loc 1 456 5 is_stmt 1 view .LVU32
 178 006a 4FF0B041 		mov	r1, #1476395008
 179 006e 0B68     		ldr	r3, [r1]
 180 0070 43F48033 		orr	r3, r3, #65536
 181 0074 0B60     		str	r3, [r1]
 182              	.L14:
 183              		.loc 1 460 3 view .LVU33
 184              		.loc 1 460 6 is_stmt 0 view .LVU34
 185 0076 9307     		lsls	r3, r2, #30
 186 0078 05D5     		bpl	.L9
 187              		.loc 1 462 5 is_stmt 1 view .LVU35
 188 007a 4FF0B042 		mov	r2, #1476395008
 189 007e 5368     		ldr	r3, [r2, #4]
 190 0080 43F48033 		orr	r3, r3, #65536
 191 0084 5360     		str	r3, [r2, #4]
 192              	.L9:
 193              		.loc 1 464 1 is_stmt 0 view .LVU36
 194 0086 5DF8044B 		ldr	r4, [sp], #4
 195              		.cfi_restore 4
 196              		.cfi_def_cfa_offset 0
 197 008a 7047     		bx	lr
 198              	.LVL2:
 199              	.L29:
 200              		.loc 1 464 1 view .LVU37
 201 008c 7047     		bx	lr
 202              	.L33:
 203 008e 00BF     		.align	2
 204              	.L32:
 205 0090 00480258 		.word	1476544512
 206              		.cfi_endproc
 207              	.LFE144:
 208              		.size	HAL_PWR_ConfigPVD, .-HAL_PWR_ConfigPVD
 209              		.section	.text.HAL_PWR_EnablePVD,"ax",%progbits
 210              		.align	1
 211              		.p2align 2,,3
 212              		.global	HAL_PWR_EnablePVD
 213              		.syntax unified
 214              		.thumb
 215              		.thumb_func
 216              		.type	HAL_PWR_EnablePVD, %function
 217              	HAL_PWR_EnablePVD:
 218              	.LFB145:
 219              		.loc 1 471 1 is_stmt 1 view -0
 220              		.cfi_startproc
 221              		@ args = 0, pretend = 0, frame = 0
 222              		@ frame_needed = 0, uses_anonymous_args = 0
 223              		@ link register save eliminated.
 224              		.loc 1 473 3 view .LVU39
 225 0000 024A     		ldr	r2, .L35
 226 0002 1368     		ldr	r3, [r2]
 227 0004 43F01003 		orr	r3, r3, #16
 228 0008 1360     		str	r3, [r2]
ARM GAS  C:\Users\DEVELO~1\AppData\Local\Temp\ccZmF6ca.s 			page 5


 229              		.loc 1 474 1 is_stmt 0 view .LVU40
 230 000a 7047     		bx	lr
 231              	.L36:
 232              		.align	2
 233              	.L35:
 234 000c 00480258 		.word	1476544512
 235              		.cfi_endproc
 236              	.LFE145:
 237              		.size	HAL_PWR_EnablePVD, .-HAL_PWR_EnablePVD
 238              		.section	.text.HAL_PWR_DisablePVD,"ax",%progbits
 239              		.align	1
 240              		.p2align 2,,3
 241              		.global	HAL_PWR_DisablePVD
 242              		.syntax unified
 243              		.thumb
 244              		.thumb_func
 245              		.type	HAL_PWR_DisablePVD, %function
 246              	HAL_PWR_DisablePVD:
 247              	.LFB146:
 248              		.loc 1 481 1 is_stmt 1 view -0
 249              		.cfi_startproc
 250              		@ args = 0, pretend = 0, frame = 0
 251              		@ frame_needed = 0, uses_anonymous_args = 0
 252              		@ link register save eliminated.
 253              		.loc 1 483 3 view .LVU42
 254 0000 024A     		ldr	r2, .L38
 255 0002 1368     		ldr	r3, [r2]
 256 0004 23F01003 		bic	r3, r3, #16
 257 0008 1360     		str	r3, [r2]
 258              		.loc 1 484 1 is_stmt 0 view .LVU43
 259 000a 7047     		bx	lr
 260              	.L39:
 261              		.align	2
 262              	.L38:
 263 000c 00480258 		.word	1476544512
 264              		.cfi_endproc
 265              	.LFE146:
 266              		.size	HAL_PWR_DisablePVD, .-HAL_PWR_DisablePVD
 267              		.section	.text.HAL_PWR_EnableWakeUpPin,"ax",%progbits
 268              		.align	1
 269              		.p2align 2,,3
 270              		.global	HAL_PWR_EnableWakeUpPin
 271              		.syntax unified
 272              		.thumb
 273              		.thumb_func
 274              		.type	HAL_PWR_EnableWakeUpPin, %function
 275              	HAL_PWR_EnableWakeUpPin:
 276              	.LVL3:
 277              	.LFB147:
 278              		.loc 1 508 1 is_stmt 1 view -0
 279              		.cfi_startproc
 280              		@ args = 0, pretend = 0, frame = 0
 281              		@ frame_needed = 0, uses_anonymous_args = 0
 282              		@ link register save eliminated.
 283              		.loc 1 510 3 view .LVU45
 284              		.loc 1 516 3 view .LVU46
 285 0000 034A     		ldr	r2, .L41
ARM GAS  C:\Users\DEVELO~1\AppData\Local\Temp\ccZmF6ca.s 			page 6


 286 0002 044B     		ldr	r3, .L41+4
 287 0004 916A     		ldr	r1, [r2, #40]
 288 0006 0B40     		ands	r3, r3, r1
 289 0008 1843     		orrs	r0, r0, r3
 290              	.LVL4:
 291              		.loc 1 516 3 is_stmt 0 view .LVU47
 292 000a 9062     		str	r0, [r2, #40]
 293              		.loc 1 517 1 view .LVU48
 294 000c 7047     		bx	lr
 295              	.L42:
 296 000e 00BF     		.align	2
 297              	.L41:
 298 0010 00480258 		.word	1476544512
 299 0014 C0C000F0 		.word	-268386112
 300              		.cfi_endproc
 301              	.LFE147:
 302              		.size	HAL_PWR_EnableWakeUpPin, .-HAL_PWR_EnableWakeUpPin
 303              		.section	.text.HAL_PWR_DisableWakeUpPin,"ax",%progbits
 304              		.align	1
 305              		.p2align 2,,3
 306              		.global	HAL_PWR_DisableWakeUpPin
 307              		.syntax unified
 308              		.thumb
 309              		.thumb_func
 310              		.type	HAL_PWR_DisableWakeUpPin, %function
 311              	HAL_PWR_DisableWakeUpPin:
 312              	.LVL5:
 313              	.LFB148:
 314              		.loc 1 537 1 is_stmt 1 view -0
 315              		.cfi_startproc
 316              		@ args = 0, pretend = 0, frame = 0
 317              		@ frame_needed = 0, uses_anonymous_args = 0
 318              		@ link register save eliminated.
 319              		.loc 1 539 3 view .LVU50
 320              		.loc 1 542 3 view .LVU51
 321 0000 034A     		ldr	r2, .L44
 322 0002 00F03F00 		and	r0, r0, #63
 323              	.LVL6:
 324              		.loc 1 542 3 is_stmt 0 view .LVU52
 325 0006 936A     		ldr	r3, [r2, #40]
 326 0008 23EA0003 		bic	r3, r3, r0
 327 000c 9362     		str	r3, [r2, #40]
 328              		.loc 1 543 1 view .LVU53
 329 000e 7047     		bx	lr
 330              	.L45:
 331              		.align	2
 332              	.L44:
 333 0010 00480258 		.word	1476544512
 334              		.cfi_endproc
 335              	.LFE148:
 336              		.size	HAL_PWR_DisableWakeUpPin, .-HAL_PWR_DisableWakeUpPin
 337              		.section	.text.HAL_PWR_EnterSLEEPMode,"ax",%progbits
 338              		.align	1
 339              		.p2align 2,,3
 340              		.global	HAL_PWR_EnterSLEEPMode
 341              		.syntax unified
 342              		.thumb
ARM GAS  C:\Users\DEVELO~1\AppData\Local\Temp\ccZmF6ca.s 			page 7


 343              		.thumb_func
 344              		.type	HAL_PWR_EnterSLEEPMode, %function
 345              	HAL_PWR_EnterSLEEPMode:
 346              	.LVL7:
 347              	.LFB149:
 348              		.loc 1 565 1 is_stmt 1 view -0
 349              		.cfi_startproc
 350              		@ args = 0, pretend = 0, frame = 0
 351              		@ frame_needed = 0, uses_anonymous_args = 0
 352              		@ link register save eliminated.
 353              		.loc 1 567 3 view .LVU55
 354              		.loc 1 568 3 view .LVU56
 355              		.loc 1 571 3 view .LVU57
 356              		.loc 1 574 3 view .LVU58
 357 0000 054A     		ldr	r2, .L50
 358              		.loc 1 577 6 is_stmt 0 view .LVU59
 359 0002 0129     		cmp	r1, #1
 360              		.loc 1 574 3 view .LVU60
 361 0004 1369     		ldr	r3, [r2, #16]
 362 0006 23F00403 		bic	r3, r3, #4
 363 000a 1361     		str	r3, [r2, #16]
 364              		.loc 1 577 3 is_stmt 1 view .LVU61
 365              		.loc 1 577 6 is_stmt 0 view .LVU62
 366 000c 01D0     		beq	.L49
 367              		.loc 1 585 5 is_stmt 1 view .LVU63
 368              		.syntax unified
 369              	@ 585 "./drivers/stm32h7xx-hal-driver/Src/stm32h7xx_hal_pwr.c" 1
 370 000e 20BF     		wfe
 371              	@ 0 "" 2
 372              		.loc 1 587 1 is_stmt 0 view .LVU64
 373              		.thumb
 374              		.syntax unified
 375 0010 7047     		bx	lr
 376              	.L49:
 377              		.loc 1 580 5 is_stmt 1 view .LVU65
 378              		.syntax unified
 379              	@ 580 "./drivers/stm32h7xx-hal-driver/Src/stm32h7xx_hal_pwr.c" 1
 380 0012 30BF     		wfi
 381              	@ 0 "" 2
 382              		.thumb
 383              		.syntax unified
 384 0014 7047     		bx	lr
 385              	.L51:
 386 0016 00BF     		.align	2
 387              	.L50:
 388 0018 00ED00E0 		.word	-536810240
 389              		.cfi_endproc
 390              	.LFE149:
 391              		.size	HAL_PWR_EnterSLEEPMode, .-HAL_PWR_EnterSLEEPMode
 392              		.section	.text.HAL_PWR_EnterSTOPMode,"ax",%progbits
 393              		.align	1
 394              		.p2align 2,,3
 395              		.global	HAL_PWR_EnterSTOPMode
 396              		.syntax unified
 397              		.thumb
 398              		.thumb_func
 399              		.type	HAL_PWR_EnterSTOPMode, %function
ARM GAS  C:\Users\DEVELO~1\AppData\Local\Temp\ccZmF6ca.s 			page 8


 400              	HAL_PWR_EnterSTOPMode:
 401              	.LVL8:
 402              	.LFB150:
 403              		.loc 1 619 1 view -0
 404              		.cfi_startproc
 405              		@ args = 0, pretend = 0, frame = 0
 406              		@ frame_needed = 0, uses_anonymous_args = 0
 407              		@ link register save eliminated.
 408              		.loc 1 621 3 view .LVU67
 409              		.loc 1 622 3 view .LVU68
 410              		.loc 1 625 3 view .LVU69
 411 0000 124B     		ldr	r3, .L57
 412 0002 1A68     		ldr	r2, [r3]
 413 0004 22F00102 		bic	r2, r2, #1
 414 0008 0243     		orrs	r2, r2, r0
 415              		.loc 1 619 1 is_stmt 0 view .LVU70
 416 000a 10B4     		push	{r4}
 417              		.cfi_def_cfa_offset 4
 418              		.cfi_offset 4, -4
 419              		.loc 1 625 3 view .LVU71
 420 000c 1A60     		str	r2, [r3]
 421              		.loc 1 642 3 is_stmt 1 view .LVU72
 422 000e 1A69     		ldr	r2, [r3, #16]
 423              		.loc 1 651 3 is_stmt 0 view .LVU73
 424 0010 0F4C     		ldr	r4, .L57+4
 425              		.loc 1 642 3 view .LVU74
 426 0012 22F00502 		bic	r2, r2, #5
 427 0016 1A61     		str	r2, [r3, #16]
 428              		.loc 1 646 3 is_stmt 1 view .LVU75
 429 0018 1A69     		ldr	r2, [r3, #16]
 430 001a 22F00202 		bic	r2, r2, #2
 431 001e 1A61     		str	r2, [r3, #16]
 432              		.loc 1 651 3 view .LVU76
 433 0020 2369     		ldr	r3, [r4, #16]
 434 0022 43F00403 		orr	r3, r3, #4
 435 0026 2361     		str	r3, [r4, #16]
 436              		.loc 1 654 3 view .LVU77
 437              	.LBB10:
 438              	.LBI10:
 439              		.file 2 "./docs/ChibiOS/os/common/ext/ARM/CMSIS/Core/Include/cmsis_gcc.h"
 440              		.loc 2 877 27 view .LVU78
 441              	.LBB11:
 442              		.loc 2 879 3 view .LVU79
 443              		.syntax unified
 444              	@ 879 "./docs/ChibiOS/os/common/ext/ARM/CMSIS/Core/Include/cmsis_gcc.h" 1
 445 0028 BFF34F8F 		dsb 0xF
 446              	@ 0 "" 2
 447              		.thumb
 448              		.syntax unified
 449              	.LBE11:
 450              	.LBE10:
 451              		.loc 1 655 3 view .LVU80
 452              	.LBB12:
 453              	.LBI12:
 454              		.loc 2 866 27 view .LVU81
 455              	.LBB13:
 456              		.loc 2 868 3 view .LVU82
ARM GAS  C:\Users\DEVELO~1\AppData\Local\Temp\ccZmF6ca.s 			page 9


 457              		.syntax unified
 458              	@ 868 "./docs/ChibiOS/os/common/ext/ARM/CMSIS/Core/Include/cmsis_gcc.h" 1
 459 002c BFF36F8F 		isb 0xF
 460              	@ 0 "" 2
 461              		.thumb
 462              		.syntax unified
 463              	.LBE13:
 464              	.LBE12:
 465              		.loc 1 658 3 view .LVU83
 466              		.loc 1 658 6 is_stmt 0 view .LVU84
 467 0030 0129     		cmp	r1, #1
 468 0032 08D0     		beq	.L56
 469              		.loc 1 666 5 is_stmt 1 view .LVU85
 470              		.syntax unified
 471              	@ 666 "./drivers/stm32h7xx-hal-driver/Src/stm32h7xx_hal_pwr.c" 1
 472 0034 20BF     		wfe
 473              	@ 0 "" 2
 474              		.thumb
 475              		.syntax unified
 476              	.L54:
 477              		.loc 1 670 3 view .LVU86
 478 0036 064A     		ldr	r2, .L57+4
 479              		.loc 1 671 1 is_stmt 0 view .LVU87
 480 0038 5DF8044B 		ldr	r4, [sp], #4
 481              		.cfi_remember_state
 482              		.cfi_restore 4
 483              		.cfi_def_cfa_offset 0
 484              		.loc 1 670 3 view .LVU88
 485 003c 1369     		ldr	r3, [r2, #16]
 486 003e 23F00403 		bic	r3, r3, #4
 487 0042 1361     		str	r3, [r2, #16]
 488              		.loc 1 671 1 view .LVU89
 489 0044 7047     		bx	lr
 490              	.L56:
 491              		.cfi_restore_state
 492              		.loc 1 661 5 is_stmt 1 view .LVU90
 493              		.syntax unified
 494              	@ 661 "./drivers/stm32h7xx-hal-driver/Src/stm32h7xx_hal_pwr.c" 1
 495 0046 30BF     		wfi
 496              	@ 0 "" 2
 497              		.thumb
 498              		.syntax unified
 499 0048 F5E7     		b	.L54
 500              	.L58:
 501 004a 00BF     		.align	2
 502              	.L57:
 503 004c 00480258 		.word	1476544512
 504 0050 00ED00E0 		.word	-536810240
 505              		.cfi_endproc
 506              	.LFE150:
 507              		.size	HAL_PWR_EnterSTOPMode, .-HAL_PWR_EnterSTOPMode
 508              		.section	.text.HAL_PWR_EnterSTANDBYMode,"ax",%progbits
 509              		.align	1
 510              		.p2align 2,,3
 511              		.global	HAL_PWR_EnterSTANDBYMode
 512              		.syntax unified
 513              		.thumb
ARM GAS  C:\Users\DEVELO~1\AppData\Local\Temp\ccZmF6ca.s 			page 10


 514              		.thumb_func
 515              		.type	HAL_PWR_EnterSTANDBYMode, %function
 516              	HAL_PWR_EnterSTANDBYMode:
 517              	.LFB151:
 518              		.loc 1 690 1 view -0
 519              		.cfi_startproc
 520              		@ args = 0, pretend = 0, frame = 0
 521              		@ frame_needed = 0, uses_anonymous_args = 0
 522              		@ link register save eliminated.
 523              		.loc 1 708 3 view .LVU92
 524 0000 094B     		ldr	r3, .L60
 525              		.loc 1 717 3 is_stmt 0 view .LVU93
 526 0002 0A49     		ldr	r1, .L60+4
 527              		.loc 1 708 3 view .LVU94
 528 0004 1A69     		ldr	r2, [r3, #16]
 529 0006 42F00502 		orr	r2, r2, #5
 530 000a 1A61     		str	r2, [r3, #16]
 531              		.loc 1 712 3 is_stmt 1 view .LVU95
 532 000c 1A69     		ldr	r2, [r3, #16]
 533 000e 42F00202 		orr	r2, r2, #2
 534 0012 1A61     		str	r2, [r3, #16]
 535              		.loc 1 717 3 view .LVU96
 536 0014 0B69     		ldr	r3, [r1, #16]
 537 0016 43F00403 		orr	r3, r3, #4
 538 001a 0B61     		str	r3, [r1, #16]
 539              		.loc 1 720 3 view .LVU97
 540              	.LBB14:
 541              	.LBI14:
 542              		.loc 2 877 27 view .LVU98
 543              	.LBB15:
 544              		.loc 2 879 3 view .LVU99
 545              		.syntax unified
 546              	@ 879 "./docs/ChibiOS/os/common/ext/ARM/CMSIS/Core/Include/cmsis_gcc.h" 1
 547 001c BFF34F8F 		dsb 0xF
 548              	@ 0 "" 2
 549              		.thumb
 550              		.syntax unified
 551              	.LBE15:
 552              	.LBE14:
 553              		.loc 1 721 3 view .LVU100
 554              	.LBB16:
 555              	.LBI16:
 556              		.loc 2 866 27 view .LVU101
 557              	.LBB17:
 558              		.loc 2 868 3 view .LVU102
 559              		.syntax unified
 560              	@ 868 "./docs/ChibiOS/os/common/ext/ARM/CMSIS/Core/Include/cmsis_gcc.h" 1
 561 0020 BFF36F8F 		isb 0xF
 562              	@ 0 "" 2
 563              		.thumb
 564              		.syntax unified
 565              	.LBE17:
 566              	.LBE16:
 567              		.loc 1 729 3 view .LVU103
 568              		.syntax unified
 569              	@ 729 "./drivers/stm32h7xx-hal-driver/Src/stm32h7xx_hal_pwr.c" 1
 570 0024 30BF     		wfi
ARM GAS  C:\Users\DEVELO~1\AppData\Local\Temp\ccZmF6ca.s 			page 11


 571              	@ 0 "" 2
 572              		.loc 1 730 1 is_stmt 0 view .LVU104
 573              		.thumb
 574              		.syntax unified
 575 0026 7047     		bx	lr
 576              	.L61:
 577              		.align	2
 578              	.L60:
 579 0028 00480258 		.word	1476544512
 580 002c 00ED00E0 		.word	-536810240
 581              		.cfi_endproc
 582              	.LFE151:
 583              		.size	HAL_PWR_EnterSTANDBYMode, .-HAL_PWR_EnterSTANDBYMode
 584              		.section	.text.HAL_PWR_EnableSleepOnExit,"ax",%progbits
 585              		.align	1
 586              		.p2align 2,,3
 587              		.global	HAL_PWR_EnableSleepOnExit
 588              		.syntax unified
 589              		.thumb
 590              		.thumb_func
 591              		.type	HAL_PWR_EnableSleepOnExit, %function
 592              	HAL_PWR_EnableSleepOnExit:
 593              	.LFB152:
 594              		.loc 1 742 1 is_stmt 1 view -0
 595              		.cfi_startproc
 596              		@ args = 0, pretend = 0, frame = 0
 597              		@ frame_needed = 0, uses_anonymous_args = 0
 598              		@ link register save eliminated.
 599              		.loc 1 744 3 view .LVU106
 600 0000 024A     		ldr	r2, .L63
 601 0002 1369     		ldr	r3, [r2, #16]
 602 0004 43F00203 		orr	r3, r3, #2
 603 0008 1361     		str	r3, [r2, #16]
 604              		.loc 1 745 1 is_stmt 0 view .LVU107
 605 000a 7047     		bx	lr
 606              	.L64:
 607              		.align	2
 608              	.L63:
 609 000c 00ED00E0 		.word	-536810240
 610              		.cfi_endproc
 611              	.LFE152:
 612              		.size	HAL_PWR_EnableSleepOnExit, .-HAL_PWR_EnableSleepOnExit
 613              		.section	.text.HAL_PWR_DisableSleepOnExit,"ax",%progbits
 614              		.align	1
 615              		.p2align 2,,3
 616              		.global	HAL_PWR_DisableSleepOnExit
 617              		.syntax unified
 618              		.thumb
 619              		.thumb_func
 620              		.type	HAL_PWR_DisableSleepOnExit, %function
 621              	HAL_PWR_DisableSleepOnExit:
 622              	.LFB153:
 623              		.loc 1 755 1 is_stmt 1 view -0
 624              		.cfi_startproc
 625              		@ args = 0, pretend = 0, frame = 0
 626              		@ frame_needed = 0, uses_anonymous_args = 0
 627              		@ link register save eliminated.
ARM GAS  C:\Users\DEVELO~1\AppData\Local\Temp\ccZmF6ca.s 			page 12


 628              		.loc 1 757 3 view .LVU109
 629 0000 024A     		ldr	r2, .L66
 630 0002 1369     		ldr	r3, [r2, #16]
 631 0004 23F00203 		bic	r3, r3, #2
 632 0008 1361     		str	r3, [r2, #16]
 633              		.loc 1 758 1 is_stmt 0 view .LVU110
 634 000a 7047     		bx	lr
 635              	.L67:
 636              		.align	2
 637              	.L66:
 638 000c 00ED00E0 		.word	-536810240
 639              		.cfi_endproc
 640              	.LFE153:
 641              		.size	HAL_PWR_DisableSleepOnExit, .-HAL_PWR_DisableSleepOnExit
 642              		.section	.text.HAL_PWR_EnableSEVOnPend,"ax",%progbits
 643              		.align	1
 644              		.p2align 2,,3
 645              		.global	HAL_PWR_EnableSEVOnPend
 646              		.syntax unified
 647              		.thumb
 648              		.thumb_func
 649              		.type	HAL_PWR_EnableSEVOnPend, %function
 650              	HAL_PWR_EnableSEVOnPend:
 651              	.LFB154:
 652              		.loc 1 768 1 is_stmt 1 view -0
 653              		.cfi_startproc
 654              		@ args = 0, pretend = 0, frame = 0
 655              		@ frame_needed = 0, uses_anonymous_args = 0
 656              		@ link register save eliminated.
 657              		.loc 1 770 3 view .LVU112
 658 0000 024A     		ldr	r2, .L69
 659 0002 1369     		ldr	r3, [r2, #16]
 660 0004 43F01003 		orr	r3, r3, #16
 661 0008 1361     		str	r3, [r2, #16]
 662              		.loc 1 771 1 is_stmt 0 view .LVU113
 663 000a 7047     		bx	lr
 664              	.L70:
 665              		.align	2
 666              	.L69:
 667 000c 00ED00E0 		.word	-536810240
 668              		.cfi_endproc
 669              	.LFE154:
 670              		.size	HAL_PWR_EnableSEVOnPend, .-HAL_PWR_EnableSEVOnPend
 671              		.section	.text.HAL_PWR_DisableSEVOnPend,"ax",%progbits
 672              		.align	1
 673              		.p2align 2,,3
 674              		.global	HAL_PWR_DisableSEVOnPend
 675              		.syntax unified
 676              		.thumb
 677              		.thumb_func
 678              		.type	HAL_PWR_DisableSEVOnPend, %function
 679              	HAL_PWR_DisableSEVOnPend:
 680              	.LFB155:
 681              		.loc 1 780 1 is_stmt 1 view -0
 682              		.cfi_startproc
 683              		@ args = 0, pretend = 0, frame = 0
 684              		@ frame_needed = 0, uses_anonymous_args = 0
ARM GAS  C:\Users\DEVELO~1\AppData\Local\Temp\ccZmF6ca.s 			page 13


 685              		@ link register save eliminated.
 686              		.loc 1 782 3 view .LVU115
 687 0000 024A     		ldr	r2, .L72
 688 0002 1369     		ldr	r3, [r2, #16]
 689 0004 23F01003 		bic	r3, r3, #16
 690 0008 1361     		str	r3, [r2, #16]
 691              		.loc 1 783 1 is_stmt 0 view .LVU116
 692 000a 7047     		bx	lr
 693              	.L73:
 694              		.align	2
 695              	.L72:
 696 000c 00ED00E0 		.word	-536810240
 697              		.cfi_endproc
 698              	.LFE155:
 699              		.size	HAL_PWR_DisableSEVOnPend, .-HAL_PWR_DisableSEVOnPend
 700              		.section	.text.HAL_PWR_PVDCallback,"ax",%progbits
 701              		.align	1
 702              		.p2align 2,,3
 703              		.weak	HAL_PWR_PVDCallback
 704              		.syntax unified
 705              		.thumb
 706              		.thumb_func
 707              		.type	HAL_PWR_PVDCallback, %function
 708              	HAL_PWR_PVDCallback:
 709              	.LFB157:
 710              		.loc 1 854 1 is_stmt 1 view -0
 711              		.cfi_startproc
 712              		@ args = 0, pretend = 0, frame = 0
 713              		@ frame_needed = 0, uses_anonymous_args = 0
 714              		@ link register save eliminated.
 715              		.loc 1 858 1 view .LVU118
 716 0000 7047     		bx	lr
 717              		.cfi_endproc
 718              	.LFE157:
 719              		.size	HAL_PWR_PVDCallback, .-HAL_PWR_PVDCallback
 720 0002 00BF     		.section	.text.HAL_PWR_PVD_IRQHandler,"ax",%progbits
 721              		.align	1
 722              		.p2align 2,,3
 723              		.global	HAL_PWR_PVD_IRQHandler
 724              		.syntax unified
 725              		.thumb
 726              		.thumb_func
 727              		.type	HAL_PWR_PVD_IRQHandler, %function
 728              	HAL_PWR_PVD_IRQHandler:
 729              	.LFB156:
 730              		.loc 1 809 1 view -0
 731              		.cfi_startproc
 732              		@ args = 0, pretend = 0, frame = 0
 733              		@ frame_needed = 0, uses_anonymous_args = 0
 734              		.loc 1 838 3 view .LVU120
 735              		.loc 1 809 1 is_stmt 0 view .LVU121
 736 0000 08B5     		push	{r3, lr}
 737              		.cfi_def_cfa_offset 8
 738              		.cfi_offset 3, -8
 739              		.cfi_offset 14, -4
 740              		.loc 1 838 7 view .LVU122
 741 0002 4FF0B043 		mov	r3, #1476395008
ARM GAS  C:\Users\DEVELO~1\AppData\Local\Temp\ccZmF6ca.s 			page 14


 742 0006 D3F88820 		ldr	r2, [r3, #136]
 743              		.loc 1 838 6 view .LVU123
 744 000a D203     		lsls	r2, r2, #15
 745 000c 00D4     		bmi	.L81
 746              		.loc 1 847 1 view .LVU124
 747 000e 08BD     		pop	{r3, pc}
 748              	.L81:
 749              		.loc 1 841 5 is_stmt 1 view .LVU125
 750 0010 D3F88820 		ldr	r2, [r3, #136]
 751 0014 42F48032 		orr	r2, r2, #65536
 752 0018 C3F88820 		str	r2, [r3, #136]
 753              		.loc 1 844 5 view .LVU126
 754 001c FFF7FEFF 		bl	HAL_PWR_PVDCallback
 755              	.LVL9:
 756              		.loc 1 847 1 is_stmt 0 view .LVU127
 757 0020 08BD     		pop	{r3, pc}
 758              		.cfi_endproc
 759              	.LFE156:
 760              		.size	HAL_PWR_PVD_IRQHandler, .-HAL_PWR_PVD_IRQHandler
 761 0022 00BF     		.text
 762              	.Letext0:
 763              		.file 3 "c:\\chibistudio\\tools\\gnu tools arm embedded\\11.3 2022.08\\arm-none-eabi\\include\\mac
 764              		.file 4 "c:\\chibistudio\\tools\\gnu tools arm embedded\\11.3 2022.08\\arm-none-eabi\\include\\sys
 765              		.file 5 "./docs/ChibiOS/os/common/ext/ARM/CMSIS/Core/Include/core_cm7.h"
 766              		.file 6 "./docs/ChibiOS/os/common/ext/ST/STM32H7xx/stm32h743xx.h"
 767              		.file 7 "./drivers/stm32h7xx-hal-driver/Inc/stm32h7xx_hal_pwr.h"
 768              		.section	.debug_info,"",%progbits
 769              	.Ldebug_info0:
 770 0000 24090000 		.4byte	0x924
 771 0004 0500     		.2byte	0x5
 772 0006 01       		.byte	0x1
 773 0007 04       		.byte	0x4
 774 0008 00000000 		.4byte	.Ldebug_abbrev0
 775 000c 14       		.uleb128 0x14
 776 000d 69000000 		.4byte	.LASF127
 777 0011 1D       		.byte	0x1d
 778 0012 BE020000 		.4byte	.LASF128
 779 0016 1C000000 		.4byte	.LASF129
 780 001a 0C000000 		.4byte	.LLRL3
 781 001e 00000000 		.4byte	0
 782 0022 00000000 		.4byte	.Ldebug_line0
 783 0026 03       		.uleb128 0x3
 784 0027 02       		.byte	0x2
 785 0028 05       		.byte	0x5
 786 0029 4C040000 		.4byte	.LASF0
 787 002d 03       		.uleb128 0x3
 788 002e 01       		.byte	0x1
 789 002f 06       		.byte	0x6
 790 0030 73010000 		.4byte	.LASF1
 791 0034 0A       		.uleb128 0xa
 792 0035 5A000000 		.4byte	.LASF5
 793 0039 03       		.byte	0x3
 794 003a 2B       		.byte	0x2b
 795 003b 18       		.byte	0x18
 796 003c 40000000 		.4byte	0x40
 797 0040 03       		.uleb128 0x3
 798 0041 01       		.byte	0x1
ARM GAS  C:\Users\DEVELO~1\AppData\Local\Temp\ccZmF6ca.s 			page 15


 799 0042 08       		.byte	0x8
 800 0043 18040000 		.4byte	.LASF2
 801 0047 03       		.uleb128 0x3
 802 0048 02       		.byte	0x2
 803 0049 07       		.byte	0x7
 804 004a 9C020000 		.4byte	.LASF3
 805 004e 03       		.uleb128 0x3
 806 004f 04       		.byte	0x4
 807 0050 05       		.byte	0x5
 808 0051 A4010000 		.4byte	.LASF4
 809 0055 0A       		.uleb128 0xa
 810 0056 0E020000 		.4byte	.LASF6
 811 005a 03       		.byte	0x3
 812 005b 4F       		.byte	0x4f
 813 005c 19       		.byte	0x19
 814 005d 61000000 		.4byte	0x61
 815 0061 03       		.uleb128 0x3
 816 0062 04       		.byte	0x4
 817 0063 07       		.byte	0x7
 818 0064 86010000 		.4byte	.LASF7
 819 0068 03       		.uleb128 0x3
 820 0069 08       		.byte	0x8
 821 006a 05       		.byte	0x5
 822 006b CD010000 		.4byte	.LASF8
 823 006f 03       		.uleb128 0x3
 824 0070 08       		.byte	0x8
 825 0071 07       		.byte	0x7
 826 0072 26010000 		.4byte	.LASF9
 827 0076 15       		.uleb128 0x15
 828 0077 04       		.byte	0x4
 829 0078 05       		.byte	0x5
 830 0079 696E7400 		.ascii	"int\000"
 831 007d 03       		.uleb128 0x3
 832 007e 04       		.byte	0x4
 833 007f 07       		.byte	0x7
 834 0080 5B020000 		.4byte	.LASF10
 835 0084 0A       		.uleb128 0xa
 836 0085 A0050000 		.4byte	.LASF11
 837 0089 04       		.byte	0x4
 838 008a 18       		.byte	0x18
 839 008b 13       		.byte	0x13
 840 008c 34000000 		.4byte	0x34
 841 0090 09       		.uleb128 0x9
 842 0091 84000000 		.4byte	0x84
 843 0095 0A       		.uleb128 0xa
 844 0096 99040000 		.4byte	.LASF12
 845 009a 04       		.byte	0x4
 846 009b 30       		.byte	0x30
 847 009c 14       		.byte	0x14
 848 009d 55000000 		.4byte	0x55
 849 00a1 09       		.uleb128 0x9
 850 00a2 95000000 		.4byte	0x95
 851 00a6 0B       		.uleb128 0xb
 852 00a7 A1000000 		.4byte	0xa1
 853 00ab 16       		.uleb128 0x16
 854 00ac AC02     		.2byte	0x2ac
 855 00ae 05       		.byte	0x5
ARM GAS  C:\Users\DEVELO~1\AppData\Local\Temp\ccZmF6ca.s 			page 16


 856 00af C701     		.2byte	0x1c7
 857 00b1 09       		.byte	0x9
 858 00b2 5B030000 		.4byte	0x35b
 859 00b6 01       		.uleb128 0x1
 860 00b7 43010000 		.4byte	.LASF13
 861 00bb 05       		.byte	0x5
 862 00bc C901     		.2byte	0x1c9
 863 00be 12       		.byte	0x12
 864 00bf A6000000 		.4byte	0xa6
 865 00c3 00       		.byte	0
 866 00c4 01       		.uleb128 0x1
 867 00c5 6E010000 		.4byte	.LASF14
 868 00c9 05       		.byte	0x5
 869 00ca CA01     		.2byte	0x1ca
 870 00cc 12       		.byte	0x12
 871 00cd A1000000 		.4byte	0xa1
 872 00d1 04       		.byte	0x4
 873 00d2 01       		.uleb128 0x1
 874 00d3 97020000 		.4byte	.LASF15
 875 00d7 05       		.byte	0x5
 876 00d8 CB01     		.2byte	0x1cb
 877 00da 12       		.byte	0x12
 878 00db A1000000 		.4byte	0xa1
 879 00df 08       		.byte	0x8
 880 00e0 01       		.uleb128 0x1
 881 00e1 F5020000 		.4byte	.LASF16
 882 00e5 05       		.byte	0x5
 883 00e6 CC01     		.2byte	0x1cc
 884 00e8 12       		.byte	0x12
 885 00e9 A1000000 		.4byte	0xa1
 886 00ed 0C       		.byte	0xc
 887 00ee 06       		.uleb128 0x6
 888 00ef 53435200 		.ascii	"SCR\000"
 889 00f3 05       		.byte	0x5
 890 00f4 CD01     		.2byte	0x1cd
 891 00f6 12       		.byte	0x12
 892 00f7 A1000000 		.4byte	0xa1
 893 00fb 10       		.byte	0x10
 894 00fc 06       		.uleb128 0x6
 895 00fd 43435200 		.ascii	"CCR\000"
 896 0101 05       		.byte	0x5
 897 0102 CE01     		.2byte	0x1ce
 898 0104 12       		.byte	0x12
 899 0105 A1000000 		.4byte	0xa1
 900 0109 14       		.byte	0x14
 901 010a 01       		.uleb128 0x1
 902 010b 08000000 		.4byte	.LASF17
 903 010f 05       		.byte	0x5
 904 0110 CF01     		.2byte	0x1cf
 905 0112 12       		.byte	0x12
 906 0113 6B030000 		.4byte	0x36b
 907 0117 18       		.byte	0x18
 908 0118 01       		.uleb128 0x1
 909 0119 26040000 		.4byte	.LASF18
 910 011d 05       		.byte	0x5
 911 011e D001     		.2byte	0x1d0
 912 0120 12       		.byte	0x12
ARM GAS  C:\Users\DEVELO~1\AppData\Local\Temp\ccZmF6ca.s 			page 17


 913 0121 A1000000 		.4byte	0xa1
 914 0125 24       		.byte	0x24
 915 0126 01       		.uleb128 0x1
 916 0127 67030000 		.4byte	.LASF19
 917 012b 05       		.byte	0x5
 918 012c D101     		.2byte	0x1d1
 919 012e 12       		.byte	0x12
 920 012f A1000000 		.4byte	0xa1
 921 0133 28       		.byte	0x28
 922 0134 01       		.uleb128 0x1
 923 0135 FA050000 		.4byte	.LASF20
 924 0139 05       		.byte	0x5
 925 013a D201     		.2byte	0x1d2
 926 013c 12       		.byte	0x12
 927 013d A1000000 		.4byte	0xa1
 928 0141 2C       		.byte	0x2c
 929 0142 01       		.uleb128 0x1
 930 0143 FB020000 		.4byte	.LASF21
 931 0147 05       		.byte	0x5
 932 0148 D301     		.2byte	0x1d3
 933 014a 12       		.byte	0x12
 934 014b A1000000 		.4byte	0xa1
 935 014f 30       		.byte	0x30
 936 0150 01       		.uleb128 0x1
 937 0151 07030000 		.4byte	.LASF22
 938 0155 05       		.byte	0x5
 939 0156 D401     		.2byte	0x1d4
 940 0158 12       		.byte	0x12
 941 0159 A1000000 		.4byte	0xa1
 942 015d 34       		.byte	0x34
 943 015e 01       		.uleb128 0x1
 944 015f 04020000 		.4byte	.LASF23
 945 0163 05       		.byte	0x5
 946 0164 D501     		.2byte	0x1d5
 947 0166 12       		.byte	0x12
 948 0167 A1000000 		.4byte	0xa1
 949 016b 38       		.byte	0x38
 950 016c 01       		.uleb128 0x1
 951 016d 09020000 		.4byte	.LASF24
 952 0171 05       		.byte	0x5
 953 0172 D601     		.2byte	0x1d6
 954 0174 12       		.byte	0x12
 955 0175 A1000000 		.4byte	0xa1
 956 0179 3C       		.byte	0x3c
 957 017a 01       		.uleb128 0x1
 958 017b 67010000 		.4byte	.LASF25
 959 017f 05       		.byte	0x5
 960 0180 D701     		.2byte	0x1d7
 961 0182 12       		.byte	0x12
 962 0183 85030000 		.4byte	0x385
 963 0187 40       		.byte	0x40
 964 0188 01       		.uleb128 0x1
 965 0189 40020000 		.4byte	.LASF26
 966 018d 05       		.byte	0x5
 967 018e D801     		.2byte	0x1d8
 968 0190 12       		.byte	0x12
 969 0191 A6000000 		.4byte	0xa6
ARM GAS  C:\Users\DEVELO~1\AppData\Local\Temp\ccZmF6ca.s 			page 18


 970 0195 48       		.byte	0x48
 971 0196 01       		.uleb128 0x1
 972 0197 6C030000 		.4byte	.LASF27
 973 019b 05       		.byte	0x5
 974 019c D901     		.2byte	0x1d9
 975 019e 12       		.byte	0x12
 976 019f A6000000 		.4byte	0xa6
 977 01a3 4C       		.byte	0x4c
 978 01a4 01       		.uleb128 0x1
 979 01a5 56040000 		.4byte	.LASF28
 980 01a9 05       		.byte	0x5
 981 01aa DA01     		.2byte	0x1da
 982 01ac 12       		.byte	0x12
 983 01ad 9F030000 		.4byte	0x39f
 984 01b1 50       		.byte	0x50
 985 01b2 01       		.uleb128 0x1
 986 01b3 B2050000 		.4byte	.LASF29
 987 01b7 05       		.byte	0x5
 988 01b8 DB01     		.2byte	0x1db
 989 01ba 12       		.byte	0x12
 990 01bb B9030000 		.4byte	0x3b9
 991 01bf 60       		.byte	0x60
 992 01c0 01       		.uleb128 0x1
 993 01c1 B1030000 		.4byte	.LASF30
 994 01c5 05       		.byte	0x5
 995 01c6 DC01     		.2byte	0x1dc
 996 01c8 12       		.byte	0x12
 997 01c9 BE030000 		.4byte	0x3be
 998 01cd 74       		.byte	0x74
 999 01ce 01       		.uleb128 0x1
 1000 01cf 3D010000 		.4byte	.LASF31
 1001 01d3 05       		.byte	0x5
 1002 01d4 DD01     		.2byte	0x1dd
 1003 01d6 12       		.byte	0x12
 1004 01d7 A6000000 		.4byte	0xa6
 1005 01db 78       		.byte	0x78
 1006 01dc 06       		.uleb128 0x6
 1007 01dd 43545200 		.ascii	"CTR\000"
 1008 01e1 05       		.byte	0x5
 1009 01e2 DE01     		.2byte	0x1de
 1010 01e4 12       		.byte	0x12
 1011 01e5 A6000000 		.4byte	0xa6
 1012 01e9 7C       		.byte	0x7c
 1013 01ea 01       		.uleb128 0x1
 1014 01eb 4E030000 		.4byte	.LASF32
 1015 01ef 05       		.byte	0x5
 1016 01f0 DF01     		.2byte	0x1df
 1017 01f2 12       		.byte	0x12
 1018 01f3 A6000000 		.4byte	0xa6
 1019 01f7 80       		.byte	0x80
 1020 01f8 01       		.uleb128 0x1
 1021 01f9 54020000 		.4byte	.LASF33
 1022 01fd 05       		.byte	0x5
 1023 01fe E001     		.2byte	0x1e0
 1024 0200 12       		.byte	0x12
 1025 0201 A1000000 		.4byte	0xa1
 1026 0205 84       		.byte	0x84
ARM GAS  C:\Users\DEVELO~1\AppData\Local\Temp\ccZmF6ca.s 			page 19


 1027 0206 01       		.uleb128 0x1
 1028 0207 F4050000 		.4byte	.LASF34
 1029 020b 05       		.byte	0x5
 1030 020c E101     		.2byte	0x1e1
 1031 020e 12       		.byte	0x12
 1032 020f A1000000 		.4byte	0xa1
 1033 0213 88       		.byte	0x88
 1034 0214 01       		.uleb128 0x1
 1035 0215 6B040000 		.4byte	.LASF35
 1036 0219 05       		.byte	0x5
 1037 021a E201     		.2byte	0x1e2
 1038 021c 12       		.byte	0x12
 1039 021d CE030000 		.4byte	0x3ce
 1040 0221 8C       		.byte	0x8c
 1041 0222 02       		.uleb128 0x2
 1042 0223 64000000 		.4byte	.LASF36
 1043 0227 E301     		.2byte	0x1e3
 1044 0229 A1000000 		.4byte	0xa1
 1045 022d 0002     		.2byte	0x200
 1046 022f 02       		.uleb128 0x2
 1047 0230 52050000 		.4byte	.LASF37
 1048 0234 E401     		.2byte	0x1e4
 1049 0236 DE030000 		.4byte	0x3de
 1050 023a 0402     		.2byte	0x204
 1051 023c 02       		.uleb128 0x2
 1052 023d 9F030000 		.4byte	.LASF38
 1053 0241 E501     		.2byte	0x1e5
 1054 0243 A6000000 		.4byte	0xa6
 1055 0247 4002     		.2byte	0x240
 1056 0249 02       		.uleb128 0x2
 1057 024a A5030000 		.4byte	.LASF39
 1058 024e E601     		.2byte	0x1e6
 1059 0250 A6000000 		.4byte	0xa6
 1060 0254 4402     		.2byte	0x244
 1061 0256 02       		.uleb128 0x2
 1062 0257 AB030000 		.4byte	.LASF40
 1063 025b E701     		.2byte	0x1e7
 1064 025d A6000000 		.4byte	0xa6
 1065 0261 4802     		.2byte	0x248
 1066 0263 02       		.uleb128 0x2
 1067 0264 8F040000 		.4byte	.LASF41
 1068 0268 E801     		.2byte	0x1e8
 1069 026a BE030000 		.4byte	0x3be
 1070 026e 4C02     		.2byte	0x24c
 1071 0270 02       		.uleb128 0x2
 1072 0271 FC010000 		.4byte	.LASF42
 1073 0275 E901     		.2byte	0x1e9
 1074 0277 A1000000 		.4byte	0xa1
 1075 027b 5002     		.2byte	0x250
 1076 027d 02       		.uleb128 0x2
 1077 027e E1030000 		.4byte	.LASF43
 1078 0282 EA01     		.2byte	0x1ea
 1079 0284 BE030000 		.4byte	0x3be
 1080 0288 5402     		.2byte	0x254
 1081 028a 02       		.uleb128 0x2
 1082 028b 5D040000 		.4byte	.LASF44
 1083 028f EB01     		.2byte	0x1eb
ARM GAS  C:\Users\DEVELO~1\AppData\Local\Temp\ccZmF6ca.s 			page 20


 1084 0291 A1000000 		.4byte	0xa1
 1085 0295 5802     		.2byte	0x258
 1086 0297 02       		.uleb128 0x2
 1087 0298 24050000 		.4byte	.LASF45
 1088 029c EC01     		.2byte	0x1ec
 1089 029e A1000000 		.4byte	0xa1
 1090 02a2 5C02     		.2byte	0x25c
 1091 02a4 02       		.uleb128 0x2
 1092 02a5 65040000 		.4byte	.LASF46
 1093 02a9 ED01     		.2byte	0x1ed
 1094 02ab A1000000 		.4byte	0xa1
 1095 02af 6002     		.2byte	0x260
 1096 02b1 02       		.uleb128 0x2
 1097 02b2 70020000 		.4byte	.LASF47
 1098 02b6 EE01     		.2byte	0x1ee
 1099 02b8 A1000000 		.4byte	0xa1
 1100 02bc 6402     		.2byte	0x264
 1101 02be 02       		.uleb128 0x2
 1102 02bf 47020000 		.4byte	.LASF48
 1103 02c3 EF01     		.2byte	0x1ef
 1104 02c5 A1000000 		.4byte	0xa1
 1105 02c9 6802     		.2byte	0x268
 1106 02cb 02       		.uleb128 0x2
 1107 02cc 0B050000 		.4byte	.LASF49
 1108 02d0 F001     		.2byte	0x1f0
 1109 02d2 A1000000 		.4byte	0xa1
 1110 02d6 6C02     		.2byte	0x26c
 1111 02d8 02       		.uleb128 0x2
 1112 02d9 2C040000 		.4byte	.LASF50
 1113 02dd F101     		.2byte	0x1f1
 1114 02df A1000000 		.4byte	0xa1
 1115 02e3 7002     		.2byte	0x270
 1116 02e5 02       		.uleb128 0x2
 1117 02e6 78020000 		.4byte	.LASF51
 1118 02ea F201     		.2byte	0x1f2
 1119 02ec A1000000 		.4byte	0xa1
 1120 02f0 7402     		.2byte	0x274
 1121 02f2 02       		.uleb128 0x2
 1122 02f3 EB030000 		.4byte	.LASF52
 1123 02f7 F301     		.2byte	0x1f3
 1124 02f9 EE030000 		.4byte	0x3ee
 1125 02fd 7802     		.2byte	0x278
 1126 02ff 02       		.uleb128 0x2
 1127 0300 00030000 		.4byte	.LASF53
 1128 0304 F401     		.2byte	0x1f4
 1129 0306 A1000000 		.4byte	0xa1
 1130 030a 9002     		.2byte	0x290
 1131 030c 02       		.uleb128 0x2
 1132 030d AD010000 		.4byte	.LASF54
 1133 0311 F501     		.2byte	0x1f5
 1134 0313 A1000000 		.4byte	0xa1
 1135 0317 9402     		.2byte	0x294
 1136 0319 02       		.uleb128 0x2
 1137 031a 80030000 		.4byte	.LASF55
 1138 031e F601     		.2byte	0x1f6
 1139 0320 A1000000 		.4byte	0xa1
 1140 0324 9802     		.2byte	0x298
ARM GAS  C:\Users\DEVELO~1\AppData\Local\Temp\ccZmF6ca.s 			page 21


 1141 0326 02       		.uleb128 0x2
 1142 0327 4F020000 		.4byte	.LASF56
 1143 032b F701     		.2byte	0x1f7
 1144 032d A1000000 		.4byte	0xa1
 1145 0331 9C02     		.2byte	0x29c
 1146 0333 02       		.uleb128 0x2
 1147 0334 15000000 		.4byte	.LASF57
 1148 0338 F801     		.2byte	0x1f8
 1149 033a A1000000 		.4byte	0xa1
 1150 033e A002     		.2byte	0x2a0
 1151 0340 02       		.uleb128 0x2
 1152 0341 F5030000 		.4byte	.LASF58
 1153 0345 F901     		.2byte	0x1f9
 1154 0347 BE030000 		.4byte	0x3be
 1155 034b A402     		.2byte	0x2a4
 1156 034d 02       		.uleb128 0x2
 1157 034e 18030000 		.4byte	.LASF59
 1158 0352 FA01     		.2byte	0x1fa
 1159 0354 A1000000 		.4byte	0xa1
 1160 0358 A802     		.2byte	0x2a8
 1161 035a 00       		.byte	0
 1162 035b 04       		.uleb128 0x4
 1163 035c 90000000 		.4byte	0x90
 1164 0360 6B030000 		.4byte	0x36b
 1165 0364 05       		.uleb128 0x5
 1166 0365 7D000000 		.4byte	0x7d
 1167 0369 0B       		.byte	0xb
 1168 036a 00       		.byte	0
 1169 036b 09       		.uleb128 0x9
 1170 036c 5B030000 		.4byte	0x35b
 1171 0370 04       		.uleb128 0x4
 1172 0371 A6000000 		.4byte	0xa6
 1173 0375 80030000 		.4byte	0x380
 1174 0379 05       		.uleb128 0x5
 1175 037a 7D000000 		.4byte	0x7d
 1176 037e 01       		.byte	0x1
 1177 037f 00       		.byte	0
 1178 0380 0B       		.uleb128 0xb
 1179 0381 70030000 		.4byte	0x370
 1180 0385 09       		.uleb128 0x9
 1181 0386 80030000 		.4byte	0x380
 1182 038a 04       		.uleb128 0x4
 1183 038b A6000000 		.4byte	0xa6
 1184 038f 9A030000 		.4byte	0x39a
 1185 0393 05       		.uleb128 0x5
 1186 0394 7D000000 		.4byte	0x7d
 1187 0398 03       		.byte	0x3
 1188 0399 00       		.byte	0
 1189 039a 0B       		.uleb128 0xb
 1190 039b 8A030000 		.4byte	0x38a
 1191 039f 09       		.uleb128 0x9
 1192 03a0 9A030000 		.4byte	0x39a
 1193 03a4 04       		.uleb128 0x4
 1194 03a5 A6000000 		.4byte	0xa6
 1195 03a9 B4030000 		.4byte	0x3b4
 1196 03ad 05       		.uleb128 0x5
 1197 03ae 7D000000 		.4byte	0x7d
ARM GAS  C:\Users\DEVELO~1\AppData\Local\Temp\ccZmF6ca.s 			page 22


 1198 03b2 04       		.byte	0x4
 1199 03b3 00       		.byte	0
 1200 03b4 0B       		.uleb128 0xb
 1201 03b5 A4030000 		.4byte	0x3a4
 1202 03b9 09       		.uleb128 0x9
 1203 03ba B4030000 		.4byte	0x3b4
 1204 03be 04       		.uleb128 0x4
 1205 03bf 95000000 		.4byte	0x95
 1206 03c3 CE030000 		.4byte	0x3ce
 1207 03c7 05       		.uleb128 0x5
 1208 03c8 7D000000 		.4byte	0x7d
 1209 03cc 00       		.byte	0
 1210 03cd 00       		.byte	0
 1211 03ce 04       		.uleb128 0x4
 1212 03cf 95000000 		.4byte	0x95
 1213 03d3 DE030000 		.4byte	0x3de
 1214 03d7 05       		.uleb128 0x5
 1215 03d8 7D000000 		.4byte	0x7d
 1216 03dc 5C       		.byte	0x5c
 1217 03dd 00       		.byte	0
 1218 03de 04       		.uleb128 0x4
 1219 03df 95000000 		.4byte	0x95
 1220 03e3 EE030000 		.4byte	0x3ee
 1221 03e7 05       		.uleb128 0x5
 1222 03e8 7D000000 		.4byte	0x7d
 1223 03ec 0E       		.byte	0xe
 1224 03ed 00       		.byte	0
 1225 03ee 04       		.uleb128 0x4
 1226 03ef 95000000 		.4byte	0x95
 1227 03f3 FE030000 		.4byte	0x3fe
 1228 03f7 05       		.uleb128 0x5
 1229 03f8 7D000000 		.4byte	0x7d
 1230 03fc 05       		.byte	0x5
 1231 03fd 00       		.byte	0
 1232 03fe 0E       		.uleb128 0xe
 1233 03ff 37020000 		.4byte	.LASF60
 1234 0403 05       		.byte	0x5
 1235 0404 FB01     		.2byte	0x1fb
 1236 0406 03       		.byte	0x3
 1237 0407 AB000000 		.4byte	0xab
 1238 040b 04       		.uleb128 0x4
 1239 040c 95000000 		.4byte	0x95
 1240 0410 1B040000 		.4byte	0x41b
 1241 0414 05       		.uleb128 0x5
 1242 0415 7D000000 		.4byte	0x7d
 1243 0419 01       		.byte	0x1
 1244 041a 00       		.byte	0
 1245 041b 04       		.uleb128 0x4
 1246 041c 95000000 		.4byte	0x95
 1247 0420 2B040000 		.4byte	0x42b
 1248 0424 05       		.uleb128 0x5
 1249 0425 7D000000 		.4byte	0x7d
 1250 0429 09       		.byte	0x9
 1251 042a 00       		.byte	0
 1252 042b 11       		.uleb128 0x11
 1253 042c AC       		.byte	0xac
 1254 042d 5203     		.2byte	0x352
ARM GAS  C:\Users\DEVELO~1\AppData\Local\Temp\ccZmF6ca.s 			page 23


 1255 042f F4050000 		.4byte	0x5f4
 1256 0433 01       		.uleb128 0x1
 1257 0434 CF030000 		.4byte	.LASF61
 1258 0438 06       		.byte	0x6
 1259 0439 5403     		.2byte	0x354
 1260 043b 0F       		.byte	0xf
 1261 043c A1000000 		.4byte	0xa1
 1262 0440 00       		.byte	0
 1263 0441 01       		.uleb128 0x1
 1264 0442 09010000 		.4byte	.LASF62
 1265 0446 06       		.byte	0x6
 1266 0447 5503     		.2byte	0x355
 1267 0449 0F       		.byte	0xf
 1268 044a A1000000 		.4byte	0xa1
 1269 044e 04       		.byte	0x4
 1270 044f 01       		.uleb128 0x1
 1271 0450 52010000 		.4byte	.LASF63
 1272 0454 06       		.byte	0x6
 1273 0455 5603     		.2byte	0x356
 1274 0457 0F       		.byte	0xf
 1275 0458 A1000000 		.4byte	0xa1
 1276 045c 08       		.byte	0x8
 1277 045d 01       		.uleb128 0x1
 1278 045e D2050000 		.4byte	.LASF64
 1279 0462 06       		.byte	0x6
 1280 0463 5703     		.2byte	0x357
 1281 0465 0F       		.byte	0xf
 1282 0466 A1000000 		.4byte	0xa1
 1283 046a 0C       		.byte	0xc
 1284 046b 01       		.uleb128 0x1
 1285 046c C1040000 		.4byte	.LASF65
 1286 0470 06       		.byte	0x6
 1287 0471 5803     		.2byte	0x358
 1288 0473 0F       		.byte	0xf
 1289 0474 A1000000 		.4byte	0xa1
 1290 0478 10       		.byte	0x10
 1291 0479 01       		.uleb128 0x1
 1292 047a 04060000 		.4byte	.LASF66
 1293 047e 06       		.byte	0x6
 1294 047f 5903     		.2byte	0x359
 1295 0481 0F       		.byte	0xf
 1296 0482 A1000000 		.4byte	0xa1
 1297 0486 14       		.byte	0x14
 1298 0487 01       		.uleb128 0x1
 1299 0488 BB030000 		.4byte	.LASF67
 1300 048c 06       		.byte	0x6
 1301 048d 5A03     		.2byte	0x35a
 1302 048f 0F       		.byte	0xf
 1303 0490 0B040000 		.4byte	0x40b
 1304 0494 18       		.byte	0x18
 1305 0495 01       		.uleb128 0x1
 1306 0496 D5030000 		.4byte	.LASF68
 1307 049a 06       		.byte	0x6
 1308 049b 5B03     		.2byte	0x35b
 1309 049d 0F       		.byte	0xf
 1310 049e A1000000 		.4byte	0xa1
 1311 04a2 20       		.byte	0x20
ARM GAS  C:\Users\DEVELO~1\AppData\Local\Temp\ccZmF6ca.s 			page 24


 1312 04a3 01       		.uleb128 0x1
 1313 04a4 0F010000 		.4byte	.LASF69
 1314 04a8 06       		.byte	0x6
 1315 04a9 5C03     		.2byte	0x35c
 1316 04ab 0F       		.byte	0xf
 1317 04ac A1000000 		.4byte	0xa1
 1318 04b0 24       		.byte	0x24
 1319 04b1 01       		.uleb128 0x1
 1320 04b2 59010000 		.4byte	.LASF70
 1321 04b6 06       		.byte	0x6
 1322 04b7 5D03     		.2byte	0x35d
 1323 04b9 0F       		.byte	0xf
 1324 04ba A1000000 		.4byte	0xa1
 1325 04be 28       		.byte	0x28
 1326 04bf 01       		.uleb128 0x1
 1327 04c0 D9050000 		.4byte	.LASF71
 1328 04c4 06       		.byte	0x6
 1329 04c5 5E03     		.2byte	0x35e
 1330 04c7 0F       		.byte	0xf
 1331 04c8 A1000000 		.4byte	0xa1
 1332 04cc 2C       		.byte	0x2c
 1333 04cd 01       		.uleb128 0x1
 1334 04ce 98050000 		.4byte	.LASF72
 1335 04d2 06       		.byte	0x6
 1336 04d3 5F03     		.2byte	0x35f
 1337 04d5 0F       		.byte	0xf
 1338 04d6 A1000000 		.4byte	0xa1
 1339 04da 30       		.byte	0x30
 1340 04db 01       		.uleb128 0x1
 1341 04dc 90050000 		.4byte	.LASF73
 1342 04e0 06       		.byte	0x6
 1343 04e1 6003     		.2byte	0x360
 1344 04e3 0F       		.byte	0xf
 1345 04e4 A1000000 		.4byte	0xa1
 1346 04e8 34       		.byte	0x34
 1347 04e9 01       		.uleb128 0x1
 1348 04ea C5030000 		.4byte	.LASF74
 1349 04ee 06       		.byte	0x6
 1350 04ef 6103     		.2byte	0x361
 1351 04f1 0F       		.byte	0xf
 1352 04f2 0B040000 		.4byte	0x40b
 1353 04f6 38       		.byte	0x38
 1354 04f7 01       		.uleb128 0x1
 1355 04f8 DB030000 		.4byte	.LASF75
 1356 04fc 06       		.byte	0x6
 1357 04fd 6203     		.2byte	0x362
 1358 04ff 0F       		.byte	0xf
 1359 0500 A1000000 		.4byte	0xa1
 1360 0504 40       		.byte	0x40
 1361 0505 01       		.uleb128 0x1
 1362 0506 15010000 		.4byte	.LASF76
 1363 050a 06       		.byte	0x6
 1364 050b 6303     		.2byte	0x363
 1365 050d 0F       		.byte	0xf
 1366 050e A1000000 		.4byte	0xa1
 1367 0512 44       		.byte	0x44
 1368 0513 01       		.uleb128 0x1
ARM GAS  C:\Users\DEVELO~1\AppData\Local\Temp\ccZmF6ca.s 			page 25


 1369 0514 60010000 		.4byte	.LASF77
 1370 0518 06       		.byte	0x6
 1371 0519 6403     		.2byte	0x364
 1372 051b 0F       		.byte	0xf
 1373 051c A1000000 		.4byte	0xa1
 1374 0520 48       		.byte	0x48
 1375 0521 01       		.uleb128 0x1
 1376 0522 E0050000 		.4byte	.LASF78
 1377 0526 06       		.byte	0x6
 1378 0527 6503     		.2byte	0x365
 1379 0529 0F       		.byte	0xf
 1380 052a A1000000 		.4byte	0xa1
 1381 052e 4C       		.byte	0x4c
 1382 052f 01       		.uleb128 0x1
 1383 0530 0D000000 		.4byte	.LASF79
 1384 0534 06       		.byte	0x6
 1385 0535 6603     		.2byte	0x366
 1386 0537 0F       		.byte	0xf
 1387 0538 A1000000 		.4byte	0xa1
 1388 053c 50       		.byte	0x50
 1389 053d 01       		.uleb128 0x1
 1390 053e 00000000 		.4byte	.LASF80
 1391 0542 06       		.byte	0x6
 1392 0543 6703     		.2byte	0x367
 1393 0545 0F       		.byte	0xf
 1394 0546 A1000000 		.4byte	0xa1
 1395 054a 54       		.byte	0x54
 1396 054b 01       		.uleb128 0x1
 1397 054c 6B040000 		.4byte	.LASF35
 1398 0550 06       		.byte	0x6
 1399 0551 6803     		.2byte	0x368
 1400 0553 0F       		.byte	0xf
 1401 0554 1B040000 		.4byte	0x41b
 1402 0558 58       		.byte	0x58
 1403 0559 01       		.uleb128 0x1
 1404 055a AF020000 		.4byte	.LASF81
 1405 055e 06       		.byte	0x6
 1406 055f 6903     		.2byte	0x369
 1407 0561 0F       		.byte	0xf
 1408 0562 A1000000 		.4byte	0xa1
 1409 0566 80       		.byte	0x80
 1410 0567 01       		.uleb128 0x1
 1411 0568 5C050000 		.4byte	.LASF82
 1412 056c 06       		.byte	0x6
 1413 056d 6A03     		.2byte	0x36a
 1414 056f 0F       		.byte	0xf
 1415 0570 A1000000 		.4byte	0xa1
 1416 0574 84       		.byte	0x84
 1417 0575 06       		.uleb128 0x6
 1418 0576 50523100 		.ascii	"PR1\000"
 1419 057a 06       		.byte	0x6
 1420 057b 6B03     		.2byte	0x36b
 1421 057d 0F       		.byte	0xf
 1422 057e A1000000 		.4byte	0xa1
 1423 0582 88       		.byte	0x88
 1424 0583 01       		.uleb128 0x1
 1425 0584 52050000 		.4byte	.LASF37
ARM GAS  C:\Users\DEVELO~1\AppData\Local\Temp\ccZmF6ca.s 			page 26


 1426 0588 06       		.byte	0x6
 1427 0589 6C03     		.2byte	0x36c
 1428 058b 0F       		.byte	0xf
 1429 058c 95000000 		.4byte	0x95
 1430 0590 8C       		.byte	0x8c
 1431 0591 01       		.uleb128 0x1
 1432 0592 B4020000 		.4byte	.LASF83
 1433 0596 06       		.byte	0x6
 1434 0597 6D03     		.2byte	0x36d
 1435 0599 0F       		.byte	0xf
 1436 059a A1000000 		.4byte	0xa1
 1437 059e 90       		.byte	0x90
 1438 059f 01       		.uleb128 0x1
 1439 05a0 61050000 		.4byte	.LASF84
 1440 05a4 06       		.byte	0x6
 1441 05a5 6E03     		.2byte	0x36e
 1442 05a7 0F       		.byte	0xf
 1443 05a8 A1000000 		.4byte	0xa1
 1444 05ac 94       		.byte	0x94
 1445 05ad 06       		.uleb128 0x6
 1446 05ae 50523200 		.ascii	"PR2\000"
 1447 05b2 06       		.byte	0x6
 1448 05b3 6F03     		.2byte	0x36f
 1449 05b5 0F       		.byte	0xf
 1450 05b6 A1000000 		.4byte	0xa1
 1451 05ba 98       		.byte	0x98
 1452 05bb 01       		.uleb128 0x1
 1453 05bc 8F040000 		.4byte	.LASF41
 1454 05c0 06       		.byte	0x6
 1455 05c1 7003     		.2byte	0x370
 1456 05c3 0F       		.byte	0xf
 1457 05c4 95000000 		.4byte	0x95
 1458 05c8 9C       		.byte	0x9c
 1459 05c9 01       		.uleb128 0x1
 1460 05ca B9020000 		.4byte	.LASF85
 1461 05ce 06       		.byte	0x6
 1462 05cf 7103     		.2byte	0x371
 1463 05d1 0F       		.byte	0xf
 1464 05d2 A1000000 		.4byte	0xa1
 1465 05d6 A0       		.byte	0xa0
 1466 05d7 01       		.uleb128 0x1
 1467 05d8 66050000 		.4byte	.LASF86
 1468 05dc 06       		.byte	0x6
 1469 05dd 7203     		.2byte	0x372
 1470 05df 0F       		.byte	0xf
 1471 05e0 A1000000 		.4byte	0xa1
 1472 05e4 A4       		.byte	0xa4
 1473 05e5 06       		.uleb128 0x6
 1474 05e6 50523300 		.ascii	"PR3\000"
 1475 05ea 06       		.byte	0x6
 1476 05eb 7303     		.2byte	0x373
 1477 05ed 0F       		.byte	0xf
 1478 05ee A1000000 		.4byte	0xa1
 1479 05f2 A8       		.byte	0xa8
 1480 05f3 00       		.byte	0
 1481 05f4 0E       		.uleb128 0xe
 1482 05f5 E7050000 		.4byte	.LASF87
ARM GAS  C:\Users\DEVELO~1\AppData\Local\Temp\ccZmF6ca.s 			page 27


 1483 05f9 06       		.byte	0x6
 1484 05fa 7403     		.2byte	0x374
 1485 05fc 02       		.byte	0x2
 1486 05fd 2B040000 		.4byte	0x42b
 1487 0601 11       		.uleb128 0x11
 1488 0602 2C       		.byte	0x2c
 1489 0603 BB04     		.2byte	0x4bb
 1490 0605 A4060000 		.4byte	0x6a4
 1491 0609 06       		.uleb128 0x6
 1492 060a 43523100 		.ascii	"CR1\000"
 1493 060e 06       		.byte	0x6
 1494 060f BD04     		.2byte	0x4bd
 1495 0611 11       		.byte	0x11
 1496 0612 A1000000 		.4byte	0xa1
 1497 0616 00       		.byte	0
 1498 0617 01       		.uleb128 0x1
 1499 0618 FF050000 		.4byte	.LASF88
 1500 061c 06       		.byte	0x6
 1501 061d BE04     		.2byte	0x4be
 1502 061f 11       		.byte	0x11
 1503 0620 A1000000 		.4byte	0xa1
 1504 0624 04       		.byte	0x4
 1505 0625 06       		.uleb128 0x6
 1506 0626 43523200 		.ascii	"CR2\000"
 1507 062a 06       		.byte	0x6
 1508 062b BF04     		.2byte	0x4bf
 1509 062d 11       		.byte	0x11
 1510 062e A1000000 		.4byte	0xa1
 1511 0632 08       		.byte	0x8
 1512 0633 06       		.uleb128 0x6
 1513 0634 43523300 		.ascii	"CR3\000"
 1514 0638 06       		.byte	0x6
 1515 0639 C004     		.2byte	0x4c0
 1516 063b 11       		.byte	0x11
 1517 063c A1000000 		.4byte	0xa1
 1518 0640 0C       		.byte	0xc
 1519 0641 01       		.uleb128 0x1
 1520 0642 7F020000 		.4byte	.LASF89
 1521 0646 06       		.byte	0x6
 1522 0647 C104     		.2byte	0x4c1
 1523 0649 11       		.byte	0x11
 1524 064a A1000000 		.4byte	0xa1
 1525 064e 10       		.byte	0x10
 1526 064f 01       		.uleb128 0x1
 1527 0650 B1030000 		.4byte	.LASF30
 1528 0654 06       		.byte	0x6
 1529 0655 C204     		.2byte	0x4c2
 1530 0657 11       		.byte	0x11
 1531 0658 95000000 		.4byte	0x95
 1532 065c 14       		.byte	0x14
 1533 065d 01       		.uleb128 0x1
 1534 065e A2040000 		.4byte	.LASF90
 1535 0662 06       		.byte	0x6
 1536 0663 C304     		.2byte	0x4c3
 1537 0665 11       		.byte	0x11
 1538 0666 A1000000 		.4byte	0xa1
 1539 066a 18       		.byte	0x18
ARM GAS  C:\Users\DEVELO~1\AppData\Local\Temp\ccZmF6ca.s 			page 28


 1540 066b 01       		.uleb128 0x1
 1541 066c BB030000 		.4byte	.LASF67
 1542 0670 06       		.byte	0x6
 1543 0671 C404     		.2byte	0x4c4
 1544 0673 11       		.byte	0x11
 1545 0674 95000000 		.4byte	0x95
 1546 0678 1C       		.byte	0x1c
 1547 0679 01       		.uleb128 0x1
 1548 067a 7F010000 		.4byte	.LASF91
 1549 067e 06       		.byte	0x6
 1550 067f C504     		.2byte	0x4c5
 1551 0681 11       		.byte	0x11
 1552 0682 A1000000 		.4byte	0xa1
 1553 0686 20       		.byte	0x20
 1554 0687 01       		.uleb128 0x1
 1555 0688 73030000 		.4byte	.LASF92
 1556 068c 06       		.byte	0x6
 1557 068d C604     		.2byte	0x4c6
 1558 068f 11       		.byte	0x11
 1559 0690 A1000000 		.4byte	0xa1
 1560 0694 24       		.byte	0x24
 1561 0695 01       		.uleb128 0x1
 1562 0696 68020000 		.4byte	.LASF93
 1563 069a 06       		.byte	0x6
 1564 069b C704     		.2byte	0x4c7
 1565 069d 11       		.byte	0x11
 1566 069e A1000000 		.4byte	0xa1
 1567 06a2 28       		.byte	0x28
 1568 06a3 00       		.byte	0
 1569 06a4 0E       		.uleb128 0xe
 1570 06a5 98010000 		.4byte	.LASF94
 1571 06a9 06       		.byte	0x6
 1572 06aa C804     		.2byte	0x4c8
 1573 06ac 03       		.byte	0x3
 1574 06ad 01060000 		.4byte	0x601
 1575 06b1 03       		.uleb128 0x3
 1576 06b2 08       		.byte	0x8
 1577 06b3 04       		.byte	0x4
 1578 06b4 C9040000 		.4byte	.LASF95
 1579 06b8 03       		.uleb128 0x3
 1580 06b9 01       		.byte	0x1
 1581 06ba 08       		.byte	0x8
 1582 06bb D5040000 		.4byte	.LASF96
 1583 06bf 03       		.uleb128 0x3
 1584 06c0 04       		.byte	0x4
 1585 06c1 04       		.byte	0x4
 1586 06c2 87030000 		.4byte	.LASF97
 1587 06c6 03       		.uleb128 0x3
 1588 06c7 08       		.byte	0x8
 1589 06c8 04       		.byte	0x4
 1590 06c9 DB010000 		.4byte	.LASF98
 1591 06cd 17       		.uleb128 0x17
 1592 06ce 08       		.byte	0x8
 1593 06cf 07       		.byte	0x7
 1594 06d0 2F       		.byte	0x2f
 1595 06d1 09       		.byte	0x9
 1596 06d2 ED060000 		.4byte	0x6ed
ARM GAS  C:\Users\DEVELO~1\AppData\Local\Temp\ccZmF6ca.s 			page 29


 1597 06d6 12       		.uleb128 0x12
 1598 06d7 49010000 		.4byte	.LASF99
 1599 06db 31       		.byte	0x31
 1600 06dc 95000000 		.4byte	0x95
 1601 06e0 00       		.byte	0
 1602 06e1 12       		.uleb128 0x12
 1603 06e2 19020000 		.4byte	.LASF100
 1604 06e6 36       		.byte	0x36
 1605 06e7 95000000 		.4byte	0x95
 1606 06eb 04       		.byte	0x4
 1607 06ec 00       		.byte	0
 1608 06ed 0A       		.uleb128 0xa
 1609 06ee B2040000 		.4byte	.LASF101
 1610 06f2 07       		.byte	0x7
 1611 06f3 3A       		.byte	0x3a
 1612 06f4 02       		.byte	0x2
 1613 06f5 CD060000 		.4byte	0x6cd
 1614 06f9 0B       		.uleb128 0xb
 1615 06fa ED060000 		.4byte	0x6ed
 1616 06fe 07       		.uleb128 0x7
 1617 06ff 24030000 		.4byte	.LASF102
 1618 0703 5503     		.2byte	0x355
 1619 0705 0D       		.byte	0xd
 1620 0706 00000000 		.4byte	.LFB157
 1621 070a 02000000 		.4byte	.LFE157-.LFB157
 1622 070e 01       		.uleb128 0x1
 1623 070f 9C       		.byte	0x9c
 1624 0710 08       		.uleb128 0x8
 1625 0711 2C050000 		.4byte	.LASF107
 1626 0715 2803     		.2byte	0x328
 1627 0717 00000000 		.4byte	.LFB156
 1628 071b 22000000 		.4byte	.LFE156-.LFB156
 1629 071f 01       		.uleb128 0x1
 1630 0720 9C       		.byte	0x9c
 1631 0721 2F070000 		.4byte	0x72f
 1632 0725 18       		.uleb128 0x18
 1633 0726 20000000 		.4byte	.LVL9
 1634 072a FE060000 		.4byte	0x6fe
 1635 072e 00       		.byte	0
 1636 072f 07       		.uleb128 0x7
 1637 0730 FF030000 		.4byte	.LASF103
 1638 0734 0B03     		.2byte	0x30b
 1639 0736 06       		.byte	0x6
 1640 0737 00000000 		.4byte	.LFB155
 1641 073b 10000000 		.4byte	.LFE155-.LFB155
 1642 073f 01       		.uleb128 0x1
 1643 0740 9C       		.byte	0x9c
 1644 0741 07       		.uleb128 0x7
 1645 0742 DA040000 		.4byte	.LASF104
 1646 0746 FF02     		.2byte	0x2ff
 1647 0748 06       		.byte	0x6
 1648 0749 00000000 		.4byte	.LFB154
 1649 074d 10000000 		.4byte	.LFE154-.LFB154
 1650 0751 01       		.uleb128 0x1
 1651 0752 9C       		.byte	0x9c
 1652 0753 07       		.uleb128 0x7
 1653 0754 6B050000 		.4byte	.LASF105
ARM GAS  C:\Users\DEVELO~1\AppData\Local\Temp\ccZmF6ca.s 			page 30


 1654 0758 F202     		.2byte	0x2f2
 1655 075a 06       		.byte	0x6
 1656 075b 00000000 		.4byte	.LFB153
 1657 075f 10000000 		.4byte	.LFE153-.LFB153
 1658 0763 01       		.uleb128 0x1
 1659 0764 9C       		.byte	0x9c
 1660 0765 07       		.uleb128 0x7
 1661 0766 75040000 		.4byte	.LASF106
 1662 076a E502     		.2byte	0x2e5
 1663 076c 06       		.byte	0x6
 1664 076d 00000000 		.4byte	.LFB152
 1665 0771 10000000 		.4byte	.LFE152-.LFB152
 1666 0775 01       		.uleb128 0x1
 1667 0776 9C       		.byte	0x9c
 1668 0777 08       		.uleb128 0x8
 1669 0778 B4010000 		.4byte	.LASF108
 1670 077c B102     		.2byte	0x2b1
 1671 077e 00000000 		.4byte	.LFB151
 1672 0782 30000000 		.4byte	.LFE151-.LFB151
 1673 0786 01       		.uleb128 0x1
 1674 0787 9C       		.byte	0x9c
 1675 0788 B5070000 		.4byte	0x7b5
 1676 078c 0C       		.uleb128 0xc
 1677 078d 19090000 		.4byte	0x919
 1678 0791 1C000000 		.4byte	.LBI14
 1679 0795 01       		.byte	.LVU98
 1680 0796 1C000000 		.4byte	.LBB14
 1681 079a 04000000 		.4byte	.LBE14-.LBB14
 1682 079e D002     		.2byte	0x2d0
 1683 07a0 0C       		.uleb128 0xc
 1684 07a1 20090000 		.4byte	0x920
 1685 07a5 20000000 		.4byte	.LBI16
 1686 07a9 01       		.byte	.LVU101
 1687 07aa 20000000 		.4byte	.LBB16
 1688 07ae 04000000 		.4byte	.LBE16-.LBB16
 1689 07b2 D102     		.2byte	0x2d1
 1690 07b4 00       		.byte	0
 1691 07b5 08       		.uleb128 0x8
 1692 07b6 38030000 		.4byte	.LASF109
 1693 07ba 6A02     		.2byte	0x26a
 1694 07bc 00000000 		.4byte	.LFB150
 1695 07c0 54000000 		.4byte	.LFE150-.LFB150
 1696 07c4 01       		.uleb128 0x1
 1697 07c5 9C       		.byte	0x9c
 1698 07c6 0F080000 		.4byte	0x80f
 1699 07ca 0D       		.uleb128 0xd
 1700 07cb 86050000 		.4byte	.LASF110
 1701 07cf 6A02     		.2byte	0x26a
 1702 07d1 26       		.byte	0x26
 1703 07d2 95000000 		.4byte	0x95
 1704 07d6 01       		.uleb128 0x1
 1705 07d7 50       		.byte	0x50
 1706 07d8 0D       		.uleb128 0xd
 1707 07d9 A8050000 		.4byte	.LASF111
 1708 07dd 6A02     		.2byte	0x26a
 1709 07df 39       		.byte	0x39
 1710 07e0 84000000 		.4byte	0x84
ARM GAS  C:\Users\DEVELO~1\AppData\Local\Temp\ccZmF6ca.s 			page 31


 1711 07e4 01       		.uleb128 0x1
 1712 07e5 51       		.byte	0x51
 1713 07e6 0C       		.uleb128 0xc
 1714 07e7 19090000 		.4byte	0x919
 1715 07eb 28000000 		.4byte	.LBI10
 1716 07ef 01       		.byte	.LVU78
 1717 07f0 28000000 		.4byte	.LBB10
 1718 07f4 04000000 		.4byte	.LBE10-.LBB10
 1719 07f8 8E02     		.2byte	0x28e
 1720 07fa 0C       		.uleb128 0xc
 1721 07fb 20090000 		.4byte	0x920
 1722 07ff 2C000000 		.4byte	.LBI12
 1723 0803 01       		.byte	.LVU81
 1724 0804 2C000000 		.4byte	.LBB12
 1725 0808 04000000 		.4byte	.LBE12-.LBB12
 1726 080c 8F02     		.2byte	0x28f
 1727 080e 00       		.byte	0
 1728 080f 08       		.uleb128 0x8
 1729 0810 35040000 		.4byte	.LASF112
 1730 0814 3402     		.2byte	0x234
 1731 0816 00000000 		.4byte	.LFB149
 1732 081a 1C000000 		.4byte	.LFE149-.LFB149
 1733 081e 01       		.uleb128 0x1
 1734 081f 9C       		.byte	0x9c
 1735 0820 41080000 		.4byte	0x841
 1736 0824 0D       		.uleb128 0xd
 1737 0825 86050000 		.4byte	.LASF110
 1738 0829 3402     		.2byte	0x234
 1739 082b 27       		.byte	0x27
 1740 082c 95000000 		.4byte	0x95
 1741 0830 01       		.uleb128 0x1
 1742 0831 50       		.byte	0x50
 1743 0832 0D       		.uleb128 0xd
 1744 0833 0D030000 		.4byte	.LASF113
 1745 0837 3402     		.2byte	0x234
 1746 0839 3A       		.byte	0x3a
 1747 083a 84000000 		.4byte	0x84
 1748 083e 01       		.uleb128 0x1
 1749 083f 51       		.byte	0x51
 1750 0840 00       		.byte	0
 1751 0841 08       		.uleb128 0x8
 1752 0842 1E020000 		.4byte	.LASF114
 1753 0846 1802     		.2byte	0x218
 1754 0848 00000000 		.4byte	.LFB148
 1755 084c 14000000 		.4byte	.LFE148-.LFB148
 1756 0850 01       		.uleb128 0x1
 1757 0851 9C       		.byte	0x9c
 1758 0852 6B080000 		.4byte	0x86b
 1759 0856 0F       		.uleb128 0xf
 1760 0857 1B010000 		.4byte	.LASF116
 1761 085b 1802     		.2byte	0x218
 1762 085d 29       		.byte	0x29
 1763 085e 95000000 		.4byte	0x95
 1764 0862 10000000 		.4byte	.LLST2
 1765 0866 0C000000 		.4byte	.LVUS2
 1766 086a 00       		.byte	0
 1767 086b 08       		.uleb128 0x8
ARM GAS  C:\Users\DEVELO~1\AppData\Local\Temp\ccZmF6ca.s 			page 32


 1768 086c BA050000 		.4byte	.LASF115
 1769 0870 FB01     		.2byte	0x1fb
 1770 0872 00000000 		.4byte	.LFB147
 1771 0876 18000000 		.4byte	.LFE147-.LFB147
 1772 087a 01       		.uleb128 0x1
 1773 087b 9C       		.byte	0x9c
 1774 087c 95080000 		.4byte	0x895
 1775 0880 0F       		.uleb128 0xf
 1776 0881 8D030000 		.4byte	.LASF117
 1777 0885 FB01     		.2byte	0x1fb
 1778 0887 28       		.byte	0x28
 1779 0888 95000000 		.4byte	0x95
 1780 088c 27000000 		.4byte	.LLST1
 1781 0890 23000000 		.4byte	.LVUS1
 1782 0894 00       		.byte	0
 1783 0895 07       		.uleb128 0x7
 1784 0896 11050000 		.4byte	.LASF118
 1785 089a E001     		.2byte	0x1e0
 1786 089c 06       		.byte	0x6
 1787 089d 00000000 		.4byte	.LFB146
 1788 08a1 10000000 		.4byte	.LFE146-.LFB146
 1789 08a5 01       		.uleb128 0x1
 1790 08a6 9C       		.byte	0x9c
 1791 08a7 07       		.uleb128 0x7
 1792 08a8 55030000 		.4byte	.LASF119
 1793 08ac D601     		.2byte	0x1d6
 1794 08ae 06       		.byte	0x6
 1795 08af 00000000 		.4byte	.LFB145
 1796 08b3 10000000 		.4byte	.LFE145-.LFB145
 1797 08b7 01       		.uleb128 0x1
 1798 08b8 9C       		.byte	0x9c
 1799 08b9 08       		.uleb128 0x8
 1800 08ba 85020000 		.4byte	.LASF120
 1801 08be 9F01     		.2byte	0x19f
 1802 08c0 00000000 		.4byte	.LFB144
 1803 08c4 94000000 		.4byte	.LFE144-.LFB144
 1804 08c8 01       		.uleb128 0x1
 1805 08c9 9C       		.byte	0x9c
 1806 08ca E3080000 		.4byte	0x8e3
 1807 08ce 0F       		.uleb128 0xf
 1808 08cf A7040000 		.4byte	.LASF121
 1809 08d3 9F01     		.2byte	0x19f
 1810 08d5 2F       		.byte	0x2f
 1811 08d6 E3080000 		.4byte	0x8e3
 1812 08da 40000000 		.4byte	.LLST0
 1813 08de 3A000000 		.4byte	.LVUS0
 1814 08e2 00       		.byte	0
 1815 08e3 19       		.uleb128 0x19
 1816 08e4 04       		.byte	0x4
 1817 08e5 F9060000 		.4byte	0x6f9
 1818 08e9 10       		.uleb128 0x10
 1819 08ea E2010000 		.4byte	.LASF122
 1820 08ee F9       		.byte	0xf9
 1821 08ef 00000000 		.4byte	.LFB143
 1822 08f3 10000000 		.4byte	.LFE143-.LFB143
 1823 08f7 01       		.uleb128 0x1
 1824 08f8 9C       		.byte	0x9c
ARM GAS  C:\Users\DEVELO~1\AppData\Local\Temp\ccZmF6ca.s 			page 33


 1825 08f9 10       		.uleb128 0x10
 1826 08fa F2040000 		.4byte	.LASF123
 1827 08fe EC       		.byte	0xec
 1828 08ff 00000000 		.4byte	.LFB142
 1829 0903 10000000 		.4byte	.LFE142-.LFB142
 1830 0907 01       		.uleb128 0x1
 1831 0908 9C       		.byte	0x9c
 1832 0909 10       		.uleb128 0x10
 1833 090a 43050000 		.4byte	.LASF124
 1834 090e E1       		.byte	0xe1
 1835 090f 00000000 		.4byte	.LFB141
 1836 0913 02000000 		.4byte	.LFE141-.LFB141
 1837 0917 01       		.uleb128 0x1
 1838 0918 9C       		.byte	0x9c
 1839 0919 13       		.uleb128 0x13
 1840 091a 1E030000 		.4byte	.LASF125
 1841 091e 6D03     		.2byte	0x36d
 1842 0920 13       		.uleb128 0x13
 1843 0921 7A030000 		.4byte	.LASF126
 1844 0925 6203     		.2byte	0x362
 1845 0927 00       		.byte	0
 1846              		.section	.debug_abbrev,"",%progbits
 1847              	.Ldebug_abbrev0:
 1848 0000 01       		.uleb128 0x1
 1849 0001 0D       		.uleb128 0xd
 1850 0002 00       		.byte	0
 1851 0003 03       		.uleb128 0x3
 1852 0004 0E       		.uleb128 0xe
 1853 0005 3A       		.uleb128 0x3a
 1854 0006 0B       		.uleb128 0xb
 1855 0007 3B       		.uleb128 0x3b
 1856 0008 05       		.uleb128 0x5
 1857 0009 39       		.uleb128 0x39
 1858 000a 0B       		.uleb128 0xb
 1859 000b 49       		.uleb128 0x49
 1860 000c 13       		.uleb128 0x13
 1861 000d 38       		.uleb128 0x38
 1862 000e 0B       		.uleb128 0xb
 1863 000f 00       		.byte	0
 1864 0010 00       		.byte	0
 1865 0011 02       		.uleb128 0x2
 1866 0012 0D       		.uleb128 0xd
 1867 0013 00       		.byte	0
 1868 0014 03       		.uleb128 0x3
 1869 0015 0E       		.uleb128 0xe
 1870 0016 3A       		.uleb128 0x3a
 1871 0017 21       		.uleb128 0x21
 1872 0018 05       		.sleb128 5
 1873 0019 3B       		.uleb128 0x3b
 1874 001a 05       		.uleb128 0x5
 1875 001b 39       		.uleb128 0x39
 1876 001c 21       		.uleb128 0x21
 1877 001d 12       		.sleb128 18
 1878 001e 49       		.uleb128 0x49
 1879 001f 13       		.uleb128 0x13
 1880 0020 38       		.uleb128 0x38
 1881 0021 05       		.uleb128 0x5
ARM GAS  C:\Users\DEVELO~1\AppData\Local\Temp\ccZmF6ca.s 			page 34


 1882 0022 00       		.byte	0
 1883 0023 00       		.byte	0
 1884 0024 03       		.uleb128 0x3
 1885 0025 24       		.uleb128 0x24
 1886 0026 00       		.byte	0
 1887 0027 0B       		.uleb128 0xb
 1888 0028 0B       		.uleb128 0xb
 1889 0029 3E       		.uleb128 0x3e
 1890 002a 0B       		.uleb128 0xb
 1891 002b 03       		.uleb128 0x3
 1892 002c 0E       		.uleb128 0xe
 1893 002d 00       		.byte	0
 1894 002e 00       		.byte	0
 1895 002f 04       		.uleb128 0x4
 1896 0030 01       		.uleb128 0x1
 1897 0031 01       		.byte	0x1
 1898 0032 49       		.uleb128 0x49
 1899 0033 13       		.uleb128 0x13
 1900 0034 01       		.uleb128 0x1
 1901 0035 13       		.uleb128 0x13
 1902 0036 00       		.byte	0
 1903 0037 00       		.byte	0
 1904 0038 05       		.uleb128 0x5
 1905 0039 21       		.uleb128 0x21
 1906 003a 00       		.byte	0
 1907 003b 49       		.uleb128 0x49
 1908 003c 13       		.uleb128 0x13
 1909 003d 2F       		.uleb128 0x2f
 1910 003e 0B       		.uleb128 0xb
 1911 003f 00       		.byte	0
 1912 0040 00       		.byte	0
 1913 0041 06       		.uleb128 0x6
 1914 0042 0D       		.uleb128 0xd
 1915 0043 00       		.byte	0
 1916 0044 03       		.uleb128 0x3
 1917 0045 08       		.uleb128 0x8
 1918 0046 3A       		.uleb128 0x3a
 1919 0047 0B       		.uleb128 0xb
 1920 0048 3B       		.uleb128 0x3b
 1921 0049 05       		.uleb128 0x5
 1922 004a 39       		.uleb128 0x39
 1923 004b 0B       		.uleb128 0xb
 1924 004c 49       		.uleb128 0x49
 1925 004d 13       		.uleb128 0x13
 1926 004e 38       		.uleb128 0x38
 1927 004f 0B       		.uleb128 0xb
 1928 0050 00       		.byte	0
 1929 0051 00       		.byte	0
 1930 0052 07       		.uleb128 0x7
 1931 0053 2E       		.uleb128 0x2e
 1932 0054 00       		.byte	0
 1933 0055 3F       		.uleb128 0x3f
 1934 0056 19       		.uleb128 0x19
 1935 0057 03       		.uleb128 0x3
 1936 0058 0E       		.uleb128 0xe
 1937 0059 3A       		.uleb128 0x3a
 1938 005a 21       		.uleb128 0x21
ARM GAS  C:\Users\DEVELO~1\AppData\Local\Temp\ccZmF6ca.s 			page 35


 1939 005b 01       		.sleb128 1
 1940 005c 3B       		.uleb128 0x3b
 1941 005d 05       		.uleb128 0x5
 1942 005e 39       		.uleb128 0x39
 1943 005f 0B       		.uleb128 0xb
 1944 0060 27       		.uleb128 0x27
 1945 0061 19       		.uleb128 0x19
 1946 0062 11       		.uleb128 0x11
 1947 0063 01       		.uleb128 0x1
 1948 0064 12       		.uleb128 0x12
 1949 0065 06       		.uleb128 0x6
 1950 0066 40       		.uleb128 0x40
 1951 0067 18       		.uleb128 0x18
 1952 0068 7A       		.uleb128 0x7a
 1953 0069 19       		.uleb128 0x19
 1954 006a 00       		.byte	0
 1955 006b 00       		.byte	0
 1956 006c 08       		.uleb128 0x8
 1957 006d 2E       		.uleb128 0x2e
 1958 006e 01       		.byte	0x1
 1959 006f 3F       		.uleb128 0x3f
 1960 0070 19       		.uleb128 0x19
 1961 0071 03       		.uleb128 0x3
 1962 0072 0E       		.uleb128 0xe
 1963 0073 3A       		.uleb128 0x3a
 1964 0074 21       		.uleb128 0x21
 1965 0075 01       		.sleb128 1
 1966 0076 3B       		.uleb128 0x3b
 1967 0077 05       		.uleb128 0x5
 1968 0078 39       		.uleb128 0x39
 1969 0079 21       		.uleb128 0x21
 1970 007a 06       		.sleb128 6
 1971 007b 27       		.uleb128 0x27
 1972 007c 19       		.uleb128 0x19
 1973 007d 11       		.uleb128 0x11
 1974 007e 01       		.uleb128 0x1
 1975 007f 12       		.uleb128 0x12
 1976 0080 06       		.uleb128 0x6
 1977 0081 40       		.uleb128 0x40
 1978 0082 18       		.uleb128 0x18
 1979 0083 7A       		.uleb128 0x7a
 1980 0084 19       		.uleb128 0x19
 1981 0085 01       		.uleb128 0x1
 1982 0086 13       		.uleb128 0x13
 1983 0087 00       		.byte	0
 1984 0088 00       		.byte	0
 1985 0089 09       		.uleb128 0x9
 1986 008a 35       		.uleb128 0x35
 1987 008b 00       		.byte	0
 1988 008c 49       		.uleb128 0x49
 1989 008d 13       		.uleb128 0x13
 1990 008e 00       		.byte	0
 1991 008f 00       		.byte	0
 1992 0090 0A       		.uleb128 0xa
 1993 0091 16       		.uleb128 0x16
 1994 0092 00       		.byte	0
 1995 0093 03       		.uleb128 0x3
ARM GAS  C:\Users\DEVELO~1\AppData\Local\Temp\ccZmF6ca.s 			page 36


 1996 0094 0E       		.uleb128 0xe
 1997 0095 3A       		.uleb128 0x3a
 1998 0096 0B       		.uleb128 0xb
 1999 0097 3B       		.uleb128 0x3b
 2000 0098 0B       		.uleb128 0xb
 2001 0099 39       		.uleb128 0x39
 2002 009a 0B       		.uleb128 0xb
 2003 009b 49       		.uleb128 0x49
 2004 009c 13       		.uleb128 0x13
 2005 009d 00       		.byte	0
 2006 009e 00       		.byte	0
 2007 009f 0B       		.uleb128 0xb
 2008 00a0 26       		.uleb128 0x26
 2009 00a1 00       		.byte	0
 2010 00a2 49       		.uleb128 0x49
 2011 00a3 13       		.uleb128 0x13
 2012 00a4 00       		.byte	0
 2013 00a5 00       		.byte	0
 2014 00a6 0C       		.uleb128 0xc
 2015 00a7 1D       		.uleb128 0x1d
 2016 00a8 00       		.byte	0
 2017 00a9 31       		.uleb128 0x31
 2018 00aa 13       		.uleb128 0x13
 2019 00ab 52       		.uleb128 0x52
 2020 00ac 01       		.uleb128 0x1
 2021 00ad B842     		.uleb128 0x2138
 2022 00af 0B       		.uleb128 0xb
 2023 00b0 11       		.uleb128 0x11
 2024 00b1 01       		.uleb128 0x1
 2025 00b2 12       		.uleb128 0x12
 2026 00b3 06       		.uleb128 0x6
 2027 00b4 58       		.uleb128 0x58
 2028 00b5 21       		.uleb128 0x21
 2029 00b6 01       		.sleb128 1
 2030 00b7 59       		.uleb128 0x59
 2031 00b8 05       		.uleb128 0x5
 2032 00b9 57       		.uleb128 0x57
 2033 00ba 21       		.uleb128 0x21
 2034 00bb 03       		.sleb128 3
 2035 00bc 00       		.byte	0
 2036 00bd 00       		.byte	0
 2037 00be 0D       		.uleb128 0xd
 2038 00bf 05       		.uleb128 0x5
 2039 00c0 00       		.byte	0
 2040 00c1 03       		.uleb128 0x3
 2041 00c2 0E       		.uleb128 0xe
 2042 00c3 3A       		.uleb128 0x3a
 2043 00c4 21       		.uleb128 0x21
 2044 00c5 01       		.sleb128 1
 2045 00c6 3B       		.uleb128 0x3b
 2046 00c7 05       		.uleb128 0x5
 2047 00c8 39       		.uleb128 0x39
 2048 00c9 0B       		.uleb128 0xb
 2049 00ca 49       		.uleb128 0x49
 2050 00cb 13       		.uleb128 0x13
 2051 00cc 02       		.uleb128 0x2
 2052 00cd 18       		.uleb128 0x18
ARM GAS  C:\Users\DEVELO~1\AppData\Local\Temp\ccZmF6ca.s 			page 37


 2053 00ce 00       		.byte	0
 2054 00cf 00       		.byte	0
 2055 00d0 0E       		.uleb128 0xe
 2056 00d1 16       		.uleb128 0x16
 2057 00d2 00       		.byte	0
 2058 00d3 03       		.uleb128 0x3
 2059 00d4 0E       		.uleb128 0xe
 2060 00d5 3A       		.uleb128 0x3a
 2061 00d6 0B       		.uleb128 0xb
 2062 00d7 3B       		.uleb128 0x3b
 2063 00d8 05       		.uleb128 0x5
 2064 00d9 39       		.uleb128 0x39
 2065 00da 0B       		.uleb128 0xb
 2066 00db 49       		.uleb128 0x49
 2067 00dc 13       		.uleb128 0x13
 2068 00dd 00       		.byte	0
 2069 00de 00       		.byte	0
 2070 00df 0F       		.uleb128 0xf
 2071 00e0 05       		.uleb128 0x5
 2072 00e1 00       		.byte	0
 2073 00e2 03       		.uleb128 0x3
 2074 00e3 0E       		.uleb128 0xe
 2075 00e4 3A       		.uleb128 0x3a
 2076 00e5 21       		.uleb128 0x21
 2077 00e6 01       		.sleb128 1
 2078 00e7 3B       		.uleb128 0x3b
 2079 00e8 05       		.uleb128 0x5
 2080 00e9 39       		.uleb128 0x39
 2081 00ea 0B       		.uleb128 0xb
 2082 00eb 49       		.uleb128 0x49
 2083 00ec 13       		.uleb128 0x13
 2084 00ed 02       		.uleb128 0x2
 2085 00ee 17       		.uleb128 0x17
 2086 00ef B742     		.uleb128 0x2137
 2087 00f1 17       		.uleb128 0x17
 2088 00f2 00       		.byte	0
 2089 00f3 00       		.byte	0
 2090 00f4 10       		.uleb128 0x10
 2091 00f5 2E       		.uleb128 0x2e
 2092 00f6 00       		.byte	0
 2093 00f7 3F       		.uleb128 0x3f
 2094 00f8 19       		.uleb128 0x19
 2095 00f9 03       		.uleb128 0x3
 2096 00fa 0E       		.uleb128 0xe
 2097 00fb 3A       		.uleb128 0x3a
 2098 00fc 21       		.uleb128 0x21
 2099 00fd 01       		.sleb128 1
 2100 00fe 3B       		.uleb128 0x3b
 2101 00ff 0B       		.uleb128 0xb
 2102 0100 39       		.uleb128 0x39
 2103 0101 21       		.uleb128 0x21
 2104 0102 06       		.sleb128 6
 2105 0103 27       		.uleb128 0x27
 2106 0104 19       		.uleb128 0x19
 2107 0105 11       		.uleb128 0x11
 2108 0106 01       		.uleb128 0x1
 2109 0107 12       		.uleb128 0x12
ARM GAS  C:\Users\DEVELO~1\AppData\Local\Temp\ccZmF6ca.s 			page 38


 2110 0108 06       		.uleb128 0x6
 2111 0109 40       		.uleb128 0x40
 2112 010a 18       		.uleb128 0x18
 2113 010b 7A       		.uleb128 0x7a
 2114 010c 19       		.uleb128 0x19
 2115 010d 00       		.byte	0
 2116 010e 00       		.byte	0
 2117 010f 11       		.uleb128 0x11
 2118 0110 13       		.uleb128 0x13
 2119 0111 01       		.byte	0x1
 2120 0112 0B       		.uleb128 0xb
 2121 0113 0B       		.uleb128 0xb
 2122 0114 3A       		.uleb128 0x3a
 2123 0115 21       		.uleb128 0x21
 2124 0116 06       		.sleb128 6
 2125 0117 3B       		.uleb128 0x3b
 2126 0118 05       		.uleb128 0x5
 2127 0119 39       		.uleb128 0x39
 2128 011a 21       		.uleb128 0x21
 2129 011b 09       		.sleb128 9
 2130 011c 01       		.uleb128 0x1
 2131 011d 13       		.uleb128 0x13
 2132 011e 00       		.byte	0
 2133 011f 00       		.byte	0
 2134 0120 12       		.uleb128 0x12
 2135 0121 0D       		.uleb128 0xd
 2136 0122 00       		.byte	0
 2137 0123 03       		.uleb128 0x3
 2138 0124 0E       		.uleb128 0xe
 2139 0125 3A       		.uleb128 0x3a
 2140 0126 21       		.uleb128 0x21
 2141 0127 07       		.sleb128 7
 2142 0128 3B       		.uleb128 0x3b
 2143 0129 0B       		.uleb128 0xb
 2144 012a 39       		.uleb128 0x39
 2145 012b 21       		.uleb128 0x21
 2146 012c 0C       		.sleb128 12
 2147 012d 49       		.uleb128 0x49
 2148 012e 13       		.uleb128 0x13
 2149 012f 38       		.uleb128 0x38
 2150 0130 0B       		.uleb128 0xb
 2151 0131 00       		.byte	0
 2152 0132 00       		.byte	0
 2153 0133 13       		.uleb128 0x13
 2154 0134 2E       		.uleb128 0x2e
 2155 0135 00       		.byte	0
 2156 0136 03       		.uleb128 0x3
 2157 0137 0E       		.uleb128 0xe
 2158 0138 3A       		.uleb128 0x3a
 2159 0139 21       		.uleb128 0x21
 2160 013a 02       		.sleb128 2
 2161 013b 3B       		.uleb128 0x3b
 2162 013c 05       		.uleb128 0x5
 2163 013d 39       		.uleb128 0x39
 2164 013e 21       		.uleb128 0x21
 2165 013f 1B       		.sleb128 27
 2166 0140 27       		.uleb128 0x27
ARM GAS  C:\Users\DEVELO~1\AppData\Local\Temp\ccZmF6ca.s 			page 39


 2167 0141 19       		.uleb128 0x19
 2168 0142 20       		.uleb128 0x20
 2169 0143 21       		.uleb128 0x21
 2170 0144 03       		.sleb128 3
 2171 0145 00       		.byte	0
 2172 0146 00       		.byte	0
 2173 0147 14       		.uleb128 0x14
 2174 0148 11       		.uleb128 0x11
 2175 0149 01       		.byte	0x1
 2176 014a 25       		.uleb128 0x25
 2177 014b 0E       		.uleb128 0xe
 2178 014c 13       		.uleb128 0x13
 2179 014d 0B       		.uleb128 0xb
 2180 014e 03       		.uleb128 0x3
 2181 014f 0E       		.uleb128 0xe
 2182 0150 1B       		.uleb128 0x1b
 2183 0151 0E       		.uleb128 0xe
 2184 0152 55       		.uleb128 0x55
 2185 0153 17       		.uleb128 0x17
 2186 0154 11       		.uleb128 0x11
 2187 0155 01       		.uleb128 0x1
 2188 0156 10       		.uleb128 0x10
 2189 0157 17       		.uleb128 0x17
 2190 0158 00       		.byte	0
 2191 0159 00       		.byte	0
 2192 015a 15       		.uleb128 0x15
 2193 015b 24       		.uleb128 0x24
 2194 015c 00       		.byte	0
 2195 015d 0B       		.uleb128 0xb
 2196 015e 0B       		.uleb128 0xb
 2197 015f 3E       		.uleb128 0x3e
 2198 0160 0B       		.uleb128 0xb
 2199 0161 03       		.uleb128 0x3
 2200 0162 08       		.uleb128 0x8
 2201 0163 00       		.byte	0
 2202 0164 00       		.byte	0
 2203 0165 16       		.uleb128 0x16
 2204 0166 13       		.uleb128 0x13
 2205 0167 01       		.byte	0x1
 2206 0168 0B       		.uleb128 0xb
 2207 0169 05       		.uleb128 0x5
 2208 016a 3A       		.uleb128 0x3a
 2209 016b 0B       		.uleb128 0xb
 2210 016c 3B       		.uleb128 0x3b
 2211 016d 05       		.uleb128 0x5
 2212 016e 39       		.uleb128 0x39
 2213 016f 0B       		.uleb128 0xb
 2214 0170 01       		.uleb128 0x1
 2215 0171 13       		.uleb128 0x13
 2216 0172 00       		.byte	0
 2217 0173 00       		.byte	0
 2218 0174 17       		.uleb128 0x17
 2219 0175 13       		.uleb128 0x13
 2220 0176 01       		.byte	0x1
 2221 0177 0B       		.uleb128 0xb
 2222 0178 0B       		.uleb128 0xb
 2223 0179 3A       		.uleb128 0x3a
ARM GAS  C:\Users\DEVELO~1\AppData\Local\Temp\ccZmF6ca.s 			page 40


 2224 017a 0B       		.uleb128 0xb
 2225 017b 3B       		.uleb128 0x3b
 2226 017c 0B       		.uleb128 0xb
 2227 017d 39       		.uleb128 0x39
 2228 017e 0B       		.uleb128 0xb
 2229 017f 01       		.uleb128 0x1
 2230 0180 13       		.uleb128 0x13
 2231 0181 00       		.byte	0
 2232 0182 00       		.byte	0
 2233 0183 18       		.uleb128 0x18
 2234 0184 48       		.uleb128 0x48
 2235 0185 00       		.byte	0
 2236 0186 7D       		.uleb128 0x7d
 2237 0187 01       		.uleb128 0x1
 2238 0188 7F       		.uleb128 0x7f
 2239 0189 13       		.uleb128 0x13
 2240 018a 00       		.byte	0
 2241 018b 00       		.byte	0
 2242 018c 19       		.uleb128 0x19
 2243 018d 0F       		.uleb128 0xf
 2244 018e 00       		.byte	0
 2245 018f 0B       		.uleb128 0xb
 2246 0190 0B       		.uleb128 0xb
 2247 0191 49       		.uleb128 0x49
 2248 0192 13       		.uleb128 0x13
 2249 0193 00       		.byte	0
 2250 0194 00       		.byte	0
 2251 0195 00       		.byte	0
 2252              		.section	.debug_loclists,"",%progbits
 2253 0000 57000000 		.4byte	.Ldebug_loc3-.Ldebug_loc2
 2254              	.Ldebug_loc2:
 2255 0004 0500     		.2byte	0x5
 2256 0006 04       		.byte	0x4
 2257 0007 00       		.byte	0
 2258 0008 00000000 		.4byte	0
 2259              	.Ldebug_loc0:
 2260              	.LVUS2:
 2261 000c 00       		.uleb128 0
 2262 000d 00       		.uleb128 .LVU52
 2263 000e 00       		.uleb128 .LVU52
 2264 000f 00       		.uleb128 0
 2265              	.LLST2:
 2266 0010 06       		.byte	0x6
 2267 0011 00000000 		.4byte	.LVL5
 2268 0015 04       		.byte	0x4
 2269 0016 00       		.uleb128 .LVL5-.LVL5
 2270 0017 06       		.uleb128 .LVL6-.LVL5
 2271 0018 01       		.uleb128 0x1
 2272 0019 50       		.byte	0x50
 2273 001a 04       		.byte	0x4
 2274 001b 06       		.uleb128 .LVL6-.LVL5
 2275 001c 14       		.uleb128 .LFE148-.LVL5
 2276 001d 04       		.uleb128 0x4
 2277 001e A3       		.byte	0xa3
 2278 001f 01       		.uleb128 0x1
 2279 0020 50       		.byte	0x50
 2280 0021 9F       		.byte	0x9f
ARM GAS  C:\Users\DEVELO~1\AppData\Local\Temp\ccZmF6ca.s 			page 41


 2281 0022 00       		.byte	0
 2282              	.LVUS1:
 2283 0023 00       		.uleb128 0
 2284 0024 00       		.uleb128 .LVU47
 2285 0025 00       		.uleb128 .LVU47
 2286 0026 00       		.uleb128 0
 2287              	.LLST1:
 2288 0027 06       		.byte	0x6
 2289 0028 00000000 		.4byte	.LVL3
 2290 002c 04       		.byte	0x4
 2291 002d 00       		.uleb128 .LVL3-.LVL3
 2292 002e 0A       		.uleb128 .LVL4-.LVL3
 2293 002f 01       		.uleb128 0x1
 2294 0030 50       		.byte	0x50
 2295 0031 04       		.byte	0x4
 2296 0032 0A       		.uleb128 .LVL4-.LVL3
 2297 0033 18       		.uleb128 .LFE147-.LVL3
 2298 0034 04       		.uleb128 0x4
 2299 0035 A3       		.byte	0xa3
 2300 0036 01       		.uleb128 0x1
 2301 0037 50       		.byte	0x50
 2302 0038 9F       		.byte	0x9f
 2303 0039 00       		.byte	0
 2304              	.LVUS0:
 2305 003a 00       		.uleb128 0
 2306 003b 00       		.uleb128 .LVU28
 2307 003c 00       		.uleb128 .LVU28
 2308 003d 00       		.uleb128 .LVU37
 2309 003e 00       		.uleb128 .LVU37
 2310 003f 00       		.uleb128 0
 2311              	.LLST0:
 2312 0040 06       		.byte	0x6
 2313 0041 00000000 		.4byte	.LVL0
 2314 0045 04       		.byte	0x4
 2315 0046 00       		.uleb128 .LVL0-.LVL0
 2316 0047 54       		.uleb128 .LVL1-.LVL0
 2317 0048 01       		.uleb128 0x1
 2318 0049 50       		.byte	0x50
 2319 004a 04       		.byte	0x4
 2320 004b 54       		.uleb128 .LVL1-.LVL0
 2321 004c 8C01     		.uleb128 .LVL2-.LVL0
 2322 004e 04       		.uleb128 0x4
 2323 004f A3       		.byte	0xa3
 2324 0050 01       		.uleb128 0x1
 2325 0051 50       		.byte	0x50
 2326 0052 9F       		.byte	0x9f
 2327 0053 04       		.byte	0x4
 2328 0054 8C01     		.uleb128 .LVL2-.LVL0
 2329 0056 9401     		.uleb128 .LFE144-.LVL0
 2330 0058 01       		.uleb128 0x1
 2331 0059 50       		.byte	0x50
 2332 005a 00       		.byte	0
 2333              	.Ldebug_loc3:
 2334              		.section	.debug_aranges,"",%progbits
 2335 0000 9C000000 		.4byte	0x9c
 2336 0004 0200     		.2byte	0x2
 2337 0006 00000000 		.4byte	.Ldebug_info0
ARM GAS  C:\Users\DEVELO~1\AppData\Local\Temp\ccZmF6ca.s 			page 42


 2338 000a 04       		.byte	0x4
 2339 000b 00       		.byte	0
 2340 000c 0000     		.2byte	0
 2341 000e 0000     		.2byte	0
 2342 0010 00000000 		.4byte	.LFB141
 2343 0014 02000000 		.4byte	.LFE141-.LFB141
 2344 0018 00000000 		.4byte	.LFB142
 2345 001c 10000000 		.4byte	.LFE142-.LFB142
 2346 0020 00000000 		.4byte	.LFB143
 2347 0024 10000000 		.4byte	.LFE143-.LFB143
 2348 0028 00000000 		.4byte	.LFB144
 2349 002c 94000000 		.4byte	.LFE144-.LFB144
 2350 0030 00000000 		.4byte	.LFB145
 2351 0034 10000000 		.4byte	.LFE145-.LFB145
 2352 0038 00000000 		.4byte	.LFB146
 2353 003c 10000000 		.4byte	.LFE146-.LFB146
 2354 0040 00000000 		.4byte	.LFB147
 2355 0044 18000000 		.4byte	.LFE147-.LFB147
 2356 0048 00000000 		.4byte	.LFB148
 2357 004c 14000000 		.4byte	.LFE148-.LFB148
 2358 0050 00000000 		.4byte	.LFB149
 2359 0054 1C000000 		.4byte	.LFE149-.LFB149
 2360 0058 00000000 		.4byte	.LFB150
 2361 005c 54000000 		.4byte	.LFE150-.LFB150
 2362 0060 00000000 		.4byte	.LFB151
 2363 0064 30000000 		.4byte	.LFE151-.LFB151
 2364 0068 00000000 		.4byte	.LFB152
 2365 006c 10000000 		.4byte	.LFE152-.LFB152
 2366 0070 00000000 		.4byte	.LFB153
 2367 0074 10000000 		.4byte	.LFE153-.LFB153
 2368 0078 00000000 		.4byte	.LFB154
 2369 007c 10000000 		.4byte	.LFE154-.LFB154
 2370 0080 00000000 		.4byte	.LFB155
 2371 0084 10000000 		.4byte	.LFE155-.LFB155
 2372 0088 00000000 		.4byte	.LFB157
 2373 008c 02000000 		.4byte	.LFE157-.LFB157
 2374 0090 00000000 		.4byte	.LFB156
 2375 0094 22000000 		.4byte	.LFE156-.LFB156
 2376 0098 00000000 		.4byte	0
 2377 009c 00000000 		.4byte	0
 2378              		.section	.debug_rnglists,"",%progbits
 2379              	.Ldebug_ranges0:
 2380 0000 70000000 		.4byte	.Ldebug_ranges3-.Ldebug_ranges2
 2381              	.Ldebug_ranges2:
 2382 0004 0500     		.2byte	0x5
 2383 0006 04       		.byte	0x4
 2384 0007 00       		.byte	0
 2385 0008 00000000 		.4byte	0
 2386              	.LLRL3:
 2387 000c 07       		.byte	0x7
 2388 000d 00000000 		.4byte	.LFB141
 2389 0011 02       		.uleb128 .LFE141-.LFB141
 2390 0012 07       		.byte	0x7
 2391 0013 00000000 		.4byte	.LFB142
 2392 0017 10       		.uleb128 .LFE142-.LFB142
 2393 0018 07       		.byte	0x7
 2394 0019 00000000 		.4byte	.LFB143
ARM GAS  C:\Users\DEVELO~1\AppData\Local\Temp\ccZmF6ca.s 			page 43


 2395 001d 10       		.uleb128 .LFE143-.LFB143
 2396 001e 07       		.byte	0x7
 2397 001f 00000000 		.4byte	.LFB144
 2398 0023 9401     		.uleb128 .LFE144-.LFB144
 2399 0025 07       		.byte	0x7
 2400 0026 00000000 		.4byte	.LFB145
 2401 002a 10       		.uleb128 .LFE145-.LFB145
 2402 002b 07       		.byte	0x7
 2403 002c 00000000 		.4byte	.LFB146
 2404 0030 10       		.uleb128 .LFE146-.LFB146
 2405 0031 07       		.byte	0x7
 2406 0032 00000000 		.4byte	.LFB147
 2407 0036 18       		.uleb128 .LFE147-.LFB147
 2408 0037 07       		.byte	0x7
 2409 0038 00000000 		.4byte	.LFB148
 2410 003c 14       		.uleb128 .LFE148-.LFB148
 2411 003d 07       		.byte	0x7
 2412 003e 00000000 		.4byte	.LFB149
 2413 0042 1C       		.uleb128 .LFE149-.LFB149
 2414 0043 07       		.byte	0x7
 2415 0044 00000000 		.4byte	.LFB150
 2416 0048 54       		.uleb128 .LFE150-.LFB150
 2417 0049 07       		.byte	0x7
 2418 004a 00000000 		.4byte	.LFB151
 2419 004e 30       		.uleb128 .LFE151-.LFB151
 2420 004f 07       		.byte	0x7
 2421 0050 00000000 		.4byte	.LFB152
 2422 0054 10       		.uleb128 .LFE152-.LFB152
 2423 0055 07       		.byte	0x7
 2424 0056 00000000 		.4byte	.LFB153
 2425 005a 10       		.uleb128 .LFE153-.LFB153
 2426 005b 07       		.byte	0x7
 2427 005c 00000000 		.4byte	.LFB154
 2428 0060 10       		.uleb128 .LFE154-.LFB154
 2429 0061 07       		.byte	0x7
 2430 0062 00000000 		.4byte	.LFB155
 2431 0066 10       		.uleb128 .LFE155-.LFB155
 2432 0067 07       		.byte	0x7
 2433 0068 00000000 		.4byte	.LFB157
 2434 006c 02       		.uleb128 .LFE157-.LFB157
 2435 006d 07       		.byte	0x7
 2436 006e 00000000 		.4byte	.LFB156
 2437 0072 22       		.uleb128 .LFE156-.LFB156
 2438 0073 00       		.byte	0
 2439              	.Ldebug_ranges3:
 2440              		.section	.debug_line,"",%progbits
 2441              	.Ldebug_line0:
 2442 0000 88040000 		.section	.debug_str,"MS",%progbits,1
 2442      0300DE01 
 2442      00000201 
 2442      FB0E0D00 
 2442      01010101 
 2443              	.LASF80:
 2444 0000 44335043 		.ascii	"D3PCR3H\000"
 2444      52334800 
 2445              	.LASF17:
 2446 0008 53485052 		.ascii	"SHPR\000"
ARM GAS  C:\Users\DEVELO~1\AppData\Local\Temp\ccZmF6ca.s 			page 44


 2446      00
 2447              	.LASF79:
 2448 000d 44335043 		.ascii	"D3PCR3L\000"
 2448      52334C00 
 2449              	.LASF57:
 2450 0015 41484253 		.ascii	"AHBSCR\000"
 2450      435200
 2451              	.LASF129:
 2452 001c 433A5C43 		.ascii	"C:\\ChibiStudio\\ChibiOS-master\\demos\\STM32\\CUST"
 2452      68696269 
 2452      53747564 
 2452      696F5C43 
 2452      68696269 
 2453 004a 4F4D5F48 		.ascii	"OM_H743IIT6_maj\000"
 2453      37343349 
 2453      4954365F 
 2453      6D616A00 
 2454              	.LASF5:
 2455 005a 5F5F7569 		.ascii	"__uint8_t\000"
 2455      6E74385F 
 2455      7400
 2456              	.LASF36:
 2457 0064 53544952 		.ascii	"STIR\000"
 2457      00
 2458              	.LASF127:
 2459 0069 474E5520 		.ascii	"GNU C17 11.3.1 20220712 -mcpu=cortex-m7 -mthumb -mf"
 2459      43313720 
 2459      31312E33 
 2459      2E312032 
 2459      30323230 
 2460 009c 6C6F6174 		.ascii	"loat-abi=hard -mfpu=fpv5-d16 -march=armv7e-m+fp.dp "
 2460      2D616269 
 2460      3D686172 
 2460      64202D6D 
 2460      6670753D 
 2461 00cf 2D676764 		.ascii	"-ggdb -O2 -ffunction-sections -fdata-sections -fno-"
 2461      62202D4F 
 2461      32202D66 
 2461      66756E63 
 2461      74696F6E 
 2462 0102 636F6D6D 		.ascii	"common\000"
 2462      6F6E00
 2463              	.LASF62:
 2464 0109 46545352 		.ascii	"FTSR1\000"
 2464      3100
 2465              	.LASF69:
 2466 010f 46545352 		.ascii	"FTSR2\000"
 2466      3200
 2467              	.LASF76:
 2468 0115 46545352 		.ascii	"FTSR3\000"
 2468      3300
 2469              	.LASF116:
 2470 011b 57616B65 		.ascii	"WakeUpPinx\000"
 2470      55705069 
 2470      6E7800
 2471              	.LASF9:
 2472 0126 6C6F6E67 		.ascii	"long long unsigned int\000"
ARM GAS  C:\Users\DEVELO~1\AppData\Local\Temp\ccZmF6ca.s 			page 45


 2472      206C6F6E 
 2472      6720756E 
 2472      7369676E 
 2472      65642069 
 2473              	.LASF31:
 2474 013d 434C4944 		.ascii	"CLIDR\000"
 2474      5200
 2475              	.LASF13:
 2476 0143 43505549 		.ascii	"CPUID\000"
 2476      4400
 2477              	.LASF99:
 2478 0149 5056444C 		.ascii	"PVDLevel\000"
 2478      6576656C 
 2478      00
 2479              	.LASF63:
 2480 0152 53574945 		.ascii	"SWIER1\000"
 2480      523100
 2481              	.LASF70:
 2482 0159 53574945 		.ascii	"SWIER2\000"
 2482      523200
 2483              	.LASF77:
 2484 0160 53574945 		.ascii	"SWIER3\000"
 2484      523300
 2485              	.LASF25:
 2486 0167 49445F50 		.ascii	"ID_PFR\000"
 2486      465200
 2487              	.LASF14:
 2488 016e 49435352 		.ascii	"ICSR\000"
 2488      00
 2489              	.LASF1:
 2490 0173 7369676E 		.ascii	"signed char\000"
 2490      65642063 
 2490      68617200 
 2491              	.LASF91:
 2492 017f 574B5550 		.ascii	"WKUPCR\000"
 2492      435200
 2493              	.LASF7:
 2494 0186 6C6F6E67 		.ascii	"long unsigned int\000"
 2494      20756E73 
 2494      69676E65 
 2494      6420696E 
 2494      7400
 2495              	.LASF94:
 2496 0198 5057525F 		.ascii	"PWR_TypeDef\000"
 2496      54797065 
 2496      44656600 
 2497              	.LASF4:
 2498 01a4 6C6F6E67 		.ascii	"long int\000"
 2498      20696E74 
 2498      00
 2499              	.LASF54:
 2500 01ad 4454434D 		.ascii	"DTCMCR\000"
 2500      435200
 2501              	.LASF108:
 2502 01b4 48414C5F 		.ascii	"HAL_PWR_EnterSTANDBYMode\000"
 2502      5057525F 
 2502      456E7465 
ARM GAS  C:\Users\DEVELO~1\AppData\Local\Temp\ccZmF6ca.s 			page 46


 2502      72535441 
 2502      4E444259 
 2503              	.LASF8:
 2504 01cd 6C6F6E67 		.ascii	"long long int\000"
 2504      206C6F6E 
 2504      6720696E 
 2504      7400
 2505              	.LASF98:
 2506 01db 646F7562 		.ascii	"double\000"
 2506      6C6500
 2507              	.LASF122:
 2508 01e2 48414C5F 		.ascii	"HAL_PWR_DisableBkUpAccess\000"
 2508      5057525F 
 2508      44697361 
 2508      626C6542 
 2508      6B557041 
 2509              	.LASF42:
 2510 01fc 49434941 		.ascii	"ICIALLU\000"
 2510      4C4C5500 
 2511              	.LASF23:
 2512 0204 42464152 		.ascii	"BFAR\000"
 2512      00
 2513              	.LASF24:
 2514 0209 41465352 		.ascii	"AFSR\000"
 2514      00
 2515              	.LASF6:
 2516 020e 5F5F7569 		.ascii	"__uint32_t\000"
 2516      6E743332 
 2516      5F7400
 2517              	.LASF100:
 2518 0219 4D6F6465 		.ascii	"Mode\000"
 2518      00
 2519              	.LASF114:
 2520 021e 48414C5F 		.ascii	"HAL_PWR_DisableWakeUpPin\000"
 2520      5057525F 
 2520      44697361 
 2520      626C6557 
 2520      616B6555 
 2521              	.LASF60:
 2522 0237 5343425F 		.ascii	"SCB_Type\000"
 2522      54797065 
 2522      00
 2523              	.LASF26:
 2524 0240 49445F44 		.ascii	"ID_DFR\000"
 2524      465200
 2525              	.LASF48:
 2526 0247 4443434D 		.ascii	"DCCMVAC\000"
 2526      56414300 
 2527              	.LASF56:
 2528 024f 43414352 		.ascii	"CACR\000"
 2528      00
 2529              	.LASF33:
 2530 0254 43535345 		.ascii	"CSSELR\000"
 2530      4C5200
 2531              	.LASF10:
 2532 025b 756E7369 		.ascii	"unsigned int\000"
 2532      676E6564 
ARM GAS  C:\Users\DEVELO~1\AppData\Local\Temp\ccZmF6ca.s 			page 47


 2532      20696E74 
 2532      00
 2533              	.LASF93:
 2534 0268 574B5550 		.ascii	"WKUPEPR\000"
 2534      45505200 
 2535              	.LASF47:
 2536 0270 4443434D 		.ascii	"DCCMVAU\000"
 2536      56415500 
 2537              	.LASF51:
 2538 0278 44434349 		.ascii	"DCCISW\000"
 2538      535700
 2539              	.LASF89:
 2540 027f 43505543 		.ascii	"CPUCR\000"
 2540      5200
 2541              	.LASF120:
 2542 0285 48414C5F 		.ascii	"HAL_PWR_ConfigPVD\000"
 2542      5057525F 
 2542      436F6E66 
 2542      69675056 
 2542      4400
 2543              	.LASF15:
 2544 0297 56544F52 		.ascii	"VTOR\000"
 2544      00
 2545              	.LASF3:
 2546 029c 73686F72 		.ascii	"short unsigned int\000"
 2546      7420756E 
 2546      7369676E 
 2546      65642069 
 2546      6E7400
 2547              	.LASF81:
 2548 02af 494D5231 		.ascii	"IMR1\000"
 2548      00
 2549              	.LASF83:
 2550 02b4 494D5232 		.ascii	"IMR2\000"
 2550      00
 2551              	.LASF85:
 2552 02b9 494D5233 		.ascii	"IMR3\000"
 2552      00
 2553              	.LASF128:
 2554 02be 2E2F6472 		.ascii	"./drivers/stm32h7xx-hal-driver/Src/stm32h7xx_hal_pw"
 2554      69766572 
 2554      732F7374 
 2554      6D333268 
 2554      3778782D 
 2555 02f1 722E6300 		.ascii	"r.c\000"
 2556              	.LASF16:
 2557 02f5 41495243 		.ascii	"AIRCR\000"
 2557      5200
 2558              	.LASF21:
 2559 02fb 44465352 		.ascii	"DFSR\000"
 2559      00
 2560              	.LASF53:
 2561 0300 4954434D 		.ascii	"ITCMCR\000"
 2561      435200
 2562              	.LASF22:
 2563 0307 4D4D4641 		.ascii	"MMFAR\000"
 2563      5200
ARM GAS  C:\Users\DEVELO~1\AppData\Local\Temp\ccZmF6ca.s 			page 48


 2564              	.LASF113:
 2565 030d 534C4545 		.ascii	"SLEEPEntry\000"
 2565      50456E74 
 2565      727900
 2566              	.LASF59:
 2567 0318 41424653 		.ascii	"ABFSR\000"
 2567      5200
 2568              	.LASF125:
 2569 031e 5F5F4453 		.ascii	"__DSB\000"
 2569      4200
 2570              	.LASF102:
 2571 0324 48414C5F 		.ascii	"HAL_PWR_PVDCallback\000"
 2571      5057525F 
 2571      50564443 
 2571      616C6C62 
 2571      61636B00 
 2572              	.LASF109:
 2573 0338 48414C5F 		.ascii	"HAL_PWR_EnterSTOPMode\000"
 2573      5057525F 
 2573      456E7465 
 2573      7253544F 
 2573      504D6F64 
 2574              	.LASF32:
 2575 034e 43435349 		.ascii	"CCSIDR\000"
 2575      445200
 2576              	.LASF119:
 2577 0355 48414C5F 		.ascii	"HAL_PWR_EnablePVD\000"
 2577      5057525F 
 2577      456E6162 
 2577      6C655056 
 2577      4400
 2578              	.LASF19:
 2579 0367 43465352 		.ascii	"CFSR\000"
 2579      00
 2580              	.LASF27:
 2581 036c 49445F41 		.ascii	"ID_AFR\000"
 2581      465200
 2582              	.LASF92:
 2583 0373 574B5550 		.ascii	"WKUPFR\000"
 2583      465200
 2584              	.LASF126:
 2585 037a 5F5F4953 		.ascii	"__ISB\000"
 2585      4200
 2586              	.LASF55:
 2587 0380 41484250 		.ascii	"AHBPCR\000"
 2587      435200
 2588              	.LASF97:
 2589 0387 666C6F61 		.ascii	"float\000"
 2589      7400
 2590              	.LASF117:
 2591 038d 57616B65 		.ascii	"WakeUpPinPolarity\000"
 2591      55705069 
 2591      6E506F6C 
 2591      61726974 
 2591      7900
 2592              	.LASF38:
 2593 039f 4D564652 		.ascii	"MVFR0\000"
ARM GAS  C:\Users\DEVELO~1\AppData\Local\Temp\ccZmF6ca.s 			page 49


 2593      3000
 2594              	.LASF39:
 2595 03a5 4D564652 		.ascii	"MVFR1\000"
 2595      3100
 2596              	.LASF40:
 2597 03ab 4D564652 		.ascii	"MVFR2\000"
 2597      3200
 2598              	.LASF30:
 2599 03b1 52455345 		.ascii	"RESERVED0\000"
 2599      52564544 
 2599      3000
 2600              	.LASF67:
 2601 03bb 52455345 		.ascii	"RESERVED1\000"
 2601      52564544 
 2601      3100
 2602              	.LASF74:
 2603 03c5 52455345 		.ascii	"RESERVED2\000"
 2603      52564544 
 2603      3200
 2604              	.LASF61:
 2605 03cf 52545352 		.ascii	"RTSR1\000"
 2605      3100
 2606              	.LASF68:
 2607 03d5 52545352 		.ascii	"RTSR2\000"
 2607      3200
 2608              	.LASF75:
 2609 03db 52545352 		.ascii	"RTSR3\000"
 2609      3300
 2610              	.LASF43:
 2611 03e1 52455345 		.ascii	"RESERVED6\000"
 2611      52564544 
 2611      3600
 2612              	.LASF52:
 2613 03eb 52455345 		.ascii	"RESERVED7\000"
 2613      52564544 
 2613      3700
 2614              	.LASF58:
 2615 03f5 52455345 		.ascii	"RESERVED8\000"
 2615      52564544 
 2615      3800
 2616              	.LASF103:
 2617 03ff 48414C5F 		.ascii	"HAL_PWR_DisableSEVOnPend\000"
 2617      5057525F 
 2617      44697361 
 2617      626C6553 
 2617      45564F6E 
 2618              	.LASF2:
 2619 0418 756E7369 		.ascii	"unsigned char\000"
 2619      676E6564 
 2619      20636861 
 2619      7200
 2620              	.LASF18:
 2621 0426 53484353 		.ascii	"SHCSR\000"
 2621      5200
 2622              	.LASF50:
 2623 042c 44434349 		.ascii	"DCCIMVAC\000"
 2623      4D564143 
ARM GAS  C:\Users\DEVELO~1\AppData\Local\Temp\ccZmF6ca.s 			page 50


 2623      00
 2624              	.LASF112:
 2625 0435 48414C5F 		.ascii	"HAL_PWR_EnterSLEEPMode\000"
 2625      5057525F 
 2625      456E7465 
 2625      72534C45 
 2625      45504D6F 
 2626              	.LASF0:
 2627 044c 73686F72 		.ascii	"short int\000"
 2627      7420696E 
 2627      7400
 2628              	.LASF28:
 2629 0456 49445F4D 		.ascii	"ID_MFR\000"
 2629      465200
 2630              	.LASF44:
 2631 045d 4943494D 		.ascii	"ICIMVAU\000"
 2631      56415500 
 2632              	.LASF46:
 2633 0465 44434953 		.ascii	"DCISW\000"
 2633      5700
 2634              	.LASF35:
 2635 046b 52455345 		.ascii	"RESERVED3\000"
 2635      52564544 
 2635      3300
 2636              	.LASF106:
 2637 0475 48414C5F 		.ascii	"HAL_PWR_EnableSleepOnExit\000"
 2637      5057525F 
 2637      456E6162 
 2637      6C65536C 
 2637      6565704F 
 2638              	.LASF41:
 2639 048f 52455345 		.ascii	"RESERVED5\000"
 2639      52564544 
 2639      3500
 2640              	.LASF12:
 2641 0499 75696E74 		.ascii	"uint32_t\000"
 2641      33325F74 
 2641      00
 2642              	.LASF90:
 2643 04a2 44334352 		.ascii	"D3CR\000"
 2643      00
 2644              	.LASF121:
 2645 04a7 73436F6E 		.ascii	"sConfigPVD\000"
 2645      66696750 
 2645      564400
 2646              	.LASF101:
 2647 04b2 5057525F 		.ascii	"PWR_PVDTypeDef\000"
 2647      50564454 
 2647      79706544 
 2647      656600
 2648              	.LASF65:
 2649 04c1 44335043 		.ascii	"D3PCR1L\000"
 2649      52314C00 
 2650              	.LASF95:
 2651 04c9 6C6F6E67 		.ascii	"long double\000"
 2651      20646F75 
 2651      626C6500 
ARM GAS  C:\Users\DEVELO~1\AppData\Local\Temp\ccZmF6ca.s 			page 51


 2652              	.LASF96:
 2653 04d5 63686172 		.ascii	"char\000"
 2653      00
 2654              	.LASF104:
 2655 04da 48414C5F 		.ascii	"HAL_PWR_EnableSEVOnPend\000"
 2655      5057525F 
 2655      456E6162 
 2655      6C655345 
 2655      564F6E50 
 2656              	.LASF123:
 2657 04f2 48414C5F 		.ascii	"HAL_PWR_EnableBkUpAccess\000"
 2657      5057525F 
 2657      456E6162 
 2657      6C65426B 
 2657      55704163 
 2658              	.LASF49:
 2659 050b 44434353 		.ascii	"DCCSW\000"
 2659      5700
 2660              	.LASF118:
 2661 0511 48414C5F 		.ascii	"HAL_PWR_DisablePVD\000"
 2661      5057525F 
 2661      44697361 
 2661      626C6550 
 2661      564400
 2662              	.LASF45:
 2663 0524 4443494D 		.ascii	"DCIMVAC\000"
 2663      56414300 
 2664              	.LASF107:
 2665 052c 48414C5F 		.ascii	"HAL_PWR_PVD_IRQHandler\000"
 2665      5057525F 
 2665      5056445F 
 2665      49525148 
 2665      616E646C 
 2666              	.LASF124:
 2667 0543 48414C5F 		.ascii	"HAL_PWR_DeInit\000"
 2667      5057525F 
 2667      4465496E 
 2667      697400
 2668              	.LASF37:
 2669 0552 52455345 		.ascii	"RESERVED4\000"
 2669      52564544 
 2669      3400
 2670              	.LASF82:
 2671 055c 454D5231 		.ascii	"EMR1\000"
 2671      00
 2672              	.LASF84:
 2673 0561 454D5232 		.ascii	"EMR2\000"
 2673      00
 2674              	.LASF86:
 2675 0566 454D5233 		.ascii	"EMR3\000"
 2675      00
 2676              	.LASF105:
 2677 056b 48414C5F 		.ascii	"HAL_PWR_DisableSleepOnExit\000"
 2677      5057525F 
 2677      44697361 
 2677      626C6553 
 2677      6C656570 
ARM GAS  C:\Users\DEVELO~1\AppData\Local\Temp\ccZmF6ca.s 			page 52


 2678              	.LASF110:
 2679 0586 52656775 		.ascii	"Regulator\000"
 2679      6C61746F 
 2679      7200
 2680              	.LASF73:
 2681 0590 44335043 		.ascii	"D3PCR2H\000"
 2681      52324800 
 2682              	.LASF72:
 2683 0598 44335043 		.ascii	"D3PCR2L\000"
 2683      52324C00 
 2684              	.LASF11:
 2685 05a0 75696E74 		.ascii	"uint8_t\000"
 2685      385F7400 
 2686              	.LASF111:
 2687 05a8 53544F50 		.ascii	"STOPEntry\000"
 2687      456E7472 
 2687      7900
 2688              	.LASF29:
 2689 05b2 49445F49 		.ascii	"ID_ISAR\000"
 2689      53415200 
 2690              	.LASF115:
 2691 05ba 48414C5F 		.ascii	"HAL_PWR_EnableWakeUpPin\000"
 2691      5057525F 
 2691      456E6162 
 2691      6C655761 
 2691      6B655570 
 2692              	.LASF64:
 2693 05d2 4433504D 		.ascii	"D3PMR1\000"
 2693      523100
 2694              	.LASF71:
 2695 05d9 4433504D 		.ascii	"D3PMR2\000"
 2695      523200
 2696              	.LASF78:
 2697 05e0 4433504D 		.ascii	"D3PMR3\000"
 2697      523300
 2698              	.LASF87:
 2699 05e7 45585449 		.ascii	"EXTI_TypeDef\000"
 2699      5F547970 
 2699      65446566 
 2699      00
 2700              	.LASF34:
 2701 05f4 43504143 		.ascii	"CPACR\000"
 2701      5200
 2702              	.LASF20:
 2703 05fa 48465352 		.ascii	"HFSR\000"
 2703      00
 2704              	.LASF88:
 2705 05ff 43535231 		.ascii	"CSR1\000"
 2705      00
 2706              	.LASF66:
 2707 0604 44335043 		.ascii	"D3PCR1H\000"
 2707      52314800 
 2708              		.ident	"GCC: (Arm GNU Toolchain 11.3.Rel1) 11.3.1 20220712"
ARM GAS  C:\Users\DEVELO~1\AppData\Local\Temp\ccZmF6ca.s 			page 53


DEFINED SYMBOLS
                            *ABS*:00000000 stm32h7xx_hal_pwr.c
C:\Users\DEVELO~1\AppData\Local\Temp\ccZmF6ca.s:19     .text.HAL_PWR_DeInit:00000000 $t
C:\Users\DEVELO~1\AppData\Local\Temp\ccZmF6ca.s:26     .text.HAL_PWR_DeInit:00000000 HAL_PWR_DeInit
C:\Users\DEVELO~1\AppData\Local\Temp\ccZmF6ca.s:40     .text.HAL_PWR_EnableBkUpAccess:00000000 $t
C:\Users\DEVELO~1\AppData\Local\Temp\ccZmF6ca.s:47     .text.HAL_PWR_EnableBkUpAccess:00000000 HAL_PWR_EnableBkUpAccess
C:\Users\DEVELO~1\AppData\Local\Temp\ccZmF6ca.s:64     .text.HAL_PWR_EnableBkUpAccess:0000000c $d
C:\Users\DEVELO~1\AppData\Local\Temp\ccZmF6ca.s:69     .text.HAL_PWR_DisableBkUpAccess:00000000 $t
C:\Users\DEVELO~1\AppData\Local\Temp\ccZmF6ca.s:76     .text.HAL_PWR_DisableBkUpAccess:00000000 HAL_PWR_DisableBkUpAccess
C:\Users\DEVELO~1\AppData\Local\Temp\ccZmF6ca.s:93     .text.HAL_PWR_DisableBkUpAccess:0000000c $d
C:\Users\DEVELO~1\AppData\Local\Temp\ccZmF6ca.s:98     .text.HAL_PWR_ConfigPVD:00000000 $t
C:\Users\DEVELO~1\AppData\Local\Temp\ccZmF6ca.s:105    .text.HAL_PWR_ConfigPVD:00000000 HAL_PWR_ConfigPVD
C:\Users\DEVELO~1\AppData\Local\Temp\ccZmF6ca.s:205    .text.HAL_PWR_ConfigPVD:00000090 $d
C:\Users\DEVELO~1\AppData\Local\Temp\ccZmF6ca.s:210    .text.HAL_PWR_EnablePVD:00000000 $t
C:\Users\DEVELO~1\AppData\Local\Temp\ccZmF6ca.s:217    .text.HAL_PWR_EnablePVD:00000000 HAL_PWR_EnablePVD
C:\Users\DEVELO~1\AppData\Local\Temp\ccZmF6ca.s:234    .text.HAL_PWR_EnablePVD:0000000c $d
C:\Users\DEVELO~1\AppData\Local\Temp\ccZmF6ca.s:239    .text.HAL_PWR_DisablePVD:00000000 $t
C:\Users\DEVELO~1\AppData\Local\Temp\ccZmF6ca.s:246    .text.HAL_PWR_DisablePVD:00000000 HAL_PWR_DisablePVD
C:\Users\DEVELO~1\AppData\Local\Temp\ccZmF6ca.s:263    .text.HAL_PWR_DisablePVD:0000000c $d
C:\Users\DEVELO~1\AppData\Local\Temp\ccZmF6ca.s:268    .text.HAL_PWR_EnableWakeUpPin:00000000 $t
C:\Users\DEVELO~1\AppData\Local\Temp\ccZmF6ca.s:275    .text.HAL_PWR_EnableWakeUpPin:00000000 HAL_PWR_EnableWakeUpPin
C:\Users\DEVELO~1\AppData\Local\Temp\ccZmF6ca.s:298    .text.HAL_PWR_EnableWakeUpPin:00000010 $d
C:\Users\DEVELO~1\AppData\Local\Temp\ccZmF6ca.s:304    .text.HAL_PWR_DisableWakeUpPin:00000000 $t
C:\Users\DEVELO~1\AppData\Local\Temp\ccZmF6ca.s:311    .text.HAL_PWR_DisableWakeUpPin:00000000 HAL_PWR_DisableWakeUpPin
C:\Users\DEVELO~1\AppData\Local\Temp\ccZmF6ca.s:333    .text.HAL_PWR_DisableWakeUpPin:00000010 $d
C:\Users\DEVELO~1\AppData\Local\Temp\ccZmF6ca.s:338    .text.HAL_PWR_EnterSLEEPMode:00000000 $t
C:\Users\DEVELO~1\AppData\Local\Temp\ccZmF6ca.s:345    .text.HAL_PWR_EnterSLEEPMode:00000000 HAL_PWR_EnterSLEEPMode
C:\Users\DEVELO~1\AppData\Local\Temp\ccZmF6ca.s:388    .text.HAL_PWR_EnterSLEEPMode:00000018 $d
C:\Users\DEVELO~1\AppData\Local\Temp\ccZmF6ca.s:393    .text.HAL_PWR_EnterSTOPMode:00000000 $t
C:\Users\DEVELO~1\AppData\Local\Temp\ccZmF6ca.s:400    .text.HAL_PWR_EnterSTOPMode:00000000 HAL_PWR_EnterSTOPMode
C:\Users\DEVELO~1\AppData\Local\Temp\ccZmF6ca.s:503    .text.HAL_PWR_EnterSTOPMode:0000004c $d
C:\Users\DEVELO~1\AppData\Local\Temp\ccZmF6ca.s:509    .text.HAL_PWR_EnterSTANDBYMode:00000000 $t
C:\Users\DEVELO~1\AppData\Local\Temp\ccZmF6ca.s:516    .text.HAL_PWR_EnterSTANDBYMode:00000000 HAL_PWR_EnterSTANDBYMode
C:\Users\DEVELO~1\AppData\Local\Temp\ccZmF6ca.s:579    .text.HAL_PWR_EnterSTANDBYMode:00000028 $d
C:\Users\DEVELO~1\AppData\Local\Temp\ccZmF6ca.s:585    .text.HAL_PWR_EnableSleepOnExit:00000000 $t
C:\Users\DEVELO~1\AppData\Local\Temp\ccZmF6ca.s:592    .text.HAL_PWR_EnableSleepOnExit:00000000 HAL_PWR_EnableSleepOnExit
C:\Users\DEVELO~1\AppData\Local\Temp\ccZmF6ca.s:609    .text.HAL_PWR_EnableSleepOnExit:0000000c $d
C:\Users\DEVELO~1\AppData\Local\Temp\ccZmF6ca.s:614    .text.HAL_PWR_DisableSleepOnExit:00000000 $t
C:\Users\DEVELO~1\AppData\Local\Temp\ccZmF6ca.s:621    .text.HAL_PWR_DisableSleepOnExit:00000000 HAL_PWR_DisableSleepOnExit
C:\Users\DEVELO~1\AppData\Local\Temp\ccZmF6ca.s:638    .text.HAL_PWR_DisableSleepOnExit:0000000c $d
C:\Users\DEVELO~1\AppData\Local\Temp\ccZmF6ca.s:643    .text.HAL_PWR_EnableSEVOnPend:00000000 $t
C:\Users\DEVELO~1\AppData\Local\Temp\ccZmF6ca.s:650    .text.HAL_PWR_EnableSEVOnPend:00000000 HAL_PWR_EnableSEVOnPend
C:\Users\DEVELO~1\AppData\Local\Temp\ccZmF6ca.s:667    .text.HAL_PWR_EnableSEVOnPend:0000000c $d
C:\Users\DEVELO~1\AppData\Local\Temp\ccZmF6ca.s:672    .text.HAL_PWR_DisableSEVOnPend:00000000 $t
C:\Users\DEVELO~1\AppData\Local\Temp\ccZmF6ca.s:679    .text.HAL_PWR_DisableSEVOnPend:00000000 HAL_PWR_DisableSEVOnPend
C:\Users\DEVELO~1\AppData\Local\Temp\ccZmF6ca.s:696    .text.HAL_PWR_DisableSEVOnPend:0000000c $d
C:\Users\DEVELO~1\AppData\Local\Temp\ccZmF6ca.s:701    .text.HAL_PWR_PVDCallback:00000000 $t
C:\Users\DEVELO~1\AppData\Local\Temp\ccZmF6ca.s:708    .text.HAL_PWR_PVDCallback:00000000 HAL_PWR_PVDCallback
C:\Users\DEVELO~1\AppData\Local\Temp\ccZmF6ca.s:721    .text.HAL_PWR_PVD_IRQHandler:00000000 $t
C:\Users\DEVELO~1\AppData\Local\Temp\ccZmF6ca.s:728    .text.HAL_PWR_PVD_IRQHandler:00000000 HAL_PWR_PVD_IRQHandler

NO UNDEFINED SYMBOLS
