ARM GAS  C:\Users\DEVELO~1\AppData\Local\Temp\ccPkHjk7.s 			page 1


   1              		.cpu cortex-m7
   2              		.arch armv7e-m
   3              		.fpu fpv5-d16
   4              		.eabi_attribute 28, 1
   5              		.eabi_attribute 20, 1
   6              		.eabi_attribute 21, 1
   7              		.eabi_attribute 23, 3
   8              		.eabi_attribute 24, 1
   9              		.eabi_attribute 25, 1
  10              		.eabi_attribute 26, 1
  11              		.eabi_attribute 30, 2
  12              		.eabi_attribute 34, 1
  13              		.eabi_attribute 18, 4
  14              		.file	"stm32h7xx_hal_rcc.c"
  15              		.text
  16              	.Ltext0:
  17              		.cfi_sections	.debug_frame
  18              		.section	.text.HAL_RCC_GetSysClockFreq.part.0,"ax",%progbits
  19              		.align	1
  20              		.p2align 2,,3
  21              		.syntax unified
  22              		.thumb
  23              		.thumb_func
  24              		.type	HAL_RCC_GetSysClockFreq.part.0, %function
  25              	HAL_RCC_GetSysClockFreq.part.0:
  26              	.LFB155:
  27              		.file 1 "./drivers/stm32h7xx-hal-driver/Src/stm32h7xx_hal_rcc.c"
  28              		.loc 1 1388 10 view -0
  29              		.cfi_startproc
  30              		@ args = 0, pretend = 0, frame = 0
  31              		@ frame_needed = 0, uses_anonymous_args = 0
  32              		@ link register save eliminated.
  33              		.loc 1 1424 7 view .LVU1
  34              		.loc 1 1424 23 is_stmt 0 view .LVU2
  35 0000 3B4B     		ldr	r3, .L15
  36              		.loc 1 1388 10 view .LVU3
  37 0002 30B4     		push	{r4, r5}
  38              		.cfi_def_cfa_offset 8
  39              		.cfi_offset 4, -8
  40              		.cfi_offset 5, -4
  41              		.loc 1 1424 23 view .LVU4
  42 0004 9A6A     		ldr	r2, [r3, #40]
  43              	.LVL0:
  44              		.loc 1 1425 7 is_stmt 1 view .LVU5
  45              		.loc 1 1425 19 is_stmt 0 view .LVU6
  46 0006 9C6A     		ldr	r4, [r3, #40]
  47              		.loc 1 1426 24 view .LVU7
  48 0008 DD6A     		ldr	r5, [r3, #44]
  49              		.loc 1 1429 10 view .LVU8
  50 000a 14F47C7F 		tst	r4, #1008
  51              		.loc 1 1427 53 view .LVU9
  52 000e 596B     		ldr	r1, [r3, #52]
  53              		.loc 1 1425 12 view .LVU10
  54 0010 C4F30510 		ubfx	r0, r4, #4, #6
  55              	.LVL1:
  56              		.loc 1 1426 7 is_stmt 1 view .LVU11
  57              		.loc 1 1427 7 view .LVU12
ARM GAS  C:\Users\DEVELO~1\AppData\Local\Temp\ccPkHjk7.s 			page 2


  58              		.loc 1 1429 7 view .LVU13
  59              		.loc 1 1429 10 is_stmt 0 view .LVU14
  60 0014 38D0     		beq	.L1
  61              		.loc 1 1427 89 view .LVU15
  62 0016 C1F3CC01 		ubfx	r1, r1, #3, #13
  63              	.LVL2:
  64              		.loc 1 1426 17 view .LVU16
  65 001a 05F00105 		and	r5, r5, #1
  66              	.LVL3:
  67              		.loc 1 1424 17 view .LVU17
  68 001e 02F00302 		and	r2, r2, #3
  69              	.LVL4:
  70              		.loc 1 1427 25 view .LVU18
  71 0022 05FB01F1 		mul	r1, r5, r1
  72 0026 012A     		cmp	r2, #1
  73              		.loc 1 1427 14 view .LVU19
  74 0028 07EE901A 		vmov	s15, r1	@ int
  75 002c B8EEE77A 		vcvt.f32.s32	s14, s15
  76              		.loc 1 1431 9 is_stmt 1 view .LVU20
  77 0030 02D0     		beq	.L5
  78 0032 022A     		cmp	r2, #2
  79 0034 4ED0     		beq	.L4
  80 0036 4AB3     		cbz	r2, .L14
  81              	.L5:
  82              		.loc 1 1455 13 view .LVU21
  83              		.loc 1 1455 44 is_stmt 0 view .LVU22
  84 0038 07EE900A 		vmov	s15, r0	@ int
  85              		.loc 1 1455 42 view .LVU23
  86 003c 9FED2D5A 		vldr.32	s10, .L15+4
  87              		.loc 1 1455 44 view .LVU24
  88 0040 F8EEE77A 		vcvt.f32.s32	s15, s15
  89              	.LVL5:
  90              	.L12:
  91              		.loc 1 1455 85 view .LVU25
  92 0044 1B6B     		ldr	r3, [r3, #48]
  93              		.loc 1 1455 42 view .LVU26
  94 0046 C5EE276A 		vdiv.f32	s13, s10, s15
  95              		.loc 1 1455 115 view .LVU27
  96 004a DFED2B5A 		vldr.32	s11, .L15+8
  97              		.loc 1 1455 71 view .LVU28
  98 004e C3F30803 		ubfx	r3, r3, #0, #9
  99 0052 07EE903A 		vmov	s15, r3	@ int
 100              		.loc 1 1455 144 view .LVU29
 101 0056 B7EE006A 		vmov.f32	s12, #1.0e+0
 102              		.loc 1 1455 62 view .LVU30
 103 005a F8EEE77A 		vcvt.f32.s32	s15, s15
 104              		.loc 1 1455 115 view .LVU31
 105 005e E7EE257A 		vfma.f32	s15, s14, s11
 106              		.loc 1 1455 144 view .LVU32
 107 0062 77EE867A 		vadd.f32	s15, s15, s12
 108              		.loc 1 1455 20 view .LVU33
 109 0066 66EEA76A 		vmul.f32	s13, s13, s15
 110              	.LVL6:
 111              		.loc 1 1456 13 is_stmt 1 view .LVU34
 112              	.L7:
 113              		.loc 1 1458 9 view .LVU35
 114              		.loc 1 1458 22 is_stmt 0 view .LVU36
ARM GAS  C:\Users\DEVELO~1\AppData\Local\Temp\ccPkHjk7.s 			page 3


 115 006a 214B     		ldr	r3, .L15
 116 006c 1B6B     		ldr	r3, [r3, #48]
 117              	.LVL7:
 118              		.loc 1 1459 9 is_stmt 1 view .LVU37
 119              		.loc 1 1458 52 is_stmt 0 view .LVU38
 120 006e C3F34623 		ubfx	r3, r3, #9, #7
 121              	.LVL8:
 122              		.loc 1 1458 14 view .LVU39
 123 0072 0133     		adds	r3, r3, #1
 124              		.loc 1 1459 53 view .LVU40
 125 0074 07EE903A 		vmov	s15, r3	@ int
 126 0078 B8EEE77A 		vcvt.f32.s32	s14, s15
 127              		.loc 1 1459 34 view .LVU41
 128 007c C6EE877A 		vdiv.f32	s15, s13, s14
 129              		.loc 1 1459 22 view .LVU42
 130 0080 FCEEE77A 		vcvt.u32.f32	s15, s15
 131 0084 17EE900A 		vmov	r0, s15	@ int
 132              	.LVL9:
 133              		.loc 1 1472 3 is_stmt 1 view .LVU43
 134              	.L1:
 135              		.loc 1 1473 1 is_stmt 0 view .LVU44
 136 0088 30BC     		pop	{r4, r5}
 137              		.cfi_remember_state
 138              		.cfi_restore 5
 139              		.cfi_restore 4
 140              		.cfi_def_cfa_offset 0
 141              	.LVL10:
 142              		.loc 1 1473 1 view .LVU45
 143 008a 7047     		bx	lr
 144              	.LVL11:
 145              	.L14:
 146              		.cfi_restore_state
 147              		.loc 1 1435 13 is_stmt 1 view .LVU46
 148              		.loc 1 1435 17 is_stmt 0 view .LVU47
 149 008c 1A68     		ldr	r2, [r3]
 150              	.LVL12:
 151              		.loc 1 1435 16 view .LVU48
 152 008e 9206     		lsls	r2, r2, #26
 153 0090 27D5     		bpl	.L6
 154              		.loc 1 1437 15 is_stmt 1 view .LVU49
 155              		.loc 1 1437 41 is_stmt 0 view .LVU50
 156 0092 1968     		ldr	r1, [r3]
 157              	.LVL13:
 158              		.loc 1 1438 15 is_stmt 1 view .LVU51
 159              		.loc 1 1438 45 is_stmt 0 view .LVU52
 160 0094 07EE900A 		vmov	s15, r0	@ int
 161              		.loc 1 1437 24 view .LVU53
 162 0098 184A     		ldr	r2, .L15+12
 163              		.loc 1 1438 145 view .LVU54
 164 009a F7EE005A 		vmov.f32	s11, #1.0e+0
 165              		.loc 1 1438 86 view .LVU55
 166 009e 1B6B     		ldr	r3, [r3, #48]
 167              		.loc 1 1437 69 view .LVU56
 168 00a0 C1F3C101 		ubfx	r1, r1, #3, #2
 169              	.LVL14:
 170              		.loc 1 1438 45 view .LVU57
 171 00a4 F8EEE77A 		vcvt.f32.s32	s15, s15
ARM GAS  C:\Users\DEVELO~1\AppData\Local\Temp\ccPkHjk7.s 			page 4


 172              		.loc 1 1438 116 view .LVU58
 173 00a8 9FED135A 		vldr.32	s10, .L15+8
 174              		.loc 1 1438 72 view .LVU59
 175 00ac C3F30803 		ubfx	r3, r3, #0, #9
 176              		.loc 1 1437 24 view .LVU60
 177 00b0 CA40     		lsrs	r2, r2, r1
 178              		.loc 1 1438 72 view .LVU61
 179 00b2 06EE903A 		vmov	s13, r3	@ int
 180              		.loc 1 1438 25 view .LVU62
 181 00b6 06EE102A 		vmov	s12, r2	@ int
 182              		.loc 1 1438 63 view .LVU63
 183 00ba F8EEE66A 		vcvt.f32.s32	s13, s13
 184              		.loc 1 1438 25 view .LVU64
 185 00be B8EEC66A 		vcvt.f32.s32	s12, s12
 186              		.loc 1 1438 116 view .LVU65
 187 00c2 E7EE056A 		vfma.f32	s13, s14, s10
 188              		.loc 1 1438 43 view .LVU66
 189 00c6 86EE277A 		vdiv.f32	s14, s12, s15
 190              		.loc 1 1438 145 view .LVU67
 191 00ca 76EEA56A 		vadd.f32	s13, s13, s11
 192              		.loc 1 1438 22 view .LVU68
 193 00ce 66EE876A 		vmul.f32	s13, s13, s14
 194              	.LVL15:
 195              		.loc 1 1438 22 view .LVU69
 196 00d2 CAE7     		b	.L7
 197              	.LVL16:
 198              	.L4:
 199              		.loc 1 1451 13 is_stmt 1 view .LVU70
 200              		.loc 1 1451 44 is_stmt 0 view .LVU71
 201 00d4 07EE900A 		vmov	s15, r0	@ int
 202              		.loc 1 1451 42 view .LVU72
 203 00d8 9FED095A 		vldr.32	s10, .L15+16
 204              		.loc 1 1451 44 view .LVU73
 205 00dc F8EEE77A 		vcvt.f32.s32	s15, s15
 206 00e0 B0E7     		b	.L12
 207              	.LVL17:
 208              	.L6:
 209              		.loc 1 1442 15 is_stmt 1 view .LVU74
 210              		.loc 1 1442 46 is_stmt 0 view .LVU75
 211 00e2 07EE900A 		vmov	s15, r0	@ int
 212              		.loc 1 1442 44 view .LVU76
 213 00e6 9FED075A 		vldr.32	s10, .L15+20
 214              		.loc 1 1442 46 view .LVU77
 215 00ea F8EEE77A 		vcvt.f32.s32	s15, s15
 216 00ee A9E7     		b	.L12
 217              	.L16:
 218              		.align	2
 219              	.L15:
 220 00f0 00440258 		.word	1476543488
 221 00f4 0024744A 		.word	1249125376
 222 00f8 00000039 		.word	956301312
 223 00fc 0090D003 		.word	64000000
 224 0100 0024F44A 		.word	1257513984
 225 0104 0024744C 		.word	1282679808
 226              		.cfi_endproc
 227              	.LFE155:
 228              		.size	HAL_RCC_GetSysClockFreq.part.0, .-HAL_RCC_GetSysClockFreq.part.0
ARM GAS  C:\Users\DEVELO~1\AppData\Local\Temp\ccPkHjk7.s 			page 5


 229              		.section	.text.HAL_RCC_DeInit,"ax",%progbits
 230              		.align	1
 231              		.p2align 2,,3
 232              		.global	HAL_RCC_DeInit
 233              		.syntax unified
 234              		.thumb
 235              		.thumb_func
 236              		.type	HAL_RCC_DeInit, %function
 237              	HAL_RCC_DeInit:
 238              	.LFB141:
 239              		.loc 1 189 1 is_stmt 1 view -0
 240              		.cfi_startproc
 241              		@ args = 0, pretend = 0, frame = 0
 242              		@ frame_needed = 0, uses_anonymous_args = 0
 243              		.loc 1 190 3 view .LVU79
 244              		.loc 1 193 3 view .LVU80
 245              		.loc 1 193 32 is_stmt 0 view .LVU81
 246 0000 5D4A     		ldr	r2, .L44
 247              		.loc 1 189 1 view .LVU82
 248 0002 F8B5     		push	{r3, r4, r5, r6, r7, lr}
 249              		.cfi_def_cfa_offset 24
 250              		.cfi_offset 3, -24
 251              		.cfi_offset 4, -20
 252              		.cfi_offset 5, -16
 253              		.cfi_offset 6, -12
 254              		.cfi_offset 7, -8
 255              		.cfi_offset 14, -4
 256              		.loc 1 193 32 view .LVU83
 257 0004 1368     		ldr	r3, [r2]
 258 0006 03F00F03 		and	r3, r3, #15
 259              		.loc 1 193 6 view .LVU84
 260 000a 062B     		cmp	r3, #6
 261 000c 0AD8     		bhi	.L20
 262              		.loc 1 196 5 is_stmt 1 view .LVU85
 263 000e 1368     		ldr	r3, [r2]
 264 0010 23F00F03 		bic	r3, r3, #15
 265 0014 43F00703 		orr	r3, r3, #7
 266 0018 1360     		str	r3, [r2]
 267              		.loc 1 200 5 view .LVU86
 268              		.loc 1 200 9 is_stmt 0 view .LVU87
 269 001a 1368     		ldr	r3, [r2]
 270 001c 03F00F03 		and	r3, r3, #15
 271              		.loc 1 200 8 view .LVU88
 272 0020 072B     		cmp	r3, #7
 273 0022 21D1     		bne	.L23
 274              	.L20:
 275              		.loc 1 209 3 is_stmt 1 view .LVU89
 276              		.loc 1 212 3 is_stmt 0 view .LVU90
 277 0024 554C     		ldr	r4, .L44+4
 278              		.loc 1 209 15 view .LVU91
 279 0026 FFF7FEFF 		bl	HAL_GetTick
 280              	.LVL18:
 281 002a 0546     		mov	r5, r0
 282              	.LVL19:
 283              		.loc 1 212 3 is_stmt 1 view .LVU92
 284 002c 2368     		ldr	r3, [r4]
 285 002e 43F00103 		orr	r3, r3, #1
ARM GAS  C:\Users\DEVELO~1\AppData\Local\Temp\ccPkHjk7.s 			page 6


 286 0032 2360     		str	r3, [r4]
 287              		.loc 1 215 3 view .LVU93
 288              		.loc 1 215 9 is_stmt 0 view .LVU94
 289 0034 04E0     		b	.L19
 290              	.LVL20:
 291              	.L22:
 292              		.loc 1 217 10 view .LVU95
 293 0036 FFF7FEFF 		bl	HAL_GetTick
 294              	.LVL21:
 295              		.loc 1 217 24 view .LVU96
 296 003a 401B     		subs	r0, r0, r5
 297              		.loc 1 217 8 view .LVU97
 298 003c 0228     		cmp	r0, #2
 299 003e 16D8     		bhi	.L25
 300              	.L19:
 301              		.loc 1 217 5 is_stmt 1 view .LVU98
 302              		.loc 1 215 43 view .LVU99
 303              		.loc 1 215 10 is_stmt 0 view .LVU100
 304 0040 2368     		ldr	r3, [r4]
 305              		.loc 1 215 43 view .LVU101
 306 0042 5E07     		lsls	r6, r3, #29
 307 0044 F7D5     		bpl	.L22
 308              		.loc 1 224 3 is_stmt 1 view .LVU102
 309 0046 6368     		ldr	r3, [r4, #4]
 310              		.loc 1 227 3 is_stmt 0 view .LVU103
 311 0048 0025     		movs	r5, #0
 312              	.LVL22:
 313              		.loc 1 234 7 view .LVU104
 314 004a 4D48     		ldr	r0, .L44+8
 315              		.loc 1 224 3 view .LVU105
 316 004c 43F08043 		orr	r3, r3, #1073741824
 317              		.loc 1 230 19 view .LVU106
 318 0050 4C4A     		ldr	r2, .L44+12
 319 0052 4D49     		ldr	r1, .L44+16
 320              		.loc 1 224 3 view .LVU107
 321 0054 6360     		str	r3, [r4, #4]
 322              		.loc 1 227 3 is_stmt 1 view .LVU108
 323              		.loc 1 231 17 is_stmt 0 view .LVU109
 324 0056 4D4B     		ldr	r3, .L44+20
 325              		.loc 1 227 3 view .LVU110
 326 0058 2561     		str	r5, [r4, #16]
 327              		.loc 1 230 3 is_stmt 1 view .LVU111
 328              		.loc 1 234 7 is_stmt 0 view .LVU112
 329 005a 0068     		ldr	r0, [r0]
 330              		.loc 1 230 19 view .LVU113
 331 005c 0A60     		str	r2, [r1]
 332              		.loc 1 231 3 is_stmt 1 view .LVU114
 333              		.loc 1 231 17 is_stmt 0 view .LVU115
 334 005e 1A60     		str	r2, [r3]
 335              		.loc 1 234 3 is_stmt 1 view .LVU116
 336              		.loc 1 234 7 is_stmt 0 view .LVU117
 337 0060 FFF7FEFF 		bl	HAL_InitTick
 338              	.LVL23:
 339              		.loc 1 234 6 view .LVU118
 340 0064 0446     		mov	r4, r0
 341 0066 28B1     		cbz	r0, .L43
 342              	.L23:
ARM GAS  C:\Users\DEVELO~1\AppData\Local\Temp\ccPkHjk7.s 			page 7


 343              		.loc 1 202 14 view .LVU119
 344 0068 0124     		movs	r4, #1
 345              	.L21:
 346              		.loc 1 389 1 view .LVU120
 347 006a 2046     		mov	r0, r4
 348 006c F8BD     		pop	{r3, r4, r5, r6, r7, pc}
 349              	.L25:
 350              		.loc 1 219 14 view .LVU121
 351 006e 0324     		movs	r4, #3
 352              		.loc 1 389 1 view .LVU122
 353 0070 2046     		mov	r0, r4
 354 0072 F8BD     		pop	{r3, r4, r5, r6, r7, pc}
 355              	.L43:
 356              		.loc 1 240 3 is_stmt 1 view .LVU123
 357              		.loc 1 240 15 is_stmt 0 view .LVU124
 358 0074 FFF7FEFF 		bl	HAL_GetTick
 359              	.LVL24:
 360              		.loc 1 243 10 view .LVU125
 361 0078 404E     		ldr	r6, .L44+4
 362              		.loc 1 245 8 view .LVU126
 363 007a 41F28837 		movw	r7, #5000
 364              		.loc 1 240 15 view .LVU127
 365 007e 0546     		mov	r5, r0
 366              	.LVL25:
 367              		.loc 1 243 3 is_stmt 1 view .LVU128
 368              		.loc 1 243 9 is_stmt 0 view .LVU129
 369 0080 04E0     		b	.L24
 370              	.LVL26:
 371              	.L26:
 372              		.loc 1 245 10 view .LVU130
 373 0082 FFF7FEFF 		bl	HAL_GetTick
 374              	.LVL27:
 375              		.loc 1 245 24 view .LVU131
 376 0086 431B     		subs	r3, r0, r5
 377              		.loc 1 245 8 view .LVU132
 378 0088 BB42     		cmp	r3, r7
 379 008a F0D8     		bhi	.L25
 380              	.L24:
 381              		.loc 1 245 5 is_stmt 1 view .LVU133
 382              		.loc 1 243 44 view .LVU134
 383              		.loc 1 243 10 is_stmt 0 view .LVU135
 384 008c 3369     		ldr	r3, [r6, #16]
 385              		.loc 1 243 44 view .LVU136
 386 008e 13F0380F 		tst	r3, #56
 387 0092 F6D1     		bne	.L26
 388              		.loc 1 252 3 is_stmt 1 view .LVU137
 389              		.loc 1 252 15 is_stmt 0 view .LVU138
 390 0094 FFF7FEFF 		bl	HAL_GetTick
 391              	.LVL28:
 392              		.loc 1 255 3 view .LVU139
 393 0098 3268     		ldr	r2, [r6]
 394 009a 3D4B     		ldr	r3, .L44+24
 395              		.loc 1 252 15 view .LVU140
 396 009c 0546     		mov	r5, r0
 397              	.LVL29:
 398              		.loc 1 255 3 is_stmt 1 view .LVU141
 399              		.loc 1 259 10 is_stmt 0 view .LVU142
ARM GAS  C:\Users\DEVELO~1\AppData\Local\Temp\ccPkHjk7.s 			page 8


 400 009e 374F     		ldr	r7, .L44+4
 401              		.loc 1 255 3 view .LVU143
 402 00a0 1340     		ands	r3, r3, r2
 403 00a2 3360     		str	r3, [r6]
 404              		.loc 1 259 3 is_stmt 1 view .LVU144
 405              		.loc 1 259 9 is_stmt 0 view .LVU145
 406 00a4 04E0     		b	.L27
 407              	.LVL30:
 408              	.L28:
 409              		.loc 1 261 10 view .LVU146
 410 00a6 FFF7FEFF 		bl	HAL_GetTick
 411              	.LVL31:
 412              		.loc 1 261 24 view .LVU147
 413 00aa 401B     		subs	r0, r0, r5
 414              		.loc 1 261 8 view .LVU148
 415 00ac 6428     		cmp	r0, #100
 416 00ae DED8     		bhi	.L25
 417              	.L27:
 418              		.loc 1 261 5 is_stmt 1 view .LVU149
 419              		.loc 1 259 43 view .LVU150
 420              		.loc 1 259 10 is_stmt 0 view .LVU151
 421 00b0 3B68     		ldr	r3, [r7]
 422              		.loc 1 259 43 view .LVU152
 423 00b2 9803     		lsls	r0, r3, #14
 424 00b4 F7D4     		bmi	.L28
 425              		.loc 1 268 3 is_stmt 1 view .LVU153
 426              		.loc 1 268 15 is_stmt 0 view .LVU154
 427 00b6 FFF7FEFF 		bl	HAL_GetTick
 428              	.LVL32:
 429              		.loc 1 271 3 view .LVU155
 430 00ba 3B68     		ldr	r3, [r7]
 431              		.loc 1 274 10 view .LVU156
 432 00bc 2F4E     		ldr	r6, .L44+4
 433              		.loc 1 268 15 view .LVU157
 434 00be 0546     		mov	r5, r0
 435              	.LVL33:
 436              		.loc 1 271 3 is_stmt 1 view .LVU158
 437 00c0 23F08073 		bic	r3, r3, #16777216
 438 00c4 3B60     		str	r3, [r7]
 439              		.loc 1 274 3 view .LVU159
 440              		.loc 1 274 9 is_stmt 0 view .LVU160
 441 00c6 04E0     		b	.L29
 442              	.LVL34:
 443              	.L30:
 444              		.loc 1 276 10 view .LVU161
 445 00c8 FFF7FEFF 		bl	HAL_GetTick
 446              	.LVL35:
 447              		.loc 1 276 24 view .LVU162
 448 00cc 401B     		subs	r0, r0, r5
 449              		.loc 1 276 8 view .LVU163
 450 00ce 0228     		cmp	r0, #2
 451 00d0 CDD8     		bhi	.L25
 452              	.L29:
 453              		.loc 1 276 5 is_stmt 1 view .LVU164
 454              		.loc 1 274 44 view .LVU165
 455              		.loc 1 274 10 is_stmt 0 view .LVU166
 456 00d2 3368     		ldr	r3, [r6]
ARM GAS  C:\Users\DEVELO~1\AppData\Local\Temp\ccPkHjk7.s 			page 9


 457              		.loc 1 274 44 view .LVU167
 458 00d4 9901     		lsls	r1, r3, #6
 459 00d6 F7D4     		bmi	.L30
 460              		.loc 1 283 3 is_stmt 1 view .LVU168
 461              		.loc 1 283 15 is_stmt 0 view .LVU169
 462 00d8 FFF7FEFF 		bl	HAL_GetTick
 463              	.LVL36:
 464              		.loc 1 286 3 view .LVU170
 465 00dc 3368     		ldr	r3, [r6]
 466              		.loc 1 289 10 view .LVU171
 467 00de 274F     		ldr	r7, .L44+4
 468              		.loc 1 283 15 view .LVU172
 469 00e0 0546     		mov	r5, r0
 470              	.LVL37:
 471              		.loc 1 286 3 is_stmt 1 view .LVU173
 472 00e2 23F08063 		bic	r3, r3, #67108864
 473 00e6 3360     		str	r3, [r6]
 474              		.loc 1 289 3 view .LVU174
 475              		.loc 1 289 9 is_stmt 0 view .LVU175
 476 00e8 04E0     		b	.L31
 477              	.LVL38:
 478              	.L32:
 479              		.loc 1 291 10 view .LVU176
 480 00ea FFF7FEFF 		bl	HAL_GetTick
 481              	.LVL39:
 482              		.loc 1 291 24 view .LVU177
 483 00ee 401B     		subs	r0, r0, r5
 484              		.loc 1 291 8 view .LVU178
 485 00f0 0228     		cmp	r0, #2
 486 00f2 BCD8     		bhi	.L25
 487              	.L31:
 488              		.loc 1 291 5 is_stmt 1 view .LVU179
 489              		.loc 1 289 44 view .LVU180
 490              		.loc 1 289 10 is_stmt 0 view .LVU181
 491 00f4 3B68     		ldr	r3, [r7]
 492              		.loc 1 289 44 view .LVU182
 493 00f6 1A01     		lsls	r2, r3, #4
 494 00f8 F7D4     		bmi	.L32
 495              		.loc 1 298 3 is_stmt 1 view .LVU183
 496              		.loc 1 298 15 is_stmt 0 view .LVU184
 497 00fa FFF7FEFF 		bl	HAL_GetTick
 498              	.LVL40:
 499              		.loc 1 301 3 view .LVU185
 500 00fe 3B68     		ldr	r3, [r7]
 501              		.loc 1 304 10 view .LVU186
 502 0100 1E4D     		ldr	r5, .L44+4
 503              	.LVL41:
 504              		.loc 1 298 15 view .LVU187
 505 0102 0646     		mov	r6, r0
 506              	.LVL42:
 507              		.loc 1 301 3 is_stmt 1 view .LVU188
 508 0104 23F08053 		bic	r3, r3, #268435456
 509 0108 3B60     		str	r3, [r7]
 510              		.loc 1 304 3 view .LVU189
 511              		.loc 1 304 9 is_stmt 0 view .LVU190
 512 010a 04E0     		b	.L33
 513              	.LVL43:
ARM GAS  C:\Users\DEVELO~1\AppData\Local\Temp\ccPkHjk7.s 			page 10


 514              	.L34:
 515              		.loc 1 306 10 view .LVU191
 516 010c FFF7FEFF 		bl	HAL_GetTick
 517              	.LVL44:
 518              		.loc 1 306 24 view .LVU192
 519 0110 801B     		subs	r0, r0, r6
 520              		.loc 1 306 8 view .LVU193
 521 0112 0228     		cmp	r0, #2
 522 0114 ABD8     		bhi	.L25
 523              	.L33:
 524              		.loc 1 306 5 is_stmt 1 view .LVU194
 525              		.loc 1 304 44 view .LVU195
 526              		.loc 1 304 10 is_stmt 0 view .LVU196
 527 0116 2B68     		ldr	r3, [r5]
 528              		.loc 1 304 44 view .LVU197
 529 0118 13F00053 		ands	r3, r3, #536870912
 530 011c F6D1     		bne	.L34
 531              		.loc 1 314 3 is_stmt 1 view .LVU198
 532              		.loc 1 333 18 is_stmt 0 view .LVU199
 533 011e 1D49     		ldr	r1, .L44+28
 534              		.loc 1 314 3 view .LVU200
 535 0120 AB61     		str	r3, [r5, #24]
 536              		.loc 1 317 3 is_stmt 1 view .LVU201
 537              		.loc 1 339 3 is_stmt 0 view .LVU202
 538 0122 1D4A     		ldr	r2, .L44+32
 539              		.loc 1 317 3 view .LVU203
 540 0124 EB61     		str	r3, [r5, #28]
 541              		.loc 1 320 3 is_stmt 1 view .LVU204
 542 0126 2B62     		str	r3, [r5, #32]
 543              		.loc 1 333 3 view .LVU205
 544              		.loc 1 333 18 is_stmt 0 view .LVU206
 545 0128 A962     		str	r1, [r5, #40]
 546              		.loc 1 336 3 is_stmt 1 view .LVU207
 547 012a 1C49     		ldr	r1, .L44+36
 548 012c E962     		str	r1, [r5, #44]
 549              		.loc 1 339 3 view .LVU208
 550              		.loc 1 368 3 is_stmt 0 view .LVU209
 551 012e 4FF0FF31 		mov	r1, #-1
 552              		.loc 1 339 3 view .LVU210
 553 0132 2A63     		str	r2, [r5, #48]
 554              		.loc 1 342 3 is_stmt 1 view .LVU211
 555 0134 6B63     		str	r3, [r5, #52]
 556              		.loc 1 345 3 view .LVU212
 557 0136 AA63     		str	r2, [r5, #56]
 558              		.loc 1 348 3 view .LVU213
 559 0138 EB63     		str	r3, [r5, #60]
 560              		.loc 1 351 3 view .LVU214
 561 013a 2A64     		str	r2, [r5, #64]
 562              		.loc 1 354 3 view .LVU215
 563 013c 6B64     		str	r3, [r5, #68]
 564              		.loc 1 362 3 view .LVU216
 565 013e 2A68     		ldr	r2, [r5]
 566 0140 22F48022 		bic	r2, r2, #262144
 567 0144 2A60     		str	r2, [r5]
 568              		.loc 1 365 3 view .LVU217
 569 0146 2B66     		str	r3, [r5, #96]
 570              		.loc 1 368 3 view .LVU218
ARM GAS  C:\Users\DEVELO~1\AppData\Local\Temp\ccPkHjk7.s 			page 11


 571 0148 A966     		str	r1, [r5, #104]
 572              		.loc 1 371 3 view .LVU219
 573 014a D5F8D030 		ldr	r3, [r5, #208]
 574              		.loc 1 374 32 is_stmt 0 view .LVU220
 575 014e 0A4A     		ldr	r2, .L44
 576              		.loc 1 371 3 view .LVU221
 577 0150 43F48033 		orr	r3, r3, #65536
 578 0154 C5F8D030 		str	r3, [r5, #208]
 579              		.loc 1 374 3 is_stmt 1 view .LVU222
 580              		.loc 1 374 32 is_stmt 0 view .LVU223
 581 0158 1368     		ldr	r3, [r2]
 582              		.loc 1 374 6 view .LVU224
 583 015a 1B07     		lsls	r3, r3, #28
 584 015c 85D5     		bpl	.L21
 585              		.loc 1 377 5 is_stmt 1 view .LVU225
 586 015e 1368     		ldr	r3, [r2]
 587 0160 23F00F03 		bic	r3, r3, #15
 588 0164 43F00703 		orr	r3, r3, #7
 589 0168 1360     		str	r3, [r2]
 590              		.loc 1 381 5 view .LVU226
 591              		.loc 1 381 9 is_stmt 0 view .LVU227
 592 016a 1468     		ldr	r4, [r2]
 593 016c 04F00F04 		and	r4, r4, #15
 594              		.loc 1 202 14 view .LVU228
 595 0170 073C     		subs	r4, r4, #7
 596 0172 18BF     		it	ne
 597 0174 0124     		movne	r4, #1
 598 0176 78E7     		b	.L21
 599              	.L45:
 600              		.align	2
 601              	.L44:
 602 0178 00200052 		.word	1375739904
 603 017c 00440258 		.word	1476543488
 604 0180 00000000 		.word	uwTickPrio
 605 0184 0090D003 		.word	64000000
 606 0188 00000000 		.word	SystemCoreClock
 607 018c 00000000 		.word	SystemD2Clock
 608 0190 45EDF6FF 		.word	-594619
 609 0194 00020202 		.word	33686016
 610 0198 80020101 		.word	16843392
 611 019c 0000FF01 		.word	33488896
 612              		.cfi_endproc
 613              	.LFE141:
 614              		.size	HAL_RCC_DeInit, .-HAL_RCC_DeInit
 615              		.section	.text.HAL_RCC_OscConfig,"ax",%progbits
 616              		.align	1
 617              		.p2align 2,,3
 618              		.weak	HAL_RCC_OscConfig
 619              		.syntax unified
 620              		.thumb
 621              		.thumb_func
 622              		.type	HAL_RCC_OscConfig, %function
 623              	HAL_RCC_OscConfig:
 624              	.LVL45:
 625              	.LFB142:
 626              		.loc 1 406 1 is_stmt 1 view -0
 627              		.cfi_startproc
ARM GAS  C:\Users\DEVELO~1\AppData\Local\Temp\ccPkHjk7.s 			page 12


 628              		@ args = 0, pretend = 0, frame = 0
 629              		@ frame_needed = 0, uses_anonymous_args = 0
 630              		.loc 1 407 3 view .LVU230
 631              		.loc 1 408 3 view .LVU231
 632              		.loc 1 411 3 view .LVU232
 633              		.loc 1 411 6 is_stmt 0 view .LVU233
 634 0000 0028     		cmp	r0, #0
 635 0002 00F0E881 		beq	.L184
 636              		.loc 1 417 3 is_stmt 1 view .LVU234
 637              		.loc 1 419 3 view .LVU235
 638              		.loc 1 406 1 is_stmt 0 view .LVU236
 639 0006 F8B5     		push	{r3, r4, r5, r6, r7, lr}
 640              		.cfi_def_cfa_offset 24
 641              		.cfi_offset 3, -24
 642              		.cfi_offset 4, -20
 643              		.cfi_offset 5, -16
 644              		.cfi_offset 6, -12
 645              		.cfi_offset 7, -8
 646              		.cfi_offset 14, -4
 647              		.loc 1 419 26 view .LVU237
 648 0008 0368     		ldr	r3, [r0]
 649 000a 0446     		mov	r4, r0
 650              		.loc 1 419 6 view .LVU238
 651 000c D907     		lsls	r1, r3, #31
 652 000e 2ED5     		bpl	.L49
 653              	.LBB2:
 654              		.loc 1 422 5 is_stmt 1 view .LVU239
 655              		.loc 1 424 5 view .LVU240
 656              		.loc 1 424 37 is_stmt 0 view .LVU241
 657 0010 A449     		ldr	r1, .L198
 658 0012 0A69     		ldr	r2, [r1, #16]
 659              		.loc 1 425 20 view .LVU242
 660 0014 896A     		ldr	r1, [r1, #40]
 661              		.loc 1 424 20 view .LVU243
 662 0016 02F03802 		and	r2, r2, #56
 663              	.LVL46:
 664              		.loc 1 425 5 is_stmt 1 view .LVU244
 665              		.loc 1 427 5 view .LVU245
 666              		.loc 1 427 8 is_stmt 0 view .LVU246
 667 001a 102A     		cmp	r2, #16
 668 001c 00F00781 		beq	.L50
 669              		.loc 1 427 46 discriminator 1 view .LVU247
 670 0020 182A     		cmp	r2, #24
 671 0022 00F0FF80 		beq	.L185
 672              	.LVL47:
 673              	.L51:
 674              		.loc 1 437 7 is_stmt 1 view .LVU248
 675              		.loc 1 437 7 view .LVU249
 676 0026 6368     		ldr	r3, [r4, #4]
 677 0028 B3F5803F 		cmp	r3, #65536
 678 002c 00F02A81 		beq	.L186
 679              		.loc 1 437 7 discriminator 2 view .LVU250
 680 0030 002B     		cmp	r3, #0
 681 0032 00F06881 		beq	.L187
 682              		.loc 1 437 7 discriminator 5 view .LVU251
 683 0036 B3F5A02F 		cmp	r3, #327680
 684 003a 9A4B     		ldr	r3, .L198
ARM GAS  C:\Users\DEVELO~1\AppData\Local\Temp\ccPkHjk7.s 			page 13


 685 003c 1A68     		ldr	r2, [r3]
 686              	.LVL48:
 687              		.loc 1 437 7 is_stmt 0 discriminator 5 view .LVU252
 688 003e 00F08982 		beq	.L188
 689              		.loc 1 437 7 is_stmt 1 discriminator 8 view .LVU253
 690 0042 22F48032 		bic	r2, r2, #65536
 691 0046 1A60     		str	r2, [r3]
 692              		.loc 1 437 7 discriminator 8 view .LVU254
 693 0048 1A68     		ldr	r2, [r3]
 694 004a 22F48022 		bic	r2, r2, #262144
 695 004e 1A60     		str	r2, [r3]
 696              	.L54:
 697              		.loc 1 443 9 view .LVU255
 698              		.loc 1 443 21 is_stmt 0 view .LVU256
 699 0050 FFF7FEFF 		bl	HAL_GetTick
 700              	.LVL49:
 701              		.loc 1 446 16 view .LVU257
 702 0054 934E     		ldr	r6, .L198
 703              		.loc 1 443 21 view .LVU258
 704 0056 0546     		mov	r5, r0
 705              	.LVL50:
 706              		.loc 1 446 9 is_stmt 1 view .LVU259
 707              		.loc 1 446 15 is_stmt 0 view .LVU260
 708 0058 05E0     		b	.L59
 709              	.LVL51:
 710              	.L60:
 711              		.loc 1 448 26 view .LVU261
 712 005a FFF7FEFF 		bl	HAL_GetTick
 713              	.LVL52:
 714              		.loc 1 448 40 view .LVU262
 715 005e 401B     		subs	r0, r0, r5
 716              		.loc 1 448 14 view .LVU263
 717 0060 6428     		cmp	r0, #100
 718 0062 00F24E81 		bhi	.L61
 719              	.L59:
 720              		.loc 1 448 11 is_stmt 1 view .LVU264
 721              		.loc 1 446 52 view .LVU265
 722              		.loc 1 446 16 is_stmt 0 view .LVU266
 723 0066 3368     		ldr	r3, [r6]
 724              		.loc 1 446 52 view .LVU267
 725 0068 9B03     		lsls	r3, r3, #14
 726 006a F6D5     		bpl	.L60
 727              	.LVL53:
 728              	.L176:
 729              		.loc 1 446 52 view .LVU268
 730              	.LBE2:
 731              		.loc 1 471 26 view .LVU269
 732 006c 2368     		ldr	r3, [r4]
 733              	.L49:
 734              		.loc 1 471 3 is_stmt 1 view .LVU270
 735              		.loc 1 471 6 is_stmt 0 view .LVU271
 736 006e 9D07     		lsls	r5, r3, #30
 737 0070 00F18A80 		bmi	.L189
 738              	.L63:
 739              		.loc 1 552 3 is_stmt 1 view .LVU272
 740              		.loc 1 552 6 is_stmt 0 view .LVU273
 741 0074 D906     		lsls	r1, r3, #27
ARM GAS  C:\Users\DEVELO~1\AppData\Local\Temp\ccPkHjk7.s 			page 14


 742 0076 33D5     		bpl	.L79
 743              	.LBB3:
 744              		.loc 1 555 5 is_stmt 1 view .LVU274
 745              		.loc 1 556 5 view .LVU275
 746              		.loc 1 559 5 view .LVU276
 747              		.loc 1 559 37 is_stmt 0 view .LVU277
 748 0078 8A4A     		ldr	r2, .L198
 749 007a 1369     		ldr	r3, [r2, #16]
 750              		.loc 1 560 20 view .LVU278
 751 007c 926A     		ldr	r2, [r2, #40]
 752              		.loc 1 559 20 view .LVU279
 753 007e 03F03803 		and	r3, r3, #56
 754              	.LVL54:
 755              		.loc 1 560 5 is_stmt 1 view .LVU280
 756              		.loc 1 561 5 view .LVU281
 757              		.loc 1 561 8 is_stmt 0 view .LVU282
 758 0082 082B     		cmp	r3, #8
 759 0084 00F0E380 		beq	.L80
 760              		.loc 1 561 46 discriminator 1 view .LVU283
 761 0088 182B     		cmp	r3, #24
 762 008a 00F0DB80 		beq	.L190
 763              	.LVL55:
 764              	.L81:
 765              		.loc 1 578 7 is_stmt 1 view .LVU284
 766              		.loc 1 578 10 is_stmt 0 view .LVU285
 767 008e E369     		ldr	r3, [r4, #28]
 768              	.LVL56:
 769              		.loc 1 581 9 view .LVU286
 770 0090 844D     		ldr	r5, .L198
 771              		.loc 1 578 10 view .LVU287
 772 0092 002B     		cmp	r3, #0
 773 0094 00F06F81 		beq	.L85
 774              		.loc 1 581 9 is_stmt 1 view .LVU288
 775 0098 2B68     		ldr	r3, [r5]
 776 009a 43F08003 		orr	r3, r3, #128
 777 009e 2B60     		str	r3, [r5]
 778              		.loc 1 584 9 view .LVU289
 779              		.loc 1 584 21 is_stmt 0 view .LVU290
 780 00a0 FFF7FEFF 		bl	HAL_GetTick
 781              	.LVL57:
 782 00a4 0646     		mov	r6, r0
 783              	.LVL58:
 784              		.loc 1 587 9 is_stmt 1 view .LVU291
 785              		.loc 1 587 15 is_stmt 0 view .LVU292
 786 00a6 05E0     		b	.L86
 787              	.LVL59:
 788              	.L87:
 789              		.loc 1 589 16 view .LVU293
 790 00a8 FFF7FEFF 		bl	HAL_GetTick
 791              	.LVL60:
 792              		.loc 1 589 30 view .LVU294
 793 00ac 801B     		subs	r0, r0, r6
 794              		.loc 1 589 14 view .LVU295
 795 00ae 0228     		cmp	r0, #2
 796 00b0 00F22781 		bhi	.L61
 797              	.L86:
 798              		.loc 1 589 11 is_stmt 1 view .LVU296
ARM GAS  C:\Users\DEVELO~1\AppData\Local\Temp\ccPkHjk7.s 			page 15


 799              		.loc 1 587 52 view .LVU297
 800              		.loc 1 587 16 is_stmt 0 view .LVU298
 801 00b4 2B68     		ldr	r3, [r5]
 802              		.loc 1 587 52 view .LVU299
 803 00b6 DB05     		lsls	r3, r3, #23
 804 00b8 F6D5     		bpl	.L87
 805              		.loc 1 596 9 is_stmt 1 view .LVU300
 806              		.loc 1 596 9 view .LVU301
 807 00ba FFF7FEFF 		bl	HAL_GetREVID
 808              	.LVL61:
 809 00be 41F20303 		movw	r3, #4099
 810 00c2 9842     		cmp	r0, r3
 811 00c4 00F26D82 		bhi	.L88
 812              		.loc 1 596 9 discriminator 1 view .LVU302
 813 00c8 226A     		ldr	r2, [r4, #32]
 814 00ca 6B68     		ldr	r3, [r5, #4]
 815 00cc 202A     		cmp	r2, #32
 816              		.loc 1 596 9 discriminator 1 view .LVU303
 817              		.loc 1 596 9 discriminator 1 view .LVU304
 818 00ce 23F0F843 		bic	r3, r3, #2080374784
 819 00d2 0CBF     		ite	eq
 820 00d4 43F08043 		orreq	r3, r3, #1073741824
 821 00d8 43EA8263 		orrne	r3, r3, r2, lsl #26
 822 00dc 6B60     		str	r3, [r5, #4]
 823              	.LBE3:
 824              		.loc 1 618 26 is_stmt 0 discriminator 1 view .LVU305
 825 00de 2368     		ldr	r3, [r4]
 826              	.LVL62:
 827              	.L79:
 828              		.loc 1 618 3 is_stmt 1 view .LVU306
 829              		.loc 1 618 6 is_stmt 0 view .LVU307
 830 00e0 1D07     		lsls	r5, r3, #28
 831 00e2 16D5     		bpl	.L92
 832              		.loc 1 621 5 is_stmt 1 view .LVU308
 833              		.loc 1 624 5 view .LVU309
 834              		.loc 1 624 8 is_stmt 0 view .LVU310
 835 00e4 6369     		ldr	r3, [r4, #20]
 836              		.loc 1 627 7 view .LVU311
 837 00e6 6F4D     		ldr	r5, .L198
 838              		.loc 1 624 8 view .LVU312
 839 00e8 002B     		cmp	r3, #0
 840 00ea 00F02281 		beq	.L93
 841              		.loc 1 627 7 is_stmt 1 view .LVU313
 842 00ee 6B6F     		ldr	r3, [r5, #116]
 843 00f0 43F00103 		orr	r3, r3, #1
 844 00f4 6B67     		str	r3, [r5, #116]
 845              		.loc 1 630 7 view .LVU314
 846              		.loc 1 630 19 is_stmt 0 view .LVU315
 847 00f6 FFF7FEFF 		bl	HAL_GetTick
 848              	.LVL63:
 849 00fa 0646     		mov	r6, r0
 850              	.LVL64:
 851              		.loc 1 633 7 is_stmt 1 view .LVU316
 852              		.loc 1 633 13 is_stmt 0 view .LVU317
 853 00fc 05E0     		b	.L94
 854              	.LVL65:
 855              	.L95:
ARM GAS  C:\Users\DEVELO~1\AppData\Local\Temp\ccPkHjk7.s 			page 16


 856              		.loc 1 635 14 view .LVU318
 857 00fe FFF7FEFF 		bl	HAL_GetTick
 858              	.LVL66:
 859              		.loc 1 635 28 view .LVU319
 860 0102 801B     		subs	r0, r0, r6
 861              		.loc 1 635 12 view .LVU320
 862 0104 0228     		cmp	r0, #2
 863 0106 00F2FC80 		bhi	.L61
 864              	.L94:
 865              		.loc 1 635 9 is_stmt 1 view .LVU321
 866              		.loc 1 633 50 view .LVU322
 867              		.loc 1 633 14 is_stmt 0 view .LVU323
 868 010a 6B6F     		ldr	r3, [r5, #116]
 869              		.loc 1 633 50 view .LVU324
 870 010c 9807     		lsls	r0, r3, #30
 871 010e F6D5     		bpl	.L95
 872              	.L178:
 873              		.loc 1 661 26 view .LVU325
 874 0110 2368     		ldr	r3, [r4]
 875              	.LVL67:
 876              	.L92:
 877              		.loc 1 661 3 is_stmt 1 view .LVU326
 878              		.loc 1 661 6 is_stmt 0 view .LVU327
 879 0112 9A06     		lsls	r2, r3, #26
 880 0114 16D5     		bpl	.L98
 881              		.loc 1 664 5 is_stmt 1 view .LVU328
 882              		.loc 1 667 5 view .LVU329
 883              		.loc 1 667 8 is_stmt 0 view .LVU330
 884 0116 A369     		ldr	r3, [r4, #24]
 885              		.loc 1 670 7 view .LVU331
 886 0118 624D     		ldr	r5, .L198
 887              		.loc 1 667 8 view .LVU332
 888 011a 002B     		cmp	r3, #0
 889 011c 00F01A81 		beq	.L99
 890              		.loc 1 670 7 is_stmt 1 view .LVU333
 891 0120 2B68     		ldr	r3, [r5]
 892 0122 43F48053 		orr	r3, r3, #4096
 893 0126 2B60     		str	r3, [r5]
 894              		.loc 1 670 31 view .LVU334
 895              		.loc 1 673 7 view .LVU335
 896              		.loc 1 673 19 is_stmt 0 view .LVU336
 897 0128 FFF7FEFF 		bl	HAL_GetTick
 898              	.LVL68:
 899 012c 0646     		mov	r6, r0
 900              	.LVL69:
 901              		.loc 1 676 7 is_stmt 1 view .LVU337
 902              		.loc 1 676 13 is_stmt 0 view .LVU338
 903 012e 05E0     		b	.L100
 904              	.LVL70:
 905              	.L101:
 906              		.loc 1 678 14 view .LVU339
 907 0130 FFF7FEFF 		bl	HAL_GetTick
 908              	.LVL71:
 909              		.loc 1 678 28 view .LVU340
 910 0134 801B     		subs	r0, r0, r6
 911              		.loc 1 678 12 view .LVU341
 912 0136 0228     		cmp	r0, #2
ARM GAS  C:\Users\DEVELO~1\AppData\Local\Temp\ccPkHjk7.s 			page 17


 913 0138 00F2E380 		bhi	.L61
 914              	.L100:
 915              		.loc 1 678 9 is_stmt 1 view .LVU342
 916              		.loc 1 676 52 view .LVU343
 917              		.loc 1 676 14 is_stmt 0 view .LVU344
 918 013c 2B68     		ldr	r3, [r5]
 919              		.loc 1 676 52 view .LVU345
 920 013e 9F04     		lsls	r7, r3, #18
 921 0140 F6D5     		bpl	.L101
 922              	.L179:
 923              		.loc 1 703 26 view .LVU346
 924 0142 2368     		ldr	r3, [r4]
 925              	.LVL72:
 926              	.L98:
 927              		.loc 1 703 3 is_stmt 1 view .LVU347
 928              		.loc 1 703 6 is_stmt 0 view .LVU348
 929 0144 5907     		lsls	r1, r3, #29
 930 0146 00F1A380 		bmi	.L104
 931              	.L117:
 932              		.loc 1 756 3 is_stmt 1 view .LVU349
 933              		.loc 1 757 3 view .LVU350
 934              		.loc 1 757 30 is_stmt 0 view .LVU351
 935 014a 606A     		ldr	r0, [r4, #36]
 936              		.loc 1 757 6 view .LVU352
 937 014c D0B1     		cbz	r0, .L106
 938              		.loc 1 760 5 is_stmt 1 view .LVU353
 939              		.loc 1 760 9 is_stmt 0 view .LVU354
 940 014e 554D     		ldr	r5, .L198
 941 0150 2B69     		ldr	r3, [r5, #16]
 942 0152 03F03803 		and	r3, r3, #56
 943              		.loc 1 760 8 view .LVU355
 944 0156 182B     		cmp	r3, #24
 945 0158 00F0AE81 		beq	.L119
 946              		.loc 1 762 7 is_stmt 1 view .LVU356
 947              		.loc 1 776 9 is_stmt 0 view .LVU357
 948 015c 2B68     		ldr	r3, [r5]
 949              		.loc 1 762 10 view .LVU358
 950 015e 0228     		cmp	r0, #2
 951              		.loc 1 776 9 view .LVU359
 952 0160 23F08073 		bic	r3, r3, #16777216
 953 0164 2B60     		str	r3, [r5]
 954              		.loc 1 762 10 view .LVU360
 955 0166 00F04281 		beq	.L191
 956              		.loc 1 840 9 is_stmt 1 view .LVU361
 957              		.loc 1 843 9 view .LVU362
 958              		.loc 1 843 21 is_stmt 0 view .LVU363
 959 016a FFF7FEFF 		bl	HAL_GetTick
 960              	.LVL73:
 961 016e 0446     		mov	r4, r0
 962              	.LVL74:
 963              		.loc 1 846 9 is_stmt 1 view .LVU364
 964              		.loc 1 846 15 is_stmt 0 view .LVU365
 965 0170 05E0     		b	.L125
 966              	.LVL75:
 967              	.L126:
 968              		.loc 1 848 16 view .LVU366
 969 0172 FFF7FEFF 		bl	HAL_GetTick
ARM GAS  C:\Users\DEVELO~1\AppData\Local\Temp\ccPkHjk7.s 			page 18


 970              	.LVL76:
 971              		.loc 1 848 30 view .LVU367
 972 0176 001B     		subs	r0, r0, r4
 973              		.loc 1 848 14 view .LVU368
 974 0178 0228     		cmp	r0, #2
 975 017a 00F2C280 		bhi	.L61
 976              	.L125:
 977              		.loc 1 848 11 is_stmt 1 view .LVU369
 978              		.loc 1 846 52 view .LVU370
 979              		.loc 1 846 16 is_stmt 0 view .LVU371
 980 017e 2B68     		ldr	r3, [r5]
 981              		.loc 1 846 52 view .LVU372
 982 0180 9B01     		lsls	r3, r3, #6
 983 0182 F6D4     		bmi	.L126
 984              	.LVL77:
 985              	.L106:
 986              		.loc 1 893 10 view .LVU373
 987 0184 0020     		movs	r0, #0
 988              	.L48:
 989              		.loc 1 894 1 view .LVU374
 990 0186 F8BD     		pop	{r3, r4, r5, r6, r7, pc}
 991              	.LVL78:
 992              	.L189:
 993              	.LBB4:
 994              		.loc 1 474 5 is_stmt 1 view .LVU375
 995              		.loc 1 475 5 view .LVU376
 996              		.loc 1 478 5 view .LVU377
 997              		.loc 1 478 37 is_stmt 0 view .LVU378
 998 0188 464A     		ldr	r2, .L198
 999 018a 1369     		ldr	r3, [r2, #16]
 1000              	.LVL79:
 1001              		.loc 1 479 5 is_stmt 1 view .LVU379
 1002              		.loc 1 479 20 is_stmt 0 view .LVU380
 1003 018c 926A     		ldr	r2, [r2, #40]
 1004              	.LVL80:
 1005              		.loc 1 480 5 is_stmt 1 view .LVU381
 1006              		.loc 1 480 8 is_stmt 0 view .LVU382
 1007 018e 13F03803 		ands	r3, r3, #56
 1008              	.LVL81:
 1009              		.loc 1 480 8 view .LVU383
 1010 0192 2DD1     		bne	.L192
 1011              	.L64:
 1012              		.loc 1 483 7 is_stmt 1 view .LVU384
 1013              		.loc 1 483 12 is_stmt 0 view .LVU385
 1014 0194 434B     		ldr	r3, .L198
 1015              	.LVL82:
 1016              		.loc 1 483 76 view .LVU386
 1017 0196 E268     		ldr	r2, [r4, #12]
 1018              	.LVL83:
 1019              		.loc 1 483 12 view .LVU387
 1020 0198 1B68     		ldr	r3, [r3]
 1021              		.loc 1 483 10 view .LVU388
 1022 019a 5907     		lsls	r1, r3, #29
 1023 019c 01D5     		bpl	.L67
 1024              		.loc 1 483 55 discriminator 1 view .LVU389
 1025 019e 002A     		cmp	r2, #0
 1026 01a0 4ED0     		beq	.L134
ARM GAS  C:\Users\DEVELO~1\AppData\Local\Temp\ccPkHjk7.s 			page 19


 1027              	.L67:
 1028              		.loc 1 491 9 is_stmt 1 view .LVU390
 1029 01a2 404D     		ldr	r5, .L198
 1030 01a4 2B68     		ldr	r3, [r5]
 1031 01a6 23F01903 		bic	r3, r3, #25
 1032 01aa 1343     		orrs	r3, r3, r2
 1033 01ac 2B60     		str	r3, [r5]
 1034              		.loc 1 494 9 view .LVU391
 1035              		.loc 1 494 21 is_stmt 0 view .LVU392
 1036 01ae FFF7FEFF 		bl	HAL_GetTick
 1037              	.LVL84:
 1038 01b2 0646     		mov	r6, r0
 1039              	.LVL85:
 1040              		.loc 1 497 9 is_stmt 1 view .LVU393
 1041              		.loc 1 497 15 is_stmt 0 view .LVU394
 1042 01b4 05E0     		b	.L68
 1043              	.LVL86:
 1044              	.L69:
 1045              		.loc 1 499 26 view .LVU395
 1046 01b6 FFF7FEFF 		bl	HAL_GetTick
 1047              	.LVL87:
 1048              		.loc 1 499 40 view .LVU396
 1049 01ba 801B     		subs	r0, r0, r6
 1050              		.loc 1 499 14 view .LVU397
 1051 01bc 0228     		cmp	r0, #2
 1052 01be 00F2A080 		bhi	.L61
 1053              	.L68:
 1054              		.loc 1 499 11 is_stmt 1 view .LVU398
 1055              		.loc 1 497 52 view .LVU399
 1056              		.loc 1 497 16 is_stmt 0 view .LVU400
 1057 01c2 2B68     		ldr	r3, [r5]
 1058              		.loc 1 497 52 view .LVU401
 1059 01c4 5B07     		lsls	r3, r3, #29
 1060 01c6 F6D5     		bpl	.L69
 1061              	.L183:
 1062              		.loc 1 530 9 is_stmt 1 view .LVU402
 1063              		.loc 1 530 9 view .LVU403
 1064 01c8 FFF7FEFF 		bl	HAL_GetREVID
 1065              	.LVL88:
 1066 01cc 41F20303 		movw	r3, #4099
 1067 01d0 9842     		cmp	r0, r3
 1068 01d2 00F2F780 		bhi	.L75
 1069              		.loc 1 530 9 discriminator 1 view .LVU404
 1070 01d6 2269     		ldr	r2, [r4, #16]
 1071 01d8 6B68     		ldr	r3, [r5, #4]
 1072 01da 402A     		cmp	r2, #64
 1073              		.loc 1 530 9 discriminator 1 view .LVU405
 1074              		.loc 1 530 9 discriminator 1 view .LVU406
 1075 01dc 23F47C33 		bic	r3, r3, #258048
 1076 01e0 0CBF     		ite	eq
 1077 01e2 43F40033 		orreq	r3, r3, #131072
 1078 01e6 43EA0233 		orrne	r3, r3, r2, lsl #12
 1079 01ea 6B60     		str	r3, [r5, #4]
 1080              	.LBE4:
 1081              		.loc 1 552 26 is_stmt 0 discriminator 1 view .LVU407
 1082 01ec 2368     		ldr	r3, [r4]
 1083 01ee 41E7     		b	.L63
ARM GAS  C:\Users\DEVELO~1\AppData\Local\Temp\ccPkHjk7.s 			page 20


 1084              	.LVL89:
 1085              	.L192:
 1086              	.LBB5:
 1087              		.loc 1 480 46 discriminator 1 view .LVU408
 1088 01f0 182B     		cmp	r3, #24
 1089 01f2 00F0E380 		beq	.L193
 1090              	.L65:
 1091              		.loc 1 512 7 is_stmt 1 view .LVU409
 1092              		.loc 1 515 9 is_stmt 0 view .LVU410
 1093 01f6 2B4D     		ldr	r5, .L198
 1094              		.loc 1 512 29 view .LVU411
 1095 01f8 E268     		ldr	r2, [r4, #12]
 1096              	.LVL90:
 1097              		.loc 1 515 9 view .LVU412
 1098 01fa 2B68     		ldr	r3, [r5]
 1099              	.LVL91:
 1100              		.loc 1 512 10 view .LVU413
 1101 01fc 002A     		cmp	r2, #0
 1102 01fe 00F0CC80 		beq	.L72
 1103              		.loc 1 515 9 is_stmt 1 view .LVU414
 1104 0202 23F01903 		bic	r3, r3, #25
 1105 0206 1343     		orrs	r3, r3, r2
 1106 0208 2B60     		str	r3, [r5]
 1107              		.loc 1 518 9 view .LVU415
 1108              		.loc 1 518 21 is_stmt 0 view .LVU416
 1109 020a FFF7FEFF 		bl	HAL_GetTick
 1110              	.LVL92:
 1111 020e 0646     		mov	r6, r0
 1112              	.LVL93:
 1113              		.loc 1 521 9 is_stmt 1 view .LVU417
 1114              		.loc 1 521 15 is_stmt 0 view .LVU418
 1115 0210 04E0     		b	.L73
 1116              	.LVL94:
 1117              	.L74:
 1118              		.loc 1 523 16 view .LVU419
 1119 0212 FFF7FEFF 		bl	HAL_GetTick
 1120              	.LVL95:
 1121              		.loc 1 523 30 view .LVU420
 1122 0216 801B     		subs	r0, r0, r6
 1123              		.loc 1 523 14 view .LVU421
 1124 0218 0228     		cmp	r0, #2
 1125 021a 72D8     		bhi	.L61
 1126              	.L73:
 1127              		.loc 1 523 11 is_stmt 1 view .LVU422
 1128              		.loc 1 521 52 view .LVU423
 1129              		.loc 1 521 16 is_stmt 0 view .LVU424
 1130 021c 2B68     		ldr	r3, [r5]
 1131              		.loc 1 521 52 view .LVU425
 1132 021e 5F07     		lsls	r7, r3, #29
 1133 0220 F7D5     		bpl	.L74
 1134 0222 D1E7     		b	.L183
 1135              	.LVL96:
 1136              	.L185:
 1137              		.loc 1 521 52 view .LVU426
 1138              	.LBE5:
 1139              	.LBB6:
 1140              		.loc 1 427 108 discriminator 2 view .LVU427
ARM GAS  C:\Users\DEVELO~1\AppData\Local\Temp\ccPkHjk7.s 			page 21


 1141 0224 01F00301 		and	r1, r1, #3
 1142              	.LVL97:
 1143              		.loc 1 427 88 discriminator 2 view .LVU428
 1144 0228 0229     		cmp	r1, #2
 1145 022a 7FF4FCAE 		bne	.L51
 1146              	.L50:
 1147              		.loc 1 429 7 is_stmt 1 view .LVU429
 1148              		.loc 1 429 12 is_stmt 0 view .LVU430
 1149 022e 1D4A     		ldr	r2, .L198
 1150              	.LVL98:
 1151              		.loc 1 429 12 view .LVU431
 1152 0230 1268     		ldr	r2, [r2]
 1153              		.loc 1 429 10 view .LVU432
 1154 0232 9203     		lsls	r2, r2, #14
 1155 0234 7FF51BAF 		bpl	.L49
 1156              		.loc 1 429 55 discriminator 1 view .LVU433
 1157 0238 6268     		ldr	r2, [r4, #4]
 1158 023a 002A     		cmp	r2, #0
 1159 023c 7FF417AF 		bne	.L49
 1160              	.LVL99:
 1161              	.L134:
 1162              		.loc 1 429 55 discriminator 1 view .LVU434
 1163              	.LBE6:
 1164              		.loc 1 868 16 view .LVU435
 1165 0240 0120     		movs	r0, #1
 1166              		.loc 1 894 1 view .LVU436
 1167 0242 F8BD     		pop	{r3, r4, r5, r6, r7, pc}
 1168              	.LVL100:
 1169              	.L190:
 1170              	.LBB7:
 1171              		.loc 1 561 108 discriminator 2 view .LVU437
 1172 0244 02F00302 		and	r2, r2, #3
 1173              	.LVL101:
 1174              		.loc 1 561 88 discriminator 2 view .LVU438
 1175 0248 012A     		cmp	r2, #1
 1176 024a 7FF420AF 		bne	.L81
 1177              	.L80:
 1178              		.loc 1 564 7 is_stmt 1 view .LVU439
 1179              		.loc 1 564 12 is_stmt 0 view .LVU440
 1180 024e 154B     		ldr	r3, .L198
 1181              	.LVL102:
 1182              		.loc 1 564 12 view .LVU441
 1183 0250 1B68     		ldr	r3, [r3]
 1184              		.loc 1 564 10 view .LVU442
 1185 0252 DA05     		lsls	r2, r3, #23
 1186 0254 02D5     		bpl	.L82
 1187              		.loc 1 564 55 discriminator 1 view .LVU443
 1188 0256 E369     		ldr	r3, [r4, #28]
 1189 0258 802B     		cmp	r3, #128
 1190 025a F1D1     		bne	.L134
 1191              	.L82:
 1192              		.loc 1 572 9 is_stmt 1 view .LVU444
 1193              		.loc 1 572 9 view .LVU445
 1194 025c FFF7FEFF 		bl	HAL_GetREVID
 1195              	.LVL103:
 1196 0260 41F20303 		movw	r3, #4099
 1197 0264 9842     		cmp	r0, r3
ARM GAS  C:\Users\DEVELO~1\AppData\Local\Temp\ccPkHjk7.s 			page 22


 1198 0266 00F2B880 		bhi	.L83
 1199              		.loc 1 572 9 discriminator 1 view .LVU446
 1200 026a 226A     		ldr	r2, [r4, #32]
 1201 026c 202A     		cmp	r2, #32
 1202 026e 00F0A781 		beq	.L194
 1203              		.loc 1 572 9 discriminator 4 view .LVU447
 1204 0272 0C49     		ldr	r1, .L198
 1205 0274 4B68     		ldr	r3, [r1, #4]
 1206 0276 23F0F843 		bic	r3, r3, #2080374784
 1207 027a 43EA8263 		orr	r3, r3, r2, lsl #26
 1208 027e 4B60     		str	r3, [r1, #4]
 1209              	.LBE7:
 1210              		.loc 1 618 26 is_stmt 0 discriminator 4 view .LVU448
 1211 0280 2368     		ldr	r3, [r4]
 1212 0282 2DE7     		b	.L79
 1213              	.LVL104:
 1214              	.L186:
 1215              	.LBB8:
 1216              		.loc 1 437 7 is_stmt 1 discriminator 1 view .LVU449
 1217 0284 074A     		ldr	r2, .L198
 1218              	.LVL105:
 1219              		.loc 1 437 7 is_stmt 0 discriminator 1 view .LVU450
 1220 0286 1368     		ldr	r3, [r2]
 1221 0288 43F48033 		orr	r3, r3, #65536
 1222 028c 1360     		str	r3, [r2]
 1223              		.loc 1 437 7 is_stmt 1 discriminator 1 view .LVU451
 1224              		.loc 1 440 7 discriminator 1 view .LVU452
 1225 028e DFE6     		b	.L54
 1226              	.LVL106:
 1227              	.L104:
 1228              		.loc 1 440 7 is_stmt 0 discriminator 1 view .LVU453
 1229              	.LBE8:
 1230              		.loc 1 706 5 is_stmt 1 view .LVU454
 1231              		.loc 1 709 5 view .LVU455
 1232              		.loc 1 709 14 is_stmt 0 view .LVU456
 1233 0290 054D     		ldr	r5, .L198+4
 1234 0292 2B68     		ldr	r3, [r5]
 1235 0294 43F48073 		orr	r3, r3, #256
 1236 0298 2B60     		str	r3, [r5]
 1237              		.loc 1 712 5 is_stmt 1 view .LVU457
 1238              		.loc 1 712 17 is_stmt 0 view .LVU458
 1239 029a FFF7FEFF 		bl	HAL_GetTick
 1240              	.LVL107:
 1241 029e 0646     		mov	r6, r0
 1242              	.LVL108:
 1243              		.loc 1 714 5 is_stmt 1 view .LVU459
 1244              		.loc 1 714 11 is_stmt 0 view .LVU460
 1245 02a0 09E0     		b	.L107
 1246              	.L199:
 1247 02a2 00BF     		.align	2
 1248              	.L198:
 1249 02a4 00440258 		.word	1476543488
 1250 02a8 00480258 		.word	1476544512
 1251              	.LVL109:
 1252              	.L108:
 1253              		.loc 1 716 12 view .LVU461
 1254 02ac FFF7FEFF 		bl	HAL_GetTick
ARM GAS  C:\Users\DEVELO~1\AppData\Local\Temp\ccPkHjk7.s 			page 23


 1255              	.LVL110:
 1256              		.loc 1 716 26 view .LVU462
 1257 02b0 801B     		subs	r0, r0, r6
 1258              		.loc 1 716 10 view .LVU463
 1259 02b2 6428     		cmp	r0, #100
 1260 02b4 25D8     		bhi	.L61
 1261              	.L107:
 1262              		.loc 1 716 7 is_stmt 1 view .LVU464
 1263              		.loc 1 714 37 view .LVU465
 1264              		.loc 1 714 16 is_stmt 0 view .LVU466
 1265 02b6 2B68     		ldr	r3, [r5]
 1266              		.loc 1 714 37 view .LVU467
 1267 02b8 DA05     		lsls	r2, r3, #23
 1268 02ba F7D5     		bpl	.L108
 1269              		.loc 1 723 5 is_stmt 1 view .LVU468
 1270              		.loc 1 723 5 view .LVU469
 1271 02bc A368     		ldr	r3, [r4, #8]
 1272 02be 012B     		cmp	r3, #1
 1273 02c0 00F07881 		beq	.L195
 1274              		.loc 1 723 5 discriminator 2 view .LVU470
 1275 02c4 002B     		cmp	r3, #0
 1276 02c6 00F05381 		beq	.L196
 1277              		.loc 1 723 5 discriminator 5 view .LVU471
 1278 02ca 052B     		cmp	r3, #5
 1279 02cc A54B     		ldr	r3, .L200
 1280 02ce 1A6F     		ldr	r2, [r3, #112]
 1281 02d0 00F07F81 		beq	.L197
 1282              		.loc 1 723 5 discriminator 8 view .LVU472
 1283 02d4 22F00102 		bic	r2, r2, #1
 1284 02d8 1A67     		str	r2, [r3, #112]
 1285              		.loc 1 723 5 discriminator 8 view .LVU473
 1286 02da 1A6F     		ldr	r2, [r3, #112]
 1287 02dc 22F00402 		bic	r2, r2, #4
 1288 02e0 1A67     		str	r2, [r3, #112]
 1289              	.L110:
 1290              		.loc 1 728 7 view .LVU474
 1291              		.loc 1 728 19 is_stmt 0 view .LVU475
 1292 02e2 FFF7FEFF 		bl	HAL_GetTick
 1293              	.LVL111:
 1294              		.loc 1 731 14 view .LVU476
 1295 02e6 9F4E     		ldr	r6, .L200
 1296              	.LVL112:
 1297              		.loc 1 733 12 view .LVU477
 1298 02e8 41F28837 		movw	r7, #5000
 1299              		.loc 1 728 19 view .LVU478
 1300 02ec 0546     		mov	r5, r0
 1301              	.LVL113:
 1302              		.loc 1 731 7 is_stmt 1 view .LVU479
 1303              		.loc 1 731 13 is_stmt 0 view .LVU480
 1304 02ee 04E0     		b	.L115
 1305              	.LVL114:
 1306              	.L116:
 1307              		.loc 1 733 14 view .LVU481
 1308 02f0 FFF7FEFF 		bl	HAL_GetTick
 1309              	.LVL115:
 1310              		.loc 1 733 28 view .LVU482
 1311 02f4 401B     		subs	r0, r0, r5
ARM GAS  C:\Users\DEVELO~1\AppData\Local\Temp\ccPkHjk7.s 			page 24


 1312              		.loc 1 733 12 view .LVU483
 1313 02f6 B842     		cmp	r0, r7
 1314 02f8 03D8     		bhi	.L61
 1315              	.L115:
 1316              		.loc 1 733 9 is_stmt 1 view .LVU484
 1317              		.loc 1 731 50 view .LVU485
 1318              		.loc 1 731 14 is_stmt 0 view .LVU486
 1319 02fa 336F     		ldr	r3, [r6, #112]
 1320              		.loc 1 731 50 view .LVU487
 1321 02fc 9B07     		lsls	r3, r3, #30
 1322 02fe F7D5     		bpl	.L116
 1323 0300 23E7     		b	.L117
 1324              	.LVL116:
 1325              	.L61:
 1326              	.LBB9:
 1327              		.loc 1 450 20 view .LVU488
 1328 0302 0320     		movs	r0, #3
 1329              	.LBE9:
 1330              		.loc 1 894 1 view .LVU489
 1331 0304 F8BD     		pop	{r3, r4, r5, r6, r7, pc}
 1332              	.LVL117:
 1333              	.L187:
 1334              	.LBB10:
 1335              		.loc 1 437 7 is_stmt 1 discriminator 4 view .LVU490
 1336 0306 974D     		ldr	r5, .L200
 1337 0308 2B68     		ldr	r3, [r5]
 1338 030a 23F48033 		bic	r3, r3, #65536
 1339 030e 2B60     		str	r3, [r5]
 1340              		.loc 1 437 7 discriminator 4 view .LVU491
 1341 0310 2B68     		ldr	r3, [r5]
 1342 0312 23F48023 		bic	r3, r3, #262144
 1343 0316 2B60     		str	r3, [r5]
 1344              		.loc 1 437 7 discriminator 4 view .LVU492
 1345              		.loc 1 440 7 discriminator 4 view .LVU493
 1346              		.loc 1 457 9 discriminator 4 view .LVU494
 1347              		.loc 1 457 21 is_stmt 0 discriminator 4 view .LVU495
 1348 0318 FFF7FEFF 		bl	HAL_GetTick
 1349              	.LVL118:
 1350              		.loc 1 457 21 discriminator 4 view .LVU496
 1351 031c 0646     		mov	r6, r0
 1352              	.LVL119:
 1353              		.loc 1 460 9 is_stmt 1 discriminator 4 view .LVU497
 1354              		.loc 1 460 15 is_stmt 0 discriminator 4 view .LVU498
 1355 031e 04E0     		b	.L56
 1356              	.LVL120:
 1357              	.L62:
 1358              		.loc 1 462 26 view .LVU499
 1359 0320 FFF7FEFF 		bl	HAL_GetTick
 1360              	.LVL121:
 1361              		.loc 1 462 40 view .LVU500
 1362 0324 801B     		subs	r0, r0, r6
 1363              		.loc 1 462 14 view .LVU501
 1364 0326 6428     		cmp	r0, #100
 1365 0328 EBD8     		bhi	.L61
 1366              	.L56:
 1367              		.loc 1 462 11 is_stmt 1 view .LVU502
 1368              		.loc 1 460 52 view .LVU503
ARM GAS  C:\Users\DEVELO~1\AppData\Local\Temp\ccPkHjk7.s 			page 25


 1369              		.loc 1 460 16 is_stmt 0 view .LVU504
 1370 032a 2B68     		ldr	r3, [r5]
 1371              		.loc 1 460 52 view .LVU505
 1372 032c 9F03     		lsls	r7, r3, #14
 1373 032e F7D4     		bmi	.L62
 1374 0330 9CE6     		b	.L176
 1375              	.LVL122:
 1376              	.L93:
 1377              		.loc 1 460 52 view .LVU506
 1378              	.LBE10:
 1379              		.loc 1 644 7 is_stmt 1 view .LVU507
 1380 0332 6B6F     		ldr	r3, [r5, #116]
 1381 0334 23F00103 		bic	r3, r3, #1
 1382 0338 6B67     		str	r3, [r5, #116]
 1383              		.loc 1 647 7 view .LVU508
 1384              		.loc 1 647 19 is_stmt 0 view .LVU509
 1385 033a FFF7FEFF 		bl	HAL_GetTick
 1386              	.LVL123:
 1387 033e 0646     		mov	r6, r0
 1388              	.LVL124:
 1389              		.loc 1 650 7 is_stmt 1 view .LVU510
 1390              		.loc 1 650 13 is_stmt 0 view .LVU511
 1391 0340 04E0     		b	.L96
 1392              	.LVL125:
 1393              	.L97:
 1394              		.loc 1 652 14 view .LVU512
 1395 0342 FFF7FEFF 		bl	HAL_GetTick
 1396              	.LVL126:
 1397              		.loc 1 652 28 view .LVU513
 1398 0346 801B     		subs	r0, r0, r6
 1399              		.loc 1 652 12 view .LVU514
 1400 0348 0228     		cmp	r0, #2
 1401 034a DAD8     		bhi	.L61
 1402              	.L96:
 1403              		.loc 1 652 9 is_stmt 1 view .LVU515
 1404              		.loc 1 650 50 view .LVU516
 1405              		.loc 1 650 14 is_stmt 0 view .LVU517
 1406 034c 6B6F     		ldr	r3, [r5, #116]
 1407              		.loc 1 650 50 view .LVU518
 1408 034e 9907     		lsls	r1, r3, #30
 1409 0350 F7D4     		bmi	.L97
 1410 0352 DDE6     		b	.L178
 1411              	.LVL127:
 1412              	.L99:
 1413              		.loc 1 687 7 is_stmt 1 view .LVU519
 1414 0354 2B68     		ldr	r3, [r5]
 1415 0356 23F48053 		bic	r3, r3, #4096
 1416 035a 2B60     		str	r3, [r5]
 1417              		.loc 1 687 32 view .LVU520
 1418              		.loc 1 690 7 view .LVU521
 1419              		.loc 1 690 19 is_stmt 0 view .LVU522
 1420 035c FFF7FEFF 		bl	HAL_GetTick
 1421              	.LVL128:
 1422 0360 0646     		mov	r6, r0
 1423              	.LVL129:
 1424              		.loc 1 693 7 is_stmt 1 view .LVU523
 1425              		.loc 1 693 13 is_stmt 0 view .LVU524
ARM GAS  C:\Users\DEVELO~1\AppData\Local\Temp\ccPkHjk7.s 			page 26


 1426 0362 04E0     		b	.L102
 1427              	.LVL130:
 1428              	.L103:
 1429              		.loc 1 695 14 view .LVU525
 1430 0364 FFF7FEFF 		bl	HAL_GetTick
 1431              	.LVL131:
 1432              		.loc 1 695 28 view .LVU526
 1433 0368 801B     		subs	r0, r0, r6
 1434              		.loc 1 695 12 view .LVU527
 1435 036a 0228     		cmp	r0, #2
 1436 036c C9D8     		bhi	.L61
 1437              	.L102:
 1438              		.loc 1 695 9 is_stmt 1 view .LVU528
 1439              		.loc 1 693 52 view .LVU529
 1440              		.loc 1 693 14 is_stmt 0 view .LVU530
 1441 036e 2B68     		ldr	r3, [r5]
 1442              		.loc 1 693 52 view .LVU531
 1443 0370 9804     		lsls	r0, r3, #18
 1444 0372 F7D4     		bmi	.L103
 1445 0374 E5E6     		b	.L179
 1446              	.LVL132:
 1447              	.L85:
 1448              	.LBB11:
 1449              		.loc 1 601 9 is_stmt 1 view .LVU532
 1450 0376 2B68     		ldr	r3, [r5]
 1451 0378 23F08003 		bic	r3, r3, #128
 1452 037c 2B60     		str	r3, [r5]
 1453              		.loc 1 604 9 view .LVU533
 1454              		.loc 1 604 21 is_stmt 0 view .LVU534
 1455 037e FFF7FEFF 		bl	HAL_GetTick
 1456              	.LVL133:
 1457 0382 0646     		mov	r6, r0
 1458              	.LVL134:
 1459              		.loc 1 607 9 is_stmt 1 view .LVU535
 1460              		.loc 1 607 15 is_stmt 0 view .LVU536
 1461 0384 04E0     		b	.L90
 1462              	.LVL135:
 1463              	.L91:
 1464              		.loc 1 609 16 view .LVU537
 1465 0386 FFF7FEFF 		bl	HAL_GetTick
 1466              	.LVL136:
 1467              		.loc 1 609 30 view .LVU538
 1468 038a 801B     		subs	r0, r0, r6
 1469              		.loc 1 609 14 view .LVU539
 1470 038c 0228     		cmp	r0, #2
 1471 038e B8D8     		bhi	.L61
 1472              	.L90:
 1473              		.loc 1 609 11 is_stmt 1 view .LVU540
 1474              		.loc 1 607 52 view .LVU541
 1475              		.loc 1 607 16 is_stmt 0 view .LVU542
 1476 0390 2B68     		ldr	r3, [r5]
 1477              		.loc 1 607 52 view .LVU543
 1478 0392 DF05     		lsls	r7, r3, #23
 1479 0394 F7D4     		bmi	.L91
 1480              	.LBE11:
 1481              		.loc 1 618 26 view .LVU544
 1482 0396 2368     		ldr	r3, [r4]
ARM GAS  C:\Users\DEVELO~1\AppData\Local\Temp\ccPkHjk7.s 			page 27


 1483 0398 A2E6     		b	.L79
 1484              	.LVL137:
 1485              	.L72:
 1486              	.LBB12:
 1487              		.loc 1 535 9 is_stmt 1 view .LVU545
 1488 039a 23F00103 		bic	r3, r3, #1
 1489 039e 2B60     		str	r3, [r5]
 1490              		.loc 1 538 9 view .LVU546
 1491              		.loc 1 538 21 is_stmt 0 view .LVU547
 1492 03a0 FFF7FEFF 		bl	HAL_GetTick
 1493              	.LVL138:
 1494 03a4 0646     		mov	r6, r0
 1495              	.LVL139:
 1496              		.loc 1 541 9 is_stmt 1 view .LVU548
 1497              		.loc 1 541 15 is_stmt 0 view .LVU549
 1498 03a6 04E0     		b	.L77
 1499              	.LVL140:
 1500              	.L78:
 1501              		.loc 1 543 16 view .LVU550
 1502 03a8 FFF7FEFF 		bl	HAL_GetTick
 1503              	.LVL141:
 1504              		.loc 1 543 30 view .LVU551
 1505 03ac 801B     		subs	r0, r0, r6
 1506              		.loc 1 543 14 view .LVU552
 1507 03ae 0228     		cmp	r0, #2
 1508 03b0 A7D8     		bhi	.L61
 1509              	.L77:
 1510              		.loc 1 543 11 is_stmt 1 view .LVU553
 1511              		.loc 1 541 52 view .LVU554
 1512              		.loc 1 541 16 is_stmt 0 view .LVU555
 1513 03b2 2B68     		ldr	r3, [r5]
 1514              		.loc 1 541 52 view .LVU556
 1515 03b4 5807     		lsls	r0, r3, #29
 1516 03b6 F7D4     		bmi	.L78
 1517              	.LBE12:
 1518              		.loc 1 552 26 view .LVU557
 1519 03b8 2368     		ldr	r3, [r4]
 1520 03ba 5BE6     		b	.L63
 1521              	.LVL142:
 1522              	.L193:
 1523              	.LBB13:
 1524              		.loc 1 480 88 discriminator 2 view .LVU558
 1525 03bc 9007     		lsls	r0, r2, #30
 1526 03be 7FF41AAF 		bne	.L65
 1527 03c2 E7E6     		b	.L64
 1528              	.LVL143:
 1529              	.L75:
 1530              		.loc 1 530 9 is_stmt 1 discriminator 2 view .LVU559
 1531 03c4 6B68     		ldr	r3, [r5, #4]
 1532 03c6 2269     		ldr	r2, [r4, #16]
 1533 03c8 23F0FE43 		bic	r3, r3, #2130706432
 1534 03cc 43EA0263 		orr	r3, r3, r2, lsl #24
 1535 03d0 6B60     		str	r3, [r5, #4]
 1536              	.LBE13:
 1537              		.loc 1 552 26 is_stmt 0 discriminator 2 view .LVU560
 1538 03d2 2368     		ldr	r3, [r4]
 1539 03d4 4EE6     		b	.L63
ARM GAS  C:\Users\DEVELO~1\AppData\Local\Temp\ccPkHjk7.s 			page 28


 1540              	.LVL144:
 1541              	.L184:
 1542              		.cfi_def_cfa_offset 0
 1543              		.cfi_restore 3
 1544              		.cfi_restore 4
 1545              		.cfi_restore 5
 1546              		.cfi_restore 6
 1547              		.cfi_restore 7
 1548              		.cfi_restore 14
 1549              		.loc 1 413 12 view .LVU561
 1550 03d6 0120     		movs	r0, #1
 1551              	.LVL145:
 1552              		.loc 1 894 1 view .LVU562
 1553 03d8 7047     		bx	lr
 1554              	.LVL146:
 1555              	.L83:
 1556              		.cfi_def_cfa_offset 24
 1557              		.cfi_offset 3, -24
 1558              		.cfi_offset 4, -20
 1559              		.cfi_offset 5, -16
 1560              		.cfi_offset 6, -12
 1561              		.cfi_offset 7, -8
 1562              		.cfi_offset 14, -4
 1563              	.LBB14:
 1564              		.loc 1 572 9 is_stmt 1 discriminator 2 view .LVU563
 1565 03da 624A     		ldr	r2, .L200
 1566 03dc 216A     		ldr	r1, [r4, #32]
 1567 03de D368     		ldr	r3, [r2, #12]
 1568 03e0 23F07C53 		bic	r3, r3, #1056964608
 1569 03e4 43EA0163 		orr	r3, r3, r1, lsl #24
 1570 03e8 D360     		str	r3, [r2, #12]
 1571              	.LBE14:
 1572              		.loc 1 618 26 is_stmt 0 discriminator 2 view .LVU564
 1573 03ea 2368     		ldr	r3, [r4]
 1574 03ec 78E6     		b	.L79
 1575              	.L191:
 1576              		.loc 1 765 9 is_stmt 1 view .LVU565
 1577              		.loc 1 766 9 view .LVU566
 1578              		.loc 1 767 9 view .LVU567
 1579              		.loc 1 768 9 view .LVU568
 1580              		.loc 1 769 9 view .LVU569
 1581              		.loc 1 770 9 view .LVU570
 1582              		.loc 1 771 9 view .LVU571
 1583              		.loc 1 772 9 view .LVU572
 1584              		.loc 1 773 9 view .LVU573
 1585              		.loc 1 776 9 view .LVU574
 1586              		.loc 1 779 9 view .LVU575
 1587              		.loc 1 779 21 is_stmt 0 view .LVU576
 1588 03ee FFF7FEFF 		bl	HAL_GetTick
 1589              	.LVL147:
 1590 03f2 0646     		mov	r6, r0
 1591              	.LVL148:
 1592              		.loc 1 782 9 is_stmt 1 view .LVU577
 1593              		.loc 1 782 15 is_stmt 0 view .LVU578
 1594 03f4 04E0     		b	.L121
 1595              	.LVL149:
 1596              	.L122:
ARM GAS  C:\Users\DEVELO~1\AppData\Local\Temp\ccPkHjk7.s 			page 29


 1597              		.loc 1 784 16 view .LVU579
 1598 03f6 FFF7FEFF 		bl	HAL_GetTick
 1599              	.LVL150:
 1600              		.loc 1 784 30 view .LVU580
 1601 03fa 801B     		subs	r0, r0, r6
 1602              		.loc 1 784 14 view .LVU581
 1603 03fc 0228     		cmp	r0, #2
 1604 03fe 80D8     		bhi	.L61
 1605              	.L121:
 1606              		.loc 1 784 11 is_stmt 1 view .LVU582
 1607              		.loc 1 782 52 view .LVU583
 1608              		.loc 1 782 16 is_stmt 0 view .LVU584
 1609 0400 2B68     		ldr	r3, [r5]
 1610              		.loc 1 782 52 view .LVU585
 1611 0402 9901     		lsls	r1, r3, #6
 1612 0404 F7D4     		bmi	.L122
 1613              		.loc 1 791 9 is_stmt 1 view .LVU586
 1614              		.loc 1 791 9 view .LVU587
 1615 0406 A96A     		ldr	r1, [r5, #40]
 1616 0408 574B     		ldr	r3, .L200+4
 1617 040a A26A     		ldr	r2, [r4, #40]
 1618 040c 0B40     		ands	r3, r3, r1
 1619              		.loc 1 802 9 is_stmt 0 view .LVU588
 1620 040e 5749     		ldr	r1, .L200+8
 1621              		.loc 1 829 16 view .LVU589
 1622 0410 544E     		ldr	r6, .L200
 1623              	.LVL151:
 1624              		.loc 1 791 9 view .LVU590
 1625 0412 1343     		orrs	r3, r3, r2
 1626 0414 E26A     		ldr	r2, [r4, #44]
 1627 0416 43EA0213 		orr	r3, r3, r2, lsl #4
 1628 041a AB62     		str	r3, [r5, #40]
 1629              		.loc 1 791 9 is_stmt 1 view .LVU591
 1630 041c D4E90D32 		ldrd	r3, r2, [r4, #52]
 1631 0420 013B     		subs	r3, r3, #1
 1632 0422 013A     		subs	r2, r2, #1
 1633 0424 5B02     		lsls	r3, r3, #9
 1634 0426 1204     		lsls	r2, r2, #16
 1635 0428 9BB2     		uxth	r3, r3
 1636 042a 02F4FE02 		and	r2, r2, #8323072
 1637 042e 1343     		orrs	r3, r3, r2
 1638 0430 226B     		ldr	r2, [r4, #48]
 1639 0432 013A     		subs	r2, r2, #1
 1640 0434 C2F30802 		ubfx	r2, r2, #0, #9
 1641 0438 1343     		orrs	r3, r3, r2
 1642 043a E26B     		ldr	r2, [r4, #60]
 1643 043c 013A     		subs	r2, r2, #1
 1644 043e 1206     		lsls	r2, r2, #24
 1645 0440 02F0FE42 		and	r2, r2, #2130706432
 1646 0444 1343     		orrs	r3, r3, r2
 1647 0446 2B63     		str	r3, [r5, #48]
 1648              		.loc 1 791 9 view .LVU592
 1649              		.loc 1 799 9 view .LVU593
 1650 0448 EB6A     		ldr	r3, [r5, #44]
 1651 044a 23F00103 		bic	r3, r3, #1
 1652 044e EB62     		str	r3, [r5, #44]
 1653              		.loc 1 802 9 view .LVU594
ARM GAS  C:\Users\DEVELO~1\AppData\Local\Temp\ccPkHjk7.s 			page 30


 1654 0450 6A6B     		ldr	r2, [r5, #52]
 1655 0452 A36C     		ldr	r3, [r4, #72]
 1656 0454 1140     		ands	r1, r1, r2
 1657 0456 41EAC301 		orr	r1, r1, r3, lsl #3
 1658 045a 6963     		str	r1, [r5, #52]
 1659              		.loc 1 805 9 view .LVU595
 1660 045c EB6A     		ldr	r3, [r5, #44]
 1661 045e 226C     		ldr	r2, [r4, #64]
 1662 0460 23F00C03 		bic	r3, r3, #12
 1663 0464 1343     		orrs	r3, r3, r2
 1664 0466 EB62     		str	r3, [r5, #44]
 1665              		.loc 1 808 9 view .LVU596
 1666 0468 EB6A     		ldr	r3, [r5, #44]
 1667 046a 626C     		ldr	r2, [r4, #68]
 1668 046c 23F00203 		bic	r3, r3, #2
 1669 0470 1343     		orrs	r3, r3, r2
 1670 0472 EB62     		str	r3, [r5, #44]
 1671              		.loc 1 811 9 view .LVU597
 1672 0474 EB6A     		ldr	r3, [r5, #44]
 1673 0476 43F48033 		orr	r3, r3, #65536
 1674 047a EB62     		str	r3, [r5, #44]
 1675              		.loc 1 814 9 view .LVU598
 1676 047c EB6A     		ldr	r3, [r5, #44]
 1677 047e 43F40033 		orr	r3, r3, #131072
 1678 0482 EB62     		str	r3, [r5, #44]
 1679              		.loc 1 817 9 view .LVU599
 1680 0484 EB6A     		ldr	r3, [r5, #44]
 1681 0486 43F48023 		orr	r3, r3, #262144
 1682 048a EB62     		str	r3, [r5, #44]
 1683              		.loc 1 820 9 view .LVU600
 1684 048c EB6A     		ldr	r3, [r5, #44]
 1685 048e 43F00103 		orr	r3, r3, #1
 1686 0492 EB62     		str	r3, [r5, #44]
 1687              		.loc 1 823 9 view .LVU601
 1688 0494 2B68     		ldr	r3, [r5]
 1689 0496 43F08073 		orr	r3, r3, #16777216
 1690 049a 2B60     		str	r3, [r5]
 1691              		.loc 1 826 9 view .LVU602
 1692              		.loc 1 826 21 is_stmt 0 view .LVU603
 1693 049c FFF7FEFF 		bl	HAL_GetTick
 1694              	.LVL152:
 1695 04a0 0446     		mov	r4, r0
 1696              	.LVL153:
 1697              		.loc 1 829 9 is_stmt 1 view .LVU604
 1698              		.loc 1 829 15 is_stmt 0 view .LVU605
 1699 04a2 05E0     		b	.L123
 1700              	.LVL154:
 1701              	.L124:
 1702              		.loc 1 831 16 view .LVU606
 1703 04a4 FFF7FEFF 		bl	HAL_GetTick
 1704              	.LVL155:
 1705              		.loc 1 831 30 view .LVU607
 1706 04a8 001B     		subs	r0, r0, r4
 1707              		.loc 1 831 14 view .LVU608
 1708 04aa 0228     		cmp	r0, #2
 1709 04ac 3FF629AF 		bhi	.L61
 1710              	.L123:
ARM GAS  C:\Users\DEVELO~1\AppData\Local\Temp\ccPkHjk7.s 			page 31


 1711              		.loc 1 831 11 is_stmt 1 view .LVU609
 1712              		.loc 1 829 52 view .LVU610
 1713              		.loc 1 829 16 is_stmt 0 view .LVU611
 1714 04b0 3368     		ldr	r3, [r6]
 1715              		.loc 1 829 52 view .LVU612
 1716 04b2 9A01     		lsls	r2, r3, #6
 1717 04b4 F6D5     		bpl	.L124
 1718 04b6 65E6     		b	.L106
 1719              	.LVL156:
 1720              	.L119:
 1721              		.loc 1 858 7 is_stmt 1 view .LVU613
 1722              		.loc 1 860 10 is_stmt 0 view .LVU614
 1723 04b8 0128     		cmp	r0, #1
 1724              		.loc 1 858 22 view .LVU615
 1725 04ba AA6A     		ldr	r2, [r5, #40]
 1726              	.LVL157:
 1727              		.loc 1 859 7 is_stmt 1 view .LVU616
 1728              		.loc 1 859 22 is_stmt 0 view .LVU617
 1729 04bc 2E6B     		ldr	r6, [r5, #48]
 1730              	.LVL158:
 1731              		.loc 1 860 7 is_stmt 1 view .LVU618
 1732              		.loc 1 860 10 is_stmt 0 view .LVU619
 1733 04be 3FF462AE 		beq	.L48
 1734              		.loc 1 861 12 discriminator 1 view .LVU620
 1735 04c2 02F00303 		and	r3, r2, #3
 1736              		.loc 1 860 62 discriminator 1 view .LVU621
 1737 04c6 A16A     		ldr	r1, [r4, #40]
 1738 04c8 8B42     		cmp	r3, r1
 1739 04ca 7FF4B9AE 		bne	.L134
 1740              		.loc 1 862 59 view .LVU622
 1741 04ce C2F30512 		ubfx	r2, r2, #4, #6
 1742              	.LVL159:
 1743              		.loc 1 861 96 view .LVU623
 1744 04d2 E36A     		ldr	r3, [r4, #44]
 1745 04d4 9A42     		cmp	r2, r3
 1746 04d6 7FF4B3AE 		bne	.L134
 1747              		.loc 1 863 86 view .LVU624
 1748 04da 236B     		ldr	r3, [r4, #48]
 1749              		.loc 1 863 12 view .LVU625
 1750 04dc C6F30802 		ubfx	r2, r6, #0, #9
 1751              		.loc 1 863 86 view .LVU626
 1752 04e0 013B     		subs	r3, r3, #1
 1753              		.loc 1 862 119 view .LVU627
 1754 04e2 9A42     		cmp	r2, r3
 1755 04e4 7FF4ACAE 		bne	.L134
 1756              		.loc 1 864 111 view .LVU628
 1757 04e8 636B     		ldr	r3, [r4, #52]
 1758              		.loc 1 864 55 view .LVU629
 1759 04ea C6F34622 		ubfx	r2, r6, #9, #7
 1760              		.loc 1 864 111 view .LVU630
 1761 04ee 013B     		subs	r3, r3, #1
 1762              		.loc 1 863 93 view .LVU631
 1763 04f0 9A42     		cmp	r2, r3
 1764 04f2 7FF4A5AE 		bne	.L134
 1765              		.loc 1 865 111 view .LVU632
 1766 04f6 A36B     		ldr	r3, [r4, #56]
 1767              		.loc 1 865 55 view .LVU633
ARM GAS  C:\Users\DEVELO~1\AppData\Local\Temp\ccPkHjk7.s 			page 32


 1768 04f8 C6F30642 		ubfx	r2, r6, #16, #7
 1769              		.loc 1 865 111 view .LVU634
 1770 04fc 013B     		subs	r3, r3, #1
 1771              		.loc 1 864 118 view .LVU635
 1772 04fe 9A42     		cmp	r2, r3
 1773 0500 7FF49EAE 		bne	.L134
 1774              		.loc 1 866 111 view .LVU636
 1775 0504 E36B     		ldr	r3, [r4, #60]
 1776              		.loc 1 866 55 view .LVU637
 1777 0506 C6F30666 		ubfx	r6, r6, #24, #7
 1778              	.LVL160:
 1779              		.loc 1 866 111 view .LVU638
 1780 050a 013B     		subs	r3, r3, #1
 1781              		.loc 1 865 118 view .LVU639
 1782 050c 9E42     		cmp	r6, r3
 1783 050e 7FF497AE 		bne	.L134
 1784              		.loc 1 873 9 is_stmt 1 view .LVU640
 1785              		.loc 1 873 31 is_stmt 0 view .LVU641
 1786 0512 6B6B     		ldr	r3, [r5, #52]
 1787              	.LVL161:
 1788              		.loc 1 874 9 is_stmt 1 view .LVU642
 1789              		.loc 1 874 12 is_stmt 0 view .LVU643
 1790 0514 A26C     		ldr	r2, [r4, #72]
 1791              		.loc 1 873 24 view .LVU644
 1792 0516 C3F3CC03 		ubfx	r3, r3, #3, #13
 1793              	.LVL162:
 1794              		.loc 1 874 12 view .LVU645
 1795 051a 9A42     		cmp	r2, r3
 1796 051c 3FF432AE 		beq	.L106
 1797              		.loc 1 876 11 is_stmt 1 view .LVU646
 1798              		.loc 1 878 11 view .LVU647
 1799 0520 104A     		ldr	r2, .L200
 1800 0522 D36A     		ldr	r3, [r2, #44]
 1801 0524 23F00103 		bic	r3, r3, #1
 1802 0528 D362     		str	r3, [r2, #44]
 1803              		.loc 1 880 11 view .LVU648
 1804              		.loc 1 880 23 is_stmt 0 view .LVU649
 1805 052a FFF7FEFF 		bl	HAL_GetTick
 1806              	.LVL163:
 1807 052e 0546     		mov	r5, r0
 1808              	.LVL164:
 1809              		.loc 1 882 11 is_stmt 1 view .LVU650
 1810              	.L127:
 1811              		.loc 1 884 11 discriminator 1 view .LVU651
 1812              		.loc 1 882 46 discriminator 1 view .LVU652
 1813              		.loc 1 882 19 is_stmt 0 discriminator 1 view .LVU653
 1814 0530 FFF7FEFF 		bl	HAL_GetTick
 1815              	.LVL165:
 1816              		.loc 1 882 46 discriminator 1 view .LVU654
 1817 0534 A842     		cmp	r0, r5
 1818 0536 FBD0     		beq	.L127
 1819              		.loc 1 886 11 is_stmt 1 view .LVU655
 1820 0538 0A4A     		ldr	r2, .L200
 1821              		.loc 1 893 10 is_stmt 0 view .LVU656
 1822 053a 0020     		movs	r0, #0
 1823              		.loc 1 886 11 view .LVU657
 1824 053c A16C     		ldr	r1, [r4, #72]
ARM GAS  C:\Users\DEVELO~1\AppData\Local\Temp\ccPkHjk7.s 			page 33


 1825 053e 0B4B     		ldr	r3, .L200+8
 1826 0540 546B     		ldr	r4, [r2, #52]
 1827              	.LVL166:
 1828              		.loc 1 886 11 view .LVU658
 1829 0542 2340     		ands	r3, r3, r4
 1830 0544 43EAC103 		orr	r3, r3, r1, lsl #3
 1831 0548 5363     		str	r3, [r2, #52]
 1832              		.loc 1 888 11 is_stmt 1 view .LVU659
 1833 054a D36A     		ldr	r3, [r2, #44]
 1834 054c 43F00103 		orr	r3, r3, #1
 1835 0550 D362     		str	r3, [r2, #44]
 1836              		.loc 1 894 1 is_stmt 0 view .LVU660
 1837 0552 F8BD     		pop	{r3, r4, r5, r6, r7, pc}
 1838              	.LVL167:
 1839              	.L188:
 1840              	.LBB15:
 1841              		.loc 1 437 7 is_stmt 1 discriminator 7 view .LVU661
 1842 0554 42F48022 		orr	r2, r2, #262144
 1843 0558 1A60     		str	r2, [r3]
 1844              		.loc 1 437 7 discriminator 7 view .LVU662
 1845 055a 1A68     		ldr	r2, [r3]
 1846 055c 42F48032 		orr	r2, r2, #65536
 1847 0560 1A60     		str	r2, [r3]
 1848 0562 75E5     		b	.L54
 1849              	.L201:
 1850              		.align	2
 1851              	.L200:
 1852 0564 00440258 		.word	1476543488
 1853 0568 0CFCFFFF 		.word	-1012
 1854 056c 0700FFFF 		.word	-65529
 1855              	.LVL168:
 1856              	.L196:
 1857              		.loc 1 437 7 is_stmt 0 discriminator 7 view .LVU663
 1858              	.LBE15:
 1859              		.loc 1 723 5 is_stmt 1 discriminator 4 view .LVU664
 1860 0570 1C4D     		ldr	r5, .L202
 1861              		.loc 1 747 12 is_stmt 0 discriminator 4 view .LVU665
 1862 0572 41F28837 		movw	r7, #5000
 1863              		.loc 1 723 5 discriminator 4 view .LVU666
 1864 0576 2B6F     		ldr	r3, [r5, #112]
 1865 0578 23F00103 		bic	r3, r3, #1
 1866 057c 2B67     		str	r3, [r5, #112]
 1867              		.loc 1 723 5 is_stmt 1 discriminator 4 view .LVU667
 1868 057e 2B6F     		ldr	r3, [r5, #112]
 1869 0580 23F00403 		bic	r3, r3, #4
 1870 0584 2B67     		str	r3, [r5, #112]
 1871              		.loc 1 723 5 discriminator 4 view .LVU668
 1872              		.loc 1 725 5 discriminator 4 view .LVU669
 1873              		.loc 1 742 7 discriminator 4 view .LVU670
 1874              		.loc 1 742 19 is_stmt 0 discriminator 4 view .LVU671
 1875 0586 FFF7FEFF 		bl	HAL_GetTick
 1876              	.LVL169:
 1877 058a 0646     		mov	r6, r0
 1878              	.LVL170:
 1879              		.loc 1 745 7 is_stmt 1 discriminator 4 view .LVU672
 1880              		.loc 1 745 13 is_stmt 0 discriminator 4 view .LVU673
 1881 058c 05E0     		b	.L112
ARM GAS  C:\Users\DEVELO~1\AppData\Local\Temp\ccPkHjk7.s 			page 34


 1882              	.LVL171:
 1883              	.L118:
 1884              		.loc 1 747 14 view .LVU674
 1885 058e FFF7FEFF 		bl	HAL_GetTick
 1886              	.LVL172:
 1887              		.loc 1 747 28 view .LVU675
 1888 0592 801B     		subs	r0, r0, r6
 1889              		.loc 1 747 12 view .LVU676
 1890 0594 B842     		cmp	r0, r7
 1891 0596 3FF6B4AE 		bhi	.L61
 1892              	.L112:
 1893              		.loc 1 747 9 is_stmt 1 view .LVU677
 1894              		.loc 1 745 50 view .LVU678
 1895              		.loc 1 745 14 is_stmt 0 view .LVU679
 1896 059a 2B6F     		ldr	r3, [r5, #112]
 1897              		.loc 1 745 50 view .LVU680
 1898 059c 9807     		lsls	r0, r3, #30
 1899 059e F6D4     		bmi	.L118
 1900 05a0 D3E5     		b	.L117
 1901              	.L88:
 1902              	.LBB16:
 1903              		.loc 1 596 9 is_stmt 1 discriminator 2 view .LVU681
 1904 05a2 EB68     		ldr	r3, [r5, #12]
 1905 05a4 226A     		ldr	r2, [r4, #32]
 1906 05a6 23F07C53 		bic	r3, r3, #1056964608
 1907 05aa 43EA0263 		orr	r3, r3, r2, lsl #24
 1908 05ae EB60     		str	r3, [r5, #12]
 1909              	.LBE16:
 1910              		.loc 1 618 26 is_stmt 0 discriminator 2 view .LVU682
 1911 05b0 2368     		ldr	r3, [r4]
 1912 05b2 95E5     		b	.L79
 1913              	.L195:
 1914              		.loc 1 723 5 is_stmt 1 discriminator 1 view .LVU683
 1915 05b4 0B4A     		ldr	r2, .L202
 1916 05b6 136F     		ldr	r3, [r2, #112]
 1917 05b8 43F00103 		orr	r3, r3, #1
 1918 05bc 1367     		str	r3, [r2, #112]
 1919              		.loc 1 723 5 discriminator 1 view .LVU684
 1920              		.loc 1 725 5 discriminator 1 view .LVU685
 1921 05be 90E6     		b	.L110
 1922              	.LVL173:
 1923              	.L194:
 1924              	.LBB17:
 1925              		.loc 1 572 9 discriminator 3 view .LVU686
 1926 05c0 084A     		ldr	r2, .L202
 1927 05c2 5368     		ldr	r3, [r2, #4]
 1928 05c4 23F0F843 		bic	r3, r3, #2080374784
 1929 05c8 43F08043 		orr	r3, r3, #1073741824
 1930 05cc 5360     		str	r3, [r2, #4]
 1931              	.LBE17:
 1932              		.loc 1 618 26 is_stmt 0 discriminator 3 view .LVU687
 1933 05ce 2368     		ldr	r3, [r4]
 1934              	.LBB18:
 1935 05d0 86E5     		b	.L79
 1936              	.LVL174:
 1937              	.L197:
 1938              		.loc 1 618 26 discriminator 3 view .LVU688
ARM GAS  C:\Users\DEVELO~1\AppData\Local\Temp\ccPkHjk7.s 			page 35


 1939              	.LBE18:
 1940              		.loc 1 723 5 is_stmt 1 discriminator 7 view .LVU689
 1941 05d2 42F00402 		orr	r2, r2, #4
 1942 05d6 1A67     		str	r2, [r3, #112]
 1943              		.loc 1 723 5 discriminator 7 view .LVU690
 1944 05d8 1A6F     		ldr	r2, [r3, #112]
 1945 05da 42F00102 		orr	r2, r2, #1
 1946 05de 1A67     		str	r2, [r3, #112]
 1947 05e0 7FE6     		b	.L110
 1948              	.L203:
 1949 05e2 00BF     		.align	2
 1950              	.L202:
 1951 05e4 00440258 		.word	1476543488
 1952              		.cfi_endproc
 1953              	.LFE142:
 1954              		.size	HAL_RCC_OscConfig, .-HAL_RCC_OscConfig
 1955              		.section	.text.HAL_RCC_MCOConfig,"ax",%progbits
 1956              		.align	1
 1957              		.p2align 2,,3
 1958              		.global	HAL_RCC_MCOConfig
 1959              		.syntax unified
 1960              		.thumb
 1961              		.thumb_func
 1962              		.type	HAL_RCC_MCOConfig, %function
 1963              	HAL_RCC_MCOConfig:
 1964              	.LVL175:
 1965              	.LFB144:
 1966              		.loc 1 1287 1 view -0
 1967              		.cfi_startproc
 1968              		@ args = 0, pretend = 0, frame = 32
 1969              		@ frame_needed = 0, uses_anonymous_args = 0
 1970              		.loc 1 1288 3 view .LVU692
 1971              		.loc 1 1290 3 view .LVU693
 1972              		.loc 1 1291 3 view .LVU694
 1973              		.loc 1 1293 3 view .LVU695
 1974              		.loc 1 1287 1 is_stmt 0 view .LVU696
 1975 0000 70B5     		push	{r4, r5, r6, lr}
 1976              		.cfi_def_cfa_offset 16
 1977              		.cfi_offset 4, -16
 1978              		.cfi_offset 5, -12
 1979              		.cfi_offset 6, -8
 1980              		.cfi_offset 14, -4
 1981 0002 0D46     		mov	r5, r1
 1982 0004 88B0     		sub	sp, sp, #32
 1983              		.cfi_def_cfa_offset 48
 1984              		.loc 1 1287 1 view .LVU697
 1985 0006 1446     		mov	r4, r2
 1986              	.LBB19:
 1987              		.loc 1 1298 5 view .LVU698
 1988 0008 234E     		ldr	r6, .L208
 1989              	.LBE19:
 1990              		.loc 1 1293 6 view .LVU699
 1991 000a 00BB     		cbnz	r0, .L205
 1992              		.loc 1 1295 5 is_stmt 1 view .LVU700
 1993              		.loc 1 1298 5 view .LVU701
 1994              	.LBB20:
 1995              		.loc 1 1298 5 view .LVU702
ARM GAS  C:\Users\DEVELO~1\AppData\Local\Temp\ccPkHjk7.s 			page 36


 1996              		.loc 1 1298 5 view .LVU703
 1997 000c D6F8E030 		ldr	r3, [r6, #224]
 1998              	.LBE20:
 1999              		.loc 1 1306 5 is_stmt 0 view .LVU704
 2000 0010 03A9     		add	r1, sp, #12
 2001              	.LVL176:
 2002              	.LBB21:
 2003              		.loc 1 1298 5 view .LVU705
 2004 0012 43F00103 		orr	r3, r3, #1
 2005 0016 C6F8E030 		str	r3, [r6, #224]
 2006              		.loc 1 1298 5 is_stmt 1 view .LVU706
 2007 001a D6F8E030 		ldr	r3, [r6, #224]
 2008              	.LBE21:
 2009              		.loc 1 1304 26 is_stmt 0 view .LVU707
 2010 001e 0590     		str	r0, [sp, #20]
 2011              	.LBB22:
 2012              		.loc 1 1298 5 view .LVU708
 2013 0020 03F00103 		and	r3, r3, #1
 2014              	.LBE22:
 2015              		.loc 1 1305 31 view .LVU709
 2016 0024 0790     		str	r0, [sp, #28]
 2017              		.loc 1 1306 5 view .LVU710
 2018 0026 1D48     		ldr	r0, .L208+4
 2019              	.LVL177:
 2020              	.LBB23:
 2021              		.loc 1 1298 5 view .LVU711
 2022 0028 0193     		str	r3, [sp, #4]
 2023              		.loc 1 1298 5 is_stmt 1 view .LVU712
 2024              	.LBE23:
 2025              		.loc 1 1301 25 is_stmt 0 view .LVU713
 2026 002a 4FF48073 		mov	r3, #256
 2027              	.LBB24:
 2028              		.loc 1 1298 5 view .LVU714
 2029 002e 019A     		ldr	r2, [sp, #4]
 2030              	.LVL178:
 2031              		.loc 1 1298 5 view .LVU715
 2032              	.LBE24:
 2033              		.loc 1 1298 5 is_stmt 1 view .LVU716
 2034              		.loc 1 1301 5 view .LVU717
 2035              		.loc 1 1301 25 is_stmt 0 view .LVU718
 2036 0030 0393     		str	r3, [sp, #12]
 2037              		.loc 1 1302 5 is_stmt 1 view .LVU719
 2038              		.loc 1 1302 26 is_stmt 0 view .LVU720
 2039 0032 0223     		movs	r3, #2
 2040 0034 0493     		str	r3, [sp, #16]
 2041              		.loc 1 1303 5 is_stmt 1 view .LVU721
 2042              		.loc 1 1303 27 is_stmt 0 view .LVU722
 2043 0036 0323     		movs	r3, #3
 2044 0038 0693     		str	r3, [sp, #24]
 2045              		.loc 1 1304 5 is_stmt 1 view .LVU723
 2046              		.loc 1 1305 5 view .LVU724
 2047              		.loc 1 1306 5 view .LVU725
 2048 003a FFF7FEFF 		bl	HAL_GPIO_Init
 2049              	.LVL179:
 2050              		.loc 1 1309 5 view .LVU726
 2051 003e 3369     		ldr	r3, [r6, #16]
 2052 0040 23F0FE73 		bic	r3, r3, #33292288
ARM GAS  C:\Users\DEVELO~1\AppData\Local\Temp\ccPkHjk7.s 			page 37


 2053 0044 2B43     		orrs	r3, r3, r5
 2054 0046 2343     		orrs	r3, r3, r4
 2055 0048 3361     		str	r3, [r6, #16]
 2056              		.loc 1 1329 1 is_stmt 0 view .LVU727
 2057 004a 08B0     		add	sp, sp, #32
 2058              		.cfi_remember_state
 2059              		.cfi_def_cfa_offset 16
 2060              		@ sp needed
 2061 004c 70BD     		pop	{r4, r5, r6, pc}
 2062              	.LVL180:
 2063              	.L205:
 2064              		.cfi_restore_state
 2065              		.loc 1 1313 5 is_stmt 1 view .LVU728
 2066              		.loc 1 1316 5 view .LVU729
 2067              	.LBB25:
 2068              		.loc 1 1316 5 view .LVU730
 2069              		.loc 1 1316 5 view .LVU731
 2070 004e D6F8E030 		ldr	r3, [r6, #224]
 2071              	.LBE25:
 2072              		.loc 1 1322 26 is_stmt 0 view .LVU732
 2073 0052 0022     		movs	r2, #0
 2074              	.LVL181:
 2075              		.loc 1 1319 25 view .LVU733
 2076 0054 4FF40071 		mov	r1, #512
 2077              	.LVL182:
 2078              		.loc 1 1324 5 view .LVU734
 2079 0058 1148     		ldr	r0, .L208+8
 2080              	.LVL183:
 2081              	.LBB26:
 2082              		.loc 1 1316 5 view .LVU735
 2083 005a 43F00403 		orr	r3, r3, #4
 2084 005e C6F8E030 		str	r3, [r6, #224]
 2085              		.loc 1 1316 5 is_stmt 1 view .LVU736
 2086 0062 D6F8E030 		ldr	r3, [r6, #224]
 2087              	.LBE26:
 2088              		.loc 1 1322 26 is_stmt 0 view .LVU737
 2089 0066 0592     		str	r2, [sp, #20]
 2090              	.LBB27:
 2091              		.loc 1 1316 5 view .LVU738
 2092 0068 03F00403 		and	r3, r3, #4
 2093              	.LBE27:
 2094              		.loc 1 1323 31 view .LVU739
 2095 006c 0792     		str	r2, [sp, #28]
 2096              		.loc 1 1320 26 view .LVU740
 2097 006e 0222     		movs	r2, #2
 2098              		.loc 1 1319 25 view .LVU741
 2099 0070 0391     		str	r1, [sp, #12]
 2100              	.LBB28:
 2101              		.loc 1 1316 5 view .LVU742
 2102 0072 0293     		str	r3, [sp, #8]
 2103              		.loc 1 1316 5 is_stmt 1 view .LVU743
 2104              	.LBE28:
 2105              		.loc 1 1321 27 is_stmt 0 view .LVU744
 2106 0074 0323     		movs	r3, #3
 2107              	.LBB29:
 2108              		.loc 1 1316 5 view .LVU745
 2109 0076 0299     		ldr	r1, [sp, #8]
ARM GAS  C:\Users\DEVELO~1\AppData\Local\Temp\ccPkHjk7.s 			page 38


 2110              	.LBE29:
 2111              		.loc 1 1316 5 is_stmt 1 view .LVU746
 2112              		.loc 1 1319 5 view .LVU747
 2113              		.loc 1 1320 5 view .LVU748
 2114              		.loc 1 1324 5 is_stmt 0 view .LVU749
 2115 0078 03A9     		add	r1, sp, #12
 2116              		.loc 1 1321 27 view .LVU750
 2117 007a 0693     		str	r3, [sp, #24]
 2118              		.loc 1 1320 26 view .LVU751
 2119 007c 0492     		str	r2, [sp, #16]
 2120              		.loc 1 1321 5 is_stmt 1 view .LVU752
 2121              		.loc 1 1322 5 view .LVU753
 2122              		.loc 1 1323 5 view .LVU754
 2123              		.loc 1 1324 5 view .LVU755
 2124 007e FFF7FEFF 		bl	HAL_GPIO_Init
 2125              	.LVL184:
 2126              		.loc 1 1327 5 view .LVU756
 2127 0082 3369     		ldr	r3, [r6, #16]
 2128 0084 23F07E43 		bic	r3, r3, #-33554432
 2129 0088 43EA0501 		orr	r1, r3, r5
 2130 008c 41EAC411 		orr	r1, r1, r4, lsl #7
 2131 0090 3161     		str	r1, [r6, #16]
 2132              		.loc 1 1329 1 is_stmt 0 view .LVU757
 2133 0092 08B0     		add	sp, sp, #32
 2134              		.cfi_def_cfa_offset 16
 2135              		@ sp needed
 2136 0094 70BD     		pop	{r4, r5, r6, pc}
 2137              	.LVL185:
 2138              	.L209:
 2139              		.loc 1 1329 1 view .LVU758
 2140 0096 00BF     		.align	2
 2141              	.L208:
 2142 0098 00440258 		.word	1476543488
 2143 009c 00000258 		.word	1476526080
 2144 00a0 00080258 		.word	1476528128
 2145              		.cfi_endproc
 2146              	.LFE144:
 2147              		.size	HAL_RCC_MCOConfig, .-HAL_RCC_MCOConfig
 2148              		.section	.text.HAL_RCC_EnableCSS,"ax",%progbits
 2149              		.align	1
 2150              		.p2align 2,,3
 2151              		.global	HAL_RCC_EnableCSS
 2152              		.syntax unified
 2153              		.thumb
 2154              		.thumb_func
 2155              		.type	HAL_RCC_EnableCSS, %function
 2156              	HAL_RCC_EnableCSS:
 2157              	.LFB145:
 2158              		.loc 1 1341 1 is_stmt 1 view -0
 2159              		.cfi_startproc
 2160              		@ args = 0, pretend = 0, frame = 0
 2161              		@ frame_needed = 0, uses_anonymous_args = 0
 2162              		@ link register save eliminated.
 2163              		.loc 1 1342 3 view .LVU760
 2164 0000 024A     		ldr	r2, .L211
 2165 0002 1368     		ldr	r3, [r2]
 2166 0004 43F40023 		orr	r3, r3, #524288
ARM GAS  C:\Users\DEVELO~1\AppData\Local\Temp\ccPkHjk7.s 			page 39


 2167 0008 1360     		str	r3, [r2]
 2168              		.loc 1 1343 1 is_stmt 0 view .LVU761
 2169 000a 7047     		bx	lr
 2170              	.L212:
 2171              		.align	2
 2172              	.L211:
 2173 000c 00440258 		.word	1476543488
 2174              		.cfi_endproc
 2175              	.LFE145:
 2176              		.size	HAL_RCC_EnableCSS, .-HAL_RCC_EnableCSS
 2177              		.section	.text.HAL_RCC_DisableCSS,"ax",%progbits
 2178              		.align	1
 2179              		.p2align 2,,3
 2180              		.global	HAL_RCC_DisableCSS
 2181              		.syntax unified
 2182              		.thumb
 2183              		.thumb_func
 2184              		.type	HAL_RCC_DisableCSS, %function
 2185              	HAL_RCC_DisableCSS:
 2186              	.LFB146:
 2187              		.loc 1 1350 1 is_stmt 1 view -0
 2188              		.cfi_startproc
 2189              		@ args = 0, pretend = 0, frame = 0
 2190              		@ frame_needed = 0, uses_anonymous_args = 0
 2191              		@ link register save eliminated.
 2192              		.loc 1 1351 3 view .LVU763
 2193 0000 024A     		ldr	r2, .L214
 2194 0002 1368     		ldr	r3, [r2]
 2195 0004 23F40023 		bic	r3, r3, #524288
 2196 0008 1360     		str	r3, [r2]
 2197              		.loc 1 1352 1 is_stmt 0 view .LVU764
 2198 000a 7047     		bx	lr
 2199              	.L215:
 2200              		.align	2
 2201              	.L214:
 2202 000c 00440258 		.word	1476543488
 2203              		.cfi_endproc
 2204              	.LFE146:
 2205              		.size	HAL_RCC_DisableCSS, .-HAL_RCC_DisableCSS
 2206              		.section	.text.HAL_RCC_GetSysClockFreq,"ax",%progbits
 2207              		.align	1
 2208              		.p2align 2,,3
 2209              		.global	HAL_RCC_GetSysClockFreq
 2210              		.syntax unified
 2211              		.thumb
 2212              		.thumb_func
 2213              		.type	HAL_RCC_GetSysClockFreq, %function
 2214              	HAL_RCC_GetSysClockFreq:
 2215              	.LFB147:
 2216              		.loc 1 1389 1 is_stmt 1 view -0
 2217              		.cfi_startproc
 2218              		@ args = 0, pretend = 0, frame = 0
 2219              		@ frame_needed = 0, uses_anonymous_args = 0
 2220              		@ link register save eliminated.
 2221              		.loc 1 1390 3 view .LVU766
 2222              		.loc 1 1391 3 view .LVU767
 2223              		.loc 1 1392 3 view .LVU768
ARM GAS  C:\Users\DEVELO~1\AppData\Local\Temp\ccPkHjk7.s 			page 40


 2224              		.loc 1 1396 3 view .LVU769
 2225              		.loc 1 1396 14 is_stmt 0 view .LVU770
 2226 0000 0C4A     		ldr	r2, .L223
 2227 0002 1369     		ldr	r3, [r2, #16]
 2228              		.loc 1 1396 21 view .LVU771
 2229 0004 03F03803 		and	r3, r3, #56
 2230              		.loc 1 1396 3 view .LVU772
 2231 0008 102B     		cmp	r3, #16
 2232 000a 04D0     		beq	.L219
 2233 000c 182B     		cmp	r3, #24
 2234 000e 0DD0     		beq	.L218
 2235 0010 1BB1     		cbz	r3, .L222
 2236              		.loc 1 1412 20 view .LVU773
 2237 0012 0948     		ldr	r0, .L223+4
 2238 0014 7047     		bx	lr
 2239              	.L219:
 2240              		.loc 1 1396 3 view .LVU774
 2241 0016 0948     		ldr	r0, .L223+8
 2242 0018 7047     		bx	lr
 2243              	.L222:
 2244              		.loc 1 1400 7 is_stmt 1 view .LVU775
 2245              		.loc 1 1400 11 is_stmt 0 view .LVU776
 2246 001a 1368     		ldr	r3, [r2]
 2247              		.loc 1 1400 10 view .LVU777
 2248 001c 9B06     		lsls	r3, r3, #26
 2249 001e 07D5     		bpl	.L221
 2250              		.loc 1 1402 9 is_stmt 1 view .LVU778
 2251              		.loc 1 1402 49 is_stmt 0 view .LVU779
 2252 0020 1368     		ldr	r3, [r2]
 2253              		.loc 1 1402 22 view .LVU780
 2254 0022 0748     		ldr	r0, .L223+12
 2255              		.loc 1 1402 77 view .LVU781
 2256 0024 C3F3C103 		ubfx	r3, r3, #3, #2
 2257              		.loc 1 1402 22 view .LVU782
 2258 0028 D840     		lsrs	r0, r0, r3
 2259              	.LVL186:
 2260              		.loc 1 1402 22 view .LVU783
 2261 002a 7047     		bx	lr
 2262              	.LVL187:
 2263              	.L218:
 2264              		.loc 1 1402 22 view .LVU784
 2265 002c FFF7FEBF 		b	HAL_RCC_GetSysClockFreq.part.0
 2266              	.LVL188:
 2267              	.L221:
 2268              		.loc 1 1406 22 view .LVU785
 2269 0030 0348     		ldr	r0, .L223+12
 2270              	.LVL189:
 2271              		.loc 1 1472 3 is_stmt 1 view .LVU786
 2272              		.loc 1 1473 1 is_stmt 0 view .LVU787
 2273 0032 7047     		bx	lr
 2274              	.L224:
 2275              		.align	2
 2276              	.L223:
 2277 0034 00440258 		.word	1476543488
 2278 0038 00093D00 		.word	4000000
 2279 003c 00127A00 		.word	8000000
 2280 0040 0090D003 		.word	64000000
ARM GAS  C:\Users\DEVELO~1\AppData\Local\Temp\ccPkHjk7.s 			page 41


 2281              		.cfi_endproc
 2282              	.LFE147:
 2283              		.size	HAL_RCC_GetSysClockFreq, .-HAL_RCC_GetSysClockFreq
 2284              		.section	.text.HAL_RCC_ClockConfig,"ax",%progbits
 2285              		.align	1
 2286              		.p2align 2,,3
 2287              		.global	HAL_RCC_ClockConfig
 2288              		.syntax unified
 2289              		.thumb
 2290              		.thumb_func
 2291              		.type	HAL_RCC_ClockConfig, %function
 2292              	HAL_RCC_ClockConfig:
 2293              	.LVL190:
 2294              	.LFB143:
 2295              		.loc 1 923 1 is_stmt 1 view -0
 2296              		.cfi_startproc
 2297              		@ args = 0, pretend = 0, frame = 0
 2298              		@ frame_needed = 0, uses_anonymous_args = 0
 2299              		.loc 1 924 3 view .LVU789
 2300              		.loc 1 925 3 view .LVU790
 2301              		.loc 1 926 3 view .LVU791
 2302              		.loc 1 929 3 view .LVU792
 2303              		.loc 1 929 6 is_stmt 0 view .LVU793
 2304 0000 0028     		cmp	r0, #0
 2305 0002 00F00C81 		beq	.L292
 2306              		.loc 1 943 18 view .LVU794
 2307 0006 8C4A     		ldr	r2, .L297
 2308 0008 1368     		ldr	r3, [r2]
 2309 000a 03F00F03 		and	r3, r3, #15
 2310              		.loc 1 943 6 view .LVU795
 2311 000e 8B42     		cmp	r3, r1
 2312              		.loc 1 923 1 view .LVU796
 2313 0010 2DE9F041 		push	{r4, r5, r6, r7, r8, lr}
 2314              		.cfi_def_cfa_offset 24
 2315              		.cfi_offset 4, -24
 2316              		.cfi_offset 5, -20
 2317              		.cfi_offset 6, -16
 2318              		.cfi_offset 7, -12
 2319              		.cfi_offset 8, -8
 2320              		.cfi_offset 14, -4
 2321 0014 0446     		mov	r4, r0
 2322 0016 0D46     		mov	r5, r1
 2323              		.loc 1 935 3 is_stmt 1 view .LVU797
 2324              		.loc 1 936 3 view .LVU798
 2325              		.loc 1 943 3 view .LVU799
 2326              		.loc 1 943 6 is_stmt 0 view .LVU800
 2327 0018 0CD2     		bcs	.L232
 2328              		.loc 1 946 5 is_stmt 1 view .LVU801
 2329 001a 1368     		ldr	r3, [r2]
 2330 001c 23F00F03 		bic	r3, r3, #15
 2331 0020 0B43     		orrs	r3, r3, r1
 2332 0022 1360     		str	r3, [r2]
 2333              		.loc 1 950 5 view .LVU802
 2334              		.loc 1 950 9 is_stmt 0 view .LVU803
 2335 0024 1368     		ldr	r3, [r2]
 2336 0026 03F00F03 		and	r3, r3, #15
 2337              		.loc 1 950 8 view .LVU804
ARM GAS  C:\Users\DEVELO~1\AppData\Local\Temp\ccPkHjk7.s 			page 42


 2338 002a 8B42     		cmp	r3, r1
 2339 002c 02D0     		beq	.L232
 2340              	.LVL191:
 2341              	.L231:
 2342              		.loc 1 931 12 view .LVU805
 2343 002e 0120     		movs	r0, #1
 2344              	.L288:
 2345              		.loc 1 1240 1 view .LVU806
 2346 0030 BDE8F081 		pop	{r4, r5, r6, r7, r8, pc}
 2347              	.LVL192:
 2348              	.L232:
 2349              		.loc 1 959 3 is_stmt 1 view .LVU807
 2350              		.loc 1 959 26 is_stmt 0 view .LVU808
 2351 0034 2368     		ldr	r3, [r4]
 2352              		.loc 1 959 6 view .LVU809
 2353 0036 5F07     		lsls	r7, r3, #29
 2354 0038 0BD5     		bpl	.L230
 2355              		.loc 1 962 5 is_stmt 1 view .LVU810
 2356              		.loc 1 962 51 is_stmt 0 view .LVU811
 2357 003a 8049     		ldr	r1, .L297+4
 2358              	.LVL193:
 2359              		.loc 1 962 27 view .LVU812
 2360 003c 2069     		ldr	r0, [r4, #16]
 2361              	.LVL194:
 2362              		.loc 1 962 51 view .LVU813
 2363 003e 8A69     		ldr	r2, [r1, #24]
 2364              		.loc 1 962 60 view .LVU814
 2365 0040 02F07002 		and	r2, r2, #112
 2366              		.loc 1 962 8 view .LVU815
 2367 0044 9042     		cmp	r0, r2
 2368 0046 04D9     		bls	.L230
 2369              		.loc 1 964 7 is_stmt 1 view .LVU816
 2370              		.loc 1 965 7 view .LVU817
 2371 0048 8A69     		ldr	r2, [r1, #24]
 2372 004a 22F07002 		bic	r2, r2, #112
 2373 004e 0243     		orrs	r2, r2, r0
 2374 0050 8A61     		str	r2, [r1, #24]
 2375              	.L230:
 2376              		.loc 1 977 3 view .LVU818
 2377              		.loc 1 977 6 is_stmt 0 view .LVU819
 2378 0052 1E07     		lsls	r6, r3, #28
 2379 0054 0BD5     		bpl	.L233
 2380              		.loc 1 980 5 is_stmt 1 view .LVU820
 2381              		.loc 1 980 51 is_stmt 0 view .LVU821
 2382 0056 7949     		ldr	r1, .L297+4
 2383              		.loc 1 980 27 view .LVU822
 2384 0058 6069     		ldr	r0, [r4, #20]
 2385              		.loc 1 980 51 view .LVU823
 2386 005a CA69     		ldr	r2, [r1, #28]
 2387              		.loc 1 980 60 view .LVU824
 2388 005c 02F07002 		and	r2, r2, #112
 2389              		.loc 1 980 8 view .LVU825
 2390 0060 9042     		cmp	r0, r2
 2391 0062 04D9     		bls	.L233
 2392              		.loc 1 982 7 is_stmt 1 view .LVU826
 2393              		.loc 1 983 7 view .LVU827
 2394 0064 CA69     		ldr	r2, [r1, #28]
ARM GAS  C:\Users\DEVELO~1\AppData\Local\Temp\ccPkHjk7.s 			page 43


 2395 0066 22F07002 		bic	r2, r2, #112
 2396 006a 0243     		orrs	r2, r2, r0
 2397 006c CA61     		str	r2, [r1, #28]
 2398              	.L233:
 2399              		.loc 1 994 3 view .LVU828
 2400              		.loc 1 994 6 is_stmt 0 view .LVU829
 2401 006e D806     		lsls	r0, r3, #27
 2402 0070 0BD5     		bpl	.L234
 2403              		.loc 1 997 5 is_stmt 1 view .LVU830
 2404              		.loc 1 997 51 is_stmt 0 view .LVU831
 2405 0072 7249     		ldr	r1, .L297+4
 2406              		.loc 1 997 27 view .LVU832
 2407 0074 A069     		ldr	r0, [r4, #24]
 2408              		.loc 1 997 51 view .LVU833
 2409 0076 CA69     		ldr	r2, [r1, #28]
 2410              		.loc 1 997 60 view .LVU834
 2411 0078 02F4E062 		and	r2, r2, #1792
 2412              		.loc 1 997 8 view .LVU835
 2413 007c 9042     		cmp	r0, r2
 2414 007e 04D9     		bls	.L234
 2415              		.loc 1 999 7 is_stmt 1 view .LVU836
 2416              		.loc 1 1000 7 view .LVU837
 2417 0080 CA69     		ldr	r2, [r1, #28]
 2418 0082 22F4E062 		bic	r2, r2, #1792
 2419 0086 0243     		orrs	r2, r2, r0
 2420 0088 CA61     		str	r2, [r1, #28]
 2421              	.L234:
 2422              		.loc 1 1012 3 view .LVU838
 2423              		.loc 1 1012 6 is_stmt 0 view .LVU839
 2424 008a 9906     		lsls	r1, r3, #26
 2425 008c 0BD5     		bpl	.L235
 2426              		.loc 1 1015 5 is_stmt 1 view .LVU840
 2427              		.loc 1 1015 51 is_stmt 0 view .LVU841
 2428 008e 6B49     		ldr	r1, .L297+4
 2429              		.loc 1 1015 27 view .LVU842
 2430 0090 E069     		ldr	r0, [r4, #28]
 2431              		.loc 1 1015 51 view .LVU843
 2432 0092 0A6A     		ldr	r2, [r1, #32]
 2433              		.loc 1 1015 60 view .LVU844
 2434 0094 02F07002 		and	r2, r2, #112
 2435              		.loc 1 1015 8 view .LVU845
 2436 0098 9042     		cmp	r0, r2
 2437 009a 04D9     		bls	.L235
 2438              		.loc 1 1017 7 is_stmt 1 view .LVU846
 2439              		.loc 1 1018 7 view .LVU847
 2440 009c 0A6A     		ldr	r2, [r1, #32]
 2441 009e 22F07002 		bic	r2, r2, #112
 2442 00a2 0243     		orrs	r2, r2, r0
 2443 00a4 0A62     		str	r2, [r1, #32]
 2444              	.L235:
 2445              		.loc 1 1030 3 view .LVU848
 2446              		.loc 1 1030 6 is_stmt 0 view .LVU849
 2447 00a6 9A07     		lsls	r2, r3, #30
 2448 00a8 40F1AB80 		bpl	.L236
 2449              		.loc 1 1033 5 is_stmt 1 view .LVU850
 2450              		.loc 1 1033 50 is_stmt 0 view .LVU851
 2451 00ac 6348     		ldr	r0, .L297+4
ARM GAS  C:\Users\DEVELO~1\AppData\Local\Temp\ccPkHjk7.s 			page 44


 2452              		.loc 1 1033 27 view .LVU852
 2453 00ae E168     		ldr	r1, [r4, #12]
 2454              		.loc 1 1033 50 view .LVU853
 2455 00b0 8269     		ldr	r2, [r0, #24]
 2456              		.loc 1 1033 59 view .LVU854
 2457 00b2 02F00F02 		and	r2, r2, #15
 2458              		.loc 1 1033 8 view .LVU855
 2459 00b6 9142     		cmp	r1, r2
 2460 00b8 04D9     		bls	.L237
 2461              		.loc 1 1036 7 is_stmt 1 view .LVU856
 2462              		.loc 1 1037 7 view .LVU857
 2463 00ba 8269     		ldr	r2, [r0, #24]
 2464 00bc 22F00F02 		bic	r2, r2, #15
 2465 00c0 0A43     		orrs	r2, r2, r1
 2466 00c2 8261     		str	r2, [r0, #24]
 2467              	.L237:
 2468              		.loc 1 1050 3 view .LVU858
 2469              		.loc 1 1050 6 is_stmt 0 view .LVU859
 2470 00c4 D807     		lsls	r0, r3, #31
 2471 00c6 30D5     		bpl	.L253
 2472              	.L252:
 2473              		.loc 1 1052 5 is_stmt 1 view .LVU860
 2474              		.loc 1 1053 5 view .LVU861
 2475              		.loc 1 1055 5 view .LVU862
 2476 00c8 5C4A     		ldr	r2, .L297+4
 2477 00ca A168     		ldr	r1, [r4, #8]
 2478 00cc 9369     		ldr	r3, [r2, #24]
 2479 00ce 23F47063 		bic	r3, r3, #3840
 2480 00d2 0B43     		orrs	r3, r3, r1
 2481 00d4 9361     		str	r3, [r2, #24]
 2482              		.loc 1 1060 5 view .LVU863
 2483              		.loc 1 1060 26 is_stmt 0 view .LVU864
 2484 00d6 6168     		ldr	r1, [r4, #4]
 2485              		.loc 1 1063 11 view .LVU865
 2486 00d8 1368     		ldr	r3, [r2]
 2487              		.loc 1 1060 8 view .LVU866
 2488 00da 0229     		cmp	r1, #2
 2489 00dc 00F0A180 		beq	.L293
 2490              		.loc 1 1069 10 is_stmt 1 view .LVU867
 2491              		.loc 1 1069 13 is_stmt 0 view .LVU868
 2492 00e0 0329     		cmp	r1, #3
 2493 00e2 00F09880 		beq	.L294
 2494              		.loc 1 1078 10 is_stmt 1 view .LVU869
 2495              		.loc 1 1078 13 is_stmt 0 view .LVU870
 2496 00e6 0129     		cmp	r1, #1
 2497 00e8 00F0A180 		beq	.L295
 2498              		.loc 1 1090 7 is_stmt 1 view .LVU871
 2499              		.loc 1 1090 10 is_stmt 0 view .LVU872
 2500 00ec 5807     		lsls	r0, r3, #29
 2501 00ee 9ED5     		bpl	.L231
 2502              	.L239:
 2503              		.loc 1 1095 5 is_stmt 1 view .LVU873
 2504 00f0 524E     		ldr	r6, .L297+4
 2505              		.loc 1 1102 10 is_stmt 0 view .LVU874
 2506 00f2 41F28838 		movw	r8, #5000
 2507              		.loc 1 1095 5 view .LVU875
 2508 00f6 3369     		ldr	r3, [r6, #16]
ARM GAS  C:\Users\DEVELO~1\AppData\Local\Temp\ccPkHjk7.s 			page 45


 2509 00f8 23F00703 		bic	r3, r3, #7
 2510 00fc 0B43     		orrs	r3, r3, r1
 2511 00fe 3361     		str	r3, [r6, #16]
 2512              		.loc 1 1098 5 is_stmt 1 view .LVU876
 2513              		.loc 1 1098 17 is_stmt 0 view .LVU877
 2514 0100 FFF7FEFF 		bl	HAL_GetTick
 2515              	.LVL195:
 2516 0104 0746     		mov	r7, r0
 2517              	.LVL196:
 2518              		.loc 1 1100 5 is_stmt 1 view .LVU878
 2519              		.loc 1 1100 11 is_stmt 0 view .LVU879
 2520 0106 05E0     		b	.L242
 2521              	.LVL197:
 2522              	.L243:
 2523              		.loc 1 1102 12 view .LVU880
 2524 0108 FFF7FEFF 		bl	HAL_GetTick
 2525              	.LVL198:
 2526              		.loc 1 1102 26 view .LVU881
 2527 010c C01B     		subs	r0, r0, r7
 2528              		.loc 1 1102 10 view .LVU882
 2529 010e 4045     		cmp	r0, r8
 2530 0110 00F28B80 		bhi	.L254
 2531              	.L242:
 2532              		.loc 1 1102 7 is_stmt 1 view .LVU883
 2533              		.loc 1 1100 42 view .LVU884
 2534              		.loc 1 1100 12 is_stmt 0 view .LVU885
 2535 0114 3369     		ldr	r3, [r6, #16]
 2536              		.loc 1 1100 78 view .LVU886
 2537 0116 6268     		ldr	r2, [r4, #4]
 2538              		.loc 1 1100 12 view .LVU887
 2539 0118 03F03803 		and	r3, r3, #56
 2540              		.loc 1 1100 42 view .LVU888
 2541 011c B3EBC20F 		cmp	r3, r2, lsl #3
 2542 0120 F2D1     		bne	.L243
 2543              		.loc 1 1112 3 is_stmt 1 view .LVU889
 2544              		.loc 1 1112 26 is_stmt 0 view .LVU890
 2545 0122 2368     		ldr	r3, [r4]
 2546              		.loc 1 1112 6 view .LVU891
 2547 0124 9907     		lsls	r1, r3, #30
 2548 0126 06D5     		bpl	.L244
 2549              		.loc 1 1115 27 view .LVU892
 2550 0128 E168     		ldr	r1, [r4, #12]
 2551              	.LVL199:
 2552              	.L253:
 2553              		.loc 1 1115 5 is_stmt 1 view .LVU893
 2554              		.loc 1 1115 50 is_stmt 0 view .LVU894
 2555 012a 4448     		ldr	r0, .L297+4
 2556 012c 8269     		ldr	r2, [r0, #24]
 2557              		.loc 1 1115 59 view .LVU895
 2558 012e 02F00F02 		and	r2, r2, #15
 2559              		.loc 1 1115 8 view .LVU896
 2560 0132 8A42     		cmp	r2, r1
 2561 0134 69D8     		bhi	.L296
 2562              	.L244:
 2563              		.loc 1 1132 3 is_stmt 1 view .LVU897
 2564              		.loc 1 1132 18 is_stmt 0 view .LVU898
 2565 0136 4049     		ldr	r1, .L297
ARM GAS  C:\Users\DEVELO~1\AppData\Local\Temp\ccPkHjk7.s 			page 46


 2566 0138 0A68     		ldr	r2, [r1]
 2567 013a 02F00F02 		and	r2, r2, #15
 2568              		.loc 1 1132 6 view .LVU899
 2569 013e AA42     		cmp	r2, r5
 2570 0140 0AD9     		bls	.L248
 2571              		.loc 1 1135 5 is_stmt 1 view .LVU900
 2572 0142 0A68     		ldr	r2, [r1]
 2573 0144 22F00F02 		bic	r2, r2, #15
 2574 0148 2A43     		orrs	r2, r2, r5
 2575 014a 0A60     		str	r2, [r1]
 2576              		.loc 1 1139 5 view .LVU901
 2577              		.loc 1 1139 9 is_stmt 0 view .LVU902
 2578 014c 0A68     		ldr	r2, [r1]
 2579 014e 02F00F02 		and	r2, r2, #15
 2580              		.loc 1 1139 8 view .LVU903
 2581 0152 AA42     		cmp	r2, r5
 2582 0154 7FF46BAF 		bne	.L231
 2583              	.L248:
 2584              		.loc 1 1146 3 is_stmt 1 view .LVU904
 2585              		.loc 1 1146 6 is_stmt 0 view .LVU905
 2586 0158 5A07     		lsls	r2, r3, #29
 2587 015a 0BD5     		bpl	.L247
 2588              		.loc 1 1149 5 is_stmt 1 view .LVU906
 2589              		.loc 1 1149 51 is_stmt 0 view .LVU907
 2590 015c 3749     		ldr	r1, .L297+4
 2591              		.loc 1 1149 27 view .LVU908
 2592 015e 2069     		ldr	r0, [r4, #16]
 2593              		.loc 1 1149 51 view .LVU909
 2594 0160 8A69     		ldr	r2, [r1, #24]
 2595              		.loc 1 1149 60 view .LVU910
 2596 0162 02F07002 		and	r2, r2, #112
 2597              		.loc 1 1149 8 view .LVU911
 2598 0166 9042     		cmp	r0, r2
 2599 0168 04D2     		bcs	.L247
 2600              		.loc 1 1151 7 is_stmt 1 view .LVU912
 2601              		.loc 1 1152 7 view .LVU913
 2602 016a 8A69     		ldr	r2, [r1, #24]
 2603 016c 22F07002 		bic	r2, r2, #112
 2604 0170 0243     		orrs	r2, r2, r0
 2605 0172 8A61     		str	r2, [r1, #24]
 2606              	.L247:
 2607              		.loc 1 1164 3 view .LVU914
 2608              		.loc 1 1164 6 is_stmt 0 view .LVU915
 2609 0174 1F07     		lsls	r7, r3, #28
 2610 0176 0BD5     		bpl	.L249
 2611              		.loc 1 1167 5 is_stmt 1 view .LVU916
 2612              		.loc 1 1167 51 is_stmt 0 view .LVU917
 2613 0178 3049     		ldr	r1, .L297+4
 2614              		.loc 1 1167 27 view .LVU918
 2615 017a 6069     		ldr	r0, [r4, #20]
 2616              		.loc 1 1167 51 view .LVU919
 2617 017c CA69     		ldr	r2, [r1, #28]
 2618              		.loc 1 1167 60 view .LVU920
 2619 017e 02F07002 		and	r2, r2, #112
 2620              		.loc 1 1167 8 view .LVU921
 2621 0182 9042     		cmp	r0, r2
 2622 0184 04D2     		bcs	.L249
ARM GAS  C:\Users\DEVELO~1\AppData\Local\Temp\ccPkHjk7.s 			page 47


 2623              		.loc 1 1169 7 is_stmt 1 view .LVU922
 2624              		.loc 1 1170 7 view .LVU923
 2625 0186 CA69     		ldr	r2, [r1, #28]
 2626 0188 22F07002 		bic	r2, r2, #112
 2627 018c 0243     		orrs	r2, r2, r0
 2628 018e CA61     		str	r2, [r1, #28]
 2629              	.L249:
 2630              		.loc 1 1182 3 view .LVU924
 2631              		.loc 1 1182 6 is_stmt 0 view .LVU925
 2632 0190 DE06     		lsls	r6, r3, #27
 2633 0192 0BD5     		bpl	.L250
 2634              		.loc 1 1185 5 is_stmt 1 view .LVU926
 2635              		.loc 1 1185 51 is_stmt 0 view .LVU927
 2636 0194 2949     		ldr	r1, .L297+4
 2637              		.loc 1 1185 27 view .LVU928
 2638 0196 A069     		ldr	r0, [r4, #24]
 2639              		.loc 1 1185 51 view .LVU929
 2640 0198 CA69     		ldr	r2, [r1, #28]
 2641              		.loc 1 1185 60 view .LVU930
 2642 019a 02F4E062 		and	r2, r2, #1792
 2643              		.loc 1 1185 8 view .LVU931
 2644 019e 9042     		cmp	r0, r2
 2645 01a0 04D2     		bcs	.L250
 2646              		.loc 1 1187 7 is_stmt 1 view .LVU932
 2647              		.loc 1 1188 7 view .LVU933
 2648 01a2 CA69     		ldr	r2, [r1, #28]
 2649 01a4 22F4E062 		bic	r2, r2, #1792
 2650 01a8 0243     		orrs	r2, r2, r0
 2651 01aa CA61     		str	r2, [r1, #28]
 2652              	.L250:
 2653              		.loc 1 1200 3 view .LVU934
 2654              		.loc 1 1200 6 is_stmt 0 view .LVU935
 2655 01ac 9D06     		lsls	r5, r3, #26
 2656              	.LVL200:
 2657              		.loc 1 1200 6 view .LVU936
 2658 01ae 0BD5     		bpl	.L251
 2659              		.loc 1 1203 5 is_stmt 1 view .LVU937
 2660              		.loc 1 1203 51 is_stmt 0 view .LVU938
 2661 01b0 224A     		ldr	r2, .L297+4
 2662              		.loc 1 1203 27 view .LVU939
 2663 01b2 E169     		ldr	r1, [r4, #28]
 2664              		.loc 1 1203 51 view .LVU940
 2665 01b4 136A     		ldr	r3, [r2, #32]
 2666              		.loc 1 1203 60 view .LVU941
 2667 01b6 03F07003 		and	r3, r3, #112
 2668              		.loc 1 1203 8 view .LVU942
 2669 01ba 9942     		cmp	r1, r3
 2670 01bc 04D2     		bcs	.L251
 2671              		.loc 1 1205 7 is_stmt 1 view .LVU943
 2672              		.loc 1 1206 7 view .LVU944
 2673 01be 136A     		ldr	r3, [r2, #32]
 2674 01c0 23F07003 		bic	r3, r3, #112
 2675 01c4 0B43     		orrs	r3, r3, r1
 2676 01c6 1362     		str	r3, [r2, #32]
 2677              	.L251:
 2678              		.loc 1 1219 3 view .LVU945
 2679              		.loc 1 1219 25 is_stmt 0 view .LVU946
ARM GAS  C:\Users\DEVELO~1\AppData\Local\Temp\ccPkHjk7.s 			page 48


 2680 01c8 FFF7FEFF 		bl	HAL_RCC_GetSysClockFreq
 2681              	.LVL201:
 2682              		.loc 1 1219 77 view .LVU947
 2683 01cc 1B4A     		ldr	r2, .L297+4
 2684              		.loc 1 1219 25 view .LVU948
 2685 01ce 0346     		mov	r3, r0
 2686              		.loc 1 1219 72 view .LVU949
 2687 01d0 1B48     		ldr	r0, .L297+8
 2688              		.loc 1 1219 77 view .LVU950
 2689 01d2 9169     		ldr	r1, [r2, #24]
 2690              		.loc 1 1225 66 view .LVU951
 2691 01d4 9269     		ldr	r2, [r2, #24]
 2692              		.loc 1 1219 107 view .LVU952
 2693 01d6 C1F30321 		ubfx	r1, r1, #8, #4
 2694              		.loc 1 1233 19 view .LVU953
 2695 01da 1A4D     		ldr	r5, .L297+12
 2696              		.loc 1 1225 94 view .LVU954
 2697 01dc 02F00F02 		and	r2, r2, #15
 2698              		.loc 1 1225 17 view .LVU955
 2699 01e0 194C     		ldr	r4, .L297+16
 2700              	.LVL202:
 2701              		.loc 1 1219 134 view .LVU956
 2702 01e2 415C     		ldrb	r1, [r0, r1]	@ zero_extendqisi2
 2703              		.loc 1 1225 119 view .LVU957
 2704 01e4 825C     		ldrb	r2, [r0, r2]	@ zero_extendqisi2
 2705              		.loc 1 1219 134 view .LVU958
 2706 01e6 01F01F01 		and	r1, r1, #31
 2707              		.loc 1 1237 15 view .LVU959
 2708 01ea 1848     		ldr	r0, .L297+20
 2709              		.loc 1 1225 119 view .LVU960
 2710 01ec 02F01F02 		and	r2, r2, #31
 2711              		.loc 1 1219 23 view .LVU961
 2712 01f0 CB40     		lsrs	r3, r3, r1
 2713              	.LVL203:
 2714              		.loc 1 1225 3 is_stmt 1 view .LVU962
 2715              		.loc 1 1237 15 is_stmt 0 view .LVU963
 2716 01f2 0068     		ldr	r0, [r0]
 2717              		.loc 1 1233 19 view .LVU964
 2718 01f4 2B60     		str	r3, [r5]
 2719              		.loc 1 1225 40 view .LVU965
 2720 01f6 D340     		lsrs	r3, r3, r2
 2721              	.LVL204:
 2722              		.loc 1 1225 17 view .LVU966
 2723 01f8 2360     		str	r3, [r4]
 2724              		.loc 1 1233 3 is_stmt 1 view .LVU967
 2725              		.loc 1 1237 3 view .LVU968
 2726              		.loc 1 1240 1 is_stmt 0 view .LVU969
 2727 01fa BDE8F041 		pop	{r4, r5, r6, r7, r8, lr}
 2728              		.cfi_remember_state
 2729              		.cfi_restore 14
 2730              		.cfi_restore 8
 2731              		.cfi_restore 7
 2732              		.cfi_restore 6
 2733              		.cfi_restore 5
 2734              		.cfi_restore 4
 2735              		.cfi_def_cfa_offset 0
 2736              	.LVL205:
ARM GAS  C:\Users\DEVELO~1\AppData\Local\Temp\ccPkHjk7.s 			page 49


 2737              		.loc 1 1237 15 view .LVU970
 2738 01fe FFF7FEBF 		b	HAL_InitTick
 2739              	.LVL206:
 2740              	.L236:
 2741              		.cfi_restore_state
 2742              		.loc 1 1050 3 is_stmt 1 view .LVU971
 2743              		.loc 1 1050 6 is_stmt 0 view .LVU972
 2744 0202 DA07     		lsls	r2, r3, #31
 2745 0204 3FF560AF 		bmi	.L252
 2746 0208 95E7     		b	.L244
 2747              	.L296:
 2748              		.loc 1 1118 7 is_stmt 1 view .LVU973
 2749              		.loc 1 1119 7 view .LVU974
 2750 020a 8269     		ldr	r2, [r0, #24]
 2751 020c 22F00F02 		bic	r2, r2, #15
 2752 0210 0A43     		orrs	r2, r2, r1
 2753 0212 8261     		str	r2, [r0, #24]
 2754 0214 8FE7     		b	.L244
 2755              	.L294:
 2756              		.loc 1 1072 7 view .LVU975
 2757              		.loc 1 1072 10 is_stmt 0 view .LVU976
 2758 0216 9F01     		lsls	r7, r3, #6
 2759 0218 3FF56AAF 		bmi	.L239
 2760 021c 07E7     		b	.L231
 2761              	.LVL207:
 2762              	.L292:
 2763              		.cfi_def_cfa_offset 0
 2764              		.cfi_restore 4
 2765              		.cfi_restore 5
 2766              		.cfi_restore 6
 2767              		.cfi_restore 7
 2768              		.cfi_restore 8
 2769              		.cfi_restore 14
 2770              		.loc 1 931 12 view .LVU977
 2771 021e 0120     		movs	r0, #1
 2772              	.LVL208:
 2773              		.loc 1 1240 1 view .LVU978
 2774 0220 7047     		bx	lr
 2775              	.LVL209:
 2776              	.L293:
 2777              		.cfi_def_cfa_offset 24
 2778              		.cfi_offset 4, -24
 2779              		.cfi_offset 5, -20
 2780              		.cfi_offset 6, -16
 2781              		.cfi_offset 7, -12
 2782              		.cfi_offset 8, -8
 2783              		.cfi_offset 14, -4
 2784              		.loc 1 1063 7 is_stmt 1 view .LVU979
 2785              		.loc 1 1063 10 is_stmt 0 view .LVU980
 2786 0222 9B03     		lsls	r3, r3, #14
 2787 0224 3FF564AF 		bmi	.L239
 2788 0228 01E7     		b	.L231
 2789              	.LVL210:
 2790              	.L254:
 2791              		.loc 1 1104 16 view .LVU981
 2792 022a 0320     		movs	r0, #3
 2793 022c 00E7     		b	.L288
ARM GAS  C:\Users\DEVELO~1\AppData\Local\Temp\ccPkHjk7.s 			page 50


 2794              	.LVL211:
 2795              	.L295:
 2796              		.loc 1 1081 7 is_stmt 1 view .LVU982
 2797              		.loc 1 1081 10 is_stmt 0 view .LVU983
 2798 022e DE05     		lsls	r6, r3, #23
 2799 0230 3FF55EAF 		bmi	.L239
 2800 0234 FBE6     		b	.L231
 2801              	.L298:
 2802 0236 00BF     		.align	2
 2803              	.L297:
 2804 0238 00200052 		.word	1375739904
 2805 023c 00440258 		.word	1476543488
 2806 0240 00000000 		.word	D1CorePrescTable
 2807 0244 00000000 		.word	SystemCoreClock
 2808 0248 00000000 		.word	SystemD2Clock
 2809 024c 00000000 		.word	uwTickPrio
 2810              		.cfi_endproc
 2811              	.LFE143:
 2812              		.size	HAL_RCC_ClockConfig, .-HAL_RCC_ClockConfig
 2813              		.section	.text.HAL_RCC_GetHCLKFreq,"ax",%progbits
 2814              		.align	1
 2815              		.p2align 2,,3
 2816              		.global	HAL_RCC_GetHCLKFreq
 2817              		.syntax unified
 2818              		.thumb
 2819              		.thumb_func
 2820              		.type	HAL_RCC_GetHCLKFreq, %function
 2821              	HAL_RCC_GetHCLKFreq:
 2822              	.LFB148:
 2823              		.loc 1 1486 1 is_stmt 1 view -0
 2824              		.cfi_startproc
 2825              		@ args = 0, pretend = 0, frame = 0
 2826              		@ frame_needed = 0, uses_anonymous_args = 0
 2827              		.loc 1 1487 3 view .LVU985
 2828              		.loc 1 1490 3 view .LVU986
 2829              	.LBB32:
 2830              	.LBI32:
 2831              		.loc 1 1388 10 view .LVU987
 2832              	.LBB33:
 2833              		.loc 1 1390 3 view .LVU988
 2834              		.loc 1 1391 3 view .LVU989
 2835              		.loc 1 1392 3 view .LVU990
 2836              		.loc 1 1396 3 view .LVU991
 2837              		.loc 1 1396 14 is_stmt 0 view .LVU992
 2838 0000 184A     		ldr	r2, .L307
 2839              	.LBE33:
 2840              	.LBE32:
 2841              		.loc 1 1486 1 view .LVU993
 2842 0002 38B5     		push	{r3, r4, r5, lr}
 2843              		.cfi_def_cfa_offset 16
 2844              		.cfi_offset 3, -16
 2845              		.cfi_offset 4, -12
 2846              		.cfi_offset 5, -8
 2847              		.cfi_offset 14, -4
 2848              	.LBB36:
 2849              	.LBB34:
 2850              		.loc 1 1396 14 view .LVU994
ARM GAS  C:\Users\DEVELO~1\AppData\Local\Temp\ccPkHjk7.s 			page 51


 2851 0004 1369     		ldr	r3, [r2, #16]
 2852              		.loc 1 1396 21 view .LVU995
 2853 0006 03F03803 		and	r3, r3, #56
 2854              		.loc 1 1396 3 view .LVU996
 2855 000a 102B     		cmp	r3, #16
 2856 000c 1AD0     		beq	.L302
 2857 000e 182B     		cmp	r3, #24
 2858 0010 23D0     		beq	.L301
 2859 0012 CBB1     		cbz	r3, .L306
 2860              		.loc 1 1412 20 view .LVU997
 2861 0014 1448     		ldr	r0, .L307+4
 2862              	.L300:
 2863              	.LVL212:
 2864              		.loc 1 1472 3 is_stmt 1 view .LVU998
 2865              		.loc 1 1472 3 is_stmt 0 view .LVU999
 2866              	.LBE34:
 2867              	.LBE36:
 2868              		.loc 1 1490 76 view .LVU1000
 2869 0016 134B     		ldr	r3, .L307
 2870              		.loc 1 1490 71 view .LVU1001
 2871 0018 1449     		ldr	r1, .L307+8
 2872              		.loc 1 1490 76 view .LVU1002
 2873 001a 9A69     		ldr	r2, [r3, #24]
 2874              		.loc 1 1496 66 view .LVU1003
 2875 001c 9B69     		ldr	r3, [r3, #24]
 2876              		.loc 1 1490 106 view .LVU1004
 2877 001e C2F30322 		ubfx	r2, r2, #8, #4
 2878              		.loc 1 1496 17 view .LVU1005
 2879 0022 134C     		ldr	r4, .L307+12
 2880              		.loc 1 1496 94 view .LVU1006
 2881 0024 03F00F03 		and	r3, r3, #15
 2882              		.loc 1 1504 19 view .LVU1007
 2883 0028 124D     		ldr	r5, .L307+16
 2884              		.loc 1 1490 132 view .LVU1008
 2885 002a 8A5C     		ldrb	r2, [r1, r2]	@ zero_extendqisi2
 2886              		.loc 1 1496 119 view .LVU1009
 2887 002c CB5C     		ldrb	r3, [r1, r3]	@ zero_extendqisi2
 2888              		.loc 1 1490 132 view .LVU1010
 2889 002e 02F01F02 		and	r2, r2, #31
 2890              		.loc 1 1490 23 view .LVU1011
 2891 0032 20FA02F2 		lsr	r2, r0, r2
 2892              	.LVL213:
 2893              		.loc 1 1496 3 is_stmt 1 view .LVU1012
 2894              		.loc 1 1496 119 is_stmt 0 view .LVU1013
 2895 0036 03F01F00 		and	r0, r3, #31
 2896              		.loc 1 1496 40 view .LVU1014
 2897 003a 22FA00F0 		lsr	r0, r2, r0
 2898              		.loc 1 1504 19 view .LVU1015
 2899 003e 2A60     		str	r2, [r5]
 2900              		.loc 1 1496 17 view .LVU1016
 2901 0040 2060     		str	r0, [r4]
 2902              		.loc 1 1504 3 is_stmt 1 view .LVU1017
 2903              		.loc 1 1507 3 view .LVU1018
 2904              		.loc 1 1508 1 is_stmt 0 view .LVU1019
 2905 0042 38BD     		pop	{r3, r4, r5, pc}
 2906              	.LVL214:
 2907              	.L302:
ARM GAS  C:\Users\DEVELO~1\AppData\Local\Temp\ccPkHjk7.s 			page 52


 2908              	.LBB37:
 2909              	.LBB35:
 2910              		.loc 1 1396 3 view .LVU1020
 2911 0044 0C48     		ldr	r0, .L307+20
 2912 0046 E6E7     		b	.L300
 2913              	.L306:
 2914              		.loc 1 1400 7 is_stmt 1 view .LVU1021
 2915              		.loc 1 1400 11 is_stmt 0 view .LVU1022
 2916 0048 1368     		ldr	r3, [r2]
 2917              		.loc 1 1400 10 view .LVU1023
 2918 004a 9B06     		lsls	r3, r3, #26
 2919 004c 08D5     		bpl	.L304
 2920              		.loc 1 1402 9 is_stmt 1 view .LVU1024
 2921              		.loc 1 1402 49 is_stmt 0 view .LVU1025
 2922 004e 1368     		ldr	r3, [r2]
 2923              		.loc 1 1402 22 view .LVU1026
 2924 0050 0A48     		ldr	r0, .L307+24
 2925              		.loc 1 1402 77 view .LVU1027
 2926 0052 C3F3C103 		ubfx	r3, r3, #3, #2
 2927              		.loc 1 1402 22 view .LVU1028
 2928 0056 D840     		lsrs	r0, r0, r3
 2929              	.LVL215:
 2930              		.loc 1 1402 22 view .LVU1029
 2931 0058 DDE7     		b	.L300
 2932              	.LVL216:
 2933              	.L301:
 2934              		.loc 1 1402 22 view .LVU1030
 2935 005a FFF7FEFF 		bl	HAL_RCC_GetSysClockFreq.part.0
 2936              	.LVL217:
 2937 005e DAE7     		b	.L300
 2938              	.L304:
 2939              		.loc 1 1406 22 view .LVU1031
 2940 0060 0648     		ldr	r0, .L307+24
 2941 0062 D8E7     		b	.L300
 2942              	.L308:
 2943              		.align	2
 2944              	.L307:
 2945 0064 00440258 		.word	1476543488
 2946 0068 00093D00 		.word	4000000
 2947 006c 00000000 		.word	D1CorePrescTable
 2948 0070 00000000 		.word	SystemD2Clock
 2949 0074 00000000 		.word	SystemCoreClock
 2950 0078 00127A00 		.word	8000000
 2951 007c 0090D003 		.word	64000000
 2952              	.LBE35:
 2953              	.LBE37:
 2954              		.cfi_endproc
 2955              	.LFE148:
 2956              		.size	HAL_RCC_GetHCLKFreq, .-HAL_RCC_GetHCLKFreq
 2957              		.section	.text.HAL_RCC_GetPCLK1Freq,"ax",%progbits
 2958              		.align	1
 2959              		.p2align 2,,3
 2960              		.global	HAL_RCC_GetPCLK1Freq
 2961              		.syntax unified
 2962              		.thumb
 2963              		.thumb_func
 2964              		.type	HAL_RCC_GetPCLK1Freq, %function
ARM GAS  C:\Users\DEVELO~1\AppData\Local\Temp\ccPkHjk7.s 			page 53


 2965              	HAL_RCC_GetPCLK1Freq:
 2966              	.LFB149:
 2967              		.loc 1 1518 1 is_stmt 1 view -0
 2968              		.cfi_startproc
 2969              		@ args = 0, pretend = 0, frame = 0
 2970              		@ frame_needed = 0, uses_anonymous_args = 0
 2971              		.loc 1 1521 3 view .LVU1033
 2972              		.loc 1 1518 1 is_stmt 0 view .LVU1034
 2973 0000 08B5     		push	{r3, lr}
 2974              		.cfi_def_cfa_offset 8
 2975              		.cfi_offset 3, -8
 2976              		.cfi_offset 14, -4
 2977              		.loc 1 1521 11 view .LVU1035
 2978 0002 FFF7FEFF 		bl	HAL_RCC_GetHCLKFreq
 2979              	.LVL218:
 2980              		.loc 1 1521 59 view .LVU1036
 2981 0006 054B     		ldr	r3, .L311
 2982              		.loc 1 1521 54 view .LVU1037
 2983 0008 054A     		ldr	r2, .L311+4
 2984              		.loc 1 1521 59 view .LVU1038
 2985 000a DB69     		ldr	r3, [r3, #28]
 2986              		.loc 1 1521 90 view .LVU1039
 2987 000c C3F30213 		ubfx	r3, r3, #4, #3
 2988              		.loc 1 1521 118 view .LVU1040
 2989 0010 D35C     		ldrb	r3, [r2, r3]	@ zero_extendqisi2
 2990 0012 03F01F03 		and	r3, r3, #31
 2991              		.loc 1 1526 1 view .LVU1041
 2992 0016 D840     		lsrs	r0, r0, r3
 2993 0018 08BD     		pop	{r3, pc}
 2994              	.L312:
 2995 001a 00BF     		.align	2
 2996              	.L311:
 2997 001c 00440258 		.word	1476543488
 2998 0020 00000000 		.word	D1CorePrescTable
 2999              		.cfi_endproc
 3000              	.LFE149:
 3001              		.size	HAL_RCC_GetPCLK1Freq, .-HAL_RCC_GetPCLK1Freq
 3002              		.section	.text.HAL_RCC_GetPCLK2Freq,"ax",%progbits
 3003              		.align	1
 3004              		.p2align 2,,3
 3005              		.global	HAL_RCC_GetPCLK2Freq
 3006              		.syntax unified
 3007              		.thumb
 3008              		.thumb_func
 3009              		.type	HAL_RCC_GetPCLK2Freq, %function
 3010              	HAL_RCC_GetPCLK2Freq:
 3011              	.LFB150:
 3012              		.loc 1 1536 1 is_stmt 1 view -0
 3013              		.cfi_startproc
 3014              		@ args = 0, pretend = 0, frame = 0
 3015              		@ frame_needed = 0, uses_anonymous_args = 0
 3016              		.loc 1 1539 3 view .LVU1043
 3017              		.loc 1 1536 1 is_stmt 0 view .LVU1044
 3018 0000 08B5     		push	{r3, lr}
 3019              		.cfi_def_cfa_offset 8
 3020              		.cfi_offset 3, -8
 3021              		.cfi_offset 14, -4
ARM GAS  C:\Users\DEVELO~1\AppData\Local\Temp\ccPkHjk7.s 			page 54


 3022              		.loc 1 1539 11 view .LVU1045
 3023 0002 FFF7FEFF 		bl	HAL_RCC_GetHCLKFreq
 3024              	.LVL219:
 3025              		.loc 1 1539 59 view .LVU1046
 3026 0006 054B     		ldr	r3, .L315
 3027              		.loc 1 1539 54 view .LVU1047
 3028 0008 054A     		ldr	r2, .L315+4
 3029              		.loc 1 1539 59 view .LVU1048
 3030 000a DB69     		ldr	r3, [r3, #28]
 3031              		.loc 1 1539 90 view .LVU1049
 3032 000c C3F30223 		ubfx	r3, r3, #8, #3
 3033              		.loc 1 1539 118 view .LVU1050
 3034 0010 D35C     		ldrb	r3, [r2, r3]	@ zero_extendqisi2
 3035 0012 03F01F03 		and	r3, r3, #31
 3036              		.loc 1 1543 1 view .LVU1051
 3037 0016 D840     		lsrs	r0, r0, r3
 3038 0018 08BD     		pop	{r3, pc}
 3039              	.L316:
 3040 001a 00BF     		.align	2
 3041              	.L315:
 3042 001c 00440258 		.word	1476543488
 3043 0020 00000000 		.word	D1CorePrescTable
 3044              		.cfi_endproc
 3045              	.LFE150:
 3046              		.size	HAL_RCC_GetPCLK2Freq, .-HAL_RCC_GetPCLK2Freq
 3047              		.section	.text.HAL_RCC_GetOscConfig,"ax",%progbits
 3048              		.align	1
 3049              		.p2align 2,,3
 3050              		.global	HAL_RCC_GetOscConfig
 3051              		.syntax unified
 3052              		.thumb
 3053              		.thumb_func
 3054              		.type	HAL_RCC_GetOscConfig, %function
 3055              	HAL_RCC_GetOscConfig:
 3056              	.LVL220:
 3057              	.LFB151:
 3058              		.loc 1 1553 1 is_stmt 1 view -0
 3059              		.cfi_startproc
 3060              		@ args = 0, pretend = 0, frame = 0
 3061              		@ frame_needed = 0, uses_anonymous_args = 0
 3062              		.loc 1 1555 3 view .LVU1053
 3063              		.loc 1 1553 1 is_stmt 0 view .LVU1054
 3064 0000 38B5     		push	{r3, r4, r5, lr}
 3065              		.cfi_def_cfa_offset 16
 3066              		.cfi_offset 3, -16
 3067              		.cfi_offset 4, -12
 3068              		.cfi_offset 5, -8
 3069              		.cfi_offset 14, -4
 3070              		.loc 1 1555 37 view .LVU1055
 3071 0002 3F22     		movs	r2, #63
 3072              		.loc 1 1577 11 view .LVU1056
 3073 0004 394B     		ldr	r3, .L329
 3074              		.loc 1 1553 1 view .LVU1057
 3075 0006 0446     		mov	r4, r0
 3076              		.loc 1 1555 37 view .LVU1058
 3077 0008 0260     		str	r2, [r0]
 3078              		.loc 1 1577 3 is_stmt 1 view .LVU1059
ARM GAS  C:\Users\DEVELO~1\AppData\Local\Temp\ccPkHjk7.s 			page 55


 3079              		.loc 1 1577 11 is_stmt 0 view .LVU1060
 3080 000a 1A68     		ldr	r2, [r3]
 3081              		.loc 1 1577 6 view .LVU1061
 3082 000c 5203     		lsls	r2, r2, #13
 3083 000e 64D4     		bmi	.L325
 3084              		.loc 1 1581 8 is_stmt 1 view .LVU1062
 3085              		.loc 1 1581 16 is_stmt 0 view .LVU1063
 3086 0010 1B68     		ldr	r3, [r3]
 3087              		.loc 1 1581 11 view .LVU1064
 3088 0012 03F48033 		and	r3, r3, #65536
 3089              	.L318:
 3090              		.loc 1 1592 11 view .LVU1065
 3091 0016 354D     		ldr	r5, .L329
 3092              		.loc 1 1579 33 view .LVU1066
 3093 0018 6360     		str	r3, [r4, #4]
 3094              		.loc 1 1592 3 is_stmt 1 view .LVU1067
 3095              		.loc 1 1592 11 is_stmt 0 view .LVU1068
 3096 001a 2B68     		ldr	r3, [r5]
 3097              		.loc 1 1592 6 view .LVU1069
 3098 001c 03F08003 		and	r3, r3, #128
 3099 0020 E361     		str	r3, [r4, #28]
 3100              		.loc 1 1602 3 is_stmt 1 view .LVU1070
 3101              		.loc 1 1602 7 is_stmt 0 view .LVU1071
 3102 0022 FFF7FEFF 		bl	HAL_GetREVID
 3103              	.LVL221:
 3104              		.loc 1 1602 6 view .LVU1072
 3105 0026 41F20303 		movw	r3, #4099
 3106 002a 9842     		cmp	r0, r3
 3107 002c 5AD8     		bhi	.L319
 3108              		.loc 1 1604 5 is_stmt 1 view .LVU1073
 3109              		.loc 1 1604 57 is_stmt 0 view .LVU1074
 3110 002e 6B68     		ldr	r3, [r5, #4]
 3111              		.loc 1 1604 46 view .LVU1075
 3112 0030 C3F38463 		ubfx	r3, r3, #26, #5
 3113              	.L320:
 3114              		.loc 1 1615 11 view .LVU1076
 3115 0034 2D4D     		ldr	r5, .L329
 3116 0036 2362     		str	r3, [r4, #32]
 3117              		.loc 1 1615 3 is_stmt 1 view .LVU1077
 3118              		.loc 1 1615 11 is_stmt 0 view .LVU1078
 3119 0038 2B68     		ldr	r3, [r5]
 3120              		.loc 1 1615 16 view .LVU1079
 3121 003a 03F00103 		and	r3, r3, #1
 3122 003e E360     		str	r3, [r4, #12]
 3123              		.loc 1 1625 3 is_stmt 1 view .LVU1080
 3124              		.loc 1 1625 7 is_stmt 0 view .LVU1081
 3125 0040 FFF7FEFF 		bl	HAL_GetREVID
 3126              	.LVL222:
 3127              		.loc 1 1627 5 is_stmt 1 view .LVU1082
 3128              		.loc 1 1631 5 view .LVU1083
 3129              		.loc 1 1625 6 is_stmt 0 view .LVU1084
 3130 0044 41F20303 		movw	r3, #4099
 3131              		.loc 1 1656 11 view .LVU1085
 3132 0048 284A     		ldr	r2, .L329
 3133              		.loc 1 1625 6 view .LVU1086
 3134 004a 9842     		cmp	r0, r3
 3135              		.loc 1 1627 57 view .LVU1087
ARM GAS  C:\Users\DEVELO~1\AppData\Local\Temp\ccPkHjk7.s 			page 56


 3136 004c 6B68     		ldr	r3, [r5, #4]
 3137              		.loc 1 1627 46 view .LVU1088
 3138 004e 94BF     		ite	ls
 3139 0050 C3F30533 		ubfxls	r3, r3, #12, #6
 3140              		.loc 1 1631 46 view .LVU1089
 3141 0054 C3F30663 		ubfxhi	r3, r3, #24, #7
 3142 0058 2361     		str	r3, [r4, #16]
 3143              		.loc 1 1656 3 is_stmt 1 view .LVU1090
 3144              		.loc 1 1656 11 is_stmt 0 view .LVU1091
 3145 005a 136F     		ldr	r3, [r2, #112]
 3146              		.loc 1 1656 6 view .LVU1092
 3147 005c 5B07     		lsls	r3, r3, #29
 3148 005e 3FD4     		bmi	.L326
 3149              		.loc 1 1660 8 is_stmt 1 view .LVU1093
 3150              		.loc 1 1660 16 is_stmt 0 view .LVU1094
 3151 0060 126F     		ldr	r2, [r2, #112]
 3152              		.loc 1 1660 23 view .LVU1095
 3153 0062 02F00102 		and	r2, r2, #1
 3154              	.L323:
 3155              		.loc 1 1671 11 view .LVU1096
 3156 0066 214B     		ldr	r3, .L329
 3157              		.loc 1 1658 33 view .LVU1097
 3158 0068 A260     		str	r2, [r4, #8]
 3159              		.loc 1 1671 3 is_stmt 1 view .LVU1098
 3160              		.loc 1 1671 11 is_stmt 0 view .LVU1099
 3161 006a 5A6F     		ldr	r2, [r3, #116]
 3162              		.loc 1 1671 17 view .LVU1100
 3163 006c 02F00102 		and	r2, r2, #1
 3164 0070 6261     		str	r2, [r4, #20]
 3165              		.loc 1 1681 3 is_stmt 1 view .LVU1101
 3166              		.loc 1 1681 11 is_stmt 0 view .LVU1102
 3167 0072 1A68     		ldr	r2, [r3]
 3168              		.loc 1 1681 6 view .LVU1103
 3169 0074 C2F30032 		ubfx	r2, r2, #12, #1
 3170 0078 A261     		str	r2, [r4, #24]
 3171              		.loc 1 1691 3 is_stmt 1 view .LVU1104
 3172              		.loc 1 1691 11 is_stmt 0 view .LVU1105
 3173 007a 1A68     		ldr	r2, [r3]
 3174              		.loc 1 1697 37 view .LVU1106
 3175 007c 12F0807F 		tst	r2, #16777216
 3176 0080 14BF     		ite	ne
 3177 0082 0222     		movne	r2, #2
 3178 0084 0122     		moveq	r2, #1
 3179 0086 6262     		str	r2, [r4, #36]
 3180              		.loc 1 1699 3 is_stmt 1 view .LVU1107
 3181              		.loc 1 1699 52 is_stmt 0 view .LVU1108
 3182 0088 9A6A     		ldr	r2, [r3, #40]
 3183              		.loc 1 1699 38 view .LVU1109
 3184 008a 02F00302 		and	r2, r2, #3
 3185              		.loc 1 1699 36 view .LVU1110
 3186 008e A262     		str	r2, [r4, #40]
 3187              		.loc 1 1700 3 is_stmt 1 view .LVU1111
 3188              		.loc 1 1700 48 is_stmt 0 view .LVU1112
 3189 0090 9A6A     		ldr	r2, [r3, #40]
 3190              		.loc 1 1700 33 view .LVU1113
 3191 0092 C2F30512 		ubfx	r2, r2, #4, #6
 3192              		.loc 1 1700 31 view .LVU1114
ARM GAS  C:\Users\DEVELO~1\AppData\Local\Temp\ccPkHjk7.s 			page 57


 3193 0096 E262     		str	r2, [r4, #44]
 3194              		.loc 1 1701 3 is_stmt 1 view .LVU1115
 3195              		.loc 1 1701 48 is_stmt 0 view .LVU1116
 3196 0098 1A6B     		ldr	r2, [r3, #48]
 3197              		.loc 1 1701 33 view .LVU1117
 3198 009a C2F30802 		ubfx	r2, r2, #0, #9
 3199              		.loc 1 1701 102 view .LVU1118
 3200 009e 0132     		adds	r2, r2, #1
 3201              		.loc 1 1701 31 view .LVU1119
 3202 00a0 2263     		str	r2, [r4, #48]
 3203              		.loc 1 1702 3 is_stmt 1 view .LVU1120
 3204              		.loc 1 1702 48 is_stmt 0 view .LVU1121
 3205 00a2 1A6B     		ldr	r2, [r3, #48]
 3206              		.loc 1 1702 33 view .LVU1122
 3207 00a4 C2F30662 		ubfx	r2, r2, #24, #7
 3208              		.loc 1 1702 102 view .LVU1123
 3209 00a8 0132     		adds	r2, r2, #1
 3210              		.loc 1 1702 31 view .LVU1124
 3211 00aa E263     		str	r2, [r4, #60]
 3212              		.loc 1 1703 3 is_stmt 1 view .LVU1125
 3213              		.loc 1 1703 48 is_stmt 0 view .LVU1126
 3214 00ac 1A6B     		ldr	r2, [r3, #48]
 3215              		.loc 1 1703 33 view .LVU1127
 3216 00ae C2F34622 		ubfx	r2, r2, #9, #7
 3217              		.loc 1 1703 102 view .LVU1128
 3218 00b2 0132     		adds	r2, r2, #1
 3219              		.loc 1 1703 31 view .LVU1129
 3220 00b4 6263     		str	r2, [r4, #52]
 3221              		.loc 1 1704 3 is_stmt 1 view .LVU1130
 3222              		.loc 1 1704 48 is_stmt 0 view .LVU1131
 3223 00b6 1A6B     		ldr	r2, [r3, #48]
 3224              		.loc 1 1704 33 view .LVU1132
 3225 00b8 C2F30642 		ubfx	r2, r2, #16, #7
 3226              		.loc 1 1704 102 view .LVU1133
 3227 00bc 0132     		adds	r2, r2, #1
 3228              		.loc 1 1704 31 view .LVU1134
 3229 00be A263     		str	r2, [r4, #56]
 3230              		.loc 1 1705 3 is_stmt 1 view .LVU1135
 3231              		.loc 1 1705 50 is_stmt 0 view .LVU1136
 3232 00c0 DA6A     		ldr	r2, [r3, #44]
 3233              		.loc 1 1705 35 view .LVU1137
 3234 00c2 02F00C02 		and	r2, r2, #12
 3235              		.loc 1 1705 33 view .LVU1138
 3236 00c6 2264     		str	r2, [r4, #64]
 3237              		.loc 1 1706 3 is_stmt 1 view .LVU1139
 3238              		.loc 1 1706 53 is_stmt 0 view .LVU1140
 3239 00c8 DA6A     		ldr	r2, [r3, #44]
 3240              		.loc 1 1706 38 view .LVU1141
 3241 00ca C2F34002 		ubfx	r2, r2, #1, #1
 3242              		.loc 1 1706 36 view .LVU1142
 3243 00ce 6264     		str	r2, [r4, #68]
 3244              		.loc 1 1707 3 is_stmt 1 view .LVU1143
 3245              		.loc 1 1707 53 is_stmt 0 view .LVU1144
 3246 00d0 5B6B     		ldr	r3, [r3, #52]
 3247              		.loc 1 1707 37 view .LVU1145
 3248 00d2 C3F3CC03 		ubfx	r3, r3, #3, #13
 3249              		.loc 1 1707 35 view .LVU1146
ARM GAS  C:\Users\DEVELO~1\AppData\Local\Temp\ccPkHjk7.s 			page 58


 3250 00d6 A364     		str	r3, [r4, #72]
 3251              		.loc 1 1708 1 view .LVU1147
 3252 00d8 38BD     		pop	{r3, r4, r5, pc}
 3253              	.LVL223:
 3254              	.L325:
 3255              		.loc 1 1708 1 view .LVU1148
 3256 00da 4FF4A023 		mov	r3, #327680
 3257 00de 9AE7     		b	.L318
 3258              	.LVL224:
 3259              	.L326:
 3260              		.loc 1 1708 1 view .LVU1149
 3261 00e0 0522     		movs	r2, #5
 3262 00e2 C0E7     		b	.L323
 3263              	.L319:
 3264              		.loc 1 1608 5 is_stmt 1 view .LVU1150
 3265              		.loc 1 1608 57 is_stmt 0 view .LVU1151
 3266 00e4 EB68     		ldr	r3, [r5, #12]
 3267              		.loc 1 1608 46 view .LVU1152
 3268 00e6 C3F30563 		ubfx	r3, r3, #24, #6
 3269 00ea A3E7     		b	.L320
 3270              	.L330:
 3271              		.align	2
 3272              	.L329:
 3273 00ec 00440258 		.word	1476543488
 3274              		.cfi_endproc
 3275              	.LFE151:
 3276              		.size	HAL_RCC_GetOscConfig, .-HAL_RCC_GetOscConfig
 3277              		.section	.text.HAL_RCC_GetClockConfig,"ax",%progbits
 3278              		.align	1
 3279              		.p2align 2,,3
 3280              		.global	HAL_RCC_GetClockConfig
 3281              		.syntax unified
 3282              		.thumb
 3283              		.thumb_func
 3284              		.type	HAL_RCC_GetClockConfig, %function
 3285              	HAL_RCC_GetClockConfig:
 3286              	.LVL225:
 3287              	.LFB152:
 3288              		.loc 1 1719 1 is_stmt 1 view -0
 3289              		.cfi_startproc
 3290              		@ args = 0, pretend = 0, frame = 0
 3291              		@ frame_needed = 0, uses_anonymous_args = 0
 3292              		@ link register save eliminated.
 3293              		.loc 1 1721 3 view .LVU1154
 3294              		.loc 1 1725 51 is_stmt 0 view .LVU1155
 3295 0000 134B     		ldr	r3, .L333
 3296              		.loc 1 1721 32 view .LVU1156
 3297 0002 3F22     		movs	r2, #63
 3298 0004 0260     		str	r2, [r0]
 3299              		.loc 1 1725 3 is_stmt 1 view .LVU1157
 3300              		.loc 1 1725 51 is_stmt 0 view .LVU1158
 3301 0006 1A69     		ldr	r2, [r3, #16]
 3302              		.loc 1 1725 37 view .LVU1159
 3303 0008 02F00702 		and	r2, r2, #7
 3304              		.loc 1 1725 35 view .LVU1160
 3305 000c 4260     		str	r2, [r0, #4]
 3306              		.loc 1 1729 3 is_stmt 1 view .LVU1161
ARM GAS  C:\Users\DEVELO~1\AppData\Local\Temp\ccPkHjk7.s 			page 59


 3307              		.loc 1 1729 52 is_stmt 0 view .LVU1162
 3308 000e 9A69     		ldr	r2, [r3, #24]
 3309              		.loc 1 1729 38 view .LVU1163
 3310 0010 02F47062 		and	r2, r2, #3840
 3311              		.loc 1 1729 36 view .LVU1164
 3312 0014 8260     		str	r2, [r0, #8]
 3313              		.loc 1 1732 3 is_stmt 1 view .LVU1165
 3314              		.loc 1 1732 52 is_stmt 0 view .LVU1166
 3315 0016 9A69     		ldr	r2, [r3, #24]
 3316              		.loc 1 1732 38 view .LVU1167
 3317 0018 02F00F02 		and	r2, r2, #15
 3318              		.loc 1 1732 36 view .LVU1168
 3319 001c C260     		str	r2, [r0, #12]
 3320              		.loc 1 1735 3 is_stmt 1 view .LVU1169
 3321              		.loc 1 1735 53 is_stmt 0 view .LVU1170
 3322 001e 9A69     		ldr	r2, [r3, #24]
 3323              		.loc 1 1735 39 view .LVU1171
 3324 0020 02F07002 		and	r2, r2, #112
 3325              		.loc 1 1735 37 view .LVU1172
 3326 0024 0261     		str	r2, [r0, #16]
 3327              		.loc 1 1738 3 is_stmt 1 view .LVU1173
 3328              		.loc 1 1738 53 is_stmt 0 view .LVU1174
 3329 0026 DA69     		ldr	r2, [r3, #28]
 3330              		.loc 1 1738 39 view .LVU1175
 3331 0028 02F07002 		and	r2, r2, #112
 3332              		.loc 1 1738 37 view .LVU1176
 3333 002c 4261     		str	r2, [r0, #20]
 3334              		.loc 1 1741 3 is_stmt 1 view .LVU1177
 3335              		.loc 1 1741 53 is_stmt 0 view .LVU1178
 3336 002e DA69     		ldr	r2, [r3, #28]
 3337              		.loc 1 1741 39 view .LVU1179
 3338 0030 02F4E062 		and	r2, r2, #1792
 3339              		.loc 1 1741 37 view .LVU1180
 3340 0034 8261     		str	r2, [r0, #24]
 3341              		.loc 1 1744 3 is_stmt 1 view .LVU1181
 3342              		.loc 1 1744 53 is_stmt 0 view .LVU1182
 3343 0036 1B6A     		ldr	r3, [r3, #32]
 3344              		.loc 1 1719 1 view .LVU1183
 3345 0038 10B4     		push	{r4}
 3346              		.cfi_def_cfa_offset 4
 3347              		.cfi_offset 4, -4
 3348              		.loc 1 1744 39 view .LVU1184
 3349 003a 03F07003 		and	r3, r3, #112
 3350              		.loc 1 1766 32 view .LVU1185
 3351 003e 054C     		ldr	r4, .L333+4
 3352              		.loc 1 1744 37 view .LVU1186
 3353 0040 C361     		str	r3, [r0, #28]
 3354              		.loc 1 1766 3 is_stmt 1 view .LVU1187
 3355              		.loc 1 1766 32 is_stmt 0 view .LVU1188
 3356 0042 2368     		ldr	r3, [r4]
 3357              		.loc 1 1767 1 view .LVU1189
 3358 0044 5DF8044B 		ldr	r4, [sp], #4
 3359              		.cfi_restore 4
 3360              		.cfi_def_cfa_offset 0
 3361              		.loc 1 1766 16 view .LVU1190
 3362 0048 03F00F03 		and	r3, r3, #15
 3363              		.loc 1 1766 14 view .LVU1191
ARM GAS  C:\Users\DEVELO~1\AppData\Local\Temp\ccPkHjk7.s 			page 60


 3364 004c 0B60     		str	r3, [r1]
 3365              		.loc 1 1767 1 view .LVU1192
 3366 004e 7047     		bx	lr
 3367              	.L334:
 3368              		.align	2
 3369              	.L333:
 3370 0050 00440258 		.word	1476543488
 3371 0054 00200052 		.word	1375739904
 3372              		.cfi_endproc
 3373              	.LFE152:
 3374              		.size	HAL_RCC_GetClockConfig, .-HAL_RCC_GetClockConfig
 3375              		.section	.text.HAL_RCC_CSSCallback,"ax",%progbits
 3376              		.align	1
 3377              		.p2align 2,,3
 3378              		.weak	HAL_RCC_CSSCallback
 3379              		.syntax unified
 3380              		.thumb
 3381              		.thumb_func
 3382              		.type	HAL_RCC_CSSCallback, %function
 3383              	HAL_RCC_CSSCallback:
 3384              	.LFB154:
 3385              		.loc 1 1792 1 is_stmt 1 view -0
 3386              		.cfi_startproc
 3387              		@ args = 0, pretend = 0, frame = 0
 3388              		@ frame_needed = 0, uses_anonymous_args = 0
 3389              		@ link register save eliminated.
 3390              		.loc 1 1796 1 view .LVU1194
 3391 0000 7047     		bx	lr
 3392              		.cfi_endproc
 3393              	.LFE154:
 3394              		.size	HAL_RCC_CSSCallback, .-HAL_RCC_CSSCallback
 3395 0002 00BF     		.section	.text.HAL_RCC_NMI_IRQHandler,"ax",%progbits
 3396              		.align	1
 3397              		.p2align 2,,3
 3398              		.global	HAL_RCC_NMI_IRQHandler
 3399              		.syntax unified
 3400              		.thumb
 3401              		.thumb_func
 3402              		.type	HAL_RCC_NMI_IRQHandler, %function
 3403              	HAL_RCC_NMI_IRQHandler:
 3404              	.LFB153:
 3405              		.loc 1 1775 1 view -0
 3406              		.cfi_startproc
 3407              		@ args = 0, pretend = 0, frame = 0
 3408              		@ frame_needed = 0, uses_anonymous_args = 0
 3409              		.loc 1 1777 3 view .LVU1196
 3410              		.loc 1 1775 1 is_stmt 0 view .LVU1197
 3411 0000 10B5     		push	{r4, lr}
 3412              		.cfi_def_cfa_offset 8
 3413              		.cfi_offset 4, -8
 3414              		.cfi_offset 14, -4
 3415              		.loc 1 1777 7 view .LVU1198
 3416 0002 054C     		ldr	r4, .L343
 3417 0004 636E     		ldr	r3, [r4, #100]
 3418              		.loc 1 1777 6 view .LVU1199
 3419 0006 5B05     		lsls	r3, r3, #21
 3420 0008 00D4     		bmi	.L342
ARM GAS  C:\Users\DEVELO~1\AppData\Local\Temp\ccPkHjk7.s 			page 61


 3421              		.loc 1 1785 1 view .LVU1200
 3422 000a 10BD     		pop	{r4, pc}
 3423              	.L342:
 3424              		.loc 1 1780 5 is_stmt 1 view .LVU1201
 3425 000c FFF7FEFF 		bl	HAL_RCC_CSSCallback
 3426              	.LVL226:
 3427              		.loc 1 1783 5 view .LVU1202
 3428 0010 4FF48063 		mov	r3, #1024
 3429 0014 A366     		str	r3, [r4, #104]
 3430              		.loc 1 1785 1 is_stmt 0 view .LVU1203
 3431 0016 10BD     		pop	{r4, pc}
 3432              	.L344:
 3433              		.align	2
 3434              	.L343:
 3435 0018 00440258 		.word	1476543488
 3436              		.cfi_endproc
 3437              	.LFE153:
 3438              		.size	HAL_RCC_NMI_IRQHandler, .-HAL_RCC_NMI_IRQHandler
 3439              		.text
 3440              	.Letext0:
 3441              		.file 2 "c:\\chibistudio\\tools\\gnu tools arm embedded\\11.3 2022.08\\arm-none-eabi\\include\\mac
 3442              		.file 3 "c:\\chibistudio\\tools\\gnu tools arm embedded\\11.3 2022.08\\arm-none-eabi\\include\\sys
 3443              		.file 4 "./docs/ChibiOS/os/common/ext/ST/STM32H7xx/system_stm32h7xx.h"
 3444              		.file 5 "./docs/ChibiOS/os/common/ext/ST/STM32H7xx/stm32h743xx.h"
 3445              		.file 6 "c:\\chibistudio\\tools\\gnu tools arm embedded\\11.3 2022.08\\arm-none-eabi\\include\\mat
 3446              		.file 7 "./drivers/stm32h7xx-hal-driver/Inc/stm32h7xx_hal_def.h"
 3447              		.file 8 "./drivers/stm32h7xx-hal-driver/Inc/stm32h7xx_hal_rcc.h"
 3448              		.file 9 "./drivers/stm32h7xx-hal-driver/Inc/stm32h7xx_hal_gpio.h"
 3449              		.file 10 "./drivers/stm32h7xx-hal-driver/Inc/stm32h7xx_hal.h"