ARM GAS  C:\Users\DEVELO~1\AppData\Local\Temp\ccmc7I4c.s 			page 1


   1              		.cpu cortex-m7
   2              		.arch armv7e-m
   3              		.fpu fpv5-d16
   4              		.eabi_attribute 28, 1
   5              		.eabi_attribute 20, 1
   6              		.eabi_attribute 21, 1
   7              		.eabi_attribute 23, 3
   8              		.eabi_attribute 24, 1
   9              		.eabi_attribute 25, 1
  10              		.eabi_attribute 26, 1
  11              		.eabi_attribute 30, 2
  12              		.eabi_attribute 34, 1
  13              		.eabi_attribute 18, 4
  14              		.file	"stm32h7xx_hal_hcd.c"
  15              		.text
  16              	.Ltext0:
  17              		.cfi_sections	.debug_frame
  18              		.section	.text.HAL_HCD_HC_Init,"ax",%progbits
  19              		.align	1
  20              		.p2align 2,,3
  21              		.global	HAL_HCD_HC_Init
  22              		.syntax unified
  23              		.thumb
  24              		.thumb_func
  25              		.type	HAL_HCD_HC_Init, %function
  26              	HAL_HCD_HC_Init:
  27              	.LVL0:
  28              	.LFB142:
  29              		.file 1 "./drivers/stm32h7xx-hal-driver/Src/stm32h7xx_hal_hcd.c"
  30              		.loc 1 204 1 view -0
  31              		.cfi_startproc
  32              		@ args = 12, pretend = 0, frame = 0
  33              		@ frame_needed = 0, uses_anonymous_args = 0
  34              		.loc 1 205 3 view .LVU1
  35              		.loc 1 206 3 view .LVU2
  36              		.loc 1 207 3 view .LVU3
  37              		.loc 1 204 1 is_stmt 0 view .LVU4
  38 0000 2DE9F047 		push	{r4, r5, r6, r7, r8, r9, r10, lr}
  39              		.cfi_def_cfa_offset 32
  40              		.cfi_offset 4, -32
  41              		.cfi_offset 5, -28
  42              		.cfi_offset 6, -24
  43              		.cfi_offset 7, -20
  44              		.cfi_offset 8, -16
  45              		.cfi_offset 9, -12
  46              		.cfi_offset 10, -8
  47              		.cfi_offset 14, -4
  48 0004 9A46     		mov	r10, r3
  49              		.loc 1 209 3 view .LVU5
  50 0006 90F8D433 		ldrb	r3, [r0, #980]	@ zero_extendqisi2
  51              	.LVL1:
  52              		.loc 1 204 1 view .LVU6
  53 000a 84B0     		sub	sp, sp, #16
  54              		.cfi_def_cfa_offset 48
  55              		.loc 1 209 3 view .LVU7
  56 000c 012B     		cmp	r3, #1
  57              		.loc 1 204 1 view .LVU8
ARM GAS  C:\Users\DEVELO~1\AppData\Local\Temp\ccmc7I4c.s 			page 2


  58 000e 9DF83070 		ldrb	r7, [sp, #48]	@ zero_extendqisi2
  59 0012 9DF83460 		ldrb	r6, [sp, #52]	@ zero_extendqisi2
  60 0016 BDF83880 		ldrh	r8, [sp, #56]
  61              	.LVL2:
  62              		.loc 1 209 3 is_stmt 1 view .LVU9
  63              		.loc 1 209 3 view .LVU10
  64 001a 44D0     		beq	.L4
  65              		.loc 1 209 3 discriminator 2 view .LVU11
  66              		.loc 1 211 29 is_stmt 0 discriminator 2 view .LVU12
  67 001c C1EB011C 		rsb	ip, r1, r1, lsl #4
  68              		.loc 1 210 28 discriminator 2 view .LVU13
  69 0020 0023     		movs	r3, #0
  70 0022 9146     		mov	r9, r2
  71              		.loc 1 209 3 discriminator 2 view .LVU14
  72 0024 0122     		movs	r2, #1
  73              	.LVL3:
  74              		.loc 1 211 29 discriminator 2 view .LVU15
  75 0026 00EB8C0C 		add	ip, r0, ip, lsl #2
  76 002a 0446     		mov	r4, r0
  77              		.loc 1 209 3 discriminator 2 view .LVU16
  78 002c 80F8D423 		strb	r2, [r0, #980]
  79              		.loc 1 209 3 is_stmt 1 discriminator 2 view .LVU17
  80              		.loc 1 210 3 discriminator 2 view .LVU18
  81              		.loc 1 211 3 discriminator 2 view .LVU19
  82 0030 0D46     		mov	r5, r1
  83              		.loc 1 210 28 is_stmt 0 discriminator 2 view .LVU20
  84 0032 8CF81930 		strb	r3, [ip, #25]
  85              	.LBB4:
  86              	.LBB5:
  87              		.loc 1 1228 30 discriminator 2 view .LVU21
  88 0036 ACF81A30 		strh	r3, [ip, #26]	@ movhi
  89              		.loc 1 1231 33 discriminator 2 view .LVU22
  90 003a ACF82430 		strh	r3, [ip, #36]	@ movhi
  91              	.LBE5:
  92              	.LBE4:
  93              		.loc 1 214 35 discriminator 2 view .LVU23
  94 003e 09F07F03 		and	r3, r9, #127
  95              		.loc 1 212 27 discriminator 2 view .LVU24
  96 0042 8CF81510 		strb	r1, [ip, #21]
  97              		.loc 1 214 27 discriminator 2 view .LVU25
  98 0046 8CF81630 		strb	r3, [ip, #22]
  99              		.loc 1 218 6 discriminator 2 view .LVU26
 100 004a 4FEAD913 		lsr	r3, r9, #7
 101              		.loc 1 211 29 discriminator 2 view .LVU27
 102 004e 8CF814A0 		strb	r10, [ip, #20]
 103              		.loc 1 212 3 is_stmt 1 discriminator 2 view .LVU28
 104              		.loc 1 213 3 discriminator 2 view .LVU29
 105              		.loc 1 213 28 is_stmt 0 discriminator 2 view .LVU30
 106 0052 8CF82660 		strb	r6, [ip, #38]
 107              		.loc 1 214 3 is_stmt 1 discriminator 2 view .LVU31
 108              		.loc 1 216 3 discriminator 2 view .LVU32
 109              	.LVL4:
 110              	.LBB7:
 111              	.LBI4:
 112              		.loc 1 1226 19 discriminator 2 view .LVU33
 113              	.LBB6:
 114              		.loc 1 1228 3 discriminator 2 view .LVU34
ARM GAS  C:\Users\DEVELO~1\AppData\Local\Temp\ccmc7I4c.s 			page 3


 115              		.loc 1 1229 3 discriminator 2 view .LVU35
 116              		.loc 1 1230 3 discriminator 2 view .LVU36
 117              		.loc 1 1231 3 discriminator 2 view .LVU37
 118              		.loc 1 1233 3 discriminator 2 view .LVU38
 119              		.loc 1 1233 3 is_stmt 0 discriminator 2 view .LVU39
 120              	.LBE6:
 121              	.LBE7:
 122              		.loc 1 218 3 is_stmt 1 discriminator 2 view .LVU40
 123 0056 8CF81730 		strb	r3, [ip, #23]
 124              		.loc 1 227 3 discriminator 2 view .LVU41
 125              		.loc 1 227 19 is_stmt 0 discriminator 2 view .LVU42
 126 005a 0068     		ldr	r0, [r0]
 127              	.LVL5:
 128              		.loc 1 227 19 discriminator 2 view .LVU43
 129 005c FFF7FEFF 		bl	USB_GetHostSpeed
 130              	.LVL6:
 131              		.loc 1 229 3 is_stmt 1 discriminator 2 view .LVU44
 132              		.loc 1 229 6 is_stmt 0 discriminator 2 view .LVU45
 133 0060 012E     		cmp	r6, #1
 134              		.loc 1 211 29 discriminator 2 view .LVU46
 135 0062 4FEA0511 		lsl	r1, r5, #4
 136              		.loc 1 229 6 discriminator 2 view .LVU47
 137 0066 14D0     		beq	.L13
 138              	.LVL7:
 139              	.L3:
 140              		.loc 1 242 3 is_stmt 1 view .LVU48
 141              		.loc 1 242 26 is_stmt 0 view .LVU49
 142 0068 481B     		subs	r0, r1, r5
 143              	.LVL8:
 144              		.loc 1 245 13 view .LVU50
 145 006a 5346     		mov	r3, r10
 146 006c 4A46     		mov	r2, r9
 147 006e 2946     		mov	r1, r5
 148              		.loc 1 242 26 view .LVU51
 149 0070 04EB8000 		add	r0, r4, r0, lsl #2
 150 0074 0776     		strb	r7, [r0, #24]
 151              		.loc 1 243 3 is_stmt 1 view .LVU52
 152              		.loc 1 243 31 is_stmt 0 view .LVU53
 153 0076 A0F82880 		strh	r8, [r0, #40]	@ movhi
 154              		.loc 1 245 3 is_stmt 1 view .LVU54
 155              		.loc 1 245 13 is_stmt 0 view .LVU55
 156 007a 0097     		str	r7, [sp]
 157 007c CDE90168 		strd	r6, r8, [sp, #4]
 158 0080 2068     		ldr	r0, [r4]
 159 0082 FFF7FEFF 		bl	USB_HC_Init
 160              	.LVL9:
 161              		.loc 1 248 3 view .LVU56
 162 0086 0023     		movs	r3, #0
 163              	.LVL10:
 164              		.loc 1 248 3 is_stmt 1 view .LVU57
 165              		.loc 1 248 3 view .LVU58
 166 0088 84F8D433 		strb	r3, [r4, #980]
 167              		.loc 1 248 3 view .LVU59
 168              		.loc 1 250 3 view .LVU60
 169              		.loc 1 251 1 is_stmt 0 view .LVU61
 170 008c 04B0     		add	sp, sp, #16
 171              		.cfi_remember_state
ARM GAS  C:\Users\DEVELO~1\AppData\Local\Temp\ccmc7I4c.s 			page 4


 172              		.cfi_def_cfa_offset 32
 173              		@ sp needed
 174 008e BDE8F087 		pop	{r4, r5, r6, r7, r8, r9, r10, pc}
 175              	.LVL11:
 176              	.L13:
 177              		.cfi_restore_state
 178              		.loc 1 232 5 is_stmt 1 view .LVU62
 179              		.loc 1 232 8 is_stmt 0 view .LVU63
 180 0092 012F     		cmp	r7, #1
 181 0094 E8D1     		bne	.L3
 182 0096 0028     		cmp	r0, #0
 183 0098 E6D1     		bne	.L3
 184              		.loc 1 234 7 is_stmt 1 view .LVU64
 185              		.loc 1 243 33 is_stmt 0 view .LVU65
 186 009a B8F1BC0F 		cmp	r8, #188
 187 009e 28BF     		it	cs
 188 00a0 4FF0BC08 		movcs	r8, #188
 189              	.LVL12:
 190              		.loc 1 243 33 view .LVU66
 191 00a4 E0E7     		b	.L3
 192              	.LVL13:
 193              	.L4:
 194              		.loc 1 209 3 view .LVU67
 195 00a6 0220     		movs	r0, #2
 196              	.LVL14:
 197              		.loc 1 251 1 view .LVU68
 198 00a8 04B0     		add	sp, sp, #16
 199              		.cfi_def_cfa_offset 32
 200              		@ sp needed
 201 00aa BDE8F087 		pop	{r4, r5, r6, r7, r8, r9, r10, pc}
 202              		.loc 1 251 1 view .LVU69
 203              		.cfi_endproc
 204              	.LFE142:
 205              		.size	HAL_HCD_HC_Init, .-HAL_HCD_HC_Init
 206 00ae 00BF     		.section	.text.HAL_HCD_HC_Halt,"ax",%progbits
 207              		.align	1
 208              		.p2align 2,,3
 209              		.global	HAL_HCD_HC_Halt
 210              		.syntax unified
 211              		.thumb
 212              		.thumb_func
 213              		.type	HAL_HCD_HC_Halt, %function
 214              	HAL_HCD_HC_Halt:
 215              	.LVL15:
 216              	.LFB143:
 217              		.loc 1 261 1 is_stmt 1 view -0
 218              		.cfi_startproc
 219              		@ args = 0, pretend = 0, frame = 0
 220              		@ frame_needed = 0, uses_anonymous_args = 0
 221              		.loc 1 262 3 view .LVU71
 222              		.loc 1 264 3 view .LVU72
 223              		.loc 1 264 3 view .LVU73
 224 0000 90F8D433 		ldrb	r3, [r0, #980]	@ zero_extendqisi2
 225 0004 012B     		cmp	r3, #1
 226 0006 0CD0     		beq	.L16
 227              		.loc 1 264 3 discriminator 2 view .LVU74
 228 0008 0123     		movs	r3, #1
ARM GAS  C:\Users\DEVELO~1\AppData\Local\Temp\ccmc7I4c.s 			page 5


 229              		.loc 1 261 1 is_stmt 0 discriminator 2 view .LVU75
 230 000a 10B5     		push	{r4, lr}
 231              		.cfi_def_cfa_offset 8
 232              		.cfi_offset 4, -8
 233              		.cfi_offset 14, -4
 234 000c 0446     		mov	r4, r0
 235              		.loc 1 265 9 discriminator 2 view .LVU76
 236 000e 0068     		ldr	r0, [r0]
 237              	.LVL16:
 238              		.loc 1 264 3 discriminator 2 view .LVU77
 239 0010 84F8D433 		strb	r3, [r4, #980]
 240              		.loc 1 264 3 is_stmt 1 discriminator 2 view .LVU78
 241              		.loc 1 265 3 discriminator 2 view .LVU79
 242              		.loc 1 265 9 is_stmt 0 discriminator 2 view .LVU80
 243 0014 FFF7FEFF 		bl	USB_HC_Halt
 244              	.LVL17:
 245              		.loc 1 266 3 is_stmt 1 discriminator 2 view .LVU81
 246              		.loc 1 266 3 discriminator 2 view .LVU82
 247 0018 0023     		movs	r3, #0
 248              		.loc 1 268 10 is_stmt 0 discriminator 2 view .LVU83
 249 001a 1846     		mov	r0, r3
 250              		.loc 1 266 3 discriminator 2 view .LVU84
 251 001c 84F8D433 		strb	r3, [r4, #980]
 252              		.loc 1 266 3 is_stmt 1 discriminator 2 view .LVU85
 253              		.loc 1 268 3 discriminator 2 view .LVU86
 254              		.loc 1 269 1 is_stmt 0 discriminator 2 view .LVU87
 255 0020 10BD     		pop	{r4, pc}
 256              	.LVL18:
 257              	.L16:
 258              		.cfi_def_cfa_offset 0
 259              		.cfi_restore 4
 260              		.cfi_restore 14
 261              		.loc 1 264 3 view .LVU88
 262 0022 0220     		movs	r0, #2
 263              	.LVL19:
 264              		.loc 1 269 1 view .LVU89
 265 0024 7047     		bx	lr
 266              		.cfi_endproc
 267              	.LFE143:
 268              		.size	HAL_HCD_HC_Halt, .-HAL_HCD_HC_Halt
 269 0026 00BF     		.section	.text.HAL_HCD_MspInit,"ax",%progbits
 270              		.align	1
 271              		.p2align 2,,3
 272              		.weak	HAL_HCD_MspInit
 273              		.syntax unified
 274              		.thumb
 275              		.thumb_func
 276              		.type	HAL_HCD_MspInit, %function
 277              	HAL_HCD_MspInit:
 278              	.LVL20:
 279              	.LFB145:
 280              		.loc 1 312 1 is_stmt 1 view -0
 281              		.cfi_startproc
 282              		@ args = 0, pretend = 0, frame = 0
 283              		@ frame_needed = 0, uses_anonymous_args = 0
 284              		@ link register save eliminated.
 285              		.loc 1 314 3 view .LVU91
ARM GAS  C:\Users\DEVELO~1\AppData\Local\Temp\ccmc7I4c.s 			page 6


 286              		.loc 1 319 1 is_stmt 0 view .LVU92
 287 0000 7047     		bx	lr
 288              		.cfi_endproc
 289              	.LFE145:
 290              		.size	HAL_HCD_MspInit, .-HAL_HCD_MspInit
 291 0002 00BF     		.section	.text.HAL_HCD_Init,"ax",%progbits
 292              		.align	1
 293              		.p2align 2,,3
 294              		.global	HAL_HCD_Init
 295              		.syntax unified
 296              		.thumb
 297              		.thumb_func
 298              		.type	HAL_HCD_Init, %function
 299              	HAL_HCD_Init:
 300              	.LVL21:
 301              	.LFB141:
 302              		.loc 1 111 1 is_stmt 1 view -0
 303              		.cfi_startproc
 304              		@ args = 0, pretend = 0, frame = 0
 305              		@ frame_needed = 0, uses_anonymous_args = 0
 306              		.loc 1 113 3 view .LVU94
 307              		.loc 1 113 6 is_stmt 0 view .LVU95
 308 0000 0028     		cmp	r0, #0
 309 0002 37D0     		beq	.L28
 310              		.loc 1 119 3 is_stmt 1 view .LVU96
 311              		.loc 1 121 3 view .LVU97
 312              		.loc 1 111 1 is_stmt 0 view .LVU98
 313 0004 30B5     		push	{r4, r5, lr}
 314              		.cfi_def_cfa_offset 12
 315              		.cfi_offset 4, -12
 316              		.cfi_offset 5, -8
 317              		.cfi_offset 14, -4
 318              		.loc 1 121 11 view .LVU99
 319 0006 90F8D533 		ldrb	r3, [r0, #981]	@ zero_extendqisi2
 320              		.loc 1 111 1 view .LVU100
 321 000a 83B0     		sub	sp, sp, #12
 322              		.cfi_def_cfa_offset 24
 323 000c 0446     		mov	r4, r0
 324              		.loc 1 121 6 view .LVU101
 325 000e 03F0FF02 		and	r2, r3, #255
 326 0012 53B3     		cbz	r3, .L34
 327              	.LVL22:
 328              	.L24:
 329              		.loc 1 147 3 is_stmt 1 view .LVU102
 330              		.loc 1 147 15 is_stmt 0 view .LVU103
 331 0014 0323     		movs	r3, #3
 332              		.loc 1 150 3 view .LVU104
 333 0016 2068     		ldr	r0, [r4]
 334              		.loc 1 153 7 view .LVU105
 335 0018 251D     		adds	r5, r4, #4
 336              		.loc 1 147 15 view .LVU106
 337 001a 84F8D533 		strb	r3, [r4, #981]
 338              		.loc 1 150 3 is_stmt 1 view .LVU107
 339 001e FFF7FEFF 		bl	USB_DisableGlobalInt
 340              	.LVL23:
 341              		.loc 1 153 3 view .LVU108
 342              		.loc 1 153 7 is_stmt 0 view .LVU109
ARM GAS  C:\Users\DEVELO~1\AppData\Local\Temp\ccmc7I4c.s 			page 7


 343 0022 237C     		ldrb	r3, [r4, #16]	@ zero_extendqisi2
 344 0024 8DF80030 		strb	r3, [sp]
 345 0028 2068     		ldr	r0, [r4]
 346 002a 95E80E00 		ldm	r5, {r1, r2, r3}
 347 002e FFF7FEFF 		bl	USB_CoreInit
 348              	.LVL24:
 349              		.loc 1 153 6 view .LVU110
 350 0032 28B1     		cbz	r0, .L25
 351              	.L33:
 352              		.loc 1 169 5 is_stmt 1 view .LVU111
 353              		.loc 1 169 17 is_stmt 0 view .LVU112
 354 0034 0223     		movs	r3, #2
 355              		.loc 1 170 12 view .LVU113
 356 0036 0120     		movs	r0, #1
 357              		.loc 1 169 17 view .LVU114
 358 0038 84F8D533 		strb	r3, [r4, #981]
 359              		.loc 1 170 5 is_stmt 1 view .LVU115
 360              		.loc 1 176 1 is_stmt 0 view .LVU116
 361 003c 03B0     		add	sp, sp, #12
 362              		.cfi_remember_state
 363              		.cfi_def_cfa_offset 12
 364              		@ sp needed
 365 003e 30BD     		pop	{r4, r5, pc}
 366              	.LVL25:
 367              	.L25:
 368              		.cfi_restore_state
 369              		.loc 1 160 3 is_stmt 1 view .LVU117
 370              		.loc 1 160 7 is_stmt 0 view .LVU118
 371 0040 0121     		movs	r1, #1
 372 0042 2068     		ldr	r0, [r4]
 373 0044 FFF7FEFF 		bl	USB_SetCurrentMode
 374              	.LVL26:
 375              		.loc 1 160 6 view .LVU119
 376 0048 0028     		cmp	r0, #0
 377 004a F3D1     		bne	.L33
 378              		.loc 1 167 3 is_stmt 1 view .LVU120
 379              		.loc 1 167 7 is_stmt 0 view .LVU121
 380 004c 207C     		ldrb	r0, [r4, #16]	@ zero_extendqisi2
 381 004e 95E80E00 		ldm	r5, {r1, r2, r3}
 382 0052 8DF80000 		strb	r0, [sp]
 383 0056 2068     		ldr	r0, [r4]
 384 0058 FFF7FEFF 		bl	USB_HostInit
 385              	.LVL27:
 386              		.loc 1 167 6 view .LVU122
 387 005c 0028     		cmp	r0, #0
 388 005e E9D1     		bne	.L33
 389              		.loc 1 173 3 is_stmt 1 view .LVU123
 390              		.loc 1 173 15 is_stmt 0 view .LVU124
 391 0060 0123     		movs	r3, #1
 392 0062 84F8D533 		strb	r3, [r4, #981]
 393              		.loc 1 175 3 is_stmt 1 view .LVU125
 394              		.loc 1 176 1 is_stmt 0 view .LVU126
 395 0066 03B0     		add	sp, sp, #12
 396              		.cfi_remember_state
 397              		.cfi_def_cfa_offset 12
 398              		@ sp needed
 399 0068 30BD     		pop	{r4, r5, pc}
ARM GAS  C:\Users\DEVELO~1\AppData\Local\Temp\ccmc7I4c.s 			page 8


 400              	.LVL28:
 401              	.L34:
 402              		.cfi_restore_state
 403              		.loc 1 124 5 is_stmt 1 view .LVU127
 404              		.loc 1 124 16 is_stmt 0 view .LVU128
 405 006a 80F8D423 		strb	r2, [r0, #980]
 406              		.loc 1 143 5 is_stmt 1 view .LVU129
 407 006e FFF7FEFF 		bl	HAL_HCD_MspInit
 408              	.LVL29:
 409              		.loc 1 143 5 is_stmt 0 view .LVU130
 410 0072 CFE7     		b	.L24
 411              	.LVL30:
 412              	.L28:
 413              		.cfi_def_cfa_offset 0
 414              		.cfi_restore 4
 415              		.cfi_restore 5
 416              		.cfi_restore 14
 417              		.loc 1 115 12 view .LVU131
 418 0074 0120     		movs	r0, #1
 419              	.LVL31:
 420              		.loc 1 176 1 view .LVU132
 421 0076 7047     		bx	lr
 422              		.cfi_endproc
 423              	.LFE141:
 424              		.size	HAL_HCD_Init, .-HAL_HCD_Init
 425              		.section	.text.HAL_HCD_MspDeInit,"ax",%progbits
 426              		.align	1
 427              		.p2align 2,,3
 428              		.weak	HAL_HCD_MspDeInit
 429              		.syntax unified
 430              		.thumb
 431              		.thumb_func
 432              		.type	HAL_HCD_MspDeInit, %function
 433              	HAL_HCD_MspDeInit:
 434              	.LFB171:
 435              		.cfi_startproc
 436              		@ args = 0, pretend = 0, frame = 0
 437              		@ frame_needed = 0, uses_anonymous_args = 0
 438              		@ link register save eliminated.
 439 0000 7047     		bx	lr
 440              		.cfi_endproc
 441              	.LFE171:
 442              		.size	HAL_HCD_MspDeInit, .-HAL_HCD_MspDeInit
 443 0002 00BF     		.section	.text.HAL_HCD_DeInit,"ax",%progbits
 444              		.align	1
 445              		.p2align 2,,3
 446              		.global	HAL_HCD_DeInit
 447              		.syntax unified
 448              		.thumb
 449              		.thumb_func
 450              		.type	HAL_HCD_DeInit, %function
 451              	HAL_HCD_DeInit:
 452              	.LVL32:
 453              	.LFB144:
 454              		.loc 1 277 1 is_stmt 1 view -0
 455              		.cfi_startproc
 456              		@ args = 0, pretend = 0, frame = 0
ARM GAS  C:\Users\DEVELO~1\AppData\Local\Temp\ccmc7I4c.s 			page 9


 457              		@ frame_needed = 0, uses_anonymous_args = 0
 458              		.loc 1 279 3 view .LVU134
 459              		.loc 1 279 6 is_stmt 0 view .LVU135
 460 0000 70B1     		cbz	r0, .L38
 461              		.loc 1 284 3 is_stmt 1 view .LVU136
 462              		.loc 1 284 15 is_stmt 0 view .LVU137
 463 0002 0323     		movs	r3, #3
 464              		.loc 1 277 1 view .LVU138
 465 0004 10B5     		push	{r4, lr}
 466              		.cfi_def_cfa_offset 8
 467              		.cfi_offset 4, -8
 468              		.cfi_offset 14, -4
 469 0006 0446     		mov	r4, r0
 470              		.loc 1 284 15 view .LVU139
 471 0008 80F8D533 		strb	r3, [r0, #981]
 472              		.loc 1 296 3 is_stmt 1 view .LVU140
 473 000c FFF7FEFF 		bl	HAL_HCD_MspDeInit
 474              	.LVL33:
 475              		.loc 1 299 3 view .LVU141
 476 0010 2068     		ldr	r0, [r4]
 477 0012 FFF7FEFF 		bl	USB_DisableGlobalInt
 478              	.LVL34:
 479              		.loc 1 301 3 view .LVU142
 480              		.loc 1 301 15 is_stmt 0 view .LVU143
 481 0016 0023     		movs	r3, #0
 482              		.loc 1 303 10 view .LVU144
 483 0018 1846     		mov	r0, r3
 484              		.loc 1 301 15 view .LVU145
 485 001a 84F8D533 		strb	r3, [r4, #981]
 486              		.loc 1 303 3 is_stmt 1 view .LVU146
 487              		.loc 1 304 1 is_stmt 0 view .LVU147
 488 001e 10BD     		pop	{r4, pc}
 489              	.LVL35:
 490              	.L38:
 491              		.cfi_def_cfa_offset 0
 492              		.cfi_restore 4
 493              		.cfi_restore 14
 494              		.loc 1 281 12 view .LVU148
 495 0020 0120     		movs	r0, #1
 496              	.LVL36:
 497              		.loc 1 304 1 view .LVU149
 498 0022 7047     		bx	lr
 499              		.cfi_endproc
 500              	.LFE144:
 501              		.size	HAL_HCD_DeInit, .-HAL_HCD_DeInit
 502              		.section	.text.HAL_HCD_HC_SubmitRequest,"ax",%progbits
 503              		.align	1
 504              		.p2align 2,,3
 505              		.global	HAL_HCD_HC_SubmitRequest
 506              		.syntax unified
 507              		.thumb
 508              		.thumb_func
 509              		.type	HAL_HCD_HC_SubmitRequest, %function
 510              	HAL_HCD_HC_SubmitRequest:
 511              	.LVL37:
 512              	.LFB147:
 513              		.loc 1 386 1 is_stmt 1 view -0
ARM GAS  C:\Users\DEVELO~1\AppData\Local\Temp\ccmc7I4c.s 			page 10


 514              		.cfi_startproc
 515              		@ args = 16, pretend = 0, frame = 0
 516              		@ frame_needed = 0, uses_anonymous_args = 0
 517              		.loc 1 387 3 view .LVU151
 518              		.loc 1 386 1 is_stmt 0 view .LVU152
 519 0000 F0B5     		push	{r4, r5, r6, r7, lr}
 520              		.cfi_def_cfa_offset 20
 521              		.cfi_offset 4, -20
 522              		.cfi_offset 5, -16
 523              		.cfi_offset 6, -12
 524              		.cfi_offset 7, -8
 525              		.cfi_offset 14, -4
 526              		.loc 1 387 29 view .LVU153
 527 0002 C1EB011E 		rsb	lr, r1, r1, lsl #4
 528              		.loc 1 386 1 view .LVU154
 529 0006 9DF81440 		ldrb	r4, [sp, #20]	@ zero_extendqisi2
 530 000a 069E     		ldr	r6, [sp, #24]
 531              		.loc 1 387 29 view .LVU155
 532 000c 4FEA011C 		lsl	ip, r1, #4
 533 0010 00EB8E0E 		add	lr, r0, lr, lsl #2
 534              		.loc 1 386 1 view .LVU156
 535 0014 BDF81C50 		ldrh	r5, [sp, #28]
 536 0018 9DF82070 		ldrb	r7, [sp, #32]	@ zero_extendqisi2
 537              		.loc 1 387 29 view .LVU157
 538 001c 8EF81720 		strb	r2, [lr, #23]
 539              		.loc 1 388 3 is_stmt 1 view .LVU158
 540              		.loc 1 388 29 is_stmt 0 view .LVU159
 541 0020 8EF82630 		strb	r3, [lr, #38]
 542              		.loc 1 390 3 is_stmt 1 view .LVU160
 543              		.loc 1 390 6 is_stmt 0 view .LVU161
 544 0024 FCB9     		cbnz	r4, .L44
 545              		.loc 1 392 5 is_stmt 1 view .LVU162
 546              		.loc 1 392 31 is_stmt 0 view .LVU163
 547 0026 0324     		movs	r4, #3
 548              		.loc 1 401 3 view .LVU164
 549 0028 022B     		cmp	r3, #2
 550              		.loc 1 393 30 view .LVU165
 551 002a 8EF81970 		strb	r7, [lr, #25]
 552              		.loc 1 392 31 view .LVU166
 553 002e 8EF82A40 		strb	r4, [lr, #42]
 554              		.loc 1 393 5 is_stmt 1 view .LVU167
 555              		.loc 1 401 3 view .LVU168
 556 0032 21D0     		beq	.L46
 557 0034 A342     		cmp	r3, r4
 558 0036 1FD0     		beq	.L46
 559 0038 012B     		cmp	r3, #1
 560 003a 29D0     		beq	.L47
 561              	.LVL38:
 562              	.L49:
 563              		.loc 1 507 3 view .LVU169
 564              		.loc 1 507 30 is_stmt 0 view .LVU170
 565 003c ACEB0103 		sub	r3, ip, r1
 566              		.loc 1 514 43 view .LVU171
 567 0040 3C24     		movs	r4, #60
 568              		.loc 1 510 31 view .LVU172
 569 0042 0022     		movs	r2, #0
 570              		.loc 1 507 30 view .LVU173
ARM GAS  C:\Users\DEVELO~1\AppData\Local\Temp\ccmc7I4c.s 			page 11


 571 0044 00EB8303 		add	r3, r0, r3, lsl #2
 572              		.loc 1 511 27 view .LVU174
 573 0048 5975     		strb	r1, [r3, #21]
 574              		.loc 1 514 43 view .LVU175
 575 004a 04FB0101 		mla	r1, r4, r1, r0
 576              	.LVL39:
 577              		.loc 1 509 30 view .LVU176
 578 004e A3F84C20 		strh	r2, [r3, #76]	@ movhi
 579              		.loc 1 507 30 view .LVU177
 580 0052 DE62     		str	r6, [r3, #44]
 581              		.loc 1 508 3 is_stmt 1 view .LVU178
 582              		.loc 1 514 10 is_stmt 0 view .LVU179
 583 0054 1431     		adds	r1, r1, #20
 584              		.loc 1 508 30 view .LVU180
 585 0056 C3E90D52 		strd	r5, r2, [r3, #52]
 586              		.loc 1 509 3 is_stmt 1 view .LVU181
 587              		.loc 1 510 3 view .LVU182
 588              		.loc 1 511 3 view .LVU183
 589              		.loc 1 512 3 view .LVU184
 590              		.loc 1 514 3 view .LVU185
 591              		.loc 1 515 1 is_stmt 0 view .LVU186
 592 005a BDE8F040 		pop	{r4, r5, r6, r7, lr}
 593              		.cfi_remember_state
 594              		.cfi_restore 14
 595              		.cfi_restore 7
 596              		.cfi_restore 6
 597              		.cfi_restore 5
 598              		.cfi_restore 4
 599              		.cfi_def_cfa_offset 0
 600              	.LVL40:
 601              		.loc 1 514 10 view .LVU187
 602 005e 8279     		ldrb	r2, [r0, #6]	@ zero_extendqisi2
 603 0060 0068     		ldr	r0, [r0]
 604              	.LVL41:
 605              		.loc 1 514 10 view .LVU188
 606 0062 FFF7FEBF 		b	USB_HC_StartXfer
 607              	.LVL42:
 608              	.L44:
 609              		.cfi_restore_state
 610              		.loc 1 397 5 is_stmt 1 view .LVU189
 611              		.loc 1 397 31 is_stmt 0 view .LVU190
 612 0066 0227     		movs	r7, #2
 613 0068 8EF82A70 		strb	r7, [lr, #42]
 614              		.loc 1 401 3 is_stmt 1 view .LVU191
 615 006c 032B     		cmp	r3, #3
 616 006e E5D8     		bhi	.L49
 617 0070 DFE803F0 		tbb	[pc, r3]
 618              	.L50:
 619 0074 1E       		.byte	(.L51-.L50)/2
 620 0075 0E       		.byte	(.L47-.L50)/2
 621 0076 02       		.byte	(.L46-.L50)/2
 622 0077 02       		.byte	(.L46-.L50)/2
 623              		.p2align 1
 624              	.L46:
 625              		.loc 1 472 7 view .LVU192
 626              		.loc 1 475 29 is_stmt 0 view .LVU193
 627 0078 ACEB0103 		sub	r3, ip, r1
ARM GAS  C:\Users\DEVELO~1\AppData\Local\Temp\ccmc7I4c.s 			page 12


 628              	.LVL43:
 629              		.loc 1 475 29 view .LVU194
 630 007c 00EB8303 		add	r3, r0, r3, lsl #2
 631              		.loc 1 472 10 view .LVU195
 632 0080 72B9     		cbnz	r2, .L58
 633              		.loc 1 475 9 is_stmt 1 view .LVU196
 634              		.loc 1 475 12 is_stmt 0 view .LVU197
 635 0082 93F83D40 		ldrb	r4, [r3, #61]	@ zero_extendqisi2
 636 0086 44B1     		cbz	r4, .L75
 637              		.loc 1 494 11 is_stmt 1 view .LVU198
 638              		.loc 1 494 37 is_stmt 0 view .LVU199
 639 0088 0222     		movs	r2, #2
 640              	.LVL44:
 641              		.loc 1 494 37 view .LVU200
 642 008a 83F82A20 		strb	r2, [r3, #42]
 643              	.LVL45:
 644              		.loc 1 494 37 view .LVU201
 645 008e D5E7     		b	.L49
 646              	.LVL46:
 647              	.L47:
 648              		.loc 1 500 7 is_stmt 1 view .LVU202
 649              		.loc 1 500 33 is_stmt 0 view .LVU203
 650 0090 ACEB0103 		sub	r3, ip, r1
 651              	.LVL47:
 652              		.loc 1 500 33 view .LVU204
 653 0094 0022     		movs	r2, #0
 654              	.LVL48:
 655              		.loc 1 500 33 view .LVU205
 656 0096 00EB8303 		add	r3, r0, r3, lsl #2
 657              	.L75:
 658              		.loc 1 500 33 view .LVU206
 659 009a 83F82A20 		strb	r2, [r3, #42]
 660              	.LVL49:
 661              		.loc 1 501 7 is_stmt 1 view .LVU207
 662 009e CDE7     		b	.L49
 663              	.LVL50:
 664              	.L58:
 665              		.loc 1 488 9 view .LVU208
 666              		.loc 1 488 12 is_stmt 0 view .LVU209
 667 00a0 93F83C20 		ldrb	r2, [r3, #60]	@ zero_extendqisi2
 668              	.LVL51:
 669              		.loc 1 488 12 view .LVU210
 670 00a4 002A     		cmp	r2, #0
 671 00a6 F8D0     		beq	.L75
 672              		.loc 1 494 11 is_stmt 1 view .LVU211
 673              		.loc 1 494 37 is_stmt 0 view .LVU212
 674 00a8 0222     		movs	r2, #2
 675 00aa 83F82A20 		strb	r2, [r3, #42]
 676              	.LVL52:
 677              		.loc 1 494 37 view .LVU213
 678 00ae C5E7     		b	.L49
 679              	.LVL53:
 680              	.L51:
 681              		.loc 1 404 7 is_stmt 1 view .LVU214
 682              		.loc 1 404 10 is_stmt 0 view .LVU215
 683 00b0 012C     		cmp	r4, #1
 684 00b2 C3D1     		bne	.L49
ARM GAS  C:\Users\DEVELO~1\AppData\Local\Temp\ccmc7I4c.s 			page 13


 685              		.loc 1 406 9 is_stmt 1 view .LVU216
 686              		.loc 1 411 41 is_stmt 0 view .LVU217
 687 00b4 ACEB0103 		sub	r3, ip, r1
 688              	.LVL54:
 689              		.loc 1 411 41 view .LVU218
 690 00b8 00EB8303 		add	r3, r0, r3, lsl #2
 691              		.loc 1 406 12 view .LVU219
 692 00bc 1AB9     		cbnz	r2, .L53
 693              		.loc 1 408 11 is_stmt 1 view .LVU220
 694              		.loc 1 408 14 is_stmt 0 view .LVU221
 695 00be 55B9     		cbnz	r5, .L54
 696              		.loc 1 411 13 is_stmt 1 view .LVU222
 697              		.loc 1 411 41 is_stmt 0 view .LVU223
 698 00c0 83F83D40 		strb	r4, [r3, #61]
 699              	.LVL55:
 700              		.loc 1 415 11 is_stmt 1 view .LVU224
 701 00c4 BAE7     		b	.L49
 702              	.LVL56:
 703              	.L53:
 704              		.loc 1 428 11 view .LVU225
 705              		.loc 1 428 14 is_stmt 0 view .LVU226
 706 00c6 9A7E     		ldrb	r2, [r3, #26]	@ zero_extendqisi2
 707              	.LVL57:
 708              		.loc 1 428 14 view .LVU227
 709 00c8 012A     		cmp	r2, #1
 710 00ca B7D1     		bne	.L49
 711              		.loc 1 430 13 is_stmt 1 view .LVU228
 712              		.loc 1 430 16 is_stmt 0 view .LVU229
 713 00cc 93F83C20 		ldrb	r2, [r3, #60]	@ zero_extendqisi2
 714 00d0 002A     		cmp	r2, #0
 715 00d2 B3D1     		bne	.L49
 716 00d4 E1E7     		b	.L75
 717              	.LVL58:
 718              	.L54:
 719              		.loc 1 415 11 is_stmt 1 view .LVU230
 720              		.loc 1 415 14 is_stmt 0 view .LVU231
 721 00d6 93F83D40 		ldrb	r4, [r3, #61]	@ zero_extendqisi2
 722 00da 002C     		cmp	r4, #0
 723 00dc DDD0     		beq	.L75
 724 00de ADE7     		b	.L49
 725              		.cfi_endproc
 726              	.LFE147:
 727              		.size	HAL_HCD_HC_SubmitRequest, .-HAL_HCD_HC_SubmitRequest
 728              		.section	.text.HAL_HCD_SOF_Callback,"ax",%progbits
 729              		.align	1
 730              		.p2align 2,,3
 731              		.weak	HAL_HCD_SOF_Callback
 732              		.syntax unified
 733              		.thumb
 734              		.thumb_func
 735              		.type	HAL_HCD_SOF_Callback, %function
 736              	HAL_HCD_SOF_Callback:
 737              	.LFB173:
 738              		.cfi_startproc
 739              		@ args = 0, pretend = 0, frame = 0
 740              		@ frame_needed = 0, uses_anonymous_args = 0
 741              		@ link register save eliminated.
ARM GAS  C:\Users\DEVELO~1\AppData\Local\Temp\ccmc7I4c.s 			page 14


 742 0000 7047     		bx	lr
 743              		.cfi_endproc
 744              	.LFE173:
 745              		.size	HAL_HCD_SOF_Callback, .-HAL_HCD_SOF_Callback
 746 0002 00BF     		.section	.text.HAL_HCD_Connect_Callback,"ax",%progbits
 747              		.align	1
 748              		.p2align 2,,3
 749              		.weak	HAL_HCD_Connect_Callback
 750              		.syntax unified
 751              		.thumb
 752              		.thumb_func
 753              		.type	HAL_HCD_Connect_Callback, %function
 754              	HAL_HCD_Connect_Callback:
 755              	.LFB175:
 756              		.cfi_startproc
 757              		@ args = 0, pretend = 0, frame = 0
 758              		@ frame_needed = 0, uses_anonymous_args = 0
 759              		@ link register save eliminated.
 760 0000 7047     		bx	lr
 761              		.cfi_endproc
 762              	.LFE175:
 763              		.size	HAL_HCD_Connect_Callback, .-HAL_HCD_Connect_Callback
 764 0002 00BF     		.section	.text.HAL_HCD_Disconnect_Callback,"ax",%progbits
 765              		.align	1
 766              		.p2align 2,,3
 767              		.weak	HAL_HCD_Disconnect_Callback
 768              		.syntax unified
 769              		.thumb
 770              		.thumb_func
 771              		.type	HAL_HCD_Disconnect_Callback, %function
 772              	HAL_HCD_Disconnect_Callback:
 773              	.LFB177:
 774              		.cfi_startproc
 775              		@ args = 0, pretend = 0, frame = 0
 776              		@ frame_needed = 0, uses_anonymous_args = 0
 777              		@ link register save eliminated.
 778 0000 7047     		bx	lr
 779              		.cfi_endproc
 780              	.LFE177:
 781              		.size	HAL_HCD_Disconnect_Callback, .-HAL_HCD_Disconnect_Callback
 782 0002 00BF     		.section	.text.HAL_HCD_PortEnabled_Callback,"ax",%progbits
 783              		.align	1
 784              		.p2align 2,,3
 785              		.weak	HAL_HCD_PortEnabled_Callback
 786              		.syntax unified
 787              		.thumb
 788              		.thumb_func
 789              		.type	HAL_HCD_PortEnabled_Callback, %function
 790              	HAL_HCD_PortEnabled_Callback:
 791              	.LFB179:
 792              		.cfi_startproc
 793              		@ args = 0, pretend = 0, frame = 0
 794              		@ frame_needed = 0, uses_anonymous_args = 0
 795              		@ link register save eliminated.
 796 0000 7047     		bx	lr
 797              		.cfi_endproc
 798              	.LFE179:
ARM GAS  C:\Users\DEVELO~1\AppData\Local\Temp\ccmc7I4c.s 			page 15


 799              		.size	HAL_HCD_PortEnabled_Callback, .-HAL_HCD_PortEnabled_Callback
 800 0002 00BF     		.section	.text.HAL_HCD_PortDisabled_Callback,"ax",%progbits
 801              		.align	1
 802              		.p2align 2,,3
 803              		.weak	HAL_HCD_PortDisabled_Callback
 804              		.syntax unified
 805              		.thumb
 806              		.thumb_func
 807              		.type	HAL_HCD_PortDisabled_Callback, %function
 808              	HAL_HCD_PortDisabled_Callback:
 809              	.LFB181:
 810              		.cfi_startproc
 811              		@ args = 0, pretend = 0, frame = 0
 812              		@ frame_needed = 0, uses_anonymous_args = 0
 813              		@ link register save eliminated.
 814 0000 7047     		bx	lr
 815              		.cfi_endproc
 816              	.LFE181:
 817              		.size	HAL_HCD_PortDisabled_Callback, .-HAL_HCD_PortDisabled_Callback
 818 0002 00BF     		.section	.text.HAL_HCD_HC_NotifyURBChange_Callback,"ax",%progbits
 819              		.align	1
 820              		.p2align 2,,3
 821              		.weak	HAL_HCD_HC_NotifyURBChange_Callback
 822              		.syntax unified
 823              		.thumb
 824              		.thumb_func
 825              		.type	HAL_HCD_HC_NotifyURBChange_Callback, %function
 826              	HAL_HCD_HC_NotifyURBChange_Callback:
 827              	.LVL59:
 828              	.LFB154:
 829              		.loc 1 731 1 is_stmt 1 view -0
 830              		.cfi_startproc
 831              		@ args = 0, pretend = 0, frame = 0
 832              		@ frame_needed = 0, uses_anonymous_args = 0
 833              		@ link register save eliminated.
 834              		.loc 1 733 3 view .LVU233
 835              		.loc 1 734 3 view .LVU234
 836              		.loc 1 735 3 view .LVU235
 837              		.loc 1 740 1 is_stmt 0 view .LVU236
 838 0000 7047     		bx	lr
 839              		.cfi_endproc
 840              	.LFE154:
 841              		.size	HAL_HCD_HC_NotifyURBChange_Callback, .-HAL_HCD_HC_NotifyURBChange_Callback
 842 0002 00BF     		.section	.text.HAL_HCD_IRQHandler,"ax",%progbits
 843              		.align	1
 844              		.p2align 2,,3
 845              		.global	HAL_HCD_IRQHandler
 846              		.syntax unified
 847              		.thumb
 848              		.thumb_func
 849              		.type	HAL_HCD_IRQHandler, %function
 850              	HAL_HCD_IRQHandler:
 851              	.LVL60:
 852              	.LFB148:
 853              		.loc 1 523 1 is_stmt 1 view -0
 854              		.cfi_startproc
 855              		@ args = 0, pretend = 0, frame = 16
ARM GAS  C:\Users\DEVELO~1\AppData\Local\Temp\ccmc7I4c.s 			page 16


 856              		@ frame_needed = 0, uses_anonymous_args = 0
 857              		.loc 1 524 3 view .LVU238
 858              		.loc 1 523 1 is_stmt 0 view .LVU239
 859 0000 2DE9F04F 		push	{r4, r5, r6, r7, r8, r9, r10, fp, lr}
 860              		.cfi_def_cfa_offset 36
 861              		.cfi_offset 4, -36
 862              		.cfi_offset 5, -32
 863              		.cfi_offset 6, -28
 864              		.cfi_offset 7, -24
 865              		.cfi_offset 8, -20
 866              		.cfi_offset 9, -16
 867              		.cfi_offset 10, -12
 868              		.cfi_offset 11, -8
 869              		.cfi_offset 14, -4
 870              		.loc 1 524 26 view .LVU240
 871 0004 0568     		ldr	r5, [r0]
 872              	.LVL61:
 873              		.loc 1 525 3 is_stmt 1 view .LVU241
 874              		.loc 1 526 3 view .LVU242
 875              		.loc 1 527 3 view .LVU243
 876              		.loc 1 530 3 view .LVU244
 877              		.loc 1 523 1 is_stmt 0 view .LVU245
 878 0006 85B0     		sub	sp, sp, #20
 879              		.cfi_def_cfa_offset 56
 880              		.loc 1 523 1 view .LVU246
 881 0008 0446     		mov	r4, r0
 882              		.loc 1 530 7 view .LVU247
 883 000a 2846     		mov	r0, r5
 884              	.LVL62:
 885              		.loc 1 530 7 view .LVU248
 886 000c FFF7FEFF 		bl	USB_GetMode
 887              	.LVL63:
 888              		.loc 1 530 6 view .LVU249
 889 0010 0128     		cmp	r0, #1
 890 0012 02D0     		beq	.L281
 891              	.LVL64:
 892              	.L87:
 893              		.loc 1 637 1 view .LVU250
 894 0014 05B0     		add	sp, sp, #20
 895              		.cfi_remember_state
 896              		.cfi_def_cfa_offset 36
 897              		@ sp needed
 898 0016 BDE8F08F 		pop	{r4, r5, r6, r7, r8, r9, r10, fp, pc}
 899              	.LVL65:
 900              	.L281:
 901              		.cfi_restore_state
 902              		.loc 1 533 5 is_stmt 1 view .LVU251
 903              		.loc 1 533 9 is_stmt 0 view .LVU252
 904 001a 2068     		ldr	r0, [r4]
 905 001c FFF7FEFF 		bl	USB_ReadInterrupts
 906              	.LVL66:
 907              		.loc 1 533 8 view .LVU253
 908 0020 0028     		cmp	r0, #0
 909 0022 F7D0     		beq	.L87
 910              		.loc 1 538 5 is_stmt 1 view .LVU254
 911              		.loc 1 538 9 is_stmt 0 view .LVU255
 912 0024 2068     		ldr	r0, [r4]
ARM GAS  C:\Users\DEVELO~1\AppData\Local\Temp\ccmc7I4c.s 			page 17


 913 0026 FFF7FEFF 		bl	USB_ReadInterrupts
 914              	.LVL67:
 915              		.loc 1 538 8 view .LVU256
 916 002a 10F4001F 		tst	r0, #2097152
 917              		.loc 1 541 7 view .LVU257
 918 002e 2068     		ldr	r0, [r4]
 919              		.loc 1 538 8 view .LVU258
 920 0030 02D0     		beq	.L92
 921              		.loc 1 541 7 is_stmt 1 view .LVU259
 922 0032 4FF40013 		mov	r3, #2097152
 923 0036 4361     		str	r3, [r0, #20]
 924              	.L92:
 925              		.loc 1 544 5 view .LVU260
 926              		.loc 1 544 9 is_stmt 0 view .LVU261
 927 0038 FFF7FEFF 		bl	USB_ReadInterrupts
 928              	.LVL68:
 929              		.loc 1 544 8 view .LVU262
 930 003c 10F4801F 		tst	r0, #1048576
 931              		.loc 1 547 7 view .LVU263
 932 0040 2068     		ldr	r0, [r4]
 933              		.loc 1 544 8 view .LVU264
 934 0042 02D0     		beq	.L94
 935              		.loc 1 547 7 is_stmt 1 view .LVU265
 936 0044 4FF48013 		mov	r3, #1048576
 937 0048 4361     		str	r3, [r0, #20]
 938              	.L94:
 939              		.loc 1 550 5 view .LVU266
 940              		.loc 1 550 9 is_stmt 0 view .LVU267
 941 004a FFF7FEFF 		bl	USB_ReadInterrupts
 942              	.LVL69:
 943              		.loc 1 550 8 view .LVU268
 944 004e 10F0806F 		tst	r0, #67108864
 945              		.loc 1 553 7 view .LVU269
 946 0052 2068     		ldr	r0, [r4]
 947              		.loc 1 550 8 view .LVU270
 948 0054 02D0     		beq	.L96
 949              		.loc 1 553 7 is_stmt 1 view .LVU271
 950 0056 4FF08063 		mov	r3, #67108864
 951 005a 4361     		str	r3, [r0, #20]
 952              	.L96:
 953              		.loc 1 556 5 view .LVU272
 954              		.loc 1 556 9 is_stmt 0 view .LVU273
 955 005c FFF7FEFF 		bl	USB_ReadInterrupts
 956              	.LVL70:
 957              		.loc 1 556 8 view .LVU274
 958 0060 10F0020F 		tst	r0, #2
 959              		.loc 1 559 7 view .LVU275
 960 0064 2068     		ldr	r0, [r4]
 961              		.loc 1 556 8 view .LVU276
 962 0066 01D0     		beq	.L98
 963              		.loc 1 559 7 is_stmt 1 view .LVU277
 964 0068 0223     		movs	r3, #2
 965 006a 4361     		str	r3, [r0, #20]
 966              	.L98:
 967              		.loc 1 563 5 view .LVU278
 968              		.loc 1 563 9 is_stmt 0 view .LVU279
 969 006c FFF7FEFF 		bl	USB_ReadInterrupts
ARM GAS  C:\Users\DEVELO~1\AppData\Local\Temp\ccmc7I4c.s 			page 18


 970              	.LVL71:
 971              		.loc 1 563 8 view .LVU280
 972 0070 10F0005F 		tst	r0, #536870912
 973              		.loc 1 565 7 view .LVU281
 974 0074 2068     		ldr	r0, [r4]
 975              		.loc 1 563 8 view .LVU282
 976 0076 29D1     		bne	.L99
 977              	.L100:
 978              		.loc 1 589 5 is_stmt 1 view .LVU283
 979              		.loc 1 589 9 is_stmt 0 view .LVU284
 980 0078 FFF7FEFF 		bl	USB_ReadInterrupts
 981              	.LVL72:
 982              		.loc 1 589 8 view .LVU285
 983 007c C001     		lsls	r0, r0, #7
 984 007e 00F11E81 		bmi	.L282
 985              	.L102:
 986              		.loc 1 595 5 is_stmt 1 view .LVU286
 987              		.loc 1 595 9 is_stmt 0 view .LVU287
 988 0082 2068     		ldr	r0, [r4]
 989 0084 FFF7FEFF 		bl	USB_ReadInterrupts
 990              	.LVL73:
 991              		.loc 1 595 8 view .LVU288
 992 0088 0107     		lsls	r1, r0, #28
 993 008a 00F11181 		bmi	.L111
 994              		.loc 1 607 9 view .LVU289
 995 008e 2068     		ldr	r0, [r4]
 996              	.L112:
 997              		.loc 1 607 5 is_stmt 1 view .LVU290
 998              		.loc 1 607 9 is_stmt 0 view .LVU291
 999 0090 FFF7FEFF 		bl	USB_ReadInterrupts
 1000              	.LVL74:
 1001              		.loc 1 607 8 view .LVU292
 1002 0094 10F0007F 		tst	r0, #33554432
 1003              		.loc 1 609 19 view .LVU293
 1004 0098 2068     		ldr	r0, [r4]
 1005              		.loc 1 607 8 view .LVU294
 1006 009a 2ED1     		bne	.L113
 1007              	.LVL75:
 1008              	.L114:
 1009              		.loc 1 628 5 is_stmt 1 view .LVU295
 1010              		.loc 1 628 10 is_stmt 0 view .LVU296
 1011 009c FFF7FEFF 		bl	USB_ReadInterrupts
 1012              	.LVL76:
 1013              		.loc 1 628 60 view .LVU297
 1014 00a0 C306     		lsls	r3, r0, #27
 1015 00a2 B7D5     		bpl	.L87
 1016              		.loc 1 630 7 is_stmt 1 view .LVU298
 1017 00a4 2568     		ldr	r5, [r4]
 1018 00a6 AB69     		ldr	r3, [r5, #24]
 1019 00a8 23F01003 		bic	r3, r3, #16
 1020 00ac AB61     		str	r3, [r5, #24]
 1021              		.loc 1 632 7 view .LVU299
 1022              	.LVL77:
 1023              	.LBB16:
 1024              	.LBI16:
 1025              		.loc 1 1813 13 view .LVU300
 1026              	.LBB17:
ARM GAS  C:\Users\DEVELO~1\AppData\Local\Temp\ccmc7I4c.s 			page 19


 1027              		.loc 1 1815 3 view .LVU301
 1028              		.loc 1 1816 3 view .LVU302
 1029              		.loc 1 1817 3 view .LVU303
 1030              		.loc 1 1818 3 view .LVU304
 1031              		.loc 1 1819 3 view .LVU305
 1032              		.loc 1 1820 3 view .LVU306
 1033              		.loc 1 1821 3 view .LVU307
 1034              		.loc 1 1822 3 view .LVU308
 1035              		.loc 1 1824 3 view .LVU309
 1036              		.loc 1 1824 14 is_stmt 0 view .LVU310
 1037 00ae 2E6A     		ldr	r6, [r5, #32]
 1038              	.LVL78:
 1039              		.loc 1 1825 3 is_stmt 1 view .LVU311
 1040              		.loc 1 1826 3 view .LVU312
 1041              		.loc 1 1827 3 view .LVU313
 1042              		.loc 1 1826 10 is_stmt 0 view .LVU314
 1043 00b0 C6F34341 		ubfx	r1, r6, #17, #4
 1044              		.loc 1 1827 10 view .LVU315
 1045 00b4 C6F30A17 		ubfx	r7, r6, #4, #11
 1046              	.LVL79:
 1047              		.loc 1 1829 3 is_stmt 1 view .LVU316
 1048              		.loc 1 1833 7 view .LVU317
 1049              		.loc 1 1833 10 is_stmt 0 view .LVU318
 1050 00b8 0229     		cmp	r1, #2
 1051 00ba 02D1     		bne	.L191
 1052 00bc 002F     		cmp	r7, #0
 1053 00be 40F0A181 		bne	.L283
 1054              	.LVL80:
 1055              	.L191:
 1056              		.loc 1 1833 10 view .LVU319
 1057              	.LBE17:
 1058              	.LBE16:
 1059              		.loc 1 634 7 is_stmt 1 view .LVU320
 1060 00c2 AB69     		ldr	r3, [r5, #24]
 1061 00c4 43F01003 		orr	r3, r3, #16
 1062 00c8 AB61     		str	r3, [r5, #24]
 1063 00ca A3E7     		b	.L87
 1064              	.LVL81:
 1065              	.L99:
 1066              		.loc 1 565 7 view .LVU321
 1067 00cc 4FF00053 		mov	r3, #536870912
 1068 00d0 4361     		str	r3, [r0, #20]
 1069              		.loc 1 567 7 view .LVU322
 1070              		.loc 1 567 12 is_stmt 0 view .LVU323
 1071 00d2 D5F84034 		ldr	r3, [r5, #1088]
 1072              		.loc 1 567 10 view .LVU324
 1073 00d6 DE07     		lsls	r6, r3, #31
 1074 00d8 CED4     		bmi	.L100
 1075              		.loc 1 570 9 is_stmt 1 view .LVU325
 1076              		.loc 1 570 15 is_stmt 0 view .LVU326
 1077 00da 1021     		movs	r1, #16
 1078 00dc 2846     		mov	r0, r5
 1079 00de FFF7FEFF 		bl	USB_FlushTxFifo
 1080              	.LVL82:
 1081              		.loc 1 571 9 is_stmt 1 view .LVU327
 1082              		.loc 1 571 15 is_stmt 0 view .LVU328
 1083 00e2 2846     		mov	r0, r5
ARM GAS  C:\Users\DEVELO~1\AppData\Local\Temp\ccmc7I4c.s 			page 20


 1084 00e4 FFF7FEFF 		bl	USB_FlushRxFifo
 1085              	.LVL83:
 1086              		.loc 1 573 9 is_stmt 1 view .LVU329
 1087              		.loc 1 573 12 is_stmt 0 view .LVU330
 1088 00e8 637A     		ldrb	r3, [r4, #9]	@ zero_extendqisi2
 1089 00ea 022B     		cmp	r3, #2
 1090 00ec 00F0A382 		beq	.L284
 1091              	.L101:
 1092              		.loc 1 583 9 is_stmt 1 view .LVU331
 1093 00f0 2046     		mov	r0, r4
 1094 00f2 FFF7FEFF 		bl	HAL_HCD_Disconnect_Callback
 1095              	.LVL84:
 1096              		.loc 1 589 9 is_stmt 0 view .LVU332
 1097 00f6 2068     		ldr	r0, [r4]
 1098 00f8 BEE7     		b	.L100
 1099              	.L113:
 1100              		.loc 1 609 7 is_stmt 1 view .LVU333
 1101              		.loc 1 609 19 is_stmt 0 view .LVU334
 1102 00fa FFF7FEFF 		bl	USB_HC_ReadInterrupt
 1103              	.LVL85:
 1104              		.loc 1 610 22 view .LVU335
 1105 00fe 6379     		ldrb	r3, [r4, #5]	@ zero_extendqisi2
 1106              		.loc 1 609 19 view .LVU336
 1107 0100 8046     		mov	r8, r0
 1108              	.LVL86:
 1109              		.loc 1 610 7 is_stmt 1 view .LVU337
 1110              		.loc 1 610 22 view .LVU338
 1111 0102 002B     		cmp	r3, #0
 1112 0104 00F0CF80 		beq	.L190
 1113              		.loc 1 610 14 is_stmt 0 view .LVU339
 1114 0108 4FF0000B 		mov	fp, #0
 1115 010c 2646     		mov	r6, r4
 1116 010e 05F5A065 		add	r5, r5, #1280
 1117              	.LVL87:
 1118              	.LBB21:
 1119              	.LBB22:
 1120              		.loc 1 1778 35 view .LVU340
 1121 0112 4FF0040A 		mov	r10, #4
 1122 0116 2AE0     		b	.L189
 1123              	.LVL88:
 1124              	.L285:
 1125              		.loc 1 1778 35 view .LVU341
 1126              	.LBE22:
 1127              	.LBE21:
 1128              		.loc 1 616 13 is_stmt 1 view .LVU342
 1129              	.LBB36:
 1130              	.LBB37:
 1131              		.loc 1 1259 7 is_stmt 0 view .LVU343
 1132 0118 FFF7FEFF 		bl	USB_ReadChInterrupts
 1133              	.LVL89:
 1134              		.loc 1 1259 6 view .LVU344
 1135 011c 10F0040F 		tst	r0, #4
 1136 0120 0099     		ldr	r1, [sp]
 1137 0122 46D0     		beq	.L119
 1138              		.loc 1 1261 5 is_stmt 1 view .LVU345
 1139 0124 07F5A063 		add	r3, r7, #1280
 1140 0128 4B44     		add	r3, r3, r9
ARM GAS  C:\Users\DEVELO~1\AppData\Local\Temp\ccmc7I4c.s 			page 21


 1141 012a C3F808A0 		str	r10, [r3, #8]
 1142              		.loc 1 1262 5 view .LVU346
 1143              	.LVL90:
 1144              	.L270:
 1145              		.loc 1 1286 5 view .LVU347
 1146              		.loc 1 1286 27 is_stmt 0 view .LVU348
 1147 012e 0723     		movs	r3, #7
 1148 0130 86F84D30 		strb	r3, [r6, #77]
 1149              		.loc 1 1287 5 is_stmt 1 view .LVU349
 1150              		.loc 1 1287 11 is_stmt 0 view .LVU350
 1151 0134 2068     		ldr	r0, [r4]
 1152 0136 FFF7FEFF 		bl	USB_HC_Halt
 1153              	.LVL91:
 1154 013a 0099     		ldr	r1, [sp]
 1155              	.L120:
 1156              		.loc 1 1292 3 is_stmt 1 view .LVU351
 1157              		.loc 1 1294 3 view .LVU352
 1158              		.loc 1 1294 7 is_stmt 0 view .LVU353
 1159 013c 2068     		ldr	r0, [r4]
 1160 013e 0091     		str	r1, [sp]
 1161 0140 FFF7FEFF 		bl	USB_ReadChInterrupts
 1162              	.LVL92:
 1163              		.loc 1 1294 6 view .LVU354
 1164 0144 10F40073 		ands	r3, r0, #512
 1165 0148 0099     		ldr	r1, [sp]
 1166 014a 71D0     		beq	.L124
 1167              		.loc 1 1296 5 is_stmt 1 view .LVU355
 1168              		.loc 1 1297 5 is_stmt 0 view .LVU356
 1169 014c 07F5A067 		add	r7, r7, #1280
 1170              	.LVL93:
 1171              		.loc 1 1296 11 view .LVU357
 1172 0150 2068     		ldr	r0, [r4]
 1173 0152 FFF7FEFF 		bl	USB_HC_Halt
 1174              	.LVL94:
 1175              		.loc 1 1297 5 is_stmt 1 view .LVU358
 1176 0156 4FF40073 		mov	r3, #512
 1177 015a 4F44     		add	r7, r7, r9
 1178              	.LVL95:
 1179              		.loc 1 1297 5 is_stmt 0 view .LVU359
 1180 015c BB60     		str	r3, [r7, #8]
 1181              	.LVL96:
 1182              	.L117:
 1183              		.loc 1 1297 5 view .LVU360
 1184              	.LBE37:
 1185              	.LBE36:
 1186              		.loc 1 610 51 is_stmt 1 discriminator 2 view .LVU361
 1187 015e 0BF1010B 		add	fp, fp, #1
 1188              	.LVL97:
 1189              		.loc 1 610 22 discriminator 2 view .LVU362
 1190              		.loc 1 610 34 is_stmt 0 discriminator 2 view .LVU363
 1191 0162 6379     		ldrb	r3, [r4, #5]	@ zero_extendqisi2
 1192              		.loc 1 610 22 discriminator 2 view .LVU364
 1193 0164 3C36     		adds	r6, r6, #60
 1194 0166 2035     		adds	r5, r5, #32
 1195 0168 5B45     		cmp	r3, fp
 1196 016a 40F29C80 		bls	.L190
 1197              	.LVL98:
ARM GAS  C:\Users\DEVELO~1\AppData\Local\Temp\ccmc7I4c.s 			page 22


 1198              	.L189:
 1199              		.loc 1 612 9 is_stmt 1 view .LVU365
 1200              		.loc 1 612 37 is_stmt 0 view .LVU366
 1201 016e 0BF00F03 		and	r3, fp, #15
 1202              		.loc 1 612 47 view .LVU367
 1203 0172 28FA03F3 		lsr	r3, r8, r3
 1204              		.loc 1 612 12 view .LVU368
 1205 0176 DA07     		lsls	r2, r3, #31
 1206 0178 F1D5     		bpl	.L117
 1207              		.loc 1 614 11 is_stmt 1 view .LVU369
 1208              		.loc 1 614 26 is_stmt 0 view .LVU370
 1209 017a 2B68     		ldr	r3, [r5]
 1210 017c 5FFA8BF1 		uxtb	r1, fp
 1211              	.LVL99:
 1212              	.LBB54:
 1213              	.LBI36:
 1214              		.loc 1 1253 13 is_stmt 1 view .LVU371
 1215              	.LBB38:
 1216              		.loc 1 1255 3 view .LVU372
 1217              		.loc 1 1256 3 view .LVU373
 1218              		.loc 1 1255 32 is_stmt 0 view .LVU374
 1219 0180 2768     		ldr	r7, [r4]
 1220              	.LVL100:
 1221              		.loc 1 1257 3 is_stmt 1 view .LVU375
 1222              		.loc 1 1259 3 view .LVU376
 1223 0182 4FEA4B19 		lsl	r9, fp, #5
 1224              	.LBE38:
 1225              	.LBE54:
 1226              		.loc 1 614 14 is_stmt 0 view .LVU377
 1227 0186 1B04     		lsls	r3, r3, #16
 1228              	.LBB55:
 1229              	.LBB39:
 1230              		.loc 1 1259 7 view .LVU378
 1231 0188 0091     		str	r1, [sp]
 1232 018a 3846     		mov	r0, r7
 1233              	.LBE39:
 1234              	.LBE55:
 1235              		.loc 1 614 14 view .LVU379
 1236 018c C4D4     		bmi	.L285
 1237              		.loc 1 620 13 is_stmt 1 view .LVU380
 1238              	.LBB56:
 1239              	.LBB23:
 1240              		.loc 1 1579 7 is_stmt 0 view .LVU381
 1241 018e FFF7FEFF 		bl	USB_ReadChInterrupts
 1242              	.LVL101:
 1243              		.loc 1 1579 6 view .LVU382
 1244 0192 10F00403 		ands	r3, r0, #4
 1245 0196 0099     		ldr	r1, [sp]
 1246 0198 22D0     		beq	.L158
 1247              		.loc 1 1581 5 is_stmt 1 view .LVU383
 1248 019a 07F5A067 		add	r7, r7, #1280
 1249              	.LVL102:
 1250              		.loc 1 1582 27 is_stmt 0 view .LVU384
 1251 019e 0723     		movs	r3, #7
 1252              		.loc 1 1581 5 view .LVU385
 1253 01a0 4F44     		add	r7, r7, r9
 1254              	.LVL103:
ARM GAS  C:\Users\DEVELO~1\AppData\Local\Temp\ccmc7I4c.s 			page 23


 1255              		.loc 1 1581 5 view .LVU386
 1256 01a2 C7F808A0 		str	r10, [r7, #8]
 1257              		.loc 1 1582 5 is_stmt 1 view .LVU387
 1258              		.loc 1 1582 27 is_stmt 0 view .LVU388
 1259 01a6 86F84D30 		strb	r3, [r6, #77]
 1260              	.LVL104:
 1261              		.loc 1 1583 5 is_stmt 1 view .LVU389
 1262              		.loc 1 1583 11 is_stmt 0 view .LVU390
 1263 01aa 2068     		ldr	r0, [r4]
 1264 01ac FFF7FEFF 		bl	USB_HC_Halt
 1265              	.LVL105:
 1266 01b0 D5E7     		b	.L117
 1267              	.LVL106:
 1268              	.L119:
 1269              		.loc 1 1583 11 view .LVU391
 1270              	.LBE23:
 1271              	.LBE56:
 1272              	.LBB57:
 1273              	.LBB40:
 1274              		.loc 1 1265 8 is_stmt 1 view .LVU392
 1275              		.loc 1 1265 12 is_stmt 0 view .LVU393
 1276 01b2 2068     		ldr	r0, [r4]
 1277 01b4 0091     		str	r1, [sp]
 1278              	.LVL107:
 1279              		.loc 1 1265 12 view .LVU394
 1280 01b6 FFF7FEFF 		bl	USB_ReadChInterrupts
 1281              	.LVL108:
 1282              		.loc 1 1265 11 view .LVU395
 1283 01ba 10F4807F 		tst	r0, #256
 1284 01be 0099     		ldr	r1, [sp]
 1285 01c0 00F0B780 		beq	.L121
 1286              		.loc 1 1267 5 is_stmt 1 view .LVU396
 1287 01c4 07F5A063 		add	r3, r7, #1280
 1288 01c8 4FF48072 		mov	r2, #256
 1289 01cc 4B44     		add	r3, r3, r9
 1290 01ce 9A60     		str	r2, [r3, #8]
 1291              		.loc 1 1268 5 view .LVU397
 1292              		.loc 1 1268 27 is_stmt 0 view .LVU398
 1293 01d0 0823     		movs	r3, #8
 1294 01d2 86F84D30 		strb	r3, [r6, #77]
 1295              		.loc 1 1269 5 is_stmt 1 view .LVU399
 1296              		.loc 1 1269 11 is_stmt 0 view .LVU400
 1297 01d6 2068     		ldr	r0, [r4]
 1298 01d8 FFF7FEFF 		bl	USB_HC_Halt
 1299              	.LVL109:
 1300 01dc 0099     		ldr	r1, [sp]
 1301 01de ADE7     		b	.L120
 1302              	.LVL110:
 1303              	.L158:
 1304              		.loc 1 1269 11 view .LVU401
 1305              	.LBE40:
 1306              	.LBE57:
 1307              	.LBB58:
 1308              	.LBB24:
 1309              		.loc 1 1585 12 view .LVU402
 1310 01e0 2068     		ldr	r0, [r4]
 1311 01e2 CDE90013 		strd	r1, r3, [sp]
ARM GAS  C:\Users\DEVELO~1\AppData\Local\Temp\ccmc7I4c.s 			page 24


 1312              	.LVL111:
 1313              		.loc 1 1585 12 view .LVU403
 1314 01e6 FFF7FEFF 		bl	USB_ReadChInterrupts
 1315              	.LVL112:
 1316              		.loc 1 1585 11 view .LVU404
 1317 01ea 10F0200F 		tst	r0, #32
 1318 01ee 0099     		ldr	r1, [sp]
 1319 01f0 00F0CE80 		beq	.L159
 1320              		.loc 1 1587 5 is_stmt 1 view .LVU405
 1321 01f4 07F5A067 		add	r7, r7, #1280
 1322              	.LVL113:
 1323              		.loc 1 1587 5 is_stmt 0 view .LVU406
 1324 01f8 2022     		movs	r2, #32
 1325              		.loc 1 1589 8 view .LVU407
 1326 01fa 019B     		ldr	r3, [sp, #4]
 1327              		.loc 1 1587 5 view .LVU408
 1328 01fc 4F44     		add	r7, r7, r9
 1329              	.LVL114:
 1330              		.loc 1 1587 5 view .LVU409
 1331 01fe BA60     		str	r2, [r7, #8]
 1332              		.loc 1 1589 5 is_stmt 1 view .LVU410
 1333              		.loc 1 1589 8 is_stmt 0 view .LVU411
 1334 0200 727E     		ldrb	r2, [r6, #25]	@ zero_extendqisi2
 1335 0202 012A     		cmp	r2, #1
 1336 0204 00F05681 		beq	.L286
 1337              	.L160:
 1338              		.loc 1 1597 5 is_stmt 1 view .LVU412
 1339              		.loc 1 1597 8 is_stmt 0 view .LVU413
 1340 0208 B37E     		ldrb	r3, [r6, #26]	@ zero_extendqisi2
 1341 020a 012B     		cmp	r3, #1
 1342 020c A7D1     		bne	.L117
 1343              		.loc 1 1597 43 view .LVU414
 1344 020e F27E     		ldrb	r2, [r6, #27]	@ zero_extendqisi2
 1345 0210 002A     		cmp	r2, #0
 1346 0212 A4D1     		bne	.L117
 1347              		.loc 1 1599 7 is_stmt 1 view .LVU415
 1348              		.loc 1 1599 10 is_stmt 0 view .LVU416
 1349 0214 96F82620 		ldrb	r2, [r6, #38]	@ zero_extendqisi2
 1350 0218 012A     		cmp	r2, #1
 1351              		.loc 1 1601 9 is_stmt 1 view .LVU417
 1352              		.loc 1 1604 7 view .LVU418
 1353              		.loc 1 1601 35 is_stmt 0 view .LVU419
 1354 021a 18BF     		it	ne
 1355 021c F376     		strbne	r3, [r6, #27]
 1356              		.loc 1 1604 29 view .LVU420
 1357 021e 0323     		movs	r3, #3
 1358 0220 86F84D30 		strb	r3, [r6, #77]
 1359              		.loc 1 1605 7 is_stmt 1 view .LVU421
 1360              		.loc 1 1605 13 is_stmt 0 view .LVU422
 1361 0224 2068     		ldr	r0, [r4]
 1362 0226 FFF7FEFF 		bl	USB_HC_Halt
 1363              	.LVL115:
 1364              		.loc 1 1608 7 is_stmt 1 view .LVU423
 1365              		.loc 1 1608 30 is_stmt 0 view .LVU424
 1366 022a 0023     		movs	r3, #0
 1367 022c 7364     		str	r3, [r6, #68]
 1368 022e 96E7     		b	.L117
ARM GAS  C:\Users\DEVELO~1\AppData\Local\Temp\ccmc7I4c.s 			page 25


 1369              	.LVL116:
 1370              	.L124:
 1371              		.loc 1 1608 30 view .LVU425
 1372              	.LBE24:
 1373              	.LBE58:
 1374              	.LBB59:
 1375              	.LBB41:
 1376              		.loc 1 1299 12 view .LVU426
 1377 0230 2068     		ldr	r0, [r4]
 1378 0232 CDE90013 		strd	r1, r3, [sp]
 1379 0236 FFF7FEFF 		bl	USB_ReadChInterrupts
 1380              	.LVL117:
 1381              		.loc 1 1299 11 view .LVU427
 1382 023a 10F0010F 		tst	r0, #1
 1383 023e 0099     		ldr	r1, [sp]
 1384 0240 00F08C80 		beq	.L125
 1385              		.loc 1 1302 5 is_stmt 1 view .LVU428
 1386 0244 07F5A060 		add	r0, r7, #1280
 1387 0248 2022     		movs	r2, #32
 1388              		.loc 1 1304 8 is_stmt 0 view .LVU429
 1389 024a 019B     		ldr	r3, [sp, #4]
 1390              		.loc 1 1302 5 view .LVU430
 1391 024c 00EB0907 		add	r7, r0, r9
 1392              	.LVL118:
 1393              		.loc 1 1302 5 view .LVU431
 1394 0250 BA60     		str	r2, [r7, #8]
 1395              		.loc 1 1304 5 is_stmt 1 view .LVU432
 1396              		.loc 1 1304 8 is_stmt 0 view .LVU433
 1397 0252 F27E     		ldrb	r2, [r6, #27]	@ zero_extendqisi2
 1398 0254 012A     		cmp	r2, #1
 1399 0256 04D1     		bne	.L126
 1400              		.loc 1 1306 7 is_stmt 1 view .LVU434
 1401              		.loc 1 1306 33 is_stmt 0 view .LVU435
 1402 0258 F376     		strb	r3, [r6, #27]
 1403              		.loc 1 1307 7 is_stmt 1 view .LVU436
 1404 025a 7B68     		ldr	r3, [r7, #4]
 1405 025c 23F48033 		bic	r3, r3, #65536
 1406 0260 7B60     		str	r3, [r7, #4]
 1407              	.L126:
 1408              		.loc 1 1310 5 view .LVU437
 1409              		.loc 1 1310 19 is_stmt 0 view .LVU438
 1410 0262 A279     		ldrb	r2, [r4, #6]	@ zero_extendqisi2
 1411              		.loc 1 1310 8 view .LVU439
 1412 0264 32B1     		cbz	r2, .L127
 1413              		.loc 1 1312 7 is_stmt 1 view .LVU440
 1414              		.loc 1 1312 78 is_stmt 0 view .LVU441
 1415 0266 3B69     		ldr	r3, [r7, #16]
 1416              		.loc 1 1312 87 view .LVU442
 1417 0268 C3F3120C 		ubfx	ip, r3, #0, #19
 1418              		.loc 1 1312 61 view .LVU443
 1419 026c 336B     		ldr	r3, [r6, #48]
 1420 026e A3EB0C03 		sub	r3, r3, ip
 1421              		.loc 1 1312 34 view .LVU444
 1422 0272 B363     		str	r3, [r6, #56]
 1423              	.L127:
 1424              		.loc 1 1315 5 is_stmt 1 view .LVU445
 1425              		.loc 1 1316 28 is_stmt 0 view .LVU446
ARM GAS  C:\Users\DEVELO~1\AppData\Local\Temp\ccmc7I4c.s 			page 26


 1426 0274 0023     		movs	r3, #0
 1427 0276 7364     		str	r3, [r6, #68]
 1428              		.loc 1 1315 27 view .LVU447
 1429 0278 0123     		movs	r3, #1
 1430 027a 86F84D30 		strb	r3, [r6, #77]
 1431              		.loc 1 1316 5 is_stmt 1 view .LVU448
 1432              		.loc 1 1317 5 view .LVU449
 1433 027e BB60     		str	r3, [r7, #8]
 1434              		.loc 1 1319 5 view .LVU450
 1435              		.loc 1 1319 51 is_stmt 0 view .LVU451
 1436 0280 96F82630 		ldrb	r3, [r6, #38]	@ zero_extendqisi2
 1437              		.loc 1 1319 8 view .LVU452
 1438 0284 13F0FD03 		ands	r3, r3, #253
 1439 0288 00F0B580 		beq	.L287
 1440              		.loc 1 1325 10 is_stmt 1 view .LVU453
 1441              		.loc 1 1325 13 is_stmt 0 view .LVU454
 1442 028c 012B     		cmp	r3, #1
 1443 028e 00F00381 		beq	.L288
 1444              	.LVL119:
 1445              	.L129:
 1446              		.loc 1 1340 5 is_stmt 1 view .LVU455
 1447              		.loc 1 1342 5 view .LVU456
 1448              		.loc 1 1342 8 is_stmt 0 view .LVU457
 1449 0292 012A     		cmp	r2, #1
 1450 0294 00F0A580 		beq	.L289
 1451              	.L130:
 1452              		.loc 1 1351 7 is_stmt 1 view .LVU458
 1453              		.loc 1 1351 33 is_stmt 0 view .LVU459
 1454 0298 96F83C30 		ldrb	r3, [r6, #60]	@ zero_extendqisi2
 1455 029c 83F00103 		eor	r3, r3, #1
 1456 02a0 86F83C30 		strb	r3, [r6, #60]
 1457 02a4 5BE7     		b	.L117
 1458              	.LVL120:
 1459              	.L190:
 1460              		.loc 1 1351 33 view .LVU460
 1461              	.LBE41:
 1462              	.LBE59:
 1463              		.loc 1 624 7 is_stmt 1 view .LVU461
 1464 02a6 2068     		ldr	r0, [r4]
 1465 02a8 4FF00073 		mov	r3, #33554432
 1466 02ac 4361     		str	r3, [r0, #20]
 1467 02ae F5E6     		b	.L114
 1468              	.LVL121:
 1469              	.L111:
 1470              		.loc 1 600 7 view .LVU462
 1471 02b0 2046     		mov	r0, r4
 1472 02b2 FFF7FEFF 		bl	HAL_HCD_SOF_Callback
 1473              	.LVL122:
 1474              		.loc 1 603 7 view .LVU463
 1475 02b6 2068     		ldr	r0, [r4]
 1476 02b8 0823     		movs	r3, #8
 1477 02ba 4361     		str	r3, [r0, #20]
 1478 02bc E8E6     		b	.L112
 1479              	.L282:
 1480              		.loc 1 591 7 view .LVU464
 1481              	.LVL123:
 1482              	.LBB60:
ARM GAS  C:\Users\DEVELO~1\AppData\Local\Temp\ccmc7I4c.s 			page 27


 1483              	.LBI60:
 1484              		.loc 1 1879 13 view .LVU465
 1485              	.LBB61:
 1486              		.loc 1 1881 3 view .LVU466
 1487              		.loc 1 1882 3 view .LVU467
 1488              		.loc 1 1882 12 is_stmt 0 view .LVU468
 1489 02be 2668     		ldr	r6, [r4]
 1490              	.LVL124:
 1491              		.loc 1 1883 3 is_stmt 1 view .LVU469
 1492              		.loc 1 1884 3 view .LVU470
 1493              		.loc 1 1887 3 view .LVU471
 1494              		.loc 1 1887 11 is_stmt 0 view .LVU472
 1495 02c0 D6F84034 		ldr	r3, [r6, #1088]
 1496              		.loc 1 1887 9 view .LVU473
 1497 02c4 0293     		str	r3, [sp, #8]
 1498              		.loc 1 1888 3 is_stmt 1 view .LVU474
 1499              		.loc 1 1888 15 is_stmt 0 view .LVU475
 1500 02c6 D6F84034 		ldr	r3, [r6, #1088]
 1501              		.loc 1 1888 13 view .LVU476
 1502 02ca 0393     		str	r3, [sp, #12]
 1503              		.loc 1 1890 3 is_stmt 1 view .LVU477
 1504              		.loc 1 1890 13 is_stmt 0 view .LVU478
 1505 02cc 039B     		ldr	r3, [sp, #12]
 1506 02ce 23F02E03 		bic	r3, r3, #46
 1507 02d2 0393     		str	r3, [sp, #12]
 1508              		.loc 1 1894 3 is_stmt 1 view .LVU479
 1509              		.loc 1 1894 14 is_stmt 0 view .LVU480
 1510 02d4 029B     		ldr	r3, [sp, #8]
 1511              		.loc 1 1894 6 view .LVU481
 1512 02d6 9907     		lsls	r1, r3, #30
 1513 02d8 07D5     		bpl	.L103
 1514              		.loc 1 1896 5 is_stmt 1 view .LVU482
 1515              		.loc 1 1896 16 is_stmt 0 view .LVU483
 1516 02da 029B     		ldr	r3, [sp, #8]
 1517              		.loc 1 1896 8 view .LVU484
 1518 02dc DA07     		lsls	r2, r3, #31
 1519 02de 00F1AC80 		bmi	.L290
 1520              	.LVL125:
 1521              	.L104:
 1522              		.loc 1 1904 5 is_stmt 1 view .LVU485
 1523              		.loc 1 1904 15 is_stmt 0 view .LVU486
 1524 02e2 039B     		ldr	r3, [sp, #12]
 1525 02e4 43F00203 		orr	r3, r3, #2
 1526 02e8 0393     		str	r3, [sp, #12]
 1527              	.L103:
 1528              		.loc 1 1908 3 is_stmt 1 view .LVU487
 1529              		.loc 1 1908 14 is_stmt 0 view .LVU488
 1530 02ea 029B     		ldr	r3, [sp, #8]
 1531              		.loc 1 1908 6 view .LVU489
 1532 02ec 1B07     		lsls	r3, r3, #28
 1533 02ee 15D5     		bpl	.L105
 1534              		.loc 1 1910 5 is_stmt 1 view .LVU490
 1535              		.loc 1 1910 15 is_stmt 0 view .LVU491
 1536 02f0 039B     		ldr	r3, [sp, #12]
 1537 02f2 43F00803 		orr	r3, r3, #8
 1538 02f6 0393     		str	r3, [sp, #12]
 1539              		.loc 1 1912 5 is_stmt 1 view .LVU492
ARM GAS  C:\Users\DEVELO~1\AppData\Local\Temp\ccmc7I4c.s 			page 28


 1540              		.loc 1 1912 16 is_stmt 0 view .LVU493
 1541 02f8 029B     		ldr	r3, [sp, #8]
 1542              		.loc 1 1912 8 view .LVU494
 1543 02fa 5F07     		lsls	r7, r3, #29
 1544 02fc 40F19980 		bpl	.L106
 1545              		.loc 1 1914 7 is_stmt 1 view .LVU495
 1546              		.loc 1 1914 10 is_stmt 0 view .LVU496
 1547 0300 617A     		ldrb	r1, [r4, #9]	@ zero_extendqisi2
 1548 0302 0229     		cmp	r1, #2
 1549 0304 00F0F280 		beq	.L291
 1550              		.loc 1 1927 9 is_stmt 1 view .LVU497
 1551              		.loc 1 1927 12 is_stmt 0 view .LVU498
 1552 0308 E379     		ldrb	r3, [r4, #7]	@ zero_extendqisi2
 1553 030a 012B     		cmp	r3, #1
 1554 030c 03D1     		bne	.L109
 1555              		.loc 1 1929 11 is_stmt 1 view .LVU499
 1556              		.loc 1 1929 27 is_stmt 0 view .LVU500
 1557 030e 4EF66022 		movw	r2, #60000
 1558 0312 C6F80424 		str	r2, [r6, #1028]
 1559              	.L109:
 1560              		.loc 1 1935 7 is_stmt 1 view .LVU501
 1561 0316 2046     		mov	r0, r4
 1562 0318 FFF7FEFF 		bl	HAL_HCD_PortEnabled_Callback
 1563              	.LVL126:
 1564              	.L105:
 1565              		.loc 1 1950 3 view .LVU502
 1566              		.loc 1 1950 14 is_stmt 0 view .LVU503
 1567 031c 029B     		ldr	r3, [sp, #8]
 1568              		.loc 1 1950 6 view .LVU504
 1569 031e 9806     		lsls	r0, r3, #26
 1570 0320 03D5     		bpl	.L110
 1571              		.loc 1 1952 5 is_stmt 1 view .LVU505
 1572              		.loc 1 1952 15 is_stmt 0 view .LVU506
 1573 0322 039B     		ldr	r3, [sp, #12]
 1574 0324 43F02003 		orr	r3, r3, #32
 1575 0328 0393     		str	r3, [sp, #12]
 1576              	.L110:
 1577              		.loc 1 1956 3 is_stmt 1 view .LVU507
 1578              		.loc 1 1956 14 is_stmt 0 view .LVU508
 1579 032a 039B     		ldr	r3, [sp, #12]
 1580 032c C6F84034 		str	r3, [r6, #1088]
 1581              		.loc 1 1957 1 view .LVU509
 1582 0330 A7E6     		b	.L102
 1583              	.LVL127:
 1584              	.L121:
 1585              		.loc 1 1957 1 view .LVU510
 1586              	.LBE61:
 1587              	.LBE60:
 1588              	.LBB64:
 1589              	.LBB42:
 1590              		.loc 1 1271 8 is_stmt 1 view .LVU511
 1591              		.loc 1 1271 12 is_stmt 0 view .LVU512
 1592 0332 2068     		ldr	r0, [r4]
 1593 0334 0091     		str	r1, [sp]
 1594 0336 FFF7FEFF 		bl	USB_ReadChInterrupts
 1595              	.LVL128:
 1596              		.loc 1 1271 11 view .LVU513
ARM GAS  C:\Users\DEVELO~1\AppData\Local\Temp\ccmc7I4c.s 			page 29


 1597 033a 10F0080F 		tst	r0, #8
 1598 033e 0099     		ldr	r1, [sp]
 1599 0340 38D0     		beq	.L122
 1600              		.loc 1 1273 5 is_stmt 1 view .LVU514
 1601 0342 07F5A063 		add	r3, r7, #1280
 1602 0346 0822     		movs	r2, #8
 1603 0348 4B44     		add	r3, r3, r9
 1604 034a 9A60     		str	r2, [r3, #8]
 1605              		.loc 1 1274 5 view .LVU515
 1606              		.loc 1 1274 27 is_stmt 0 view .LVU516
 1607 034c 0623     		movs	r3, #6
 1608 034e 86F84D30 		strb	r3, [r6, #77]
 1609              		.loc 1 1275 5 is_stmt 1 view .LVU517
 1610              		.loc 1 1275 11 is_stmt 0 view .LVU518
 1611 0352 2068     		ldr	r0, [r4]
 1612 0354 FFF7FEFF 		bl	USB_HC_Halt
 1613              	.LVL129:
 1614 0358 0099     		ldr	r1, [sp]
 1615 035a EFE6     		b	.L120
 1616              	.L125:
 1617              		.loc 1 1354 8 is_stmt 1 view .LVU519
 1618              		.loc 1 1354 12 is_stmt 0 view .LVU520
 1619 035c 2068     		ldr	r0, [r4]
 1620 035e 0091     		str	r1, [sp]
 1621 0360 FFF7FEFF 		bl	USB_ReadChInterrupts
 1622              	.LVL130:
 1623              		.loc 1 1354 11 view .LVU521
 1624 0364 10F0200F 		tst	r0, #32
 1625 0368 0099     		ldr	r1, [sp]
 1626 036a 00F0CA80 		beq	.L132
 1627              		.loc 1 1356 5 is_stmt 1 view .LVU522
 1628 036e 07F5A063 		add	r3, r7, #1280
 1629 0372 2022     		movs	r2, #32
 1630 0374 4B44     		add	r3, r3, r9
 1631 0376 9A60     		str	r2, [r3, #8]
 1632              		.loc 1 1358 5 view .LVU523
 1633              		.loc 1 1358 8 is_stmt 0 view .LVU524
 1634 0378 B37E     		ldrb	r3, [r6, #26]	@ zero_extendqisi2
 1635 037a 012B     		cmp	r3, #1
 1636 037c 7FF4EFAE 		bne	.L117
 1637              		.loc 1 1360 7 is_stmt 1 view .LVU525
 1638              		.loc 1 1360 33 is_stmt 0 view .LVU526
 1639 0380 F376     		strb	r3, [r6, #27]
 1640              		.loc 1 1361 7 is_stmt 1 view .LVU527
 1641              		.loc 1 1361 29 is_stmt 0 view .LVU528
 1642 0382 0323     		movs	r3, #3
 1643 0384 86F84D30 		strb	r3, [r6, #77]
 1644              		.loc 1 1363 7 is_stmt 1 view .LVU529
 1645              		.loc 1 1363 13 is_stmt 0 view .LVU530
 1646 0388 2068     		ldr	r0, [r4]
 1647 038a FFF7FEFF 		bl	USB_HC_Halt
 1648              	.LVL131:
 1649 038e E6E6     		b	.L117
 1650              	.L159:
 1651              		.loc 1 1363 13 view .LVU531
 1652              	.LBE42:
 1653              	.LBE64:
ARM GAS  C:\Users\DEVELO~1\AppData\Local\Temp\ccmc7I4c.s 			page 30


 1654              	.LBB65:
 1655              	.LBB25:
 1656              		.loc 1 1611 8 is_stmt 1 view .LVU532
 1657              		.loc 1 1611 12 is_stmt 0 view .LVU533
 1658 0390 2068     		ldr	r0, [r4]
 1659 0392 0091     		str	r1, [sp]
 1660 0394 FFF7FEFF 		bl	USB_ReadChInterrupts
 1661              	.LVL132:
 1662              		.loc 1 1611 11 view .LVU534
 1663 0398 10F40073 		ands	r3, r0, #512
 1664 039c 0099     		ldr	r1, [sp]
 1665 039e 50D0     		beq	.L162
 1666              		.loc 1 1613 5 is_stmt 1 view .LVU535
 1667 03a0 07F5A063 		add	r3, r7, #1280
 1668 03a4 4FF40072 		mov	r2, #512
 1669              		.loc 1 1614 11 is_stmt 0 view .LVU536
 1670 03a8 2068     		ldr	r0, [r4]
 1671              		.loc 1 1613 5 view .LVU537
 1672 03aa 4B44     		add	r3, r3, r9
 1673 03ac 9A60     		str	r2, [r3, #8]
 1674              		.loc 1 1614 5 is_stmt 1 view .LVU538
 1675              		.loc 1 1614 11 is_stmt 0 view .LVU539
 1676 03ae FFF7FEFF 		bl	USB_HC_Halt
 1677              	.LVL133:
 1678 03b2 D4E6     		b	.L117
 1679              	.L122:
 1680              		.loc 1 1614 11 view .LVU540
 1681              	.LBE25:
 1682              	.LBE65:
 1683              	.LBB66:
 1684              	.LBB43:
 1685              		.loc 1 1277 8 is_stmt 1 view .LVU541
 1686              		.loc 1 1277 12 is_stmt 0 view .LVU542
 1687 03b4 2068     		ldr	r0, [r4]
 1688 03b6 0091     		str	r1, [sp]
 1689 03b8 FFF7FEFF 		bl	USB_ReadChInterrupts
 1690              	.LVL134:
 1691              		.loc 1 1277 11 view .LVU543
 1692 03bc 10F4806F 		tst	r0, #1024
 1693 03c0 0099     		ldr	r1, [sp]
 1694 03c2 00F08480 		beq	.L123
 1695              		.loc 1 1279 5 is_stmt 1 view .LVU544
 1696 03c6 07F5A063 		add	r3, r7, #1280
 1697 03ca 4FF48062 		mov	r2, #1024
 1698 03ce 4B44     		add	r3, r3, r9
 1699 03d0 9A60     		str	r2, [r3, #8]
 1700              		.loc 1 1280 5 view .LVU545
 1701              		.loc 1 1280 27 is_stmt 0 view .LVU546
 1702 03d2 0923     		movs	r3, #9
 1703 03d4 86F84D30 		strb	r3, [r6, #77]
 1704              		.loc 1 1281 5 is_stmt 1 view .LVU547
 1705              		.loc 1 1281 11 is_stmt 0 view .LVU548
 1706 03d8 2068     		ldr	r0, [r4]
 1707 03da FFF7FEFF 		bl	USB_HC_Halt
 1708              	.LVL135:
 1709 03de 0099     		ldr	r1, [sp]
 1710 03e0 ACE6     		b	.L120
ARM GAS  C:\Users\DEVELO~1\AppData\Local\Temp\ccmc7I4c.s 			page 31


 1711              	.LVL136:
 1712              	.L289:
 1713              		.loc 1 1344 7 is_stmt 1 view .LVU549
 1714              		.loc 1 1344 70 is_stmt 0 view .LVU550
 1715 03e2 B36B     		ldr	r3, [r6, #56]
 1716              		.loc 1 1344 58 view .LVU551
 1717 03e4 328D     		ldrh	r2, [r6, #40]
 1718              		.loc 1 1344 70 view .LVU552
 1719 03e6 013B     		subs	r3, r3, #1
 1720 03e8 1344     		add	r3, r3, r2
 1721              		.loc 1 1344 76 view .LVU553
 1722 03ea B3FBF2F3 		udiv	r3, r3, r2
 1723              		.loc 1 1344 10 view .LVU554
 1724 03ee DF07     		lsls	r7, r3, #31
 1725 03f0 7FF5B5AE 		bpl	.L117
 1726 03f4 50E7     		b	.L130
 1727              	.LVL137:
 1728              	.L287:
 1729              		.loc 1 1322 7 is_stmt 1 view .LVU555
 1730              		.loc 1 1322 13 is_stmt 0 view .LVU556
 1731 03f6 2068     		ldr	r0, [r4]
 1732              	.LVL138:
 1733              		.loc 1 1322 13 view .LVU557
 1734 03f8 FFF7FEFF 		bl	USB_HC_Halt
 1735              	.LVL139:
 1736              		.loc 1 1323 7 is_stmt 1 view .LVU558
 1737 03fc 1023     		movs	r3, #16
 1738 03fe BB60     		str	r3, [r7, #8]
 1739              		.loc 1 1342 19 is_stmt 0 view .LVU559
 1740 0400 A279     		ldrb	r2, [r4, #6]	@ zero_extendqisi2
 1741 0402 46E7     		b	.L129
 1742              	.LVL140:
 1743              	.L283:
 1744              		.loc 1 1342 19 view .LVU560
 1745              	.LBE43:
 1746              	.LBE66:
 1747              	.LBB67:
 1748              	.LBB18:
 1749              		.loc 1 1825 9 view .LVU561
 1750 0404 06F00F06 		and	r6, r6, #15
 1751              	.LVL141:
 1752              		.loc 1 1833 44 view .LVU562
 1753 0408 C6EB0611 		rsb	r1, r6, r6, lsl #4
 1754 040c 04EB8108 		add	r8, r4, r1, lsl #2
 1755 0410 D8F82C10 		ldr	r1, [r8, #44]
 1756              		.loc 1 1833 25 view .LVU563
 1757 0414 0029     		cmp	r1, #0
 1758 0416 3FF454AE 		beq	.L191
 1759              		.loc 1 1835 9 is_stmt 1 view .LVU564
 1760              		.loc 1 1835 41 is_stmt 0 view .LVU565
 1761 041a D8F83800 		ldr	r0, [r8, #56]
 1762              		.loc 1 1835 12 view .LVU566
 1763 041e D8F83430 		ldr	r3, [r8, #52]
 1764              		.loc 1 1835 41 view .LVU567
 1765 0422 3844     		add	r0, r0, r7
 1766              		.loc 1 1835 12 view .LVU568
 1767 0424 9842     		cmp	r0, r3
ARM GAS  C:\Users\DEVELO~1\AppData\Local\Temp\ccmc7I4c.s 			page 32


 1768 0426 40F22581 		bls	.L292
 1769              		.loc 1 1859 11 is_stmt 1 view .LVU569
 1770              		.loc 1 1859 37 is_stmt 0 view .LVU570
 1771 042a 0423     		movs	r3, #4
 1772 042c 88F84C30 		strb	r3, [r8, #76]
 1773 0430 47E6     		b	.L191
 1774              	.LVL142:
 1775              	.L106:
 1776              		.loc 1 1859 37 view .LVU571
 1777              	.LBE18:
 1778              	.LBE67:
 1779              	.LBB68:
 1780              	.LBB62:
 1781              		.loc 1 1944 7 is_stmt 1 view .LVU572
 1782 0432 2046     		mov	r0, r4
 1783 0434 FFF7FEFF 		bl	HAL_HCD_PortDisabled_Callback
 1784              	.LVL143:
 1785 0438 70E7     		b	.L105
 1786              	.L290:
 1787              		.loc 1 1901 7 view .LVU573
 1788 043a 2046     		mov	r0, r4
 1789 043c FFF7FEFF 		bl	HAL_HCD_Connect_Callback
 1790              	.LVL144:
 1791 0440 4FE7     		b	.L104
 1792              	.LVL145:
 1793              	.L162:
 1794              		.loc 1 1901 7 is_stmt 0 view .LVU574
 1795              	.LBE62:
 1796              	.LBE68:
 1797              	.LBB69:
 1798              	.LBB26:
 1799              		.loc 1 1616 12 view .LVU575
 1800 0442 2068     		ldr	r0, [r4]
 1801 0444 CDE90013 		strd	r1, r3, [sp]
 1802 0448 FFF7FEFF 		bl	USB_ReadChInterrupts
 1803              	.LVL146:
 1804              		.loc 1 1616 11 view .LVU576
 1805 044c 10F0010F 		tst	r0, #1
 1806 0450 0099     		ldr	r1, [sp]
 1807 0452 00F0F580 		beq	.L163
 1808              		.loc 1 1618 5 is_stmt 1 view .LVU577
 1809              		.loc 1 1618 28 is_stmt 0 view .LVU578
 1810 0456 019B     		ldr	r3, [sp, #4]
 1811              		.loc 1 1621 9 view .LVU579
 1812 0458 2068     		ldr	r0, [r4]
 1813              		.loc 1 1618 28 view .LVU580
 1814 045a 7364     		str	r3, [r6, #68]
 1815              		.loc 1 1621 5 is_stmt 1 view .LVU581
 1816              		.loc 1 1621 9 is_stmt 0 view .LVU582
 1817 045c FFF7FEFF 		bl	USB_ReadChInterrupts
 1818              	.LVL147:
 1819              		.loc 1 1624 7 view .LVU583
 1820 0460 07F5A063 		add	r3, r7, #1280
 1821              		.loc 1 1621 8 view .LVU584
 1822 0464 10F0400F 		tst	r0, #64
 1823 0468 0099     		ldr	r1, [sp]
 1824              		.loc 1 1624 7 view .LVU585
ARM GAS  C:\Users\DEVELO~1\AppData\Local\Temp\ccmc7I4c.s 			page 33


 1825 046a 4B44     		add	r3, r3, r9
 1826              		.loc 1 1621 8 view .LVU586
 1827 046c 03D0     		beq	.L165
 1828              		.loc 1 1623 7 is_stmt 1 view .LVU587
 1829              		.loc 1 1623 31 is_stmt 0 view .LVU588
 1830 046e 0122     		movs	r2, #1
 1831 0470 7276     		strb	r2, [r6, #25]
 1832              		.loc 1 1624 7 is_stmt 1 view .LVU589
 1833 0472 4022     		movs	r2, #64
 1834 0474 9A60     		str	r2, [r3, #8]
 1835              	.L165:
 1836              		.loc 1 1627 5 view .LVU590
 1837              		.loc 1 1627 8 is_stmt 0 view .LVU591
 1838 0476 F27E     		ldrb	r2, [r6, #27]	@ zero_extendqisi2
 1839 0478 32B1     		cbz	r2, .L166
 1840              		.loc 1 1629 7 is_stmt 1 view .LVU592
 1841              		.loc 1 1629 33 is_stmt 0 view .LVU593
 1842 047a 4FF00002 		mov	r2, #0
 1843 047e F276     		strb	r2, [r6, #27]
 1844              		.loc 1 1630 7 is_stmt 1 view .LVU594
 1845 0480 5A68     		ldr	r2, [r3, #4]
 1846 0482 22F48032 		bic	r2, r2, #65536
 1847 0486 5A60     		str	r2, [r3, #4]
 1848              	.L166:
 1849              		.loc 1 1633 5 view .LVU595
 1850 0488 0122     		movs	r2, #1
 1851 048a 9A60     		str	r2, [r3, #8]
 1852              		.loc 1 1634 5 view .LVU596
 1853              		.loc 1 1634 27 is_stmt 0 view .LVU597
 1854 048c 86F84D20 		strb	r2, [r6, #77]
 1855              		.loc 1 1635 5 is_stmt 1 view .LVU598
 1856              		.loc 1 1635 11 is_stmt 0 view .LVU599
 1857 0490 2068     		ldr	r0, [r4]
 1858 0492 FFF7FEFF 		bl	USB_HC_Halt
 1859              	.LVL148:
 1860 0496 62E6     		b	.L117
 1861              	.LVL149:
 1862              	.L288:
 1863              		.loc 1 1635 11 view .LVU600
 1864              	.LBE26:
 1865              	.LBE69:
 1866              	.LBB70:
 1867              	.LBB44:
 1868              		.loc 1 1328 7 is_stmt 1 view .LVU601
 1869              		.loc 1 1328 30 is_stmt 0 view .LVU602
 1870 0498 50F80920 		ldr	r2, [r0, r9]
 1871 049c 42F00052 		orr	r2, r2, #536870912
 1872 04a0 40F80920 		str	r2, [r0, r9]
 1873              		.loc 1 1329 7 is_stmt 1 view .LVU603
 1874              		.loc 1 1334 7 is_stmt 0 view .LVU604
 1875 04a4 1A46     		mov	r2, r3
 1876 04a6 2046     		mov	r0, r4
 1877              	.LVL150:
 1878              		.loc 1 1329 33 view .LVU605
 1879 04a8 86F84C30 		strb	r3, [r6, #76]
 1880              		.loc 1 1334 7 is_stmt 1 view .LVU606
 1881 04ac FFF7FEFF 		bl	HAL_HCD_HC_NotifyURBChange_Callback
ARM GAS  C:\Users\DEVELO~1\AppData\Local\Temp\ccmc7I4c.s 			page 34


 1882              	.LVL151:
 1883              		.loc 1 1342 19 is_stmt 0 view .LVU607
 1884 04b0 A279     		ldrb	r2, [r4, #6]	@ zero_extendqisi2
 1885 04b2 EEE6     		b	.L129
 1886              	.L286:
 1887              		.loc 1 1342 19 view .LVU608
 1888              	.LBE44:
 1889              	.LBE70:
 1890              	.LBB71:
 1891              	.LBB27:
 1892              		.loc 1 1591 7 is_stmt 1 view .LVU609
 1893              		.loc 1 1591 31 is_stmt 0 view .LVU610
 1894 04b4 7376     		strb	r3, [r6, #25]
 1895              		.loc 1 1592 7 is_stmt 1 view .LVU611
 1896              		.loc 1 1592 33 is_stmt 0 view .LVU612
 1897 04b6 4FF00203 		mov	r3, #2
 1898 04ba 86F84C30 		strb	r3, [r6, #76]
 1899              		.loc 1 1593 7 is_stmt 1 view .LVU613
 1900              		.loc 1 1593 29 is_stmt 0 view .LVU614
 1901 04be 0323     		movs	r3, #3
 1902 04c0 86F84D30 		strb	r3, [r6, #77]
 1903              		.loc 1 1594 7 is_stmt 1 view .LVU615
 1904              		.loc 1 1594 13 is_stmt 0 view .LVU616
 1905 04c4 2068     		ldr	r0, [r4]
 1906 04c6 FFF7FEFF 		bl	USB_HC_Halt
 1907              	.LVL152:
 1908 04ca 0099     		ldr	r1, [sp]
 1909 04cc 9CE6     		b	.L160
 1910              	.LVL153:
 1911              	.L123:
 1912              		.loc 1 1594 13 view .LVU617
 1913              	.LBE27:
 1914              	.LBE71:
 1915              	.LBB72:
 1916              	.LBB45:
 1917              		.loc 1 1283 8 is_stmt 1 view .LVU618
 1918              		.loc 1 1283 12 is_stmt 0 view .LVU619
 1919 04ce 2068     		ldr	r0, [r4]
 1920 04d0 0091     		str	r1, [sp]
 1921 04d2 FFF7FEFF 		bl	USB_ReadChInterrupts
 1922              	.LVL154:
 1923              		.loc 1 1283 11 view .LVU620
 1924 04d6 10F0800F 		tst	r0, #128
 1925 04da 0099     		ldr	r1, [sp]
 1926 04dc 3FF42EAE 		beq	.L120
 1927              		.loc 1 1285 5 is_stmt 1 view .LVU621
 1928 04e0 07F5A063 		add	r3, r7, #1280
 1929 04e4 8022     		movs	r2, #128
 1930 04e6 4B44     		add	r3, r3, r9
 1931 04e8 9A60     		str	r2, [r3, #8]
 1932 04ea 20E6     		b	.L270
 1933              	.LVL155:
 1934              	.L291:
 1935              		.loc 1 1285 5 is_stmt 0 view .LVU622
 1936              	.LBE45:
 1937              	.LBE72:
 1938              	.LBB73:
ARM GAS  C:\Users\DEVELO~1\AppData\Local\Temp\ccmc7I4c.s 			page 35


 1939              	.LBB63:
 1940              		.loc 1 1916 9 is_stmt 1 view .LVU623
 1941              		.loc 1 1922 11 view .LVU624
 1942              		.loc 1 1916 20 is_stmt 0 view .LVU625
 1943 04ec 029B     		ldr	r3, [sp, #8]
 1944              		.loc 1 1922 17 view .LVU626
 1945 04ee 2068     		ldr	r0, [r4]
 1946              		.loc 1 1916 20 view .LVU627
 1947 04f0 03F4C023 		and	r3, r3, #393216
 1948              		.loc 1 1916 12 view .LVU628
 1949 04f4 B3F5802F 		cmp	r3, #262144
 1950              		.loc 1 1922 17 view .LVU629
 1951 04f8 18BF     		it	ne
 1952 04fa 0121     		movne	r1, #1
 1953 04fc FFF7FEFF 		bl	USB_InitFSLSPClkSel
 1954              	.LVL156:
 1955 0500 09E7     		b	.L109
 1956              	.LVL157:
 1957              	.L132:
 1958              		.loc 1 1922 17 view .LVU630
 1959              	.LBE63:
 1960              	.LBE73:
 1961              	.LBB74:
 1962              	.LBB46:
 1963              		.loc 1 1366 8 is_stmt 1 view .LVU631
 1964              		.loc 1 1366 12 is_stmt 0 view .LVU632
 1965 0502 2068     		ldr	r0, [r4]
 1966 0504 0091     		str	r1, [sp]
 1967 0506 FFF7FEFF 		bl	USB_ReadChInterrupts
 1968              	.LVL158:
 1969              		.loc 1 1366 11 view .LVU633
 1970 050a 10F0020F 		tst	r0, #2
 1971 050e 0099     		ldr	r1, [sp]
 1972 0510 00F0CD80 		beq	.L133
 1973              		.loc 1 1368 5 is_stmt 1 view .LVU634
 1974 0514 07F5A067 		add	r7, r7, #1280
 1975              	.LVL159:
 1976              		.loc 1 1368 5 is_stmt 0 view .LVU635
 1977 0518 0223     		movs	r3, #2
 1978 051a 07EB0902 		add	r2, r7, r9
 1979 051e 9360     		str	r3, [r2, #8]
 1980              		.loc 1 1370 5 is_stmt 1 view .LVU636
 1981              		.loc 1 1370 24 is_stmt 0 view .LVU637
 1982 0520 96F84D30 		ldrb	r3, [r6, #77]	@ zero_extendqisi2
 1983              		.loc 1 1370 8 view .LVU638
 1984 0524 012B     		cmp	r3, #1
 1985 0526 00F0EA80 		beq	.L293
 1986              		.loc 1 1375 10 is_stmt 1 view .LVU639
 1987 052a 023B     		subs	r3, r3, #2
 1988 052c 072B     		cmp	r3, #7
 1989 052e 25D8     		bhi	.L179
 1990 0530 01A0     		adr	r0, .L137
 1991 0532 50F823F0 		ldr	pc, [r0, r3, lsl #2]
 1992 0536 00BF     		.p2align 2
 1993              	.L137:
 1994 0538 5F010000 		.word	.L117+1
 1995 053c E9050000 		.word	.L142+1
ARM GAS  C:\Users\DEVELO~1\AppData\Local\Temp\ccmc7I4c.s 			page 36


 1996 0540 D1050000 		.word	.L141+1
 1997 0544 99050000 		.word	.L140+1
 1998 0548 89050000 		.word	.L184+1
 1999 054c 59050000 		.word	.L136+1
 2000 0550 23060000 		.word	.L138+1
 2001 0554 59050000 		.word	.L136+1
 2002              		.p2align 1
 2003              	.L136:
 2004              		.loc 1 1383 7 view .LVU640
 2005              		.loc 1 1383 29 is_stmt 0 view .LVU641
 2006 0558 4FF00203 		mov	r3, #2
 2007 055c 86F84D30 		strb	r3, [r6, #77]
 2008              		.loc 1 1384 7 is_stmt 1 view .LVU642
 2009              		.loc 1 1384 29 is_stmt 0 view .LVU643
 2010 0560 736C     		ldr	r3, [r6, #68]
 2011 0562 0133     		adds	r3, r3, #1
 2012              		.loc 1 1385 10 view .LVU644
 2013 0564 022B     		cmp	r3, #2
 2014              		.loc 1 1384 29 view .LVU645
 2015 0566 7364     		str	r3, [r6, #68]
 2016              		.loc 1 1385 7 is_stmt 1 view .LVU646
 2017              		.loc 1 1385 10 is_stmt 0 view .LVU647
 2018 0568 40F24F81 		bls	.L144
 2019              		.loc 1 1387 9 is_stmt 1 view .LVU648
 2020              		.loc 1 1387 32 is_stmt 0 view .LVU649
 2021 056c 0023     		movs	r3, #0
 2022 056e 7364     		str	r3, [r6, #68]
 2023              		.loc 1 1389 9 is_stmt 1 view .LVU650
 2024              		.loc 1 1389 12 is_stmt 0 view .LVU651
 2025 0570 B37E     		ldrb	r3, [r6, #26]	@ zero_extendqisi2
 2026 0572 012B     		cmp	r3, #1
 2027 0574 00F07981 		beq	.L294
 2028              	.LVL160:
 2029              	.L279:
 2030              		.loc 1 1389 12 view .LVU652
 2031              	.LBE46:
 2032              	.LBE74:
 2033              	.LBB75:
 2034              	.LBB28:
 2035              		.loc 1 1778 9 is_stmt 1 view .LVU653
 2036              		.loc 1 1778 35 is_stmt 0 view .LVU654
 2037 0578 86F84CA0 		strb	r10, [r6, #76]
 2038              	.L179:
 2039              		.loc 1 1799 5 is_stmt 1 view .LVU655
 2040 057c 96F84C20 		ldrb	r2, [r6, #76]	@ zero_extendqisi2
 2041 0580 2046     		mov	r0, r4
 2042 0582 FFF7FEFF 		bl	HAL_HCD_HC_NotifyURBChange_Callback
 2043              	.LVL161:
 2044 0586 EAE5     		b	.L117
 2045              	.L184:
 2046              		.loc 1 1767 7 view .LVU656
 2047              		.loc 1 1767 29 is_stmt 0 view .LVU657
 2048 0588 4FF00203 		mov	r3, #2
 2049 058c 86F84D30 		strb	r3, [r6, #77]
 2050              		.loc 1 1768 7 is_stmt 1 view .LVU658
 2051              		.loc 1 1768 34 is_stmt 0 view .LVU659
 2052 0590 0523     		movs	r3, #5
ARM GAS  C:\Users\DEVELO~1\AppData\Local\Temp\ccmc7I4c.s 			page 37


 2053 0592 86F84C30 		strb	r3, [r6, #76]
 2054 0596 F1E7     		b	.L179
 2055              	.LVL162:
 2056              	.L140:
 2057              		.loc 1 1768 34 view .LVU660
 2058              	.LBE28:
 2059              	.LBE75:
 2060              	.LBB76:
 2061              	.LBB47:
 2062              		.loc 1 1415 7 is_stmt 1 view .LVU661
 2063              		.loc 1 1417 10 is_stmt 0 view .LVU662
 2064 0598 F07E     		ldrb	r0, [r6, #27]	@ zero_extendqisi2
 2065              		.loc 1 1415 29 view .LVU663
 2066 059a 4FF00203 		mov	r3, #2
 2067              		.loc 1 1417 10 view .LVU664
 2068 059e 0128     		cmp	r0, #1
 2069              		.loc 1 1415 29 view .LVU665
 2070 05a0 86F84D30 		strb	r3, [r6, #77]
 2071              		.loc 1 1417 7 is_stmt 1 view .LVU666
 2072              		.loc 1 1417 10 is_stmt 0 view .LVU667
 2073 05a4 EAD1     		bne	.L179
 2074              		.loc 1 1419 9 is_stmt 1 view .LVU668
 2075              		.loc 1 1419 28 is_stmt 0 view .LVU669
 2076 05a6 96F82630 		ldrb	r3, [r6, #38]	@ zero_extendqisi2
 2077              		.loc 1 1419 12 view .LVU670
 2078 05aa 032B     		cmp	r3, #3
 2079 05ac 00F03881 		beq	.L295
 2080              		.loc 1 1441 11 is_stmt 1 view .LVU671
 2081              		.loc 1 1441 37 is_stmt 0 view .LVU672
 2082 05b0 4FF00202 		mov	r2, #2
 2083              		.loc 1 1444 12 view .LVU673
 2084 05b4 13F0FD0F 		tst	r3, #253
 2085              		.loc 1 1441 37 view .LVU674
 2086 05b8 86F84C20 		strb	r2, [r6, #76]
 2087              		.loc 1 1444 9 is_stmt 1 view .LVU675
 2088              		.loc 1 1444 12 is_stmt 0 view .LVU676
 2089 05bc DED1     		bne	.L179
 2090              	.LVL163:
 2091              	.L278:
 2092              		.loc 1 1444 12 view .LVU677
 2093              	.LBE47:
 2094              	.LBE76:
 2095              	.LBB77:
 2096              	.LBB29:
 2097              		.loc 1 1785 9 is_stmt 1 view .LVU678
 2098              		.loc 1 1785 16 is_stmt 0 view .LVU679
 2099 05be 57F80930 		ldr	r3, [r7, r9]
 2100              	.LVL164:
 2101              		.loc 1 1786 9 is_stmt 1 view .LVU680
 2102              		.loc 1 1786 16 is_stmt 0 view .LVU681
 2103 05c2 23F08043 		bic	r3, r3, #1073741824
 2104              	.LVL165:
 2105              		.loc 1 1787 9 is_stmt 1 view .LVU682
 2106              		.loc 1 1787 16 is_stmt 0 view .LVU683
 2107 05c6 43F00043 		orr	r3, r3, #-2147483648
 2108              	.LVL166:
 2109              		.loc 1 1788 9 is_stmt 1 view .LVU684
ARM GAS  C:\Users\DEVELO~1\AppData\Local\Temp\ccmc7I4c.s 			page 38


 2110              		.loc 1 1788 32 is_stmt 0 view .LVU685
 2111 05ca 47F80930 		str	r3, [r7, r9]
 2112 05ce D5E7     		b	.L179
 2113              	.LVL167:
 2114              	.L141:
 2115              		.loc 1 1788 32 view .LVU686
 2116              	.LBE29:
 2117              	.LBE77:
 2118              	.LBB78:
 2119              	.LBB48:
 2120              		.loc 1 1481 7 is_stmt 1 view .LVU687
 2121              		.loc 1 1481 29 is_stmt 0 view .LVU688
 2122 05d0 4FF00203 		mov	r3, #2
 2123 05d4 86F84D30 		strb	r3, [r6, #77]
 2124              		.loc 1 1482 7 is_stmt 1 view .LVU689
 2125              		.loc 1 1482 33 is_stmt 0 view .LVU690
 2126 05d8 86F84C30 		strb	r3, [r6, #76]
 2127              		.loc 1 1484 7 is_stmt 1 view .LVU691
 2128              		.loc 1 1484 53 is_stmt 0 view .LVU692
 2129 05dc 96F82630 		ldrb	r3, [r6, #38]	@ zero_extendqisi2
 2130              		.loc 1 1484 10 view .LVU693
 2131 05e0 13F0FD0F 		tst	r3, #253
 2132 05e4 CAD1     		bne	.L179
 2133 05e6 EAE7     		b	.L278
 2134              	.L142:
 2135              		.loc 1 1457 7 is_stmt 1 view .LVU694
 2136              		.loc 1 1457 29 is_stmt 0 view .LVU695
 2137 05e8 4FF00203 		mov	r3, #2
 2138 05ec 86F84D30 		strb	r3, [r6, #77]
 2139              		.loc 1 1459 7 is_stmt 1 view .LVU696
 2140              		.loc 1 1459 10 is_stmt 0 view .LVU697
 2141 05f0 F37E     		ldrb	r3, [r6, #27]	@ zero_extendqisi2
 2142 05f2 012B     		cmp	r3, #1
 2143 05f4 C2D1     		bne	.L179
 2144              		.loc 1 1461 9 is_stmt 1 view .LVU698
 2145              		.loc 1 1461 35 is_stmt 0 view .LVU699
 2146 05f6 4FF00203 		mov	r3, #2
 2147 05fa 86F84C30 		strb	r3, [r6, #76]
 2148              		.loc 1 1464 9 is_stmt 1 view .LVU700
 2149              		.loc 1 1464 32 is_stmt 0 view .LVU701
 2150 05fe 5368     		ldr	r3, [r2, #4]
 2151 0600 43F48033 		orr	r3, r3, #65536
 2152 0604 5360     		str	r3, [r2, #4]
 2153              		.loc 1 1465 9 is_stmt 1 view .LVU702
 2154              		.loc 1 1465 34 is_stmt 0 view .LVU703
 2155 0606 D368     		ldr	r3, [r2, #12]
 2156 0608 43F04003 		orr	r3, r3, #64
 2157 060c D360     		str	r3, [r2, #12]
 2158              		.loc 1 1466 9 is_stmt 1 view .LVU704
 2159              		.loc 1 1466 34 is_stmt 0 view .LVU705
 2160 060e D368     		ldr	r3, [r2, #12]
 2161 0610 23F02003 		bic	r3, r3, #32
 2162 0614 D360     		str	r3, [r2, #12]
 2163              		.loc 1 1468 9 is_stmt 1 view .LVU706
 2164              		.loc 1 1468 55 is_stmt 0 view .LVU707
 2165 0616 96F82630 		ldrb	r3, [r6, #38]	@ zero_extendqisi2
 2166              		.loc 1 1468 12 view .LVU708
ARM GAS  C:\Users\DEVELO~1\AppData\Local\Temp\ccmc7I4c.s 			page 39


 2167 061a 13F0FD0F 		tst	r3, #253
 2168 061e ADD1     		bne	.L179
 2169 0620 CDE7     		b	.L278
 2170              	.L138:
 2171              		.loc 1 1496 7 is_stmt 1 view .LVU709
 2172              		.loc 1 1496 29 is_stmt 0 view .LVU710
 2173 0622 4FF00203 		mov	r3, #2
 2174              		.loc 1 1498 33 view .LVU711
 2175 0626 86F84CA0 		strb	r10, [r6, #76]
 2176              		.loc 1 1496 29 view .LVU712
 2177 062a 86F84D30 		strb	r3, [r6, #77]
 2178              		.loc 1 1497 7 is_stmt 1 view .LVU713
 2179              		.loc 1 1497 29 is_stmt 0 view .LVU714
 2180 062e 736C     		ldr	r3, [r6, #68]
 2181 0630 0133     		adds	r3, r3, #1
 2182 0632 7364     		str	r3, [r6, #68]
 2183              		.loc 1 1498 7 is_stmt 1 view .LVU715
 2184 0634 A2E7     		b	.L179
 2185              	.LVL168:
 2186              	.L284:
 2187              		.loc 1 1498 7 is_stmt 0 view .LVU716
 2188              	.LBE48:
 2189              	.LBE78:
 2190              		.loc 1 576 11 is_stmt 1 view .LVU717
 2191              		.loc 1 576 17 is_stmt 0 view .LVU718
 2192 0636 0121     		movs	r1, #1
 2193 0638 2068     		ldr	r0, [r4]
 2194 063a FFF7FEFF 		bl	USB_InitFSLSPClkSel
 2195              	.LVL169:
 2196 063e 57E5     		b	.L101
 2197              	.LVL170:
 2198              	.L163:
 2199              	.LBB79:
 2200              	.LBB30:
 2201              		.loc 1 1637 8 is_stmt 1 view .LVU719
 2202              		.loc 1 1637 12 is_stmt 0 view .LVU720
 2203 0640 2068     		ldr	r0, [r4]
 2204 0642 0091     		str	r1, [sp]
 2205 0644 FFF7FEFF 		bl	USB_ReadChInterrupts
 2206              	.LVL171:
 2207              		.loc 1 1637 11 view .LVU721
 2208 0648 10F0400F 		tst	r0, #64
 2209 064c 0099     		ldr	r1, [sp]
 2210 064e 45D0     		beq	.L167
 2211              		.loc 1 1639 5 is_stmt 1 view .LVU722
 2212              		.loc 1 1639 27 is_stmt 0 view .LVU723
 2213 0650 0523     		movs	r3, #5
 2214 0652 86F84D30 		strb	r3, [r6, #77]
 2215              		.loc 1 1641 5 is_stmt 1 view .LVU724
 2216              		.loc 1 1641 8 is_stmt 0 view .LVU725
 2217 0656 B37E     		ldrb	r3, [r6, #26]	@ zero_extendqisi2
 2218 0658 0BB9     		cbnz	r3, .L168
 2219              		.loc 1 1643 7 is_stmt 1 view .LVU726
 2220              		.loc 1 1643 31 is_stmt 0 view .LVU727
 2221 065a 0123     		movs	r3, #1
 2222 065c 7376     		strb	r3, [r6, #25]
 2223              	.L168:
ARM GAS  C:\Users\DEVELO~1\AppData\Local\Temp\ccmc7I4c.s 			page 40


 2224              		.loc 1 1646 5 is_stmt 1 view .LVU728
 2225              		.loc 1 1646 28 is_stmt 0 view .LVU729
 2226 065e 0023     		movs	r3, #0
 2227              		.loc 1 1647 11 view .LVU730
 2228 0660 2068     		ldr	r0, [r4]
 2229              		.loc 1 1646 28 view .LVU731
 2230 0662 7364     		str	r3, [r6, #68]
 2231              		.loc 1 1647 5 is_stmt 1 view .LVU732
 2232              		.loc 1 1647 11 is_stmt 0 view .LVU733
 2233 0664 FFF7FEFF 		bl	USB_HC_Halt
 2234              	.LVL172:
 2235              		.loc 1 1648 5 is_stmt 1 view .LVU734
 2236 0668 07F5A063 		add	r3, r7, #1280
 2237 066c 4022     		movs	r2, #64
 2238 066e 4B44     		add	r3, r3, r9
 2239 0670 9A60     		str	r2, [r3, #8]
 2240 0672 74E5     		b	.L117
 2241              	.LVL173:
 2242              	.L292:
 2243              		.loc 1 1648 5 is_stmt 0 view .LVU735
 2244              	.LBE30:
 2245              	.LBE79:
 2246              	.LBB80:
 2247              	.LBB19:
 2248              		.loc 1 1837 11 is_stmt 1 view .LVU736
 2249              		.loc 1 1837 17 is_stmt 0 view .LVU737
 2250 0674 3A46     		mov	r2, r7
 2251 0676 2846     		mov	r0, r5
 2252 0678 FFF7FEFF 		bl	USB_ReadPacket
 2253              	.LVL174:
 2254              		.loc 1 1841 11 is_stmt 1 view .LVU738
 2255              		.loc 1 1841 37 is_stmt 0 view .LVU739
 2256 067c D8F82C30 		ldr	r3, [r8, #44]
 2257              		.loc 1 1845 29 view .LVU740
 2258 0680 05F5A065 		add	r5, r5, #1280
 2259              	.LVL175:
 2260              		.loc 1 1842 38 view .LVU741
 2261 0684 D8F83820 		ldr	r2, [r8, #56]
 2262              		.loc 1 1841 37 view .LVU742
 2263 0688 3B44     		add	r3, r3, r7
 2264              		.loc 1 1842 38 view .LVU743
 2265 068a 3A44     		add	r2, r2, r7
 2266              		.loc 1 1841 37 view .LVU744
 2267 068c C8F82C30 		str	r3, [r8, #44]
 2268              		.loc 1 1842 11 is_stmt 1 view .LVU745
 2269              		.loc 1 1845 29 is_stmt 0 view .LVU746
 2270 0690 05EB4613 		add	r3, r5, r6, lsl #5
 2271              		.loc 1 1845 43 view .LVU747
 2272 0694 1B69     		ldr	r3, [r3, #16]
 2273              		.loc 1 1842 38 view .LVU748
 2274 0696 C8F83820 		str	r2, [r8, #56]
 2275              		.loc 1 1845 11 is_stmt 1 view .LVU749
 2276              	.LVL176:
 2277              		.loc 1 1847 11 view .LVU750
 2278              		.loc 1 1845 29 is_stmt 0 view .LVU751
 2279 069a 7201     		lsls	r2, r6, #5
 2280              		.loc 1 1845 26 view .LVU752
ARM GAS  C:\Users\DEVELO~1\AppData\Local\Temp\ccmc7I4c.s 			page 41


 2281 069c C3F3C943 		ubfx	r3, r3, #19, #10
 2282              	.LVL177:
 2283              		.loc 1 1847 54 view .LVU753
 2284 06a0 1BB1     		cbz	r3, .L276
 2285              		.loc 1 1847 31 view .LVU754
 2286 06a2 B8F82830 		ldrh	r3, [r8, #40]
 2287              		.loc 1 1847 54 view .LVU755
 2288 06a6 BB42     		cmp	r3, r7
 2289 06a8 65D0     		beq	.L193
 2290              	.L276:
 2291              		.loc 1 1847 54 view .LVU756
 2292              	.LBE19:
 2293              	.LBE80:
 2294              		.loc 1 634 7 view .LVU757
 2295 06aa 2568     		ldr	r5, [r4]
 2296              	.LVL178:
 2297              		.loc 1 634 7 view .LVU758
 2298 06ac 09E5     		b	.L191
 2299              	.LVL179:
 2300              	.L133:
 2301              	.LBB81:
 2302              	.LBB49:
 2303              		.loc 1 1514 8 is_stmt 1 view .LVU759
 2304              		.loc 1 1514 12 is_stmt 0 view .LVU760
 2305 06ae 2068     		ldr	r0, [r4]
 2306 06b0 0091     		str	r1, [sp]
 2307 06b2 FFF7FEFF 		bl	USB_ReadChInterrupts
 2308              	.LVL180:
 2309              		.loc 1 1514 11 view .LVU761
 2310 06b6 10F04003 		ands	r3, r0, #64
 2311 06ba 0099     		ldr	r1, [sp]
 2312 06bc 26D0     		beq	.L151
 2313              		.loc 1 1516 5 is_stmt 1 view .LVU762
 2314 06be 07F5A063 		add	r3, r7, #1280
 2315 06c2 4022     		movs	r2, #64
 2316 06c4 4B44     		add	r3, r3, r9
 2317 06c6 9A60     		str	r2, [r3, #8]
 2318              		.loc 1 1517 5 view .LVU763
 2319              		.loc 1 1517 27 is_stmt 0 view .LVU764
 2320 06c8 0523     		movs	r3, #5
 2321 06ca 86F84D30 		strb	r3, [r6, #77]
 2322              		.loc 1 1519 5 is_stmt 1 view .LVU765
 2323              		.loc 1 1519 8 is_stmt 0 view .LVU766
 2324 06ce B37E     		ldrb	r3, [r6, #26]	@ zero_extendqisi2
 2325 06d0 03B9     		cbnz	r3, .L275
 2326              		.loc 1 1521 7 is_stmt 1 view .LVU767
 2327              		.loc 1 1521 30 is_stmt 0 view .LVU768
 2328 06d2 7364     		str	r3, [r6, #68]
 2329              		.loc 1 1524 5 is_stmt 1 view .LVU769
 2330              	.L275:
 2331              		.loc 1 1524 5 is_stmt 0 view .LVU770
 2332              	.LBE49:
 2333              	.LBE81:
 2334              	.LBB82:
 2335              	.LBB31:
 2336              		.loc 1 1654 5 is_stmt 1 view .LVU771
 2337              		.loc 1 1654 11 is_stmt 0 view .LVU772
ARM GAS  C:\Users\DEVELO~1\AppData\Local\Temp\ccmc7I4c.s 			page 42


 2338 06d4 2068     		ldr	r0, [r4]
 2339 06d6 FFF7FEFF 		bl	USB_HC_Halt
 2340              	.LVL181:
 2341 06da 40E5     		b	.L117
 2342              	.L167:
 2343              		.loc 1 1650 8 is_stmt 1 view .LVU773
 2344              		.loc 1 1650 12 is_stmt 0 view .LVU774
 2345 06dc 2068     		ldr	r0, [r4]
 2346 06de 0091     		str	r1, [sp]
 2347 06e0 FFF7FEFF 		bl	USB_ReadChInterrupts
 2348              	.LVL182:
 2349              		.loc 1 1650 11 view .LVU775
 2350 06e4 10F00803 		ands	r3, r0, #8
 2351 06e8 0099     		ldr	r1, [sp]
 2352 06ea 2DD0     		beq	.L169
 2353              		.loc 1 1652 5 is_stmt 1 view .LVU776
 2354 06ec 07F5A063 		add	r3, r7, #1280
 2355 06f0 0822     		movs	r2, #8
 2356 06f2 4B44     		add	r3, r3, r9
 2357 06f4 9A60     		str	r2, [r3, #8]
 2358              		.loc 1 1653 5 view .LVU777
 2359              		.loc 1 1653 27 is_stmt 0 view .LVU778
 2360 06f6 0623     		movs	r3, #6
 2361 06f8 86F84D30 		strb	r3, [r6, #77]
 2362 06fc EAE7     		b	.L275
 2363              	.LVL183:
 2364              	.L293:
 2365              		.loc 1 1653 27 view .LVU779
 2366              	.LBE31:
 2367              	.LBE82:
 2368              	.LBB83:
 2369              	.LBB50:
 2370              		.loc 1 1372 7 is_stmt 1 view .LVU780
 2371              		.loc 1 1373 33 is_stmt 0 view .LVU781
 2372 06fe 86F84C30 		strb	r3, [r6, #76]
 2373              		.loc 1 1372 29 view .LVU782
 2374 0702 4FF00203 		mov	r3, #2
 2375 0706 86F84D30 		strb	r3, [r6, #77]
 2376              		.loc 1 1373 7 is_stmt 1 view .LVU783
 2377 070a 37E7     		b	.L179
 2378              	.LVL184:
 2379              	.L151:
 2380              		.loc 1 1526 12 is_stmt 0 view .LVU784
 2381 070c 2068     		ldr	r0, [r4]
 2382 070e CDE90013 		strd	r1, r3, [sp]
 2383 0712 FFF7FEFF 		bl	USB_ReadChInterrupts
 2384              	.LVL185:
 2385              		.loc 1 1526 11 view .LVU785
 2386 0716 C006     		lsls	r0, r0, #27
 2387 0718 7FF521AD 		bpl	.L117
 2388              		.loc 1 1528 5 is_stmt 1 view .LVU786
 2389              		.loc 1 1528 24 is_stmt 0 view .LVU787
 2390 071c 96F82620 		ldrb	r2, [r6, #38]	@ zero_extendqisi2
 2391              		.loc 1 1528 8 view .LVU788
 2392 0720 032A     		cmp	r2, #3
 2393 0722 DDE90013 		ldrd	r1, r3, [sp]
 2394 0726 00F09980 		beq	.L296
ARM GAS  C:\Users\DEVELO~1\AppData\Local\Temp\ccmc7I4c.s 			page 43


 2395              		.loc 1 1534 10 is_stmt 1 view .LVU789
 2396              		.loc 1 1534 13 is_stmt 0 view .LVU790
 2397 072a 12F0FD02 		ands	r2, r2, #253
 2398 072e 37D1     		bne	.L154
 2399              		.loc 1 1537 7 is_stmt 1 view .LVU791
 2400              		.loc 1 1537 30 is_stmt 0 view .LVU792
 2401 0730 7264     		str	r2, [r6, #68]
 2402              		.loc 1 1539 7 is_stmt 1 view .LVU793
 2403              		.loc 1 1539 10 is_stmt 0 view .LVU794
 2404 0732 A379     		ldrb	r3, [r4, #6]	@ zero_extendqisi2
 2405 0734 7BB3     		cbz	r3, .L155
 2406              		.loc 1 1539 41 view .LVU795
 2407 0736 F37E     		ldrb	r3, [r6, #27]	@ zero_extendqisi2
 2408 0738 012B     		cmp	r3, #1
 2409 073a 2CD0     		beq	.L155
 2410              	.L277:
 2411              		.loc 1 1539 41 view .LVU796
 2412              	.LBE50:
 2413              	.LBE83:
 2414              	.LBB84:
 2415              	.LBB32:
 2416              		.loc 1 1670 5 is_stmt 1 view .LVU797
 2417 073c 07F5A063 		add	r3, r7, #1280
 2418              	.L274:
 2419              		.loc 1 1670 5 is_stmt 0 view .LVU798
 2420 0740 4B44     		add	r3, r3, r9
 2421 0742 1022     		movs	r2, #16
 2422 0744 9A60     		str	r2, [r3, #8]
 2423 0746 0AE5     		b	.L117
 2424              	.L169:
 2425              		.loc 1 1656 12 view .LVU799
 2426 0748 2068     		ldr	r0, [r4]
 2427 074a CDE90013 		strd	r1, r3, [sp]
 2428 074e FFF7FEFF 		bl	USB_ReadChInterrupts
 2429              	.LVL186:
 2430              		.loc 1 1656 11 view .LVU800
 2431 0752 10F0100F 		tst	r0, #16
 2432 0756 0099     		ldr	r1, [sp]
 2433 0758 35D0     		beq	.L170
 2434              		.loc 1 1658 5 is_stmt 1 view .LVU801
 2435              		.loc 1 1658 28 is_stmt 0 view .LVU802
 2436 075a 019B     		ldr	r3, [sp, #4]
 2437              		.loc 1 1659 27 view .LVU803
 2438 075c 86F84DA0 		strb	r10, [r6, #77]
 2439              		.loc 1 1658 28 view .LVU804
 2440 0760 7364     		str	r3, [r6, #68]
 2441              		.loc 1 1659 5 is_stmt 1 view .LVU805
 2442              		.loc 1 1661 5 view .LVU806
 2443              		.loc 1 1661 8 is_stmt 0 view .LVU807
 2444 0762 737E     		ldrb	r3, [r6, #25]	@ zero_extendqisi2
 2445 0764 1BB9     		cbnz	r3, .L171
 2446              		.loc 1 1663 7 is_stmt 1 view .LVU808
 2447              		.loc 1 1663 10 is_stmt 0 view .LVU809
 2448 0766 337E     		ldrb	r3, [r6, #24]	@ zero_extendqisi2
 2449 0768 0BB9     		cbnz	r3, .L171
 2450              		.loc 1 1665 9 is_stmt 1 view .LVU810
 2451              		.loc 1 1665 33 is_stmt 0 view .LVU811
ARM GAS  C:\Users\DEVELO~1\AppData\Local\Temp\ccmc7I4c.s 			page 44


 2452 076a 0123     		movs	r3, #1
 2453 076c 7376     		strb	r3, [r6, #25]
 2454              	.L171:
 2455              		.loc 1 1669 5 is_stmt 1 view .LVU812
 2456              		.loc 1 1669 11 is_stmt 0 view .LVU813
 2457 076e 2068     		ldr	r0, [r4]
 2458 0770 FFF7FEFF 		bl	USB_HC_Halt
 2459              	.LVL187:
 2460 0774 E2E7     		b	.L277
 2461              	.LVL188:
 2462              	.L193:
 2463              		.loc 1 1669 11 view .LVU814
 2464              	.LBE32:
 2465              	.LBE84:
 2466              	.LBB85:
 2467              	.LBB20:
 2468              		.loc 1 1850 13 is_stmt 1 view .LVU815
 2469              		.loc 1 1850 20 is_stmt 0 view .LVU816
 2470 0776 AB58     		ldr	r3, [r5, r2]
 2471              	.LVL189:
 2472              		.loc 1 1851 13 is_stmt 1 view .LVU817
 2473              		.loc 1 1851 20 is_stmt 0 view .LVU818
 2474 0778 23F08043 		bic	r3, r3, #1073741824
 2475              	.LVL190:
 2476              		.loc 1 1852 13 is_stmt 1 view .LVU819
 2477              		.loc 1 1852 20 is_stmt 0 view .LVU820
 2478 077c 43F00043 		orr	r3, r3, #-2147483648
 2479              	.LVL191:
 2480              		.loc 1 1853 13 is_stmt 1 view .LVU821
 2481              		.loc 1 1853 36 is_stmt 0 view .LVU822
 2482 0780 AB50     		str	r3, [r5, r2]
 2483              		.loc 1 1854 13 is_stmt 1 view .LVU823
 2484              		.loc 1 1854 39 is_stmt 0 view .LVU824
 2485 0782 3C23     		movs	r3, #60
 2486              	.LVL192:
 2487              		.loc 1 1854 39 view .LVU825
 2488 0784 03FB0643 		mla	r3, r3, r6, r4
 2489 0788 93F83C20 		ldrb	r2, [r3, #60]	@ zero_extendqisi2
 2490              	.LVL193:
 2491              		.loc 1 1854 39 view .LVU826
 2492 078c 82F00102 		eor	r2, r2, #1
 2493 0790 83F83C20 		strb	r2, [r3, #60]
 2494              	.LVL194:
 2495              		.loc 1 1854 39 view .LVU827
 2496 0794 89E7     		b	.L276
 2497              	.LVL195:
 2498              	.L155:
 2499              		.loc 1 1854 39 view .LVU828
 2500              	.LBE20:
 2501              	.LBE85:
 2502              	.LBB86:
 2503              	.LBB51:
 2504              		.loc 1 1541 9 is_stmt 1 view .LVU829
 2505              		.loc 1 1541 31 is_stmt 0 view .LVU830
 2506 0796 86F84DA0 		strb	r10, [r6, #77]
 2507              		.loc 1 1542 9 is_stmt 1 view .LVU831
 2508              		.loc 1 1542 15 is_stmt 0 view .LVU832
ARM GAS  C:\Users\DEVELO~1\AppData\Local\Temp\ccmc7I4c.s 			page 45


 2509 079a 2068     		ldr	r0, [r4]
 2510 079c FFF7FEFF 		bl	USB_HC_Halt
 2511              	.LVL196:
 2512              	.L154:
 2513              		.loc 1 1548 5 is_stmt 1 view .LVU833
 2514              		.loc 1 1550 5 view .LVU834
 2515              		.loc 1 1550 8 is_stmt 0 view .LVU835
 2516 07a0 F37E     		ldrb	r3, [r6, #27]	@ zero_extendqisi2
 2517 07a2 012B     		cmp	r3, #1
 2518              		.loc 1 1553 7 view .LVU836
 2519 07a4 07F5A063 		add	r3, r7, #1280
 2520              		.loc 1 1550 8 view .LVU837
 2521 07a8 CAD1     		bne	.L274
 2522              		.loc 1 1552 7 is_stmt 1 view .LVU838
 2523              		.loc 1 1552 33 is_stmt 0 view .LVU839
 2524 07aa 4FF00002 		mov	r2, #0
 2525 07ae F276     		strb	r2, [r6, #27]
 2526              		.loc 1 1553 7 is_stmt 1 view .LVU840
 2527 07b0 03EB0902 		add	r2, r3, r9
 2528 07b4 5168     		ldr	r1, [r2, #4]
 2529 07b6 21F48031 		bic	r1, r1, #65536
 2530 07ba 5160     		str	r1, [r2, #4]
 2531              		.loc 1 1554 7 view .LVU841
 2532 07bc D168     		ldr	r1, [r2, #12]
 2533 07be 41F02001 		orr	r1, r1, #32
 2534 07c2 D160     		str	r1, [r2, #12]
 2535              		.loc 1 1557 5 view .LVU842
 2536 07c4 BCE7     		b	.L274
 2537              	.L170:
 2538              		.loc 1 1557 5 is_stmt 0 view .LVU843
 2539              	.LBE51:
 2540              	.LBE86:
 2541              	.LBB87:
 2542              	.LBB33:
 2543              		.loc 1 1672 8 is_stmt 1 view .LVU844
 2544              		.loc 1 1672 12 is_stmt 0 view .LVU845
 2545 07c6 2068     		ldr	r0, [r4]
 2546 07c8 0091     		str	r1, [sp]
 2547 07ca FFF7FEFF 		bl	USB_ReadChInterrupts
 2548              	.LVL197:
 2549              		.loc 1 1672 11 view .LVU846
 2550 07ce 10F0800F 		tst	r0, #128
 2551 07d2 0099     		ldr	r1, [sp]
 2552 07d4 62D0     		beq	.L172
 2553              		.loc 1 1674 5 is_stmt 1 view .LVU847
 2554              		.loc 1 1674 8 is_stmt 0 view .LVU848
 2555 07d6 A379     		ldrb	r3, [r4, #6]	@ zero_extendqisi2
 2556 07d8 002B     		cmp	r3, #0
 2557 07da 56D0     		beq	.L297
 2558              		.loc 1 1681 7 is_stmt 1 view .LVU849
 2559              		.loc 1 1681 29 is_stmt 0 view .LVU850
 2560 07dc 736C     		ldr	r3, [r6, #68]
 2561 07de 0133     		adds	r3, r3, #1
 2562              		.loc 1 1682 10 view .LVU851
 2563 07e0 022B     		cmp	r3, #2
 2564              		.loc 1 1681 29 view .LVU852
 2565 07e2 7364     		str	r3, [r6, #68]
ARM GAS  C:\Users\DEVELO~1\AppData\Local\Temp\ccmc7I4c.s 			page 46


 2566              		.loc 1 1682 7 is_stmt 1 view .LVU853
 2567              		.loc 1 1682 10 is_stmt 0 view .LVU854
 2568 07e4 46D8     		bhi	.L298
 2569              		.loc 1 1695 9 is_stmt 1 view .LVU855
 2570              		.loc 1 1695 35 is_stmt 0 view .LVU856
 2571 07e6 4FF00203 		mov	r3, #2
 2572              		.loc 1 1698 18 view .LVU857
 2573 07ea 07F5A067 		add	r7, r7, #1280
 2574              	.LVL198:
 2575              		.loc 1 1695 35 view .LVU858
 2576 07ee 86F84C30 		strb	r3, [r6, #76]
 2577              		.loc 1 1698 9 is_stmt 1 view .LVU859
 2578              		.loc 1 1698 16 is_stmt 0 view .LVU860
 2579 07f2 57F80930 		ldr	r3, [r7, r9]
 2580              	.LVL199:
 2581              		.loc 1 1699 9 is_stmt 1 view .LVU861
 2582              		.loc 1 1699 16 is_stmt 0 view .LVU862
 2583 07f6 23F08043 		bic	r3, r3, #1073741824
 2584              	.LVL200:
 2585              		.loc 1 1700 9 is_stmt 1 view .LVU863
 2586              		.loc 1 1700 16 is_stmt 0 view .LVU864
 2587 07fa 43F00043 		orr	r3, r3, #-2147483648
 2588              	.LVL201:
 2589              		.loc 1 1701 9 is_stmt 1 view .LVU865
 2590              		.loc 1 1701 32 is_stmt 0 view .LVU866
 2591 07fe 47F80930 		str	r3, [r7, r9]
 2592              	.LVL202:
 2593              	.L174:
 2594              		.loc 1 1704 5 is_stmt 1 view .LVU867
 2595 0802 4F44     		add	r7, r7, r9
 2596 0804 8023     		movs	r3, #128
 2597 0806 BB60     		str	r3, [r7, #8]
 2598 0808 A9E4     		b	.L117
 2599              	.LVL203:
 2600              	.L144:
 2601              		.loc 1 1704 5 is_stmt 0 view .LVU868
 2602              	.LBE33:
 2603              	.LBE87:
 2604              	.LBB88:
 2605              	.LBB52:
 2606              		.loc 1 1400 9 is_stmt 1 view .LVU869
 2607              		.loc 1 1400 35 is_stmt 0 view .LVU870
 2608 080a 4FF00203 		mov	r3, #2
 2609 080e 86F84C30 		strb	r3, [r6, #76]
 2610              		.loc 1 1402 9 is_stmt 1 view .LVU871
 2611              		.loc 1 1402 55 is_stmt 0 view .LVU872
 2612 0812 96F82630 		ldrb	r3, [r6, #38]	@ zero_extendqisi2
 2613              		.loc 1 1402 12 view .LVU873
 2614 0816 13F0FD0F 		tst	r3, #253
 2615 081a 7FF4AFAE 		bne	.L179
 2616 081e CEE6     		b	.L278
 2617              	.L295:
 2618              		.loc 1 1421 11 is_stmt 1 view .LVU874
 2619              		.loc 1 1421 37 is_stmt 0 view .LVU875
 2620 0820 B36C     		ldr	r3, [r6, #72]
 2621 0822 0133     		adds	r3, r3, #1
 2622              		.loc 1 1422 14 view .LVU876
ARM GAS  C:\Users\DEVELO~1\AppData\Local\Temp\ccmc7I4c.s 			page 47


 2623 0824 022B     		cmp	r3, #2
 2624              		.loc 1 1421 37 view .LVU877
 2625 0826 B364     		str	r3, [r6, #72]
 2626              		.loc 1 1422 11 is_stmt 1 view .LVU878
 2627              		.loc 1 1422 14 is_stmt 0 view .LVU879
 2628 0828 13D9     		bls	.L280
 2629              		.loc 1 1424 13 is_stmt 1 view .LVU880
 2630              		.loc 1 1424 40 is_stmt 0 view .LVU881
 2631 082a 0023     		movs	r3, #0
 2632 082c B364     		str	r3, [r6, #72]
 2633              		.loc 1 1425 13 is_stmt 1 view .LVU882
 2634              		.loc 1 1425 39 is_stmt 0 view .LVU883
 2635 082e F376     		strb	r3, [r6, #27]
 2636              		.loc 1 1427 13 is_stmt 1 view .LVU884
 2637              		.loc 1 1427 16 is_stmt 0 view .LVU885
 2638 0830 736C     		ldr	r3, [r6, #68]
 2639 0832 022B     		cmp	r3, #2
 2640 0834 00D8     		bhi	.L271
 2641              		.loc 1 1429 15 is_stmt 1 view .LVU886
 2642              		.loc 1 1429 46 is_stmt 0 view .LVU887
 2643 0836 3077     		strb	r0, [r6, #28]
 2644              		.loc 1 1431 13 is_stmt 1 view .LVU888
 2645              	.L271:
 2646              		.loc 1 1393 11 view .LVU889
 2647 0838 5368     		ldr	r3, [r2, #4]
 2648 083a 23F48033 		bic	r3, r3, #65536
 2649 083e 5360     		str	r3, [r2, #4]
 2650              		.loc 1 1396 9 view .LVU890
 2651 0840 9AE6     		b	.L279
 2652              	.L187:
 2653              		.loc 1 1396 9 is_stmt 0 view .LVU891
 2654              	.LBE52:
 2655              	.LBE88:
 2656              	.LBB89:
 2657              	.LBB34:
 2658              		.loc 1 1742 7 is_stmt 1 view .LVU892
 2659              		.loc 1 1742 29 is_stmt 0 view .LVU893
 2660 0842 4FF00203 		mov	r3, #2
 2661 0846 86F84D30 		strb	r3, [r6, #77]
 2662              		.loc 1 1744 7 is_stmt 1 view .LVU894
 2663              		.loc 1 1744 10 is_stmt 0 view .LVU895
 2664 084a F37E     		ldrb	r3, [r6, #27]	@ zero_extendqisi2
 2665 084c 012B     		cmp	r3, #1
 2666 084e 7FF495AE 		bne	.L179
 2667              	.LVL204:
 2668              	.L280:
 2669              		.loc 1 1746 9 is_stmt 1 view .LVU896
 2670              		.loc 1 1746 35 is_stmt 0 view .LVU897
 2671 0852 4FF00203 		mov	r3, #2
 2672 0856 86F84C30 		strb	r3, [r6, #76]
 2673 085a 8FE6     		b	.L179
 2674              	.LVL205:
 2675              	.L296:
 2676              		.loc 1 1746 35 view .LVU898
 2677              	.LBE34:
 2678              	.LBE89:
 2679              	.LBB90:
ARM GAS  C:\Users\DEVELO~1\AppData\Local\Temp\ccmc7I4c.s 			page 48


 2680              	.LBB53:
 2681              		.loc 1 1530 7 is_stmt 1 view .LVU899
 2682              		.loc 1 1531 29 is_stmt 0 view .LVU900
 2683 085c 86F84DA0 		strb	r10, [r6, #77]
 2684              		.loc 1 1530 30 view .LVU901
 2685 0860 7364     		str	r3, [r6, #68]
 2686              		.loc 1 1531 7 is_stmt 1 view .LVU902
 2687              		.loc 1 1532 7 view .LVU903
 2688              		.loc 1 1532 13 is_stmt 0 view .LVU904
 2689 0862 2068     		ldr	r0, [r4]
 2690 0864 FFF7FEFF 		bl	USB_HC_Halt
 2691              	.LVL206:
 2692 0868 9AE7     		b	.L154
 2693              	.LVL207:
 2694              	.L294:
 2695              		.loc 1 1391 11 is_stmt 1 view .LVU905
 2696              		.loc 1 1391 37 is_stmt 0 view .LVU906
 2697 086a 4FF00003 		mov	r3, #0
 2698 086e F376     		strb	r3, [r6, #27]
 2699              		.loc 1 1392 11 is_stmt 1 view .LVU907
 2700              		.loc 1 1392 42 is_stmt 0 view .LVU908
 2701 0870 3377     		strb	r3, [r6, #28]
 2702 0872 E1E7     		b	.L271
 2703              	.LVL208:
 2704              	.L298:
 2705              		.loc 1 1392 42 view .LVU909
 2706              	.LBE53:
 2707              	.LBE90:
 2708              	.LBB91:
 2709              	.LBB35:
 2710              		.loc 1 1684 9 is_stmt 1 view .LVU910
 2711              		.loc 1 1684 32 is_stmt 0 view .LVU911
 2712 0874 0023     		movs	r3, #0
 2713              		.loc 1 1690 9 view .LVU912
 2714 0876 0422     		movs	r2, #4
 2715 0878 2046     		mov	r0, r4
 2716              		.loc 1 1685 35 view .LVU913
 2717 087a 86F84CA0 		strb	r10, [r6, #76]
 2718              		.loc 1 1684 32 view .LVU914
 2719 087e 7364     		str	r3, [r6, #68]
 2720              		.loc 1 1685 9 is_stmt 1 view .LVU915
 2721              		.loc 1 1690 9 view .LVU916
 2722 0880 07F5A067 		add	r7, r7, #1280
 2723              	.LVL209:
 2724              		.loc 1 1690 9 is_stmt 0 view .LVU917
 2725 0884 FFF7FEFF 		bl	HAL_HCD_HC_NotifyURBChange_Callback
 2726              	.LVL210:
 2727 0888 BBE7     		b	.L174
 2728              	.LVL211:
 2729              	.L297:
 2730              		.loc 1 1676 7 is_stmt 1 view .LVU918
 2731              		.loc 1 1676 29 is_stmt 0 view .LVU919
 2732 088a 0723     		movs	r3, #7
 2733 088c 07F5A067 		add	r7, r7, #1280
 2734              	.LVL212:
 2735              		.loc 1 1676 29 view .LVU920
 2736 0890 86F84D30 		strb	r3, [r6, #77]
ARM GAS  C:\Users\DEVELO~1\AppData\Local\Temp\ccmc7I4c.s 			page 49


 2737              		.loc 1 1677 7 is_stmt 1 view .LVU921
 2738              		.loc 1 1677 13 is_stmt 0 view .LVU922
 2739 0894 2068     		ldr	r0, [r4]
 2740 0896 FFF7FEFF 		bl	USB_HC_Halt
 2741              	.LVL213:
 2742 089a B2E7     		b	.L174
 2743              	.LVL214:
 2744              	.L172:
 2745              		.loc 1 1706 8 is_stmt 1 view .LVU923
 2746              		.loc 1 1706 12 is_stmt 0 view .LVU924
 2747 089c 2068     		ldr	r0, [r4]
 2748 089e 0091     		str	r1, [sp]
 2749 08a0 FFF7FEFF 		bl	USB_ReadChInterrupts
 2750              	.LVL215:
 2751              		.loc 1 1706 11 view .LVU925
 2752 08a4 10F4806F 		tst	r0, #1024
 2753 08a8 0099     		ldr	r1, [sp]
 2754 08aa 0CD0     		beq	.L176
 2755              		.loc 1 1708 5 is_stmt 1 view .LVU926
 2756              		.loc 1 1708 27 is_stmt 0 view .LVU927
 2757 08ac 0923     		movs	r3, #9
 2758 08ae 86F84D30 		strb	r3, [r6, #77]
 2759              		.loc 1 1709 5 is_stmt 1 view .LVU928
 2760              		.loc 1 1709 11 is_stmt 0 view .LVU929
 2761 08b2 2068     		ldr	r0, [r4]
 2762 08b4 FFF7FEFF 		bl	USB_HC_Halt
 2763              	.LVL216:
 2764              		.loc 1 1710 5 is_stmt 1 view .LVU930
 2765 08b8 07F5A063 		add	r3, r7, #1280
 2766 08bc 4FF48062 		mov	r2, #1024
 2767 08c0 4B44     		add	r3, r3, r9
 2768 08c2 9A60     		str	r2, [r3, #8]
 2769 08c4 4BE4     		b	.L117
 2770              	.L176:
 2771              		.loc 1 1712 8 view .LVU931
 2772              		.loc 1 1712 12 is_stmt 0 view .LVU932
 2773 08c6 2068     		ldr	r0, [r4]
 2774 08c8 0091     		str	r1, [sp]
 2775 08ca FFF7FEFF 		bl	USB_ReadChInterrupts
 2776              	.LVL217:
 2777              		.loc 1 1712 11 view .LVU933
 2778 08ce 8107     		lsls	r1, r0, #30
 2779 08d0 7FF545AC 		bpl	.L117
 2780              		.loc 1 1714 5 is_stmt 1 view .LVU934
 2781 08d4 07F5A067 		add	r7, r7, #1280
 2782              	.LVL218:
 2783              		.loc 1 1714 5 is_stmt 0 view .LVU935
 2784 08d8 0223     		movs	r3, #2
 2785              		.loc 1 1716 8 view .LVU936
 2786 08da 0099     		ldr	r1, [sp]
 2787              		.loc 1 1714 5 view .LVU937
 2788 08dc 07EB0902 		add	r2, r7, r9
 2789 08e0 9360     		str	r3, [r2, #8]
 2790              		.loc 1 1716 5 is_stmt 1 view .LVU938
 2791              		.loc 1 1716 24 is_stmt 0 view .LVU939
 2792 08e2 96F84D30 		ldrb	r3, [r6, #77]	@ zero_extendqisi2
 2793              		.loc 1 1716 8 view .LVU940
ARM GAS  C:\Users\DEVELO~1\AppData\Local\Temp\ccmc7I4c.s 			page 50


 2794 08e6 012B     		cmp	r3, #1
 2795 08e8 14D0     		beq	.L299
 2796              		.loc 1 1740 10 is_stmt 1 view .LVU941
 2797 08ea 033B     		subs	r3, r3, #3
 2798 08ec 062B     		cmp	r3, #6
 2799 08ee 3FF636AC 		bhi	.L117
 2800 08f2 01A0     		adr	r0, .L183
 2801 08f4 50F823F0 		ldr	pc, [r0, r3, lsl #2]
 2802              		.p2align 2
 2803              	.L183:
 2804 08f8 43080000 		.word	.L187+1
 2805 08fc 8D090000 		.word	.L186+1
 2806 0900 75090000 		.word	.L185+1
 2807 0904 89050000 		.word	.L184+1
 2808 0908 5D090000 		.word	.L182+1
 2809 090c 5F010000 		.word	.L117+1
 2810 0910 5D090000 		.word	.L182+1
 2811              		.p2align 1
 2812              	.L299:
 2813              		.loc 1 1718 7 view .LVU942
 2814              		.loc 1 1719 33 is_stmt 0 view .LVU943
 2815 0914 86F84C30 		strb	r3, [r6, #76]
 2816              		.loc 1 1718 29 view .LVU944
 2817 0918 4FF00203 		mov	r3, #2
 2818 091c 86F84D30 		strb	r3, [r6, #77]
 2819              		.loc 1 1719 7 is_stmt 1 view .LVU945
 2820              		.loc 1 1721 7 view .LVU946
 2821              		.loc 1 1721 53 is_stmt 0 view .LVU947
 2822 0920 96F82630 		ldrb	r3, [r6, #38]	@ zero_extendqisi2
 2823              		.loc 1 1721 10 view .LVU948
 2824 0924 023B     		subs	r3, r3, #2
 2825 0926 012B     		cmp	r3, #1
 2826 0928 3FF628AE 		bhi	.L179
 2827              		.loc 1 1724 9 is_stmt 1 view .LVU949
 2828              		.loc 1 1724 23 is_stmt 0 view .LVU950
 2829 092c A379     		ldrb	r3, [r4, #6]	@ zero_extendqisi2
 2830              		.loc 1 1724 12 view .LVU951
 2831 092e 73B1     		cbz	r3, .L273
 2832              		.loc 1 1729 9 is_stmt 1 view .LVU952
 2833              		.loc 1 1729 12 is_stmt 0 view .LVU953
 2834 0930 012B     		cmp	r3, #1
 2835 0932 7FF423AE 		bne	.L179
 2836              		.loc 1 1729 62 view .LVU954
 2837 0936 736B     		ldr	r3, [r6, #52]
 2838              		.loc 1 1729 43 view .LVU955
 2839 0938 002B     		cmp	r3, #0
 2840 093a 3FF41FAE 		beq	.L179
 2841              		.loc 1 1731 11 is_stmt 1 view .LVU956
 2842              		.loc 1 1731 68 is_stmt 0 view .LVU957
 2843 093e 328D     		ldrh	r2, [r6, #40]
 2844              	.LVL219:
 2845              		.loc 1 1733 11 is_stmt 1 view .LVU958
 2846              		.loc 1 1731 80 is_stmt 0 view .LVU959
 2847 0940 013B     		subs	r3, r3, #1
 2848              	.LVL220:
 2849              		.loc 1 1731 80 view .LVU960
 2850 0942 1344     		add	r3, r3, r2
ARM GAS  C:\Users\DEVELO~1\AppData\Local\Temp\ccmc7I4c.s 			page 51


 2851              		.loc 1 1731 23 view .LVU961
 2852 0944 B3FBF2F3 		udiv	r3, r3, r2
 2853              		.loc 1 1733 14 view .LVU962
 2854 0948 DA07     		lsls	r2, r3, #31
 2855              	.LVL221:
 2856              		.loc 1 1733 14 view .LVU963
 2857 094a 7FF517AE 		bpl	.L179
 2858              	.LVL222:
 2859              	.L273:
 2860              		.loc 1 1735 13 is_stmt 1 view .LVU964
 2861              		.loc 1 1735 40 is_stmt 0 view .LVU965
 2862 094e 96F83D30 		ldrb	r3, [r6, #61]	@ zero_extendqisi2
 2863 0952 83F00103 		eor	r3, r3, #1
 2864 0956 86F83D30 		strb	r3, [r6, #61]
 2865 095a 0FE6     		b	.L179
 2866              	.L182:
 2867              		.loc 1 1773 7 is_stmt 1 view .LVU966
 2868              		.loc 1 1773 29 is_stmt 0 view .LVU967
 2869 095c 4FF00203 		mov	r3, #2
 2870 0960 86F84D30 		strb	r3, [r6, #77]
 2871              		.loc 1 1774 7 is_stmt 1 view .LVU968
 2872              		.loc 1 1774 29 is_stmt 0 view .LVU969
 2873 0964 736C     		ldr	r3, [r6, #68]
 2874 0966 0133     		adds	r3, r3, #1
 2875              		.loc 1 1775 10 view .LVU970
 2876 0968 022B     		cmp	r3, #2
 2877              		.loc 1 1774 29 view .LVU971
 2878 096a 7364     		str	r3, [r6, #68]
 2879              		.loc 1 1775 7 is_stmt 1 view .LVU972
 2880              		.loc 1 1775 10 is_stmt 0 view .LVU973
 2881 096c 09D9     		bls	.L188
 2882              		.loc 1 1777 9 is_stmt 1 view .LVU974
 2883              		.loc 1 1777 32 is_stmt 0 view .LVU975
 2884 096e 0023     		movs	r3, #0
 2885 0970 7364     		str	r3, [r6, #68]
 2886 0972 01E6     		b	.L279
 2887              	.L185:
 2888              		.loc 1 1762 7 is_stmt 1 view .LVU976
 2889              		.loc 1 1762 29 is_stmt 0 view .LVU977
 2890 0974 4FF00203 		mov	r3, #2
 2891 0978 86F84D30 		strb	r3, [r6, #77]
 2892              		.loc 1 1763 7 is_stmt 1 view .LVU978
 2893              		.loc 1 1763 34 is_stmt 0 view .LVU979
 2894 097c 86F84C30 		strb	r3, [r6, #76]
 2895 0980 FCE5     		b	.L179
 2896              	.L188:
 2897              		.loc 1 1782 9 is_stmt 1 view .LVU980
 2898              		.loc 1 1782 35 is_stmt 0 view .LVU981
 2899 0982 4FF00203 		mov	r3, #2
 2900 0986 86F84C30 		strb	r3, [r6, #76]
 2901 098a 18E6     		b	.L278
 2902              	.L186:
 2903              		.loc 1 1751 7 is_stmt 1 view .LVU982
 2904              		.loc 1 1751 29 is_stmt 0 view .LVU983
 2905 098c 4FF00203 		mov	r3, #2
 2906 0990 86F84D30 		strb	r3, [r6, #77]
 2907              		.loc 1 1752 7 is_stmt 1 view .LVU984
ARM GAS  C:\Users\DEVELO~1\AppData\Local\Temp\ccmc7I4c.s 			page 52


 2908              		.loc 1 1752 33 is_stmt 0 view .LVU985
 2909 0994 86F84C30 		strb	r3, [r6, #76]
 2910              		.loc 1 1754 7 is_stmt 1 view .LVU986
 2911              		.loc 1 1754 10 is_stmt 0 view .LVU987
 2912 0998 F37E     		ldrb	r3, [r6, #27]	@ zero_extendqisi2
 2913 099a 012B     		cmp	r3, #1
 2914 099c 7FF4EEAD 		bne	.L179
 2915              		.loc 1 1756 9 is_stmt 1 view .LVU988
 2916              		.loc 1 1756 35 is_stmt 0 view .LVU989
 2917 09a0 4FF00003 		mov	r3, #0
 2918 09a4 F376     		strb	r3, [r6, #27]
 2919              		.loc 1 1757 9 is_stmt 1 view .LVU990
 2920 09a6 5368     		ldr	r3, [r2, #4]
 2921 09a8 23F48033 		bic	r3, r3, #65536
 2922 09ac 5360     		str	r3, [r2, #4]
 2923 09ae E5E5     		b	.L179
 2924              	.LBE35:
 2925              	.LBE91:
 2926              		.cfi_endproc
 2927              	.LFE148:
 2928              		.size	HAL_HCD_IRQHandler, .-HAL_HCD_IRQHandler
 2929              		.section	.text.HAL_HCD_Start,"ax",%progbits
 2930              		.align	1
 2931              		.p2align 2,,3
 2932              		.global	HAL_HCD_Start
 2933              		.syntax unified
 2934              		.thumb
 2935              		.thumb_func
 2936              		.type	HAL_HCD_Start, %function
 2937              	HAL_HCD_Start:
 2938              	.LVL223:
 2939              	.LFB155:
 2940              		.loc 1 1047 1 view -0
 2941              		.cfi_startproc
 2942              		@ args = 0, pretend = 0, frame = 0
 2943              		@ frame_needed = 0, uses_anonymous_args = 0
 2944              		.loc 1 1048 3 view .LVU992
 2945              		.loc 1 1048 3 view .LVU993
 2946 0000 90F8D433 		ldrb	r3, [r0, #980]	@ zero_extendqisi2
 2947 0004 012B     		cmp	r3, #1
 2948 0006 0FD0     		beq	.L302
 2949              		.loc 1 1048 3 discriminator 2 view .LVU994
 2950 0008 0121     		movs	r1, #1
 2951              		.loc 1 1047 1 is_stmt 0 discriminator 2 view .LVU995
 2952 000a 10B5     		push	{r4, lr}
 2953              		.cfi_def_cfa_offset 8
 2954              		.cfi_offset 4, -8
 2955              		.cfi_offset 14, -4
 2956 000c 0446     		mov	r4, r0
 2957              		.loc 1 1050 9 discriminator 2 view .LVU996
 2958 000e 0068     		ldr	r0, [r0]
 2959              	.LVL224:
 2960              		.loc 1 1048 3 discriminator 2 view .LVU997
 2961 0010 84F8D413 		strb	r1, [r4, #980]
 2962              		.loc 1 1048 3 is_stmt 1 discriminator 2 view .LVU998
 2963              		.loc 1 1050 3 discriminator 2 view .LVU999
 2964              		.loc 1 1050 9 is_stmt 0 discriminator 2 view .LVU1000
ARM GAS  C:\Users\DEVELO~1\AppData\Local\Temp\ccmc7I4c.s 			page 53


 2965 0014 FFF7FEFF 		bl	USB_DriveVbus
 2966              	.LVL225:
 2967              		.loc 1 1053 3 is_stmt 1 discriminator 2 view .LVU1001
 2968 0018 2068     		ldr	r0, [r4]
 2969 001a FFF7FEFF 		bl	USB_EnableGlobalInt
 2970              	.LVL226:
 2971              		.loc 1 1054 3 discriminator 2 view .LVU1002
 2972              		.loc 1 1054 3 discriminator 2 view .LVU1003
 2973 001e 0023     		movs	r3, #0
 2974              		.loc 1 1056 10 is_stmt 0 discriminator 2 view .LVU1004
 2975 0020 1846     		mov	r0, r3
 2976              		.loc 1 1054 3 discriminator 2 view .LVU1005
 2977 0022 84F8D433 		strb	r3, [r4, #980]
 2978              		.loc 1 1054 3 is_stmt 1 discriminator 2 view .LVU1006
 2979              		.loc 1 1056 3 discriminator 2 view .LVU1007
 2980              		.loc 1 1057 1 is_stmt 0 discriminator 2 view .LVU1008
 2981 0026 10BD     		pop	{r4, pc}
 2982              	.LVL227:
 2983              	.L302:
 2984              		.cfi_def_cfa_offset 0
 2985              		.cfi_restore 4
 2986              		.cfi_restore 14
 2987              		.loc 1 1048 3 view .LVU1009
 2988 0028 0220     		movs	r0, #2
 2989              	.LVL228:
 2990              		.loc 1 1057 1 view .LVU1010
 2991 002a 7047     		bx	lr
 2992              		.cfi_endproc
 2993              	.LFE155:
 2994              		.size	HAL_HCD_Start, .-HAL_HCD_Start
 2995              		.section	.text.HAL_HCD_Stop,"ax",%progbits
 2996              		.align	1
 2997              		.p2align 2,,3
 2998              		.global	HAL_HCD_Stop
 2999              		.syntax unified
 3000              		.thumb
 3001              		.thumb_func
 3002              		.type	HAL_HCD_Stop, %function
 3003              	HAL_HCD_Stop:
 3004              	.LVL229:
 3005              	.LFB156:
 3006              		.loc 1 1066 1 is_stmt 1 view -0
 3007              		.cfi_startproc
 3008              		@ args = 0, pretend = 0, frame = 0
 3009              		@ frame_needed = 0, uses_anonymous_args = 0
 3010              		.loc 1 1067 3 view .LVU1012
 3011              		.loc 1 1067 3 view .LVU1013
 3012 0000 90F8D433 		ldrb	r3, [r0, #980]	@ zero_extendqisi2
 3013 0004 012B     		cmp	r3, #1
 3014 0006 0CD0     		beq	.L309
 3015              		.loc 1 1067 3 discriminator 2 view .LVU1014
 3016 0008 0123     		movs	r3, #1
 3017              		.loc 1 1066 1 is_stmt 0 discriminator 2 view .LVU1015
 3018 000a 10B5     		push	{r4, lr}
 3019              		.cfi_def_cfa_offset 8
 3020              		.cfi_offset 4, -8
 3021              		.cfi_offset 14, -4
ARM GAS  C:\Users\DEVELO~1\AppData\Local\Temp\ccmc7I4c.s 			page 54


 3022 000c 0446     		mov	r4, r0
 3023              		.loc 1 1068 9 discriminator 2 view .LVU1016
 3024 000e 0068     		ldr	r0, [r0]
 3025              	.LVL230:
 3026              		.loc 1 1067 3 discriminator 2 view .LVU1017
 3027 0010 84F8D433 		strb	r3, [r4, #980]
 3028              		.loc 1 1067 3 is_stmt 1 discriminator 2 view .LVU1018
 3029              		.loc 1 1068 3 discriminator 2 view .LVU1019
 3030              		.loc 1 1068 9 is_stmt 0 discriminator 2 view .LVU1020
 3031 0014 FFF7FEFF 		bl	USB_StopHost
 3032              	.LVL231:
 3033              		.loc 1 1069 3 is_stmt 1 discriminator 2 view .LVU1021
 3034              		.loc 1 1069 3 discriminator 2 view .LVU1022
 3035 0018 0023     		movs	r3, #0
 3036              		.loc 1 1071 10 is_stmt 0 discriminator 2 view .LVU1023
 3037 001a 1846     		mov	r0, r3
 3038              		.loc 1 1069 3 discriminator 2 view .LVU1024
 3039 001c 84F8D433 		strb	r3, [r4, #980]
 3040              		.loc 1 1069 3 is_stmt 1 discriminator 2 view .LVU1025
 3041              		.loc 1 1071 3 discriminator 2 view .LVU1026
 3042              		.loc 1 1072 1 is_stmt 0 discriminator 2 view .LVU1027
 3043 0020 10BD     		pop	{r4, pc}
 3044              	.LVL232:
 3045              	.L309:
 3046              		.cfi_def_cfa_offset 0
 3047              		.cfi_restore 4
 3048              		.cfi_restore 14
 3049              		.loc 1 1067 3 view .LVU1028
 3050 0022 0220     		movs	r0, #2
 3051              	.LVL233:
 3052              		.loc 1 1072 1 view .LVU1029
 3053 0024 7047     		bx	lr
 3054              		.cfi_endproc
 3055              	.LFE156:
 3056              		.size	HAL_HCD_Stop, .-HAL_HCD_Stop
 3057 0026 00BF     		.section	.text.HAL_HCD_ResetPort,"ax",%progbits
 3058              		.align	1
 3059              		.p2align 2,,3
 3060              		.global	HAL_HCD_ResetPort
 3061              		.syntax unified
 3062              		.thumb
 3063              		.thumb_func
 3064              		.type	HAL_HCD_ResetPort, %function
 3065              	HAL_HCD_ResetPort:
 3066              	.LVL234:
 3067              	.LFB157:
 3068              		.loc 1 1080 1 is_stmt 1 view -0
 3069              		.cfi_startproc
 3070              		@ args = 0, pretend = 0, frame = 0
 3071              		@ frame_needed = 0, uses_anonymous_args = 0
 3072              		@ link register save eliminated.
 3073              		.loc 1 1081 3 view .LVU1031
 3074              		.loc 1 1081 11 is_stmt 0 view .LVU1032
 3075 0000 0068     		ldr	r0, [r0]
 3076              	.LVL235:
 3077              		.loc 1 1081 11 view .LVU1033
 3078 0002 FFF7FEBF 		b	USB_ResetPort
ARM GAS  C:\Users\DEVELO~1\AppData\Local\Temp\ccmc7I4c.s 			page 55


 3079              	.LVL236:
 3080              		.cfi_endproc
 3081              	.LFE157:
 3082              		.size	HAL_HCD_ResetPort, .-HAL_HCD_ResetPort
 3083 0006 00BF     		.section	.text.HAL_HCD_GetState,"ax",%progbits
 3084              		.align	1
 3085              		.p2align 2,,3
 3086              		.global	HAL_HCD_GetState
 3087              		.syntax unified
 3088              		.thumb
 3089              		.thumb_func
 3090              		.type	HAL_HCD_GetState, %function
 3091              	HAL_HCD_GetState:
 3092              	.LVL237:
 3093              	.LFB158:
 3094              		.loc 1 1109 1 is_stmt 1 view -0
 3095              		.cfi_startproc
 3096              		@ args = 0, pretend = 0, frame = 0
 3097              		@ frame_needed = 0, uses_anonymous_args = 0
 3098              		@ link register save eliminated.
 3099              		.loc 1 1110 3 view .LVU1035
 3100              		.loc 1 1110 14 is_stmt 0 view .LVU1036
 3101 0000 90F8D503 		ldrb	r0, [r0, #981]	@ zero_extendqisi2
 3102              	.LVL238:
 3103              		.loc 1 1111 1 view .LVU1037
 3104 0004 7047     		bx	lr
 3105              		.cfi_endproc
 3106              	.LFE158:
 3107              		.size	HAL_HCD_GetState, .-HAL_HCD_GetState
 3108 0006 00BF     		.section	.text.HAL_HCD_HC_GetURBState,"ax",%progbits
 3109              		.align	1
 3110              		.p2align 2,,3
 3111              		.global	HAL_HCD_HC_GetURBState
 3112              		.syntax unified
 3113              		.thumb
 3114              		.thumb_func
 3115              		.type	HAL_HCD_HC_GetURBState, %function
 3116              	HAL_HCD_HC_GetURBState:
 3117              	.LVL239:
 3118              	.LFB159:
 3119              		.loc 1 1128 1 is_stmt 1 view -0
 3120              		.cfi_startproc
 3121              		@ args = 0, pretend = 0, frame = 0
 3122              		@ frame_needed = 0, uses_anonymous_args = 0
 3123              		@ link register save eliminated.
 3124              		.loc 1 1129 3 view .LVU1039
 3125              		.loc 1 1129 25 is_stmt 0 view .LVU1040
 3126 0000 C1EB0111 		rsb	r1, r1, r1, lsl #4
 3127              	.LVL240:
 3128              		.loc 1 1129 25 view .LVU1041
 3129 0004 00EB8100 		add	r0, r0, r1, lsl #2
 3130              	.LVL241:
 3131              		.loc 1 1130 1 view .LVU1042
 3132 0008 90F84C00 		ldrb	r0, [r0, #76]	@ zero_extendqisi2
 3133 000c 7047     		bx	lr
 3134              		.cfi_endproc
 3135              	.LFE159:
ARM GAS  C:\Users\DEVELO~1\AppData\Local\Temp\ccmc7I4c.s 			page 56


 3136              		.size	HAL_HCD_HC_GetURBState, .-HAL_HCD_HC_GetURBState
 3137 000e 00BF     		.section	.text.HAL_HCD_HC_GetXferCount,"ax",%progbits
 3138              		.align	1
 3139              		.p2align 2,,3
 3140              		.global	HAL_HCD_HC_GetXferCount
 3141              		.syntax unified
 3142              		.thumb
 3143              		.thumb_func
 3144              		.type	HAL_HCD_HC_GetXferCount, %function
 3145              	HAL_HCD_HC_GetXferCount:
 3146              	.LVL242:
 3147              	.LFB160:
 3148              		.loc 1 1141 1 is_stmt 1 view -0
 3149              		.cfi_startproc
 3150              		@ args = 0, pretend = 0, frame = 0
 3151              		@ frame_needed = 0, uses_anonymous_args = 0
 3152              		@ link register save eliminated.
 3153              		.loc 1 1142 3 view .LVU1044
 3154              		.loc 1 1142 25 is_stmt 0 view .LVU1045
 3155 0000 C1EB0111 		rsb	r1, r1, r1, lsl #4
 3156              	.LVL243:
 3157              		.loc 1 1142 25 view .LVU1046
 3158 0004 00EB8100 		add	r0, r0, r1, lsl #2
 3159              	.LVL244:
 3160              		.loc 1 1143 1 view .LVU1047
 3161 0008 806B     		ldr	r0, [r0, #56]
 3162 000a 7047     		bx	lr
 3163              		.cfi_endproc
 3164              	.LFE160:
 3165              		.size	HAL_HCD_HC_GetXferCount, .-HAL_HCD_HC_GetXferCount
 3166              		.section	.text.HAL_HCD_HC_GetState,"ax",%progbits
 3167              		.align	1
 3168              		.p2align 2,,3
 3169              		.global	HAL_HCD_HC_GetState
 3170              		.syntax unified
 3171              		.thumb
 3172              		.thumb_func
 3173              		.type	HAL_HCD_HC_GetState, %function
 3174              	HAL_HCD_HC_GetState:
 3175              	.LVL245:
 3176              	.LFB161:
 3177              		.loc 1 1163 1 is_stmt 1 view -0
 3178              		.cfi_startproc
 3179              		@ args = 0, pretend = 0, frame = 0
 3180              		@ frame_needed = 0, uses_anonymous_args = 0
 3181              		@ link register save eliminated.
 3182              		.loc 1 1164 3 view .LVU1049
 3183              		.loc 1 1164 25 is_stmt 0 view .LVU1050
 3184 0000 C1EB0111 		rsb	r1, r1, r1, lsl #4
 3185              	.LVL246:
 3186              		.loc 1 1164 25 view .LVU1051
 3187 0004 00EB8100 		add	r0, r0, r1, lsl #2
 3188              	.LVL247:
 3189              		.loc 1 1165 1 view .LVU1052
 3190 0008 90F84D00 		ldrb	r0, [r0, #77]	@ zero_extendqisi2
 3191 000c 7047     		bx	lr
 3192              		.cfi_endproc
ARM GAS  C:\Users\DEVELO~1\AppData\Local\Temp\ccmc7I4c.s 			page 57


 3193              	.LFE161:
 3194              		.size	HAL_HCD_HC_GetState, .-HAL_HCD_HC_GetState
 3195 000e 00BF     		.section	.text.HAL_HCD_GetCurrentFrame,"ax",%progbits
 3196              		.align	1
 3197              		.p2align 2,,3
 3198              		.global	HAL_HCD_GetCurrentFrame
 3199              		.syntax unified
 3200              		.thumb
 3201              		.thumb_func
 3202              		.type	HAL_HCD_GetCurrentFrame, %function
 3203              	HAL_HCD_GetCurrentFrame:
 3204              	.LVL248:
 3205              	.LFB162:
 3206              		.loc 1 1173 1 is_stmt 1 view -0
 3207              		.cfi_startproc
 3208              		@ args = 0, pretend = 0, frame = 0
 3209              		@ frame_needed = 0, uses_anonymous_args = 0
 3210              		@ link register save eliminated.
 3211              		.loc 1 1174 3 view .LVU1054
 3212              		.loc 1 1174 11 is_stmt 0 view .LVU1055
 3213 0000 0068     		ldr	r0, [r0]
 3214              	.LVL249:
 3215              		.loc 1 1174 11 view .LVU1056
 3216 0002 FFF7FEBF 		b	USB_GetCurrentFrame
 3217              	.LVL250:
 3218              		.cfi_endproc
 3219              	.LFE162:
 3220              		.size	HAL_HCD_GetCurrentFrame, .-HAL_HCD_GetCurrentFrame
 3221 0006 00BF     		.section	.text.HAL_HCD_GetCurrentSpeed,"ax",%progbits
 3222              		.align	1
 3223              		.p2align 2,,3
 3224              		.global	HAL_HCD_GetCurrentSpeed
 3225              		.syntax unified
 3226              		.thumb
 3227              		.thumb_func
 3228              		.type	HAL_HCD_GetCurrentSpeed, %function
 3229              	HAL_HCD_GetCurrentSpeed:
 3230              	.LVL251:
 3231              	.LFB163:
 3232              		.loc 1 1183 1 is_stmt 1 view -0
 3233              		.cfi_startproc
 3234              		@ args = 0, pretend = 0, frame = 0
 3235              		@ frame_needed = 0, uses_anonymous_args = 0
 3236              		@ link register save eliminated.
 3237              		.loc 1 1184 3 view .LVU1058
 3238              		.loc 1 1184 11 is_stmt 0 view .LVU1059
 3239 0000 0068     		ldr	r0, [r0]
 3240              	.LVL252:
 3241              		.loc 1 1184 11 view .LVU1060
 3242 0002 FFF7FEBF 		b	USB_GetHostSpeed
 3243              	.LVL253:
 3244              		.cfi_endproc
 3245              	.LFE163:
 3246              		.size	HAL_HCD_GetCurrentSpeed, .-HAL_HCD_GetCurrentSpeed
 3247 0006 00BF     		.section	.text.HAL_HCD_HC_SetHubInfo,"ax",%progbits
 3248              		.align	1
 3249              		.p2align 2,,3
ARM GAS  C:\Users\DEVELO~1\AppData\Local\Temp\ccmc7I4c.s 			page 58


 3250              		.global	HAL_HCD_HC_SetHubInfo
 3251              		.syntax unified
 3252              		.thumb
 3253              		.thumb_func
 3254              		.type	HAL_HCD_HC_SetHubInfo, %function
 3255              	HAL_HCD_HC_SetHubInfo:
 3256              	.LVL254:
 3257              	.LFB164:
 3258              		.loc 1 1198 1 is_stmt 1 view -0
 3259              		.cfi_startproc
 3260              		@ args = 0, pretend = 0, frame = 0
 3261              		@ frame_needed = 0, uses_anonymous_args = 0
 3262              		.loc 1 1199 3 view .LVU1062
 3263              		.loc 1 1198 1 is_stmt 0 view .LVU1063
 3264 0000 F8B5     		push	{r3, r4, r5, r6, r7, lr}
 3265              		.cfi_def_cfa_offset 24
 3266              		.cfi_offset 3, -24
 3267              		.cfi_offset 4, -20
 3268              		.cfi_offset 5, -16
 3269              		.cfi_offset 6, -12
 3270              		.cfi_offset 7, -8
 3271              		.cfi_offset 14, -4
 3272              		.loc 1 1198 1 view .LVU1064
 3273 0002 0D46     		mov	r5, r1
 3274 0004 0446     		mov	r4, r0
 3275              		.loc 1 1199 28 view .LVU1065
 3276 0006 0068     		ldr	r0, [r0]
 3277              	.LVL255:
 3278              		.loc 1 1198 1 view .LVU1066
 3279 0008 1746     		mov	r7, r2
 3280 000a 1E46     		mov	r6, r3
 3281              		.loc 1 1199 28 view .LVU1067
 3282 000c FFF7FEFF 		bl	USB_GetHostSpeed
 3283              	.LVL256:
 3284              		.loc 1 1202 3 is_stmt 1 view .LVU1068
 3285              		.loc 1 1202 24 is_stmt 0 view .LVU1069
 3286 0010 C5EB0511 		rsb	r1, r5, r5, lsl #4
 3287 0014 2B01     		lsls	r3, r5, #4
 3288 0016 04EB8101 		add	r1, r4, r1, lsl #2
 3289              		.loc 1 1202 6 view .LVU1070
 3290 001a 0A7E     		ldrb	r2, [r1, #24]	@ zero_extendqisi2
 3291              		.loc 1 1202 57 view .LVU1071
 3292 001c 02B1     		cbz	r2, .L324
 3293 001e 40B1     		cbz	r0, .L333
 3294              	.LVL257:
 3295              	.L324:
 3296              		.loc 1 1212 3 is_stmt 1 view .LVU1072
 3297              		.loc 1 1212 29 is_stmt 0 view .LVU1073
 3298 0020 5B1B     		subs	r3, r3, r5
 3299              		.loc 1 1216 1 view .LVU1074
 3300 0022 0020     		movs	r0, #0
 3301              		.loc 1 1212 29 view .LVU1075
 3302 0024 04EB8304 		add	r4, r4, r3, lsl #2
 3303              	.LVL258:
 3304              		.loc 1 1212 29 view .LVU1076
 3305 0028 84F82570 		strb	r7, [r4, #37]
 3306              		.loc 1 1213 3 is_stmt 1 view .LVU1077
ARM GAS  C:\Users\DEVELO~1\AppData\Local\Temp\ccmc7I4c.s 			page 59


 3307              		.loc 1 1213 33 is_stmt 0 view .LVU1078
 3308 002c 84F82460 		strb	r6, [r4, #36]
 3309              		.loc 1 1215 3 is_stmt 1 view .LVU1079
 3310              		.loc 1 1216 1 is_stmt 0 view .LVU1080
 3311 0030 F8BD     		pop	{r3, r4, r5, r6, r7, pc}
 3312              	.LVL259:
 3313              	.L333:
 3314              		.loc 1 1204 5 is_stmt 1 view .LVU1081
 3315              		.loc 1 1204 32 is_stmt 0 view .LVU1082
 3316 0032 0122     		movs	r2, #1
 3317              		.loc 1 1206 8 view .LVU1083
 3318 0034 91F82600 		ldrb	r0, [r1, #38]	@ zero_extendqisi2
 3319              	.LVL260:
 3320              		.loc 1 1204 32 view .LVU1084
 3321 0038 8A76     		strb	r2, [r1, #26]
 3322              		.loc 1 1206 5 is_stmt 1 view .LVU1085
 3323              		.loc 1 1206 8 is_stmt 0 view .LVU1086
 3324 003a 0028     		cmp	r0, #0
 3325 003c F0D1     		bne	.L324
 3326              		.loc 1 1206 52 discriminator 1 view .LVU1087
 3327 003e C87D     		ldrb	r0, [r1, #23]	@ zero_extendqisi2
 3328 0040 0028     		cmp	r0, #0
 3329 0042 EDD0     		beq	.L324
 3330              		.loc 1 1208 7 is_stmt 1 view .LVU1088
 3331              		.loc 1 1208 34 is_stmt 0 view .LVU1089
 3332 0044 81F83C20 		strb	r2, [r1, #60]
 3333 0048 EAE7     		b	.L324
 3334              		.cfi_endproc
 3335              	.LFE164:
 3336              		.size	HAL_HCD_HC_SetHubInfo, .-HAL_HCD_HC_SetHubInfo
 3337 004a 00BF     		.section	.text.HAL_HCD_HC_ClearHubInfo,"ax",%progbits
 3338              		.align	1
 3339              		.p2align 2,,3
 3340              		.global	HAL_HCD_HC_ClearHubInfo
 3341              		.syntax unified
 3342              		.thumb
 3343              		.thumb_func
 3344              		.type	HAL_HCD_HC_ClearHubInfo, %function
 3345              	HAL_HCD_HC_ClearHubInfo:
 3346              	.LVL261:
 3347              	.LFB165:
 3348              		.loc 1 1227 1 is_stmt 1 view -0
 3349              		.cfi_startproc
 3350              		@ args = 0, pretend = 0, frame = 0
 3351              		@ frame_needed = 0, uses_anonymous_args = 0
 3352              		@ link register save eliminated.
 3353              		.loc 1 1228 3 view .LVU1091
 3354              		.loc 1 1229 3 view .LVU1092
 3355              		.loc 1 1227 1 is_stmt 0 view .LVU1093
 3356 0000 0346     		mov	r3, r0
 3357              		.loc 1 1228 30 view .LVU1094
 3358 0002 C1EB0111 		rsb	r1, r1, r1, lsl #4
 3359              	.LVL262:
 3360              		.loc 1 1228 30 view .LVU1095
 3361 0006 0020     		movs	r0, #0
 3362              	.LVL263:
 3363              		.loc 1 1228 30 view .LVU1096
ARM GAS  C:\Users\DEVELO~1\AppData\Local\Temp\ccmc7I4c.s 			page 60


 3364 0008 03EB8101 		add	r1, r3, r1, lsl #2
 3365 000c 4883     		strh	r0, [r1, #26]	@ movhi
 3366              		.loc 1 1230 3 is_stmt 1 view .LVU1097
 3367              		.loc 1 1231 3 view .LVU1098
 3368              		.loc 1 1231 33 is_stmt 0 view .LVU1099
 3369 000e 8884     		strh	r0, [r1, #36]	@ movhi
 3370              		.loc 1 1233 3 is_stmt 1 view .LVU1100
 3371              		.loc 1 1234 1 is_stmt 0 view .LVU1101
 3372 0010 7047     		bx	lr
 3373              		.cfi_endproc
 3374              	.LFE165:
 3375              		.size	HAL_HCD_HC_ClearHubInfo, .-HAL_HCD_HC_ClearHubInfo
 3376 0012 00BF     		.text
 3377              	.Letext0:
 3378              		.file 2 "c:\\chibistudio\\tools\\gnu tools arm embedded\\11.3 2022.08\\arm-none-eabi\\include\\mac
 3379              		.file 3 "c:\\chibistudio\\tools\\gnu tools arm embedded\\11.3 2022.08\\arm-none-eabi\\include\\sys
 3380              		.file 4 "./docs/ChibiOS/os/common/ext/ST/STM32H7xx/stm32h743xx.h"
 3381              		.file 5 "./drivers/stm32h7xx-hal-driver/Inc/stm32h7xx_hal_def.h"
 3382              		.file 6 "./drivers/stm32h7xx-hal-driver/Inc/stm32h7xx_ll_usb.h"
 3383              		.file 7 "./drivers/stm32h7xx-hal-driver/Inc/stm32h7xx_hal_hcd.h"
 3384              		.section	.debug_info,"",%progbits
 3385              	.Ldebug_info0:
 3386 0000 9E180000 		.4byte	0x189e
 3387 0004 0500     		.2byte	0x5
 3388 0006 01       		.byte	0x1
 3389 0007 04       		.byte	0x4
 3390 0008 00000000 		.4byte	.Ldebug_abbrev0
 3391 000c 2B       		.uleb128 0x2b
 3392 000d A7090000 		.4byte	.LASF228
 3393 0011 1D       		.byte	0x1d
 3394 0012 1A060000 		.4byte	.LASF229
 3395 0016 2A000000 		.4byte	.LASF230
 3396 001a E1000000 		.4byte	.LLRL71
 3397 001e 00000000 		.4byte	0
 3398 0022 00000000 		.4byte	.Ldebug_line0
 3399 0026 0E       		.uleb128 0xe
 3400 0027 04       		.byte	0x4
 3401 0028 07       		.byte	0x7
 3402 0029 760C0000 		.4byte	.LASF0
 3403 002d 0E       		.uleb128 0xe
 3404 002e 02       		.byte	0x2
 3405 002f 05       		.byte	0x5
 3406 0030 F5070000 		.4byte	.LASF1
 3407 0034 0E       		.uleb128 0xe
 3408 0035 01       		.byte	0x1
 3409 0036 06       		.byte	0x6
 3410 0037 2C0C0000 		.4byte	.LASF2
 3411 003b 09       		.uleb128 0x9
 3412 003c BC000000 		.4byte	.LASF4
 3413 0040 02       		.byte	0x2
 3414 0041 2B       		.byte	0x2b
 3415 0042 18       		.byte	0x18
 3416 0043 47000000 		.4byte	0x47
 3417 0047 0E       		.uleb128 0xe
 3418 0048 01       		.byte	0x1
 3419 0049 08       		.byte	0x8
 3420 004a C9070000 		.4byte	.LASF3
ARM GAS  C:\Users\DEVELO~1\AppData\Local\Temp\ccmc7I4c.s 			page 61


 3421 004e 09       		.uleb128 0x9
 3422 004f 84090000 		.4byte	.LASF5
 3423 0053 02       		.byte	0x2
 3424 0054 39       		.byte	0x39
 3425 0055 19       		.byte	0x19
 3426 0056 5A000000 		.4byte	0x5a
 3427 005a 0E       		.uleb128 0xe
 3428 005b 02       		.byte	0x2
 3429 005c 07       		.byte	0x7
 3430 005d E9040000 		.4byte	.LASF6
 3431 0061 0E       		.uleb128 0xe
 3432 0062 04       		.byte	0x4
 3433 0063 05       		.byte	0x5
 3434 0064 9B020000 		.4byte	.LASF7
 3435 0068 09       		.uleb128 0x9
 3436 0069 E80A0000 		.4byte	.LASF8
 3437 006d 02       		.byte	0x2
 3438 006e 4F       		.byte	0x4f
 3439 006f 19       		.byte	0x19
 3440 0070 74000000 		.4byte	0x74
 3441 0074 0E       		.uleb128 0xe
 3442 0075 04       		.byte	0x4
 3443 0076 07       		.byte	0x7
 3444 0077 EE010000 		.4byte	.LASF9
 3445 007b 0E       		.uleb128 0xe
 3446 007c 08       		.byte	0x8
 3447 007d 05       		.byte	0x5
 3448 007e C5010000 		.4byte	.LASF10
 3449 0082 0E       		.uleb128 0xe
 3450 0083 08       		.byte	0x8
 3451 0084 07       		.byte	0x7
 3452 0085 2C010000 		.4byte	.LASF11
 3453 0089 2C       		.uleb128 0x2c
 3454 008a 04       		.byte	0x4
 3455 008b 05       		.byte	0x5
 3456 008c 696E7400 		.ascii	"int\000"
 3457 0090 09       		.uleb128 0x9
 3458 0091 720A0000 		.4byte	.LASF12
 3459 0095 03       		.byte	0x3
 3460 0096 18       		.byte	0x18
 3461 0097 13       		.byte	0x13
 3462 0098 3B000000 		.4byte	0x3b
 3463 009c 09       		.uleb128 0x9
 3464 009d 08030000 		.4byte	.LASF13
 3465 00a1 03       		.byte	0x3
 3466 00a2 24       		.byte	0x24
 3467 00a3 14       		.byte	0x14
 3468 00a4 4E000000 		.4byte	0x4e
 3469 00a8 09       		.uleb128 0x9
 3470 00a9 C8080000 		.4byte	.LASF14
 3471 00ad 03       		.byte	0x3
 3472 00ae 30       		.byte	0x30
 3473 00af 14       		.byte	0x14
 3474 00b0 68000000 		.4byte	0x68
 3475 00b4 1D       		.uleb128 0x1d
 3476 00b5 A8000000 		.4byte	0xa8
 3477 00b9 16       		.uleb128 0x16
ARM GAS  C:\Users\DEVELO~1\AppData\Local\Temp\ccmc7I4c.s 			page 62


 3478 00ba A8000000 		.4byte	0xa8
 3479 00be C9000000 		.4byte	0xc9
 3480 00c2 17       		.uleb128 0x17
 3481 00c3 26000000 		.4byte	0x26
 3482 00c7 01       		.byte	0x1
 3483 00c8 00       		.byte	0
 3484 00c9 16       		.uleb128 0x16
 3485 00ca A8000000 		.4byte	0xa8
 3486 00ce D9000000 		.4byte	0xd9
 3487 00d2 17       		.uleb128 0x17
 3488 00d3 26000000 		.4byte	0x26
 3489 00d7 26       		.byte	0x26
 3490 00d8 00       		.byte	0
 3491 00d9 2D       		.uleb128 0x2d
 3492 00da 4001     		.2byte	0x140
 3493 00dc 04       		.byte	0x4
 3494 00dd 3B07     		.2byte	0x73b
 3495 00df 09       		.byte	0x9
 3496 00e0 45020000 		.4byte	0x245
 3497 00e4 04       		.uleb128 0x4
 3498 00e5 BF0A0000 		.4byte	.LASF15
 3499 00e9 3D07     		.2byte	0x73d
 3500 00eb 10       		.byte	0x10
 3501 00ec B4000000 		.4byte	0xb4
 3502 00f0 00       		.byte	0
 3503 00f1 04       		.uleb128 0x4
 3504 00f2 D7030000 		.4byte	.LASF16
 3505 00f6 3E07     		.2byte	0x73e
 3506 00f8 11       		.byte	0x11
 3507 00f9 B4000000 		.4byte	0xb4
 3508 00fd 04       		.byte	0x4
 3509 00fe 04       		.uleb128 0x4
 3510 00ff C6000000 		.4byte	.LASF17
 3511 0103 3F07     		.2byte	0x73f
 3512 0105 11       		.byte	0x11
 3513 0106 B4000000 		.4byte	0xb4
 3514 010a 08       		.byte	0x8
 3515 010b 04       		.uleb128 0x4
 3516 010c 41070000 		.4byte	.LASF18
 3517 0110 4007     		.2byte	0x740
 3518 0112 11       		.byte	0x11
 3519 0113 B4000000 		.4byte	0xb4
 3520 0117 0C       		.byte	0xc
 3521 0118 04       		.uleb128 0x4
 3522 0119 30050000 		.4byte	.LASF19
 3523 011d 4107     		.2byte	0x741
 3524 011f 11       		.byte	0x11
 3525 0120 B4000000 		.4byte	0xb4
 3526 0124 10       		.byte	0x10
 3527 0125 04       		.uleb128 0x4
 3528 0126 0A050000 		.4byte	.LASF20
 3529 012a 4207     		.2byte	0x742
 3530 012c 11       		.byte	0x11
 3531 012d B4000000 		.4byte	0xb4
 3532 0131 14       		.byte	0x14
 3533 0132 04       		.uleb128 0x4
 3534 0133 FF070000 		.4byte	.LASF21
ARM GAS  C:\Users\DEVELO~1\AppData\Local\Temp\ccmc7I4c.s 			page 63


 3535 0137 4307     		.2byte	0x743
 3536 0139 11       		.byte	0x11
 3537 013a B4000000 		.4byte	0xb4
 3538 013e 18       		.byte	0x18
 3539 013f 04       		.uleb128 0x4
 3540 0140 EC050000 		.4byte	.LASF22
 3541 0144 4407     		.2byte	0x744
 3542 0146 11       		.byte	0x11
 3543 0147 B4000000 		.4byte	0xb4
 3544 014b 1C       		.byte	0x1c
 3545 014c 04       		.uleb128 0x4
 3546 014d E4050000 		.4byte	.LASF23
 3547 0151 4507     		.2byte	0x745
 3548 0153 11       		.byte	0x11
 3549 0154 B4000000 		.4byte	0xb4
 3550 0158 20       		.byte	0x20
 3551 0159 04       		.uleb128 0x4
 3552 015a 10010000 		.4byte	.LASF24
 3553 015e 4607     		.2byte	0x746
 3554 0160 11       		.byte	0x11
 3555 0161 B4000000 		.4byte	0xb4
 3556 0165 24       		.byte	0x24
 3557 0166 04       		.uleb128 0x4
 3558 0167 B6030000 		.4byte	.LASF25
 3559 016b 4707     		.2byte	0x747
 3560 016d 11       		.byte	0x11
 3561 016e B4000000 		.4byte	0xb4
 3562 0172 28       		.byte	0x28
 3563 0173 04       		.uleb128 0x4
 3564 0174 6D0C0000 		.4byte	.LASF26
 3565 0178 4807     		.2byte	0x748
 3566 017a 11       		.byte	0x11
 3567 017b B4000000 		.4byte	0xb4
 3568 017f 2C       		.byte	0x2c
 3569 0180 04       		.uleb128 0x4
 3570 0181 DE060000 		.4byte	.LASF27
 3571 0185 4907     		.2byte	0x749
 3572 0187 0C       		.byte	0xc
 3573 0188 B9000000 		.4byte	0xb9
 3574 018c 30       		.byte	0x30
 3575 018d 04       		.uleb128 0x4
 3576 018e D00B0000 		.4byte	.LASF28
 3577 0192 4A07     		.2byte	0x74a
 3578 0194 11       		.byte	0x11
 3579 0195 B4000000 		.4byte	0xb4
 3580 0199 38       		.byte	0x38
 3581 019a 2E       		.uleb128 0x2e
 3582 019b 43494400 		.ascii	"CID\000"
 3583 019f 04       		.byte	0x4
 3584 01a0 4B07     		.2byte	0x74b
 3585 01a2 11       		.byte	0x11
 3586 01a3 B4000000 		.4byte	0xb4
 3587 01a7 3C       		.byte	0x3c
 3588 01a8 04       		.uleb128 0x4
 3589 01a9 F4050000 		.4byte	.LASF29
 3590 01ad 4C07     		.2byte	0x74c
 3591 01af 11       		.byte	0x11
ARM GAS  C:\Users\DEVELO~1\AppData\Local\Temp\ccmc7I4c.s 			page 64


 3592 01b0 B4000000 		.4byte	0xb4
 3593 01b4 40       		.byte	0x40
 3594 01b5 04       		.uleb128 0x4
 3595 01b6 C4040000 		.4byte	.LASF30
 3596 01ba 4D07     		.2byte	0x74d
 3597 01bc 11       		.byte	0x11
 3598 01bd B4000000 		.4byte	0xb4
 3599 01c1 44       		.byte	0x44
 3600 01c2 04       		.uleb128 0x4
 3601 01c3 CC040000 		.4byte	.LASF31
 3602 01c7 4E07     		.2byte	0x74e
 3603 01c9 11       		.byte	0x11
 3604 01ca B4000000 		.4byte	0xb4
 3605 01ce 48       		.byte	0x48
 3606 01cf 04       		.uleb128 0x4
 3607 01d0 8B0B0000 		.4byte	.LASF32
 3608 01d4 4F07     		.2byte	0x74f
 3609 01d6 11       		.byte	0x11
 3610 01d7 B4000000 		.4byte	0xb4
 3611 01db 4C       		.byte	0x4c
 3612 01dc 04       		.uleb128 0x4
 3613 01dd DF040000 		.4byte	.LASF33
 3614 01e1 5007     		.2byte	0x750
 3615 01e3 0D       		.byte	0xd
 3616 01e4 A8000000 		.4byte	0xa8
 3617 01e8 50       		.byte	0x50
 3618 01e9 04       		.uleb128 0x4
 3619 01ea 79010000 		.4byte	.LASF34
 3620 01ee 5107     		.2byte	0x751
 3621 01f0 11       		.byte	0x11
 3622 01f1 B4000000 		.4byte	0xb4
 3623 01f5 54       		.byte	0x54
 3624 01f6 04       		.uleb128 0x4
 3625 01f7 B6040000 		.4byte	.LASF35
 3626 01fb 5207     		.2byte	0x752
 3627 01fd 11       		.byte	0x11
 3628 01fe B4000000 		.4byte	0xb4
 3629 0202 58       		.byte	0x58
 3630 0203 04       		.uleb128 0x4
 3631 0204 64030000 		.4byte	.LASF36
 3632 0208 5307     		.2byte	0x753
 3633 020a 11       		.byte	0x11
 3634 020b B4000000 		.4byte	0xb4
 3635 020f 5C       		.byte	0x5c
 3636 0210 04       		.uleb128 0x4
 3637 0211 030B0000 		.4byte	.LASF37
 3638 0215 5407     		.2byte	0x754
 3639 0217 12       		.byte	0x12
 3640 0218 B4000000 		.4byte	0xb4
 3641 021c 60       		.byte	0x60
 3642 021d 04       		.uleb128 0x4
 3643 021e 63080000 		.4byte	.LASF38
 3644 0222 5507     		.2byte	0x755
 3645 0224 0F       		.byte	0xf
 3646 0225 C9000000 		.4byte	0xc9
 3647 0229 64       		.byte	0x64
 3648 022a 23       		.uleb128 0x23
ARM GAS  C:\Users\DEVELO~1\AppData\Local\Temp\ccmc7I4c.s 			page 65


 3649 022b 150B0000 		.4byte	.LASF39
 3650 022f 5607     		.2byte	0x756
 3651 0231 B4000000 		.4byte	0xb4
 3652 0235 0001     		.2byte	0x100
 3653 0237 23       		.uleb128 0x23
 3654 0238 380C0000 		.4byte	.LASF40
 3655 023c 5707     		.2byte	0x757
 3656 023e 55020000 		.4byte	0x255
 3657 0242 0401     		.2byte	0x104
 3658 0244 00       		.byte	0
 3659 0245 16       		.uleb128 0x16
 3660 0246 B4000000 		.4byte	0xb4
 3661 024a 55020000 		.4byte	0x255
 3662 024e 17       		.uleb128 0x17
 3663 024f 26000000 		.4byte	0x26
 3664 0253 0E       		.byte	0xe
 3665 0254 00       		.byte	0
 3666 0255 1D       		.uleb128 0x1d
 3667 0256 45020000 		.4byte	0x245
 3668 025a 1E       		.uleb128 0x1e
 3669 025b 470A0000 		.4byte	.LASF41
 3670 025f 5807     		.2byte	0x758
 3671 0261 D9000000 		.4byte	0xd9
 3672 0265 24       		.uleb128 0x24
 3673 0266 5A020000 		.4byte	0x25a
 3674 026a 25       		.uleb128 0x25
 3675 026b 1C       		.byte	0x1c
 3676 026c 9907     		.2byte	0x799
 3677 026e CE020000 		.4byte	0x2ce
 3678 0272 04       		.uleb128 0x4
 3679 0273 E9060000 		.4byte	.LASF42
 3680 0277 9B07     		.2byte	0x79b
 3681 0279 11       		.byte	0x11
 3682 027a B4000000 		.4byte	0xb4
 3683 027e 00       		.byte	0
 3684 027f 04       		.uleb128 0x4
 3685 0280 E4070000 		.4byte	.LASF43
 3686 0284 9C07     		.2byte	0x79c
 3687 0286 11       		.byte	0x11
 3688 0287 B4000000 		.4byte	0xb4
 3689 028b 04       		.byte	0x4
 3690 028c 04       		.uleb128 0x4
 3691 028d EF020000 		.4byte	.LASF44
 3692 0291 9D07     		.2byte	0x79d
 3693 0293 11       		.byte	0x11
 3694 0294 B4000000 		.4byte	0xb4
 3695 0298 08       		.byte	0x8
 3696 0299 04       		.uleb128 0x4
 3697 029a E9070000 		.4byte	.LASF45
 3698 029e 9E07     		.2byte	0x79e
 3699 02a0 0C       		.byte	0xc
 3700 02a1 A8000000 		.4byte	0xa8
 3701 02a5 0C       		.byte	0xc
 3702 02a6 04       		.uleb128 0x4
 3703 02a7 FB0A0000 		.4byte	.LASF46
 3704 02ab 9F07     		.2byte	0x79f
 3705 02ad 11       		.byte	0x11
ARM GAS  C:\Users\DEVELO~1\AppData\Local\Temp\ccmc7I4c.s 			page 66


 3706 02ae B4000000 		.4byte	0xb4
 3707 02b2 10       		.byte	0x10
 3708 02b3 04       		.uleb128 0x4
 3709 02b4 6C090000 		.4byte	.LASF47
 3710 02b8 A007     		.2byte	0x7a0
 3711 02ba 11       		.byte	0x11
 3712 02bb B4000000 		.4byte	0xb4
 3713 02bf 14       		.byte	0x14
 3714 02c0 04       		.uleb128 0x4
 3715 02c1 BC010000 		.4byte	.LASF48
 3716 02c5 A107     		.2byte	0x7a1
 3717 02c7 11       		.byte	0x11
 3718 02c8 B4000000 		.4byte	0xb4
 3719 02cc 18       		.byte	0x18
 3720 02cd 00       		.byte	0
 3721 02ce 1E       		.uleb128 0x1e
 3722 02cf 5C040000 		.4byte	.LASF49
 3723 02d3 A207     		.2byte	0x7a2
 3724 02d5 6A020000 		.4byte	0x26a
 3725 02d9 25       		.uleb128 0x25
 3726 02da 20       		.byte	0x20
 3727 02db A707     		.2byte	0x7a7
 3728 02dd 3D030000 		.4byte	0x33d
 3729 02e1 04       		.uleb128 0x4
 3730 02e2 120C0000 		.4byte	.LASF50
 3731 02e6 A907     		.2byte	0x7a9
 3732 02e8 11       		.byte	0x11
 3733 02e9 B4000000 		.4byte	0xb4
 3734 02ed 00       		.byte	0
 3735 02ee 04       		.uleb128 0x4
 3736 02ef BD040000 		.4byte	.LASF51
 3737 02f3 AA07     		.2byte	0x7aa
 3738 02f5 11       		.byte	0x11
 3739 02f6 B4000000 		.4byte	0xb4
 3740 02fa 04       		.byte	0x4
 3741 02fb 04       		.uleb128 0x4
 3742 02fc CD060000 		.4byte	.LASF52
 3743 0300 AB07     		.2byte	0x7ab
 3744 0302 11       		.byte	0x11
 3745 0303 B4000000 		.4byte	0xb4
 3746 0307 08       		.byte	0x8
 3747 0308 04       		.uleb128 0x4
 3748 0309 BA060000 		.4byte	.LASF53
 3749 030d AC07     		.2byte	0x7ac
 3750 030f 11       		.byte	0x11
 3751 0310 B4000000 		.4byte	0xb4
 3752 0314 0C       		.byte	0xc
 3753 0315 04       		.uleb128 0x4
 3754 0316 E7010000 		.4byte	.LASF54
 3755 031a AD07     		.2byte	0x7ad
 3756 031c 11       		.byte	0x11
 3757 031d B4000000 		.4byte	0xb4
 3758 0321 10       		.byte	0x10
 3759 0322 04       		.uleb128 0x4
 3760 0323 90030000 		.4byte	.LASF55
 3761 0327 AE07     		.2byte	0x7ae
 3762 0329 11       		.byte	0x11
ARM GAS  C:\Users\DEVELO~1\AppData\Local\Temp\ccmc7I4c.s 			page 67


 3763 032a B4000000 		.4byte	0xb4
 3764 032e 14       		.byte	0x14
 3765 032f 04       		.uleb128 0x4
 3766 0330 F5000000 		.4byte	.LASF56
 3767 0334 AF07     		.2byte	0x7af
 3768 0336 0C       		.byte	0xc
 3769 0337 B9000000 		.4byte	0xb9
 3770 033b 18       		.byte	0x18
 3771 033c 00       		.byte	0
 3772 033d 1E       		.uleb128 0x1e
 3773 033e 350B0000 		.4byte	.LASF57
 3774 0342 B007     		.2byte	0x7b0
 3775 0344 D9020000 		.4byte	0x2d9
 3776 0348 0E       		.uleb128 0xe
 3777 0349 08       		.byte	0x8
 3778 034a 04       		.byte	0x4
 3779 034b 28090000 		.4byte	.LASF58
 3780 034f 2F       		.uleb128 0x2f
 3781 0350 04       		.byte	0x4
 3782 0351 0E       		.uleb128 0xe
 3783 0352 01       		.byte	0x1
 3784 0353 08       		.byte	0x8
 3785 0354 23090000 		.4byte	.LASF59
 3786 0358 0E       		.uleb128 0xe
 3787 0359 04       		.byte	0x4
 3788 035a 04       		.byte	0x4
 3789 035b 49070000 		.4byte	.LASF60
 3790 035f 0E       		.uleb128 0xe
 3791 0360 08       		.byte	0x8
 3792 0361 04       		.byte	0x4
 3793 0362 660C0000 		.4byte	.LASF61
 3794 0366 13       		.uleb128 0x13
 3795 0367 47000000 		.4byte	0x47
 3796 036b 05       		.byte	0x5
 3797 036c 28       		.byte	0x28
 3798 036d 8A030000 		.4byte	0x38a
 3799 0371 07       		.uleb128 0x7
 3800 0372 51060000 		.4byte	.LASF62
 3801 0376 00       		.byte	0
 3802 0377 07       		.uleb128 0x7
 3803 0378 F6080000 		.4byte	.LASF63
 3804 037c 01       		.byte	0x1
 3805 037d 07       		.uleb128 0x7
 3806 037e CE000000 		.4byte	.LASF64
 3807 0382 02       		.byte	0x2
 3808 0383 07       		.uleb128 0x7
 3809 0384 F3030000 		.4byte	.LASF65
 3810 0388 03       		.byte	0x3
 3811 0389 00       		.byte	0
 3812 038a 09       		.uleb128 0x9
 3813 038b 38050000 		.4byte	.LASF66
 3814 038f 05       		.byte	0x5
 3815 0390 2D       		.byte	0x2d
 3816 0391 03       		.byte	0x3
 3817 0392 66030000 		.4byte	0x366
 3818 0396 13       		.uleb128 0x13
 3819 0397 47000000 		.4byte	0x47
ARM GAS  C:\Users\DEVELO~1\AppData\Local\Temp\ccmc7I4c.s 			page 68


 3820 039b 05       		.byte	0x5
 3821 039c 33       		.byte	0x33
 3822 039d AE030000 		.4byte	0x3ae
 3823 03a1 07       		.uleb128 0x7
 3824 03a2 1F0C0000 		.4byte	.LASF67
 3825 03a6 00       		.byte	0
 3826 03a7 07       		.uleb128 0x7
 3827 03a8 48010000 		.4byte	.LASF68
 3828 03ac 01       		.byte	0x1
 3829 03ad 00       		.byte	0
 3830 03ae 09       		.uleb128 0x9
 3831 03af 67020000 		.4byte	.LASF69
 3832 03b3 05       		.byte	0x5
 3833 03b4 36       		.byte	0x36
 3834 03b5 03       		.byte	0x3
 3835 03b6 96030000 		.4byte	0x396
 3836 03ba 13       		.uleb128 0x13
 3837 03bb 47000000 		.4byte	0x47
 3838 03bf 06       		.byte	0x6
 3839 03c0 35       		.byte	0x35
 3840 03c1 D8030000 		.4byte	0x3d8
 3841 03c5 07       		.uleb128 0x7
 3842 03c6 6A060000 		.4byte	.LASF70
 3843 03ca 00       		.byte	0
 3844 03cb 07       		.uleb128 0x7
 3845 03cc 6E030000 		.4byte	.LASF71
 3846 03d0 01       		.byte	0x1
 3847 03d1 07       		.uleb128 0x7
 3848 03d2 3B090000 		.4byte	.LASF72
 3849 03d6 02       		.byte	0x2
 3850 03d7 00       		.byte	0
 3851 03d8 09       		.uleb128 0x9
 3852 03d9 AB0B0000 		.4byte	.LASF73
 3853 03dd 06       		.byte	0x6
 3854 03de 39       		.byte	0x39
 3855 03df 03       		.byte	0x3
 3856 03e0 BA030000 		.4byte	0x3ba
 3857 03e4 13       		.uleb128 0x13
 3858 03e5 47000000 		.4byte	0x47
 3859 03e9 06       		.byte	0x6
 3860 03ea 3F       		.byte	0x3f
 3861 03eb 14040000 		.4byte	0x414
 3862 03ef 07       		.uleb128 0x7
 3863 03f0 78080000 		.4byte	.LASF74
 3864 03f4 00       		.byte	0
 3865 03f5 07       		.uleb128 0x7
 3866 03f6 7A060000 		.4byte	.LASF75
 3867 03fa 01       		.byte	0x1
 3868 03fb 07       		.uleb128 0x7
 3869 03fc 9A090000 		.4byte	.LASF76
 3870 0400 02       		.byte	0x2
 3871 0401 07       		.uleb128 0x7
 3872 0402 D2050000 		.4byte	.LASF77
 3873 0406 03       		.byte	0x3
 3874 0407 07       		.uleb128 0x7
 3875 0408 6E080000 		.4byte	.LASF78
 3876 040c 04       		.byte	0x4
ARM GAS  C:\Users\DEVELO~1\AppData\Local\Temp\ccmc7I4c.s 			page 69


 3877 040d 07       		.uleb128 0x7
 3878 040e 930B0000 		.4byte	.LASF79
 3879 0412 05       		.byte	0x5
 3880 0413 00       		.byte	0
 3881 0414 09       		.uleb128 0x9
 3882 0415 A4020000 		.4byte	.LASF80
 3883 0419 06       		.byte	0x6
 3884 041a 46       		.byte	0x46
 3885 041b 03       		.byte	0x3
 3886 041c E4030000 		.4byte	0x3e4
 3887 0420 13       		.uleb128 0x13
 3888 0421 47000000 		.4byte	0x47
 3889 0425 06       		.byte	0x6
 3890 0426 4C       		.byte	0x4c
 3891 0427 68040000 		.4byte	0x468
 3892 042b 07       		.uleb128 0x7
 3893 042c 71010000 		.4byte	.LASF81
 3894 0430 00       		.byte	0
 3895 0431 07       		.uleb128 0x7
 3896 0432 2D0B0000 		.4byte	.LASF82
 3897 0436 01       		.byte	0x1
 3898 0437 07       		.uleb128 0x7
 3899 0438 FE020000 		.4byte	.LASF83
 3900 043c 02       		.byte	0x2
 3901 043d 07       		.uleb128 0x7
 3902 043e D70A0000 		.4byte	.LASF84
 3903 0442 03       		.byte	0x3
 3904 0443 07       		.uleb128 0x7
 3905 0444 54090000 		.4byte	.LASF85
 3906 0448 04       		.byte	0x4
 3907 0449 07       		.uleb128 0x7
 3908 044a 1E0B0000 		.4byte	.LASF86
 3909 044e 05       		.byte	0x5
 3910 044f 07       		.uleb128 0x7
 3911 0450 70040000 		.4byte	.LASF87
 3912 0454 06       		.byte	0x6
 3913 0455 07       		.uleb128 0x7
 3914 0456 B40A0000 		.4byte	.LASF88
 3915 045a 07       		.byte	0x7
 3916 045b 07       		.uleb128 0x7
 3917 045c F8060000 		.4byte	.LASF89
 3918 0460 08       		.byte	0x8
 3919 0461 07       		.uleb128 0x7
 3920 0462 27080000 		.4byte	.LASF90
 3921 0466 09       		.byte	0x9
 3922 0467 00       		.byte	0
 3923 0468 09       		.uleb128 0x9
 3924 0469 780B0000 		.4byte	.LASF91
 3925 046d 06       		.byte	0x6
 3926 046e 57       		.byte	0x57
 3927 046f 03       		.byte	0x3
 3928 0470 20040000 		.4byte	0x420
 3929 0474 26       		.uleb128 0x26
 3930 0475 0D       		.byte	0xd
 3931 0476 5D       		.byte	0x5d
 3932 0477 25050000 		.4byte	0x525
 3933 047b 02       		.uleb128 0x2
ARM GAS  C:\Users\DEVELO~1\AppData\Local\Temp\ccmc7I4c.s 			page 70


 3934 047c A1010000 		.4byte	.LASF92
 3935 0480 06       		.byte	0x6
 3936 0481 5F       		.byte	0x5f
 3937 0482 0B       		.byte	0xb
 3938 0483 90000000 		.4byte	0x90
 3939 0487 00       		.byte	0
 3940 0488 02       		.uleb128 0x2
 3941 0489 C9030000 		.4byte	.LASF93
 3942 048d 06       		.byte	0x6
 3943 048e 63       		.byte	0x63
 3944 048f 0B       		.byte	0xb
 3945 0490 90000000 		.4byte	0x90
 3946 0494 01       		.byte	0x1
 3947 0495 02       		.uleb128 0x2
 3948 0496 D3060000 		.4byte	.LASF94
 3949 049a 06       		.byte	0x6
 3950 049b 67       		.byte	0x67
 3951 049c 0B       		.byte	0xb
 3952 049d 90000000 		.4byte	0x90
 3953 04a1 02       		.byte	0x2
 3954 04a2 02       		.uleb128 0x2
 3955 04a3 D60B0000 		.4byte	.LASF95
 3956 04a7 06       		.byte	0x6
 3957 04a8 6A       		.byte	0x6a
 3958 04a9 0B       		.byte	0xb
 3959 04aa 90000000 		.4byte	0x90
 3960 04ae 03       		.byte	0x3
 3961 04af 02       		.uleb128 0x2
 3962 04b0 9C0A0000 		.4byte	.LASF96
 3963 04b4 06       		.byte	0x6
 3964 04b5 6E       		.byte	0x6e
 3965 04b6 0B       		.byte	0xb
 3966 04b7 90000000 		.4byte	0x90
 3967 04bb 04       		.byte	0x4
 3968 04bc 02       		.uleb128 0x2
 3969 04bd C7020000 		.4byte	.LASF97
 3970 04c1 06       		.byte	0x6
 3971 04c2 70       		.byte	0x70
 3972 04c3 0B       		.byte	0xb
 3973 04c4 90000000 		.4byte	0x90
 3974 04c8 05       		.byte	0x5
 3975 04c9 02       		.uleb128 0x2
 3976 04ca 5F060000 		.4byte	.LASF98
 3977 04ce 06       		.byte	0x6
 3978 04cf 73       		.byte	0x73
 3979 04d0 0B       		.byte	0xb
 3980 04d1 90000000 		.4byte	0x90
 3981 04d5 06       		.byte	0x6
 3982 04d6 02       		.uleb128 0x2
 3983 04d7 550C0000 		.4byte	.LASF99
 3984 04db 06       		.byte	0x6
 3985 04dc 75       		.byte	0x75
 3986 04dd 0B       		.byte	0xb
 3987 04de 90000000 		.4byte	0x90
 3988 04e2 07       		.byte	0x7
 3989 04e3 02       		.uleb128 0x2
 3990 04e4 500B0000 		.4byte	.LASF100
ARM GAS  C:\Users\DEVELO~1\AppData\Local\Temp\ccmc7I4c.s 			page 71


 3991 04e8 06       		.byte	0x6
 3992 04e9 77       		.byte	0x77
 3993 04ea 0B       		.byte	0xb
 3994 04eb 90000000 		.4byte	0x90
 3995 04ef 08       		.byte	0x8
 3996 04f0 02       		.uleb128 0x2
 3997 04f1 A3080000 		.4byte	.LASF101
 3998 04f5 06       		.byte	0x6
 3999 04f6 79       		.byte	0x79
 4000 04f7 0B       		.byte	0xb
 4001 04f8 90000000 		.4byte	0x90
 4002 04fc 09       		.byte	0x9
 4003 04fd 02       		.uleb128 0x2
 4004 04fe 8D010000 		.4byte	.LASF102
 4005 0502 06       		.byte	0x6
 4006 0503 7B       		.byte	0x7b
 4007 0504 0B       		.byte	0xb
 4008 0505 90000000 		.4byte	0x90
 4009 0509 0A       		.byte	0xa
 4010 050a 02       		.uleb128 0x2
 4011 050b FE000000 		.4byte	.LASF103
 4012 050f 06       		.byte	0x6
 4013 0510 7D       		.byte	0x7d
 4014 0511 0B       		.byte	0xb
 4015 0512 90000000 		.4byte	0x90
 4016 0516 0B       		.byte	0xb
 4017 0517 02       		.uleb128 0x2
 4018 0518 8F040000 		.4byte	.LASF104
 4019 051c 06       		.byte	0x6
 4020 051d 7F       		.byte	0x7f
 4021 051e 0B       		.byte	0xb
 4022 051f 90000000 		.4byte	0x90
 4023 0523 0C       		.byte	0xc
 4024 0524 00       		.byte	0
 4025 0525 09       		.uleb128 0x9
 4026 0526 81080000 		.4byte	.LASF105
 4027 052a 06       		.byte	0x6
 4028 052b 81       		.byte	0x81
 4029 052c 03       		.byte	0x3
 4030 052d 74040000 		.4byte	0x474
 4031 0531 11       		.uleb128 0x11
 4032 0532 90000000 		.4byte	0x90
 4033 0536 26       		.uleb128 0x26
 4034 0537 3C       		.byte	0x3c
 4035 0538 AB       		.byte	0xab
 4036 0539 90060000 		.4byte	0x690
 4037 053d 02       		.uleb128 0x2
 4038 053e DE010000 		.4byte	.LASF106
 4039 0542 06       		.byte	0x6
 4040 0543 AD       		.byte	0xad
 4041 0544 0D       		.byte	0xd
 4042 0545 90000000 		.4byte	0x90
 4043 0549 00       		.byte	0
 4044 054a 02       		.uleb128 0x2
 4045 054b 29020000 		.4byte	.LASF107
 4046 054f 06       		.byte	0x6
 4047 0550 B0       		.byte	0xb0
ARM GAS  C:\Users\DEVELO~1\AppData\Local\Temp\ccmc7I4c.s 			page 72


 4048 0551 0D       		.byte	0xd
 4049 0552 90000000 		.4byte	0x90
 4050 0556 01       		.byte	0x1
 4051 0557 02       		.uleb128 0x2
 4052 0558 EF080000 		.4byte	.LASF108
 4053 055c 06       		.byte	0x6
 4054 055d B3       		.byte	0xb3
 4055 055e 0D       		.byte	0xd
 4056 055f 90000000 		.4byte	0x90
 4057 0563 02       		.byte	0x2
 4058 0564 02       		.uleb128 0x2
 4059 0565 60050000 		.4byte	.LASF109
 4060 0569 06       		.byte	0x6
 4061 056a B6       		.byte	0xb6
 4062 056b 0D       		.byte	0xd
 4063 056c 90000000 		.4byte	0x90
 4064 0570 03       		.byte	0x3
 4065 0571 02       		.uleb128 0x2
 4066 0572 D60B0000 		.4byte	.LASF95
 4067 0576 06       		.byte	0x6
 4068 0577 B9       		.byte	0xb9
 4069 0578 0D       		.byte	0xd
 4070 0579 90000000 		.4byte	0x90
 4071 057d 04       		.byte	0x4
 4072 057e 02       		.uleb128 0x2
 4073 057f 96030000 		.4byte	.LASF110
 4074 0583 06       		.byte	0x6
 4075 0584 BD       		.byte	0xbd
 4076 0585 0D       		.byte	0xd
 4077 0586 90000000 		.4byte	0x90
 4078 058a 05       		.byte	0x5
 4079 058b 02       		.uleb128 0x2
 4080 058c EE060000 		.4byte	.LASF111
 4081 0590 06       		.byte	0x6
 4082 0591 BE       		.byte	0xbe
 4083 0592 0D       		.byte	0xd
 4084 0593 90000000 		.4byte	0x90
 4085 0597 06       		.byte	0x6
 4086 0598 02       		.uleb128 0x2
 4087 0599 53010000 		.4byte	.LASF112
 4088 059d 06       		.byte	0x6
 4089 059e BF       		.byte	0xbf
 4090 059f 0D       		.byte	0xd
 4091 05a0 90000000 		.4byte	0x90
 4092 05a4 07       		.byte	0x7
 4093 05a5 02       		.uleb128 0x2
 4094 05a6 12050000 		.4byte	.LASF113
 4095 05aa 06       		.byte	0x6
 4096 05ab C0       		.byte	0xc0
 4097 05ac 0D       		.byte	0xd
 4098 05ad 90000000 		.4byte	0x90
 4099 05b1 08       		.byte	0x8
 4100 05b2 02       		.uleb128 0x2
 4101 05b3 65070000 		.4byte	.LASF114
 4102 05b7 06       		.byte	0x6
 4103 05b8 C1       		.byte	0xc1
 4104 05b9 0D       		.byte	0xd
ARM GAS  C:\Users\DEVELO~1\AppData\Local\Temp\ccmc7I4c.s 			page 73


 4105 05ba A8000000 		.4byte	0xa8
 4106 05be 0C       		.byte	0xc
 4107 05bf 02       		.uleb128 0x2
 4108 05c0 7A0A0000 		.4byte	.LASF115
 4109 05c4 06       		.byte	0x6
 4110 05c5 C3       		.byte	0xc3
 4111 05c6 0D       		.byte	0xd
 4112 05c7 90000000 		.4byte	0x90
 4113 05cb 10       		.byte	0x10
 4114 05cc 02       		.uleb128 0x2
 4115 05cd F5020000 		.4byte	.LASF116
 4116 05d1 06       		.byte	0x6
 4117 05d2 C4       		.byte	0xc4
 4118 05d3 0D       		.byte	0xd
 4119 05d4 90000000 		.4byte	0x90
 4120 05d8 11       		.byte	0x11
 4121 05d9 02       		.uleb128 0x2
 4122 05da F30A0000 		.4byte	.LASF117
 4123 05de 06       		.byte	0x6
 4124 05df C6       		.byte	0xc6
 4125 05e0 0D       		.byte	0xd
 4126 05e1 90000000 		.4byte	0x90
 4127 05e5 12       		.byte	0x12
 4128 05e6 02       		.uleb128 0x2
 4129 05e7 8F090000 		.4byte	.LASF118
 4130 05eb 06       		.byte	0x6
 4131 05ec C9       		.byte	0xc9
 4132 05ed 0D       		.byte	0xd
 4133 05ee 9C000000 		.4byte	0x9c
 4134 05f2 14       		.byte	0x14
 4135 05f3 02       		.uleb128 0x2
 4136 05f4 DB050000 		.4byte	.LASF119
 4137 05f8 06       		.byte	0x6
 4138 05f9 CC       		.byte	0xcc
 4139 05fa 0D       		.byte	0xd
 4140 05fb 90000000 		.4byte	0x90
 4141 05ff 16       		.byte	0x16
 4142 0600 02       		.uleb128 0x2
 4143 0601 0B0B0000 		.4byte	.LASF120
 4144 0605 06       		.byte	0x6
 4145 0606 CF       		.byte	0xcf
 4146 0607 0E       		.byte	0xe
 4147 0608 31050000 		.4byte	0x531
 4148 060c 18       		.byte	0x18
 4149 060d 02       		.uleb128 0x2
 4150 060e D2020000 		.4byte	.LASF121
 4151 0612 06       		.byte	0x6
 4152 0613 D1       		.byte	0xd1
 4153 0614 0D       		.byte	0xd
 4154 0615 A8000000 		.4byte	0xa8
 4155 0619 1C       		.byte	0x1c
 4156 061a 02       		.uleb128 0x2
 4157 061b C9050000 		.4byte	.LASF122
 4158 061f 06       		.byte	0x6
 4159 0620 D3       		.byte	0xd3
 4160 0621 0D       		.byte	0xd
 4161 0622 A8000000 		.4byte	0xa8
ARM GAS  C:\Users\DEVELO~1\AppData\Local\Temp\ccmc7I4c.s 			page 74


 4162 0626 20       		.byte	0x20
 4163 0627 02       		.uleb128 0x2
 4164 0628 FC050000 		.4byte	.LASF123
 4165 062c 06       		.byte	0x6
 4166 062d D5       		.byte	0xd5
 4167 062e 0D       		.byte	0xd
 4168 062f A8000000 		.4byte	0xa8
 4169 0633 24       		.byte	0x24
 4170 0634 02       		.uleb128 0x2
 4171 0635 C3060000 		.4byte	.LASF124
 4172 0639 06       		.byte	0x6
 4173 063a D7       		.byte	0xd7
 4174 063b 0D       		.byte	0xd
 4175 063c 90000000 		.4byte	0x90
 4176 0640 28       		.byte	0x28
 4177 0641 02       		.uleb128 0x2
 4178 0642 5D0A0000 		.4byte	.LASF125
 4179 0646 06       		.byte	0x6
 4180 0647 DA       		.byte	0xda
 4181 0648 0D       		.byte	0xd
 4182 0649 90000000 		.4byte	0x90
 4183 064d 29       		.byte	0x29
 4184 064e 02       		.uleb128 0x2
 4185 064f 6F0B0000 		.4byte	.LASF126
 4186 0653 06       		.byte	0x6
 4187 0654 DD       		.byte	0xdd
 4188 0655 0D       		.byte	0xd
 4189 0656 A8000000 		.4byte	0xa8
 4190 065a 2C       		.byte	0x2c
 4191 065b 02       		.uleb128 0x2
 4192 065c C90B0000 		.4byte	.LASF127
 4193 0660 06       		.byte	0x6
 4194 0661 DF       		.byte	0xdf
 4195 0662 0D       		.byte	0xd
 4196 0663 A8000000 		.4byte	0xa8
 4197 0667 30       		.byte	0x30
 4198 0668 02       		.uleb128 0x2
 4199 0669 D4040000 		.4byte	.LASF128
 4200 066d 06       		.byte	0x6
 4201 066e E0       		.byte	0xe0
 4202 066f 0D       		.byte	0xd
 4203 0670 A8000000 		.4byte	0xa8
 4204 0674 34       		.byte	0x34
 4205 0675 02       		.uleb128 0x2
 4206 0676 82050000 		.4byte	.LASF129
 4207 067a 06       		.byte	0x6
 4208 067b E2       		.byte	0xe2
 4209 067c 17       		.byte	0x17
 4210 067d 14040000 		.4byte	0x414
 4211 0681 38       		.byte	0x38
 4212 0682 02       		.uleb128 0x2
 4213 0683 95020000 		.4byte	.LASF130
 4214 0687 06       		.byte	0x6
 4215 0688 E5       		.byte	0xe5
 4216 0689 16       		.byte	0x16
 4217 068a 68040000 		.4byte	0x468
 4218 068e 39       		.byte	0x39
ARM GAS  C:\Users\DEVELO~1\AppData\Local\Temp\ccmc7I4c.s 			page 75


 4219 068f 00       		.byte	0
 4220 0690 09       		.uleb128 0x9
 4221 0691 FC040000 		.4byte	.LASF131
 4222 0695 06       		.byte	0x6
 4223 0696 E7       		.byte	0xe7
 4224 0697 03       		.byte	0x3
 4225 0698 36050000 		.4byte	0x536
 4226 069c 09       		.uleb128 0x9
 4227 069d 5B0B0000 		.4byte	.LASF132
 4228 06a1 06       		.byte	0x6
 4229 06a2 E9       		.byte	0xe9
 4230 06a3 1D       		.byte	0x1d
 4231 06a4 D8030000 		.4byte	0x3d8
 4232 06a8 09       		.uleb128 0x9
 4233 06a9 31040000 		.4byte	.LASF133
 4234 06ad 06       		.byte	0x6
 4235 06ae EA       		.byte	0xea
 4236 06af 1D       		.byte	0x1d
 4237 06b0 25050000 		.4byte	0x525
 4238 06b4 09       		.uleb128 0x9
 4239 06b5 02070000 		.4byte	.LASF134
 4240 06b9 06       		.byte	0x6
 4241 06ba EC       		.byte	0xec
 4242 06bb 1D       		.byte	0x1d
 4243 06bc 14040000 		.4byte	0x414
 4244 06c0 09       		.uleb128 0x9
 4245 06c1 A1050000 		.4byte	.LASF135
 4246 06c5 06       		.byte	0x6
 4247 06c6 ED       		.byte	0xed
 4248 06c7 1D       		.byte	0x1d
 4249 06c8 68040000 		.4byte	0x468
 4250 06cc 09       		.uleb128 0x9
 4251 06cd A8060000 		.4byte	.LASF136
 4252 06d1 06       		.byte	0x6
 4253 06d2 EE       		.byte	0xee
 4254 06d3 1D       		.byte	0x1d
 4255 06d4 90060000 		.4byte	0x690
 4256 06d8 13       		.uleb128 0x13
 4257 06d9 47000000 		.4byte	0x47
 4258 06dd 07       		.byte	0x7
 4259 06de 30       		.byte	0x30
 4260 06df 02070000 		.4byte	0x702
 4261 06e3 07       		.uleb128 0x7
 4262 06e4 5D010000 		.4byte	.LASF137
 4263 06e8 00       		.byte	0
 4264 06e9 07       		.uleb128 0x7
 4265 06ea 17030000 		.4byte	.LASF138
 4266 06ee 01       		.byte	0x1
 4267 06ef 07       		.uleb128 0x7
 4268 06f0 830C0000 		.4byte	.LASF139
 4269 06f4 02       		.byte	0x2
 4270 06f5 07       		.uleb128 0x7
 4271 06f6 16020000 		.4byte	.LASF140
 4272 06fa 03       		.byte	0x3
 4273 06fb 07       		.uleb128 0x7
 4274 06fc 8F000000 		.4byte	.LASF141
 4275 0700 04       		.byte	0x4
ARM GAS  C:\Users\DEVELO~1\AppData\Local\Temp\ccmc7I4c.s 			page 76


 4276 0701 00       		.byte	0
 4277 0702 09       		.uleb128 0x9
 4278 0703 4A050000 		.4byte	.LASF142
 4279 0707 07       		.byte	0x7
 4280 0708 36       		.byte	0x36
 4281 0709 03       		.byte	0x3
 4282 070a D8060000 		.4byte	0x6d8
 4283 070e 1D       		.uleb128 0x1d
 4284 070f 02070000 		.4byte	0x702
 4285 0713 09       		.uleb128 0x9
 4286 0714 81010000 		.4byte	.LASF143
 4287 0718 07       		.byte	0x7
 4288 0719 38       		.byte	0x38
 4289 071a 21       		.byte	0x21
 4290 071b 5A020000 		.4byte	0x25a
 4291 071f 09       		.uleb128 0x9
 4292 0720 A40A0000 		.4byte	.LASF144
 4293 0724 07       		.byte	0x7
 4294 0725 39       		.byte	0x39
 4295 0726 21       		.byte	0x21
 4296 0727 A8060000 		.4byte	0x6a8
 4297 072b 09       		.uleb128 0x9
 4298 072c BB0B0000 		.4byte	.LASF145
 4299 0730 07       		.byte	0x7
 4300 0731 3A       		.byte	0x3a
 4301 0732 21       		.byte	0x21
 4302 0733 CC060000 		.4byte	0x6cc
 4303 0737 09       		.uleb128 0x9
 4304 0738 18010000 		.4byte	.LASF146
 4305 073c 07       		.byte	0x7
 4306 073d 3B       		.byte	0x3b
 4307 073e 21       		.byte	0x21
 4308 073f B4060000 		.4byte	0x6b4
 4309 0743 09       		.uleb128 0x9
 4310 0744 38030000 		.4byte	.LASF147
 4311 0748 07       		.byte	0x7
 4312 0749 3C       		.byte	0x3c
 4313 074a 21       		.byte	0x21
 4314 074b C0060000 		.4byte	0x6c0
 4315 074f 30       		.uleb128 0x30
 4316 0750 E003     		.2byte	0x3e0
 4317 0752 07       		.byte	0x7
 4318 0753 47       		.byte	0x47
 4319 0754 09       		.byte	0x9
 4320 0755 B4070000 		.4byte	0x7b4
 4321 0759 02       		.uleb128 0x2
 4322 075a 55070000 		.4byte	.LASF148
 4323 075e 07       		.byte	0x7
 4324 075f 4A       		.byte	0x4a
 4325 0760 1E       		.byte	0x1e
 4326 0761 B4070000 		.4byte	0x7b4
 4327 0765 00       		.byte	0
 4328 0766 02       		.uleb128 0x2
 4329 0767 8A000000 		.4byte	.LASF149
 4330 076b 07       		.byte	0x7
 4331 076c 4B       		.byte	0x4b
 4332 076d 1D       		.byte	0x1d
ARM GAS  C:\Users\DEVELO~1\AppData\Local\Temp\ccmc7I4c.s 			page 77


 4333 076e 1F070000 		.4byte	0x71f
 4334 0772 04       		.byte	0x4
 4335 0773 31       		.uleb128 0x31
 4336 0774 686300   		.ascii	"hc\000"
 4337 0777 07       		.byte	0x7
 4338 0778 4C       		.byte	0x4c
 4339 0779 1D       		.byte	0x1d
 4340 077a B9070000 		.4byte	0x7b9
 4341 077e 14       		.byte	0x14
 4342 077f 18       		.uleb128 0x18
 4343 0780 2B050000 		.4byte	.LASF150
 4344 0784 4D       		.byte	0x4d
 4345 0785 1D       		.byte	0x1d
 4346 0786 AE030000 		.4byte	0x3ae
 4347 078a D403     		.2byte	0x3d4
 4348 078c 18       		.uleb128 0x18
 4349 078d 72090000 		.4byte	.LASF151
 4350 0791 4E       		.byte	0x4e
 4351 0792 1D       		.byte	0x1d
 4352 0793 0E070000 		.4byte	0x70e
 4353 0797 D503     		.2byte	0x3d5
 4354 0799 18       		.uleb128 0x18
 4355 079a 21050000 		.4byte	.LASF152
 4356 079e 4F       		.byte	0x4f
 4357 079f 1D       		.byte	0x1d
 4358 07a0 B4000000 		.4byte	0xb4
 4359 07a4 D803     		.2byte	0x3d8
 4360 07a6 18       		.uleb128 0x18
 4361 07a7 7C030000 		.4byte	.LASF153
 4362 07ab 50       		.byte	0x50
 4363 07ac 1E       		.byte	0x1e
 4364 07ad 4F030000 		.4byte	0x34f
 4365 07b1 DC03     		.2byte	0x3dc
 4366 07b3 00       		.byte	0
 4367 07b4 11       		.uleb128 0x11
 4368 07b5 13070000 		.4byte	0x713
 4369 07b9 16       		.uleb128 0x16
 4370 07ba 2B070000 		.4byte	0x72b
 4371 07be C9070000 		.4byte	0x7c9
 4372 07c2 17       		.uleb128 0x17
 4373 07c3 26000000 		.4byte	0x26
 4374 07c7 0F       		.byte	0xf
 4375 07c8 00       		.byte	0
 4376 07c9 09       		.uleb128 0x9
 4377 07ca 35080000 		.4byte	.LASF154
 4378 07ce 07       		.byte	0x7
 4379 07cf 5D       		.byte	0x5d
 4380 07d0 03       		.byte	0x3
 4381 07d1 4F070000 		.4byte	0x74f
 4382 07d5 24       		.uleb128 0x24
 4383 07d6 C9070000 		.4byte	0x7c9
 4384 07da 0A       		.uleb128 0xa
 4385 07db 0F090000 		.4byte	.LASF155
 4386 07df 1D02     		.2byte	0x21d
 4387 07e1 A8000000 		.4byte	0xa8
 4388 07e5 EF070000 		.4byte	0x7ef
 4389 07e9 03       		.uleb128 0x3
ARM GAS  C:\Users\DEVELO~1\AppData\Local\Temp\ccmc7I4c.s 			page 78


 4390 07ea EF070000 		.4byte	0x7ef
 4391 07ee 00       		.byte	0
 4392 07ef 11       		.uleb128 0x11
 4393 07f0 65020000 		.4byte	0x265
 4394 07f4 0A       		.uleb128 0xa
 4395 07f5 9D0B0000 		.4byte	.LASF156
 4396 07f9 1A02     		.2byte	0x21a
 4397 07fb 8A030000 		.4byte	0x38a
 4398 07ff 09080000 		.4byte	0x809
 4399 0803 03       		.uleb128 0x3
 4400 0804 EF070000 		.4byte	0x7ef
 4401 0808 00       		.byte	0
 4402 0809 0A       		.uleb128 0xa
 4403 080a AF010000 		.4byte	.LASF157
 4404 080e 2702     		.2byte	0x227
 4405 0810 8A030000 		.4byte	0x38a
 4406 0814 1E080000 		.4byte	0x81e
 4407 0818 03       		.uleb128 0x3
 4408 0819 1E080000 		.4byte	0x81e
 4409 081d 00       		.byte	0
 4410 081e 11       		.uleb128 0x11
 4411 081f 5A020000 		.4byte	0x25a
 4412 0823 0A       		.uleb128 0xa
 4413 0824 2D070000 		.4byte	.LASF158
 4414 0828 F501     		.2byte	0x1f5
 4415 082a 8A030000 		.4byte	0x38a
 4416 082e 38080000 		.4byte	0x838
 4417 0832 03       		.uleb128 0x3
 4418 0833 1E080000 		.4byte	0x81e
 4419 0837 00       		.byte	0
 4420 0838 0A       		.uleb128 0xa
 4421 0839 82030000 		.4byte	.LASF159
 4422 083d 1B02     		.2byte	0x21b
 4423 083f 8A030000 		.4byte	0x38a
 4424 0843 52080000 		.4byte	0x852
 4425 0847 03       		.uleb128 0x3
 4426 0848 EF070000 		.4byte	0x7ef
 4427 084c 03       		.uleb128 0x3
 4428 084d 90000000 		.4byte	0x90
 4429 0851 00       		.byte	0
 4430 0852 0A       		.uleb128 0xa
 4431 0853 B8020000 		.4byte	.LASF160
 4432 0857 0402     		.2byte	0x204
 4433 0859 4F030000 		.4byte	0x34f
 4434 085d 71080000 		.4byte	0x871
 4435 0861 03       		.uleb128 0x3
 4436 0862 EF070000 		.4byte	0x7ef
 4437 0866 03       		.uleb128 0x3
 4438 0867 31050000 		.4byte	0x531
 4439 086b 03       		.uleb128 0x3
 4440 086c 9C000000 		.4byte	0x9c
 4441 0870 00       		.byte	0
 4442 0871 0A       		.uleb128 0xa
 4443 0872 A7070000 		.4byte	.LASF161
 4444 0876 1102     		.2byte	0x211
 4445 0878 A8000000 		.4byte	0xa8
 4446 087c 8B080000 		.4byte	0x88b
ARM GAS  C:\Users\DEVELO~1\AppData\Local\Temp\ccmc7I4c.s 			page 79


 4447 0880 03       		.uleb128 0x3
 4448 0881 EF070000 		.4byte	0x7ef
 4449 0885 03       		.uleb128 0x3
 4450 0886 90000000 		.4byte	0x90
 4451 088a 00       		.byte	0
 4452 088b 0A       		.uleb128 0xa
 4453 088c 870A0000 		.4byte	.LASF162
 4454 0890 2402     		.2byte	0x224
 4455 0892 A8000000 		.4byte	0xa8
 4456 0896 A0080000 		.4byte	0x8a0
 4457 089a 03       		.uleb128 0x3
 4458 089b EF070000 		.4byte	0x7ef
 4459 089f 00       		.byte	0
 4460 08a0 0A       		.uleb128 0xa
 4461 08a1 E1000000 		.4byte	.LASF163
 4462 08a5 1902     		.2byte	0x219
 4463 08a7 8A030000 		.4byte	0x38a
 4464 08ab BA080000 		.4byte	0x8ba
 4465 08af 03       		.uleb128 0x3
 4466 08b0 EF070000 		.4byte	0x7ef
 4467 08b4 03       		.uleb128 0x3
 4468 08b5 90000000 		.4byte	0x90
 4469 08b9 00       		.byte	0
 4470 08ba 0A       		.uleb128 0xa
 4471 08bb 85020000 		.4byte	.LASF164
 4472 08bf FA01     		.2byte	0x1fa
 4473 08c1 8A030000 		.4byte	0x38a
 4474 08c5 CF080000 		.4byte	0x8cf
 4475 08c9 03       		.uleb128 0x3
 4476 08ca 1E080000 		.4byte	0x81e
 4477 08ce 00       		.byte	0
 4478 08cf 0A       		.uleb128 0xa
 4479 08d0 17080000 		.4byte	.LASF165
 4480 08d4 FB01     		.2byte	0x1fb
 4481 08d6 8A030000 		.4byte	0x38a
 4482 08da E9080000 		.4byte	0x8e9
 4483 08de 03       		.uleb128 0x3
 4484 08df 1E080000 		.4byte	0x81e
 4485 08e3 03       		.uleb128 0x3
 4486 08e4 A8000000 		.4byte	0xa8
 4487 08e8 00       		.byte	0
 4488 08e9 0A       		.uleb128 0xa
 4489 08ea 1A070000 		.4byte	.LASF166
 4490 08ee 1002     		.2byte	0x210
 4491 08f0 A8000000 		.4byte	0xa8
 4492 08f4 FE080000 		.4byte	0x8fe
 4493 08f8 03       		.uleb128 0x3
 4494 08f9 EF070000 		.4byte	0x7ef
 4495 08fd 00       		.byte	0
 4496 08fe 0A       		.uleb128 0xa
 4497 08ff 8F070000 		.4byte	.LASF167
 4498 0903 0F02     		.2byte	0x20f
 4499 0905 A8000000 		.4byte	0xa8
 4500 0909 13090000 		.4byte	0x913
 4501 090d 03       		.uleb128 0x3
 4502 090e EF070000 		.4byte	0x7ef
 4503 0912 00       		.byte	0
ARM GAS  C:\Users\DEVELO~1\AppData\Local\Temp\ccmc7I4c.s 			page 80


 4504 0913 0A       		.uleb128 0xa
 4505 0914 5B090000 		.4byte	.LASF168
 4506 0918 2102     		.2byte	0x221
 4507 091a 8A030000 		.4byte	0x38a
 4508 091e 32090000 		.4byte	0x932
 4509 0922 03       		.uleb128 0x3
 4510 0923 1E080000 		.4byte	0x81e
 4511 0927 03       		.uleb128 0x3
 4512 0928 32090000 		.4byte	0x932
 4513 092c 03       		.uleb128 0x3
 4514 092d 90000000 		.4byte	0x90
 4515 0931 00       		.byte	0
 4516 0932 11       		.uleb128 0x11
 4517 0933 CC060000 		.4byte	0x6cc
 4518 0937 0A       		.uleb128 0xa
 4519 0938 9B070000 		.4byte	.LASF169
 4520 093c 2502     		.2byte	0x225
 4521 093e 8A030000 		.4byte	0x38a
 4522 0942 51090000 		.4byte	0x951
 4523 0946 03       		.uleb128 0x3
 4524 0947 EF070000 		.4byte	0x7ef
 4525 094b 03       		.uleb128 0x3
 4526 094c 90000000 		.4byte	0x90
 4527 0950 00       		.byte	0
 4528 0951 0A       		.uleb128 0xa
 4529 0952 78090000 		.4byte	.LASF170
 4530 0956 1E02     		.2byte	0x21e
 4531 0958 8A030000 		.4byte	0x38a
 4532 095c 84090000 		.4byte	0x984
 4533 0960 03       		.uleb128 0x3
 4534 0961 1E080000 		.4byte	0x81e
 4535 0965 03       		.uleb128 0x3
 4536 0966 90000000 		.4byte	0x90
 4537 096a 03       		.uleb128 0x3
 4538 096b 90000000 		.4byte	0x90
 4539 096f 03       		.uleb128 0x3
 4540 0970 90000000 		.4byte	0x90
 4541 0974 03       		.uleb128 0x3
 4542 0975 90000000 		.4byte	0x90
 4543 0979 03       		.uleb128 0x3
 4544 097a 90000000 		.4byte	0x90
 4545 097e 03       		.uleb128 0x3
 4546 097f 9C000000 		.4byte	0x9c
 4547 0983 00       		.byte	0
 4548 0984 0A       		.uleb128 0xa
 4549 0985 B8050000 		.4byte	.LASF171
 4550 0989 1C02     		.2byte	0x21c
 4551 098b A8000000 		.4byte	0xa8
 4552 098f 99090000 		.4byte	0x999
 4553 0993 03       		.uleb128 0x3
 4554 0994 EF070000 		.4byte	0x7ef
 4555 0998 00       		.byte	0
 4556 0999 0A       		.uleb128 0xa
 4557 099a D7070000 		.4byte	.LASF172
 4558 099e 1802     		.2byte	0x218
 4559 09a0 8A030000 		.4byte	0x38a
 4560 09a4 B3090000 		.4byte	0x9b3
ARM GAS  C:\Users\DEVELO~1\AppData\Local\Temp\ccmc7I4c.s 			page 81


 4561 09a8 03       		.uleb128 0x3
 4562 09a9 1E080000 		.4byte	0x81e
 4563 09ad 03       		.uleb128 0x3
 4564 09ae A8060000 		.4byte	0x6a8
 4565 09b2 00       		.byte	0
 4566 09b3 0A       		.uleb128 0xa
 4567 09b4 90080000 		.4byte	.LASF173
 4568 09b8 F801     		.2byte	0x1f8
 4569 09ba 8A030000 		.4byte	0x38a
 4570 09be CD090000 		.4byte	0x9cd
 4571 09c2 03       		.uleb128 0x3
 4572 09c3 1E080000 		.4byte	0x81e
 4573 09c7 03       		.uleb128 0x3
 4574 09c8 9C060000 		.4byte	0x69c
 4575 09cc 00       		.byte	0
 4576 09cd 0A       		.uleb128 0xa
 4577 09ce BB080000 		.4byte	.LASF174
 4578 09d2 F301     		.2byte	0x1f3
 4579 09d4 8A030000 		.4byte	0x38a
 4580 09d8 E7090000 		.4byte	0x9e7
 4581 09dc 03       		.uleb128 0x3
 4582 09dd 1E080000 		.4byte	0x81e
 4583 09e1 03       		.uleb128 0x3
 4584 09e2 A8060000 		.4byte	0x6a8
 4585 09e6 00       		.byte	0
 4586 09e7 0A       		.uleb128 0xa
 4587 09e8 8C050000 		.4byte	.LASF175
 4588 09ec F601     		.2byte	0x1f6
 4589 09ee 8A030000 		.4byte	0x38a
 4590 09f2 FC090000 		.4byte	0x9fc
 4591 09f6 03       		.uleb128 0x3
 4592 09f7 1E080000 		.4byte	0x81e
 4593 09fb 00       		.byte	0
 4594 09fc 19       		.uleb128 0x19
 4595 09fd DF030000 		.4byte	.LASF180
 4596 0a01 5707     		.2byte	0x757
 4597 0a03 440A0000 		.4byte	0xa44
 4598 0a07 0C       		.uleb128 0xc
 4599 0a08 5B050000 		.4byte	.LASF182
 4600 0a0c 5707     		.2byte	0x757
 4601 0a0e 34       		.byte	0x34
 4602 0a0f 440A0000 		.4byte	0xa44
 4603 0a13 0B       		.uleb128 0xb
 4604 0a14 85000000 		.4byte	.LASF176
 4605 0a18 5907     		.2byte	0x759
 4606 0a1a 20       		.byte	0x20
 4607 0a1b EF070000 		.4byte	0x7ef
 4608 0a1f 0B       		.uleb128 0xb
 4609 0a20 680A0000 		.4byte	.LASF177
 4610 0a24 5A07     		.2byte	0x75a
 4611 0a26 0C       		.byte	0xc
 4612 0a27 A8000000 		.4byte	0xa8
 4613 0a2b 0B       		.uleb128 0xb
 4614 0a2c 11030000 		.4byte	.LASF178
 4615 0a30 5B07     		.2byte	0x75b
 4616 0a32 11       		.byte	0x11
 4617 0a33 B4000000 		.4byte	0xb4
ARM GAS  C:\Users\DEVELO~1\AppData\Local\Temp\ccmc7I4c.s 			page 82


 4618 0a37 0B       		.uleb128 0xb
 4619 0a38 DE0A0000 		.4byte	.LASF179
 4620 0a3c 5C07     		.2byte	0x75c
 4621 0a3e 11       		.byte	0x11
 4622 0a3f B4000000 		.4byte	0xb4
 4623 0a43 00       		.byte	0
 4624 0a44 11       		.uleb128 0x11
 4625 0a45 C9070000 		.4byte	0x7c9
 4626 0a49 19       		.uleb128 0x19
 4627 0a4a 79040000 		.4byte	.LASF181
 4628 0a4e 1507     		.2byte	0x715
 4629 0a50 C10A0000 		.4byte	0xac1
 4630 0a54 0C       		.uleb128 0xc
 4631 0a55 5B050000 		.4byte	.LASF182
 4632 0a59 1507     		.2byte	0x715
 4633 0a5b 36       		.byte	0x36
 4634 0a5c 440A0000 		.4byte	0xa44
 4635 0a60 0B       		.uleb128 0xb
 4636 0a61 85000000 		.4byte	.LASF176
 4637 0a65 1707     		.2byte	0x717
 4638 0a67 20       		.byte	0x20
 4639 0a68 EF070000 		.4byte	0x7ef
 4640 0a6c 0B       		.uleb128 0xb
 4641 0a6d 680A0000 		.4byte	.LASF177
 4642 0a71 1807     		.2byte	0x718
 4643 0a73 0C       		.byte	0xc
 4644 0a74 A8000000 		.4byte	0xa8
 4645 0a78 0B       		.uleb128 0xb
 4646 0a79 58060000 		.4byte	.LASF183
 4647 0a7d 1907     		.2byte	0x719
 4648 0a7f 0C       		.byte	0xc
 4649 0a80 A8000000 		.4byte	0xa8
 4650 0a84 0B       		.uleb128 0xb
 4651 0a85 5E070000 		.4byte	.LASF184
 4652 0a89 1A07     		.2byte	0x71a
 4653 0a8b 0C       		.byte	0xc
 4654 0a8c A8000000 		.4byte	0xa8
 4655 0a90 0B       		.uleb128 0xb
 4656 0a91 D3010000 		.4byte	.LASF185
 4657 0a95 1B07     		.2byte	0x71b
 4658 0a97 0C       		.byte	0xc
 4659 0a98 A8000000 		.4byte	0xa8
 4660 0a9c 0B       		.uleb128 0xb
 4661 0a9d 89060000 		.4byte	.LASF186
 4662 0aa1 1C07     		.2byte	0x71c
 4663 0aa3 0C       		.byte	0xc
 4664 0aa4 A8000000 		.4byte	0xa8
 4665 0aa8 0B       		.uleb128 0xb
 4666 0aa9 60020000 		.4byte	.LASF187
 4667 0aad 1D07     		.2byte	0x71d
 4668 0aaf 0C       		.byte	0xc
 4669 0ab0 A8000000 		.4byte	0xa8
 4670 0ab4 0B       		.uleb128 0xb
 4671 0ab5 190C0000 		.4byte	.LASF188
 4672 0ab9 1E07     		.2byte	0x71e
 4673 0abb 0C       		.byte	0xc
 4674 0abc A8000000 		.4byte	0xa8
ARM GAS  C:\Users\DEVELO~1\AppData\Local\Temp\ccmc7I4c.s 			page 83


 4675 0ac0 00       		.byte	0
 4676 0ac1 19       		.uleb128 0x19
 4677 0ac2 0F040000 		.4byte	.LASF189
 4678 0ac6 2406     		.2byte	0x624
 4679 0ac8 150B0000 		.4byte	0xb15
 4680 0acc 0C       		.uleb128 0xc
 4681 0acd 5B050000 		.4byte	.LASF182
 4682 0ad1 2406     		.2byte	0x624
 4683 0ad3 36       		.byte	0x36
 4684 0ad4 440A0000 		.4byte	0xa44
 4685 0ad8 0C       		.uleb128 0xc
 4686 0ad9 190C0000 		.4byte	.LASF188
 4687 0add 2406     		.2byte	0x624
 4688 0adf 44       		.byte	0x44
 4689 0ae0 90000000 		.4byte	0x90
 4690 0ae4 0B       		.uleb128 0xb
 4691 0ae5 85000000 		.4byte	.LASF176
 4692 0ae9 2606     		.2byte	0x626
 4693 0aeb 20       		.byte	0x20
 4694 0aec EF070000 		.4byte	0x7ef
 4695 0af0 0B       		.uleb128 0xb
 4696 0af1 680A0000 		.4byte	.LASF177
 4697 0af5 2706     		.2byte	0x627
 4698 0af7 0C       		.byte	0xc
 4699 0af8 A8000000 		.4byte	0xa8
 4700 0afc 0B       		.uleb128 0xb
 4701 0afd 60020000 		.4byte	.LASF187
 4702 0b01 2806     		.2byte	0x628
 4703 0b03 0C       		.byte	0xc
 4704 0b04 A8000000 		.4byte	0xa8
 4705 0b08 0B       		.uleb128 0xb
 4706 0b09 48090000 		.4byte	.LASF190
 4707 0b0d 2906     		.2byte	0x629
 4708 0b0f 0C       		.byte	0xc
 4709 0b10 A8000000 		.4byte	0xa8
 4710 0b14 00       		.byte	0
 4711 0b15 19       		.uleb128 0x19
 4712 0b16 A1040000 		.4byte	.LASF191
 4713 0b1a E504     		.2byte	0x4e5
 4714 0b1c 5D0B0000 		.4byte	0xb5d
 4715 0b20 0C       		.uleb128 0xc
 4716 0b21 5B050000 		.4byte	.LASF182
 4717 0b25 E504     		.2byte	0x4e5
 4718 0b27 35       		.byte	0x35
 4719 0b28 440A0000 		.4byte	0xa44
 4720 0b2c 0C       		.uleb128 0xc
 4721 0b2d 190C0000 		.4byte	.LASF188
 4722 0b31 E504     		.2byte	0x4e5
 4723 0b33 43       		.byte	0x43
 4724 0b34 90000000 		.4byte	0x90
 4725 0b38 0B       		.uleb128 0xb
 4726 0b39 85000000 		.4byte	.LASF176
 4727 0b3d E704     		.2byte	0x4e7
 4728 0b3f 20       		.byte	0x20
 4729 0b40 EF070000 		.4byte	0x7ef
 4730 0b44 0B       		.uleb128 0xb
 4731 0b45 680A0000 		.4byte	.LASF177
ARM GAS  C:\Users\DEVELO~1\AppData\Local\Temp\ccmc7I4c.s 			page 84


 4732 0b49 E804     		.2byte	0x4e8
 4733 0b4b 0C       		.byte	0xc
 4734 0b4c A8000000 		.4byte	0xa8
 4735 0b50 0B       		.uleb128 0xb
 4736 0b51 60020000 		.4byte	.LASF187
 4737 0b55 E904     		.2byte	0x4e9
 4738 0b57 0C       		.byte	0xc
 4739 0b58 A8000000 		.4byte	0xa8
 4740 0b5c 00       		.byte	0
 4741 0b5d 32       		.uleb128 0x32
 4742 0b5e 48020000 		.4byte	.LASF192
 4743 0b62 01       		.byte	0x1
 4744 0b63 CA04     		.2byte	0x4ca
 4745 0b65 13       		.byte	0x13
 4746 0b66 8A030000 		.4byte	0x38a
 4747 0b6a 01       		.byte	0x1
 4748 0b6b 880B0000 		.4byte	0xb88
 4749 0b6f 0C       		.uleb128 0xc
 4750 0b70 5B050000 		.4byte	.LASF182
 4751 0b74 CA04     		.2byte	0x4ca
 4752 0b76 3E       		.byte	0x3e
 4753 0b77 440A0000 		.4byte	0xa44
 4754 0b7b 0C       		.uleb128 0xc
 4755 0b7c 29020000 		.4byte	.LASF107
 4756 0b80 CA04     		.2byte	0x4ca
 4757 0b82 4C       		.byte	0x4c
 4758 0b83 90000000 		.4byte	0x90
 4759 0b87 00       		.byte	0
 4760 0b88 0F       		.uleb128 0xf
 4761 0b89 00020000 		.4byte	.LASF195
 4762 0b8d AC04     		.2byte	0x4ac
 4763 0b8f 13       		.byte	0x13
 4764 0b90 8A030000 		.4byte	0x38a
 4765 0b94 00000000 		.4byte	.LFB164
 4766 0b98 4A000000 		.4byte	.LFE164-.LFB164
 4767 0b9c 01       		.uleb128 0x1
 4768 0b9d 9C       		.byte	0x9c
 4769 0b9e 100C0000 		.4byte	0xc10
 4770 0ba2 08       		.uleb128 0x8
 4771 0ba3 5B050000 		.4byte	.LASF182
 4772 0ba7 AC04     		.2byte	0x4ac
 4773 0ba9 3C       		.byte	0x3c
 4774 0baa 440A0000 		.4byte	0xa44
 4775 0bae 14000000 		.4byte	.LLST64
 4776 0bb2 0C000000 		.4byte	.LVUS64
 4777 0bb6 08       		.uleb128 0x8
 4778 0bb7 29020000 		.4byte	.LASF107
 4779 0bbb AC04     		.2byte	0x4ac
 4780 0bbd 4A       		.byte	0x4a
 4781 0bbe 90000000 		.4byte	0x90
 4782 0bc2 35000000 		.4byte	.LLST65
 4783 0bc6 31000000 		.4byte	.LVUS65
 4784 0bca 08       		.uleb128 0x8
 4785 0bcb 43010000 		.4byte	.LASF193
 4786 0bcf AD04     		.2byte	0x4ad
 4787 0bd1 31       		.byte	0x31
 4788 0bd2 90000000 		.4byte	0x90
ARM GAS  C:\Users\DEVELO~1\AppData\Local\Temp\ccmc7I4c.s 			page 85


 4789 0bd6 4C000000 		.4byte	.LLST66
 4790 0bda 48000000 		.4byte	.LVUS66
 4791 0bde 08       		.uleb128 0x8
 4792 0bdf 69050000 		.4byte	.LASF194
 4793 0be3 AD04     		.2byte	0x4ad
 4794 0be5 3F       		.byte	0x3f
 4795 0be6 90000000 		.4byte	0x90
 4796 0bea 63000000 		.4byte	.LLST67
 4797 0bee 5F000000 		.4byte	.LVUS67
 4798 0bf2 1A       		.uleb128 0x1a
 4799 0bf3 77020000 		.4byte	.LASF212
 4800 0bf7 AF04     		.2byte	0x4af
 4801 0bf9 0C       		.byte	0xc
 4802 0bfa A8000000 		.4byte	0xa8
 4803 0bfe 7A000000 		.4byte	.LLST68
 4804 0c02 76000000 		.4byte	.LVUS68
 4805 0c06 05       		.uleb128 0x5
 4806 0c07 10000000 		.4byte	.LVL256
 4807 0c0b 84090000 		.4byte	0x984
 4808 0c0f 00       		.byte	0
 4809 0c10 0F       		.uleb128 0xf
 4810 0c11 12000000 		.4byte	.LASF196
 4811 0c15 9E04     		.2byte	0x49e
 4812 0c17 0A       		.byte	0xa
 4813 0c18 A8000000 		.4byte	0xa8
 4814 0c1c 00000000 		.4byte	.LFB163
 4815 0c20 06000000 		.4byte	.LFE163-.LFB163
 4816 0c24 01       		.uleb128 0x1
 4817 0c25 9C       		.byte	0x9c
 4818 0c26 480C0000 		.4byte	0xc48
 4819 0c2a 08       		.uleb128 0x8
 4820 0c2b 5B050000 		.4byte	.LASF182
 4821 0c2f 9E04     		.2byte	0x49e
 4822 0c31 35       		.byte	0x35
 4823 0c32 440A0000 		.4byte	0xa44
 4824 0c36 8E000000 		.4byte	.LLST63
 4825 0c3a 8A000000 		.4byte	.LVUS63
 4826 0c3e 1B       		.uleb128 0x1b
 4827 0c3f 06000000 		.4byte	.LVL253
 4828 0c43 84090000 		.4byte	0x984
 4829 0c47 00       		.byte	0
 4830 0c48 0F       		.uleb128 0xf
 4831 0c49 44040000 		.4byte	.LASF197
 4832 0c4d 9404     		.2byte	0x494
 4833 0c4f 0A       		.byte	0xa
 4834 0c50 A8000000 		.4byte	0xa8
 4835 0c54 00000000 		.4byte	.LFB162
 4836 0c58 06000000 		.4byte	.LFE162-.LFB162
 4837 0c5c 01       		.uleb128 0x1
 4838 0c5d 9C       		.byte	0x9c
 4839 0c5e 800C0000 		.4byte	0xc80
 4840 0c62 08       		.uleb128 0x8
 4841 0c63 5B050000 		.4byte	.LASF182
 4842 0c67 9404     		.2byte	0x494
 4843 0c69 35       		.byte	0x35
 4844 0c6a 440A0000 		.4byte	0xa44
 4845 0c6e A5000000 		.4byte	.LLST62
ARM GAS  C:\Users\DEVELO~1\AppData\Local\Temp\ccmc7I4c.s 			page 86


 4846 0c72 A1000000 		.4byte	.LVUS62
 4847 0c76 1B       		.uleb128 0x1b
 4848 0c77 06000000 		.4byte	.LVL250
 4849 0c7b DA070000 		.4byte	0x7da
 4850 0c7f 00       		.byte	0
 4851 0c80 0F       		.uleb128 0xf
 4852 0c81 DB020000 		.4byte	.LASF198
 4853 0c85 8A04     		.2byte	0x48a
 4854 0c87 15       		.byte	0x15
 4855 0c88 43070000 		.4byte	0x743
 4856 0c8c 00000000 		.4byte	.LFB161
 4857 0c90 0E000000 		.4byte	.LFE161-.LFB161
 4858 0c94 01       		.uleb128 0x1
 4859 0c95 9C       		.byte	0x9c
 4860 0c96 C30C0000 		.4byte	0xcc3
 4861 0c9a 08       		.uleb128 0x8
 4862 0c9b 5B050000 		.4byte	.LASF182
 4863 0c9f 8A04     		.2byte	0x48a
 4864 0ca1 42       		.byte	0x42
 4865 0ca2 C30C0000 		.4byte	0xcc3
 4866 0ca6 BC000000 		.4byte	.LLST60
 4867 0caa B8000000 		.4byte	.LVUS60
 4868 0cae 08       		.uleb128 0x8
 4869 0caf 190C0000 		.4byte	.LASF188
 4870 0cb3 8A04     		.2byte	0x48a
 4871 0cb5 50       		.byte	0x50
 4872 0cb6 90000000 		.4byte	0x90
 4873 0cba D3000000 		.4byte	.LLST61
 4874 0cbe CF000000 		.4byte	.LVUS61
 4875 0cc2 00       		.byte	0
 4876 0cc3 11       		.uleb128 0x11
 4877 0cc4 D5070000 		.4byte	0x7d5
 4878 0cc8 0F       		.uleb128 0xf
 4879 0cc9 9E030000 		.4byte	.LASF199
 4880 0ccd 7404     		.2byte	0x474
 4881 0ccf 0A       		.byte	0xa
 4882 0cd0 A8000000 		.4byte	0xa8
 4883 0cd4 00000000 		.4byte	.LFB160
 4884 0cd8 0C000000 		.4byte	.LFE160-.LFB160
 4885 0cdc 01       		.uleb128 0x1
 4886 0cdd 9C       		.byte	0x9c
 4887 0cde 0B0D0000 		.4byte	0xd0b
 4888 0ce2 08       		.uleb128 0x8
 4889 0ce3 5B050000 		.4byte	.LASF182
 4890 0ce7 7404     		.2byte	0x474
 4891 0ce9 3B       		.byte	0x3b
 4892 0cea C30C0000 		.4byte	0xcc3
 4893 0cee EA000000 		.4byte	.LLST58
 4894 0cf2 E6000000 		.4byte	.LVUS58
 4895 0cf6 08       		.uleb128 0x8
 4896 0cf7 190C0000 		.4byte	.LASF188
 4897 0cfb 7404     		.2byte	0x474
 4898 0cfd 49       		.byte	0x49
 4899 0cfe 90000000 		.4byte	0x90
 4900 0d02 01010000 		.4byte	.LLST59
 4901 0d06 FD000000 		.4byte	.LVUS59
 4902 0d0a 00       		.byte	0
ARM GAS  C:\Users\DEVELO~1\AppData\Local\Temp\ccmc7I4c.s 			page 87


 4903 0d0b 0F       		.uleb128 0xf
 4904 0d0c A5000000 		.4byte	.LASF200
 4905 0d10 6704     		.2byte	0x467
 4906 0d12 15       		.byte	0x15
 4907 0d13 37070000 		.4byte	0x737
 4908 0d17 00000000 		.4byte	.LFB159
 4909 0d1b 0E000000 		.4byte	.LFE159-.LFB159
 4910 0d1f 01       		.uleb128 0x1
 4911 0d20 9C       		.byte	0x9c
 4912 0d21 4E0D0000 		.4byte	0xd4e
 4913 0d25 08       		.uleb128 0x8
 4914 0d26 5B050000 		.4byte	.LASF182
 4915 0d2a 6704     		.2byte	0x467
 4916 0d2c 45       		.byte	0x45
 4917 0d2d C30C0000 		.4byte	0xcc3
 4918 0d31 18010000 		.4byte	.LLST56
 4919 0d35 14010000 		.4byte	.LVUS56
 4920 0d39 08       		.uleb128 0x8
 4921 0d3a 190C0000 		.4byte	.LASF188
 4922 0d3e 6704     		.2byte	0x467
 4923 0d40 53       		.byte	0x53
 4924 0d41 90000000 		.4byte	0x90
 4925 0d45 2F010000 		.4byte	.LLST57
 4926 0d49 2B010000 		.4byte	.LVUS57
 4927 0d4d 00       		.byte	0
 4928 0d4e 0F       		.uleb128 0xf
 4929 0d4f 71050000 		.4byte	.LASF201
 4930 0d53 5404     		.2byte	0x454
 4931 0d55 12       		.byte	0x12
 4932 0d56 02070000 		.4byte	0x702
 4933 0d5a 00000000 		.4byte	.LFB158
 4934 0d5e 06000000 		.4byte	.LFE158-.LFB158
 4935 0d62 01       		.uleb128 0x1
 4936 0d63 9C       		.byte	0x9c
 4937 0d64 7D0D0000 		.4byte	0xd7d
 4938 0d68 08       		.uleb128 0x8
 4939 0d69 5B050000 		.4byte	.LASF182
 4940 0d6d 5404     		.2byte	0x454
 4941 0d6f 3C       		.byte	0x3c
 4942 0d70 C30C0000 		.4byte	0xcc3
 4943 0d74 46010000 		.4byte	.LLST55
 4944 0d78 42010000 		.4byte	.LVUS55
 4945 0d7c 00       		.byte	0
 4946 0d7d 0F       		.uleb128 0xf
 4947 0d7e DC0B0000 		.4byte	.LASF202
 4948 0d82 3704     		.2byte	0x437
 4949 0d84 13       		.byte	0x13
 4950 0d85 8A030000 		.4byte	0x38a
 4951 0d89 00000000 		.4byte	.LFB157
 4952 0d8d 06000000 		.4byte	.LFE157-.LFB157
 4953 0d91 01       		.uleb128 0x1
 4954 0d92 9C       		.byte	0x9c
 4955 0d93 B50D0000 		.4byte	0xdb5
 4956 0d97 08       		.uleb128 0x8
 4957 0d98 5B050000 		.4byte	.LASF182
 4958 0d9c 3704     		.2byte	0x437
 4959 0d9e 38       		.byte	0x38
ARM GAS  C:\Users\DEVELO~1\AppData\Local\Temp\ccmc7I4c.s 			page 88


 4960 0d9f 440A0000 		.4byte	0xa44
 4961 0da3 5D010000 		.4byte	.LLST54
 4962 0da7 59010000 		.4byte	.LVUS54
 4963 0dab 1B       		.uleb128 0x1b
 4964 0dac 06000000 		.4byte	.LVL236
 4965 0db0 F4070000 		.4byte	0x7f4
 4966 0db4 00       		.byte	0
 4967 0db5 0F       		.uleb128 0xf
 4968 0db6 2B030000 		.4byte	.LASF203
 4969 0dba 2904     		.2byte	0x429
 4970 0dbc 13       		.byte	0x13
 4971 0dbd 8A030000 		.4byte	0x38a
 4972 0dc1 00000000 		.4byte	.LFB156
 4973 0dc5 26000000 		.4byte	.LFE156-.LFB156
 4974 0dc9 01       		.uleb128 0x1
 4975 0dca 9C       		.byte	0x9c
 4976 0dcb ED0D0000 		.4byte	0xded
 4977 0dcf 08       		.uleb128 0x8
 4978 0dd0 5B050000 		.4byte	.LASF182
 4979 0dd4 2904     		.2byte	0x429
 4980 0dd6 33       		.byte	0x33
 4981 0dd7 440A0000 		.4byte	0xa44
 4982 0ddb 78010000 		.4byte	.LLST53
 4983 0ddf 70010000 		.4byte	.LVUS53
 4984 0de3 05       		.uleb128 0x5
 4985 0de4 18000000 		.4byte	.LVL231
 4986 0de8 09080000 		.4byte	0x809
 4987 0dec 00       		.byte	0
 4988 0ded 0F       		.uleb128 0xf
 4989 0dee 30020000 		.4byte	.LASF204
 4990 0df2 1604     		.2byte	0x416
 4991 0df4 13       		.byte	0x13
 4992 0df5 8A030000 		.4byte	0x38a
 4993 0df9 00000000 		.4byte	.LFB155
 4994 0dfd 2C000000 		.4byte	.LFE155-.LFB155
 4995 0e01 01       		.uleb128 0x1
 4996 0e02 9C       		.byte	0x9c
 4997 0e03 380E0000 		.4byte	0xe38
 4998 0e07 08       		.uleb128 0x8
 4999 0e08 5B050000 		.4byte	.LASF182
 5000 0e0c 1604     		.2byte	0x416
 5001 0e0e 34       		.byte	0x34
 5002 0e0f 440A0000 		.4byte	0xa44
 5003 0e13 9D010000 		.4byte	.LLST52
 5004 0e17 95010000 		.4byte	.LVUS52
 5005 0e1b 06       		.uleb128 0x6
 5006 0e1c 18000000 		.4byte	.LVL225
 5007 0e20 38080000 		.4byte	0x838
 5008 0e24 2E0E0000 		.4byte	0xe2e
 5009 0e28 01       		.uleb128 0x1
 5010 0e29 01       		.uleb128 0x1
 5011 0e2a 51       		.byte	0x51
 5012 0e2b 01       		.uleb128 0x1
 5013 0e2c 31       		.byte	0x31
 5014 0e2d 00       		.byte	0
 5015 0e2e 05       		.uleb128 0x5
 5016 0e2f 1E000000 		.4byte	.LVL226
ARM GAS  C:\Users\DEVELO~1\AppData\Local\Temp\ccmc7I4c.s 			page 89


 5017 0e33 23080000 		.4byte	0x823
 5018 0e37 00       		.byte	0
 5019 0e38 27       		.uleb128 0x27
 5020 0e39 EE0B0000 		.4byte	.LASF210
 5021 0e3d DA02     		.2byte	0x2da
 5022 0e3f 0D       		.byte	0xd
 5023 0e40 00000000 		.4byte	.LFB154
 5024 0e44 02000000 		.4byte	.LFE154-.LFB154
 5025 0e48 01       		.uleb128 0x1
 5026 0e49 9C       		.byte	0x9c
 5027 0e4a 730E0000 		.4byte	0xe73
 5028 0e4e 1F       		.uleb128 0x1f
 5029 0e4f 5B050000 		.4byte	.LASF182
 5030 0e53 44       		.byte	0x44
 5031 0e54 440A0000 		.4byte	0xa44
 5032 0e58 01       		.uleb128 0x1
 5033 0e59 50       		.byte	0x50
 5034 0e5a 1F       		.uleb128 0x1f
 5035 0e5b 190C0000 		.4byte	.LASF188
 5036 0e5f 52       		.byte	0x52
 5037 0e60 90000000 		.4byte	0x90
 5038 0e64 01       		.uleb128 0x1
 5039 0e65 51       		.byte	0x51
 5040 0e66 1F       		.uleb128 0x1f
 5041 0e67 82050000 		.4byte	.LASF129
 5042 0e6b 6D       		.byte	0x6d
 5043 0e6c 37070000 		.4byte	0x737
 5044 0e70 01       		.uleb128 0x1
 5045 0e71 52       		.byte	0x52
 5046 0e72 00       		.byte	0
 5047 0e73 14       		.uleb128 0x14
 5048 0e74 D1080000 		.4byte	.LASF205
 5049 0e78 C102     		.2byte	0x2c1
 5050 0e7a 0D       		.byte	0xd
 5051 0e7b 8C0E0000 		.4byte	0xe8c
 5052 0e7f 0C       		.uleb128 0xc
 5053 0e80 5B050000 		.4byte	.LASF182
 5054 0e84 C102     		.2byte	0x2c1
 5055 0e86 3E       		.byte	0x3e
 5056 0e87 440A0000 		.4byte	0xa44
 5057 0e8b 00       		.byte	0
 5058 0e8c 14       		.uleb128 0x14
 5059 0e8d 68000000 		.4byte	.LASF206
 5060 0e91 B202     		.2byte	0x2b2
 5061 0e93 0D       		.byte	0xd
 5062 0e94 A50E0000 		.4byte	0xea5
 5063 0e98 0C       		.uleb128 0xc
 5064 0e99 5B050000 		.4byte	.LASF182
 5065 0e9d B202     		.2byte	0x2b2
 5066 0e9f 3D       		.byte	0x3d
 5067 0ea0 440A0000 		.4byte	0xa44
 5068 0ea4 00       		.byte	0
 5069 0ea5 14       		.uleb128 0x14
 5070 0ea6 47080000 		.4byte	.LASF207
 5071 0eaa A302     		.2byte	0x2a3
 5072 0eac 0D       		.byte	0xd
 5073 0ead BE0E0000 		.4byte	0xebe
ARM GAS  C:\Users\DEVELO~1\AppData\Local\Temp\ccmc7I4c.s 			page 90


 5074 0eb1 0C       		.uleb128 0xc
 5075 0eb2 5B050000 		.4byte	.LASF182
 5076 0eb6 A302     		.2byte	0x2a3
 5077 0eb8 3C       		.byte	0x3c
 5078 0eb9 440A0000 		.4byte	0xa44
 5079 0ebd 00       		.byte	0
 5080 0ebe 14       		.uleb128 0x14
 5081 0ebf 4B030000 		.4byte	.LASF208
 5082 0ec3 9402     		.2byte	0x294
 5083 0ec5 0D       		.byte	0xd
 5084 0ec6 D70E0000 		.4byte	0xed7
 5085 0eca 0C       		.uleb128 0xc
 5086 0ecb 5B050000 		.4byte	.LASF182
 5087 0ecf 9402     		.2byte	0x294
 5088 0ed1 39       		.byte	0x39
 5089 0ed2 440A0000 		.4byte	0xa44
 5090 0ed6 00       		.byte	0
 5091 0ed7 14       		.uleb128 0x14
 5092 0ed8 400C0000 		.4byte	.LASF209
 5093 0edc 8502     		.2byte	0x285
 5094 0ede 0D       		.byte	0xd
 5095 0edf F00E0000 		.4byte	0xef0
 5096 0ee3 0C       		.uleb128 0xc
 5097 0ee4 5B050000 		.4byte	.LASF182
 5098 0ee8 8502     		.2byte	0x285
 5099 0eea 35       		.byte	0x35
 5100 0eeb 440A0000 		.4byte	0xa44
 5101 0eef 00       		.byte	0
 5102 0ef0 27       		.uleb128 0x27
 5103 0ef1 07060000 		.4byte	.LASF211
 5104 0ef5 0A02     		.2byte	0x20a
 5105 0ef7 06       		.byte	0x6
 5106 0ef8 00000000 		.4byte	.LFB148
 5107 0efc B0090000 		.4byte	.LFE148-.LFB148
 5108 0f00 01       		.uleb128 0x1
 5109 0f01 9C       		.byte	0x9c
 5110 0f02 11150000 		.4byte	0x1511
 5111 0f06 08       		.uleb128 0x8
 5112 0f07 5B050000 		.4byte	.LASF182
 5113 0f0b 0A02     		.2byte	0x20a
 5114 0f0d 2C       		.byte	0x2c
 5115 0f0e 440A0000 		.4byte	0xa44
 5116 0f12 BE010000 		.4byte	.LLST25
 5117 0f16 BA010000 		.4byte	.LVUS25
 5118 0f1a 1A       		.uleb128 0x1a
 5119 0f1b 85000000 		.4byte	.LASF176
 5120 0f1f 0C02     		.2byte	0x20c
 5121 0f21 1A       		.byte	0x1a
 5122 0f22 1E080000 		.4byte	0x81e
 5123 0f26 DF010000 		.4byte	.LLST26
 5124 0f2a CF010000 		.4byte	.LVUS26
 5125 0f2e 1A       		.uleb128 0x1a
 5126 0f2f 680A0000 		.4byte	.LASF177
 5127 0f33 0D02     		.2byte	0x20d
 5128 0f35 0C       		.byte	0xc
 5129 0f36 A8000000 		.4byte	0xa8
 5130 0f3a 2D020000 		.4byte	.LLST27
ARM GAS  C:\Users\DEVELO~1\AppData\Local\Temp\ccmc7I4c.s 			page 91


 5131 0f3e 1D020000 		.4byte	.LVUS27
 5132 0f42 33       		.uleb128 0x33
 5133 0f43 6900     		.ascii	"i\000"
 5134 0f45 01       		.byte	0x1
 5135 0f46 0E02     		.2byte	0x20e
 5136 0f48 0C       		.byte	0xc
 5137 0f49 A8000000 		.4byte	0xa8
 5138 0f4d 7B020000 		.4byte	.LLST28
 5139 0f51 6B020000 		.4byte	.LVUS28
 5140 0f55 1A       		.uleb128 0x1a
 5141 0f56 3E020000 		.4byte	.LASF213
 5142 0f5a 0F02     		.2byte	0x20f
 5143 0f5c 0C       		.byte	0xc
 5144 0f5d A8000000 		.4byte	0xa8
 5145 0f61 C7020000 		.4byte	.LLST29
 5146 0f65 B7020000 		.4byte	.LVUS29
 5147 0f69 20       		.uleb128 0x20
 5148 0f6a 490A0000 		.4byte	0xa49
 5149 0f6e AE000000 		.4byte	.LBI16
 5150 0f72 0100     		.2byte	.LVU300
 5151 0f74 18000000 		.4byte	.LLRL30
 5152 0f78 7802     		.2byte	0x278
 5153 0f7a 07       		.byte	0x7
 5154 0f7b 11100000 		.4byte	0x1011
 5155 0f7f 10       		.uleb128 0x10
 5156 0f80 540A0000 		.4byte	0xa54
 5157 0f84 0A030000 		.4byte	.LLST31
 5158 0f88 02030000 		.4byte	.LVUS31
 5159 0f8c 1C       		.uleb128 0x1c
 5160 0f8d 18000000 		.4byte	.LLRL30
 5161 0f91 0D       		.uleb128 0xd
 5162 0f92 600A0000 		.4byte	0xa60
 5163 0f96 34030000 		.4byte	.LLST32
 5164 0f9a 2A030000 		.4byte	.LVUS32
 5165 0f9e 0D       		.uleb128 0xd
 5166 0f9f 6C0A0000 		.4byte	0xa6c
 5167 0fa3 6B030000 		.4byte	.LLST33
 5168 0fa7 61030000 		.4byte	.LVUS33
 5169 0fab 0D       		.uleb128 0xd
 5170 0fac 780A0000 		.4byte	0xa78
 5171 0fb0 9C030000 		.4byte	.LLST34
 5172 0fb4 98030000 		.4byte	.LVUS34
 5173 0fb8 0D       		.uleb128 0xd
 5174 0fb9 840A0000 		.4byte	0xa84
 5175 0fbd C2030000 		.4byte	.LLST35
 5176 0fc1 BA030000 		.4byte	.LVUS35
 5177 0fc5 0D       		.uleb128 0xd
 5178 0fc6 900A0000 		.4byte	0xa90
 5179 0fca E6030000 		.4byte	.LLST36
 5180 0fce E2030000 		.4byte	.LVUS36
 5181 0fd2 0D       		.uleb128 0xd
 5182 0fd3 9C0A0000 		.4byte	0xa9c
 5183 0fd7 FA030000 		.4byte	.LLST37
 5184 0fdb F8030000 		.4byte	.LVUS37
 5185 0fdf 0D       		.uleb128 0xd
 5186 0fe0 A80A0000 		.4byte	0xaa8
 5187 0fe4 11040000 		.4byte	.LLST38
ARM GAS  C:\Users\DEVELO~1\AppData\Local\Temp\ccmc7I4c.s 			page 92


 5188 0fe8 0B040000 		.4byte	.LVUS38
 5189 0fec 0D       		.uleb128 0xd
 5190 0fed B40A0000 		.4byte	0xab4
 5191 0ff1 34040000 		.4byte	.LLST39
 5192 0ff5 30040000 		.4byte	.LVUS39
 5193 0ff9 15       		.uleb128 0x15
 5194 0ffa 7C060000 		.4byte	.LVL174
 5195 0ffe 52080000 		.4byte	0x852
 5196 1002 01       		.uleb128 0x1
 5197 1003 01       		.uleb128 0x1
 5198 1004 50       		.byte	0x50
 5199 1005 02       		.uleb128 0x2
 5200 1006 75       		.byte	0x75
 5201 1007 00       		.sleb128 0
 5202 1008 01       		.uleb128 0x1
 5203 1009 01       		.uleb128 0x1
 5204 100a 52       		.byte	0x52
 5205 100b 02       		.uleb128 0x2
 5206 100c 77       		.byte	0x77
 5207 100d 00       		.sleb128 0
 5208 100e 00       		.byte	0
 5209 100f 00       		.byte	0
 5210 1010 00       		.byte	0
 5211 1011 34       		.uleb128 0x34
 5212 1012 C10A0000 		.4byte	0xac1
 5213 1016 30000000 		.4byte	.LLRL40
 5214 101a 01       		.byte	0x1
 5215 101b 6C02     		.2byte	0x26c
 5216 101d 0D       		.byte	0xd
 5217 101e EF110000 		.4byte	0x11ef
 5218 1022 28       		.uleb128 0x28
 5219 1023 D80A0000 		.4byte	0xad8
 5220 1027 28       		.uleb128 0x28
 5221 1028 CC0A0000 		.4byte	0xacc
 5222 102c 1C       		.uleb128 0x1c
 5223 102d 30000000 		.4byte	.LLRL40
 5224 1031 29       		.uleb128 0x29
 5225 1032 E40A0000 		.4byte	0xae4
 5226 1036 21       		.uleb128 0x21
 5227 1037 F00A0000 		.4byte	0xaf0
 5228 103b 01       		.uleb128 0x1
 5229 103c 57       		.byte	0x57
 5230 103d 0D       		.uleb128 0xd
 5231 103e FC0A0000 		.4byte	0xafc
 5232 1042 52040000 		.4byte	.LLST41
 5233 1046 4E040000 		.4byte	.LVUS41
 5234 104a 0D       		.uleb128 0xd
 5235 104b 080B0000 		.4byte	0xb08
 5236 104f 6A040000 		.4byte	.LLST42
 5237 1053 64040000 		.4byte	.LVUS42
 5238 1057 06       		.uleb128 0x6
 5239 1058 92010000 		.4byte	.LVL101
 5240 105c 71080000 		.4byte	0x871
 5241 1060 73100000 		.4byte	0x1073
 5242 1064 01       		.uleb128 0x1
 5243 1065 01       		.uleb128 0x1
 5244 1066 50       		.byte	0x50
ARM GAS  C:\Users\DEVELO~1\AppData\Local\Temp\ccmc7I4c.s 			page 93


 5245 1067 02       		.uleb128 0x2
 5246 1068 77       		.byte	0x77
 5247 1069 00       		.sleb128 0
 5248 106a 01       		.uleb128 0x1
 5249 106b 01       		.uleb128 0x1
 5250 106c 51       		.byte	0x51
 5251 106d 04       		.uleb128 0x4
 5252 106e 7D       		.byte	0x7d
 5253 106f 00       		.sleb128 0
 5254 1070 94       		.byte	0x94
 5255 1071 01       		.byte	0x1
 5256 1072 00       		.byte	0
 5257 1073 05       		.uleb128 0x5
 5258 1074 B0010000 		.4byte	.LVL105
 5259 1078 37090000 		.4byte	0x937
 5260 107c 06       		.uleb128 0x6
 5261 107d EA010000 		.4byte	.LVL112
 5262 1081 71080000 		.4byte	0x871
 5263 1085 92100000 		.4byte	0x1092
 5264 1089 01       		.uleb128 0x1
 5265 108a 01       		.uleb128 0x1
 5266 108b 51       		.byte	0x51
 5267 108c 04       		.uleb128 0x4
 5268 108d 7D       		.byte	0x7d
 5269 108e 00       		.sleb128 0
 5270 108f 94       		.byte	0x94
 5271 1090 01       		.byte	0x1
 5272 1091 00       		.byte	0
 5273 1092 05       		.uleb128 0x5
 5274 1093 2A020000 		.4byte	.LVL115
 5275 1097 37090000 		.4byte	0x937
 5276 109b 06       		.uleb128 0x6
 5277 109c 98030000 		.4byte	.LVL132
 5278 10a0 71080000 		.4byte	0x871
 5279 10a4 B1100000 		.4byte	0x10b1
 5280 10a8 01       		.uleb128 0x1
 5281 10a9 01       		.uleb128 0x1
 5282 10aa 51       		.byte	0x51
 5283 10ab 04       		.uleb128 0x4
 5284 10ac 7D       		.byte	0x7d
 5285 10ad 00       		.sleb128 0
 5286 10ae 94       		.byte	0x94
 5287 10af 01       		.byte	0x1
 5288 10b0 00       		.byte	0
 5289 10b1 06       		.uleb128 0x6
 5290 10b2 B2030000 		.4byte	.LVL133
 5291 10b6 37090000 		.4byte	0x937
 5292 10ba C7100000 		.4byte	0x10c7
 5293 10be 01       		.uleb128 0x1
 5294 10bf 01       		.uleb128 0x1
 5295 10c0 51       		.byte	0x51
 5296 10c1 04       		.uleb128 0x4
 5297 10c2 7D       		.byte	0x7d
 5298 10c3 00       		.sleb128 0
 5299 10c4 94       		.byte	0x94
 5300 10c5 01       		.byte	0x1
 5301 10c6 00       		.byte	0
ARM GAS  C:\Users\DEVELO~1\AppData\Local\Temp\ccmc7I4c.s 			page 94


 5302 10c7 06       		.uleb128 0x6
 5303 10c8 4C040000 		.4byte	.LVL146
 5304 10cc 71080000 		.4byte	0x871
 5305 10d0 DD100000 		.4byte	0x10dd
 5306 10d4 01       		.uleb128 0x1
 5307 10d5 01       		.uleb128 0x1
 5308 10d6 51       		.byte	0x51
 5309 10d7 04       		.uleb128 0x4
 5310 10d8 7D       		.byte	0x7d
 5311 10d9 00       		.sleb128 0
 5312 10da 94       		.byte	0x94
 5313 10db 01       		.byte	0x1
 5314 10dc 00       		.byte	0
 5315 10dd 06       		.uleb128 0x6
 5316 10de 60040000 		.4byte	.LVL147
 5317 10e2 71080000 		.4byte	0x871
 5318 10e6 F3100000 		.4byte	0x10f3
 5319 10ea 01       		.uleb128 0x1
 5320 10eb 01       		.uleb128 0x1
 5321 10ec 51       		.byte	0x51
 5322 10ed 04       		.uleb128 0x4
 5323 10ee 7D       		.byte	0x7d
 5324 10ef 00       		.sleb128 0
 5325 10f0 94       		.byte	0x94
 5326 10f1 01       		.byte	0x1
 5327 10f2 00       		.byte	0
 5328 10f3 05       		.uleb128 0x5
 5329 10f4 96040000 		.4byte	.LVL148
 5330 10f8 37090000 		.4byte	0x937
 5331 10fc 05       		.uleb128 0x5
 5332 10fd CA040000 		.4byte	.LVL152
 5333 1101 37090000 		.4byte	0x937
 5334 1105 06       		.uleb128 0x6
 5335 1106 86050000 		.4byte	.LVL161
 5336 110a 380E0000 		.4byte	0xe38
 5337 110e 19110000 		.4byte	0x1119
 5338 1112 01       		.uleb128 0x1
 5339 1113 01       		.uleb128 0x1
 5340 1114 50       		.byte	0x50
 5341 1115 02       		.uleb128 0x2
 5342 1116 74       		.byte	0x74
 5343 1117 00       		.sleb128 0
 5344 1118 00       		.byte	0
 5345 1119 06       		.uleb128 0x6
 5346 111a 48060000 		.4byte	.LVL171
 5347 111e 71080000 		.4byte	0x871
 5348 1122 2F110000 		.4byte	0x112f
 5349 1126 01       		.uleb128 0x1
 5350 1127 01       		.uleb128 0x1
 5351 1128 51       		.byte	0x51
 5352 1129 04       		.uleb128 0x4
 5353 112a 7D       		.byte	0x7d
 5354 112b 00       		.sleb128 0
 5355 112c 94       		.byte	0x94
 5356 112d 01       		.byte	0x1
 5357 112e 00       		.byte	0
 5358 112f 05       		.uleb128 0x5
ARM GAS  C:\Users\DEVELO~1\AppData\Local\Temp\ccmc7I4c.s 			page 95


 5359 1130 68060000 		.4byte	.LVL172
 5360 1134 37090000 		.4byte	0x937
 5361 1138 05       		.uleb128 0x5
 5362 1139 DA060000 		.4byte	.LVL181
 5363 113d 37090000 		.4byte	0x937
 5364 1141 06       		.uleb128 0x6
 5365 1142 E4060000 		.4byte	.LVL182
 5366 1146 71080000 		.4byte	0x871
 5367 114a 57110000 		.4byte	0x1157
 5368 114e 01       		.uleb128 0x1
 5369 114f 01       		.uleb128 0x1
 5370 1150 51       		.byte	0x51
 5371 1151 04       		.uleb128 0x4
 5372 1152 7D       		.byte	0x7d
 5373 1153 00       		.sleb128 0
 5374 1154 94       		.byte	0x94
 5375 1155 01       		.byte	0x1
 5376 1156 00       		.byte	0
 5377 1157 06       		.uleb128 0x6
 5378 1158 52070000 		.4byte	.LVL186
 5379 115c 71080000 		.4byte	0x871
 5380 1160 6D110000 		.4byte	0x116d
 5381 1164 01       		.uleb128 0x1
 5382 1165 01       		.uleb128 0x1
 5383 1166 51       		.byte	0x51
 5384 1167 04       		.uleb128 0x4
 5385 1168 7D       		.byte	0x7d
 5386 1169 00       		.sleb128 0
 5387 116a 94       		.byte	0x94
 5388 116b 01       		.byte	0x1
 5389 116c 00       		.byte	0
 5390 116d 05       		.uleb128 0x5
 5391 116e 74070000 		.4byte	.LVL187
 5392 1172 37090000 		.4byte	0x937
 5393 1176 06       		.uleb128 0x6
 5394 1177 CE070000 		.4byte	.LVL197
 5395 117b 71080000 		.4byte	0x871
 5396 117f 8C110000 		.4byte	0x118c
 5397 1183 01       		.uleb128 0x1
 5398 1184 01       		.uleb128 0x1
 5399 1185 51       		.byte	0x51
 5400 1186 04       		.uleb128 0x4
 5401 1187 7D       		.byte	0x7d
 5402 1188 00       		.sleb128 0
 5403 1189 94       		.byte	0x94
 5404 118a 01       		.byte	0x1
 5405 118b 00       		.byte	0
 5406 118c 06       		.uleb128 0x6
 5407 118d 88080000 		.4byte	.LVL210
 5408 1191 380E0000 		.4byte	0xe38
 5409 1195 A6110000 		.4byte	0x11a6
 5410 1199 01       		.uleb128 0x1
 5411 119a 01       		.uleb128 0x1
 5412 119b 50       		.byte	0x50
 5413 119c 02       		.uleb128 0x2
 5414 119d 74       		.byte	0x74
 5415 119e 00       		.sleb128 0
ARM GAS  C:\Users\DEVELO~1\AppData\Local\Temp\ccmc7I4c.s 			page 96


 5416 119f 01       		.uleb128 0x1
 5417 11a0 01       		.uleb128 0x1
 5418 11a1 52       		.byte	0x52
 5419 11a2 02       		.uleb128 0x2
 5420 11a3 7A       		.byte	0x7a
 5421 11a4 00       		.sleb128 0
 5422 11a5 00       		.byte	0
 5423 11a6 05       		.uleb128 0x5
 5424 11a7 9A080000 		.4byte	.LVL213
 5425 11ab 37090000 		.4byte	0x937
 5426 11af 06       		.uleb128 0x6
 5427 11b0 A4080000 		.4byte	.LVL215
 5428 11b4 71080000 		.4byte	0x871
 5429 11b8 C5110000 		.4byte	0x11c5
 5430 11bc 01       		.uleb128 0x1
 5431 11bd 01       		.uleb128 0x1
 5432 11be 51       		.byte	0x51
 5433 11bf 04       		.uleb128 0x4
 5434 11c0 7D       		.byte	0x7d
 5435 11c1 00       		.sleb128 0
 5436 11c2 94       		.byte	0x94
 5437 11c3 01       		.byte	0x1
 5438 11c4 00       		.byte	0
 5439 11c5 06       		.uleb128 0x6
 5440 11c6 B8080000 		.4byte	.LVL216
 5441 11ca 37090000 		.4byte	0x937
 5442 11ce DB110000 		.4byte	0x11db
 5443 11d2 01       		.uleb128 0x1
 5444 11d3 01       		.uleb128 0x1
 5445 11d4 51       		.byte	0x51
 5446 11d5 04       		.uleb128 0x4
 5447 11d6 7D       		.byte	0x7d
 5448 11d7 00       		.sleb128 0
 5449 11d8 94       		.byte	0x94
 5450 11d9 01       		.byte	0x1
 5451 11da 00       		.byte	0
 5452 11db 15       		.uleb128 0x15
 5453 11dc CE080000 		.4byte	.LVL217
 5454 11e0 71080000 		.4byte	0x871
 5455 11e4 01       		.uleb128 0x1
 5456 11e5 01       		.uleb128 0x1
 5457 11e6 51       		.byte	0x51
 5458 11e7 04       		.uleb128 0x4
 5459 11e8 7D       		.byte	0x7d
 5460 11e9 00       		.sleb128 0
 5461 11ea 94       		.byte	0x94
 5462 11eb 01       		.byte	0x1
 5463 11ec 00       		.byte	0
 5464 11ed 00       		.byte	0
 5465 11ee 00       		.byte	0
 5466 11ef 20       		.uleb128 0x20
 5467 11f0 150B0000 		.4byte	0xb15
 5468 11f4 80010000 		.4byte	.LBI36
 5469 11f8 0000     		.2byte	.LVU371
 5470 11fa 79000000 		.4byte	.LLRL43
 5471 11fe 6802     		.2byte	0x268
 5472 1200 0D       		.byte	0xd
ARM GAS  C:\Users\DEVELO~1\AppData\Local\Temp\ccmc7I4c.s 			page 97


 5473 1201 9C130000 		.4byte	0x139c
 5474 1205 10       		.uleb128 0x10
 5475 1206 2C0B0000 		.4byte	0xb2c
 5476 120a DD040000 		.4byte	.LLST44
 5477 120e BD040000 		.4byte	.LVUS44
 5478 1212 10       		.uleb128 0x10
 5479 1213 200B0000 		.4byte	0xb20
 5480 1217 5E050000 		.4byte	.LLST45
 5481 121b 4E050000 		.4byte	.LVUS45
 5482 121f 1C       		.uleb128 0x1c
 5483 1220 79000000 		.4byte	.LLRL43
 5484 1224 0D       		.uleb128 0xd
 5485 1225 380B0000 		.4byte	0xb38
 5486 1229 DB050000 		.4byte	.LLST46
 5487 122d 99050000 		.4byte	.LVUS46
 5488 1231 0D       		.uleb128 0xd
 5489 1232 440B0000 		.4byte	0xb44
 5490 1236 DB050000 		.4byte	.LLST46
 5491 123a 99050000 		.4byte	.LVUS46
 5492 123e 29       		.uleb128 0x29
 5493 123f 500B0000 		.4byte	0xb50
 5494 1243 05       		.uleb128 0x5
 5495 1244 1C010000 		.4byte	.LVL89
 5496 1248 71080000 		.4byte	0x871
 5497 124c 05       		.uleb128 0x5
 5498 124d 3A010000 		.4byte	.LVL91
 5499 1251 37090000 		.4byte	0x937
 5500 1255 06       		.uleb128 0x6
 5501 1256 44010000 		.4byte	.LVL92
 5502 125a 71080000 		.4byte	0x871
 5503 125e 6B120000 		.4byte	0x126b
 5504 1262 01       		.uleb128 0x1
 5505 1263 01       		.uleb128 0x1
 5506 1264 51       		.byte	0x51
 5507 1265 04       		.uleb128 0x4
 5508 1266 7D       		.byte	0x7d
 5509 1267 00       		.sleb128 0
 5510 1268 94       		.byte	0x94
 5511 1269 01       		.byte	0x1
 5512 126a 00       		.byte	0
 5513 126b 06       		.uleb128 0x6
 5514 126c 56010000 		.4byte	.LVL94
 5515 1270 37090000 		.4byte	0x937
 5516 1274 81120000 		.4byte	0x1281
 5517 1278 01       		.uleb128 0x1
 5518 1279 01       		.uleb128 0x1
 5519 127a 51       		.byte	0x51
 5520 127b 04       		.uleb128 0x4
 5521 127c 7D       		.byte	0x7d
 5522 127d 00       		.sleb128 0
 5523 127e 94       		.byte	0x94
 5524 127f 01       		.byte	0x1
 5525 1280 00       		.byte	0
 5526 1281 06       		.uleb128 0x6
 5527 1282 BA010000 		.4byte	.LVL108
 5528 1286 71080000 		.4byte	0x871
 5529 128a 97120000 		.4byte	0x1297
ARM GAS  C:\Users\DEVELO~1\AppData\Local\Temp\ccmc7I4c.s 			page 98


 5530 128e 01       		.uleb128 0x1
 5531 128f 01       		.uleb128 0x1
 5532 1290 51       		.byte	0x51
 5533 1291 04       		.uleb128 0x4
 5534 1292 7D       		.byte	0x7d
 5535 1293 00       		.sleb128 0
 5536 1294 94       		.byte	0x94
 5537 1295 01       		.byte	0x1
 5538 1296 00       		.byte	0
 5539 1297 05       		.uleb128 0x5
 5540 1298 DC010000 		.4byte	.LVL109
 5541 129c 37090000 		.4byte	0x937
 5542 12a0 06       		.uleb128 0x6
 5543 12a1 3A020000 		.4byte	.LVL117
 5544 12a5 71080000 		.4byte	0x871
 5545 12a9 B6120000 		.4byte	0x12b6
 5546 12ad 01       		.uleb128 0x1
 5547 12ae 01       		.uleb128 0x1
 5548 12af 51       		.byte	0x51
 5549 12b0 04       		.uleb128 0x4
 5550 12b1 7D       		.byte	0x7d
 5551 12b2 00       		.sleb128 0
 5552 12b3 94       		.byte	0x94
 5553 12b4 01       		.byte	0x1
 5554 12b5 00       		.byte	0
 5555 12b6 06       		.uleb128 0x6
 5556 12b7 3A030000 		.4byte	.LVL128
 5557 12bb 71080000 		.4byte	0x871
 5558 12bf CC120000 		.4byte	0x12cc
 5559 12c3 01       		.uleb128 0x1
 5560 12c4 01       		.uleb128 0x1
 5561 12c5 51       		.byte	0x51
 5562 12c6 04       		.uleb128 0x4
 5563 12c7 7D       		.byte	0x7d
 5564 12c8 00       		.sleb128 0
 5565 12c9 94       		.byte	0x94
 5566 12ca 01       		.byte	0x1
 5567 12cb 00       		.byte	0
 5568 12cc 05       		.uleb128 0x5
 5569 12cd 58030000 		.4byte	.LVL129
 5570 12d1 37090000 		.4byte	0x937
 5571 12d5 06       		.uleb128 0x6
 5572 12d6 64030000 		.4byte	.LVL130
 5573 12da 71080000 		.4byte	0x871
 5574 12de EB120000 		.4byte	0x12eb
 5575 12e2 01       		.uleb128 0x1
 5576 12e3 01       		.uleb128 0x1
 5577 12e4 51       		.byte	0x51
 5578 12e5 04       		.uleb128 0x4
 5579 12e6 7D       		.byte	0x7d
 5580 12e7 00       		.sleb128 0
 5581 12e8 94       		.byte	0x94
 5582 12e9 01       		.byte	0x1
 5583 12ea 00       		.byte	0
 5584 12eb 05       		.uleb128 0x5
 5585 12ec 8E030000 		.4byte	.LVL131
 5586 12f0 37090000 		.4byte	0x937
ARM GAS  C:\Users\DEVELO~1\AppData\Local\Temp\ccmc7I4c.s 			page 99


 5587 12f4 06       		.uleb128 0x6
 5588 12f5 BC030000 		.4byte	.LVL134
 5589 12f9 71080000 		.4byte	0x871
 5590 12fd 0A130000 		.4byte	0x130a
 5591 1301 01       		.uleb128 0x1
 5592 1302 01       		.uleb128 0x1
 5593 1303 51       		.byte	0x51
 5594 1304 04       		.uleb128 0x4
 5595 1305 7D       		.byte	0x7d
 5596 1306 00       		.sleb128 0
 5597 1307 94       		.byte	0x94
 5598 1308 01       		.byte	0x1
 5599 1309 00       		.byte	0
 5600 130a 05       		.uleb128 0x5
 5601 130b DE030000 		.4byte	.LVL135
 5602 130f 37090000 		.4byte	0x937
 5603 1313 05       		.uleb128 0x5
 5604 1314 FC030000 		.4byte	.LVL139
 5605 1318 37090000 		.4byte	0x937
 5606 131c 06       		.uleb128 0x6
 5607 131d B0040000 		.4byte	.LVL151
 5608 1321 380E0000 		.4byte	0xe38
 5609 1325 30130000 		.4byte	0x1330
 5610 1329 01       		.uleb128 0x1
 5611 132a 01       		.uleb128 0x1
 5612 132b 50       		.byte	0x50
 5613 132c 02       		.uleb128 0x2
 5614 132d 74       		.byte	0x74
 5615 132e 00       		.sleb128 0
 5616 132f 00       		.byte	0
 5617 1330 06       		.uleb128 0x6
 5618 1331 D6040000 		.4byte	.LVL154
 5619 1335 71080000 		.4byte	0x871
 5620 1339 46130000 		.4byte	0x1346
 5621 133d 01       		.uleb128 0x1
 5622 133e 01       		.uleb128 0x1
 5623 133f 51       		.byte	0x51
 5624 1340 04       		.uleb128 0x4
 5625 1341 7D       		.byte	0x7d
 5626 1342 00       		.sleb128 0
 5627 1343 94       		.byte	0x94
 5628 1344 01       		.byte	0x1
 5629 1345 00       		.byte	0
 5630 1346 06       		.uleb128 0x6
 5631 1347 0A050000 		.4byte	.LVL158
 5632 134b 71080000 		.4byte	0x871
 5633 134f 5C130000 		.4byte	0x135c
 5634 1353 01       		.uleb128 0x1
 5635 1354 01       		.uleb128 0x1
 5636 1355 51       		.byte	0x51
 5637 1356 04       		.uleb128 0x4
 5638 1357 7D       		.byte	0x7d
 5639 1358 00       		.sleb128 0
 5640 1359 94       		.byte	0x94
 5641 135a 01       		.byte	0x1
 5642 135b 00       		.byte	0
 5643 135c 06       		.uleb128 0x6
ARM GAS  C:\Users\DEVELO~1\AppData\Local\Temp\ccmc7I4c.s 			page 100


 5644 135d B6060000 		.4byte	.LVL180
 5645 1361 71080000 		.4byte	0x871
 5646 1365 72130000 		.4byte	0x1372
 5647 1369 01       		.uleb128 0x1
 5648 136a 01       		.uleb128 0x1
 5649 136b 51       		.byte	0x51
 5650 136c 04       		.uleb128 0x4
 5651 136d 7D       		.byte	0x7d
 5652 136e 00       		.sleb128 0
 5653 136f 94       		.byte	0x94
 5654 1370 01       		.byte	0x1
 5655 1371 00       		.byte	0
 5656 1372 06       		.uleb128 0x6
 5657 1373 16070000 		.4byte	.LVL185
 5658 1377 71080000 		.4byte	0x871
 5659 137b 88130000 		.4byte	0x1388
 5660 137f 01       		.uleb128 0x1
 5661 1380 01       		.uleb128 0x1
 5662 1381 51       		.byte	0x51
 5663 1382 04       		.uleb128 0x4
 5664 1383 7D       		.byte	0x7d
 5665 1384 00       		.sleb128 0
 5666 1385 94       		.byte	0x94
 5667 1386 01       		.byte	0x1
 5668 1387 00       		.byte	0
 5669 1388 05       		.uleb128 0x5
 5670 1389 A0070000 		.4byte	.LVL196
 5671 138d 37090000 		.4byte	0x937
 5672 1391 05       		.uleb128 0x5
 5673 1392 68080000 		.4byte	.LVL206
 5674 1396 37090000 		.4byte	0x937
 5675 139a 00       		.byte	0
 5676 139b 00       		.byte	0
 5677 139c 20       		.uleb128 0x20
 5678 139d FC090000 		.4byte	0x9fc
 5679 13a1 BE020000 		.4byte	.LBI60
 5680 13a5 0100     		.2byte	.LVU465
 5681 13a7 CE000000 		.4byte	.LLRL48
 5682 13ab 4F02     		.2byte	0x24f
 5683 13ad 07       		.byte	0x7
 5684 13ae 35140000 		.4byte	0x1435
 5685 13b2 10       		.uleb128 0x10
 5686 13b3 070A0000 		.4byte	0xa07
 5687 13b7 F7060000 		.4byte	.LLST49
 5688 13bb F1060000 		.4byte	.LVUS49
 5689 13bf 1C       		.uleb128 0x1c
 5690 13c0 CE000000 		.4byte	.LLRL48
 5691 13c4 0D       		.uleb128 0xd
 5692 13c5 130A0000 		.4byte	0xa13
 5693 13c9 18070000 		.4byte	.LLST50
 5694 13cd 10070000 		.4byte	.LVUS50
 5695 13d1 0D       		.uleb128 0xd
 5696 13d2 1F0A0000 		.4byte	0xa1f
 5697 13d6 3F070000 		.4byte	.LLST51
 5698 13da 37070000 		.4byte	.LVUS51
 5699 13de 21       		.uleb128 0x21
 5700 13df 2B0A0000 		.4byte	0xa2b
ARM GAS  C:\Users\DEVELO~1\AppData\Local\Temp\ccmc7I4c.s 			page 101


 5701 13e3 02       		.uleb128 0x2
 5702 13e4 91       		.byte	0x91
 5703 13e5 50       		.sleb128 -48
 5704 13e6 21       		.uleb128 0x21
 5705 13e7 370A0000 		.4byte	0xa37
 5706 13eb 02       		.uleb128 0x2
 5707 13ec 91       		.byte	0x91
 5708 13ed 54       		.sleb128 -44
 5709 13ee 06       		.uleb128 0x6
 5710 13ef 1C030000 		.4byte	.LVL126
 5711 13f3 8C0E0000 		.4byte	0xe8c
 5712 13f7 02140000 		.4byte	0x1402
 5713 13fb 01       		.uleb128 0x1
 5714 13fc 01       		.uleb128 0x1
 5715 13fd 50       		.byte	0x50
 5716 13fe 02       		.uleb128 0x2
 5717 13ff 74       		.byte	0x74
 5718 1400 00       		.sleb128 0
 5719 1401 00       		.byte	0
 5720 1402 06       		.uleb128 0x6
 5721 1403 38040000 		.4byte	.LVL143
 5722 1407 730E0000 		.4byte	0xe73
 5723 140b 16140000 		.4byte	0x1416
 5724 140f 01       		.uleb128 0x1
 5725 1410 01       		.uleb128 0x1
 5726 1411 50       		.byte	0x50
 5727 1412 02       		.uleb128 0x2
 5728 1413 74       		.byte	0x74
 5729 1414 00       		.sleb128 0
 5730 1415 00       		.byte	0
 5731 1416 06       		.uleb128 0x6
 5732 1417 40040000 		.4byte	.LVL144
 5733 141b BE0E0000 		.4byte	0xebe
 5734 141f 2A140000 		.4byte	0x142a
 5735 1423 01       		.uleb128 0x1
 5736 1424 01       		.uleb128 0x1
 5737 1425 50       		.byte	0x50
 5738 1426 02       		.uleb128 0x2
 5739 1427 74       		.byte	0x74
 5740 1428 00       		.sleb128 0
 5741 1429 00       		.byte	0
 5742 142a 05       		.uleb128 0x5
 5743 142b 00050000 		.4byte	.LVL156
 5744 142f A0080000 		.4byte	0x8a0
 5745 1433 00       		.byte	0
 5746 1434 00       		.byte	0
 5747 1435 06       		.uleb128 0x6
 5748 1436 10000000 		.4byte	.LVL63
 5749 143a FE080000 		.4byte	0x8fe
 5750 143e 49140000 		.4byte	0x1449
 5751 1442 01       		.uleb128 0x1
 5752 1443 01       		.uleb128 0x1
 5753 1444 50       		.byte	0x50
 5754 1445 02       		.uleb128 0x2
 5755 1446 75       		.byte	0x75
 5756 1447 00       		.sleb128 0
 5757 1448 00       		.byte	0
ARM GAS  C:\Users\DEVELO~1\AppData\Local\Temp\ccmc7I4c.s 			page 102


 5758 1449 05       		.uleb128 0x5
 5759 144a 20000000 		.4byte	.LVL66
 5760 144e E9080000 		.4byte	0x8e9
 5761 1452 05       		.uleb128 0x5
 5762 1453 2A000000 		.4byte	.LVL67
 5763 1457 E9080000 		.4byte	0x8e9
 5764 145b 05       		.uleb128 0x5
 5765 145c 3C000000 		.4byte	.LVL68
 5766 1460 E9080000 		.4byte	0x8e9
 5767 1464 05       		.uleb128 0x5
 5768 1465 4E000000 		.4byte	.LVL69
 5769 1469 E9080000 		.4byte	0x8e9
 5770 146d 05       		.uleb128 0x5
 5771 146e 60000000 		.4byte	.LVL70
 5772 1472 E9080000 		.4byte	0x8e9
 5773 1476 05       		.uleb128 0x5
 5774 1477 70000000 		.4byte	.LVL71
 5775 147b E9080000 		.4byte	0x8e9
 5776 147f 05       		.uleb128 0x5
 5777 1480 7C000000 		.4byte	.LVL72
 5778 1484 E9080000 		.4byte	0x8e9
 5779 1488 05       		.uleb128 0x5
 5780 1489 88000000 		.4byte	.LVL73
 5781 148d E9080000 		.4byte	0x8e9
 5782 1491 05       		.uleb128 0x5
 5783 1492 94000000 		.4byte	.LVL74
 5784 1496 E9080000 		.4byte	0x8e9
 5785 149a 05       		.uleb128 0x5
 5786 149b A0000000 		.4byte	.LVL76
 5787 149f E9080000 		.4byte	0x8e9
 5788 14a3 06       		.uleb128 0x6
 5789 14a4 E2000000 		.4byte	.LVL82
 5790 14a8 CF080000 		.4byte	0x8cf
 5791 14ac BC140000 		.4byte	0x14bc
 5792 14b0 01       		.uleb128 0x1
 5793 14b1 01       		.uleb128 0x1
 5794 14b2 50       		.byte	0x50
 5795 14b3 02       		.uleb128 0x2
 5796 14b4 75       		.byte	0x75
 5797 14b5 00       		.sleb128 0
 5798 14b6 01       		.uleb128 0x1
 5799 14b7 01       		.uleb128 0x1
 5800 14b8 51       		.byte	0x51
 5801 14b9 01       		.uleb128 0x1
 5802 14ba 40       		.byte	0x40
 5803 14bb 00       		.byte	0
 5804 14bc 06       		.uleb128 0x6
 5805 14bd E8000000 		.4byte	.LVL83
 5806 14c1 BA080000 		.4byte	0x8ba
 5807 14c5 D0140000 		.4byte	0x14d0
 5808 14c9 01       		.uleb128 0x1
 5809 14ca 01       		.uleb128 0x1
 5810 14cb 50       		.byte	0x50
 5811 14cc 02       		.uleb128 0x2
 5812 14cd 75       		.byte	0x75
 5813 14ce 00       		.sleb128 0
 5814 14cf 00       		.byte	0
ARM GAS  C:\Users\DEVELO~1\AppData\Local\Temp\ccmc7I4c.s 			page 103


 5815 14d0 06       		.uleb128 0x6
 5816 14d1 F6000000 		.4byte	.LVL84
 5817 14d5 A50E0000 		.4byte	0xea5
 5818 14d9 E4140000 		.4byte	0x14e4
 5819 14dd 01       		.uleb128 0x1
 5820 14de 01       		.uleb128 0x1
 5821 14df 50       		.byte	0x50
 5822 14e0 02       		.uleb128 0x2
 5823 14e1 74       		.byte	0x74
 5824 14e2 00       		.sleb128 0
 5825 14e3 00       		.byte	0
 5826 14e4 05       		.uleb128 0x5
 5827 14e5 FE000000 		.4byte	.LVL85
 5828 14e9 8B080000 		.4byte	0x88b
 5829 14ed 06       		.uleb128 0x6
 5830 14ee B6020000 		.4byte	.LVL122
 5831 14f2 D70E0000 		.4byte	0xed7
 5832 14f6 01150000 		.4byte	0x1501
 5833 14fa 01       		.uleb128 0x1
 5834 14fb 01       		.uleb128 0x1
 5835 14fc 50       		.byte	0x50
 5836 14fd 02       		.uleb128 0x2
 5837 14fe 74       		.byte	0x74
 5838 14ff 00       		.sleb128 0
 5839 1500 00       		.byte	0
 5840 1501 15       		.uleb128 0x15
 5841 1502 3E060000 		.4byte	.LVL169
 5842 1506 A0080000 		.4byte	0x8a0
 5843 150a 01       		.uleb128 0x1
 5844 150b 01       		.uleb128 0x1
 5845 150c 51       		.byte	0x51
 5846 150d 01       		.uleb128 0x1
 5847 150e 31       		.byte	0x31
 5848 150f 00       		.byte	0
 5849 1510 00       		.byte	0
 5850 1511 0F       		.uleb128 0xf
 5851 1512 76070000 		.4byte	.LASF214
 5852 1516 7A01     		.2byte	0x17a
 5853 1518 13       		.byte	0x13
 5854 1519 8A030000 		.4byte	0x38a
 5855 151d 00000000 		.4byte	.LFB147
 5856 1521 E0000000 		.4byte	.LFE147-.LFB147
 5857 1525 01       		.uleb128 0x1
 5858 1526 9C       		.byte	0x9c
 5859 1527 D5150000 		.4byte	0x15d5
 5860 152b 08       		.uleb128 0x8
 5861 152c 5B050000 		.4byte	.LASF182
 5862 1530 7A01     		.2byte	0x17a
 5863 1532 3F       		.byte	0x3f
 5864 1533 440A0000 		.4byte	0xa44
 5865 1537 64070000 		.4byte	.LLST17
 5866 153b 5E070000 		.4byte	.LVUS17
 5867 153f 08       		.uleb128 0x8
 5868 1540 29020000 		.4byte	.LASF107
 5869 1544 7B01     		.2byte	0x17b
 5870 1546 34       		.byte	0x34
 5871 1547 90000000 		.4byte	0x90
ARM GAS  C:\Users\DEVELO~1\AppData\Local\Temp\ccmc7I4c.s 			page 104


 5872 154b 85070000 		.4byte	.LLST18
 5873 154f 7D070000 		.4byte	.LVUS18
 5874 1553 08       		.uleb128 0x8
 5875 1554 D7000000 		.4byte	.LASF215
 5876 1558 7C01     		.2byte	0x17c
 5877 155a 34       		.byte	0x34
 5878 155b 90000000 		.4byte	0x90
 5879 155f C0070000 		.4byte	.LLST19
 5880 1563 A4070000 		.4byte	.LVUS19
 5881 1567 08       		.uleb128 0x8
 5882 1568 F30A0000 		.4byte	.LASF117
 5883 156c 7D01     		.2byte	0x17d
 5884 156e 34       		.byte	0x34
 5885 156f 90000000 		.4byte	0x90
 5886 1573 4F080000 		.4byte	.LLST20
 5887 1577 33080000 		.4byte	.LVUS20
 5888 157b 08       		.uleb128 0x8
 5889 157c 4F070000 		.4byte	.LASF216
 5890 1580 7E01     		.2byte	0x17e
 5891 1582 34       		.byte	0x34
 5892 1583 90000000 		.4byte	0x90
 5893 1587 CA080000 		.4byte	.LLST21
 5894 158b C4080000 		.4byte	.LVUS21
 5895 158f 08       		.uleb128 0x8
 5896 1590 83060000 		.4byte	.LASF217
 5897 1594 7F01     		.2byte	0x17f
 5898 1596 35       		.byte	0x35
 5899 1597 31050000 		.4byte	0x531
 5900 159b E9080000 		.4byte	.LLST22
 5901 159f E3080000 		.4byte	.LVUS22
 5902 15a3 08       		.uleb128 0x8
 5903 15a4 34090000 		.4byte	.LASF218
 5904 15a8 8001     		.2byte	0x180
 5905 15aa 35       		.byte	0x35
 5906 15ab 9C000000 		.4byte	0x9c
 5907 15af 08090000 		.4byte	.LLST23
 5908 15b3 02090000 		.4byte	.LVUS23
 5909 15b7 08       		.uleb128 0x8
 5910 15b8 96030000 		.4byte	.LASF110
 5911 15bc 8101     		.2byte	0x181
 5912 15be 34       		.byte	0x34
 5913 15bf 90000000 		.4byte	0x90
 5914 15c3 27090000 		.4byte	.LLST24
 5915 15c7 21090000 		.4byte	.LVUS24
 5916 15cb 1B       		.uleb128 0x1b
 5917 15cc 66000000 		.4byte	.LVL42
 5918 15d0 13090000 		.4byte	0x913
 5919 15d4 00       		.byte	0
 5920 15d5 14       		.uleb128 0x14
 5921 15d6 00000000 		.4byte	.LASF219
 5922 15da 4601     		.2byte	0x146
 5923 15dc 0E       		.byte	0xe
 5924 15dd EE150000 		.4byte	0x15ee
 5925 15e1 0C       		.uleb128 0xc
 5926 15e2 5B050000 		.4byte	.LASF182
 5927 15e6 4601     		.2byte	0x146
 5928 15e8 33       		.byte	0x33
ARM GAS  C:\Users\DEVELO~1\AppData\Local\Temp\ccmc7I4c.s 			page 105


 5929 15e9 440A0000 		.4byte	0xa44
 5930 15ed 00       		.byte	0
 5931 15ee 35       		.uleb128 0x35
 5932 15ef C70A0000 		.4byte	.LASF231
 5933 15f3 01       		.byte	0x1
 5934 15f4 3701     		.2byte	0x137
 5935 15f6 0E       		.byte	0xe
 5936 15f7 01       		.byte	0x1
 5937 15f8 09160000 		.4byte	0x1609
 5938 15fc 0C       		.uleb128 0xc
 5939 15fd 5B050000 		.4byte	.LASF182
 5940 1601 3701     		.2byte	0x137
 5941 1603 31       		.byte	0x31
 5942 1604 440A0000 		.4byte	0xa44
 5943 1608 00       		.byte	0
 5944 1609 0F       		.uleb128 0xf
 5945 160a 00090000 		.4byte	.LASF220
 5946 160e 1401     		.2byte	0x114
 5947 1610 13       		.byte	0x13
 5948 1611 8A030000 		.4byte	0x38a
 5949 1615 00000000 		.4byte	.LFB144
 5950 1619 24000000 		.4byte	.LFE144-.LFB144
 5951 161d 01       		.uleb128 0x1
 5952 161e 9C       		.byte	0x9c
 5953 161f 55160000 		.4byte	0x1655
 5954 1623 08       		.uleb128 0x8
 5955 1624 5B050000 		.4byte	.LASF182
 5956 1628 1401     		.2byte	0x114
 5957 162a 35       		.byte	0x35
 5958 162b 440A0000 		.4byte	0xa44
 5959 162f 48090000 		.4byte	.LLST16
 5960 1633 40090000 		.4byte	.LVUS16
 5961 1637 06       		.uleb128 0x6
 5962 1638 10000000 		.4byte	.LVL33
 5963 163c D5150000 		.4byte	0x15d5
 5964 1640 4B160000 		.4byte	0x164b
 5965 1644 01       		.uleb128 0x1
 5966 1645 01       		.uleb128 0x1
 5967 1646 50       		.byte	0x50
 5968 1647 02       		.uleb128 0x2
 5969 1648 74       		.byte	0x74
 5970 1649 00       		.sleb128 0
 5971 164a 00       		.byte	0
 5972 164b 05       		.uleb128 0x5
 5973 164c 16000000 		.4byte	.LVL34
 5974 1650 E7090000 		.4byte	0x9e7
 5975 1654 00       		.byte	0
 5976 1655 0F       		.uleb128 0xf
 5977 1656 98060000 		.4byte	.LASF221
 5978 165a 0401     		.2byte	0x104
 5979 165c 13       		.byte	0x13
 5980 165d 8A030000 		.4byte	0x38a
 5981 1661 00000000 		.4byte	.LFB143
 5982 1665 26000000 		.4byte	.LFE143-.LFB143
 5983 1669 01       		.uleb128 0x1
 5984 166a 9C       		.byte	0x9c
 5985 166b AF160000 		.4byte	0x16af
ARM GAS  C:\Users\DEVELO~1\AppData\Local\Temp\ccmc7I4c.s 			page 106


 5986 166f 08       		.uleb128 0x8
 5987 1670 5B050000 		.4byte	.LASF182
 5988 1674 0401     		.2byte	0x104
 5989 1676 36       		.byte	0x36
 5990 1677 440A0000 		.4byte	0xa44
 5991 167b 6D090000 		.4byte	.LLST13
 5992 167f 65090000 		.4byte	.LVUS13
 5993 1683 08       		.uleb128 0x8
 5994 1684 29020000 		.4byte	.LASF107
 5995 1688 0401     		.2byte	0x104
 5996 168a 44       		.byte	0x44
 5997 168b 90000000 		.4byte	0x90
 5998 168f 90090000 		.4byte	.LLST14
 5999 1693 8A090000 		.4byte	.LVUS14
 6000 1697 36       		.uleb128 0x36
 6001 1698 260B0000 		.4byte	.LASF225
 6002 169c 01       		.byte	0x1
 6003 169d 0601     		.2byte	0x106
 6004 169f 15       		.byte	0x15
 6005 16a0 8A030000 		.4byte	0x38a
 6006 16a4 00       		.byte	0
 6007 16a5 05       		.uleb128 0x5
 6008 16a6 18000000 		.4byte	.LVL17
 6009 16aa 37090000 		.4byte	0x937
 6010 16ae 00       		.byte	0
 6011 16af 2A       		.uleb128 0x2a
 6012 16b0 07080000 		.4byte	.LASF222
 6013 16b4 CA       		.byte	0xca
 6014 16b5 8A030000 		.4byte	0x38a
 6015 16b9 00000000 		.4byte	.LFB142
 6016 16bd AE000000 		.4byte	.LFE142-.LFB142
 6017 16c1 01       		.uleb128 0x1
 6018 16c2 9C       		.byte	0x9c
 6019 16c3 F2170000 		.4byte	0x17f2
 6020 16c7 12       		.uleb128 0x12
 6021 16c8 5B050000 		.4byte	.LASF182
 6022 16cc CA       		.byte	0xca
 6023 16cd 36       		.byte	0x36
 6024 16ce 440A0000 		.4byte	0xa44
 6025 16d2 B0090000 		.4byte	.LLST0
 6026 16d6 A8090000 		.4byte	.LVUS0
 6027 16da 12       		.uleb128 0x12
 6028 16db 29020000 		.4byte	.LASF107
 6029 16df CA       		.byte	0xca
 6030 16e0 44       		.byte	0x44
 6031 16e1 90000000 		.4byte	0x90
 6032 16e5 D8090000 		.4byte	.LLST1
 6033 16e9 D2090000 		.4byte	.LVUS1
 6034 16ed 12       		.uleb128 0x12
 6035 16ee 09040000 		.4byte	.LASF223
 6036 16f2 CA       		.byte	0xca
 6037 16f3 54       		.byte	0x54
 6038 16f4 90000000 		.4byte	0x90
 6039 16f8 F9090000 		.4byte	.LLST2
 6040 16fc F3090000 		.4byte	.LVUS2
 6041 1700 12       		.uleb128 0x12
 6042 1701 25040000 		.4byte	.LASF224
ARM GAS  C:\Users\DEVELO~1\AppData\Local\Temp\ccmc7I4c.s 			page 107


 6043 1705 CB       		.byte	0xcb
 6044 1706 2B       		.byte	0x2b
 6045 1707 90000000 		.4byte	0x90
 6046 170b 180A0000 		.4byte	.LLST3
 6047 170f 140A0000 		.4byte	.LVUS3
 6048 1713 12       		.uleb128 0x12
 6049 1714 D60B0000 		.4byte	.LASF95
 6050 1718 CB       		.byte	0xcb
 6051 1719 40       		.byte	0x40
 6052 171a 90000000 		.4byte	0x90
 6053 171e 300A0000 		.4byte	.LLST4
 6054 1722 2C0A0000 		.4byte	.LVUS4
 6055 1726 12       		.uleb128 0x12
 6056 1727 F30A0000 		.4byte	.LASF117
 6057 172b CB       		.byte	0xcb
 6058 172c 4F       		.byte	0x4f
 6059 172d 90000000 		.4byte	0x90
 6060 1731 490A0000 		.4byte	.LLST5
 6061 1735 450A0000 		.4byte	.LVUS5
 6062 1739 37       		.uleb128 0x37
 6063 173a 6D707300 		.ascii	"mps\000"
 6064 173e 01       		.byte	0x1
 6065 173f CB       		.byte	0xcb
 6066 1740 61       		.byte	0x61
 6067 1741 9C000000 		.4byte	0x9c
 6068 1745 620A0000 		.4byte	.LLST6
 6069 1749 5E0A0000 		.4byte	.LVUS6
 6070 174d 22       		.uleb128 0x22
 6071 174e 260B0000 		.4byte	.LASF225
 6072 1752 CD       		.byte	0xcd
 6073 1753 15       		.byte	0x15
 6074 1754 8A030000 		.4byte	0x38a
 6075 1758 790A0000 		.4byte	.LLST7
 6076 175c 770A0000 		.4byte	.LVUS7
 6077 1760 22       		.uleb128 0x22
 6078 1761 77020000 		.4byte	.LASF212
 6079 1765 CE       		.byte	0xce
 6080 1766 0C       		.byte	0xc
 6081 1767 A8000000 		.4byte	0xa8
 6082 176b 860A0000 		.4byte	.LLST8
 6083 176f 820A0000 		.4byte	.LVUS8
 6084 1773 22       		.uleb128 0x22
 6085 1774 FF030000 		.4byte	.LASF226
 6086 1778 CF       		.byte	0xcf
 6087 1779 0C       		.byte	0xc
 6088 177a A8000000 		.4byte	0xa8
 6089 177e 9E0A0000 		.4byte	.LLST9
 6090 1782 960A0000 		.4byte	.LVUS9
 6091 1786 38       		.uleb128 0x38
 6092 1787 5D0B0000 		.4byte	0xb5d
 6093 178b 56000000 		.4byte	.LBI4
 6094 178f 0200     		.2byte	.LVU33
 6095 1791 0C000000 		.4byte	.LLRL10
 6096 1795 01       		.byte	0x1
 6097 1796 D8       		.byte	0xd8
 6098 1797 09       		.byte	0x9
 6099 1798 B7170000 		.4byte	0x17b7
ARM GAS  C:\Users\DEVELO~1\AppData\Local\Temp\ccmc7I4c.s 			page 108


 6100 179c 10       		.uleb128 0x10
 6101 179d 7B0B0000 		.4byte	0xb7b
 6102 17a1 D90A0000 		.4byte	.LLST11
 6103 17a5 D70A0000 		.4byte	.LVUS11
 6104 17a9 10       		.uleb128 0x10
 6105 17aa 6F0B0000 		.4byte	0xb6f
 6106 17ae E40A0000 		.4byte	.LLST12
 6107 17b2 E20A0000 		.4byte	.LVUS12
 6108 17b6 00       		.byte	0
 6109 17b7 05       		.uleb128 0x5
 6110 17b8 60000000 		.4byte	.LVL6
 6111 17bc 84090000 		.4byte	0x984
 6112 17c0 15       		.uleb128 0x15
 6113 17c1 86000000 		.4byte	.LVL9
 6114 17c5 51090000 		.4byte	0x951
 6115 17c9 01       		.uleb128 0x1
 6116 17ca 01       		.uleb128 0x1
 6117 17cb 51       		.byte	0x51
 6118 17cc 02       		.uleb128 0x2
 6119 17cd 75       		.byte	0x75
 6120 17ce 00       		.sleb128 0
 6121 17cf 01       		.uleb128 0x1
 6122 17d0 01       		.uleb128 0x1
 6123 17d1 52       		.byte	0x52
 6124 17d2 02       		.uleb128 0x2
 6125 17d3 79       		.byte	0x79
 6126 17d4 00       		.sleb128 0
 6127 17d5 01       		.uleb128 0x1
 6128 17d6 01       		.uleb128 0x1
 6129 17d7 53       		.byte	0x53
 6130 17d8 02       		.uleb128 0x2
 6131 17d9 7A       		.byte	0x7a
 6132 17da 00       		.sleb128 0
 6133 17db 01       		.uleb128 0x1
 6134 17dc 02       		.uleb128 0x2
 6135 17dd 7D       		.byte	0x7d
 6136 17de 00       		.sleb128 0
 6137 17df 02       		.uleb128 0x2
 6138 17e0 77       		.byte	0x77
 6139 17e1 00       		.sleb128 0
 6140 17e2 01       		.uleb128 0x1
 6141 17e3 02       		.uleb128 0x2
 6142 17e4 7D       		.byte	0x7d
 6143 17e5 04       		.sleb128 4
 6144 17e6 02       		.uleb128 0x2
 6145 17e7 76       		.byte	0x76
 6146 17e8 00       		.sleb128 0
 6147 17e9 01       		.uleb128 0x1
 6148 17ea 02       		.uleb128 0x2
 6149 17eb 7D       		.byte	0x7d
 6150 17ec 08       		.sleb128 8
 6151 17ed 02       		.uleb128 0x2
 6152 17ee 78       		.byte	0x78
 6153 17ef 00       		.sleb128 0
 6154 17f0 00       		.byte	0
 6155 17f1 00       		.byte	0
 6156 17f2 2A       		.uleb128 0x2a
ARM GAS  C:\Users\DEVELO~1\AppData\Local\Temp\ccmc7I4c.s 			page 109


 6157 17f3 BC070000 		.4byte	.LASF227
 6158 17f7 6E       		.byte	0x6e
 6159 17f8 8A030000 		.4byte	0x38a
 6160 17fc 00000000 		.4byte	.LFB141
 6161 1800 78000000 		.4byte	.LFE141-.LFB141
 6162 1804 01       		.uleb128 0x1
 6163 1805 9C       		.byte	0x9c
 6164 1806 5C180000 		.4byte	0x185c
 6165 180a 12       		.uleb128 0x12
 6166 180b 5B050000 		.4byte	.LASF182
 6167 180f 6E       		.byte	0x6e
 6168 1810 33       		.byte	0x33
 6169 1811 440A0000 		.4byte	0xa44
 6170 1815 F90A0000 		.4byte	.LLST15
 6171 1819 ED0A0000 		.4byte	.LVUS15
 6172 181d 05       		.uleb128 0x5
 6173 181e 22000000 		.4byte	.LVL23
 6174 1822 E7090000 		.4byte	0x9e7
 6175 1826 05       		.uleb128 0x5
 6176 1827 32000000 		.4byte	.LVL24
 6177 182b CD090000 		.4byte	0x9cd
 6178 182f 06       		.uleb128 0x6
 6179 1830 48000000 		.4byte	.LVL26
 6180 1834 B3090000 		.4byte	0x9b3
 6181 1838 42180000 		.4byte	0x1842
 6182 183c 01       		.uleb128 0x1
 6183 183d 01       		.uleb128 0x1
 6184 183e 51       		.byte	0x51
 6185 183f 01       		.uleb128 0x1
 6186 1840 31       		.byte	0x31
 6187 1841 00       		.byte	0
 6188 1842 05       		.uleb128 0x5
 6189 1843 5C000000 		.4byte	.LVL27
 6190 1847 99090000 		.4byte	0x999
 6191 184b 15       		.uleb128 0x15
 6192 184c 72000000 		.4byte	.LVL29
 6193 1850 EE150000 		.4byte	0x15ee
 6194 1854 01       		.uleb128 0x1
 6195 1855 01       		.uleb128 0x1
 6196 1856 50       		.byte	0x50
 6197 1857 02       		.uleb128 0x2
 6198 1858 74       		.byte	0x74
 6199 1859 00       		.sleb128 0
 6200 185a 00       		.byte	0
 6201 185b 00       		.byte	0
 6202 185c 39       		.uleb128 0x39
 6203 185d EE150000 		.4byte	0x15ee
 6204 1861 00000000 		.4byte	.LFB145
 6205 1865 02000000 		.4byte	.LFE145-.LFB145
 6206 1869 01       		.uleb128 0x1
 6207 186a 9C       		.byte	0x9c
 6208 186b 77180000 		.4byte	0x1877
 6209 186f 3A       		.uleb128 0x3a
 6210 1870 FC150000 		.4byte	0x15fc
 6211 1874 01       		.uleb128 0x1
 6212 1875 50       		.byte	0x50
 6213 1876 00       		.byte	0
ARM GAS  C:\Users\DEVELO~1\AppData\Local\Temp\ccmc7I4c.s 			page 110


 6214 1877 3B       		.uleb128 0x3b
 6215 1878 5D0B0000 		.4byte	0xb5d
 6216 187c 00000000 		.4byte	.LFB165
 6217 1880 12000000 		.4byte	.LFE165-.LFB165
 6218 1884 01       		.uleb128 0x1
 6219 1885 9C       		.byte	0x9c
 6220 1886 10       		.uleb128 0x10
 6221 1887 6F0B0000 		.4byte	0xb6f
 6222 188b 240B0000 		.4byte	.LLST69
 6223 188f 200B0000 		.4byte	.LVUS69
 6224 1893 10       		.uleb128 0x10
 6225 1894 7B0B0000 		.4byte	0xb7b
 6226 1898 380B0000 		.4byte	.LLST70
 6227 189c 340B0000 		.4byte	.LVUS70
 6228 18a0 00       		.byte	0
 6229 18a1 00       		.byte	0
 6230              		.section	.debug_abbrev,"",%progbits
 6231              	.Ldebug_abbrev0:
 6232 0000 01       		.uleb128 0x1
 6233 0001 49       		.uleb128 0x49
 6234 0002 00       		.byte	0
 6235 0003 02       		.uleb128 0x2
 6236 0004 18       		.uleb128 0x18
 6237 0005 7E       		.uleb128 0x7e
 6238 0006 18       		.uleb128 0x18
 6239 0007 00       		.byte	0
 6240 0008 00       		.byte	0
 6241 0009 02       		.uleb128 0x2
 6242 000a 0D       		.uleb128 0xd
 6243 000b 00       		.byte	0
 6244 000c 03       		.uleb128 0x3
 6245 000d 0E       		.uleb128 0xe
 6246 000e 3A       		.uleb128 0x3a
 6247 000f 0B       		.uleb128 0xb
 6248 0010 3B       		.uleb128 0x3b
 6249 0011 0B       		.uleb128 0xb
 6250 0012 39       		.uleb128 0x39
 6251 0013 0B       		.uleb128 0xb
 6252 0014 49       		.uleb128 0x49
 6253 0015 13       		.uleb128 0x13
 6254 0016 38       		.uleb128 0x38
 6255 0017 0B       		.uleb128 0xb
 6256 0018 00       		.byte	0
 6257 0019 00       		.byte	0
 6258 001a 03       		.uleb128 0x3
 6259 001b 05       		.uleb128 0x5
 6260 001c 00       		.byte	0
 6261 001d 49       		.uleb128 0x49
 6262 001e 13       		.uleb128 0x13
 6263 001f 00       		.byte	0
 6264 0020 00       		.byte	0
 6265 0021 04       		.uleb128 0x4
 6266 0022 0D       		.uleb128 0xd
 6267 0023 00       		.byte	0
 6268 0024 03       		.uleb128 0x3
 6269 0025 0E       		.uleb128 0xe
 6270 0026 3A       		.uleb128 0x3a
ARM GAS  C:\Users\DEVELO~1\AppData\Local\Temp\ccmc7I4c.s 			page 111


 6271 0027 21       		.uleb128 0x21
 6272 0028 04       		.sleb128 4
 6273 0029 3B       		.uleb128 0x3b
 6274 002a 05       		.uleb128 0x5
 6275 002b 39       		.uleb128 0x39
 6276 002c 0B       		.uleb128 0xb
 6277 002d 49       		.uleb128 0x49
 6278 002e 13       		.uleb128 0x13
 6279 002f 38       		.uleb128 0x38
 6280 0030 0B       		.uleb128 0xb
 6281 0031 00       		.byte	0
 6282 0032 00       		.byte	0
 6283 0033 05       		.uleb128 0x5
 6284 0034 48       		.uleb128 0x48
 6285 0035 00       		.byte	0
 6286 0036 7D       		.uleb128 0x7d
 6287 0037 01       		.uleb128 0x1
 6288 0038 7F       		.uleb128 0x7f
 6289 0039 13       		.uleb128 0x13
 6290 003a 00       		.byte	0
 6291 003b 00       		.byte	0
 6292 003c 06       		.uleb128 0x6
 6293 003d 48       		.uleb128 0x48
 6294 003e 01       		.byte	0x1
 6295 003f 7D       		.uleb128 0x7d
 6296 0040 01       		.uleb128 0x1
 6297 0041 7F       		.uleb128 0x7f
 6298 0042 13       		.uleb128 0x13
 6299 0043 01       		.uleb128 0x1
 6300 0044 13       		.uleb128 0x13
 6301 0045 00       		.byte	0
 6302 0046 00       		.byte	0
 6303 0047 07       		.uleb128 0x7
 6304 0048 28       		.uleb128 0x28
 6305 0049 00       		.byte	0
 6306 004a 03       		.uleb128 0x3
 6307 004b 0E       		.uleb128 0xe
 6308 004c 1C       		.uleb128 0x1c
 6309 004d 0B       		.uleb128 0xb
 6310 004e 00       		.byte	0
 6311 004f 00       		.byte	0
 6312 0050 08       		.uleb128 0x8
 6313 0051 05       		.uleb128 0x5
 6314 0052 00       		.byte	0
 6315 0053 03       		.uleb128 0x3
 6316 0054 0E       		.uleb128 0xe
 6317 0055 3A       		.uleb128 0x3a
 6318 0056 21       		.uleb128 0x21
 6319 0057 01       		.sleb128 1
 6320 0058 3B       		.uleb128 0x3b
 6321 0059 05       		.uleb128 0x5
 6322 005a 39       		.uleb128 0x39
 6323 005b 0B       		.uleb128 0xb
 6324 005c 49       		.uleb128 0x49
 6325 005d 13       		.uleb128 0x13
 6326 005e 02       		.uleb128 0x2
 6327 005f 17       		.uleb128 0x17
ARM GAS  C:\Users\DEVELO~1\AppData\Local\Temp\ccmc7I4c.s 			page 112


 6328 0060 B742     		.uleb128 0x2137
 6329 0062 17       		.uleb128 0x17
 6330 0063 00       		.byte	0
 6331 0064 00       		.byte	0
 6332 0065 09       		.uleb128 0x9
 6333 0066 16       		.uleb128 0x16
 6334 0067 00       		.byte	0
 6335 0068 03       		.uleb128 0x3
 6336 0069 0E       		.uleb128 0xe
 6337 006a 3A       		.uleb128 0x3a
 6338 006b 0B       		.uleb128 0xb
 6339 006c 3B       		.uleb128 0x3b
 6340 006d 0B       		.uleb128 0xb
 6341 006e 39       		.uleb128 0x39
 6342 006f 0B       		.uleb128 0xb
 6343 0070 49       		.uleb128 0x49
 6344 0071 13       		.uleb128 0x13
 6345 0072 00       		.byte	0
 6346 0073 00       		.byte	0
 6347 0074 0A       		.uleb128 0xa
 6348 0075 2E       		.uleb128 0x2e
 6349 0076 01       		.byte	0x1
 6350 0077 3F       		.uleb128 0x3f
 6351 0078 19       		.uleb128 0x19
 6352 0079 03       		.uleb128 0x3
 6353 007a 0E       		.uleb128 0xe
 6354 007b 3A       		.uleb128 0x3a
 6355 007c 21       		.uleb128 0x21
 6356 007d 06       		.sleb128 6
 6357 007e 3B       		.uleb128 0x3b
 6358 007f 05       		.uleb128 0x5
 6359 0080 39       		.uleb128 0x39
 6360 0081 21       		.uleb128 0x21
 6361 0082 13       		.sleb128 19
 6362 0083 27       		.uleb128 0x27
 6363 0084 19       		.uleb128 0x19
 6364 0085 49       		.uleb128 0x49
 6365 0086 13       		.uleb128 0x13
 6366 0087 3C       		.uleb128 0x3c
 6367 0088 19       		.uleb128 0x19
 6368 0089 01       		.uleb128 0x1
 6369 008a 13       		.uleb128 0x13
 6370 008b 00       		.byte	0
 6371 008c 00       		.byte	0
 6372 008d 0B       		.uleb128 0xb
 6373 008e 34       		.uleb128 0x34
 6374 008f 00       		.byte	0
 6375 0090 03       		.uleb128 0x3
 6376 0091 0E       		.uleb128 0xe
 6377 0092 3A       		.uleb128 0x3a
 6378 0093 21       		.uleb128 0x21
 6379 0094 01       		.sleb128 1
 6380 0095 3B       		.uleb128 0x3b
 6381 0096 05       		.uleb128 0x5
 6382 0097 39       		.uleb128 0x39
 6383 0098 0B       		.uleb128 0xb
 6384 0099 49       		.uleb128 0x49
ARM GAS  C:\Users\DEVELO~1\AppData\Local\Temp\ccmc7I4c.s 			page 113


 6385 009a 13       		.uleb128 0x13
 6386 009b 00       		.byte	0
 6387 009c 00       		.byte	0
 6388 009d 0C       		.uleb128 0xc
 6389 009e 05       		.uleb128 0x5
 6390 009f 00       		.byte	0
 6391 00a0 03       		.uleb128 0x3
 6392 00a1 0E       		.uleb128 0xe
 6393 00a2 3A       		.uleb128 0x3a
 6394 00a3 21       		.uleb128 0x21
 6395 00a4 01       		.sleb128 1
 6396 00a5 3B       		.uleb128 0x3b
 6397 00a6 05       		.uleb128 0x5
 6398 00a7 39       		.uleb128 0x39
 6399 00a8 0B       		.uleb128 0xb
 6400 00a9 49       		.uleb128 0x49
 6401 00aa 13       		.uleb128 0x13
 6402 00ab 00       		.byte	0
 6403 00ac 00       		.byte	0
 6404 00ad 0D       		.uleb128 0xd
 6405 00ae 34       		.uleb128 0x34
 6406 00af 00       		.byte	0
 6407 00b0 31       		.uleb128 0x31
 6408 00b1 13       		.uleb128 0x13
 6409 00b2 02       		.uleb128 0x2
 6410 00b3 17       		.uleb128 0x17
 6411 00b4 B742     		.uleb128 0x2137
 6412 00b6 17       		.uleb128 0x17
 6413 00b7 00       		.byte	0
 6414 00b8 00       		.byte	0
 6415 00b9 0E       		.uleb128 0xe
 6416 00ba 24       		.uleb128 0x24
 6417 00bb 00       		.byte	0
 6418 00bc 0B       		.uleb128 0xb
 6419 00bd 0B       		.uleb128 0xb
 6420 00be 3E       		.uleb128 0x3e
 6421 00bf 0B       		.uleb128 0xb
 6422 00c0 03       		.uleb128 0x3
 6423 00c1 0E       		.uleb128 0xe
 6424 00c2 00       		.byte	0
 6425 00c3 00       		.byte	0
 6426 00c4 0F       		.uleb128 0xf
 6427 00c5 2E       		.uleb128 0x2e
 6428 00c6 01       		.byte	0x1
 6429 00c7 3F       		.uleb128 0x3f
 6430 00c8 19       		.uleb128 0x19
 6431 00c9 03       		.uleb128 0x3
 6432 00ca 0E       		.uleb128 0xe
 6433 00cb 3A       		.uleb128 0x3a
 6434 00cc 21       		.uleb128 0x21
 6435 00cd 01       		.sleb128 1
 6436 00ce 3B       		.uleb128 0x3b
 6437 00cf 05       		.uleb128 0x5
 6438 00d0 39       		.uleb128 0x39
 6439 00d1 0B       		.uleb128 0xb
 6440 00d2 27       		.uleb128 0x27
 6441 00d3 19       		.uleb128 0x19
ARM GAS  C:\Users\DEVELO~1\AppData\Local\Temp\ccmc7I4c.s 			page 114


 6442 00d4 49       		.uleb128 0x49
 6443 00d5 13       		.uleb128 0x13
 6444 00d6 11       		.uleb128 0x11
 6445 00d7 01       		.uleb128 0x1
 6446 00d8 12       		.uleb128 0x12
 6447 00d9 06       		.uleb128 0x6
 6448 00da 40       		.uleb128 0x40
 6449 00db 18       		.uleb128 0x18
 6450 00dc 7A       		.uleb128 0x7a
 6451 00dd 19       		.uleb128 0x19
 6452 00de 01       		.uleb128 0x1
 6453 00df 13       		.uleb128 0x13
 6454 00e0 00       		.byte	0
 6455 00e1 00       		.byte	0
 6456 00e2 10       		.uleb128 0x10
 6457 00e3 05       		.uleb128 0x5
 6458 00e4 00       		.byte	0
 6459 00e5 31       		.uleb128 0x31
 6460 00e6 13       		.uleb128 0x13
 6461 00e7 02       		.uleb128 0x2
 6462 00e8 17       		.uleb128 0x17
 6463 00e9 B742     		.uleb128 0x2137
 6464 00eb 17       		.uleb128 0x17
 6465 00ec 00       		.byte	0
 6466 00ed 00       		.byte	0
 6467 00ee 11       		.uleb128 0x11
 6468 00ef 0F       		.uleb128 0xf
 6469 00f0 00       		.byte	0
 6470 00f1 0B       		.uleb128 0xb
 6471 00f2 21       		.uleb128 0x21
 6472 00f3 04       		.sleb128 4
 6473 00f4 49       		.uleb128 0x49
 6474 00f5 13       		.uleb128 0x13
 6475 00f6 00       		.byte	0
 6476 00f7 00       		.byte	0
 6477 00f8 12       		.uleb128 0x12
 6478 00f9 05       		.uleb128 0x5
 6479 00fa 00       		.byte	0
 6480 00fb 03       		.uleb128 0x3
 6481 00fc 0E       		.uleb128 0xe
 6482 00fd 3A       		.uleb128 0x3a
 6483 00fe 21       		.uleb128 0x21
 6484 00ff 01       		.sleb128 1
 6485 0100 3B       		.uleb128 0x3b
 6486 0101 0B       		.uleb128 0xb
 6487 0102 39       		.uleb128 0x39
 6488 0103 0B       		.uleb128 0xb
 6489 0104 49       		.uleb128 0x49
 6490 0105 13       		.uleb128 0x13
 6491 0106 02       		.uleb128 0x2
 6492 0107 17       		.uleb128 0x17
 6493 0108 B742     		.uleb128 0x2137
 6494 010a 17       		.uleb128 0x17
 6495 010b 00       		.byte	0
 6496 010c 00       		.byte	0
 6497 010d 13       		.uleb128 0x13
 6498 010e 04       		.uleb128 0x4
ARM GAS  C:\Users\DEVELO~1\AppData\Local\Temp\ccmc7I4c.s 			page 115


 6499 010f 01       		.byte	0x1
 6500 0110 3E       		.uleb128 0x3e
 6501 0111 21       		.uleb128 0x21
 6502 0112 07       		.sleb128 7
 6503 0113 0B       		.uleb128 0xb
 6504 0114 21       		.uleb128 0x21
 6505 0115 01       		.sleb128 1
 6506 0116 49       		.uleb128 0x49
 6507 0117 13       		.uleb128 0x13
 6508 0118 3A       		.uleb128 0x3a
 6509 0119 0B       		.uleb128 0xb
 6510 011a 3B       		.uleb128 0x3b
 6511 011b 0B       		.uleb128 0xb
 6512 011c 39       		.uleb128 0x39
 6513 011d 21       		.uleb128 0x21
 6514 011e 01       		.sleb128 1
 6515 011f 01       		.uleb128 0x1
 6516 0120 13       		.uleb128 0x13
 6517 0121 00       		.byte	0
 6518 0122 00       		.byte	0
 6519 0123 14       		.uleb128 0x14
 6520 0124 2E       		.uleb128 0x2e
 6521 0125 01       		.byte	0x1
 6522 0126 3F       		.uleb128 0x3f
 6523 0127 19       		.uleb128 0x19
 6524 0128 03       		.uleb128 0x3
 6525 0129 0E       		.uleb128 0xe
 6526 012a 3A       		.uleb128 0x3a
 6527 012b 21       		.uleb128 0x21
 6528 012c 01       		.sleb128 1
 6529 012d 3B       		.uleb128 0x3b
 6530 012e 05       		.uleb128 0x5
 6531 012f 39       		.uleb128 0x39
 6532 0130 0B       		.uleb128 0xb
 6533 0131 27       		.uleb128 0x27
 6534 0132 19       		.uleb128 0x19
 6535 0133 01       		.uleb128 0x1
 6536 0134 13       		.uleb128 0x13
 6537 0135 00       		.byte	0
 6538 0136 00       		.byte	0
 6539 0137 15       		.uleb128 0x15
 6540 0138 48       		.uleb128 0x48
 6541 0139 01       		.byte	0x1
 6542 013a 7D       		.uleb128 0x7d
 6543 013b 01       		.uleb128 0x1
 6544 013c 7F       		.uleb128 0x7f
 6545 013d 13       		.uleb128 0x13
 6546 013e 00       		.byte	0
 6547 013f 00       		.byte	0
 6548 0140 16       		.uleb128 0x16
 6549 0141 01       		.uleb128 0x1
 6550 0142 01       		.byte	0x1
 6551 0143 49       		.uleb128 0x49
 6552 0144 13       		.uleb128 0x13
 6553 0145 01       		.uleb128 0x1
 6554 0146 13       		.uleb128 0x13
 6555 0147 00       		.byte	0
ARM GAS  C:\Users\DEVELO~1\AppData\Local\Temp\ccmc7I4c.s 			page 116


 6556 0148 00       		.byte	0
 6557 0149 17       		.uleb128 0x17
 6558 014a 21       		.uleb128 0x21
 6559 014b 00       		.byte	0
 6560 014c 49       		.uleb128 0x49
 6561 014d 13       		.uleb128 0x13
 6562 014e 2F       		.uleb128 0x2f
 6563 014f 0B       		.uleb128 0xb
 6564 0150 00       		.byte	0
 6565 0151 00       		.byte	0
 6566 0152 18       		.uleb128 0x18
 6567 0153 0D       		.uleb128 0xd
 6568 0154 00       		.byte	0
 6569 0155 03       		.uleb128 0x3
 6570 0156 0E       		.uleb128 0xe
 6571 0157 3A       		.uleb128 0x3a
 6572 0158 21       		.uleb128 0x21
 6573 0159 07       		.sleb128 7
 6574 015a 3B       		.uleb128 0x3b
 6575 015b 0B       		.uleb128 0xb
 6576 015c 39       		.uleb128 0x39
 6577 015d 0B       		.uleb128 0xb
 6578 015e 49       		.uleb128 0x49
 6579 015f 13       		.uleb128 0x13
 6580 0160 38       		.uleb128 0x38
 6581 0161 05       		.uleb128 0x5
 6582 0162 00       		.byte	0
 6583 0163 00       		.byte	0
 6584 0164 19       		.uleb128 0x19
 6585 0165 2E       		.uleb128 0x2e
 6586 0166 01       		.byte	0x1
 6587 0167 03       		.uleb128 0x3
 6588 0168 0E       		.uleb128 0xe
 6589 0169 3A       		.uleb128 0x3a
 6590 016a 21       		.uleb128 0x21
 6591 016b 01       		.sleb128 1
 6592 016c 3B       		.uleb128 0x3b
 6593 016d 05       		.uleb128 0x5
 6594 016e 39       		.uleb128 0x39
 6595 016f 21       		.uleb128 0x21
 6596 0170 0D       		.sleb128 13
 6597 0171 27       		.uleb128 0x27
 6598 0172 19       		.uleb128 0x19
 6599 0173 20       		.uleb128 0x20
 6600 0174 21       		.uleb128 0x21
 6601 0175 01       		.sleb128 1
 6602 0176 01       		.uleb128 0x1
 6603 0177 13       		.uleb128 0x13
 6604 0178 00       		.byte	0
 6605 0179 00       		.byte	0
 6606 017a 1A       		.uleb128 0x1a
 6607 017b 34       		.uleb128 0x34
 6608 017c 00       		.byte	0
 6609 017d 03       		.uleb128 0x3
 6610 017e 0E       		.uleb128 0xe
 6611 017f 3A       		.uleb128 0x3a
 6612 0180 21       		.uleb128 0x21
ARM GAS  C:\Users\DEVELO~1\AppData\Local\Temp\ccmc7I4c.s 			page 117


 6613 0181 01       		.sleb128 1
 6614 0182 3B       		.uleb128 0x3b
 6615 0183 05       		.uleb128 0x5
 6616 0184 39       		.uleb128 0x39
 6617 0185 0B       		.uleb128 0xb
 6618 0186 49       		.uleb128 0x49
 6619 0187 13       		.uleb128 0x13
 6620 0188 02       		.uleb128 0x2
 6621 0189 17       		.uleb128 0x17
 6622 018a B742     		.uleb128 0x2137
 6623 018c 17       		.uleb128 0x17
 6624 018d 00       		.byte	0
 6625 018e 00       		.byte	0
 6626 018f 1B       		.uleb128 0x1b
 6627 0190 48       		.uleb128 0x48
 6628 0191 00       		.byte	0
 6629 0192 7D       		.uleb128 0x7d
 6630 0193 01       		.uleb128 0x1
 6631 0194 8201     		.uleb128 0x82
 6632 0196 19       		.uleb128 0x19
 6633 0197 7F       		.uleb128 0x7f
 6634 0198 13       		.uleb128 0x13
 6635 0199 00       		.byte	0
 6636 019a 00       		.byte	0
 6637 019b 1C       		.uleb128 0x1c
 6638 019c 0B       		.uleb128 0xb
 6639 019d 01       		.byte	0x1
 6640 019e 55       		.uleb128 0x55
 6641 019f 17       		.uleb128 0x17
 6642 01a0 00       		.byte	0
 6643 01a1 00       		.byte	0
 6644 01a2 1D       		.uleb128 0x1d
 6645 01a3 35       		.uleb128 0x35
 6646 01a4 00       		.byte	0
 6647 01a5 49       		.uleb128 0x49
 6648 01a6 13       		.uleb128 0x13
 6649 01a7 00       		.byte	0
 6650 01a8 00       		.byte	0
 6651 01a9 1E       		.uleb128 0x1e
 6652 01aa 16       		.uleb128 0x16
 6653 01ab 00       		.byte	0
 6654 01ac 03       		.uleb128 0x3
 6655 01ad 0E       		.uleb128 0xe
 6656 01ae 3A       		.uleb128 0x3a
 6657 01af 21       		.uleb128 0x21
 6658 01b0 04       		.sleb128 4
 6659 01b1 3B       		.uleb128 0x3b
 6660 01b2 05       		.uleb128 0x5
 6661 01b3 39       		.uleb128 0x39
 6662 01b4 21       		.uleb128 0x21
 6663 01b5 03       		.sleb128 3
 6664 01b6 49       		.uleb128 0x49
 6665 01b7 13       		.uleb128 0x13
 6666 01b8 00       		.byte	0
 6667 01b9 00       		.byte	0
 6668 01ba 1F       		.uleb128 0x1f
 6669 01bb 05       		.uleb128 0x5
ARM GAS  C:\Users\DEVELO~1\AppData\Local\Temp\ccmc7I4c.s 			page 118


 6670 01bc 00       		.byte	0
 6671 01bd 03       		.uleb128 0x3
 6672 01be 0E       		.uleb128 0xe
 6673 01bf 3A       		.uleb128 0x3a
 6674 01c0 21       		.uleb128 0x21
 6675 01c1 01       		.sleb128 1
 6676 01c2 3B       		.uleb128 0x3b
 6677 01c3 21       		.uleb128 0x21
 6678 01c4 DA05     		.sleb128 730
 6679 01c6 39       		.uleb128 0x39
 6680 01c7 0B       		.uleb128 0xb
 6681 01c8 49       		.uleb128 0x49
 6682 01c9 13       		.uleb128 0x13
 6683 01ca 02       		.uleb128 0x2
 6684 01cb 18       		.uleb128 0x18
 6685 01cc 00       		.byte	0
 6686 01cd 00       		.byte	0
 6687 01ce 20       		.uleb128 0x20
 6688 01cf 1D       		.uleb128 0x1d
 6689 01d0 01       		.byte	0x1
 6690 01d1 31       		.uleb128 0x31
 6691 01d2 13       		.uleb128 0x13
 6692 01d3 52       		.uleb128 0x52
 6693 01d4 01       		.uleb128 0x1
 6694 01d5 B842     		.uleb128 0x2138
 6695 01d7 05       		.uleb128 0x5
 6696 01d8 55       		.uleb128 0x55
 6697 01d9 17       		.uleb128 0x17
 6698 01da 58       		.uleb128 0x58
 6699 01db 21       		.uleb128 0x21
 6700 01dc 01       		.sleb128 1
 6701 01dd 59       		.uleb128 0x59
 6702 01de 05       		.uleb128 0x5
 6703 01df 57       		.uleb128 0x57
 6704 01e0 0B       		.uleb128 0xb
 6705 01e1 01       		.uleb128 0x1
 6706 01e2 13       		.uleb128 0x13
 6707 01e3 00       		.byte	0
 6708 01e4 00       		.byte	0
 6709 01e5 21       		.uleb128 0x21
 6710 01e6 34       		.uleb128 0x34
 6711 01e7 00       		.byte	0
 6712 01e8 31       		.uleb128 0x31
 6713 01e9 13       		.uleb128 0x13
 6714 01ea 02       		.uleb128 0x2
 6715 01eb 18       		.uleb128 0x18
 6716 01ec 00       		.byte	0
 6717 01ed 00       		.byte	0
 6718 01ee 22       		.uleb128 0x22
 6719 01ef 34       		.uleb128 0x34
 6720 01f0 00       		.byte	0
 6721 01f1 03       		.uleb128 0x3
 6722 01f2 0E       		.uleb128 0xe
 6723 01f3 3A       		.uleb128 0x3a
 6724 01f4 21       		.uleb128 0x21
 6725 01f5 01       		.sleb128 1
 6726 01f6 3B       		.uleb128 0x3b
ARM GAS  C:\Users\DEVELO~1\AppData\Local\Temp\ccmc7I4c.s 			page 119


 6727 01f7 0B       		.uleb128 0xb
 6728 01f8 39       		.uleb128 0x39
 6729 01f9 0B       		.uleb128 0xb
 6730 01fa 49       		.uleb128 0x49
 6731 01fb 13       		.uleb128 0x13
 6732 01fc 02       		.uleb128 0x2
 6733 01fd 17       		.uleb128 0x17
 6734 01fe B742     		.uleb128 0x2137
 6735 0200 17       		.uleb128 0x17
 6736 0201 00       		.byte	0
 6737 0202 00       		.byte	0
 6738 0203 23       		.uleb128 0x23
 6739 0204 0D       		.uleb128 0xd
 6740 0205 00       		.byte	0
 6741 0206 03       		.uleb128 0x3
 6742 0207 0E       		.uleb128 0xe
 6743 0208 3A       		.uleb128 0x3a
 6744 0209 21       		.uleb128 0x21
 6745 020a 04       		.sleb128 4
 6746 020b 3B       		.uleb128 0x3b
 6747 020c 05       		.uleb128 0x5
 6748 020d 39       		.uleb128 0x39
 6749 020e 21       		.uleb128 0x21
 6750 020f 11       		.sleb128 17
 6751 0210 49       		.uleb128 0x49
 6752 0211 13       		.uleb128 0x13
 6753 0212 38       		.uleb128 0x38
 6754 0213 05       		.uleb128 0x5
 6755 0214 00       		.byte	0
 6756 0215 00       		.byte	0
 6757 0216 24       		.uleb128 0x24
 6758 0217 26       		.uleb128 0x26
 6759 0218 00       		.byte	0
 6760 0219 49       		.uleb128 0x49
 6761 021a 13       		.uleb128 0x13
 6762 021b 00       		.byte	0
 6763 021c 00       		.byte	0
 6764 021d 25       		.uleb128 0x25
 6765 021e 13       		.uleb128 0x13
 6766 021f 01       		.byte	0x1
 6767 0220 0B       		.uleb128 0xb
 6768 0221 0B       		.uleb128 0xb
 6769 0222 3A       		.uleb128 0x3a
 6770 0223 21       		.uleb128 0x21
 6771 0224 04       		.sleb128 4
 6772 0225 3B       		.uleb128 0x3b
 6773 0226 05       		.uleb128 0x5
 6774 0227 39       		.uleb128 0x39
 6775 0228 21       		.uleb128 0x21
 6776 0229 09       		.sleb128 9
 6777 022a 01       		.uleb128 0x1
 6778 022b 13       		.uleb128 0x13
 6779 022c 00       		.byte	0
 6780 022d 00       		.byte	0
 6781 022e 26       		.uleb128 0x26
 6782 022f 13       		.uleb128 0x13
 6783 0230 01       		.byte	0x1
ARM GAS  C:\Users\DEVELO~1\AppData\Local\Temp\ccmc7I4c.s 			page 120


 6784 0231 0B       		.uleb128 0xb
 6785 0232 0B       		.uleb128 0xb
 6786 0233 3A       		.uleb128 0x3a
 6787 0234 21       		.uleb128 0x21
 6788 0235 06       		.sleb128 6
 6789 0236 3B       		.uleb128 0x3b
 6790 0237 0B       		.uleb128 0xb
 6791 0238 39       		.uleb128 0x39
 6792 0239 21       		.uleb128 0x21
 6793 023a 09       		.sleb128 9
 6794 023b 01       		.uleb128 0x1
 6795 023c 13       		.uleb128 0x13
 6796 023d 00       		.byte	0
 6797 023e 00       		.byte	0
 6798 023f 27       		.uleb128 0x27
 6799 0240 2E       		.uleb128 0x2e
 6800 0241 01       		.byte	0x1
 6801 0242 3F       		.uleb128 0x3f
 6802 0243 19       		.uleb128 0x19
 6803 0244 03       		.uleb128 0x3
 6804 0245 0E       		.uleb128 0xe
 6805 0246 3A       		.uleb128 0x3a
 6806 0247 21       		.uleb128 0x21
 6807 0248 01       		.sleb128 1
 6808 0249 3B       		.uleb128 0x3b
 6809 024a 05       		.uleb128 0x5
 6810 024b 39       		.uleb128 0x39
 6811 024c 0B       		.uleb128 0xb
 6812 024d 27       		.uleb128 0x27
 6813 024e 19       		.uleb128 0x19
 6814 024f 11       		.uleb128 0x11
 6815 0250 01       		.uleb128 0x1
 6816 0251 12       		.uleb128 0x12
 6817 0252 06       		.uleb128 0x6
 6818 0253 40       		.uleb128 0x40
 6819 0254 18       		.uleb128 0x18
 6820 0255 7A       		.uleb128 0x7a
 6821 0256 19       		.uleb128 0x19
 6822 0257 01       		.uleb128 0x1
 6823 0258 13       		.uleb128 0x13
 6824 0259 00       		.byte	0
 6825 025a 00       		.byte	0
 6826 025b 28       		.uleb128 0x28
 6827 025c 05       		.uleb128 0x5
 6828 025d 00       		.byte	0
 6829 025e 31       		.uleb128 0x31
 6830 025f 13       		.uleb128 0x13
 6831 0260 00       		.byte	0
 6832 0261 00       		.byte	0
 6833 0262 29       		.uleb128 0x29
 6834 0263 34       		.uleb128 0x34
 6835 0264 00       		.byte	0
 6836 0265 31       		.uleb128 0x31
 6837 0266 13       		.uleb128 0x13
 6838 0267 00       		.byte	0
 6839 0268 00       		.byte	0
 6840 0269 2A       		.uleb128 0x2a
ARM GAS  C:\Users\DEVELO~1\AppData\Local\Temp\ccmc7I4c.s 			page 121


 6841 026a 2E       		.uleb128 0x2e
 6842 026b 01       		.byte	0x1
 6843 026c 3F       		.uleb128 0x3f
 6844 026d 19       		.uleb128 0x19
 6845 026e 03       		.uleb128 0x3
 6846 026f 0E       		.uleb128 0xe
 6847 0270 3A       		.uleb128 0x3a
 6848 0271 21       		.uleb128 0x21
 6849 0272 01       		.sleb128 1
 6850 0273 3B       		.uleb128 0x3b
 6851 0274 0B       		.uleb128 0xb
 6852 0275 39       		.uleb128 0x39
 6853 0276 21       		.uleb128 0x21
 6854 0277 13       		.sleb128 19
 6855 0278 27       		.uleb128 0x27
 6856 0279 19       		.uleb128 0x19
 6857 027a 49       		.uleb128 0x49
 6858 027b 13       		.uleb128 0x13
 6859 027c 11       		.uleb128 0x11
 6860 027d 01       		.uleb128 0x1
 6861 027e 12       		.uleb128 0x12
 6862 027f 06       		.uleb128 0x6
 6863 0280 40       		.uleb128 0x40
 6864 0281 18       		.uleb128 0x18
 6865 0282 7A       		.uleb128 0x7a
 6866 0283 19       		.uleb128 0x19
 6867 0284 01       		.uleb128 0x1
 6868 0285 13       		.uleb128 0x13
 6869 0286 00       		.byte	0
 6870 0287 00       		.byte	0
 6871 0288 2B       		.uleb128 0x2b
 6872 0289 11       		.uleb128 0x11
 6873 028a 01       		.byte	0x1
 6874 028b 25       		.uleb128 0x25
 6875 028c 0E       		.uleb128 0xe
 6876 028d 13       		.uleb128 0x13
 6877 028e 0B       		.uleb128 0xb
 6878 028f 03       		.uleb128 0x3
 6879 0290 0E       		.uleb128 0xe
 6880 0291 1B       		.uleb128 0x1b
 6881 0292 0E       		.uleb128 0xe
 6882 0293 55       		.uleb128 0x55
 6883 0294 17       		.uleb128 0x17
 6884 0295 11       		.uleb128 0x11
 6885 0296 01       		.uleb128 0x1
 6886 0297 10       		.uleb128 0x10
 6887 0298 17       		.uleb128 0x17
 6888 0299 00       		.byte	0
 6889 029a 00       		.byte	0
 6890 029b 2C       		.uleb128 0x2c
 6891 029c 24       		.uleb128 0x24
 6892 029d 00       		.byte	0
 6893 029e 0B       		.uleb128 0xb
 6894 029f 0B       		.uleb128 0xb
 6895 02a0 3E       		.uleb128 0x3e
 6896 02a1 0B       		.uleb128 0xb
 6897 02a2 03       		.uleb128 0x3
ARM GAS  C:\Users\DEVELO~1\AppData\Local\Temp\ccmc7I4c.s 			page 122


 6898 02a3 08       		.uleb128 0x8
 6899 02a4 00       		.byte	0
 6900 02a5 00       		.byte	0
 6901 02a6 2D       		.uleb128 0x2d
 6902 02a7 13       		.uleb128 0x13
 6903 02a8 01       		.byte	0x1
 6904 02a9 0B       		.uleb128 0xb
 6905 02aa 05       		.uleb128 0x5
 6906 02ab 3A       		.uleb128 0x3a
 6907 02ac 0B       		.uleb128 0xb
 6908 02ad 3B       		.uleb128 0x3b
 6909 02ae 05       		.uleb128 0x5
 6910 02af 39       		.uleb128 0x39
 6911 02b0 0B       		.uleb128 0xb
 6912 02b1 01       		.uleb128 0x1
 6913 02b2 13       		.uleb128 0x13
 6914 02b3 00       		.byte	0
 6915 02b4 00       		.byte	0
 6916 02b5 2E       		.uleb128 0x2e
 6917 02b6 0D       		.uleb128 0xd
 6918 02b7 00       		.byte	0
 6919 02b8 03       		.uleb128 0x3
 6920 02b9 08       		.uleb128 0x8
 6921 02ba 3A       		.uleb128 0x3a
 6922 02bb 0B       		.uleb128 0xb
 6923 02bc 3B       		.uleb128 0x3b
 6924 02bd 05       		.uleb128 0x5
 6925 02be 39       		.uleb128 0x39
 6926 02bf 0B       		.uleb128 0xb
 6927 02c0 49       		.uleb128 0x49
 6928 02c1 13       		.uleb128 0x13
 6929 02c2 38       		.uleb128 0x38
 6930 02c3 0B       		.uleb128 0xb
 6931 02c4 00       		.byte	0
 6932 02c5 00       		.byte	0
 6933 02c6 2F       		.uleb128 0x2f
 6934 02c7 0F       		.uleb128 0xf
 6935 02c8 00       		.byte	0
 6936 02c9 0B       		.uleb128 0xb
 6937 02ca 0B       		.uleb128 0xb
 6938 02cb 00       		.byte	0
 6939 02cc 00       		.byte	0
 6940 02cd 30       		.uleb128 0x30
 6941 02ce 13       		.uleb128 0x13
 6942 02cf 01       		.byte	0x1
 6943 02d0 0B       		.uleb128 0xb
 6944 02d1 05       		.uleb128 0x5
 6945 02d2 3A       		.uleb128 0x3a
 6946 02d3 0B       		.uleb128 0xb
 6947 02d4 3B       		.uleb128 0x3b
 6948 02d5 0B       		.uleb128 0xb
 6949 02d6 39       		.uleb128 0x39
 6950 02d7 0B       		.uleb128 0xb
 6951 02d8 01       		.uleb128 0x1
 6952 02d9 13       		.uleb128 0x13
 6953 02da 00       		.byte	0
 6954 02db 00       		.byte	0
ARM GAS  C:\Users\DEVELO~1\AppData\Local\Temp\ccmc7I4c.s 			page 123


 6955 02dc 31       		.uleb128 0x31
 6956 02dd 0D       		.uleb128 0xd
 6957 02de 00       		.byte	0
 6958 02df 03       		.uleb128 0x3
 6959 02e0 08       		.uleb128 0x8
 6960 02e1 3A       		.uleb128 0x3a
 6961 02e2 0B       		.uleb128 0xb
 6962 02e3 3B       		.uleb128 0x3b
 6963 02e4 0B       		.uleb128 0xb
 6964 02e5 39       		.uleb128 0x39
 6965 02e6 0B       		.uleb128 0xb
 6966 02e7 49       		.uleb128 0x49
 6967 02e8 13       		.uleb128 0x13
 6968 02e9 38       		.uleb128 0x38
 6969 02ea 0B       		.uleb128 0xb
 6970 02eb 00       		.byte	0
 6971 02ec 00       		.byte	0
 6972 02ed 32       		.uleb128 0x32
 6973 02ee 2E       		.uleb128 0x2e
 6974 02ef 01       		.byte	0x1
 6975 02f0 3F       		.uleb128 0x3f
 6976 02f1 19       		.uleb128 0x19
 6977 02f2 03       		.uleb128 0x3
 6978 02f3 0E       		.uleb128 0xe
 6979 02f4 3A       		.uleb128 0x3a
 6980 02f5 0B       		.uleb128 0xb
 6981 02f6 3B       		.uleb128 0x3b
 6982 02f7 05       		.uleb128 0x5
 6983 02f8 39       		.uleb128 0x39
 6984 02f9 0B       		.uleb128 0xb
 6985 02fa 27       		.uleb128 0x27
 6986 02fb 19       		.uleb128 0x19
 6987 02fc 49       		.uleb128 0x49
 6988 02fd 13       		.uleb128 0x13
 6989 02fe 20       		.uleb128 0x20
 6990 02ff 0B       		.uleb128 0xb
 6991 0300 01       		.uleb128 0x1
 6992 0301 13       		.uleb128 0x13
 6993 0302 00       		.byte	0
 6994 0303 00       		.byte	0
 6995 0304 33       		.uleb128 0x33
 6996 0305 34       		.uleb128 0x34
 6997 0306 00       		.byte	0
 6998 0307 03       		.uleb128 0x3
 6999 0308 08       		.uleb128 0x8
 7000 0309 3A       		.uleb128 0x3a
 7001 030a 0B       		.uleb128 0xb
 7002 030b 3B       		.uleb128 0x3b
 7003 030c 05       		.uleb128 0x5
 7004 030d 39       		.uleb128 0x39
 7005 030e 0B       		.uleb128 0xb
 7006 030f 49       		.uleb128 0x49
 7007 0310 13       		.uleb128 0x13
 7008 0311 02       		.uleb128 0x2
 7009 0312 17       		.uleb128 0x17
 7010 0313 B742     		.uleb128 0x2137
 7011 0315 17       		.uleb128 0x17
ARM GAS  C:\Users\DEVELO~1\AppData\Local\Temp\ccmc7I4c.s 			page 124


 7012 0316 00       		.byte	0
 7013 0317 00       		.byte	0
 7014 0318 34       		.uleb128 0x34
 7015 0319 1D       		.uleb128 0x1d
 7016 031a 01       		.byte	0x1
 7017 031b 31       		.uleb128 0x31
 7018 031c 13       		.uleb128 0x13
 7019 031d 55       		.uleb128 0x55
 7020 031e 17       		.uleb128 0x17
 7021 031f 58       		.uleb128 0x58
 7022 0320 0B       		.uleb128 0xb
 7023 0321 59       		.uleb128 0x59
 7024 0322 05       		.uleb128 0x5
 7025 0323 57       		.uleb128 0x57
 7026 0324 0B       		.uleb128 0xb
 7027 0325 01       		.uleb128 0x1
 7028 0326 13       		.uleb128 0x13
 7029 0327 00       		.byte	0
 7030 0328 00       		.byte	0
 7031 0329 35       		.uleb128 0x35
 7032 032a 2E       		.uleb128 0x2e
 7033 032b 01       		.byte	0x1
 7034 032c 3F       		.uleb128 0x3f
 7035 032d 19       		.uleb128 0x19
 7036 032e 03       		.uleb128 0x3
 7037 032f 0E       		.uleb128 0xe
 7038 0330 3A       		.uleb128 0x3a
 7039 0331 0B       		.uleb128 0xb
 7040 0332 3B       		.uleb128 0x3b
 7041 0333 05       		.uleb128 0x5
 7042 0334 39       		.uleb128 0x39
 7043 0335 0B       		.uleb128 0xb
 7044 0336 27       		.uleb128 0x27
 7045 0337 19       		.uleb128 0x19
 7046 0338 20       		.uleb128 0x20
 7047 0339 0B       		.uleb128 0xb
 7048 033a 01       		.uleb128 0x1
 7049 033b 13       		.uleb128 0x13
 7050 033c 00       		.byte	0
 7051 033d 00       		.byte	0
 7052 033e 36       		.uleb128 0x36
 7053 033f 34       		.uleb128 0x34
 7054 0340 00       		.byte	0
 7055 0341 03       		.uleb128 0x3
 7056 0342 0E       		.uleb128 0xe
 7057 0343 3A       		.uleb128 0x3a
 7058 0344 0B       		.uleb128 0xb
 7059 0345 3B       		.uleb128 0x3b
 7060 0346 05       		.uleb128 0x5
 7061 0347 39       		.uleb128 0x39
 7062 0348 0B       		.uleb128 0xb
 7063 0349 49       		.uleb128 0x49
 7064 034a 13       		.uleb128 0x13
 7065 034b 1C       		.uleb128 0x1c
 7066 034c 0B       		.uleb128 0xb
 7067 034d 00       		.byte	0
 7068 034e 00       		.byte	0
ARM GAS  C:\Users\DEVELO~1\AppData\Local\Temp\ccmc7I4c.s 			page 125


 7069 034f 37       		.uleb128 0x37
 7070 0350 05       		.uleb128 0x5
 7071 0351 00       		.byte	0
 7072 0352 03       		.uleb128 0x3
 7073 0353 08       		.uleb128 0x8
 7074 0354 3A       		.uleb128 0x3a
 7075 0355 0B       		.uleb128 0xb
 7076 0356 3B       		.uleb128 0x3b
 7077 0357 0B       		.uleb128 0xb
 7078 0358 39       		.uleb128 0x39
 7079 0359 0B       		.uleb128 0xb
 7080 035a 49       		.uleb128 0x49
 7081 035b 13       		.uleb128 0x13
 7082 035c 02       		.uleb128 0x2
 7083 035d 17       		.uleb128 0x17
 7084 035e B742     		.uleb128 0x2137
 7085 0360 17       		.uleb128 0x17
 7086 0361 00       		.byte	0
 7087 0362 00       		.byte	0
 7088 0363 38       		.uleb128 0x38
 7089 0364 1D       		.uleb128 0x1d
 7090 0365 01       		.byte	0x1
 7091 0366 31       		.uleb128 0x31
 7092 0367 13       		.uleb128 0x13
 7093 0368 52       		.uleb128 0x52
 7094 0369 01       		.uleb128 0x1
 7095 036a B842     		.uleb128 0x2138
 7096 036c 05       		.uleb128 0x5
 7097 036d 55       		.uleb128 0x55
 7098 036e 17       		.uleb128 0x17
 7099 036f 58       		.uleb128 0x58
 7100 0370 0B       		.uleb128 0xb
 7101 0371 59       		.uleb128 0x59
 7102 0372 0B       		.uleb128 0xb
 7103 0373 57       		.uleb128 0x57
 7104 0374 0B       		.uleb128 0xb
 7105 0375 01       		.uleb128 0x1
 7106 0376 13       		.uleb128 0x13
 7107 0377 00       		.byte	0
 7108 0378 00       		.byte	0
 7109 0379 39       		.uleb128 0x39
 7110 037a 2E       		.uleb128 0x2e
 7111 037b 01       		.byte	0x1
 7112 037c 31       		.uleb128 0x31
 7113 037d 13       		.uleb128 0x13
 7114 037e 11       		.uleb128 0x11
 7115 037f 01       		.uleb128 0x1
 7116 0380 12       		.uleb128 0x12
 7117 0381 06       		.uleb128 0x6
 7118 0382 40       		.uleb128 0x40
 7119 0383 18       		.uleb128 0x18
 7120 0384 7A       		.uleb128 0x7a
 7121 0385 19       		.uleb128 0x19
 7122 0386 01       		.uleb128 0x1
 7123 0387 13       		.uleb128 0x13
 7124 0388 00       		.byte	0
 7125 0389 00       		.byte	0
ARM GAS  C:\Users\DEVELO~1\AppData\Local\Temp\ccmc7I4c.s 			page 126


 7126 038a 3A       		.uleb128 0x3a
 7127 038b 05       		.uleb128 0x5
 7128 038c 00       		.byte	0
 7129 038d 31       		.uleb128 0x31
 7130 038e 13       		.uleb128 0x13
 7131 038f 02       		.uleb128 0x2
 7132 0390 18       		.uleb128 0x18
 7133 0391 00       		.byte	0
 7134 0392 00       		.byte	0
 7135 0393 3B       		.uleb128 0x3b
 7136 0394 2E       		.uleb128 0x2e
 7137 0395 01       		.byte	0x1
 7138 0396 31       		.uleb128 0x31
 7139 0397 13       		.uleb128 0x13
 7140 0398 11       		.uleb128 0x11
 7141 0399 01       		.uleb128 0x1
 7142 039a 12       		.uleb128 0x12
 7143 039b 06       		.uleb128 0x6
 7144 039c 40       		.uleb128 0x40
 7145 039d 18       		.uleb128 0x18
 7146 039e 7A       		.uleb128 0x7a
 7147 039f 19       		.uleb128 0x19
 7148 03a0 00       		.byte	0
 7149 03a1 00       		.byte	0
 7150 03a2 00       		.byte	0
 7151              		.section	.debug_loclists,"",%progbits
 7152 0000 470B0000 		.4byte	.Ldebug_loc3-.Ldebug_loc2
 7153              	.Ldebug_loc2:
 7154 0004 0500     		.2byte	0x5
 7155 0006 04       		.byte	0x4
 7156 0007 00       		.byte	0
 7157 0008 00000000 		.4byte	0
 7158              	.Ldebug_loc0:
 7159              	.LVUS64:
 7160 000c 00       		.uleb128 0
 7161 000d 00       		.uleb128 .LVU1066
 7162 000e 00       		.uleb128 .LVU1066
 7163 000f 00       		.uleb128 .LVU1076
 7164 0010 00       		.uleb128 .LVU1076
 7165 0011 00       		.uleb128 .LVU1081
 7166 0012 00       		.uleb128 .LVU1081
 7167 0013 00       		.uleb128 0
 7168              	.LLST64:
 7169 0014 06       		.byte	0x6
 7170 0015 00000000 		.4byte	.LVL254
 7171 0019 04       		.byte	0x4
 7172 001a 00       		.uleb128 .LVL254-.LVL254
 7173 001b 08       		.uleb128 .LVL255-.LVL254
 7174 001c 01       		.uleb128 0x1
 7175 001d 50       		.byte	0x50
 7176 001e 04       		.byte	0x4
 7177 001f 08       		.uleb128 .LVL255-.LVL254
 7178 0020 28       		.uleb128 .LVL258-.LVL254
 7179 0021 01       		.uleb128 0x1
 7180 0022 54       		.byte	0x54
 7181 0023 04       		.byte	0x4
 7182 0024 28       		.uleb128 .LVL258-.LVL254
ARM GAS  C:\Users\DEVELO~1\AppData\Local\Temp\ccmc7I4c.s 			page 127


 7183 0025 32       		.uleb128 .LVL259-.LVL254
 7184 0026 04       		.uleb128 0x4
 7185 0027 A3       		.byte	0xa3
 7186 0028 01       		.uleb128 0x1
 7187 0029 50       		.byte	0x50
 7188 002a 9F       		.byte	0x9f
 7189 002b 04       		.byte	0x4
 7190 002c 32       		.uleb128 .LVL259-.LVL254
 7191 002d 4A       		.uleb128 .LFE164-.LVL254
 7192 002e 01       		.uleb128 0x1
 7193 002f 54       		.byte	0x54
 7194 0030 00       		.byte	0
 7195              	.LVUS65:
 7196 0031 00       		.uleb128 0
 7197 0032 00       		.uleb128 .LVU1068
 7198 0033 00       		.uleb128 .LVU1068
 7199 0034 00       		.uleb128 0
 7200              	.LLST65:
 7201 0035 06       		.byte	0x6
 7202 0036 00000000 		.4byte	.LVL254
 7203 003a 04       		.byte	0x4
 7204 003b 00       		.uleb128 .LVL254-.LVL254
 7205 003c 0F       		.uleb128 .LVL256-1-.LVL254
 7206 003d 01       		.uleb128 0x1
 7207 003e 51       		.byte	0x51
 7208 003f 04       		.byte	0x4
 7209 0040 0F       		.uleb128 .LVL256-1-.LVL254
 7210 0041 4A       		.uleb128 .LFE164-.LVL254
 7211 0042 04       		.uleb128 0x4
 7212 0043 A3       		.byte	0xa3
 7213 0044 01       		.uleb128 0x1
 7214 0045 51       		.byte	0x51
 7215 0046 9F       		.byte	0x9f
 7216 0047 00       		.byte	0
 7217              	.LVUS66:
 7218 0048 00       		.uleb128 0
 7219 0049 00       		.uleb128 .LVU1068
 7220 004a 00       		.uleb128 .LVU1068
 7221 004b 00       		.uleb128 0
 7222              	.LLST66:
 7223 004c 06       		.byte	0x6
 7224 004d 00000000 		.4byte	.LVL254
 7225 0051 04       		.byte	0x4
 7226 0052 00       		.uleb128 .LVL254-.LVL254
 7227 0053 0F       		.uleb128 .LVL256-1-.LVL254
 7228 0054 01       		.uleb128 0x1
 7229 0055 52       		.byte	0x52
 7230 0056 04       		.byte	0x4
 7231 0057 0F       		.uleb128 .LVL256-1-.LVL254
 7232 0058 4A       		.uleb128 .LFE164-.LVL254
 7233 0059 04       		.uleb128 0x4
 7234 005a A3       		.byte	0xa3
 7235 005b 01       		.uleb128 0x1
 7236 005c 52       		.byte	0x52
 7237 005d 9F       		.byte	0x9f
 7238 005e 00       		.byte	0
 7239              	.LVUS67:
ARM GAS  C:\Users\DEVELO~1\AppData\Local\Temp\ccmc7I4c.s 			page 128


 7240 005f 00       		.uleb128 0
 7241 0060 00       		.uleb128 .LVU1068
 7242 0061 00       		.uleb128 .LVU1068
 7243 0062 00       		.uleb128 0
 7244              	.LLST67:
 7245 0063 06       		.byte	0x6
 7246 0064 00000000 		.4byte	.LVL254
 7247 0068 04       		.byte	0x4
 7248 0069 00       		.uleb128 .LVL254-.LVL254
 7249 006a 0F       		.uleb128 .LVL256-1-.LVL254
 7250 006b 01       		.uleb128 0x1
 7251 006c 53       		.byte	0x53
 7252 006d 04       		.byte	0x4
 7253 006e 0F       		.uleb128 .LVL256-1-.LVL254
 7254 006f 4A       		.uleb128 .LFE164-.LVL254
 7255 0070 04       		.uleb128 0x4
 7256 0071 A3       		.byte	0xa3
 7257 0072 01       		.uleb128 0x1
 7258 0073 53       		.byte	0x53
 7259 0074 9F       		.byte	0x9f
 7260 0075 00       		.byte	0
 7261              	.LVUS68:
 7262 0076 00       		.uleb128 .LVU1068
 7263 0077 00       		.uleb128 .LVU1072
 7264 0078 00       		.uleb128 .LVU1081
 7265 0079 00       		.uleb128 .LVU1084
 7266              	.LLST68:
 7267 007a 06       		.byte	0x6
 7268 007b 10000000 		.4byte	.LVL256
 7269 007f 04       		.byte	0x4
 7270 0080 00       		.uleb128 .LVL256-.LVL256
 7271 0081 10       		.uleb128 .LVL257-.LVL256
 7272 0082 01       		.uleb128 0x1
 7273 0083 50       		.byte	0x50
 7274 0084 04       		.byte	0x4
 7275 0085 22       		.uleb128 .LVL259-.LVL256
 7276 0086 28       		.uleb128 .LVL260-.LVL256
 7277 0087 01       		.uleb128 0x1
 7278 0088 50       		.byte	0x50
 7279 0089 00       		.byte	0
 7280              	.LVUS63:
 7281 008a 00       		.uleb128 0
 7282 008b 00       		.uleb128 .LVU1060
 7283 008c 00       		.uleb128 .LVU1060
 7284 008d 00       		.uleb128 0
 7285              	.LLST63:
 7286 008e 06       		.byte	0x6
 7287 008f 00000000 		.4byte	.LVL251
 7288 0093 04       		.byte	0x4
 7289 0094 00       		.uleb128 .LVL251-.LVL251
 7290 0095 02       		.uleb128 .LVL252-.LVL251
 7291 0096 01       		.uleb128 0x1
 7292 0097 50       		.byte	0x50
 7293 0098 04       		.byte	0x4
 7294 0099 02       		.uleb128 .LVL252-.LVL251
 7295 009a 06       		.uleb128 .LFE163-.LVL251
 7296 009b 04       		.uleb128 0x4
ARM GAS  C:\Users\DEVELO~1\AppData\Local\Temp\ccmc7I4c.s 			page 129


 7297 009c A3       		.byte	0xa3
 7298 009d 01       		.uleb128 0x1
 7299 009e 50       		.byte	0x50
 7300 009f 9F       		.byte	0x9f
 7301 00a0 00       		.byte	0
 7302              	.LVUS62:
 7303 00a1 00       		.uleb128 0
 7304 00a2 00       		.uleb128 .LVU1056
 7305 00a3 00       		.uleb128 .LVU1056
 7306 00a4 00       		.uleb128 0
 7307              	.LLST62:
 7308 00a5 06       		.byte	0x6
 7309 00a6 00000000 		.4byte	.LVL248
 7310 00aa 04       		.byte	0x4
 7311 00ab 00       		.uleb128 .LVL248-.LVL248
 7312 00ac 02       		.uleb128 .LVL249-.LVL248
 7313 00ad 01       		.uleb128 0x1
 7314 00ae 50       		.byte	0x50
 7315 00af 04       		.byte	0x4
 7316 00b0 02       		.uleb128 .LVL249-.LVL248
 7317 00b1 06       		.uleb128 .LFE162-.LVL248
 7318 00b2 04       		.uleb128 0x4
 7319 00b3 A3       		.byte	0xa3
 7320 00b4 01       		.uleb128 0x1
 7321 00b5 50       		.byte	0x50
 7322 00b6 9F       		.byte	0x9f
 7323 00b7 00       		.byte	0
 7324              	.LVUS60:
 7325 00b8 00       		.uleb128 0
 7326 00b9 00       		.uleb128 .LVU1052
 7327 00ba 00       		.uleb128 .LVU1052
 7328 00bb 00       		.uleb128 0
 7329              	.LLST60:
 7330 00bc 06       		.byte	0x6
 7331 00bd 00000000 		.4byte	.LVL245
 7332 00c1 04       		.byte	0x4
 7333 00c2 00       		.uleb128 .LVL245-.LVL245
 7334 00c3 08       		.uleb128 .LVL247-.LVL245
 7335 00c4 01       		.uleb128 0x1
 7336 00c5 50       		.byte	0x50
 7337 00c6 04       		.byte	0x4
 7338 00c7 08       		.uleb128 .LVL247-.LVL245
 7339 00c8 0E       		.uleb128 .LFE161-.LVL245
 7340 00c9 04       		.uleb128 0x4
 7341 00ca A3       		.byte	0xa3
 7342 00cb 01       		.uleb128 0x1
 7343 00cc 50       		.byte	0x50
 7344 00cd 9F       		.byte	0x9f
 7345 00ce 00       		.byte	0
 7346              	.LVUS61:
 7347 00cf 00       		.uleb128 0
 7348 00d0 00       		.uleb128 .LVU1051
 7349 00d1 00       		.uleb128 .LVU1051
 7350 00d2 00       		.uleb128 0
 7351              	.LLST61:
 7352 00d3 06       		.byte	0x6
 7353 00d4 00000000 		.4byte	.LVL245
ARM GAS  C:\Users\DEVELO~1\AppData\Local\Temp\ccmc7I4c.s 			page 130


 7354 00d8 04       		.byte	0x4
 7355 00d9 00       		.uleb128 .LVL245-.LVL245
 7356 00da 04       		.uleb128 .LVL246-.LVL245
 7357 00db 01       		.uleb128 0x1
 7358 00dc 51       		.byte	0x51
 7359 00dd 04       		.byte	0x4
 7360 00de 04       		.uleb128 .LVL246-.LVL245
 7361 00df 0E       		.uleb128 .LFE161-.LVL245
 7362 00e0 04       		.uleb128 0x4
 7363 00e1 A3       		.byte	0xa3
 7364 00e2 01       		.uleb128 0x1
 7365 00e3 51       		.byte	0x51
 7366 00e4 9F       		.byte	0x9f
 7367 00e5 00       		.byte	0
 7368              	.LVUS58:
 7369 00e6 00       		.uleb128 0
 7370 00e7 00       		.uleb128 .LVU1047
 7371 00e8 00       		.uleb128 .LVU1047
 7372 00e9 00       		.uleb128 0
 7373              	.LLST58:
 7374 00ea 06       		.byte	0x6
 7375 00eb 00000000 		.4byte	.LVL242
 7376 00ef 04       		.byte	0x4
 7377 00f0 00       		.uleb128 .LVL242-.LVL242
 7378 00f1 08       		.uleb128 .LVL244-.LVL242
 7379 00f2 01       		.uleb128 0x1
 7380 00f3 50       		.byte	0x50
 7381 00f4 04       		.byte	0x4
 7382 00f5 08       		.uleb128 .LVL244-.LVL242
 7383 00f6 0C       		.uleb128 .LFE160-.LVL242
 7384 00f7 04       		.uleb128 0x4
 7385 00f8 A3       		.byte	0xa3
 7386 00f9 01       		.uleb128 0x1
 7387 00fa 50       		.byte	0x50
 7388 00fb 9F       		.byte	0x9f
 7389 00fc 00       		.byte	0
 7390              	.LVUS59:
 7391 00fd 00       		.uleb128 0
 7392 00fe 00       		.uleb128 .LVU1046
 7393 00ff 00       		.uleb128 .LVU1046
 7394 0100 00       		.uleb128 0
 7395              	.LLST59:
 7396 0101 06       		.byte	0x6
 7397 0102 00000000 		.4byte	.LVL242
 7398 0106 04       		.byte	0x4
 7399 0107 00       		.uleb128 .LVL242-.LVL242
 7400 0108 04       		.uleb128 .LVL243-.LVL242
 7401 0109 01       		.uleb128 0x1
 7402 010a 51       		.byte	0x51
 7403 010b 04       		.byte	0x4
 7404 010c 04       		.uleb128 .LVL243-.LVL242
 7405 010d 0C       		.uleb128 .LFE160-.LVL242
 7406 010e 04       		.uleb128 0x4
 7407 010f A3       		.byte	0xa3
 7408 0110 01       		.uleb128 0x1
 7409 0111 51       		.byte	0x51
 7410 0112 9F       		.byte	0x9f
ARM GAS  C:\Users\DEVELO~1\AppData\Local\Temp\ccmc7I4c.s 			page 131


 7411 0113 00       		.byte	0
 7412              	.LVUS56:
 7413 0114 00       		.uleb128 0
 7414 0115 00       		.uleb128 .LVU1042
 7415 0116 00       		.uleb128 .LVU1042
 7416 0117 00       		.uleb128 0
 7417              	.LLST56:
 7418 0118 06       		.byte	0x6
 7419 0119 00000000 		.4byte	.LVL239
 7420 011d 04       		.byte	0x4
 7421 011e 00       		.uleb128 .LVL239-.LVL239
 7422 011f 08       		.uleb128 .LVL241-.LVL239
 7423 0120 01       		.uleb128 0x1
 7424 0121 50       		.byte	0x50
 7425 0122 04       		.byte	0x4
 7426 0123 08       		.uleb128 .LVL241-.LVL239
 7427 0124 0E       		.uleb128 .LFE159-.LVL239
 7428 0125 04       		.uleb128 0x4
 7429 0126 A3       		.byte	0xa3
 7430 0127 01       		.uleb128 0x1
 7431 0128 50       		.byte	0x50
 7432 0129 9F       		.byte	0x9f
 7433 012a 00       		.byte	0
 7434              	.LVUS57:
 7435 012b 00       		.uleb128 0
 7436 012c 00       		.uleb128 .LVU1041
 7437 012d 00       		.uleb128 .LVU1041
 7438 012e 00       		.uleb128 0
 7439              	.LLST57:
 7440 012f 06       		.byte	0x6
 7441 0130 00000000 		.4byte	.LVL239
 7442 0134 04       		.byte	0x4
 7443 0135 00       		.uleb128 .LVL239-.LVL239
 7444 0136 04       		.uleb128 .LVL240-.LVL239
 7445 0137 01       		.uleb128 0x1
 7446 0138 51       		.byte	0x51
 7447 0139 04       		.byte	0x4
 7448 013a 04       		.uleb128 .LVL240-.LVL239
 7449 013b 0E       		.uleb128 .LFE159-.LVL239
 7450 013c 04       		.uleb128 0x4
 7451 013d A3       		.byte	0xa3
 7452 013e 01       		.uleb128 0x1
 7453 013f 51       		.byte	0x51
 7454 0140 9F       		.byte	0x9f
 7455 0141 00       		.byte	0
 7456              	.LVUS55:
 7457 0142 00       		.uleb128 0
 7458 0143 00       		.uleb128 .LVU1037
 7459 0144 00       		.uleb128 .LVU1037
 7460 0145 00       		.uleb128 0
 7461              	.LLST55:
 7462 0146 06       		.byte	0x6
 7463 0147 00000000 		.4byte	.LVL237
 7464 014b 04       		.byte	0x4
 7465 014c 00       		.uleb128 .LVL237-.LVL237
 7466 014d 04       		.uleb128 .LVL238-.LVL237
 7467 014e 01       		.uleb128 0x1
ARM GAS  C:\Users\DEVELO~1\AppData\Local\Temp\ccmc7I4c.s 			page 132


 7468 014f 50       		.byte	0x50
 7469 0150 04       		.byte	0x4
 7470 0151 04       		.uleb128 .LVL238-.LVL237
 7471 0152 06       		.uleb128 .LFE158-.LVL237
 7472 0153 04       		.uleb128 0x4
 7473 0154 A3       		.byte	0xa3
 7474 0155 01       		.uleb128 0x1
 7475 0156 50       		.byte	0x50
 7476 0157 9F       		.byte	0x9f
 7477 0158 00       		.byte	0
 7478              	.LVUS54:
 7479 0159 00       		.uleb128 0
 7480 015a 00       		.uleb128 .LVU1033
 7481 015b 00       		.uleb128 .LVU1033
 7482 015c 00       		.uleb128 0
 7483              	.LLST54:
 7484 015d 06       		.byte	0x6
 7485 015e 00000000 		.4byte	.LVL234
 7486 0162 04       		.byte	0x4
 7487 0163 00       		.uleb128 .LVL234-.LVL234
 7488 0164 02       		.uleb128 .LVL235-.LVL234
 7489 0165 01       		.uleb128 0x1
 7490 0166 50       		.byte	0x50
 7491 0167 04       		.byte	0x4
 7492 0168 02       		.uleb128 .LVL235-.LVL234
 7493 0169 06       		.uleb128 .LFE157-.LVL234
 7494 016a 04       		.uleb128 0x4
 7495 016b A3       		.byte	0xa3
 7496 016c 01       		.uleb128 0x1
 7497 016d 50       		.byte	0x50
 7498 016e 9F       		.byte	0x9f
 7499 016f 00       		.byte	0
 7500              	.LVUS53:
 7501 0170 00       		.uleb128 0
 7502 0171 00       		.uleb128 .LVU1017
 7503 0172 00       		.uleb128 .LVU1017
 7504 0173 00       		.uleb128 .LVU1028
 7505 0174 00       		.uleb128 .LVU1028
 7506 0175 00       		.uleb128 .LVU1029
 7507 0176 00       		.uleb128 .LVU1029
 7508 0177 00       		.uleb128 0
 7509              	.LLST53:
 7510 0178 06       		.byte	0x6
 7511 0179 00000000 		.4byte	.LVL229
 7512 017d 04       		.byte	0x4
 7513 017e 00       		.uleb128 .LVL229-.LVL229
 7514 017f 10       		.uleb128 .LVL230-.LVL229
 7515 0180 01       		.uleb128 0x1
 7516 0181 50       		.byte	0x50
 7517 0182 04       		.byte	0x4
 7518 0183 10       		.uleb128 .LVL230-.LVL229
 7519 0184 22       		.uleb128 .LVL232-.LVL229
 7520 0185 01       		.uleb128 0x1
 7521 0186 54       		.byte	0x54
 7522 0187 04       		.byte	0x4
 7523 0188 22       		.uleb128 .LVL232-.LVL229
 7524 0189 24       		.uleb128 .LVL233-.LVL229
ARM GAS  C:\Users\DEVELO~1\AppData\Local\Temp\ccmc7I4c.s 			page 133


 7525 018a 01       		.uleb128 0x1
 7526 018b 50       		.byte	0x50
 7527 018c 04       		.byte	0x4
 7528 018d 24       		.uleb128 .LVL233-.LVL229
 7529 018e 26       		.uleb128 .LFE156-.LVL229
 7530 018f 04       		.uleb128 0x4
 7531 0190 A3       		.byte	0xa3
 7532 0191 01       		.uleb128 0x1
 7533 0192 50       		.byte	0x50
 7534 0193 9F       		.byte	0x9f
 7535 0194 00       		.byte	0
 7536              	.LVUS52:
 7537 0195 00       		.uleb128 0
 7538 0196 00       		.uleb128 .LVU997
 7539 0197 00       		.uleb128 .LVU997
 7540 0198 00       		.uleb128 .LVU1009
 7541 0199 00       		.uleb128 .LVU1009
 7542 019a 00       		.uleb128 .LVU1010
 7543 019b 00       		.uleb128 .LVU1010
 7544 019c 00       		.uleb128 0
 7545              	.LLST52:
 7546 019d 06       		.byte	0x6
 7547 019e 00000000 		.4byte	.LVL223
 7548 01a2 04       		.byte	0x4
 7549 01a3 00       		.uleb128 .LVL223-.LVL223
 7550 01a4 10       		.uleb128 .LVL224-.LVL223
 7551 01a5 01       		.uleb128 0x1
 7552 01a6 50       		.byte	0x50
 7553 01a7 04       		.byte	0x4
 7554 01a8 10       		.uleb128 .LVL224-.LVL223
 7555 01a9 28       		.uleb128 .LVL227-.LVL223
 7556 01aa 01       		.uleb128 0x1
 7557 01ab 54       		.byte	0x54
 7558 01ac 04       		.byte	0x4
 7559 01ad 28       		.uleb128 .LVL227-.LVL223
 7560 01ae 2A       		.uleb128 .LVL228-.LVL223
 7561 01af 01       		.uleb128 0x1
 7562 01b0 50       		.byte	0x50
 7563 01b1 04       		.byte	0x4
 7564 01b2 2A       		.uleb128 .LVL228-.LVL223
 7565 01b3 2C       		.uleb128 .LFE155-.LVL223
 7566 01b4 04       		.uleb128 0x4
 7567 01b5 A3       		.byte	0xa3
 7568 01b6 01       		.uleb128 0x1
 7569 01b7 50       		.byte	0x50
 7570 01b8 9F       		.byte	0x9f
 7571 01b9 00       		.byte	0
 7572              	.LVUS25:
 7573 01ba 00       		.uleb128 0
 7574 01bb 00       		.uleb128 .LVU248
 7575 01bc 00       		.uleb128 .LVU248
 7576 01bd 00       		.uleb128 0
 7577              	.LLST25:
 7578 01be 06       		.byte	0x6
 7579 01bf 00000000 		.4byte	.LVL60
 7580 01c3 04       		.byte	0x4
 7581 01c4 00       		.uleb128 .LVL60-.LVL60
ARM GAS  C:\Users\DEVELO~1\AppData\Local\Temp\ccmc7I4c.s 			page 134


 7582 01c5 0C       		.uleb128 .LVL62-.LVL60
 7583 01c6 01       		.uleb128 0x1
 7584 01c7 50       		.byte	0x50
 7585 01c8 04       		.byte	0x4
 7586 01c9 0C       		.uleb128 .LVL62-.LVL60
 7587 01ca B013     		.uleb128 .LFE148-.LVL60
 7588 01cc 01       		.uleb128 0x1
 7589 01cd 54       		.byte	0x54
 7590 01ce 00       		.byte	0
 7591              	.LVUS26:
 7592 01cf 00       		.uleb128 .LVU241
 7593 01d0 00       		.uleb128 .LVU250
 7594 01d1 00       		.uleb128 .LVU251
 7595 01d2 00       		.uleb128 .LVU295
 7596 01d3 00       		.uleb128 .LVU321
 7597 01d4 00       		.uleb128 .LVU340
 7598 01d5 00       		.uleb128 .LVU340
 7599 01d6 00       		.uleb128 .LVU341
 7600 01d7 00       		.uleb128 .LVU462
 7601 01d8 00       		.uleb128 .LVU510
 7602 01d9 00       		.uleb128 .LVU571
 7603 01da 00       		.uleb128 .LVU574
 7604 01db 00       		.uleb128 .LVU622
 7605 01dc 00       		.uleb128 .LVU630
 7606 01dd 00       		.uleb128 .LVU716
 7607 01de 00       		.uleb128 .LVU719
 7608              	.LLST26:
 7609 01df 06       		.byte	0x6
 7610 01e0 06000000 		.4byte	.LVL61
 7611 01e4 04       		.byte	0x4
 7612 01e5 00       		.uleb128 .LVL61-.LVL61
 7613 01e6 0E       		.uleb128 .LVL64-.LVL61
 7614 01e7 01       		.uleb128 0x1
 7615 01e8 55       		.byte	0x55
 7616 01e9 04       		.byte	0x4
 7617 01ea 14       		.uleb128 .LVL65-.LVL61
 7618 01eb 9601     		.uleb128 .LVL75-.LVL61
 7619 01ed 01       		.uleb128 0x1
 7620 01ee 55       		.byte	0x55
 7621 01ef 04       		.byte	0x4
 7622 01f0 C601     		.uleb128 .LVL81-.LVL61
 7623 01f2 8C02     		.uleb128 .LVL87-.LVL61
 7624 01f4 01       		.uleb128 0x1
 7625 01f5 55       		.byte	0x55
 7626 01f6 04       		.byte	0x4
 7627 01f7 8C02     		.uleb128 .LVL87-.LVL61
 7628 01f9 9202     		.uleb128 .LVL88-.LVL61
 7629 01fb 04       		.uleb128 0x4
 7630 01fc 75       		.byte	0x75
 7631 01fd 8076     		.sleb128 -1280
 7632 01ff 9F       		.byte	0x9f
 7633 0200 04       		.byte	0x4
 7634 0201 AA05     		.uleb128 .LVL121-.LVL61
 7635 0203 AC06     		.uleb128 .LVL127-.LVL61
 7636 0205 01       		.uleb128 0x1
 7637 0206 55       		.byte	0x55
 7638 0207 04       		.byte	0x4
ARM GAS  C:\Users\DEVELO~1\AppData\Local\Temp\ccmc7I4c.s 			page 135


 7639 0208 AC08     		.uleb128 .LVL142-.LVL61
 7640 020a BC08     		.uleb128 .LVL145-.LVL61
 7641 020c 01       		.uleb128 0x1
 7642 020d 55       		.byte	0x55
 7643 020e 04       		.byte	0x4
 7644 020f E609     		.uleb128 .LVL155-.LVL61
 7645 0211 FC09     		.uleb128 .LVL157-.LVL61
 7646 0213 01       		.uleb128 0x1
 7647 0214 55       		.byte	0x55
 7648 0215 04       		.byte	0x4
 7649 0216 B00C     		.uleb128 .LVL168-.LVL61
 7650 0218 BA0C     		.uleb128 .LVL170-.LVL61
 7651 021a 01       		.uleb128 0x1
 7652 021b 55       		.byte	0x55
 7653 021c 00       		.byte	0
 7654              	.LVUS27:
 7655 021d 01       		.uleb128 .LVU242
 7656 021e 00       		.uleb128 .LVU250
 7657 021f 00       		.uleb128 .LVU251
 7658 0220 00       		.uleb128 .LVU295
 7659 0221 00       		.uleb128 .LVU321
 7660 0222 00       		.uleb128 .LVU340
 7661 0223 00       		.uleb128 .LVU340
 7662 0224 00       		.uleb128 .LVU341
 7663 0225 00       		.uleb128 .LVU462
 7664 0226 00       		.uleb128 .LVU510
 7665 0227 00       		.uleb128 .LVU571
 7666 0228 00       		.uleb128 .LVU574
 7667 0229 00       		.uleb128 .LVU622
 7668 022a 00       		.uleb128 .LVU630
 7669 022b 00       		.uleb128 .LVU716
 7670 022c 00       		.uleb128 .LVU719
 7671              	.LLST27:
 7672 022d 06       		.byte	0x6
 7673 022e 06000000 		.4byte	.LVL61
 7674 0232 04       		.byte	0x4
 7675 0233 00       		.uleb128 .LVL61-.LVL61
 7676 0234 0E       		.uleb128 .LVL64-.LVL61
 7677 0235 01       		.uleb128 0x1
 7678 0236 55       		.byte	0x55
 7679 0237 04       		.byte	0x4
 7680 0238 14       		.uleb128 .LVL65-.LVL61
 7681 0239 9601     		.uleb128 .LVL75-.LVL61
 7682 023b 01       		.uleb128 0x1
 7683 023c 55       		.byte	0x55
 7684 023d 04       		.byte	0x4
 7685 023e C601     		.uleb128 .LVL81-.LVL61
 7686 0240 8C02     		.uleb128 .LVL87-.LVL61
 7687 0242 01       		.uleb128 0x1
 7688 0243 55       		.byte	0x55
 7689 0244 04       		.byte	0x4
 7690 0245 8C02     		.uleb128 .LVL87-.LVL61
 7691 0247 9202     		.uleb128 .LVL88-.LVL61
 7692 0249 04       		.uleb128 0x4
 7693 024a 75       		.byte	0x75
 7694 024b 8076     		.sleb128 -1280
 7695 024d 9F       		.byte	0x9f
ARM GAS  C:\Users\DEVELO~1\AppData\Local\Temp\ccmc7I4c.s 			page 136


 7696 024e 04       		.byte	0x4
 7697 024f AA05     		.uleb128 .LVL121-.LVL61
 7698 0251 AC06     		.uleb128 .LVL127-.LVL61
 7699 0253 01       		.uleb128 0x1
 7700 0254 55       		.byte	0x55
 7701 0255 04       		.byte	0x4
 7702 0256 AC08     		.uleb128 .LVL142-.LVL61
 7703 0258 BC08     		.uleb128 .LVL145-.LVL61
 7704 025a 01       		.uleb128 0x1
 7705 025b 55       		.byte	0x55
 7706 025c 04       		.byte	0x4
 7707 025d E609     		.uleb128 .LVL155-.LVL61
 7708 025f FC09     		.uleb128 .LVL157-.LVL61
 7709 0261 01       		.uleb128 0x1
 7710 0262 55       		.byte	0x55
 7711 0263 04       		.byte	0x4
 7712 0264 B00C     		.uleb128 .LVL168-.LVL61
 7713 0266 BA0C     		.uleb128 .LVL170-.LVL61
 7714 0268 01       		.uleb128 0x1
 7715 0269 55       		.byte	0x55
 7716 026a 00       		.byte	0
 7717              	.LVUS28:
 7718 026b 01       		.uleb128 .LVU338
 7719 026c 00       		.uleb128 .LVU341
 7720 026d 00       		.uleb128 .LVU341
 7721 026e 00       		.uleb128 .LVU460
 7722 026f 00       		.uleb128 .LVU510
 7723 0270 00       		.uleb128 .LVU560
 7724 0271 00       		.uleb128 .LVU574
 7725 0272 00       		.uleb128 .LVU622
 7726 0273 00       		.uleb128 .LVU630
 7727 0274 00       		.uleb128 .LVU716
 7728 0275 00       		.uleb128 .LVU719
 7729 0276 00       		.uleb128 .LVU735
 7730 0277 00       		.uleb128 .LVU759
 7731 0278 00       		.uleb128 .LVU814
 7732 0279 00       		.uleb128 .LVU828
 7733 027a 00       		.uleb128 0
 7734              	.LLST28:
 7735 027b 06       		.byte	0x6
 7736 027c 02010000 		.4byte	.LVL86
 7737 0280 04       		.byte	0x4
 7738 0281 00       		.uleb128 .LVL86-.LVL86
 7739 0282 16       		.uleb128 .LVL88-.LVL86
 7740 0283 02       		.uleb128 0x2
 7741 0284 30       		.byte	0x30
 7742 0285 9F       		.byte	0x9f
 7743 0286 04       		.byte	0x4
 7744 0287 16       		.uleb128 .LVL88-.LVL86
 7745 0288 A403     		.uleb128 .LVL120-.LVL86
 7746 028a 01       		.uleb128 0x1
 7747 028b 5B       		.byte	0x5b
 7748 028c 04       		.byte	0x4
 7749 028d B004     		.uleb128 .LVL127-.LVL86
 7750 028f 8206     		.uleb128 .LVL140-.LVL86
 7751 0291 01       		.uleb128 0x1
 7752 0292 5B       		.byte	0x5b
ARM GAS  C:\Users\DEVELO~1\AppData\Local\Temp\ccmc7I4c.s 			page 137


 7753 0293 04       		.byte	0x4
 7754 0294 C006     		.uleb128 .LVL145-.LVL86
 7755 0296 EA07     		.uleb128 .LVL155-.LVL86
 7756 0298 01       		.uleb128 0x1
 7757 0299 5B       		.byte	0x5b
 7758 029a 04       		.byte	0x4
 7759 029b 8008     		.uleb128 .LVL157-.LVL86
 7760 029d B40A     		.uleb128 .LVL168-.LVL86
 7761 029f 01       		.uleb128 0x1
 7762 02a0 5B       		.byte	0x5b
 7763 02a1 04       		.byte	0x4
 7764 02a2 BE0A     		.uleb128 .LVL170-.LVL86
 7765 02a4 F20A     		.uleb128 .LVL173-.LVL86
 7766 02a6 01       		.uleb128 0x1
 7767 02a7 5B       		.byte	0x5b
 7768 02a8 04       		.byte	0x4
 7769 02a9 AC0B     		.uleb128 .LVL179-.LVL86
 7770 02ab F40C     		.uleb128 .LVL188-.LVL86
 7771 02ad 01       		.uleb128 0x1
 7772 02ae 5B       		.byte	0x5b
 7773 02af 04       		.byte	0x4
 7774 02b0 940D     		.uleb128 .LVL195-.LVL86
 7775 02b2 AE11     		.uleb128 .LFE148-.LVL86
 7776 02b4 01       		.uleb128 0x1
 7777 02b5 5B       		.byte	0x5b
 7778 02b6 00       		.byte	0
 7779              	.LVUS29:
 7780 02b7 00       		.uleb128 .LVU337
 7781 02b8 00       		.uleb128 .LVU341
 7782 02b9 00       		.uleb128 .LVU341
 7783 02ba 00       		.uleb128 .LVU462
 7784 02bb 00       		.uleb128 .LVU510
 7785 02bc 00       		.uleb128 .LVU560
 7786 02bd 00       		.uleb128 .LVU574
 7787 02be 00       		.uleb128 .LVU622
 7788 02bf 00       		.uleb128 .LVU630
 7789 02c0 00       		.uleb128 .LVU716
 7790 02c1 00       		.uleb128 .LVU719
 7791 02c2 00       		.uleb128 .LVU735
 7792 02c3 00       		.uleb128 .LVU759
 7793 02c4 00       		.uleb128 .LVU814
 7794 02c5 00       		.uleb128 .LVU828
 7795 02c6 00       		.uleb128 0
 7796              	.LLST29:
 7797 02c7 06       		.byte	0x6
 7798 02c8 02010000 		.4byte	.LVL86
 7799 02cc 04       		.byte	0x4
 7800 02cd 00       		.uleb128 .LVL86-.LVL86
 7801 02ce 16       		.uleb128 .LVL88-.LVL86
 7802 02cf 01       		.uleb128 0x1
 7803 02d0 50       		.byte	0x50
 7804 02d1 04       		.byte	0x4
 7805 02d2 16       		.uleb128 .LVL88-.LVL86
 7806 02d3 AE03     		.uleb128 .LVL121-.LVL86
 7807 02d5 01       		.uleb128 0x1
 7808 02d6 58       		.byte	0x58
 7809 02d7 04       		.byte	0x4
ARM GAS  C:\Users\DEVELO~1\AppData\Local\Temp\ccmc7I4c.s 			page 138


 7810 02d8 B004     		.uleb128 .LVL127-.LVL86
 7811 02da 8206     		.uleb128 .LVL140-.LVL86
 7812 02dc 01       		.uleb128 0x1
 7813 02dd 58       		.byte	0x58
 7814 02de 04       		.byte	0x4
 7815 02df C006     		.uleb128 .LVL145-.LVL86
 7816 02e1 EA07     		.uleb128 .LVL155-.LVL86
 7817 02e3 01       		.uleb128 0x1
 7818 02e4 58       		.byte	0x58
 7819 02e5 04       		.byte	0x4
 7820 02e6 8008     		.uleb128 .LVL157-.LVL86
 7821 02e8 B40A     		.uleb128 .LVL168-.LVL86
 7822 02ea 01       		.uleb128 0x1
 7823 02eb 58       		.byte	0x58
 7824 02ec 04       		.byte	0x4
 7825 02ed BE0A     		.uleb128 .LVL170-.LVL86
 7826 02ef F20A     		.uleb128 .LVL173-.LVL86
 7827 02f1 01       		.uleb128 0x1
 7828 02f2 58       		.byte	0x58
 7829 02f3 04       		.byte	0x4
 7830 02f4 AC0B     		.uleb128 .LVL179-.LVL86
 7831 02f6 F40C     		.uleb128 .LVL188-.LVL86
 7832 02f8 01       		.uleb128 0x1
 7833 02f9 58       		.byte	0x58
 7834 02fa 04       		.byte	0x4
 7835 02fb 940D     		.uleb128 .LVL195-.LVL86
 7836 02fd AE11     		.uleb128 .LFE148-.LVL86
 7837 02ff 01       		.uleb128 0x1
 7838 0300 58       		.byte	0x58
 7839 0301 00       		.byte	0
 7840              	.LVUS31:
 7841 0302 01       		.uleb128 .LVU300
 7842 0303 00       		.uleb128 .LVU319
 7843 0304 00       		.uleb128 .LVU560
 7844 0305 00       		.uleb128 .LVU571
 7845 0306 00       		.uleb128 .LVU735
 7846 0307 00       		.uleb128 .LVU759
 7847 0308 00       		.uleb128 .LVU814
 7848 0309 00       		.uleb128 .LVU828
 7849              	.LLST31:
 7850 030a 06       		.byte	0x6
 7851 030b AE000000 		.4byte	.LVL77
 7852 030f 04       		.byte	0x4
 7853 0310 00       		.uleb128 .LVL77-.LVL77
 7854 0311 14       		.uleb128 .LVL80-.LVL77
 7855 0312 01       		.uleb128 0x1
 7856 0313 54       		.byte	0x54
 7857 0314 04       		.byte	0x4
 7858 0315 D606     		.uleb128 .LVL140-.LVL77
 7859 0317 8407     		.uleb128 .LVL142-.LVL77
 7860 0319 01       		.uleb128 0x1
 7861 031a 54       		.byte	0x54
 7862 031b 04       		.byte	0x4
 7863 031c C60B     		.uleb128 .LVL173-.LVL77
 7864 031e 800C     		.uleb128 .LVL179-.LVL77
 7865 0320 01       		.uleb128 0x1
 7866 0321 54       		.byte	0x54
ARM GAS  C:\Users\DEVELO~1\AppData\Local\Temp\ccmc7I4c.s 			page 139


 7867 0322 04       		.byte	0x4
 7868 0323 C80D     		.uleb128 .LVL188-.LVL77
 7869 0325 E80D     		.uleb128 .LVL195-.LVL77
 7870 0327 01       		.uleb128 0x1
 7871 0328 54       		.byte	0x54
 7872 0329 00       		.byte	0
 7873              	.LVUS32:
 7874 032a 03       		.uleb128 .LVU302
 7875 032b 00       		.uleb128 .LVU319
 7876 032c 00       		.uleb128 .LVU560
 7877 032d 00       		.uleb128 .LVU571
 7878 032e 00       		.uleb128 .LVU735
 7879 032f 00       		.uleb128 .LVU741
 7880 0330 00       		.uleb128 .LVU741
 7881 0331 00       		.uleb128 .LVU758
 7882 0332 00       		.uleb128 .LVU814
 7883 0333 00       		.uleb128 .LVU828
 7884              	.LLST32:
 7885 0334 06       		.byte	0x6
 7886 0335 AE000000 		.4byte	.LVL77
 7887 0339 04       		.byte	0x4
 7888 033a 00       		.uleb128 .LVL77-.LVL77
 7889 033b 14       		.uleb128 .LVL80-.LVL77
 7890 033c 01       		.uleb128 0x1
 7891 033d 55       		.byte	0x55
 7892 033e 04       		.byte	0x4
 7893 033f D606     		.uleb128 .LVL140-.LVL77
 7894 0341 8407     		.uleb128 .LVL142-.LVL77
 7895 0343 01       		.uleb128 0x1
 7896 0344 55       		.byte	0x55
 7897 0345 04       		.byte	0x4
 7898 0346 C60B     		.uleb128 .LVL173-.LVL77
 7899 0348 D60B     		.uleb128 .LVL175-.LVL77
 7900 034a 01       		.uleb128 0x1
 7901 034b 55       		.byte	0x55
 7902 034c 04       		.byte	0x4
 7903 034d D60B     		.uleb128 .LVL175-.LVL77
 7904 034f FE0B     		.uleb128 .LVL178-.LVL77
 7905 0351 04       		.uleb128 0x4
 7906 0352 75       		.byte	0x75
 7907 0353 8076     		.sleb128 -1280
 7908 0355 9F       		.byte	0x9f
 7909 0356 04       		.byte	0x4
 7910 0357 C80D     		.uleb128 .LVL188-.LVL77
 7911 0359 E80D     		.uleb128 .LVL195-.LVL77
 7912 035b 04       		.uleb128 0x4
 7913 035c 75       		.byte	0x75
 7914 035d 8076     		.sleb128 -1280
 7915 035f 9F       		.byte	0x9f
 7916 0360 00       		.byte	0
 7917              	.LVUS33:
 7918 0361 04       		.uleb128 .LVU303
 7919 0362 00       		.uleb128 .LVU319
 7920 0363 00       		.uleb128 .LVU560
 7921 0364 00       		.uleb128 .LVU571
 7922 0365 00       		.uleb128 .LVU735
 7923 0366 00       		.uleb128 .LVU741
ARM GAS  C:\Users\DEVELO~1\AppData\Local\Temp\ccmc7I4c.s 			page 140


 7924 0367 00       		.uleb128 .LVU741
 7925 0368 00       		.uleb128 .LVU758
 7926 0369 00       		.uleb128 .LVU814
 7927 036a 00       		.uleb128 .LVU828
 7928              	.LLST33:
 7929 036b 06       		.byte	0x6
 7930 036c AE000000 		.4byte	.LVL77
 7931 0370 04       		.byte	0x4
 7932 0371 00       		.uleb128 .LVL77-.LVL77
 7933 0372 14       		.uleb128 .LVL80-.LVL77
 7934 0373 01       		.uleb128 0x1
 7935 0374 55       		.byte	0x55
 7936 0375 04       		.byte	0x4
 7937 0376 D606     		.uleb128 .LVL140-.LVL77
 7938 0378 8407     		.uleb128 .LVL142-.LVL77
 7939 037a 01       		.uleb128 0x1
 7940 037b 55       		.byte	0x55
 7941 037c 04       		.byte	0x4
 7942 037d C60B     		.uleb128 .LVL173-.LVL77
 7943 037f D60B     		.uleb128 .LVL175-.LVL77
 7944 0381 01       		.uleb128 0x1
 7945 0382 55       		.byte	0x55
 7946 0383 04       		.byte	0x4
 7947 0384 D60B     		.uleb128 .LVL175-.LVL77
 7948 0386 FE0B     		.uleb128 .LVL178-.LVL77
 7949 0388 04       		.uleb128 0x4
 7950 0389 75       		.byte	0x75
 7951 038a 8076     		.sleb128 -1280
 7952 038c 9F       		.byte	0x9f
 7953 038d 04       		.byte	0x4
 7954 038e C80D     		.uleb128 .LVL188-.LVL77
 7955 0390 E80D     		.uleb128 .LVL195-.LVL77
 7956 0392 04       		.uleb128 0x4
 7957 0393 75       		.byte	0x75
 7958 0394 8076     		.sleb128 -1280
 7959 0396 9F       		.byte	0x9f
 7960 0397 00       		.byte	0
 7961              	.LVUS34:
 7962 0398 02       		.uleb128 .LVU313
 7963 0399 00       		.uleb128 .LVU319
 7964 039a 00       		.uleb128 .LVU560
 7965 039b 00       		.uleb128 .LVU562
 7966              	.LLST34:
 7967 039c 06       		.byte	0x6
 7968 039d B0000000 		.4byte	.LVL78
 7969 03a1 04       		.byte	0x4
 7970 03a2 00       		.uleb128 .LVL78-.LVL78
 7971 03a3 12       		.uleb128 .LVL80-.LVL78
 7972 03a4 07       		.uleb128 0x7
 7973 03a5 76       		.byte	0x76
 7974 03a6 00       		.sleb128 0
 7975 03a7 41       		.byte	0x41
 7976 03a8 25       		.byte	0x25
 7977 03a9 3F       		.byte	0x3f
 7978 03aa 1A       		.byte	0x1a
 7979 03ab 9F       		.byte	0x9f
 7980 03ac 04       		.byte	0x4
ARM GAS  C:\Users\DEVELO~1\AppData\Local\Temp\ccmc7I4c.s 			page 141


 7981 03ad D406     		.uleb128 .LVL140-.LVL78
 7982 03af D806     		.uleb128 .LVL141-.LVL78
 7983 03b1 07       		.uleb128 0x7
 7984 03b2 76       		.byte	0x76
 7985 03b3 00       		.sleb128 0
 7986 03b4 41       		.byte	0x41
 7987 03b5 25       		.byte	0x25
 7988 03b6 3F       		.byte	0x3f
 7989 03b7 1A       		.byte	0x1a
 7990 03b8 9F       		.byte	0x9f
 7991 03b9 00       		.byte	0
 7992              	.LVUS35:
 7993 03ba 00       		.uleb128 .LVU316
 7994 03bb 00       		.uleb128 .LVU319
 7995 03bc 00       		.uleb128 .LVU560
 7996 03bd 00       		.uleb128 .LVU571
 7997 03be 00       		.uleb128 .LVU735
 7998 03bf 00       		.uleb128 .LVU759
 7999 03c0 00       		.uleb128 .LVU814
 8000 03c1 00       		.uleb128 .LVU828
 8001              	.LLST35:
 8002 03c2 06       		.byte	0x6
 8003 03c3 B8000000 		.4byte	.LVL79
 8004 03c7 04       		.byte	0x4
 8005 03c8 00       		.uleb128 .LVL79-.LVL79
 8006 03c9 0A       		.uleb128 .LVL80-.LVL79
 8007 03ca 01       		.uleb128 0x1
 8008 03cb 57       		.byte	0x57
 8009 03cc 04       		.byte	0x4
 8010 03cd CC06     		.uleb128 .LVL140-.LVL79
 8011 03cf FA06     		.uleb128 .LVL142-.LVL79
 8012 03d1 01       		.uleb128 0x1
 8013 03d2 57       		.byte	0x57
 8014 03d3 04       		.byte	0x4
 8015 03d4 BC0B     		.uleb128 .LVL173-.LVL79
 8016 03d6 F60B     		.uleb128 .LVL179-.LVL79
 8017 03d8 01       		.uleb128 0x1
 8018 03d9 57       		.byte	0x57
 8019 03da 04       		.byte	0x4
 8020 03db BE0D     		.uleb128 .LVL188-.LVL79
 8021 03dd DE0D     		.uleb128 .LVL195-.LVL79
 8022 03df 01       		.uleb128 0x1
 8023 03e0 57       		.byte	0x57
 8024 03e1 00       		.byte	0
 8025              	.LVUS36:
 8026 03e2 00       		.uleb128 .LVU311
 8027 03e3 00       		.uleb128 .LVU319
 8028 03e4 00       		.uleb128 .LVU560
 8029 03e5 00       		.uleb128 .LVU562
 8030              	.LLST36:
 8031 03e6 06       		.byte	0x6
 8032 03e7 B0000000 		.4byte	.LVL78
 8033 03eb 04       		.byte	0x4
 8034 03ec 00       		.uleb128 .LVL78-.LVL78
 8035 03ed 12       		.uleb128 .LVL80-.LVL78
 8036 03ee 01       		.uleb128 0x1
 8037 03ef 56       		.byte	0x56
ARM GAS  C:\Users\DEVELO~1\AppData\Local\Temp\ccmc7I4c.s 			page 142


 8038 03f0 04       		.byte	0x4
 8039 03f1 D406     		.uleb128 .LVL140-.LVL78
 8040 03f3 D806     		.uleb128 .LVL141-.LVL78
 8041 03f5 01       		.uleb128 0x1
 8042 03f6 56       		.byte	0x56
 8043 03f7 00       		.byte	0
 8044              	.LVUS37:
 8045 03f8 01       		.uleb128 .LVU750
 8046 03f9 00       		.uleb128 .LVU753
 8047              	.LLST37:
 8048 03fa 08       		.byte	0x8
 8049 03fb 9A060000 		.4byte	.LVL176
 8050 03ff 06       		.uleb128 .LVL177-.LVL176
 8051 0400 09       		.uleb128 0x9
 8052 0401 73       		.byte	0x73
 8053 0402 00       		.sleb128 0
 8054 0403 43       		.byte	0x43
 8055 0404 25       		.byte	0x25
 8056 0405 0A       		.byte	0xa
 8057 0406 FF03     		.2byte	0x3ff
 8058 0408 1A       		.byte	0x1a
 8059 0409 9F       		.byte	0x9f
 8060 040a 00       		.byte	0
 8061              	.LVUS38:
 8062 040b 00       		.uleb128 .LVU817
 8063 040c 00       		.uleb128 .LVU825
 8064 040d 00       		.uleb128 .LVU825
 8065 040e 00       		.uleb128 .LVU826
 8066 040f 00       		.uleb128 .LVU826
 8067 0410 00       		.uleb128 .LVU827
 8068              	.LLST38:
 8069 0411 06       		.byte	0x6
 8070 0412 78070000 		.4byte	.LVL189
 8071 0416 04       		.byte	0x4
 8072 0417 00       		.uleb128 .LVL189-.LVL189
 8073 0418 0C       		.uleb128 .LVL192-.LVL189
 8074 0419 01       		.uleb128 0x1
 8075 041a 53       		.byte	0x53
 8076 041b 04       		.byte	0x4
 8077 041c 0C       		.uleb128 .LVL192-.LVL189
 8078 041d 14       		.uleb128 .LVL193-.LVL189
 8079 041e 05       		.uleb128 0x5
 8080 041f 75       		.byte	0x75
 8081 0420 00       		.sleb128 0
 8082 0421 72       		.byte	0x72
 8083 0422 00       		.sleb128 0
 8084 0423 22       		.byte	0x22
 8085 0424 04       		.byte	0x4
 8086 0425 14       		.uleb128 .LVL193-.LVL189
 8087 0426 1C       		.uleb128 .LVL194-.LVL189
 8088 0427 07       		.uleb128 0x7
 8089 0428 76       		.byte	0x76
 8090 0429 00       		.sleb128 0
 8091 042a 35       		.byte	0x35
 8092 042b 24       		.byte	0x24
 8093 042c 75       		.byte	0x75
 8094 042d 00       		.sleb128 0
ARM GAS  C:\Users\DEVELO~1\AppData\Local\Temp\ccmc7I4c.s 			page 143


 8095 042e 22       		.byte	0x22
 8096 042f 00       		.byte	0
 8097              	.LVUS39:
 8098 0430 01       		.uleb128 .LVU312
 8099 0431 00       		.uleb128 .LVU319
 8100 0432 00       		.uleb128 .LVU560
 8101 0433 00       		.uleb128 .LVU562
 8102              	.LLST39:
 8103 0434 06       		.byte	0x6
 8104 0435 B0000000 		.4byte	.LVL78
 8105 0439 04       		.byte	0x4
 8106 043a 00       		.uleb128 .LVL78-.LVL78
 8107 043b 12       		.uleb128 .LVL80-.LVL78
 8108 043c 05       		.uleb128 0x5
 8109 043d 76       		.byte	0x76
 8110 043e 00       		.sleb128 0
 8111 043f 3F       		.byte	0x3f
 8112 0440 1A       		.byte	0x1a
 8113 0441 9F       		.byte	0x9f
 8114 0442 04       		.byte	0x4
 8115 0443 D406     		.uleb128 .LVL140-.LVL78
 8116 0445 D806     		.uleb128 .LVL141-.LVL78
 8117 0447 05       		.uleb128 0x5
 8118 0448 76       		.byte	0x76
 8119 0449 00       		.sleb128 0
 8120 044a 3F       		.byte	0x3f
 8121 044b 1A       		.byte	0x1a
 8122 044c 9F       		.byte	0x9f
 8123 044d 00       		.byte	0
 8124              	.LVUS41:
 8125 044e 00       		.uleb128 .LVU680
 8126 044f 00       		.uleb128 .LVU686
 8127 0450 00       		.uleb128 .LVU861
 8128 0451 00       		.uleb128 .LVU867
 8129              	.LLST41:
 8130 0452 06       		.byte	0x6
 8131 0453 C2050000 		.4byte	.LVL164
 8132 0457 04       		.byte	0x4
 8133 0458 00       		.uleb128 .LVL164-.LVL164
 8134 0459 0E       		.uleb128 .LVL167-.LVL164
 8135 045a 01       		.uleb128 0x1
 8136 045b 53       		.byte	0x53
 8137 045c 04       		.byte	0x4
 8138 045d B404     		.uleb128 .LVL199-.LVL164
 8139 045f C004     		.uleb128 .LVL202-.LVL164
 8140 0461 01       		.uleb128 0x1
 8141 0462 53       		.byte	0x53
 8142 0463 00       		.byte	0
 8143              	.LVUS42:
 8144 0464 00       		.uleb128 .LVU958
 8145 0465 00       		.uleb128 .LVU960
 8146 0466 00       		.uleb128 .LVU960
 8147 0467 00       		.uleb128 .LVU963
 8148 0468 00       		.uleb128 .LVU963
 8149 0469 00       		.uleb128 .LVU964
 8150              	.LLST42:
 8151 046a 06       		.byte	0x6
ARM GAS  C:\Users\DEVELO~1\AppData\Local\Temp\ccmc7I4c.s 			page 144


 8152 046b 40090000 		.4byte	.LVL219
 8153 046f 04       		.byte	0x4
 8154 0470 00       		.uleb128 .LVL219-.LVL219
 8155 0471 02       		.uleb128 .LVL220-.LVL219
 8156 0472 11       		.uleb128 0x11
 8157 0473 72       		.byte	0x72
 8158 0474 00       		.sleb128 0
 8159 0475 73       		.byte	0x73
 8160 0476 00       		.sleb128 0
 8161 0477 22       		.byte	0x22
 8162 0478 31       		.byte	0x31
 8163 0479 1C       		.byte	0x1c
 8164 047a A8       		.byte	0xa8
 8165 047b 26       		.uleb128 0x26
 8166 047c 72       		.byte	0x72
 8167 047d 00       		.sleb128 0
 8168 047e A8       		.byte	0xa8
 8169 047f 26       		.uleb128 0x26
 8170 0480 1B       		.byte	0x1b
 8171 0481 A8       		.byte	0xa8
 8172 0482 00       		.uleb128 0
 8173 0483 9F       		.byte	0x9f
 8174 0484 04       		.byte	0x4
 8175 0485 02       		.uleb128 .LVL220-.LVL219
 8176 0486 0A       		.uleb128 .LVL221-.LVL219
 8177 0487 12       		.uleb128 0x12
 8178 0488 76       		.byte	0x76
 8179 0489 34       		.sleb128 52
 8180 048a 06       		.byte	0x6
 8181 048b 72       		.byte	0x72
 8182 048c 00       		.sleb128 0
 8183 048d 22       		.byte	0x22
 8184 048e 31       		.byte	0x31
 8185 048f 1C       		.byte	0x1c
 8186 0490 A8       		.byte	0xa8
 8187 0491 26       		.uleb128 0x26
 8188 0492 72       		.byte	0x72
 8189 0493 00       		.sleb128 0
 8190 0494 A8       		.byte	0xa8
 8191 0495 26       		.uleb128 0x26
 8192 0496 1B       		.byte	0x1b
 8193 0497 A8       		.byte	0xa8
 8194 0498 00       		.uleb128 0
 8195 0499 9F       		.byte	0x9f
 8196 049a 04       		.byte	0x4
 8197 049b 0A       		.uleb128 .LVL221-.LVL219
 8198 049c 0E       		.uleb128 .LVL222-.LVL219
 8199 049d 1E       		.uleb128 0x1e
 8200 049e 76       		.byte	0x76
 8201 049f 28       		.sleb128 40
 8202 04a0 94       		.byte	0x94
 8203 04a1 02       		.byte	0x2
 8204 04a2 0A       		.byte	0xa
 8205 04a3 FFFF     		.2byte	0xffff
 8206 04a5 1A       		.byte	0x1a
 8207 04a6 76       		.byte	0x76
 8208 04a7 34       		.sleb128 52
ARM GAS  C:\Users\DEVELO~1\AppData\Local\Temp\ccmc7I4c.s 			page 145


 8209 04a8 06       		.byte	0x6
 8210 04a9 22       		.byte	0x22
 8211 04aa 31       		.byte	0x31
 8212 04ab 1C       		.byte	0x1c
 8213 04ac A8       		.byte	0xa8
 8214 04ad 26       		.uleb128 0x26
 8215 04ae 76       		.byte	0x76
 8216 04af 28       		.sleb128 40
 8217 04b0 94       		.byte	0x94
 8218 04b1 02       		.byte	0x2
 8219 04b2 0A       		.byte	0xa
 8220 04b3 FFFF     		.2byte	0xffff
 8221 04b5 1A       		.byte	0x1a
 8222 04b6 A8       		.byte	0xa8
 8223 04b7 26       		.uleb128 0x26
 8224 04b8 1B       		.byte	0x1b
 8225 04b9 A8       		.byte	0xa8
 8226 04ba 00       		.uleb128 0
 8227 04bb 9F       		.byte	0x9f
 8228 04bc 00       		.byte	0
 8229              	.LVUS44:
 8230 04bd 00       		.uleb128 .LVU341
 8231 04be 00       		.uleb128 .LVU344
 8232 04bf 00       		.uleb128 .LVU344
 8233 04c0 01       		.uleb128 .LVU347
 8234 04c1 01       		.uleb128 .LVU347
 8235 04c2 00       		.uleb128 .LVU360
 8236 04c3 00       		.uleb128 .LVU371
 8237 04c4 00       		.uleb128 .LVU382
 8238 04c5 00       		.uleb128 .LVU382
 8239 04c6 00       		.uleb128 .LVU389
 8240 04c7 00       		.uleb128 .LVU389
 8241 04c8 00       		.uleb128 .LVU391
 8242 04c9 00       		.uleb128 .LVU391
 8243 04ca 00       		.uleb128 .LVU394
 8244 04cb 00       		.uleb128 .LVU394
 8245 04cc 00       		.uleb128 .LVU401
 8246 04cd 00       		.uleb128 .LVU401
 8247 04ce 00       		.uleb128 .LVU403
 8248 04cf 00       		.uleb128 .LVU403
 8249 04d0 00       		.uleb128 .LVU460
 8250 04d1 00       		.uleb128 .LVU510
 8251 04d2 00       		.uleb128 .LVU560
 8252 04d3 00       		.uleb128 .LVU574
 8253 04d4 00       		.uleb128 .LVU622
 8254 04d5 00       		.uleb128 .LVU630
 8255 04d6 00       		.uleb128 .LVU716
 8256 04d7 00       		.uleb128 .LVU719
 8257 04d8 00       		.uleb128 .LVU735
 8258 04d9 00       		.uleb128 .LVU759
 8259 04da 00       		.uleb128 .LVU814
 8260 04db 00       		.uleb128 .LVU828
 8261 04dc 00       		.uleb128 0
 8262              	.LLST44:
 8263 04dd 06       		.byte	0x6
 8264 04de 18010000 		.4byte	.LVL88
 8265 04e2 04       		.byte	0x4
ARM GAS  C:\Users\DEVELO~1\AppData\Local\Temp\ccmc7I4c.s 			page 146


 8266 04e3 00       		.uleb128 .LVL88-.LVL88
 8267 04e4 03       		.uleb128 .LVL89-1-.LVL88
 8268 04e5 01       		.uleb128 0x1
 8269 04e6 51       		.byte	0x51
 8270 04e7 04       		.byte	0x4
 8271 04e8 03       		.uleb128 .LVL89-1-.LVL88
 8272 04e9 16       		.uleb128 .LVL90-.LVL88
 8273 04ea 02       		.uleb128 0x2
 8274 04eb 7D       		.byte	0x7d
 8275 04ec 00       		.sleb128 0
 8276 04ed 04       		.byte	0x4
 8277 04ee 16       		.uleb128 .LVL90-.LVL88
 8278 04ef 46       		.uleb128 .LVL96-.LVL88
 8279 04f0 01       		.uleb128 0x1
 8280 04f1 5B       		.byte	0x5b
 8281 04f2 04       		.byte	0x4
 8282 04f3 68       		.uleb128 .LVL99-.LVL88
 8283 04f4 79       		.uleb128 .LVL101-1-.LVL88
 8284 04f5 01       		.uleb128 0x1
 8285 04f6 51       		.byte	0x51
 8286 04f7 04       		.byte	0x4
 8287 04f8 79       		.uleb128 .LVL101-1-.LVL88
 8288 04f9 9201     		.uleb128 .LVL104-.LVL88
 8289 04fb 02       		.uleb128 0x2
 8290 04fc 7D       		.byte	0x7d
 8291 04fd 00       		.sleb128 0
 8292 04fe 04       		.byte	0x4
 8293 04ff 9201     		.uleb128 .LVL104-.LVL88
 8294 0501 9A01     		.uleb128 .LVL106-.LVL88
 8295 0503 01       		.uleb128 0x1
 8296 0504 5B       		.byte	0x5b
 8297 0505 04       		.byte	0x4
 8298 0506 9A01     		.uleb128 .LVL106-.LVL88
 8299 0508 9E01     		.uleb128 .LVL107-.LVL88
 8300 050a 02       		.uleb128 0x2
 8301 050b 7D       		.byte	0x7d
 8302 050c 00       		.sleb128 0
 8303 050d 04       		.byte	0x4
 8304 050e 9E01     		.uleb128 .LVL107-.LVL88
 8305 0510 C801     		.uleb128 .LVL110-.LVL88
 8306 0512 01       		.uleb128 0x1
 8307 0513 5B       		.byte	0x5b
 8308 0514 04       		.byte	0x4
 8309 0515 C801     		.uleb128 .LVL110-.LVL88
 8310 0517 CE01     		.uleb128 .LVL111-.LVL88
 8311 0519 02       		.uleb128 0x2
 8312 051a 7D       		.byte	0x7d
 8313 051b 00       		.sleb128 0
 8314 051c 04       		.byte	0x4
 8315 051d CE01     		.uleb128 .LVL111-.LVL88
 8316 051f 8E03     		.uleb128 .LVL120-.LVL88
 8317 0521 01       		.uleb128 0x1
 8318 0522 5B       		.byte	0x5b
 8319 0523 04       		.byte	0x4
 8320 0524 9A04     		.uleb128 .LVL127-.LVL88
 8321 0526 EC05     		.uleb128 .LVL140-.LVL88
 8322 0528 01       		.uleb128 0x1
ARM GAS  C:\Users\DEVELO~1\AppData\Local\Temp\ccmc7I4c.s 			page 147


 8323 0529 5B       		.byte	0x5b
 8324 052a 04       		.byte	0x4
 8325 052b AA06     		.uleb128 .LVL145-.LVL88
 8326 052d D407     		.uleb128 .LVL155-.LVL88
 8327 052f 01       		.uleb128 0x1
 8328 0530 5B       		.byte	0x5b
 8329 0531 04       		.byte	0x4
 8330 0532 EA07     		.uleb128 .LVL157-.LVL88
 8331 0534 9E0A     		.uleb128 .LVL168-.LVL88
 8332 0536 01       		.uleb128 0x1
 8333 0537 5B       		.byte	0x5b
 8334 0538 04       		.byte	0x4
 8335 0539 A80A     		.uleb128 .LVL170-.LVL88
 8336 053b DC0A     		.uleb128 .LVL173-.LVL88
 8337 053d 01       		.uleb128 0x1
 8338 053e 5B       		.byte	0x5b
 8339 053f 04       		.byte	0x4
 8340 0540 960B     		.uleb128 .LVL179-.LVL88
 8341 0542 DE0C     		.uleb128 .LVL188-.LVL88
 8342 0544 01       		.uleb128 0x1
 8343 0545 5B       		.byte	0x5b
 8344 0546 04       		.byte	0x4
 8345 0547 FE0C     		.uleb128 .LVL195-.LVL88
 8346 0549 9811     		.uleb128 .LFE148-.LVL88
 8347 054b 01       		.uleb128 0x1
 8348 054c 5B       		.byte	0x5b
 8349 054d 00       		.byte	0
 8350              	.LVUS45:
 8351 054e 00       		.uleb128 .LVU341
 8352 054f 00       		.uleb128 .LVU360
 8353 0550 00       		.uleb128 .LVU371
 8354 0551 00       		.uleb128 .LVU460
 8355 0552 00       		.uleb128 .LVU510
 8356 0553 00       		.uleb128 .LVU560
 8357 0554 00       		.uleb128 .LVU574
 8358 0555 00       		.uleb128 .LVU622
 8359 0556 00       		.uleb128 .LVU630
 8360 0557 00       		.uleb128 .LVU716
 8361 0558 00       		.uleb128 .LVU719
 8362 0559 00       		.uleb128 .LVU735
 8363 055a 00       		.uleb128 .LVU759
 8364 055b 00       		.uleb128 .LVU814
 8365 055c 00       		.uleb128 .LVU828
 8366 055d 00       		.uleb128 0
 8367              	.LLST45:
 8368 055e 06       		.byte	0x6
 8369 055f 18010000 		.4byte	.LVL88
 8370 0563 04       		.byte	0x4
 8371 0564 00       		.uleb128 .LVL88-.LVL88
 8372 0565 46       		.uleb128 .LVL96-.LVL88
 8373 0566 01       		.uleb128 0x1
 8374 0567 54       		.byte	0x54
 8375 0568 04       		.byte	0x4
 8376 0569 68       		.uleb128 .LVL99-.LVL88
 8377 056a 8E03     		.uleb128 .LVL120-.LVL88
 8378 056c 01       		.uleb128 0x1
 8379 056d 54       		.byte	0x54
ARM GAS  C:\Users\DEVELO~1\AppData\Local\Temp\ccmc7I4c.s 			page 148


 8380 056e 04       		.byte	0x4
 8381 056f 9A04     		.uleb128 .LVL127-.LVL88
 8382 0571 EC05     		.uleb128 .LVL140-.LVL88
 8383 0573 01       		.uleb128 0x1
 8384 0574 54       		.byte	0x54
 8385 0575 04       		.byte	0x4
 8386 0576 AA06     		.uleb128 .LVL145-.LVL88
 8387 0578 D407     		.uleb128 .LVL155-.LVL88
 8388 057a 01       		.uleb128 0x1
 8389 057b 54       		.byte	0x54
 8390 057c 04       		.byte	0x4
 8391 057d EA07     		.uleb128 .LVL157-.LVL88
 8392 057f 9E0A     		.uleb128 .LVL168-.LVL88
 8393 0581 01       		.uleb128 0x1
 8394 0582 54       		.byte	0x54
 8395 0583 04       		.byte	0x4
 8396 0584 A80A     		.uleb128 .LVL170-.LVL88
 8397 0586 DC0A     		.uleb128 .LVL173-.LVL88
 8398 0588 01       		.uleb128 0x1
 8399 0589 54       		.byte	0x54
 8400 058a 04       		.byte	0x4
 8401 058b 960B     		.uleb128 .LVL179-.LVL88
 8402 058d DE0C     		.uleb128 .LVL188-.LVL88
 8403 058f 01       		.uleb128 0x1
 8404 0590 54       		.byte	0x54
 8405 0591 04       		.byte	0x4
 8406 0592 FE0C     		.uleb128 .LVL195-.LVL88
 8407 0594 9811     		.uleb128 .LFE148-.LVL88
 8408 0596 01       		.uleb128 0x1
 8409 0597 54       		.byte	0x54
 8410 0598 00       		.byte	0
 8411              	.LVUS46:
 8412 0599 00       		.uleb128 .LVU341
 8413 059a 00       		.uleb128 .LVU344
 8414 059b 00       		.uleb128 .LVU344
 8415 059c 00       		.uleb128 .LVU357
 8416 059d 00       		.uleb128 .LVU357
 8417 059e 00       		.uleb128 .LVU359
 8418 059f 00       		.uleb128 .LVU375
 8419 05a0 00       		.uleb128 .LVU384
 8420 05a1 00       		.uleb128 .LVU384
 8421 05a2 00       		.uleb128 .LVU386
 8422 05a3 00       		.uleb128 .LVU391
 8423 05a4 00       		.uleb128 .LVU406
 8424 05a5 00       		.uleb128 .LVU406
 8425 05a6 00       		.uleb128 .LVU409
 8426 05a7 00       		.uleb128 .LVU425
 8427 05a8 00       		.uleb128 .LVU431
 8428 05a9 00       		.uleb128 .LVU431
 8429 05aa 00       		.uleb128 .LVU455
 8430 05ab 00       		.uleb128 .LVU510
 8431 05ac 00       		.uleb128 .LVU549
 8432 05ad 00       		.uleb128 .LVU555
 8433 05ae 00       		.uleb128 .LVU557
 8434 05af 00       		.uleb128 .LVU574
 8435 05b0 00       		.uleb128 .LVU600
 8436 05b1 00       		.uleb128 .LVU600
ARM GAS  C:\Users\DEVELO~1\AppData\Local\Temp\ccmc7I4c.s 			page 149


 8437 05b2 00       		.uleb128 .LVU605
 8438 05b3 00       		.uleb128 .LVU617
 8439 05b4 00       		.uleb128 .LVU622
 8440 05b5 00       		.uleb128 .LVU630
 8441 05b6 00       		.uleb128 .LVU635
 8442 05b7 00       		.uleb128 .LVU635
 8443 05b8 00       		.uleb128 .LVU652
 8444 05b9 00       		.uleb128 .LVU660
 8445 05ba 00       		.uleb128 .LVU677
 8446 05bb 00       		.uleb128 .LVU686
 8447 05bc 00       		.uleb128 .LVU716
 8448 05bd 00       		.uleb128 .LVU719
 8449 05be 00       		.uleb128 .LVU735
 8450 05bf 00       		.uleb128 .LVU759
 8451 05c0 00       		.uleb128 .LVU779
 8452 05c1 00       		.uleb128 .LVU779
 8453 05c2 00       		.uleb128 .LVU784
 8454 05c3 00       		.uleb128 .LVU784
 8455 05c4 00       		.uleb128 .LVU814
 8456 05c5 00       		.uleb128 .LVU828
 8457 05c6 00       		.uleb128 .LVU858
 8458 05c7 00       		.uleb128 .LVU858
 8459 05c8 00       		.uleb128 .LVU867
 8460 05c9 00       		.uleb128 .LVU868
 8461 05ca 00       		.uleb128 .LVU896
 8462 05cb 00       		.uleb128 .LVU898
 8463 05cc 00       		.uleb128 .LVU905
 8464 05cd 00       		.uleb128 .LVU905
 8465 05ce 00       		.uleb128 .LVU909
 8466 05cf 00       		.uleb128 .LVU909
 8467 05d0 00       		.uleb128 .LVU917
 8468 05d1 00       		.uleb128 .LVU917
 8469 05d2 00       		.uleb128 .LVU918
 8470 05d3 00       		.uleb128 .LVU918
 8471 05d4 00       		.uleb128 .LVU920
 8472 05d5 00       		.uleb128 .LVU920
 8473 05d6 00       		.uleb128 .LVU923
 8474 05d7 00       		.uleb128 .LVU923
 8475 05d8 00       		.uleb128 .LVU935
 8476 05d9 00       		.uleb128 .LVU935
 8477 05da 00       		.uleb128 0
 8478              	.LLST46:
 8479 05db 06       		.byte	0x6
 8480 05dc 18010000 		.4byte	.LVL88
 8481 05e0 04       		.byte	0x4
 8482 05e1 00       		.uleb128 .LVL88-.LVL88
 8483 05e2 03       		.uleb128 .LVL89-1-.LVL88
 8484 05e3 01       		.uleb128 0x1
 8485 05e4 50       		.byte	0x50
 8486 05e5 04       		.byte	0x4
 8487 05e6 03       		.uleb128 .LVL89-1-.LVL88
 8488 05e7 38       		.uleb128 .LVL93-.LVL88
 8489 05e8 01       		.uleb128 0x1
 8490 05e9 57       		.byte	0x57
 8491 05ea 04       		.byte	0x4
 8492 05eb 38       		.uleb128 .LVL93-.LVL88
 8493 05ec 44       		.uleb128 .LVL95-.LVL88
ARM GAS  C:\Users\DEVELO~1\AppData\Local\Temp\ccmc7I4c.s 			page 150


 8494 05ed 04       		.uleb128 0x4
 8495 05ee 77       		.byte	0x77
 8496 05ef 8076     		.sleb128 -1280
 8497 05f1 9F       		.byte	0x9f
 8498 05f2 04       		.byte	0x4
 8499 05f3 6A       		.uleb128 .LVL100-.LVL88
 8500 05f4 8601     		.uleb128 .LVL102-.LVL88
 8501 05f6 01       		.uleb128 0x1
 8502 05f7 57       		.byte	0x57
 8503 05f8 04       		.byte	0x4
 8504 05f9 8601     		.uleb128 .LVL102-.LVL88
 8505 05fb 8A01     		.uleb128 .LVL103-.LVL88
 8506 05fd 04       		.uleb128 0x4
 8507 05fe 77       		.byte	0x77
 8508 05ff 8076     		.sleb128 -1280
 8509 0601 9F       		.byte	0x9f
 8510 0602 04       		.byte	0x4
 8511 0603 9A01     		.uleb128 .LVL106-.LVL88
 8512 0605 E001     		.uleb128 .LVL113-.LVL88
 8513 0607 01       		.uleb128 0x1
 8514 0608 57       		.byte	0x57
 8515 0609 04       		.byte	0x4
 8516 060a E001     		.uleb128 .LVL113-.LVL88
 8517 060c E601     		.uleb128 .LVL114-.LVL88
 8518 060e 04       		.uleb128 0x4
 8519 060f 77       		.byte	0x77
 8520 0610 8076     		.sleb128 -1280
 8521 0612 9F       		.byte	0x9f
 8522 0613 04       		.byte	0x4
 8523 0614 9802     		.uleb128 .LVL116-.LVL88
 8524 0616 B802     		.uleb128 .LVL118-.LVL88
 8525 0618 01       		.uleb128 0x1
 8526 0619 57       		.byte	0x57
 8527 061a 04       		.byte	0x4
 8528 061b B802     		.uleb128 .LVL118-.LVL88
 8529 061d FA02     		.uleb128 .LVL119-.LVL88
 8530 061f 04       		.uleb128 0x4
 8531 0620 70       		.byte	0x70
 8532 0621 8076     		.sleb128 -1280
 8533 0623 9F       		.byte	0x9f
 8534 0624 04       		.byte	0x4
 8535 0625 9A04     		.uleb128 .LVL127-.LVL88
 8536 0627 CA05     		.uleb128 .LVL136-.LVL88
 8537 0629 01       		.uleb128 0x1
 8538 062a 57       		.byte	0x57
 8539 062b 04       		.byte	0x4
 8540 062c DE05     		.uleb128 .LVL137-.LVL88
 8541 062e E005     		.uleb128 .LVL138-.LVL88
 8542 0630 04       		.uleb128 0x4
 8543 0631 70       		.byte	0x70
 8544 0632 8076     		.sleb128 -1280
 8545 0634 9F       		.byte	0x9f
 8546 0635 04       		.byte	0x4
 8547 0636 AA06     		.uleb128 .LVL145-.LVL88
 8548 0638 8007     		.uleb128 .LVL149-.LVL88
 8549 063a 01       		.uleb128 0x1
 8550 063b 57       		.byte	0x57
ARM GAS  C:\Users\DEVELO~1\AppData\Local\Temp\ccmc7I4c.s 			page 151


 8551 063c 04       		.byte	0x4
 8552 063d 8007     		.uleb128 .LVL149-.LVL88
 8553 063f 9007     		.uleb128 .LVL150-.LVL88
 8554 0641 04       		.uleb128 0x4
 8555 0642 70       		.byte	0x70
 8556 0643 8076     		.sleb128 -1280
 8557 0645 9F       		.byte	0x9f
 8558 0646 04       		.byte	0x4
 8559 0647 B607     		.uleb128 .LVL153-.LVL88
 8560 0649 D407     		.uleb128 .LVL155-.LVL88
 8561 064b 01       		.uleb128 0x1
 8562 064c 57       		.byte	0x57
 8563 064d 04       		.byte	0x4
 8564 064e EA07     		.uleb128 .LVL157-.LVL88
 8565 0650 8008     		.uleb128 .LVL159-.LVL88
 8566 0652 01       		.uleb128 0x1
 8567 0653 57       		.byte	0x57
 8568 0654 04       		.byte	0x4
 8569 0655 8008     		.uleb128 .LVL159-.LVL88
 8570 0657 E008     		.uleb128 .LVL160-.LVL88
 8571 0659 04       		.uleb128 0x4
 8572 065a 77       		.byte	0x77
 8573 065b 8076     		.sleb128 -1280
 8574 065d 9F       		.byte	0x9f
 8575 065e 04       		.byte	0x4
 8576 065f 8009     		.uleb128 .LVL162-.LVL88
 8577 0661 A609     		.uleb128 .LVL163-.LVL88
 8578 0663 04       		.uleb128 0x4
 8579 0664 77       		.byte	0x77
 8580 0665 8076     		.sleb128 -1280
 8581 0667 9F       		.byte	0x9f
 8582 0668 04       		.byte	0x4
 8583 0669 B809     		.uleb128 .LVL167-.LVL88
 8584 066b 9E0A     		.uleb128 .LVL168-.LVL88
 8585 066d 04       		.uleb128 0x4
 8586 066e 77       		.byte	0x77
 8587 066f 8076     		.sleb128 -1280
 8588 0671 9F       		.byte	0x9f
 8589 0672 04       		.byte	0x4
 8590 0673 A80A     		.uleb128 .LVL170-.LVL88
 8591 0675 DC0A     		.uleb128 .LVL173-.LVL88
 8592 0677 01       		.uleb128 0x1
 8593 0678 57       		.byte	0x57
 8594 0679 04       		.byte	0x4
 8595 067a 960B     		.uleb128 .LVL179-.LVL88
 8596 067c E60B     		.uleb128 .LVL183-.LVL88
 8597 067e 01       		.uleb128 0x1
 8598 067f 57       		.byte	0x57
 8599 0680 04       		.byte	0x4
 8600 0681 E60B     		.uleb128 .LVL183-.LVL88
 8601 0683 F40B     		.uleb128 .LVL184-.LVL88
 8602 0685 04       		.uleb128 0x4
 8603 0686 77       		.byte	0x77
 8604 0687 8076     		.sleb128 -1280
 8605 0689 9F       		.byte	0x9f
 8606 068a 04       		.byte	0x4
 8607 068b F40B     		.uleb128 .LVL184-.LVL88
ARM GAS  C:\Users\DEVELO~1\AppData\Local\Temp\ccmc7I4c.s 			page 152


 8608 068d DE0C     		.uleb128 .LVL188-.LVL88
 8609 068f 01       		.uleb128 0x1
 8610 0690 57       		.byte	0x57
 8611 0691 04       		.byte	0x4
 8612 0692 FE0C     		.uleb128 .LVL195-.LVL88
 8613 0694 D60D     		.uleb128 .LVL198-.LVL88
 8614 0696 01       		.uleb128 0x1
 8615 0697 57       		.byte	0x57
 8616 0698 04       		.byte	0x4
 8617 0699 D60D     		.uleb128 .LVL198-.LVL88
 8618 069b EA0D     		.uleb128 .LVL202-.LVL88
 8619 069d 04       		.uleb128 0x4
 8620 069e 77       		.byte	0x77
 8621 069f 8076     		.sleb128 -1280
 8622 06a1 9F       		.byte	0x9f
 8623 06a2 04       		.byte	0x4
 8624 06a3 F20D     		.uleb128 .LVL203-.LVL88
 8625 06a5 BA0E     		.uleb128 .LVL204-.LVL88
 8626 06a7 04       		.uleb128 0x4
 8627 06a8 77       		.byte	0x77
 8628 06a9 8076     		.sleb128 -1280
 8629 06ab 9F       		.byte	0x9f
 8630 06ac 04       		.byte	0x4
 8631 06ad C40E     		.uleb128 .LVL205-.LVL88
 8632 06af D20E     		.uleb128 .LVL207-.LVL88
 8633 06b1 01       		.uleb128 0x1
 8634 06b2 57       		.byte	0x57
 8635 06b3 04       		.byte	0x4
 8636 06b4 D20E     		.uleb128 .LVL207-.LVL88
 8637 06b6 DC0E     		.uleb128 .LVL208-.LVL88
 8638 06b8 04       		.uleb128 0x4
 8639 06b9 77       		.byte	0x77
 8640 06ba 8076     		.sleb128 -1280
 8641 06bc 9F       		.byte	0x9f
 8642 06bd 04       		.byte	0x4
 8643 06be DC0E     		.uleb128 .LVL208-.LVL88
 8644 06c0 EC0E     		.uleb128 .LVL209-.LVL88
 8645 06c2 01       		.uleb128 0x1
 8646 06c3 57       		.byte	0x57
 8647 06c4 04       		.byte	0x4
 8648 06c5 EC0E     		.uleb128 .LVL209-.LVL88
 8649 06c7 F20E     		.uleb128 .LVL211-.LVL88
 8650 06c9 04       		.uleb128 0x4
 8651 06ca 77       		.byte	0x77
 8652 06cb 8076     		.sleb128 -1280
 8653 06cd 9F       		.byte	0x9f
 8654 06ce 04       		.byte	0x4
 8655 06cf F20E     		.uleb128 .LVL211-.LVL88
 8656 06d1 F80E     		.uleb128 .LVL212-.LVL88
 8657 06d3 01       		.uleb128 0x1
 8658 06d4 57       		.byte	0x57
 8659 06d5 04       		.byte	0x4
 8660 06d6 F80E     		.uleb128 .LVL212-.LVL88
 8661 06d8 840F     		.uleb128 .LVL214-.LVL88
 8662 06da 04       		.uleb128 0x4
 8663 06db 77       		.byte	0x77
 8664 06dc 8076     		.sleb128 -1280
ARM GAS  C:\Users\DEVELO~1\AppData\Local\Temp\ccmc7I4c.s 			page 153


 8665 06de 9F       		.byte	0x9f
 8666 06df 04       		.byte	0x4
 8667 06e0 840F     		.uleb128 .LVL214-.LVL88
 8668 06e2 C00F     		.uleb128 .LVL218-.LVL88
 8669 06e4 01       		.uleb128 0x1
 8670 06e5 57       		.byte	0x57
 8671 06e6 04       		.byte	0x4
 8672 06e7 C00F     		.uleb128 .LVL218-.LVL88
 8673 06e9 9811     		.uleb128 .LFE148-.LVL88
 8674 06eb 04       		.uleb128 0x4
 8675 06ec 77       		.byte	0x77
 8676 06ed 8076     		.sleb128 -1280
 8677 06ef 9F       		.byte	0x9f
 8678 06f0 00       		.byte	0
 8679              	.LVUS49:
 8680 06f1 01       		.uleb128 .LVU465
 8681 06f2 00       		.uleb128 .LVU510
 8682 06f3 00       		.uleb128 .LVU571
 8683 06f4 00       		.uleb128 .LVU574
 8684 06f5 00       		.uleb128 .LVU622
 8685 06f6 00       		.uleb128 .LVU630
 8686              	.LLST49:
 8687 06f7 06       		.byte	0x6
 8688 06f8 BE020000 		.4byte	.LVL123
 8689 06fc 04       		.byte	0x4
 8690 06fd 00       		.uleb128 .LVL123-.LVL123
 8691 06fe 74       		.uleb128 .LVL127-.LVL123
 8692 06ff 01       		.uleb128 0x1
 8693 0700 54       		.byte	0x54
 8694 0701 04       		.byte	0x4
 8695 0702 F402     		.uleb128 .LVL142-.LVL123
 8696 0704 8403     		.uleb128 .LVL145-.LVL123
 8697 0706 01       		.uleb128 0x1
 8698 0707 54       		.byte	0x54
 8699 0708 04       		.byte	0x4
 8700 0709 AE04     		.uleb128 .LVL155-.LVL123
 8701 070b C404     		.uleb128 .LVL157-.LVL123
 8702 070d 01       		.uleb128 0x1
 8703 070e 54       		.byte	0x54
 8704 070f 00       		.byte	0
 8705              	.LVUS50:
 8706 0710 03       		.uleb128 .LVU467
 8707 0711 00       		.uleb128 .LVU485
 8708 0712 00       		.uleb128 .LVU485
 8709 0713 00       		.uleb128 .LVU510
 8710 0714 00       		.uleb128 .LVU571
 8711 0715 00       		.uleb128 .LVU574
 8712 0716 00       		.uleb128 .LVU622
 8713 0717 00       		.uleb128 .LVU630
 8714              	.LLST50:
 8715 0718 06       		.byte	0x6
 8716 0719 BE020000 		.4byte	.LVL123
 8717 071d 04       		.byte	0x4
 8718 071e 00       		.uleb128 .LVL123-.LVL123
 8719 071f 24       		.uleb128 .LVL125-.LVL123
 8720 0720 02       		.uleb128 0x2
 8721 0721 74       		.byte	0x74
ARM GAS  C:\Users\DEVELO~1\AppData\Local\Temp\ccmc7I4c.s 			page 154


 8722 0722 00       		.sleb128 0
 8723 0723 04       		.byte	0x4
 8724 0724 24       		.uleb128 .LVL125-.LVL123
 8725 0725 74       		.uleb128 .LVL127-.LVL123
 8726 0726 01       		.uleb128 0x1
 8727 0727 56       		.byte	0x56
 8728 0728 04       		.byte	0x4
 8729 0729 F402     		.uleb128 .LVL142-.LVL123
 8730 072b 8403     		.uleb128 .LVL145-.LVL123
 8731 072d 01       		.uleb128 0x1
 8732 072e 56       		.byte	0x56
 8733 072f 04       		.byte	0x4
 8734 0730 AE04     		.uleb128 .LVL155-.LVL123
 8735 0732 C404     		.uleb128 .LVL157-.LVL123
 8736 0734 01       		.uleb128 0x1
 8737 0735 56       		.byte	0x56
 8738 0736 00       		.byte	0
 8739              	.LVUS51:
 8740 0737 00       		.uleb128 .LVU469
 8741 0738 00       		.uleb128 .LVU485
 8742 0739 00       		.uleb128 .LVU485
 8743 073a 00       		.uleb128 .LVU510
 8744 073b 00       		.uleb128 .LVU571
 8745 073c 00       		.uleb128 .LVU574
 8746 073d 00       		.uleb128 .LVU622
 8747 073e 00       		.uleb128 .LVU630
 8748              	.LLST51:
 8749 073f 06       		.byte	0x6
 8750 0740 C0020000 		.4byte	.LVL124
 8751 0744 04       		.byte	0x4
 8752 0745 00       		.uleb128 .LVL124-.LVL124
 8753 0746 22       		.uleb128 .LVL125-.LVL124
 8754 0747 02       		.uleb128 0x2
 8755 0748 74       		.byte	0x74
 8756 0749 00       		.sleb128 0
 8757 074a 04       		.byte	0x4
 8758 074b 22       		.uleb128 .LVL125-.LVL124
 8759 074c 72       		.uleb128 .LVL127-.LVL124
 8760 074d 01       		.uleb128 0x1
 8761 074e 56       		.byte	0x56
 8762 074f 04       		.byte	0x4
 8763 0750 F202     		.uleb128 .LVL142-.LVL124
 8764 0752 8203     		.uleb128 .LVL145-.LVL124
 8765 0754 01       		.uleb128 0x1
 8766 0755 56       		.byte	0x56
 8767 0756 04       		.byte	0x4
 8768 0757 AC04     		.uleb128 .LVL155-.LVL124
 8769 0759 C204     		.uleb128 .LVL157-.LVL124
 8770 075b 01       		.uleb128 0x1
 8771 075c 56       		.byte	0x56
 8772 075d 00       		.byte	0
 8773              	.LVUS17:
 8774 075e 00       		.uleb128 0
 8775 075f 00       		.uleb128 .LVU188
 8776 0760 00       		.uleb128 .LVU188
 8777 0761 00       		.uleb128 .LVU189
 8778 0762 00       		.uleb128 .LVU189
ARM GAS  C:\Users\DEVELO~1\AppData\Local\Temp\ccmc7I4c.s 			page 155


 8779 0763 00       		.uleb128 0
 8780              	.LLST17:
 8781 0764 06       		.byte	0x6
 8782 0765 00000000 		.4byte	.LVL37
 8783 0769 04       		.byte	0x4
 8784 076a 00       		.uleb128 .LVL37-.LVL37
 8785 076b 62       		.uleb128 .LVL41-.LVL37
 8786 076c 01       		.uleb128 0x1
 8787 076d 50       		.byte	0x50
 8788 076e 04       		.byte	0x4
 8789 076f 62       		.uleb128 .LVL41-.LVL37
 8790 0770 66       		.uleb128 .LVL42-.LVL37
 8791 0771 04       		.uleb128 0x4
 8792 0772 A3       		.byte	0xa3
 8793 0773 01       		.uleb128 0x1
 8794 0774 50       		.byte	0x50
 8795 0775 9F       		.byte	0x9f
 8796 0776 04       		.byte	0x4
 8797 0777 66       		.uleb128 .LVL42-.LVL37
 8798 0778 E001     		.uleb128 .LFE147-.LVL37
 8799 077a 01       		.uleb128 0x1
 8800 077b 50       		.byte	0x50
 8801 077c 00       		.byte	0
 8802              	.LVUS18:
 8803 077d 00       		.uleb128 0
 8804 077e 00       		.uleb128 .LVU176
 8805 077f 00       		.uleb128 .LVU176
 8806 0780 00       		.uleb128 .LVU189
 8807 0781 00       		.uleb128 .LVU189
 8808 0782 00       		.uleb128 .LVU189
 8809 0783 00       		.uleb128 .LVU189
 8810 0784 00       		.uleb128 0
 8811              	.LLST18:
 8812 0785 06       		.byte	0x6
 8813 0786 00000000 		.4byte	.LVL37
 8814 078a 04       		.byte	0x4
 8815 078b 00       		.uleb128 .LVL37-.LVL37
 8816 078c 4E       		.uleb128 .LVL39-.LVL37
 8817 078d 01       		.uleb128 0x1
 8818 078e 51       		.byte	0x51
 8819 078f 04       		.byte	0x4
 8820 0790 4E       		.uleb128 .LVL39-.LVL37
 8821 0791 65       		.uleb128 .LVL42-1-.LVL37
 8822 0792 02       		.uleb128 0x2
 8823 0793 73       		.byte	0x73
 8824 0794 15       		.sleb128 21
 8825 0795 04       		.byte	0x4
 8826 0796 65       		.uleb128 .LVL42-1-.LVL37
 8827 0797 66       		.uleb128 .LVL42-.LVL37
 8828 0798 04       		.uleb128 0x4
 8829 0799 A3       		.byte	0xa3
 8830 079a 01       		.uleb128 0x1
 8831 079b 51       		.byte	0x51
 8832 079c 9F       		.byte	0x9f
 8833 079d 04       		.byte	0x4
 8834 079e 66       		.uleb128 .LVL42-.LVL37
 8835 079f E001     		.uleb128 .LFE147-.LVL37
ARM GAS  C:\Users\DEVELO~1\AppData\Local\Temp\ccmc7I4c.s 			page 156


 8836 07a1 01       		.uleb128 0x1
 8837 07a2 51       		.byte	0x51
 8838 07a3 00       		.byte	0
 8839              	.LVUS19:
 8840 07a4 00       		.uleb128 0
 8841 07a5 00       		.uleb128 .LVU169
 8842 07a6 00       		.uleb128 .LVU169
 8843 07a7 00       		.uleb128 .LVU189
 8844 07a8 00       		.uleb128 .LVU189
 8845 07a9 00       		.uleb128 .LVU200
 8846 07aa 00       		.uleb128 .LVU200
 8847 07ab 00       		.uleb128 .LVU201
 8848 07ac 00       		.uleb128 .LVU201
 8849 07ad 00       		.uleb128 .LVU202
 8850 07ae 00       		.uleb128 .LVU202
 8851 07af 00       		.uleb128 .LVU205
 8852 07b0 00       		.uleb128 .LVU205
 8853 07b1 00       		.uleb128 .LVU207
 8854 07b2 00       		.uleb128 .LVU207
 8855 07b3 00       		.uleb128 .LVU208
 8856 07b4 00       		.uleb128 .LVU208
 8857 07b5 00       		.uleb128 .LVU210
 8858 07b6 00       		.uleb128 .LVU210
 8859 07b7 00       		.uleb128 .LVU213
 8860 07b8 00       		.uleb128 .LVU213
 8861 07b9 00       		.uleb128 .LVU214
 8862 07ba 00       		.uleb128 .LVU214
 8863 07bb 00       		.uleb128 .LVU227
 8864 07bc 00       		.uleb128 .LVU227
 8865 07bd 00       		.uleb128 .LVU230
 8866 07be 00       		.uleb128 .LVU230
 8867 07bf 00       		.uleb128 0
 8868              	.LLST19:
 8869 07c0 06       		.byte	0x6
 8870 07c1 00000000 		.4byte	.LVL37
 8871 07c5 04       		.byte	0x4
 8872 07c6 00       		.uleb128 .LVL37-.LVL37
 8873 07c7 3C       		.uleb128 .LVL38-.LVL37
 8874 07c8 01       		.uleb128 0x1
 8875 07c9 52       		.byte	0x52
 8876 07ca 04       		.byte	0x4
 8877 07cb 3C       		.uleb128 .LVL38-.LVL37
 8878 07cc 66       		.uleb128 .LVL42-.LVL37
 8879 07cd 04       		.uleb128 0x4
 8880 07ce A3       		.byte	0xa3
 8881 07cf 01       		.uleb128 0x1
 8882 07d0 52       		.byte	0x52
 8883 07d1 9F       		.byte	0x9f
 8884 07d2 04       		.byte	0x4
 8885 07d3 66       		.uleb128 .LVL42-.LVL37
 8886 07d4 8A01     		.uleb128 .LVL44-.LVL37
 8887 07d6 01       		.uleb128 0x1
 8888 07d7 52       		.byte	0x52
 8889 07d8 04       		.byte	0x4
 8890 07d9 8A01     		.uleb128 .LVL44-.LVL37
 8891 07db 8E01     		.uleb128 .LVL45-.LVL37
 8892 07dd 02       		.uleb128 0x2
ARM GAS  C:\Users\DEVELO~1\AppData\Local\Temp\ccmc7I4c.s 			page 157


 8893 07de 7E       		.byte	0x7e
 8894 07df 17       		.sleb128 23
 8895 07e0 04       		.byte	0x4
 8896 07e1 8E01     		.uleb128 .LVL45-.LVL37
 8897 07e3 9001     		.uleb128 .LVL46-.LVL37
 8898 07e5 04       		.uleb128 0x4
 8899 07e6 A3       		.byte	0xa3
 8900 07e7 01       		.uleb128 0x1
 8901 07e8 52       		.byte	0x52
 8902 07e9 9F       		.byte	0x9f
 8903 07ea 04       		.byte	0x4
 8904 07eb 9001     		.uleb128 .LVL46-.LVL37
 8905 07ed 9601     		.uleb128 .LVL48-.LVL37
 8906 07ef 01       		.uleb128 0x1
 8907 07f0 52       		.byte	0x52
 8908 07f1 04       		.byte	0x4
 8909 07f2 9601     		.uleb128 .LVL48-.LVL37
 8910 07f4 9E01     		.uleb128 .LVL49-.LVL37
 8911 07f6 02       		.uleb128 0x2
 8912 07f7 7E       		.byte	0x7e
 8913 07f8 17       		.sleb128 23
 8914 07f9 04       		.byte	0x4
 8915 07fa 9E01     		.uleb128 .LVL49-.LVL37
 8916 07fc A001     		.uleb128 .LVL50-.LVL37
 8917 07fe 04       		.uleb128 0x4
 8918 07ff A3       		.byte	0xa3
 8919 0800 01       		.uleb128 0x1
 8920 0801 52       		.byte	0x52
 8921 0802 9F       		.byte	0x9f
 8922 0803 04       		.byte	0x4
 8923 0804 A001     		.uleb128 .LVL50-.LVL37
 8924 0806 A401     		.uleb128 .LVL51-.LVL37
 8925 0808 01       		.uleb128 0x1
 8926 0809 52       		.byte	0x52
 8927 080a 04       		.byte	0x4
 8928 080b A401     		.uleb128 .LVL51-.LVL37
 8929 080d AE01     		.uleb128 .LVL52-.LVL37
 8930 080f 02       		.uleb128 0x2
 8931 0810 7E       		.byte	0x7e
 8932 0811 17       		.sleb128 23
 8933 0812 04       		.byte	0x4
 8934 0813 AE01     		.uleb128 .LVL52-.LVL37
 8935 0815 B001     		.uleb128 .LVL53-.LVL37
 8936 0817 04       		.uleb128 0x4
 8937 0818 A3       		.byte	0xa3
 8938 0819 01       		.uleb128 0x1
 8939 081a 52       		.byte	0x52
 8940 081b 9F       		.byte	0x9f
 8941 081c 04       		.byte	0x4
 8942 081d B001     		.uleb128 .LVL53-.LVL37
 8943 081f C801     		.uleb128 .LVL57-.LVL37
 8944 0821 01       		.uleb128 0x1
 8945 0822 52       		.byte	0x52
 8946 0823 04       		.byte	0x4
 8947 0824 C801     		.uleb128 .LVL57-.LVL37
 8948 0826 D601     		.uleb128 .LVL58-.LVL37
 8949 0828 02       		.uleb128 0x2
ARM GAS  C:\Users\DEVELO~1\AppData\Local\Temp\ccmc7I4c.s 			page 158


 8950 0829 7E       		.byte	0x7e
 8951 082a 17       		.sleb128 23
 8952 082b 04       		.byte	0x4
 8953 082c D601     		.uleb128 .LVL58-.LVL37
 8954 082e E001     		.uleb128 .LFE147-.LVL37
 8955 0830 01       		.uleb128 0x1
 8956 0831 52       		.byte	0x52
 8957 0832 00       		.byte	0
 8958              	.LVUS20:
 8959 0833 00       		.uleb128 0
 8960 0834 00       		.uleb128 .LVU169
 8961 0835 00       		.uleb128 .LVU169
 8962 0836 00       		.uleb128 .LVU189
 8963 0837 00       		.uleb128 .LVU189
 8964 0838 00       		.uleb128 .LVU194
 8965 0839 00       		.uleb128 .LVU194
 8966 083a 00       		.uleb128 .LVU201
 8967 083b 00       		.uleb128 .LVU201
 8968 083c 00       		.uleb128 .LVU202
 8969 083d 00       		.uleb128 .LVU202
 8970 083e 00       		.uleb128 .LVU204
 8971 083f 00       		.uleb128 .LVU204
 8972 0840 00       		.uleb128 .LVU207
 8973 0841 00       		.uleb128 .LVU207
 8974 0842 00       		.uleb128 .LVU208
 8975 0843 00       		.uleb128 .LVU208
 8976 0844 00       		.uleb128 .LVU213
 8977 0845 00       		.uleb128 .LVU213
 8978 0846 00       		.uleb128 .LVU214
 8979 0847 00       		.uleb128 .LVU214
 8980 0848 00       		.uleb128 .LVU218
 8981 0849 00       		.uleb128 .LVU218
 8982 084a 00       		.uleb128 .LVU224
 8983 084b 00       		.uleb128 .LVU224
 8984 084c 00       		.uleb128 .LVU225
 8985 084d 00       		.uleb128 .LVU225
 8986 084e 00       		.uleb128 0
 8987              	.LLST20:
 8988 084f 06       		.byte	0x6
 8989 0850 00000000 		.4byte	.LVL37
 8990 0854 04       		.byte	0x4
 8991 0855 00       		.uleb128 .LVL37-.LVL37
 8992 0856 3C       		.uleb128 .LVL38-.LVL37
 8993 0857 01       		.uleb128 0x1
 8994 0858 53       		.byte	0x53
 8995 0859 04       		.byte	0x4
 8996 085a 3C       		.uleb128 .LVL38-.LVL37
 8997 085b 66       		.uleb128 .LVL42-.LVL37
 8998 085c 04       		.uleb128 0x4
 8999 085d A3       		.byte	0xa3
 9000 085e 01       		.uleb128 0x1
 9001 085f 53       		.byte	0x53
 9002 0860 9F       		.byte	0x9f
 9003 0861 04       		.byte	0x4
 9004 0862 66       		.uleb128 .LVL42-.LVL37
 9005 0863 7C       		.uleb128 .LVL43-.LVL37
 9006 0864 01       		.uleb128 0x1
ARM GAS  C:\Users\DEVELO~1\AppData\Local\Temp\ccmc7I4c.s 			page 159


 9007 0865 53       		.byte	0x53
 9008 0866 04       		.byte	0x4
 9009 0867 7C       		.uleb128 .LVL43-.LVL37
 9010 0868 8E01     		.uleb128 .LVL45-.LVL37
 9011 086a 02       		.uleb128 0x2
 9012 086b 7E       		.byte	0x7e
 9013 086c 26       		.sleb128 38
 9014 086d 04       		.byte	0x4
 9015 086e 8E01     		.uleb128 .LVL45-.LVL37
 9016 0870 9001     		.uleb128 .LVL46-.LVL37
 9017 0872 04       		.uleb128 0x4
 9018 0873 A3       		.byte	0xa3
 9019 0874 01       		.uleb128 0x1
 9020 0875 53       		.byte	0x53
 9021 0876 9F       		.byte	0x9f
 9022 0877 04       		.byte	0x4
 9023 0878 9001     		.uleb128 .LVL46-.LVL37
 9024 087a 9401     		.uleb128 .LVL47-.LVL37
 9025 087c 01       		.uleb128 0x1
 9026 087d 53       		.byte	0x53
 9027 087e 04       		.byte	0x4
 9028 087f 9401     		.uleb128 .LVL47-.LVL37
 9029 0881 9E01     		.uleb128 .LVL49-.LVL37
 9030 0883 02       		.uleb128 0x2
 9031 0884 7E       		.byte	0x7e
 9032 0885 26       		.sleb128 38
 9033 0886 04       		.byte	0x4
 9034 0887 9E01     		.uleb128 .LVL49-.LVL37
 9035 0889 A001     		.uleb128 .LVL50-.LVL37
 9036 088b 04       		.uleb128 0x4
 9037 088c A3       		.byte	0xa3
 9038 088d 01       		.uleb128 0x1
 9039 088e 53       		.byte	0x53
 9040 088f 9F       		.byte	0x9f
 9041 0890 04       		.byte	0x4
 9042 0891 A001     		.uleb128 .LVL50-.LVL37
 9043 0893 AE01     		.uleb128 .LVL52-.LVL37
 9044 0895 02       		.uleb128 0x2
 9045 0896 7E       		.byte	0x7e
 9046 0897 26       		.sleb128 38
 9047 0898 04       		.byte	0x4
 9048 0899 AE01     		.uleb128 .LVL52-.LVL37
 9049 089b B001     		.uleb128 .LVL53-.LVL37
 9050 089d 04       		.uleb128 0x4
 9051 089e A3       		.byte	0xa3
 9052 089f 01       		.uleb128 0x1
 9053 08a0 53       		.byte	0x53
 9054 08a1 9F       		.byte	0x9f
 9055 08a2 04       		.byte	0x4
 9056 08a3 B001     		.uleb128 .LVL53-.LVL37
 9057 08a5 B801     		.uleb128 .LVL54-.LVL37
 9058 08a7 01       		.uleb128 0x1
 9059 08a8 53       		.byte	0x53
 9060 08a9 04       		.byte	0x4
 9061 08aa B801     		.uleb128 .LVL54-.LVL37
 9062 08ac C401     		.uleb128 .LVL55-.LVL37
 9063 08ae 02       		.uleb128 0x2
ARM GAS  C:\Users\DEVELO~1\AppData\Local\Temp\ccmc7I4c.s 			page 160


 9064 08af 7E       		.byte	0x7e
 9065 08b0 26       		.sleb128 38
 9066 08b1 04       		.byte	0x4
 9067 08b2 C401     		.uleb128 .LVL55-.LVL37
 9068 08b4 C601     		.uleb128 .LVL56-.LVL37
 9069 08b6 04       		.uleb128 0x4
 9070 08b7 A3       		.byte	0xa3
 9071 08b8 01       		.uleb128 0x1
 9072 08b9 53       		.byte	0x53
 9073 08ba 9F       		.byte	0x9f
 9074 08bb 04       		.byte	0x4
 9075 08bc C601     		.uleb128 .LVL56-.LVL37
 9076 08be E001     		.uleb128 .LFE147-.LVL37
 9077 08c0 02       		.uleb128 0x2
 9078 08c1 7E       		.byte	0x7e
 9079 08c2 26       		.sleb128 38
 9080 08c3 00       		.byte	0
 9081              	.LVUS21:
 9082 08c4 00       		.uleb128 0
 9083 08c5 00       		.uleb128 .LVU187
 9084 08c6 00       		.uleb128 .LVU187
 9085 08c7 00       		.uleb128 .LVU189
 9086 08c8 00       		.uleb128 .LVU189
 9087 08c9 00       		.uleb128 0
 9088              	.LLST21:
 9089 08ca 06       		.byte	0x6
 9090 08cb 00000000 		.4byte	.LVL37
 9091 08cf 04       		.byte	0x4
 9092 08d0 00       		.uleb128 .LVL37-.LVL37
 9093 08d1 5E       		.uleb128 .LVL40-.LVL37
 9094 08d2 02       		.uleb128 0x2
 9095 08d3 91       		.byte	0x91
 9096 08d4 00       		.sleb128 0
 9097 08d5 04       		.byte	0x4
 9098 08d6 5E       		.uleb128 .LVL40-.LVL37
 9099 08d7 66       		.uleb128 .LVL42-.LVL37
 9100 08d8 02       		.uleb128 0x2
 9101 08d9 7D       		.byte	0x7d
 9102 08da 00       		.sleb128 0
 9103 08db 04       		.byte	0x4
 9104 08dc 66       		.uleb128 .LVL42-.LVL37
 9105 08dd E001     		.uleb128 .LFE147-.LVL37
 9106 08df 02       		.uleb128 0x2
 9107 08e0 91       		.byte	0x91
 9108 08e1 00       		.sleb128 0
 9109 08e2 00       		.byte	0
 9110              	.LVUS22:
 9111 08e3 00       		.uleb128 0
 9112 08e4 00       		.uleb128 .LVU187
 9113 08e5 00       		.uleb128 .LVU187
 9114 08e6 00       		.uleb128 .LVU189
 9115 08e7 00       		.uleb128 .LVU189
 9116 08e8 00       		.uleb128 0
 9117              	.LLST22:
 9118 08e9 06       		.byte	0x6
 9119 08ea 00000000 		.4byte	.LVL37
 9120 08ee 04       		.byte	0x4
ARM GAS  C:\Users\DEVELO~1\AppData\Local\Temp\ccmc7I4c.s 			page 161


 9121 08ef 00       		.uleb128 .LVL37-.LVL37
 9122 08f0 5E       		.uleb128 .LVL40-.LVL37
 9123 08f1 02       		.uleb128 0x2
 9124 08f2 91       		.byte	0x91
 9125 08f3 04       		.sleb128 4
 9126 08f4 04       		.byte	0x4
 9127 08f5 5E       		.uleb128 .LVL40-.LVL37
 9128 08f6 66       		.uleb128 .LVL42-.LVL37
 9129 08f7 02       		.uleb128 0x2
 9130 08f8 7D       		.byte	0x7d
 9131 08f9 04       		.sleb128 4
 9132 08fa 04       		.byte	0x4
 9133 08fb 66       		.uleb128 .LVL42-.LVL37
 9134 08fc E001     		.uleb128 .LFE147-.LVL37
 9135 08fe 02       		.uleb128 0x2
 9136 08ff 91       		.byte	0x91
 9137 0900 04       		.sleb128 4
 9138 0901 00       		.byte	0
 9139              	.LVUS23:
 9140 0902 00       		.uleb128 0
 9141 0903 00       		.uleb128 .LVU187
 9142 0904 00       		.uleb128 .LVU187
 9143 0905 00       		.uleb128 .LVU189
 9144 0906 00       		.uleb128 .LVU189
 9145 0907 00       		.uleb128 0
 9146              	.LLST23:
 9147 0908 06       		.byte	0x6
 9148 0909 00000000 		.4byte	.LVL37
 9149 090d 04       		.byte	0x4
 9150 090e 00       		.uleb128 .LVL37-.LVL37
 9151 090f 5E       		.uleb128 .LVL40-.LVL37
 9152 0910 02       		.uleb128 0x2
 9153 0911 91       		.byte	0x91
 9154 0912 08       		.sleb128 8
 9155 0913 04       		.byte	0x4
 9156 0914 5E       		.uleb128 .LVL40-.LVL37
 9157 0915 66       		.uleb128 .LVL42-.LVL37
 9158 0916 02       		.uleb128 0x2
 9159 0917 7D       		.byte	0x7d
 9160 0918 08       		.sleb128 8
 9161 0919 04       		.byte	0x4
 9162 091a 66       		.uleb128 .LVL42-.LVL37
 9163 091b E001     		.uleb128 .LFE147-.LVL37
 9164 091d 02       		.uleb128 0x2
 9165 091e 91       		.byte	0x91
 9166 091f 08       		.sleb128 8
 9167 0920 00       		.byte	0
 9168              	.LVUS24:
 9169 0921 00       		.uleb128 0
 9170 0922 00       		.uleb128 .LVU187
 9171 0923 00       		.uleb128 .LVU187
 9172 0924 00       		.uleb128 .LVU189
 9173 0925 00       		.uleb128 .LVU189
 9174 0926 00       		.uleb128 0
 9175              	.LLST24:
 9176 0927 06       		.byte	0x6
 9177 0928 00000000 		.4byte	.LVL37
ARM GAS  C:\Users\DEVELO~1\AppData\Local\Temp\ccmc7I4c.s 			page 162


 9178 092c 04       		.byte	0x4
 9179 092d 00       		.uleb128 .LVL37-.LVL37
 9180 092e 5E       		.uleb128 .LVL40-.LVL37
 9181 092f 02       		.uleb128 0x2
 9182 0930 91       		.byte	0x91
 9183 0931 0C       		.sleb128 12
 9184 0932 04       		.byte	0x4
 9185 0933 5E       		.uleb128 .LVL40-.LVL37
 9186 0934 66       		.uleb128 .LVL42-.LVL37
 9187 0935 02       		.uleb128 0x2
 9188 0936 7D       		.byte	0x7d
 9189 0937 0C       		.sleb128 12
 9190 0938 04       		.byte	0x4
 9191 0939 66       		.uleb128 .LVL42-.LVL37
 9192 093a E001     		.uleb128 .LFE147-.LVL37
 9193 093c 02       		.uleb128 0x2
 9194 093d 91       		.byte	0x91
 9195 093e 0C       		.sleb128 12
 9196 093f 00       		.byte	0
 9197              	.LVUS16:
 9198 0940 00       		.uleb128 0
 9199 0941 00       		.uleb128 .LVU141
 9200 0942 00       		.uleb128 .LVU141
 9201 0943 00       		.uleb128 .LVU148
 9202 0944 00       		.uleb128 .LVU148
 9203 0945 00       		.uleb128 .LVU149
 9204 0946 00       		.uleb128 .LVU149
 9205 0947 00       		.uleb128 0
 9206              	.LLST16:
 9207 0948 06       		.byte	0x6
 9208 0949 00000000 		.4byte	.LVL32
 9209 094d 04       		.byte	0x4
 9210 094e 00       		.uleb128 .LVL32-.LVL32
 9211 094f 0F       		.uleb128 .LVL33-1-.LVL32
 9212 0950 01       		.uleb128 0x1
 9213 0951 50       		.byte	0x50
 9214 0952 04       		.byte	0x4
 9215 0953 0F       		.uleb128 .LVL33-1-.LVL32
 9216 0954 20       		.uleb128 .LVL35-.LVL32
 9217 0955 01       		.uleb128 0x1
 9218 0956 54       		.byte	0x54
 9219 0957 04       		.byte	0x4
 9220 0958 20       		.uleb128 .LVL35-.LVL32
 9221 0959 22       		.uleb128 .LVL36-.LVL32
 9222 095a 01       		.uleb128 0x1
 9223 095b 50       		.byte	0x50
 9224 095c 04       		.byte	0x4
 9225 095d 22       		.uleb128 .LVL36-.LVL32
 9226 095e 24       		.uleb128 .LFE144-.LVL32
 9227 095f 04       		.uleb128 0x4
 9228 0960 A3       		.byte	0xa3
 9229 0961 01       		.uleb128 0x1
 9230 0962 50       		.byte	0x50
 9231 0963 9F       		.byte	0x9f
 9232 0964 00       		.byte	0
 9233              	.LVUS13:
 9234 0965 00       		.uleb128 0
ARM GAS  C:\Users\DEVELO~1\AppData\Local\Temp\ccmc7I4c.s 			page 163


 9235 0966 00       		.uleb128 .LVU77
 9236 0967 00       		.uleb128 .LVU77
 9237 0968 00       		.uleb128 .LVU88
 9238 0969 00       		.uleb128 .LVU88
 9239 096a 00       		.uleb128 .LVU89
 9240 096b 00       		.uleb128 .LVU89
 9241 096c 00       		.uleb128 0
 9242              	.LLST13:
 9243 096d 06       		.byte	0x6
 9244 096e 00000000 		.4byte	.LVL15
 9245 0972 04       		.byte	0x4
 9246 0973 00       		.uleb128 .LVL15-.LVL15
 9247 0974 10       		.uleb128 .LVL16-.LVL15
 9248 0975 01       		.uleb128 0x1
 9249 0976 50       		.byte	0x50
 9250 0977 04       		.byte	0x4
 9251 0978 10       		.uleb128 .LVL16-.LVL15
 9252 0979 22       		.uleb128 .LVL18-.LVL15
 9253 097a 01       		.uleb128 0x1
 9254 097b 54       		.byte	0x54
 9255 097c 04       		.byte	0x4
 9256 097d 22       		.uleb128 .LVL18-.LVL15
 9257 097e 24       		.uleb128 .LVL19-.LVL15
 9258 097f 01       		.uleb128 0x1
 9259 0980 50       		.byte	0x50
 9260 0981 04       		.byte	0x4
 9261 0982 24       		.uleb128 .LVL19-.LVL15
 9262 0983 26       		.uleb128 .LFE143-.LVL15
 9263 0984 04       		.uleb128 0x4
 9264 0985 A3       		.byte	0xa3
 9265 0986 01       		.uleb128 0x1
 9266 0987 50       		.byte	0x50
 9267 0988 9F       		.byte	0x9f
 9268 0989 00       		.byte	0
 9269              	.LVUS14:
 9270 098a 00       		.uleb128 0
 9271 098b 00       		.uleb128 .LVU81
 9272 098c 00       		.uleb128 .LVU81
 9273 098d 00       		.uleb128 .LVU88
 9274 098e 00       		.uleb128 .LVU88
 9275 098f 00       		.uleb128 0
 9276              	.LLST14:
 9277 0990 06       		.byte	0x6
 9278 0991 00000000 		.4byte	.LVL15
 9279 0995 04       		.byte	0x4
 9280 0996 00       		.uleb128 .LVL15-.LVL15
 9281 0997 17       		.uleb128 .LVL17-1-.LVL15
 9282 0998 01       		.uleb128 0x1
 9283 0999 51       		.byte	0x51
 9284 099a 04       		.byte	0x4
 9285 099b 17       		.uleb128 .LVL17-1-.LVL15
 9286 099c 22       		.uleb128 .LVL18-.LVL15
 9287 099d 04       		.uleb128 0x4
 9288 099e A3       		.byte	0xa3
 9289 099f 01       		.uleb128 0x1
 9290 09a0 51       		.byte	0x51
 9291 09a1 9F       		.byte	0x9f
ARM GAS  C:\Users\DEVELO~1\AppData\Local\Temp\ccmc7I4c.s 			page 164


 9292 09a2 04       		.byte	0x4
 9293 09a3 22       		.uleb128 .LVL18-.LVL15
 9294 09a4 26       		.uleb128 .LFE143-.LVL15
 9295 09a5 01       		.uleb128 0x1
 9296 09a6 51       		.byte	0x51
 9297 09a7 00       		.byte	0
 9298              	.LVUS0:
 9299 09a8 00       		.uleb128 0
 9300 09a9 00       		.uleb128 .LVU43
 9301 09aa 00       		.uleb128 .LVU43
 9302 09ab 00       		.uleb128 .LVU67
 9303 09ac 00       		.uleb128 .LVU67
 9304 09ad 00       		.uleb128 .LVU68
 9305 09ae 00       		.uleb128 .LVU68
 9306 09af 00       		.uleb128 0
 9307              	.LLST0:
 9308 09b0 06       		.byte	0x6
 9309 09b1 00000000 		.4byte	.LVL0
 9310 09b5 04       		.byte	0x4
 9311 09b6 00       		.uleb128 .LVL0-.LVL0
 9312 09b7 5C       		.uleb128 .LVL5-.LVL0
 9313 09b8 01       		.uleb128 0x1
 9314 09b9 50       		.byte	0x50
 9315 09ba 04       		.byte	0x4
 9316 09bb 5C       		.uleb128 .LVL5-.LVL0
 9317 09bc A601     		.uleb128 .LVL13-.LVL0
 9318 09be 01       		.uleb128 0x1
 9319 09bf 54       		.byte	0x54
 9320 09c0 04       		.byte	0x4
 9321 09c1 A601     		.uleb128 .LVL13-.LVL0
 9322 09c3 A801     		.uleb128 .LVL14-.LVL0
 9323 09c5 01       		.uleb128 0x1
 9324 09c6 50       		.byte	0x50
 9325 09c7 04       		.byte	0x4
 9326 09c8 A801     		.uleb128 .LVL14-.LVL0
 9327 09ca AE01     		.uleb128 .LFE142-.LVL0
 9328 09cc 04       		.uleb128 0x4
 9329 09cd A3       		.byte	0xa3
 9330 09ce 01       		.uleb128 0x1
 9331 09cf 50       		.byte	0x50
 9332 09d0 9F       		.byte	0x9f
 9333 09d1 00       		.byte	0
 9334              	.LVUS1:
 9335 09d2 00       		.uleb128 0
 9336 09d3 00       		.uleb128 .LVU44
 9337 09d4 00       		.uleb128 .LVU44
 9338 09d5 00       		.uleb128 .LVU67
 9339 09d6 00       		.uleb128 .LVU67
 9340 09d7 00       		.uleb128 0
 9341              	.LLST1:
 9342 09d8 06       		.byte	0x6
 9343 09d9 00000000 		.4byte	.LVL0
 9344 09dd 04       		.byte	0x4
 9345 09de 00       		.uleb128 .LVL0-.LVL0
 9346 09df 5F       		.uleb128 .LVL6-1-.LVL0
 9347 09e0 01       		.uleb128 0x1
 9348 09e1 51       		.byte	0x51
ARM GAS  C:\Users\DEVELO~1\AppData\Local\Temp\ccmc7I4c.s 			page 165


 9349 09e2 04       		.byte	0x4
 9350 09e3 5F       		.uleb128 .LVL6-1-.LVL0
 9351 09e4 A601     		.uleb128 .LVL13-.LVL0
 9352 09e6 04       		.uleb128 0x4
 9353 09e7 A3       		.byte	0xa3
 9354 09e8 01       		.uleb128 0x1
 9355 09e9 51       		.byte	0x51
 9356 09ea 9F       		.byte	0x9f
 9357 09eb 04       		.byte	0x4
 9358 09ec A601     		.uleb128 .LVL13-.LVL0
 9359 09ee AE01     		.uleb128 .LFE142-.LVL0
 9360 09f0 01       		.uleb128 0x1
 9361 09f1 51       		.byte	0x51
 9362 09f2 00       		.byte	0
 9363              	.LVUS2:
 9364 09f3 00       		.uleb128 0
 9365 09f4 00       		.uleb128 .LVU15
 9366 09f5 00       		.uleb128 .LVU15
 9367 09f6 00       		.uleb128 .LVU67
 9368 09f7 00       		.uleb128 .LVU67
 9369 09f8 00       		.uleb128 0
 9370              	.LLST2:
 9371 09f9 06       		.byte	0x6
 9372 09fa 00000000 		.4byte	.LVL0
 9373 09fe 04       		.byte	0x4
 9374 09ff 00       		.uleb128 .LVL0-.LVL0
 9375 0a00 26       		.uleb128 .LVL3-.LVL0
 9376 0a01 01       		.uleb128 0x1
 9377 0a02 52       		.byte	0x52
 9378 0a03 04       		.byte	0x4
 9379 0a04 26       		.uleb128 .LVL3-.LVL0
 9380 0a05 A601     		.uleb128 .LVL13-.LVL0
 9381 0a07 04       		.uleb128 0x4
 9382 0a08 A3       		.byte	0xa3
 9383 0a09 01       		.uleb128 0x1
 9384 0a0a 52       		.byte	0x52
 9385 0a0b 9F       		.byte	0x9f
 9386 0a0c 04       		.byte	0x4
 9387 0a0d A601     		.uleb128 .LVL13-.LVL0
 9388 0a0f AE01     		.uleb128 .LFE142-.LVL0
 9389 0a11 01       		.uleb128 0x1
 9390 0a12 52       		.byte	0x52
 9391 0a13 00       		.byte	0
 9392              	.LVUS3:
 9393 0a14 00       		.uleb128 0
 9394 0a15 00       		.uleb128 .LVU6
 9395 0a16 00       		.uleb128 .LVU6
 9396 0a17 00       		.uleb128 0
 9397              	.LLST3:
 9398 0a18 06       		.byte	0x6
 9399 0a19 00000000 		.4byte	.LVL0
 9400 0a1d 04       		.byte	0x4
 9401 0a1e 00       		.uleb128 .LVL0-.LVL0
 9402 0a1f 0A       		.uleb128 .LVL1-.LVL0
 9403 0a20 01       		.uleb128 0x1
 9404 0a21 53       		.byte	0x53
 9405 0a22 04       		.byte	0x4
ARM GAS  C:\Users\DEVELO~1\AppData\Local\Temp\ccmc7I4c.s 			page 166


 9406 0a23 0A       		.uleb128 .LVL1-.LVL0
 9407 0a24 AE01     		.uleb128 .LFE142-.LVL0
 9408 0a26 04       		.uleb128 0x4
 9409 0a27 A3       		.byte	0xa3
 9410 0a28 01       		.uleb128 0x1
 9411 0a29 53       		.byte	0x53
 9412 0a2a 9F       		.byte	0x9f
 9413 0a2b 00       		.byte	0
 9414              	.LVUS4:
 9415 0a2c 00       		.uleb128 0
 9416 0a2d 00       		.uleb128 .LVU62
 9417 0a2e 00       		.uleb128 .LVU62
 9418 0a2f 00       		.uleb128 0
 9419              	.LLST4:
 9420 0a30 06       		.byte	0x6
 9421 0a31 00000000 		.4byte	.LVL0
 9422 0a35 04       		.byte	0x4
 9423 0a36 00       		.uleb128 .LVL0-.LVL0
 9424 0a37 9201     		.uleb128 .LVL11-.LVL0
 9425 0a39 02       		.uleb128 0x2
 9426 0a3a 91       		.byte	0x91
 9427 0a3b 00       		.sleb128 0
 9428 0a3c 04       		.byte	0x4
 9429 0a3d 9201     		.uleb128 .LVL11-.LVL0
 9430 0a3f AE01     		.uleb128 .LFE142-.LVL0
 9431 0a41 02       		.uleb128 0x2
 9432 0a42 91       		.byte	0x91
 9433 0a43 00       		.sleb128 0
 9434 0a44 00       		.byte	0
 9435              	.LVUS5:
 9436 0a45 00       		.uleb128 0
 9437 0a46 00       		.uleb128 .LVU62
 9438 0a47 00       		.uleb128 .LVU62
 9439 0a48 00       		.uleb128 0
 9440              	.LLST5:
 9441 0a49 06       		.byte	0x6
 9442 0a4a 00000000 		.4byte	.LVL0
 9443 0a4e 04       		.byte	0x4
 9444 0a4f 00       		.uleb128 .LVL0-.LVL0
 9445 0a50 9201     		.uleb128 .LVL11-.LVL0
 9446 0a52 02       		.uleb128 0x2
 9447 0a53 91       		.byte	0x91
 9448 0a54 04       		.sleb128 4
 9449 0a55 04       		.byte	0x4
 9450 0a56 9201     		.uleb128 .LVL11-.LVL0
 9451 0a58 AE01     		.uleb128 .LFE142-.LVL0
 9452 0a5a 02       		.uleb128 0x2
 9453 0a5b 91       		.byte	0x91
 9454 0a5c 04       		.sleb128 4
 9455 0a5d 00       		.byte	0
 9456              	.LVUS6:
 9457 0a5e 00       		.uleb128 0
 9458 0a5f 00       		.uleb128 .LVU62
 9459 0a60 00       		.uleb128 .LVU62
 9460 0a61 00       		.uleb128 0
 9461              	.LLST6:
 9462 0a62 06       		.byte	0x6
ARM GAS  C:\Users\DEVELO~1\AppData\Local\Temp\ccmc7I4c.s 			page 167


 9463 0a63 00000000 		.4byte	.LVL0
 9464 0a67 04       		.byte	0x4
 9465 0a68 00       		.uleb128 .LVL0-.LVL0
 9466 0a69 9201     		.uleb128 .LVL11-.LVL0
 9467 0a6b 02       		.uleb128 0x2
 9468 0a6c 91       		.byte	0x91
 9469 0a6d 08       		.sleb128 8
 9470 0a6e 04       		.byte	0x4
 9471 0a6f 9201     		.uleb128 .LVL11-.LVL0
 9472 0a71 AE01     		.uleb128 .LFE142-.LVL0
 9473 0a73 02       		.uleb128 0x2
 9474 0a74 91       		.byte	0x91
 9475 0a75 08       		.sleb128 8
 9476 0a76 00       		.byte	0
 9477              	.LVUS7:
 9478 0a77 00       		.uleb128 .LVU57
 9479 0a78 00       		.uleb128 .LVU62
 9480              	.LLST7:
 9481 0a79 08       		.byte	0x8
 9482 0a7a 88000000 		.4byte	.LVL10
 9483 0a7e 0A       		.uleb128 .LVL11-.LVL10
 9484 0a7f 01       		.uleb128 0x1
 9485 0a80 50       		.byte	0x50
 9486 0a81 00       		.byte	0
 9487              	.LVUS8:
 9488 0a82 00       		.uleb128 .LVU44
 9489 0a83 00       		.uleb128 .LVU50
 9490 0a84 00       		.uleb128 .LVU62
 9491 0a85 00       		.uleb128 .LVU67
 9492              	.LLST8:
 9493 0a86 06       		.byte	0x6
 9494 0a87 60000000 		.4byte	.LVL6
 9495 0a8b 04       		.byte	0x4
 9496 0a8c 00       		.uleb128 .LVL6-.LVL6
 9497 0a8d 0A       		.uleb128 .LVL8-.LVL6
 9498 0a8e 01       		.uleb128 0x1
 9499 0a8f 50       		.byte	0x50
 9500 0a90 04       		.byte	0x4
 9501 0a91 32       		.uleb128 .LVL11-.LVL6
 9502 0a92 46       		.uleb128 .LVL13-.LVL6
 9503 0a93 01       		.uleb128 0x1
 9504 0a94 50       		.byte	0x50
 9505 0a95 00       		.byte	0
 9506              	.LVUS9:
 9507 0a96 00       		.uleb128 .LVU9
 9508 0a97 00       		.uleb128 .LVU48
 9509 0a98 00       		.uleb128 .LVU62
 9510 0a99 00       		.uleb128 .LVU66
 9511 0a9a 00       		.uleb128 .LVU66
 9512 0a9b 00       		.uleb128 .LVU67
 9513 0a9c 00       		.uleb128 .LVU67
 9514 0a9d 00       		.uleb128 0
 9515              	.LLST9:
 9516 0a9e 06       		.byte	0x6
 9517 0a9f 1A000000 		.4byte	.LVL2
 9518 0aa3 04       		.byte	0x4
 9519 0aa4 00       		.uleb128 .LVL2-.LVL2
ARM GAS  C:\Users\DEVELO~1\AppData\Local\Temp\ccmc7I4c.s 			page 168


 9520 0aa5 4E       		.uleb128 .LVL7-.LVL2
 9521 0aa6 07       		.uleb128 0x7
 9522 0aa7 78       		.byte	0x78
 9523 0aa8 00       		.sleb128 0
 9524 0aa9 0A       		.byte	0xa
 9525 0aaa FFFF     		.2byte	0xffff
 9526 0aac 1A       		.byte	0x1a
 9527 0aad 9F       		.byte	0x9f
 9528 0aae 04       		.byte	0x4
 9529 0aaf 78       		.uleb128 .LVL11-.LVL2
 9530 0ab0 8A01     		.uleb128 .LVL12-.LVL2
 9531 0ab2 07       		.uleb128 0x7
 9532 0ab3 78       		.byte	0x78
 9533 0ab4 00       		.sleb128 0
 9534 0ab5 0A       		.byte	0xa
 9535 0ab6 FFFF     		.2byte	0xffff
 9536 0ab8 1A       		.byte	0x1a
 9537 0ab9 9F       		.byte	0x9f
 9538 0aba 04       		.byte	0x4
 9539 0abb 8A01     		.uleb128 .LVL12-.LVL2
 9540 0abd 8C01     		.uleb128 .LVL13-.LVL2
 9541 0abf 09       		.uleb128 0x9
 9542 0ac0 91       		.byte	0x91
 9543 0ac1 08       		.sleb128 8
 9544 0ac2 94       		.byte	0x94
 9545 0ac3 02       		.byte	0x2
 9546 0ac4 0A       		.byte	0xa
 9547 0ac5 FFFF     		.2byte	0xffff
 9548 0ac7 1A       		.byte	0x1a
 9549 0ac8 9F       		.byte	0x9f
 9550 0ac9 04       		.byte	0x4
 9551 0aca 8C01     		.uleb128 .LVL13-.LVL2
 9552 0acc 9401     		.uleb128 .LFE142-.LVL2
 9553 0ace 07       		.uleb128 0x7
 9554 0acf 78       		.byte	0x78
 9555 0ad0 00       		.sleb128 0
 9556 0ad1 0A       		.byte	0xa
 9557 0ad2 FFFF     		.2byte	0xffff
 9558 0ad4 1A       		.byte	0x1a
 9559 0ad5 9F       		.byte	0x9f
 9560 0ad6 00       		.byte	0
 9561              	.LVUS11:
 9562 0ad7 02       		.uleb128 .LVU33
 9563 0ad8 08       		.uleb128 .LVU39
 9564              	.LLST11:
 9565 0ad9 08       		.byte	0x8
 9566 0ada 56000000 		.4byte	.LVL4
 9567 0ade 00       		.uleb128 .LVL4-.LVL4
 9568 0adf 01       		.uleb128 0x1
 9569 0ae0 55       		.byte	0x55
 9570 0ae1 00       		.byte	0
 9571              	.LVUS12:
 9572 0ae2 02       		.uleb128 .LVU33
 9573 0ae3 08       		.uleb128 .LVU39
 9574              	.LLST12:
 9575 0ae4 08       		.byte	0x8
 9576 0ae5 56000000 		.4byte	.LVL4
ARM GAS  C:\Users\DEVELO~1\AppData\Local\Temp\ccmc7I4c.s 			page 169


 9577 0ae9 00       		.uleb128 .LVL4-.LVL4
 9578 0aea 01       		.uleb128 0x1
 9579 0aeb 50       		.byte	0x50
 9580 0aec 00       		.byte	0
 9581              	.LVUS15:
 9582 0aed 00       		.uleb128 0
 9583 0aee 00       		.uleb128 .LVU102
 9584 0aef 00       		.uleb128 .LVU102
 9585 0af0 00       		.uleb128 .LVU127
 9586 0af1 00       		.uleb128 .LVU127
 9587 0af2 00       		.uleb128 .LVU130
 9588 0af3 00       		.uleb128 .LVU130
 9589 0af4 00       		.uleb128 .LVU131
 9590 0af5 00       		.uleb128 .LVU131
 9591 0af6 00       		.uleb128 .LVU132
 9592 0af7 00       		.uleb128 .LVU132
 9593 0af8 00       		.uleb128 0
 9594              	.LLST15:
 9595 0af9 06       		.byte	0x6
 9596 0afa 00000000 		.4byte	.LVL21
 9597 0afe 04       		.byte	0x4
 9598 0aff 00       		.uleb128 .LVL21-.LVL21
 9599 0b00 14       		.uleb128 .LVL22-.LVL21
 9600 0b01 01       		.uleb128 0x1
 9601 0b02 50       		.byte	0x50
 9602 0b03 04       		.byte	0x4
 9603 0b04 14       		.uleb128 .LVL22-.LVL21
 9604 0b05 6A       		.uleb128 .LVL28-.LVL21
 9605 0b06 01       		.uleb128 0x1
 9606 0b07 54       		.byte	0x54
 9607 0b08 04       		.byte	0x4
 9608 0b09 6A       		.uleb128 .LVL28-.LVL21
 9609 0b0a 71       		.uleb128 .LVL29-1-.LVL21
 9610 0b0b 01       		.uleb128 0x1
 9611 0b0c 50       		.byte	0x50
 9612 0b0d 04       		.byte	0x4
 9613 0b0e 71       		.uleb128 .LVL29-1-.LVL21
 9614 0b0f 74       		.uleb128 .LVL30-.LVL21
 9615 0b10 01       		.uleb128 0x1
 9616 0b11 54       		.byte	0x54
 9617 0b12 04       		.byte	0x4
 9618 0b13 74       		.uleb128 .LVL30-.LVL21
 9619 0b14 76       		.uleb128 .LVL31-.LVL21
 9620 0b15 01       		.uleb128 0x1
 9621 0b16 50       		.byte	0x50
 9622 0b17 04       		.byte	0x4
 9623 0b18 76       		.uleb128 .LVL31-.LVL21
 9624 0b19 78       		.uleb128 .LFE141-.LVL21
 9625 0b1a 04       		.uleb128 0x4
 9626 0b1b A3       		.byte	0xa3
 9627 0b1c 01       		.uleb128 0x1
 9628 0b1d 50       		.byte	0x50
 9629 0b1e 9F       		.byte	0x9f
 9630 0b1f 00       		.byte	0
 9631              	.LVUS69:
 9632 0b20 00       		.uleb128 0
 9633 0b21 00       		.uleb128 .LVU1096
ARM GAS  C:\Users\DEVELO~1\AppData\Local\Temp\ccmc7I4c.s 			page 170


 9634 0b22 00       		.uleb128 .LVU1096
 9635 0b23 00       		.uleb128 0
 9636              	.LLST69:
 9637 0b24 06       		.byte	0x6
 9638 0b25 00000000 		.4byte	.LVL261
 9639 0b29 04       		.byte	0x4
 9640 0b2a 00       		.uleb128 .LVL261-.LVL261
 9641 0b2b 08       		.uleb128 .LVL263-.LVL261
 9642 0b2c 01       		.uleb128 0x1
 9643 0b2d 50       		.byte	0x50
 9644 0b2e 04       		.byte	0x4
 9645 0b2f 08       		.uleb128 .LVL263-.LVL261
 9646 0b30 12       		.uleb128 .LFE165-.LVL261
 9647 0b31 01       		.uleb128 0x1
 9648 0b32 53       		.byte	0x53
 9649 0b33 00       		.byte	0
 9650              	.LVUS70:
 9651 0b34 00       		.uleb128 0
 9652 0b35 00       		.uleb128 .LVU1095
 9653 0b36 00       		.uleb128 .LVU1095
 9654 0b37 00       		.uleb128 0
 9655              	.LLST70:
 9656 0b38 06       		.byte	0x6
 9657 0b39 00000000 		.4byte	.LVL261
 9658 0b3d 04       		.byte	0x4
 9659 0b3e 00       		.uleb128 .LVL261-.LVL261
 9660 0b3f 06       		.uleb128 .LVL262-.LVL261
 9661 0b40 01       		.uleb128 0x1
 9662 0b41 51       		.byte	0x51
 9663 0b42 04       		.byte	0x4
 9664 0b43 06       		.uleb128 .LVL262-.LVL261
 9665 0b44 12       		.uleb128 .LFE165-.LVL261
 9666 0b45 04       		.uleb128 0x4
 9667 0b46 A3       		.byte	0xa3
 9668 0b47 01       		.uleb128 0x1
 9669 0b48 51       		.byte	0x51
 9670 0b49 9F       		.byte	0x9f
 9671 0b4a 00       		.byte	0
 9672              	.Ldebug_loc3:
 9673              		.section	.debug_aranges,"",%progbits
 9674 0000 AC000000 		.4byte	0xac
 9675 0004 0200     		.2byte	0x2
 9676 0006 00000000 		.4byte	.Ldebug_info0
 9677 000a 04       		.byte	0x4
 9678 000b 00       		.byte	0
 9679 000c 0000     		.2byte	0
 9680 000e 0000     		.2byte	0
 9681 0010 00000000 		.4byte	.LFB142
 9682 0014 AE000000 		.4byte	.LFE142-.LFB142
 9683 0018 00000000 		.4byte	.LFB143
 9684 001c 26000000 		.4byte	.LFE143-.LFB143
 9685 0020 00000000 		.4byte	.LFB145
 9686 0024 02000000 		.4byte	.LFE145-.LFB145
 9687 0028 00000000 		.4byte	.LFB141
 9688 002c 78000000 		.4byte	.LFE141-.LFB141
 9689 0030 00000000 		.4byte	.LFB144
 9690 0034 24000000 		.4byte	.LFE144-.LFB144
ARM GAS  C:\Users\DEVELO~1\AppData\Local\Temp\ccmc7I4c.s 			page 171


 9691 0038 00000000 		.4byte	.LFB147
 9692 003c E0000000 		.4byte	.LFE147-.LFB147
 9693 0040 00000000 		.4byte	.LFB154
 9694 0044 02000000 		.4byte	.LFE154-.LFB154
 9695 0048 00000000 		.4byte	.LFB148
 9696 004c B0090000 		.4byte	.LFE148-.LFB148
 9697 0050 00000000 		.4byte	.LFB155
 9698 0054 2C000000 		.4byte	.LFE155-.LFB155
 9699 0058 00000000 		.4byte	.LFB156
 9700 005c 26000000 		.4byte	.LFE156-.LFB156
 9701 0060 00000000 		.4byte	.LFB157
 9702 0064 06000000 		.4byte	.LFE157-.LFB157
 9703 0068 00000000 		.4byte	.LFB158
 9704 006c 06000000 		.4byte	.LFE158-.LFB158
 9705 0070 00000000 		.4byte	.LFB159
 9706 0074 0E000000 		.4byte	.LFE159-.LFB159
 9707 0078 00000000 		.4byte	.LFB160
 9708 007c 0C000000 		.4byte	.LFE160-.LFB160
 9709 0080 00000000 		.4byte	.LFB161
 9710 0084 0E000000 		.4byte	.LFE161-.LFB161
 9711 0088 00000000 		.4byte	.LFB162
 9712 008c 06000000 		.4byte	.LFE162-.LFB162
 9713 0090 00000000 		.4byte	.LFB163
 9714 0094 06000000 		.4byte	.LFE163-.LFB163
 9715 0098 00000000 		.4byte	.LFB164
 9716 009c 4A000000 		.4byte	.LFE164-.LFB164
 9717 00a0 00000000 		.4byte	.LFB165
 9718 00a4 12000000 		.4byte	.LFE165-.LFB165
 9719 00a8 00000000 		.4byte	0
 9720 00ac 00000000 		.4byte	0
 9721              		.section	.debug_rnglists,"",%progbits
 9722              	.Ldebug_ranges0:
 9723 0000 53010000 		.4byte	.Ldebug_ranges3-.Ldebug_ranges2
 9724              	.Ldebug_ranges2:
 9725 0004 0500     		.2byte	0x5
 9726 0006 04       		.byte	0x4
 9727 0007 00       		.byte	0
 9728 0008 00000000 		.4byte	0
 9729              	.LLRL10:
 9730 000c 05       		.byte	0x5
 9731 000d 36000000 		.4byte	.LBB4
 9732 0011 04       		.byte	0x4
 9733 0012 00       		.uleb128 .LBB4-.LBB4
 9734 0013 08       		.uleb128 .LBE4-.LBB4
 9735 0014 04       		.byte	0x4
 9736 0015 20       		.uleb128 .LBB7-.LBB4
 9737 0016 20       		.uleb128 .LBE7-.LBB4
 9738 0017 00       		.byte	0
 9739              	.LLRL30:
 9740 0018 05       		.byte	0x5
 9741 0019 AE000000 		.4byte	.LBB16
 9742 001d 04       		.byte	0x4
 9743 001e 00       		.uleb128 .LBB16-.LBB16
 9744 001f 14       		.uleb128 .LBE16-.LBB16
 9745 0020 04       		.byte	0x4
 9746 0021 D606     		.uleb128 .LBB67-.LBB16
 9747 0023 8407     		.uleb128 .LBE67-.LBB16
ARM GAS  C:\Users\DEVELO~1\AppData\Local\Temp\ccmc7I4c.s 			page 172


 9748 0025 04       		.byte	0x4
 9749 0026 C60B     		.uleb128 .LBB80-.LBB16
 9750 0028 FC0B     		.uleb128 .LBE80-.LBB16
 9751 002a 04       		.byte	0x4
 9752 002b C80D     		.uleb128 .LBB85-.LBB16
 9753 002d E80D     		.uleb128 .LBE85-.LBB16
 9754 002f 00       		.byte	0
 9755              	.LLRL40:
 9756 0030 05       		.byte	0x5
 9757 0031 12010000 		.4byte	.LBB21
 9758 0035 04       		.byte	0x4
 9759 0036 00       		.uleb128 .LBB21-.LBB21
 9760 0037 06       		.uleb128 .LBE21-.LBB21
 9761 0038 04       		.byte	0x4
 9762 0039 7C       		.uleb128 .LBB56-.LBB21
 9763 003a A001     		.uleb128 .LBE56-.LBB21
 9764 003c 04       		.byte	0x4
 9765 003d CE01     		.uleb128 .LBB58-.LBB21
 9766 003f 9E02     		.uleb128 .LBE58-.LBB21
 9767 0041 04       		.byte	0x4
 9768 0042 FE04     		.uleb128 .LBB65-.LBB21
 9769 0044 A205     		.uleb128 .LBE65-.LBB21
 9770 0046 04       		.byte	0x4
 9771 0047 B006     		.uleb128 .LBB69-.LBB21
 9772 0049 8607     		.uleb128 .LBE69-.LBB21
 9773 004b 04       		.byte	0x4
 9774 004c A207     		.uleb128 .LBB71-.LBB21
 9775 004e BC07     		.uleb128 .LBE71-.LBB21
 9776 0050 04       		.byte	0x4
 9777 0051 E608     		.uleb128 .LBB75-.LBB21
 9778 0053 8609     		.uleb128 .LBE75-.LBB21
 9779 0055 04       		.byte	0x4
 9780 0056 AC09     		.uleb128 .LBB77-.LBB21
 9781 0058 BE09     		.uleb128 .LBE77-.LBB21
 9782 005a 04       		.byte	0x4
 9783 005b AE0A     		.uleb128 .LBB79-.LBB21
 9784 005d E20A     		.uleb128 .LBE79-.LBB21
 9785 005f 04       		.byte	0x4
 9786 0060 C20B     		.uleb128 .LBB82-.LBB21
 9787 0062 EC0B     		.uleb128 .LBE82-.LBB21
 9788 0064 04       		.byte	0x4
 9789 0065 AA0C     		.uleb128 .LBB84-.LBB21
 9790 0067 E40C     		.uleb128 .LBE84-.LBB21
 9791 0069 04       		.byte	0x4
 9792 006a B40D     		.uleb128 .LBB87-.LBB21
 9793 006c F80D     		.uleb128 .LBE87-.LBB21
 9794 006e 04       		.byte	0x4
 9795 006f B00E     		.uleb128 .LBB89-.LBB21
 9796 0071 CA0E     		.uleb128 .LBE89-.LBB21
 9797 0073 04       		.byte	0x4
 9798 0074 E20E     		.uleb128 .LBB91-.LBB21
 9799 0076 9E11     		.uleb128 .LBE91-.LBB21
 9800 0078 00       		.byte	0
 9801              	.LLRL43:
 9802 0079 05       		.byte	0x5
 9803 007a 18010000 		.4byte	.LBB36
 9804 007e 04       		.byte	0x4
ARM GAS  C:\Users\DEVELO~1\AppData\Local\Temp\ccmc7I4c.s 			page 173


 9805 007f 00       		.uleb128 .LBB36-.LBB36
 9806 0080 46       		.uleb128 .LBE36-.LBB36
 9807 0081 04       		.byte	0x4
 9808 0082 68       		.uleb128 .LBB54-.LBB36
 9809 0083 6E       		.uleb128 .LBE54-.LBB36
 9810 0084 04       		.byte	0x4
 9811 0085 70       		.uleb128 .LBB55-.LBB36
 9812 0086 74       		.uleb128 .LBE55-.LBB36
 9813 0087 04       		.byte	0x4
 9814 0088 9A01     		.uleb128 .LBB57-.LBB36
 9815 008a C801     		.uleb128 .LBE57-.LBB36
 9816 008c 04       		.byte	0x4
 9817 008d 9802     		.uleb128 .LBB59-.LBB36
 9818 008f 8E03     		.uleb128 .LBE59-.LBB36
 9819 0091 04       		.byte	0x4
 9820 0092 9A04     		.uleb128 .LBB64-.LBB36
 9821 0094 F804     		.uleb128 .LBE64-.LBB36
 9822 0096 04       		.byte	0x4
 9823 0097 9C05     		.uleb128 .LBB66-.LBB36
 9824 0099 EC05     		.uleb128 .LBE66-.LBB36
 9825 009b 04       		.byte	0x4
 9826 009c 8007     		.uleb128 .LBB70-.LBB36
 9827 009e 9C07     		.uleb128 .LBE70-.LBB36
 9828 00a0 04       		.byte	0x4
 9829 00a1 B607     		.uleb128 .LBB72-.LBB36
 9830 00a3 D407     		.uleb128 .LBE72-.LBB36
 9831 00a5 04       		.byte	0x4
 9832 00a6 EA07     		.uleb128 .LBB74-.LBB36
 9833 00a8 E008     		.uleb128 .LBE74-.LBB36
 9834 00aa 04       		.byte	0x4
 9835 00ab 8009     		.uleb128 .LBB76-.LBB36
 9836 00ad A609     		.uleb128 .LBE76-.LBB36
 9837 00af 04       		.byte	0x4
 9838 00b0 B809     		.uleb128 .LBB78-.LBB36
 9839 00b2 9E0A     		.uleb128 .LBE78-.LBB36
 9840 00b4 04       		.byte	0x4
 9841 00b5 960B     		.uleb128 .LBB81-.LBB36
 9842 00b7 BC0B     		.uleb128 .LBE81-.LBB36
 9843 00b9 04       		.byte	0x4
 9844 00ba E60B     		.uleb128 .LBB83-.LBB36
 9845 00bc A40C     		.uleb128 .LBE83-.LBB36
 9846 00be 04       		.byte	0x4
 9847 00bf FE0C     		.uleb128 .LBB86-.LBB36
 9848 00c1 AE0D     		.uleb128 .LBE86-.LBB36
 9849 00c3 04       		.byte	0x4
 9850 00c4 F20D     		.uleb128 .LBB88-.LBB36
 9851 00c6 AA0E     		.uleb128 .LBE88-.LBB36
 9852 00c8 04       		.byte	0x4
 9853 00c9 C40E     		.uleb128 .LBB90-.LBB36
 9854 00cb DC0E     		.uleb128 .LBE90-.LBB36
 9855 00cd 00       		.byte	0
 9856              	.LLRL48:
 9857 00ce 05       		.byte	0x5
 9858 00cf BE020000 		.4byte	.LBB60
 9859 00d3 04       		.byte	0x4
 9860 00d4 00       		.uleb128 .LBB60-.LBB60
 9861 00d5 74       		.uleb128 .LBE60-.LBB60
ARM GAS  C:\Users\DEVELO~1\AppData\Local\Temp\ccmc7I4c.s 			page 174


 9862 00d6 04       		.byte	0x4
 9863 00d7 F402     		.uleb128 .LBB68-.LBB60
 9864 00d9 8403     		.uleb128 .LBE68-.LBB60
 9865 00db 04       		.byte	0x4
 9866 00dc AE04     		.uleb128 .LBB73-.LBB60
 9867 00de C404     		.uleb128 .LBE73-.LBB60
 9868 00e0 00       		.byte	0
 9869              	.LLRL71:
 9870 00e1 07       		.byte	0x7
 9871 00e2 00000000 		.4byte	.LFB142
 9872 00e6 AE01     		.uleb128 .LFE142-.LFB142
 9873 00e8 07       		.byte	0x7
 9874 00e9 00000000 		.4byte	.LFB143
 9875 00ed 26       		.uleb128 .LFE143-.LFB143
 9876 00ee 07       		.byte	0x7
 9877 00ef 00000000 		.4byte	.LFB145
 9878 00f3 02       		.uleb128 .LFE145-.LFB145
 9879 00f4 07       		.byte	0x7
 9880 00f5 00000000 		.4byte	.LFB141
 9881 00f9 78       		.uleb128 .LFE141-.LFB141
 9882 00fa 07       		.byte	0x7
 9883 00fb 00000000 		.4byte	.LFB144
 9884 00ff 24       		.uleb128 .LFE144-.LFB144
 9885 0100 07       		.byte	0x7
 9886 0101 00000000 		.4byte	.LFB147
 9887 0105 E001     		.uleb128 .LFE147-.LFB147
 9888 0107 07       		.byte	0x7
 9889 0108 00000000 		.4byte	.LFB154
 9890 010c 02       		.uleb128 .LFE154-.LFB154
 9891 010d 07       		.byte	0x7
 9892 010e 00000000 		.4byte	.LFB148
 9893 0112 B013     		.uleb128 .LFE148-.LFB148
 9894 0114 07       		.byte	0x7
 9895 0115 00000000 		.4byte	.LFB155
 9896 0119 2C       		.uleb128 .LFE155-.LFB155
 9897 011a 07       		.byte	0x7
 9898 011b 00000000 		.4byte	.LFB156
 9899 011f 26       		.uleb128 .LFE156-.LFB156
 9900 0120 07       		.byte	0x7
 9901 0121 00000000 		.4byte	.LFB157
 9902 0125 06       		.uleb128 .LFE157-.LFB157
 9903 0126 07       		.byte	0x7
 9904 0127 00000000 		.4byte	.LFB158
 9905 012b 06       		.uleb128 .LFE158-.LFB158
 9906 012c 07       		.byte	0x7
 9907 012d 00000000 		.4byte	.LFB159
 9908 0131 0E       		.uleb128 .LFE159-.LFB159
 9909 0132 07       		.byte	0x7
 9910 0133 00000000 		.4byte	.LFB160
 9911 0137 0C       		.uleb128 .LFE160-.LFB160
 9912 0138 07       		.byte	0x7
 9913 0139 00000000 		.4byte	.LFB161
 9914 013d 0E       		.uleb128 .LFE161-.LFB161
 9915 013e 07       		.byte	0x7
 9916 013f 00000000 		.4byte	.LFB162
 9917 0143 06       		.uleb128 .LFE162-.LFB162
 9918 0144 07       		.byte	0x7
ARM GAS  C:\Users\DEVELO~1\AppData\Local\Temp\ccmc7I4c.s 			page 175


 9919 0145 00000000 		.4byte	.LFB163
 9920 0149 06       		.uleb128 .LFE163-.LFB163
 9921 014a 07       		.byte	0x7
 9922 014b 00000000 		.4byte	.LFB164
 9923 014f 4A       		.uleb128 .LFE164-.LFB164
 9924 0150 07       		.byte	0x7
 9925 0151 00000000 		.4byte	.LFB165
 9926 0155 12       		.uleb128 .LFE165-.LFB165
 9927 0156 00       		.byte	0
 9928              	.Ldebug_ranges3:
 9929              		.section	.debug_line,"",%progbits
 9930              	.Ldebug_line0:
 9931 0000 49130000 		.section	.debug_str,"MS",%progbits,1
 9931      0300BA01 
 9931      00000201 
 9931      FB0E0D00 
 9931      01010101 
 9932              	.LASF219:
 9933 0000 48414C5F 		.ascii	"HAL_HCD_MspDeInit\000"
 9933      4843445F 
 9933      4D737044 
 9933      65496E69 
 9933      7400
 9934              	.LASF196:
 9935 0012 48414C5F 		.ascii	"HAL_HCD_GetCurrentSpeed\000"
 9935      4843445F 
 9935      47657443 
 9935      75727265 
 9935      6E745370 
 9936              	.LASF230:
 9937 002a 433A5C43 		.ascii	"C:\\ChibiStudio\\ChibiOS-master\\demos\\STM32\\CUST"
 9937      68696269 
 9937      53747564 
 9937      696F5C43 
 9937      68696269 
 9938 0058 4F4D5F48 		.ascii	"OM_H743IIT6_maj\000"
 9938      37343349 
 9938      4954365F 
 9938      6D616A00 
 9939              	.LASF206:
 9940 0068 48414C5F 		.ascii	"HAL_HCD_PortEnabled_Callback\000"
 9940      4843445F 
 9940      506F7274 
 9940      456E6162 
 9940      6C65645F 
 9941              	.LASF176:
 9942 0085 55534278 		.ascii	"USBx\000"
 9942      00
 9943              	.LASF149:
 9944 008a 496E6974 		.ascii	"Init\000"
 9944      00
 9945              	.LASF141:
 9946 008f 48414C5F 		.ascii	"HAL_HCD_STATE_TIMEOUT\000"
 9946      4843445F 
 9946      53544154 
 9946      455F5449 
 9946      4D454F55 
ARM GAS  C:\Users\DEVELO~1\AppData\Local\Temp\ccmc7I4c.s 			page 176


 9947              	.LASF200:
 9948 00a5 48414C5F 		.ascii	"HAL_HCD_HC_GetURBState\000"
 9948      4843445F 
 9948      48435F47 
 9948      65745552 
 9948      42537461 
 9949              	.LASF4:
 9950 00bc 5F5F7569 		.ascii	"__uint8_t\000"
 9950      6E74385F 
 9950      7400
 9951              	.LASF17:
 9952 00c6 47414842 		.ascii	"GAHBCFG\000"
 9952      43464700 
 9953              	.LASF64:
 9954 00ce 48414C5F 		.ascii	"HAL_BUSY\000"
 9954      42555359 
 9954      00
 9955              	.LASF215:
 9956 00d7 64697265 		.ascii	"direction\000"
 9956      6374696F 
 9956      6E00
 9957              	.LASF163:
 9958 00e1 5553425F 		.ascii	"USB_InitFSLSPClkSel\000"
 9958      496E6974 
 9958      46534C53 
 9958      50436C6B 
 9958      53656C00 
 9959              	.LASF56:
 9960 00f5 52657365 		.ascii	"Reserved\000"
 9960      72766564 
 9960      00
 9961              	.LASF103:
 9962 00fe 7573655F 		.ascii	"use_dedicated_ep1\000"
 9962      64656469 
 9962      63617465 
 9962      645F6570 
 9962      3100
 9963              	.LASF24:
 9964 0110 47525846 		.ascii	"GRXFSIZ\000"
 9964      53495A00 
 9965              	.LASF146:
 9966 0118 4843445F 		.ascii	"HCD_URBStateTypeDef\000"
 9966      55524253 
 9966      74617465 
 9966      54797065 
 9966      44656600 
 9967              	.LASF11:
 9968 012c 6C6F6E67 		.ascii	"long long unsigned int\000"
 9968      206C6F6E 
 9968      6720756E 
 9968      7369676E 
 9968      65642069 
 9969              	.LASF193:
 9970 0143 61646472 		.ascii	"addr\000"
 9970      00
 9971              	.LASF68:
 9972 0148 48414C5F 		.ascii	"HAL_LOCKED\000"
ARM GAS  C:\Users\DEVELO~1\AppData\Local\Temp\ccmc7I4c.s 			page 177


 9972      4C4F434B 
 9972      454400
 9973              	.LASF112:
 9974 0153 646F5F63 		.ascii	"do_csplit\000"
 9974      73706C69 
 9974      7400
 9975              	.LASF137:
 9976 015d 48414C5F 		.ascii	"HAL_HCD_STATE_RESET\000"
 9976      4843445F 
 9976      53544154 
 9976      455F5245 
 9976      53455400 
 9977              	.LASF81:
 9978 0171 48435F49 		.ascii	"HC_IDLE\000"
 9978      444C4500 
 9979              	.LASF34:
 9980 0179 474C504D 		.ascii	"GLPMCFG\000"
 9980      43464700 
 9981              	.LASF143:
 9982 0181 4843445F 		.ascii	"HCD_TypeDef\000"
 9982      54797065 
 9982      44656600 
 9983              	.LASF102:
 9984 018d 76627573 		.ascii	"vbus_sensing_enable\000"
 9984      5F73656E 
 9984      73696E67 
 9984      5F656E61 
 9984      626C6500 
 9985              	.LASF92:
 9986 01a1 6465765F 		.ascii	"dev_endpoints\000"
 9986      656E6470 
 9986      6F696E74 
 9986      7300
 9987              	.LASF157:
 9988 01af 5553425F 		.ascii	"USB_StopHost\000"
 9988      53746F70 
 9988      486F7374 
 9988      00
 9989              	.LASF48:
 9990 01bc 4841494E 		.ascii	"HAINTMSK\000"
 9990      544D534B 
 9990      00
 9991              	.LASF10:
 9992 01c5 6C6F6E67 		.ascii	"long long int\000"
 9992      206C6F6E 
 9992      6720696E 
 9992      7400
 9993              	.LASF185:
 9994 01d3 47727873 		.ascii	"GrxstspReg\000"
 9994      74737052 
 9994      656700
 9995              	.LASF106:
 9996 01de 6465765F 		.ascii	"dev_addr\000"
 9996      61646472 
 9996      00
 9997              	.LASF54:
 9998 01e7 48435453 		.ascii	"HCTSIZ\000"
ARM GAS  C:\Users\DEVELO~1\AppData\Local\Temp\ccmc7I4c.s 			page 178


 9998      495A00
 9999              	.LASF9:
 10000 01ee 6C6F6E67 		.ascii	"long unsigned int\000"
 10000      20756E73 
 10000      69676E65 
 10000      6420696E 
 10000      7400
 10001              	.LASF195:
 10002 0200 48414C5F 		.ascii	"HAL_HCD_HC_SetHubInfo\000"
 10002      4843445F 
 10002      48435F53 
 10002      65744875 
 10002      62496E66 
 10003              	.LASF140:
 10004 0216 48414C5F 		.ascii	"HAL_HCD_STATE_BUSY\000"
 10004      4843445F 
 10004      53544154 
 10004      455F4255 
 10004      535900
 10005              	.LASF107:
 10006 0229 63685F6E 		.ascii	"ch_num\000"
 10006      756D00
 10007              	.LASF204:
 10008 0230 48414C5F 		.ascii	"HAL_HCD_Start\000"
 10008      4843445F 
 10008      53746172 
 10008      7400
 10009              	.LASF213:
 10010 023e 696E7465 		.ascii	"interrupt\000"
 10010      72727570 
 10010      7400
 10011              	.LASF192:
 10012 0248 48414C5F 		.ascii	"HAL_HCD_HC_ClearHubInfo\000"
 10012      4843445F 
 10012      48435F43 
 10012      6C656172 
 10012      48756249 
 10013              	.LASF187:
 10014 0260 746D7072 		.ascii	"tmpreg\000"
 10014      656700
 10015              	.LASF69:
 10016 0267 48414C5F 		.ascii	"HAL_LockTypeDef\000"
 10016      4C6F636B 
 10016      54797065 
 10016      44656600 
 10017              	.LASF212:
 10018 0277 486F7374 		.ascii	"HostCoreSpeed\000"
 10018      436F7265 
 10018      53706565 
 10018      6400
 10019              	.LASF164:
 10020 0285 5553425F 		.ascii	"USB_FlushRxFifo\000"
 10020      466C7573 
 10020      68527846 
 10020      69666F00 
 10021              	.LASF130:
 10022 0295 73746174 		.ascii	"state\000"
ARM GAS  C:\Users\DEVELO~1\AppData\Local\Temp\ccmc7I4c.s 			page 179


 10022      6500
 10023              	.LASF7:
 10024 029b 6C6F6E67 		.ascii	"long int\000"
 10024      20696E74 
 10024      00
 10025              	.LASF80:
 10026 02a4 5553425F 		.ascii	"USB_URBStateTypeDef\000"
 10026      55524253 
 10026      74617465 
 10026      54797065 
 10026      44656600 
 10027              	.LASF160:
 10028 02b8 5553425F 		.ascii	"USB_ReadPacket\000"
 10028      52656164 
 10028      5061636B 
 10028      657400
 10029              	.LASF97:
 10030 02c7 7068795F 		.ascii	"phy_itface\000"
 10030      69746661 
 10030      636500
 10031              	.LASF121:
 10032 02d2 58666572 		.ascii	"XferSize\000"
 10032      53697A65 
 10032      00
 10033              	.LASF198:
 10034 02db 48414C5F 		.ascii	"HAL_HCD_HC_GetState\000"
 10034      4843445F 
 10034      48435F47 
 10034      65745374 
 10034      61746500 
 10035              	.LASF44:
 10036 02ef 48464E55 		.ascii	"HFNUM\000"
 10036      4D00
 10037              	.LASF116:
 10038 02f5 6875625F 		.ascii	"hub_addr\000"
 10038      61646472 
 10038      00
 10039              	.LASF83:
 10040 02fe 48435F48 		.ascii	"HC_HALTED\000"
 10040      414C5445 
 10040      4400
 10041              	.LASF13:
 10042 0308 75696E74 		.ascii	"uint16_t\000"
 10042      31365F74 
 10042      00
 10043              	.LASF178:
 10044 0311 68707274 		.ascii	"hprt0\000"
 10044      3000
 10045              	.LASF138:
 10046 0317 48414C5F 		.ascii	"HAL_HCD_STATE_READY\000"
 10046      4843445F 
 10046      53544154 
 10046      455F5245 
 10046      41445900 
 10047              	.LASF203:
 10048 032b 48414C5F 		.ascii	"HAL_HCD_Stop\000"
 10048      4843445F 
ARM GAS  C:\Users\DEVELO~1\AppData\Local\Temp\ccmc7I4c.s 			page 180


 10048      53746F70 
 10048      00
 10049              	.LASF147:
 10050 0338 4843445F 		.ascii	"HCD_HCStateTypeDef\000"
 10050      48435374 
 10050      61746554 
 10050      79706544 
 10050      656600
 10051              	.LASF208:
 10052 034b 48414C5F 		.ascii	"HAL_HCD_Connect_Callback\000"
 10052      4843445F 
 10052      436F6E6E 
 10052      6563745F 
 10052      43616C6C 
 10053              	.LASF36:
 10054 0364 47444649 		.ascii	"GDFIFOCFG\000"
 10054      464F4346 
 10054      4700
 10055              	.LASF71:
 10056 036e 5553425F 		.ascii	"USB_HOST_MODE\000"
 10056      484F5354 
 10056      5F4D4F44 
 10056      4500
 10057              	.LASF153:
 10058 037c 70446174 		.ascii	"pData\000"
 10058      6100
 10059              	.LASF159:
 10060 0382 5553425F 		.ascii	"USB_DriveVbus\000"
 10060      44726976 
 10060      65566275 
 10060      7300
 10061              	.LASF55:
 10062 0390 4843444D 		.ascii	"HCDMA\000"
 10062      4100
 10063              	.LASF110:
 10064 0396 646F5F70 		.ascii	"do_ping\000"
 10064      696E6700 
 10065              	.LASF199:
 10066 039e 48414C5F 		.ascii	"HAL_HCD_HC_GetXferCount\000"
 10066      4843445F 
 10066      48435F47 
 10066      65745866 
 10066      6572436F 
 10067              	.LASF25:
 10068 03b6 44494550 		.ascii	"DIEPTXF0_HNPTXFSIZ\000"
 10068      54584630 
 10068      5F484E50 
 10068      54584653 
 10068      495A00
 10069              	.LASF93:
 10070 03c9 486F7374 		.ascii	"Host_channels\000"
 10070      5F636861 
 10070      6E6E656C 
 10070      7300
 10071              	.LASF16:
 10072 03d7 474F5447 		.ascii	"GOTGINT\000"
 10072      494E5400 
ARM GAS  C:\Users\DEVELO~1\AppData\Local\Temp\ccmc7I4c.s 			page 181


 10073              	.LASF180:
 10074 03df 4843445F 		.ascii	"HCD_Port_IRQHandler\000"
 10074      506F7274 
 10074      5F495251 
 10074      48616E64 
 10074      6C657200 
 10075              	.LASF65:
 10076 03f3 48414C5F 		.ascii	"HAL_TIMEOUT\000"
 10076      54494D45 
 10076      4F555400 
 10077              	.LASF226:
 10078 03ff 48436368 		.ascii	"HCcharMps\000"
 10078      61724D70 
 10078      7300
 10079              	.LASF223:
 10080 0409 65706E75 		.ascii	"epnum\000"
 10080      6D00
 10081              	.LASF189:
 10082 040f 4843445F 		.ascii	"HCD_HC_OUT_IRQHandler\000"
 10082      48435F4F 
 10082      55545F49 
 10082      52514861 
 10082      6E646C65 
 10083              	.LASF224:
 10084 0425 6465765F 		.ascii	"dev_address\000"
 10084      61646472 
 10084      65737300 
 10085              	.LASF133:
 10086 0431 5553425F 		.ascii	"USB_OTG_CfgTypeDef\000"
 10086      4F54475F 
 10086      43666754 
 10086      79706544 
 10086      656600
 10087              	.LASF197:
 10088 0444 48414C5F 		.ascii	"HAL_HCD_GetCurrentFrame\000"
 10088      4843445F 
 10088      47657443 
 10088      75727265 
 10088      6E744672 
 10089              	.LASF49:
 10090 045c 5553425F 		.ascii	"USB_OTG_HostTypeDef\000"
 10090      4F54475F 
 10090      486F7374 
 10090      54797065 
 10090      44656600 
 10091              	.LASF87:
 10092 0470 48435F53 		.ascii	"HC_STALL\000"
 10092      54414C4C 
 10092      00
 10093              	.LASF181:
 10094 0479 4843445F 		.ascii	"HCD_RXQLVL_IRQHandler\000"
 10094      5258514C 
 10094      564C5F49 
 10094      52514861 
 10094      6E646C65 
 10095              	.LASF104:
 10096 048f 7573655F 		.ascii	"use_external_vbus\000"
ARM GAS  C:\Users\DEVELO~1\AppData\Local\Temp\ccmc7I4c.s 			page 182


 10096      65787465 
 10096      726E616C 
 10096      5F766275 
 10096      7300
 10097              	.LASF191:
 10098 04a1 4843445F 		.ascii	"HCD_HC_IN_IRQHandler\000"
 10098      48435F49 
 10098      4E5F4952 
 10098      5148616E 
 10098      646C6572 
 10099              	.LASF35:
 10100 04b6 47505752 		.ascii	"GPWRDN\000"
 10100      444E00
 10101              	.LASF51:
 10102 04bd 48435350 		.ascii	"HCSPLT\000"
 10102      4C5400
 10103              	.LASF30:
 10104 04c4 47485743 		.ascii	"GHWCFG1\000"
 10104      46473100 
 10105              	.LASF31:
 10106 04cc 47485743 		.ascii	"GHWCFG2\000"
 10106      46473200 
 10107              	.LASF128:
 10108 04d4 4E796574 		.ascii	"NyetErrCnt\000"
 10108      45727243 
 10108      6E7400
 10109              	.LASF33:
 10110 04df 52657365 		.ascii	"Reserved6\000"
 10110      72766564 
 10110      3600
 10111              	.LASF6:
 10112 04e9 73686F72 		.ascii	"short unsigned int\000"
 10112      7420756E 
 10112      7369676E 
 10112      65642069 
 10112      6E7400
 10113              	.LASF131:
 10114 04fc 5553425F 		.ascii	"USB_HCTypeDef\000"
 10114      48435479 
 10114      70654465 
 10114      6600
 10115              	.LASF20:
 10116 050a 47494E54 		.ascii	"GINTSTS\000"
 10116      53545300 
 10117              	.LASF113:
 10118 0512 65705F73 		.ascii	"ep_ss_schedule\000"
 10118      735F7363 
 10118      68656475 
 10118      6C6500
 10119              	.LASF152:
 10120 0521 4572726F 		.ascii	"ErrorCode\000"
 10120      72436F64 
 10120      6500
 10121              	.LASF150:
 10122 052b 4C6F636B 		.ascii	"Lock\000"
 10122      00
 10123              	.LASF19:
ARM GAS  C:\Users\DEVELO~1\AppData\Local\Temp\ccmc7I4c.s 			page 183


 10124 0530 47525354 		.ascii	"GRSTCTL\000"
 10124      43544C00 
 10125              	.LASF66:
 10126 0538 48414C5F 		.ascii	"HAL_StatusTypeDef\000"
 10126      53746174 
 10126      75735479 
 10126      70654465 
 10126      6600
 10127              	.LASF142:
 10128 054a 4843445F 		.ascii	"HCD_StateTypeDef\000"
 10128      53746174 
 10128      65547970 
 10128      65446566 
 10128      00
 10129              	.LASF182:
 10130 055b 68686364 		.ascii	"hhcd\000"
 10130      00
 10131              	.LASF109:
 10132 0560 65705F69 		.ascii	"ep_is_in\000"
 10132      735F696E 
 10132      00
 10133              	.LASF194:
 10134 0569 506F7274 		.ascii	"PortNbr\000"
 10134      4E627200 
 10135              	.LASF201:
 10136 0571 48414C5F 		.ascii	"HAL_HCD_GetState\000"
 10136      4843445F 
 10136      47657453 
 10136      74617465 
 10136      00
 10137              	.LASF129:
 10138 0582 7572625F 		.ascii	"urb_state\000"
 10138      73746174 
 10138      6500
 10139              	.LASF175:
 10140 058c 5553425F 		.ascii	"USB_DisableGlobalInt\000"
 10140      44697361 
 10140      626C6547 
 10140      6C6F6261 
 10140      6C496E74 
 10141              	.LASF135:
 10142 05a1 5553425F 		.ascii	"USB_OTG_HCStateTypeDef\000"
 10142      4F54475F 
 10142      48435374 
 10142      61746554 
 10142      79706544 
 10143              	.LASF171:
 10144 05b8 5553425F 		.ascii	"USB_GetHostSpeed\000"
 10144      47657448 
 10144      6F737453 
 10144      70656564 
 10144      00
 10145              	.LASF122:
 10146 05c9 78666572 		.ascii	"xfer_len\000"
 10146      5F6C656E 
 10146      00
 10147              	.LASF77:
ARM GAS  C:\Users\DEVELO~1\AppData\Local\Temp\ccmc7I4c.s 			page 184


 10148 05d2 5552425F 		.ascii	"URB_NYET\000"
 10148      4E594554 
 10148      00
 10149              	.LASF119:
 10150 05db 64617461 		.ascii	"data_pid\000"
 10150      5F706964 
 10150      00
 10151              	.LASF23:
 10152 05e4 47525853 		.ascii	"GRXSTSP\000"
 10152      54535000 
 10153              	.LASF22:
 10154 05ec 47525853 		.ascii	"GRXSTSR\000"
 10154      54535200 
 10155              	.LASF29:
 10156 05f4 47534E50 		.ascii	"GSNPSID\000"
 10156      53494400 
 10157              	.LASF123:
 10158 05fc 78666572 		.ascii	"xfer_count\000"
 10158      5F636F75 
 10158      6E7400
 10159              	.LASF211:
 10160 0607 48414C5F 		.ascii	"HAL_HCD_IRQHandler\000"
 10160      4843445F 
 10160      49525148 
 10160      616E646C 
 10160      657200
 10161              	.LASF229:
 10162 061a 2E2F6472 		.ascii	"./drivers/stm32h7xx-hal-driver/Src/stm32h7xx_hal_hc"
 10162      69766572 
 10162      732F7374 
 10162      6D333268 
 10162      3778782D 
 10163 064d 642E6300 		.ascii	"d.c\000"
 10164              	.LASF62:
 10165 0651 48414C5F 		.ascii	"HAL_OK\000"
 10165      4F4B00
 10166              	.LASF183:
 10167 0658 706B7473 		.ascii	"pktsts\000"
 10167      747300
 10168              	.LASF98:
 10169 065f 536F665F 		.ascii	"Sof_enable\000"
 10169      656E6162 
 10169      6C6500
 10170              	.LASF70:
 10171 066a 5553425F 		.ascii	"USB_DEVICE_MODE\000"
 10171      44455649 
 10171      43455F4D 
 10171      4F444500 
 10172              	.LASF75:
 10173 067a 5552425F 		.ascii	"URB_DONE\000"
 10173      444F4E45 
 10173      00
 10174              	.LASF217:
 10175 0683 70627566 		.ascii	"pbuff\000"
 10175      6600
 10176              	.LASF186:
 10177 0689 78666572 		.ascii	"xferSizePktCnt\000"
ARM GAS  C:\Users\DEVELO~1\AppData\Local\Temp\ccmc7I4c.s 			page 185


 10177      53697A65 
 10177      506B7443 
 10177      6E7400
 10178              	.LASF221:
 10179 0698 48414C5F 		.ascii	"HAL_HCD_HC_Halt\000"
 10179      4843445F 
 10179      48435F48 
 10179      616C7400 
 10180              	.LASF136:
 10181 06a8 5553425F 		.ascii	"USB_OTG_HCTypeDef\000"
 10181      4F54475F 
 10181      48435479 
 10181      70654465 
 10181      6600
 10182              	.LASF53:
 10183 06ba 4843494E 		.ascii	"HCINTMSK\000"
 10183      544D534B 
 10183      00
 10184              	.LASF124:
 10185 06c3 746F6767 		.ascii	"toggle_in\000"
 10185      6C655F69 
 10185      6E00
 10186              	.LASF52:
 10187 06cd 4843494E 		.ascii	"HCINT\000"
 10187      5400
 10188              	.LASF94:
 10189 06d3 646D615F 		.ascii	"dma_enable\000"
 10189      656E6162 
 10189      6C6500
 10190              	.LASF27:
 10191 06de 52657365 		.ascii	"Reserved30\000"
 10191      72766564 
 10191      333000
 10192              	.LASF42:
 10193 06e9 48434647 		.ascii	"HCFG\000"
 10193      00
 10194              	.LASF111:
 10195 06ee 646F5F73 		.ascii	"do_ssplit\000"
 10195      73706C69 
 10195      7400
 10196              	.LASF89:
 10197 06f8 48435F42 		.ascii	"HC_BBLERR\000"
 10197      424C4552 
 10197      5200
 10198              	.LASF134:
 10199 0702 5553425F 		.ascii	"USB_OTG_URBStateTypeDef\000"
 10199      4F54475F 
 10199      55524253 
 10199      74617465 
 10199      54797065 
 10200              	.LASF166:
 10201 071a 5553425F 		.ascii	"USB_ReadInterrupts\000"
 10201      52656164 
 10201      496E7465 
 10201      72727570 
 10201      747300
 10202              	.LASF158:
ARM GAS  C:\Users\DEVELO~1\AppData\Local\Temp\ccmc7I4c.s 			page 186


 10203 072d 5553425F 		.ascii	"USB_EnableGlobalInt\000"
 10203      456E6162 
 10203      6C65476C 
 10203      6F62616C 
 10203      496E7400 
 10204              	.LASF18:
 10205 0741 47555342 		.ascii	"GUSBCFG\000"
 10205      43464700 
 10206              	.LASF60:
 10207 0749 666C6F61 		.ascii	"float\000"
 10207      7400
 10208              	.LASF216:
 10209 074f 746F6B65 		.ascii	"token\000"
 10209      6E00
 10210              	.LASF148:
 10211 0755 496E7374 		.ascii	"Instance\000"
 10211      616E6365 
 10211      00
 10212              	.LASF184:
 10213 075e 706B7463 		.ascii	"pktcnt\000"
 10213      6E7400
 10214              	.LASF114:
 10215 0765 69736F5F 		.ascii	"iso_splt_xactPos\000"
 10215      73706C74 
 10215      5F786163 
 10215      74506F73 
 10215      00
 10216              	.LASF214:
 10217 0776 48414C5F 		.ascii	"HAL_HCD_HC_SubmitRequest\000"
 10217      4843445F 
 10217      48435F53 
 10217      75626D69 
 10217      74526571 
 10218              	.LASF167:
 10219 078f 5553425F 		.ascii	"USB_GetMode\000"
 10219      4765744D 
 10219      6F646500 
 10220              	.LASF169:
 10221 079b 5553425F 		.ascii	"USB_HC_Halt\000"
 10221      48435F48 
 10221      616C7400 
 10222              	.LASF161:
 10223 07a7 5553425F 		.ascii	"USB_ReadChInterrupts\000"
 10223      52656164 
 10223      4368496E 
 10223      74657272 
 10223      75707473 
 10224              	.LASF227:
 10225 07bc 48414C5F 		.ascii	"HAL_HCD_Init\000"
 10225      4843445F 
 10225      496E6974 
 10225      00
 10226              	.LASF3:
 10227 07c9 756E7369 		.ascii	"unsigned char\000"
 10227      676E6564 
 10227      20636861 
 10227      7200
ARM GAS  C:\Users\DEVELO~1\AppData\Local\Temp\ccmc7I4c.s 			page 187


 10228              	.LASF172:
 10229 07d7 5553425F 		.ascii	"USB_HostInit\000"
 10229      486F7374 
 10229      496E6974 
 10229      00
 10230              	.LASF43:
 10231 07e4 48464952 		.ascii	"HFIR\000"
 10231      00
 10232              	.LASF45:
 10233 07e9 52657365 		.ascii	"Reserved40C\000"
 10233      72766564 
 10233      34304300 
 10234              	.LASF1:
 10235 07f5 73686F72 		.ascii	"short int\000"
 10235      7420696E 
 10235      7400
 10236              	.LASF21:
 10237 07ff 47494E54 		.ascii	"GINTMSK\000"
 10237      4D534B00 
 10238              	.LASF222:
 10239 0807 48414C5F 		.ascii	"HAL_HCD_HC_Init\000"
 10239      4843445F 
 10239      48435F49 
 10239      6E697400 
 10240              	.LASF165:
 10241 0817 5553425F 		.ascii	"USB_FlushTxFifo\000"
 10241      466C7573 
 10241      68547846 
 10241      69666F00 
 10242              	.LASF90:
 10243 0827 48435F44 		.ascii	"HC_DATATGLERR\000"
 10243      41544154 
 10243      474C4552 
 10243      5200
 10244              	.LASF154:
 10245 0835 4843445F 		.ascii	"HCD_HandleTypeDef\000"
 10245      48616E64 
 10245      6C655479 
 10245      70654465 
 10245      6600
 10246              	.LASF207:
 10247 0847 48414C5F 		.ascii	"HAL_HCD_Disconnect_Callback\000"
 10247      4843445F 
 10247      44697363 
 10247      6F6E6E65 
 10247      63745F43 
 10248              	.LASF38:
 10249 0863 52657365 		.ascii	"Reserved43\000"
 10249      72766564 
 10249      343300
 10250              	.LASF78:
 10251 086e 5552425F 		.ascii	"URB_ERROR\000"
 10251      4552524F 
 10251      5200
 10252              	.LASF74:
 10253 0878 5552425F 		.ascii	"URB_IDLE\000"
 10253      49444C45 
ARM GAS  C:\Users\DEVELO~1\AppData\Local\Temp\ccmc7I4c.s 			page 188


 10253      00
 10254              	.LASF105:
 10255 0881 5553425F 		.ascii	"USB_CfgTypeDef\000"
 10255      43666754 
 10255      79706544 
 10255      656600
 10256              	.LASF173:
 10257 0890 5553425F 		.ascii	"USB_SetCurrentMode\000"
 10257      53657443 
 10257      75727265 
 10257      6E744D6F 
 10257      646500
 10258              	.LASF101:
 10259 08a3 62617474 		.ascii	"battery_charging_enable\000"
 10259      6572795F 
 10259      63686172 
 10259      67696E67 
 10259      5F656E61 
 10260              	.LASF174:
 10261 08bb 5553425F 		.ascii	"USB_CoreInit\000"
 10261      436F7265 
 10261      496E6974 
 10261      00
 10262              	.LASF14:
 10263 08c8 75696E74 		.ascii	"uint32_t\000"
 10263      33325F74 
 10263      00
 10264              	.LASF205:
 10265 08d1 48414C5F 		.ascii	"HAL_HCD_PortDisabled_Callback\000"
 10265      4843445F 
 10265      506F7274 
 10265      44697361 
 10265      626C6564 
 10266              	.LASF108:
 10267 08ef 65705F6E 		.ascii	"ep_num\000"
 10267      756D00
 10268              	.LASF63:
 10269 08f6 48414C5F 		.ascii	"HAL_ERROR\000"
 10269      4552524F 
 10269      5200
 10270              	.LASF220:
 10271 0900 48414C5F 		.ascii	"HAL_HCD_DeInit\000"
 10271      4843445F 
 10271      4465496E 
 10271      697400
 10272              	.LASF155:
 10273 090f 5553425F 		.ascii	"USB_GetCurrentFrame\000"
 10273      47657443 
 10273      75727265 
 10273      6E744672 
 10273      616D6500 
 10274              	.LASF59:
 10275 0923 63686172 		.ascii	"char\000"
 10275      00
 10276              	.LASF58:
 10277 0928 6C6F6E67 		.ascii	"long double\000"
 10277      20646F75 
ARM GAS  C:\Users\DEVELO~1\AppData\Local\Temp\ccmc7I4c.s 			page 189


 10277      626C6500 
 10278              	.LASF218:
 10279 0934 6C656E67 		.ascii	"length\000"
 10279      746800
 10280              	.LASF72:
 10281 093b 5553425F 		.ascii	"USB_DRD_MODE\000"
 10281      4452445F 
 10281      4D4F4445 
 10281      00
 10282              	.LASF190:
 10283 0948 6E756D5F 		.ascii	"num_packets\000"
 10283      7061636B 
 10283      65747300 
 10284              	.LASF85:
 10285 0954 48435F4E 		.ascii	"HC_NAK\000"
 10285      414B00
 10286              	.LASF168:
 10287 095b 5553425F 		.ascii	"USB_HC_StartXfer\000"
 10287      48435F53 
 10287      74617274 
 10287      58666572 
 10287      00
 10288              	.LASF47:
 10289 096c 4841494E 		.ascii	"HAINT\000"
 10289      5400
 10290              	.LASF151:
 10291 0972 53746174 		.ascii	"State\000"
 10291      6500
 10292              	.LASF170:
 10293 0978 5553425F 		.ascii	"USB_HC_Init\000"
 10293      48435F49 
 10293      6E697400 
 10294              	.LASF5:
 10295 0984 5F5F7569 		.ascii	"__uint16_t\000"
 10295      6E743136 
 10295      5F7400
 10296              	.LASF118:
 10297 098f 6D61785F 		.ascii	"max_packet\000"
 10297      7061636B 
 10297      657400
 10298              	.LASF76:
 10299 099a 5552425F 		.ascii	"URB_NOTREADY\000"
 10299      4E4F5452 
 10299      45414459 
 10299      00
 10300              	.LASF228:
 10301 09a7 474E5520 		.ascii	"GNU C17 11.3.1 20220712 -mcpu=cortex-m7 -mthumb -mf"
 10301      43313720 
 10301      31312E33 
 10301      2E312032 
 10301      30323230 
 10302 09da 6C6F6174 		.ascii	"loat-abi=hard -mfpu=fpv5-d16 -march=armv7e-m+fp.dp "
 10302      2D616269 
 10302      3D686172 
 10302      64202D6D 
 10302      6670753D 
 10303 0a0d 2D676764 		.ascii	"-ggdb -O2 -ffunction-sections -fdata-sections -fno-"
ARM GAS  C:\Users\DEVELO~1\AppData\Local\Temp\ccmc7I4c.s 			page 190


 10303      62202D4F 
 10303      32202D66 
 10303      66756E63 
 10303      74696F6E 
 10304 0a40 636F6D6D 		.ascii	"common\000"
 10304      6F6E00
 10305              	.LASF41:
 10306 0a47 5553425F 		.ascii	"USB_OTG_GlobalTypeDef\000"
 10306      4F54475F 
 10306      476C6F62 
 10306      616C5479 
 10306      70654465 
 10307              	.LASF125:
 10308 0a5d 746F6767 		.ascii	"toggle_out\000"
 10308      6C655F6F 
 10308      757400
 10309              	.LASF177:
 10310 0a68 55534278 		.ascii	"USBx_BASE\000"
 10310      5F424153 
 10310      4500
 10311              	.LASF12:
 10312 0a72 75696E74 		.ascii	"uint8_t\000"
 10312      385F7400 
 10313              	.LASF115:
 10314 0a7a 6875625F 		.ascii	"hub_port_nbr\000"
 10314      706F7274 
 10314      5F6E6272 
 10314      00
 10315              	.LASF162:
 10316 0a87 5553425F 		.ascii	"USB_HC_ReadInterrupt\000"
 10316      48435F52 
 10316      65616449 
 10316      6E746572 
 10316      72757074 
 10317              	.LASF96:
 10318 0a9c 6570305F 		.ascii	"ep0_mps\000"
 10318      6D707300 
 10319              	.LASF144:
 10320 0aa4 4843445F 		.ascii	"HCD_InitTypeDef\000"
 10320      496E6974 
 10320      54797065 
 10320      44656600 
 10321              	.LASF88:
 10322 0ab4 48435F58 		.ascii	"HC_XACTERR\000"
 10322      41435445 
 10322      525200
 10323              	.LASF15:
 10324 0abf 474F5447 		.ascii	"GOTGCTL\000"
 10324      43544C00 
 10325              	.LASF231:
 10326 0ac7 48414C5F 		.ascii	"HAL_HCD_MspInit\000"
 10326      4843445F 
 10326      4D737049 
 10326      6E697400 
 10327              	.LASF84:
 10328 0ad7 48435F41 		.ascii	"HC_ACK\000"
 10328      434B00
ARM GAS  C:\Users\DEVELO~1\AppData\Local\Temp\ccmc7I4c.s 			page 191


 10329              	.LASF179:
 10330 0ade 68707274 		.ascii	"hprt0_dup\000"
 10330      305F6475 
 10330      7000
 10331              	.LASF8:
 10332 0ae8 5F5F7569 		.ascii	"__uint32_t\000"
 10332      6E743332 
 10332      5F7400
 10333              	.LASF117:
 10334 0af3 65705F74 		.ascii	"ep_type\000"
 10334      79706500 
 10335              	.LASF46:
 10336 0afb 48505458 		.ascii	"HPTXSTS\000"
 10336      53545300 
 10337              	.LASF37:
 10338 0b03 47414450 		.ascii	"GADPCTL\000"
 10338      43544C00 
 10339              	.LASF120:
 10340 0b0b 78666572 		.ascii	"xfer_buff\000"
 10340      5F627566 
 10340      6600
 10341              	.LASF39:
 10342 0b15 48505458 		.ascii	"HPTXFSIZ\000"
 10342      4653495A 
 10342      00
 10343              	.LASF86:
 10344 0b1e 48435F4E 		.ascii	"HC_NYET\000"
 10344      59455400 
 10345              	.LASF225:
 10346 0b26 73746174 		.ascii	"status\000"
 10346      757300
 10347              	.LASF82:
 10348 0b2d 48435F58 		.ascii	"HC_XFRC\000"
 10348      46524300 
 10349              	.LASF57:
 10350 0b35 5553425F 		.ascii	"USB_OTG_HostChannelTypeDef\000"
 10350      4F54475F 
 10350      486F7374 
 10350      4368616E 
 10350      6E656C54 
 10351              	.LASF100:
 10352 0b50 6C706D5F 		.ascii	"lpm_enable\000"
 10352      656E6162 
 10352      6C6500
 10353              	.LASF132:
 10354 0b5b 5553425F 		.ascii	"USB_OTG_ModeTypeDef\000"
 10354      4F54475F 
 10354      4D6F6465 
 10354      54797065 
 10354      44656600 
 10355              	.LASF126:
 10356 0b6f 646D615F 		.ascii	"dma_addr\000"
 10356      61646472 
 10356      00
 10357              	.LASF91:
 10358 0b78 5553425F 		.ascii	"USB_HCStateTypeDef\000"
 10358      48435374 
ARM GAS  C:\Users\DEVELO~1\AppData\Local\Temp\ccmc7I4c.s 			page 192


 10358      61746554 
 10358      79706544 
 10358      656600
 10359              	.LASF32:
 10360 0b8b 47485743 		.ascii	"GHWCFG3\000"
 10360      46473300 
 10361              	.LASF79:
 10362 0b93 5552425F 		.ascii	"URB_STALL\000"
 10362      5354414C 
 10362      4C00
 10363              	.LASF156:
 10364 0b9d 5553425F 		.ascii	"USB_ResetPort\000"
 10364      52657365 
 10364      74506F72 
 10364      7400
 10365              	.LASF73:
 10366 0bab 5553425F 		.ascii	"USB_ModeTypeDef\000"
 10366      4D6F6465 
 10366      54797065 
 10366      44656600 
 10367              	.LASF145:
 10368 0bbb 4843445F 		.ascii	"HCD_HCTypeDef\000"
 10368      48435479 
 10368      70654465 
 10368      6600
 10369              	.LASF127:
 10370 0bc9 45727243 		.ascii	"ErrCnt\000"
 10370      6E7400
 10371              	.LASF28:
 10372 0bd0 47434346 		.ascii	"GCCFG\000"
 10372      4700
 10373              	.LASF95:
 10374 0bd6 73706565 		.ascii	"speed\000"
 10374      6400
 10375              	.LASF202:
 10376 0bdc 48414C5F 		.ascii	"HAL_HCD_ResetPort\000"
 10376      4843445F 
 10376      52657365 
 10376      74506F72 
 10376      7400
 10377              	.LASF210:
 10378 0bee 48414C5F 		.ascii	"HAL_HCD_HC_NotifyURBChange_Callback\000"
 10378      4843445F 
 10378      48435F4E 
 10378      6F746966 
 10378      79555242 
 10379              	.LASF50:
 10380 0c12 48434348 		.ascii	"HCCHAR\000"
 10380      415200
 10381              	.LASF188:
 10382 0c19 63686E75 		.ascii	"chnum\000"
 10382      6D00
 10383              	.LASF67:
 10384 0c1f 48414C5F 		.ascii	"HAL_UNLOCKED\000"
 10384      554E4C4F 
 10384      434B4544 
 10384      00
ARM GAS  C:\Users\DEVELO~1\AppData\Local\Temp\ccmc7I4c.s 			page 193


 10385              	.LASF2:
 10386 0c2c 7369676E 		.ascii	"signed char\000"
 10386      65642063 
 10386      68617200 
 10387              	.LASF40:
 10388 0c38 44494550 		.ascii	"DIEPTXF\000"
 10388      54584600 
 10389              	.LASF209:
 10390 0c40 48414C5F 		.ascii	"HAL_HCD_SOF_Callback\000"
 10390      4843445F 
 10390      534F465F 
 10390      43616C6C 
 10390      6261636B 
 10391              	.LASF99:
 10392 0c55 6C6F775F 		.ascii	"low_power_enable\000"
 10392      706F7765 
 10392      725F656E 
 10392      61626C65 
 10392      00
 10393              	.LASF61:
 10394 0c66 646F7562 		.ascii	"double\000"
 10394      6C6500
 10395              	.LASF26:
 10396 0c6d 484E5054 		.ascii	"HNPTXSTS\000"
 10396      58535453 
 10396      00
 10397              	.LASF0:
 10398 0c76 756E7369 		.ascii	"unsigned int\000"
 10398      676E6564 
 10398      20696E74 
 10398      00
 10399              	.LASF139:
 10400 0c83 48414C5F 		.ascii	"HAL_HCD_STATE_ERROR\000"
 10400      4843445F 
 10400      53544154 
 10400      455F4552 
 10400      524F5200 
 10401              		.ident	"GCC: (Arm GNU Toolchain 11.3.Rel1) 11.3.1 20220712"
ARM GAS  C:\Users\DEVELO~1\AppData\Local\Temp\ccmc7I4c.s 			page 194


DEFINED SYMBOLS
                            *ABS*:00000000 stm32h7xx_hal_hcd.c
C:\Users\DEVELO~1\AppData\Local\Temp\ccmc7I4c.s:19     .text.HAL_HCD_HC_Init:00000000 $t
C:\Users\DEVELO~1\AppData\Local\Temp\ccmc7I4c.s:26     .text.HAL_HCD_HC_Init:00000000 HAL_HCD_HC_Init
C:\Users\DEVELO~1\AppData\Local\Temp\ccmc7I4c.s:207    .text.HAL_HCD_HC_Halt:00000000 $t
C:\Users\DEVELO~1\AppData\Local\Temp\ccmc7I4c.s:214    .text.HAL_HCD_HC_Halt:00000000 HAL_HCD_HC_Halt
C:\Users\DEVELO~1\AppData\Local\Temp\ccmc7I4c.s:270    .text.HAL_HCD_MspInit:00000000 $t
C:\Users\DEVELO~1\AppData\Local\Temp\ccmc7I4c.s:277    .text.HAL_HCD_MspInit:00000000 HAL_HCD_MspInit
C:\Users\DEVELO~1\AppData\Local\Temp\ccmc7I4c.s:292    .text.HAL_HCD_Init:00000000 $t
C:\Users\DEVELO~1\AppData\Local\Temp\ccmc7I4c.s:299    .text.HAL_HCD_Init:00000000 HAL_HCD_Init
C:\Users\DEVELO~1\AppData\Local\Temp\ccmc7I4c.s:426    .text.HAL_HCD_MspDeInit:00000000 $t
C:\Users\DEVELO~1\AppData\Local\Temp\ccmc7I4c.s:433    .text.HAL_HCD_MspDeInit:00000000 HAL_HCD_MspDeInit
C:\Users\DEVELO~1\AppData\Local\Temp\ccmc7I4c.s:444    .text.HAL_HCD_DeInit:00000000 $t
C:\Users\DEVELO~1\AppData\Local\Temp\ccmc7I4c.s:451    .text.HAL_HCD_DeInit:00000000 HAL_HCD_DeInit
C:\Users\DEVELO~1\AppData\Local\Temp\ccmc7I4c.s:503    .text.HAL_HCD_HC_SubmitRequest:00000000 $t
C:\Users\DEVELO~1\AppData\Local\Temp\ccmc7I4c.s:510    .text.HAL_HCD_HC_SubmitRequest:00000000 HAL_HCD_HC_SubmitRequest
C:\Users\DEVELO~1\AppData\Local\Temp\ccmc7I4c.s:619    .text.HAL_HCD_HC_SubmitRequest:00000074 $d
C:\Users\DEVELO~1\AppData\Local\Temp\ccmc7I4c.s:623    .text.HAL_HCD_HC_SubmitRequest:00000078 $t
C:\Users\DEVELO~1\AppData\Local\Temp\ccmc7I4c.s:729    .text.HAL_HCD_SOF_Callback:00000000 $t
C:\Users\DEVELO~1\AppData\Local\Temp\ccmc7I4c.s:736    .text.HAL_HCD_SOF_Callback:00000000 HAL_HCD_SOF_Callback
C:\Users\DEVELO~1\AppData\Local\Temp\ccmc7I4c.s:747    .text.HAL_HCD_Connect_Callback:00000000 $t
C:\Users\DEVELO~1\AppData\Local\Temp\ccmc7I4c.s:754    .text.HAL_HCD_Connect_Callback:00000000 HAL_HCD_Connect_Callback
C:\Users\DEVELO~1\AppData\Local\Temp\ccmc7I4c.s:765    .text.HAL_HCD_Disconnect_Callback:00000000 $t
C:\Users\DEVELO~1\AppData\Local\Temp\ccmc7I4c.s:772    .text.HAL_HCD_Disconnect_Callback:00000000 HAL_HCD_Disconnect_Callback
C:\Users\DEVELO~1\AppData\Local\Temp\ccmc7I4c.s:783    .text.HAL_HCD_PortEnabled_Callback:00000000 $t
C:\Users\DEVELO~1\AppData\Local\Temp\ccmc7I4c.s:790    .text.HAL_HCD_PortEnabled_Callback:00000000 HAL_HCD_PortEnabled_Callback
C:\Users\DEVELO~1\AppData\Local\Temp\ccmc7I4c.s:801    .text.HAL_HCD_PortDisabled_Callback:00000000 $t
C:\Users\DEVELO~1\AppData\Local\Temp\ccmc7I4c.s:808    .text.HAL_HCD_PortDisabled_Callback:00000000 HAL_HCD_PortDisabled_Callback
C:\Users\DEVELO~1\AppData\Local\Temp\ccmc7I4c.s:819    .text.HAL_HCD_HC_NotifyURBChange_Callback:00000000 $t
C:\Users\DEVELO~1\AppData\Local\Temp\ccmc7I4c.s:826    .text.HAL_HCD_HC_NotifyURBChange_Callback:00000000 HAL_HCD_HC_NotifyURBChange_Callback
C:\Users\DEVELO~1\AppData\Local\Temp\ccmc7I4c.s:843    .text.HAL_HCD_IRQHandler:00000000 $t
C:\Users\DEVELO~1\AppData\Local\Temp\ccmc7I4c.s:850    .text.HAL_HCD_IRQHandler:00000000 HAL_HCD_IRQHandler
C:\Users\DEVELO~1\AppData\Local\Temp\ccmc7I4c.s:1994   .text.HAL_HCD_IRQHandler:00000538 $d
C:\Users\DEVELO~1\AppData\Local\Temp\ccmc7I4c.s:2002   .text.HAL_HCD_IRQHandler:00000558 $t
C:\Users\DEVELO~1\AppData\Local\Temp\ccmc7I4c.s:2804   .text.HAL_HCD_IRQHandler:000008f8 $d
C:\Users\DEVELO~1\AppData\Local\Temp\ccmc7I4c.s:2811   .text.HAL_HCD_IRQHandler:00000914 $t
C:\Users\DEVELO~1\AppData\Local\Temp\ccmc7I4c.s:2930   .text.HAL_HCD_Start:00000000 $t
C:\Users\DEVELO~1\AppData\Local\Temp\ccmc7I4c.s:2937   .text.HAL_HCD_Start:00000000 HAL_HCD_Start
C:\Users\DEVELO~1\AppData\Local\Temp\ccmc7I4c.s:2996   .text.HAL_HCD_Stop:00000000 $t
C:\Users\DEVELO~1\AppData\Local\Temp\ccmc7I4c.s:3003   .text.HAL_HCD_Stop:00000000 HAL_HCD_Stop
C:\Users\DEVELO~1\AppData\Local\Temp\ccmc7I4c.s:3058   .text.HAL_HCD_ResetPort:00000000 $t
C:\Users\DEVELO~1\AppData\Local\Temp\ccmc7I4c.s:3065   .text.HAL_HCD_ResetPort:00000000 HAL_HCD_ResetPort
C:\Users\DEVELO~1\AppData\Local\Temp\ccmc7I4c.s:3084   .text.HAL_HCD_GetState:00000000 $t
C:\Users\DEVELO~1\AppData\Local\Temp\ccmc7I4c.s:3091   .text.HAL_HCD_GetState:00000000 HAL_HCD_GetState
C:\Users\DEVELO~1\AppData\Local\Temp\ccmc7I4c.s:3109   .text.HAL_HCD_HC_GetURBState:00000000 $t
C:\Users\DEVELO~1\AppData\Local\Temp\ccmc7I4c.s:3116   .text.HAL_HCD_HC_GetURBState:00000000 HAL_HCD_HC_GetURBState
C:\Users\DEVELO~1\AppData\Local\Temp\ccmc7I4c.s:3138   .text.HAL_HCD_HC_GetXferCount:00000000 $t
C:\Users\DEVELO~1\AppData\Local\Temp\ccmc7I4c.s:3145   .text.HAL_HCD_HC_GetXferCount:00000000 HAL_HCD_HC_GetXferCount
C:\Users\DEVELO~1\AppData\Local\Temp\ccmc7I4c.s:3167   .text.HAL_HCD_HC_GetState:00000000 $t
C:\Users\DEVELO~1\AppData\Local\Temp\ccmc7I4c.s:3174   .text.HAL_HCD_HC_GetState:00000000 HAL_HCD_HC_GetState
C:\Users\DEVELO~1\AppData\Local\Temp\ccmc7I4c.s:3196   .text.HAL_HCD_GetCurrentFrame:00000000 $t
C:\Users\DEVELO~1\AppData\Local\Temp\ccmc7I4c.s:3203   .text.HAL_HCD_GetCurrentFrame:00000000 HAL_HCD_GetCurrentFrame
C:\Users\DEVELO~1\AppData\Local\Temp\ccmc7I4c.s:3222   .text.HAL_HCD_GetCurrentSpeed:00000000 $t
C:\Users\DEVELO~1\AppData\Local\Temp\ccmc7I4c.s:3229   .text.HAL_HCD_GetCurrentSpeed:00000000 HAL_HCD_GetCurrentSpeed
C:\Users\DEVELO~1\AppData\Local\Temp\ccmc7I4c.s:3248   .text.HAL_HCD_HC_SetHubInfo:00000000 $t
C:\Users\DEVELO~1\AppData\Local\Temp\ccmc7I4c.s:3255   .text.HAL_HCD_HC_SetHubInfo:00000000 HAL_HCD_HC_SetHubInfo
C:\Users\DEVELO~1\AppData\Local\Temp\ccmc7I4c.s:3338   .text.HAL_HCD_HC_ClearHubInfo:00000000 $t
ARM GAS  C:\Users\DEVELO~1\AppData\Local\Temp\ccmc7I4c.s 			page 195


C:\Users\DEVELO~1\AppData\Local\Temp\ccmc7I4c.s:3345   .text.HAL_HCD_HC_ClearHubInfo:00000000 HAL_HCD_HC_ClearHubInfo

UNDEFINED SYMBOLS
USB_GetHostSpeed
USB_HC_Init
USB_HC_Halt
USB_DisableGlobalInt
USB_CoreInit
USB_SetCurrentMode
USB_HostInit
USB_HC_StartXfer
USB_GetMode
USB_ReadInterrupts
USB_FlushTxFifo
USB_FlushRxFifo
USB_HC_ReadInterrupt
USB_ReadChInterrupts
USB_InitFSLSPClkSel
USB_ReadPacket
USB_DriveVbus
USB_EnableGlobalInt
USB_StopHost
USB_ResetPort
USB_GetCurrentFrame
