ARM GAS  C:\Users\DEVELO~1\AppData\Local\Temp\ccY0vS6N.s 			page 1


   1              		.cpu cortex-m7
   2              		.arch armv7e-m
   3              		.fpu fpv5-d16
   4              		.eabi_attribute 28, 1
   5              		.eabi_attribute 20, 1
   6              		.eabi_attribute 21, 1
   7              		.eabi_attribute 23, 3
   8              		.eabi_attribute 24, 1
   9              		.eabi_attribute 25, 1
  10              		.eabi_attribute 26, 1
  11              		.eabi_attribute 30, 2
  12              		.eabi_attribute 34, 1
  13              		.eabi_attribute 18, 4
  14              		.file	"stm32h7xx_hal_flash_ex.c"
  15              		.text
  16              	.Ltext0:
  17              		.cfi_sections	.debug_frame
  18              		.section	.text.FLASH_MassErase,"ax",%progbits
  19              		.align	1
  20              		.p2align 2,,3
  21              		.syntax unified
  22              		.thumb
  23              		.thumb_func
  24              		.type	FLASH_MassErase, %function
  25              	FLASH_MassErase:
  26              	.LVL0:
  27              	.LFB150:
  28              		.file 1 "./drivers/stm32h7xx-hal-driver/Src/stm32h7xx_hal_flash_ex.c"
  29              		.loc 1 1104 1 view -0
  30              		.cfi_startproc
  31              		@ args = 0, pretend = 0, frame = 0
  32              		@ frame_needed = 0, uses_anonymous_args = 0
  33              		@ link register save eliminated.
  34              		.loc 1 1107 3 view .LVU1
  35              		.loc 1 1111 3 view .LVU2
  36              		.loc 1 1115 3 view .LVU3
  37              		.loc 1 1115 13 is_stmt 0 view .LVU4
  38 0000 01F00303 		and	r3, r1, #3
  39              		.loc 1 1115 5 view .LVU5
  40 0004 032B     		cmp	r3, #3
  41 0006 22D0     		beq	.L12
  42              	.LVL1:
  43              	.LBB22:
  44              	.LBI22:
  45              		.loc 1 1103 13 is_stmt 1 view .LVU6
  46              	.LBB23:
  47              		.loc 1 1134 5 view .LVU7
  48              		.loc 1 1134 7 is_stmt 0 view .LVU8
  49 0008 CA07     		lsls	r2, r1, #31
  50 000a 0BD5     		bpl	.L4
  51              		.loc 1 1138 7 is_stmt 1 view .LVU9
  52              		.loc 1 1138 18 is_stmt 0 view .LVU10
  53 000c 1C4B     		ldr	r3, .L13
  54 000e DA68     		ldr	r2, [r3, #12]
  55 0010 22F03002 		bic	r2, r2, #48
  56 0014 DA60     		str	r2, [r3, #12]
  57              		.loc 1 1139 7 is_stmt 1 view .LVU11
ARM GAS  C:\Users\DEVELO~1\AppData\Local\Temp\ccY0vS6N.s 			page 2


  58              		.loc 1 1139 18 is_stmt 0 view .LVU12
  59 0016 DA68     		ldr	r2, [r3, #12]
  60 0018 0243     		orrs	r2, r2, r0
  61 001a DA60     		str	r2, [r3, #12]
  62              		.loc 1 1143 7 is_stmt 1 view .LVU13
  63              		.loc 1 1143 18 is_stmt 0 view .LVU14
  64 001c DA68     		ldr	r2, [r3, #12]
  65 001e 42F08802 		orr	r2, r2, #136
  66 0022 DA60     		str	r2, [r3, #12]
  67              	.L4:
  68              		.loc 1 1147 5 is_stmt 1 view .LVU15
  69              		.loc 1 1147 7 is_stmt 0 view .LVU16
  70 0024 8B07     		lsls	r3, r1, #30
  71 0026 11D5     		bpl	.L1
  72              		.loc 1 1151 7 is_stmt 1 view .LVU17
  73              		.loc 1 1151 18 is_stmt 0 view .LVU18
  74 0028 154B     		ldr	r3, .L13
  75 002a D3F80C21 		ldr	r2, [r3, #268]
  76 002e 22F03002 		bic	r2, r2, #48
  77 0032 C3F80C21 		str	r2, [r3, #268]
  78              		.loc 1 1152 7 is_stmt 1 view .LVU19
  79              		.loc 1 1152 18 is_stmt 0 view .LVU20
  80 0036 D3F80C21 		ldr	r2, [r3, #268]
  81 003a 1043     		orrs	r0, r0, r2
  82              	.LVL2:
  83              		.loc 1 1152 18 view .LVU21
  84 003c C3F80C01 		str	r0, [r3, #268]
  85              		.loc 1 1156 7 is_stmt 1 view .LVU22
  86              		.loc 1 1156 18 is_stmt 0 view .LVU23
  87 0040 D3F80C21 		ldr	r2, [r3, #268]
  88 0044 42F08802 		orr	r2, r2, #136
  89 0048 C3F80C21 		str	r2, [r3, #268]
  90              	.LVL3:
  91              	.L1:
  92              		.loc 1 1156 18 view .LVU24
  93              	.LBE23:
  94              	.LBE22:
  95              		.loc 1 1160 1 view .LVU25
  96 004c 7047     		bx	lr
  97              	.LVL4:
  98              	.L12:
  99              		.loc 1 1119 5 is_stmt 1 view .LVU26
 100              		.loc 1 1119 16 is_stmt 0 view .LVU27
 101 004e 0C4B     		ldr	r3, .L13
 102 0050 DA68     		ldr	r2, [r3, #12]
 103 0052 22F03002 		bic	r2, r2, #48
 104 0056 DA60     		str	r2, [r3, #12]
 105              		.loc 1 1120 5 is_stmt 1 view .LVU28
 106              		.loc 1 1120 16 is_stmt 0 view .LVU29
 107 0058 D3F80C21 		ldr	r2, [r3, #268]
 108 005c 22F03002 		bic	r2, r2, #48
 109 0060 C3F80C21 		str	r2, [r3, #268]
 110              		.loc 1 1123 5 is_stmt 1 view .LVU30
 111              		.loc 1 1123 16 is_stmt 0 view .LVU31
 112 0064 DA68     		ldr	r2, [r3, #12]
 113 0066 0243     		orrs	r2, r2, r0
 114 0068 DA60     		str	r2, [r3, #12]
ARM GAS  C:\Users\DEVELO~1\AppData\Local\Temp\ccY0vS6N.s 			page 3


 115              		.loc 1 1124 5 is_stmt 1 view .LVU32
 116              		.loc 1 1124 16 is_stmt 0 view .LVU33
 117 006a D3F80C21 		ldr	r2, [r3, #268]
 118 006e 0243     		orrs	r2, r2, r0
 119 0070 C3F80C21 		str	r2, [r3, #268]
 120              		.loc 1 1128 5 is_stmt 1 view .LVU34
 121              		.loc 1 1128 18 is_stmt 0 view .LVU35
 122 0074 9A69     		ldr	r2, [r3, #24]
 123 0076 42F01002 		orr	r2, r2, #16
 124 007a 9A61     		str	r2, [r3, #24]
 125 007c 7047     		bx	lr
 126              	.L14:
 127 007e 00BF     		.align	2
 128              	.L13:
 129 0080 00200052 		.word	1375739904
 130              		.cfi_endproc
 131              	.LFE150:
 132              		.size	FLASH_MassErase, .-FLASH_MassErase
 133              		.section	.text.HAL_FLASHEx_OBProgram,"ax",%progbits
 134              		.align	1
 135              		.p2align 2,,3
 136              		.global	HAL_FLASHEx_OBProgram
 137              		.syntax unified
 138              		.thumb
 139              		.thumb_func
 140              		.type	HAL_FLASHEx_OBProgram, %function
 141              	HAL_FLASHEx_OBProgram:
 142              	.LVL5:
 143              	.LFB143:
 144              		.loc 1 425 1 is_stmt 1 view -0
 145              		.cfi_startproc
 146              		@ args = 0, pretend = 0, frame = 0
 147              		@ frame_needed = 0, uses_anonymous_args = 0
 148              		.loc 1 426 3 view .LVU37
 149              		.loc 1 429 3 view .LVU38
 150              		.loc 1 432 3 view .LVU39
 151              		.loc 1 432 3 view .LVU40
 152              		.loc 1 425 1 is_stmt 0 view .LVU41
 153 0000 F8B5     		push	{r3, r4, r5, r6, r7, lr}
 154              		.cfi_def_cfa_offset 24
 155              		.cfi_offset 3, -24
 156              		.cfi_offset 4, -20
 157              		.cfi_offset 5, -16
 158              		.cfi_offset 6, -12
 159              		.cfi_offset 7, -8
 160              		.cfi_offset 14, -4
 161              		.loc 1 432 3 view .LVU42
 162 0002 8A4C     		ldr	r4, .L119
 163 0004 237D     		ldrb	r3, [r4, #20]	@ zero_extendqisi2
 164 0006 012B     		cmp	r3, #1
 165 0008 6ED0     		beq	.L49
 166              		.loc 1 432 3 is_stmt 1 discriminator 2 view .LVU43
 167 000a 0121     		movs	r1, #1
 168              		.loc 1 435 20 is_stmt 0 discriminator 2 view .LVU44
 169 000c 0023     		movs	r3, #0
 170 000e 0546     		mov	r5, r0
 171              		.loc 1 438 6 discriminator 2 view .LVU45
ARM GAS  C:\Users\DEVELO~1\AppData\Local\Temp\ccY0vS6N.s 			page 4


 172 0010 4CF25030 		movw	r0, #50000
 173              	.LVL6:
 174              		.loc 1 432 3 discriminator 2 view .LVU46
 175 0014 2175     		strb	r1, [r4, #20]
 176              		.loc 1 432 3 is_stmt 1 discriminator 2 view .LVU47
 177              		.loc 1 435 3 discriminator 2 view .LVU48
 178              		.loc 1 435 20 is_stmt 0 discriminator 2 view .LVU49
 179 0016 A361     		str	r3, [r4, #24]
 180              		.loc 1 438 3 is_stmt 1 discriminator 2 view .LVU50
 181              		.loc 1 438 6 is_stmt 0 discriminator 2 view .LVU51
 182 0018 FFF7FEFF 		bl	FLASH_WaitForLastOperation
 183              	.LVL7:
 184              		.loc 1 438 5 discriminator 2 view .LVU52
 185 001c 18B1     		cbz	r0, .L17
 186              	.L19:
 187              		.loc 1 440 12 view .LVU53
 188 001e 0120     		movs	r0, #1
 189              	.LVL8:
 190              	.L18:
 191              		.loc 1 553 3 is_stmt 1 view .LVU54
 192              		.loc 1 553 3 view .LVU55
 193 0020 0023     		movs	r3, #0
 194 0022 2375     		strb	r3, [r4, #20]
 195              		.loc 1 553 3 view .LVU56
 196              		.loc 1 555 3 view .LVU57
 197              		.loc 1 556 1 is_stmt 0 view .LVU58
 198 0024 F8BD     		pop	{r3, r4, r5, r6, r7, pc}
 199              	.LVL9:
 200              	.L17:
 201              		.loc 1 443 8 is_stmt 1 view .LVU59
 202              		.loc 1 443 11 is_stmt 0 view .LVU60
 203 0026 0221     		movs	r1, #2
 204 0028 4CF25030 		movw	r0, #50000
 205 002c FFF7FEFF 		bl	FLASH_WaitForLastOperation
 206              	.LVL10:
 207              		.loc 1 443 10 view .LVU61
 208 0030 0028     		cmp	r0, #0
 209 0032 F4D1     		bne	.L19
 210              		.loc 1 450 5 is_stmt 1 view .LVU62
 211              	.LVL11:
 212              		.loc 1 453 3 view .LVU63
 213              		.loc 1 456 5 view .LVU64
 214              		.loc 1 456 16 is_stmt 0 view .LVU65
 215 0034 2B68     		ldr	r3, [r5]
 216              		.loc 1 456 7 view .LVU66
 217 0036 DF07     		lsls	r7, r3, #31
 218 0038 16D5     		bpl	.L21
 219              		.loc 1 458 7 is_stmt 1 view .LVU67
 220              		.loc 1 460 7 view .LVU68
 221              		.loc 1 460 9 is_stmt 0 view .LVU69
 222 003a 6A68     		ldr	r2, [r5, #4]
 223 003c 012A     		cmp	r2, #1
 224 003e 55D0     		beq	.L115
 225              		.loc 1 468 9 is_stmt 1 view .LVU70
 226 0040 E969     		ldr	r1, [r5, #28]
 227 0042 AA68     		ldr	r2, [r5, #8]
 228              	.LVL12:
ARM GAS  C:\Users\DEVELO~1\AppData\Local\Temp\ccY0vS6N.s 			page 5


 229              	.LBB40:
 230              	.LBI40:
 231              		.loc 1 1272 13 view .LVU71
 232              	.LBB41:
 233              		.loc 1 1275 3 view .LVU72
 234              		.loc 1 1276 3 view .LVU73
 235              		.loc 1 1278 3 view .LVU74
 236              		.loc 1 1278 5 is_stmt 0 view .LVU75
 237 0044 CF07     		lsls	r7, r1, #31
 238 0046 06D5     		bpl	.L25
 239              		.loc 1 1281 5 is_stmt 1 view .LVU76
 240              		.loc 1 1281 22 is_stmt 0 view .LVU77
 241 0048 794F     		ldr	r7, .L119+4
 242              		.loc 1 1281 36 view .LVU78
 243 004a D6B2     		uxtb	r6, r2
 244              		.loc 1 1281 22 view .LVU79
 245 004c D7F83CC0 		ldr	ip, [r7, #60]
 246 0050 46EA0C06 		orr	r6, r6, ip
 247 0054 FE63     		str	r6, [r7, #60]
 248              	.L25:
 249              		.loc 1 1285 3 is_stmt 1 view .LVU80
 250              		.loc 1 1285 5 is_stmt 0 view .LVU81
 251 0056 8E07     		lsls	r6, r1, #30
 252 0058 06D5     		bpl	.L21
 253              		.loc 1 1288 5 is_stmt 1 view .LVU82
 254              		.loc 1 1288 22 is_stmt 0 view .LVU83
 255 005a 7549     		ldr	r1, .L119+4
 256              	.LVL13:
 257              		.loc 1 1288 36 view .LVU84
 258 005c D2B2     		uxtb	r2, r2
 259              	.LVL14:
 260              		.loc 1 1288 22 view .LVU85
 261 005e D1F83C61 		ldr	r6, [r1, #316]
 262 0062 3243     		orrs	r2, r2, r6
 263 0064 C1F83C21 		str	r2, [r1, #316]
 264              	.L21:
 265              		.loc 1 1288 22 view .LVU86
 266              	.LBE41:
 267              	.LBE40:
 268              		.loc 1 473 5 is_stmt 1 view .LVU87
 269              		.loc 1 473 7 is_stmt 0 view .LVU88
 270 0068 9907     		lsls	r1, r3, #30
 271 006a 06D5     		bpl	.L26
 272              		.loc 1 476 7 is_stmt 1 view .LVU89
 273              	.LVL15:
 274              	.LBB42:
 275              	.LBI42:
 276              		.loc 1 1357 13 view .LVU90
 277              	.LBB43:
 278              		.loc 1 1360 3 view .LVU91
 279              		.loc 1 1363 3 view .LVU92
 280 006c 7049     		ldr	r1, .L119+4
 281 006e EE68     		ldr	r6, [r5, #12]
 282 0070 0A6A     		ldr	r2, [r1, #32]
 283 0072 22F47F42 		bic	r2, r2, #65280
 284 0076 3243     		orrs	r2, r2, r6
 285 0078 0A62     		str	r2, [r1, #32]
ARM GAS  C:\Users\DEVELO~1\AppData\Local\Temp\ccY0vS6N.s 			page 6


 286              	.LVL16:
 287              	.L26:
 288              		.loc 1 1363 3 is_stmt 0 view .LVU93
 289              	.LBE43:
 290              	.LBE42:
 291              		.loc 1 480 5 is_stmt 1 view .LVU94
 292              		.loc 1 480 7 is_stmt 0 view .LVU95
 293 007a 5A07     		lsls	r2, r3, #29
 294 007c 00F18B80 		bmi	.L116
 295              	.L27:
 296              		.loc 1 487 5 is_stmt 1 view .LVU96
 297              		.loc 1 487 7 is_stmt 0 view .LVU97
 298 0080 1A07     		lsls	r2, r3, #28
 299 0082 62D4     		bmi	.L117
 300              	.L38:
 301              		.loc 1 496 5 is_stmt 1 view .LVU98
 302              		.loc 1 496 7 is_stmt 0 view .LVU99
 303 0084 DF06     		lsls	r7, r3, #27
 304 0086 06D5     		bpl	.L41
 305              		.loc 1 498 7 is_stmt 1 view .LVU100
 306              	.LVL17:
 307              	.LBB44:
 308              	.LBI44:
 309              		.loc 1 1737 13 view .LVU101
 310              	.LBB45:
 311              		.loc 1 1739 3 view .LVU102
 312              		.loc 1 1742 3 view .LVU103
 313 0088 6949     		ldr	r1, .L119+4
 314 008a 2E69     		ldr	r6, [r5, #16]
 315 008c 0A6A     		ldr	r2, [r1, #32]
 316 008e 22F00C02 		bic	r2, r2, #12
 317 0092 3243     		orrs	r2, r2, r6
 318 0094 0A62     		str	r2, [r1, #32]
 319              	.LVL18:
 320              	.L41:
 321              		.loc 1 1742 3 is_stmt 0 view .LVU104
 322              	.LBE45:
 323              	.LBE44:
 324              		.loc 1 515 5 is_stmt 1 view .LVU105
 325              		.loc 1 515 7 is_stmt 0 view .LVU106
 326 0096 5E06     		lsls	r6, r3, #25
 327 0098 40D4     		bmi	.L118
 328              	.L43:
 329              		.loc 1 522 5 is_stmt 1 view .LVU107
 330              		.loc 1 522 7 is_stmt 0 view .LVU108
 331 009a 9B06     		lsls	r3, r3, #26
 332 009c C0D5     		bpl	.L18
 333              		.loc 1 524 7 is_stmt 1 view .LVU109
 334 009e EE69     		ldr	r6, [r5, #28]
 335 00a0 2A6C     		ldr	r2, [r5, #64]
 336              	.LBB46:
 337              	.LBB47:
 338              		.loc 1 1897 5 is_stmt 0 view .LVU110
 339 00a2 F707     		lsls	r7, r6, #31
 340              	.LBE47:
 341              	.LBE46:
 342              		.loc 1 524 7 view .LVU111
ARM GAS  C:\Users\DEVELO~1\AppData\Local\Temp\ccY0vS6N.s 			page 7


 343 00a4 D5E90E31 		ldrd	r3, r1, [r5, #56]
 344              	.LVL19:
 345              	.LBB49:
 346              	.LBI46:
 347              		.loc 1 1891 13 is_stmt 1 view .LVU112
 348              	.LBB48:
 349              		.loc 1 1894 3 view .LVU113
 350              		.loc 1 1895 3 view .LVU114
 351              		.loc 1 1897 3 view .LVU115
 352              		.loc 1 1897 5 is_stmt 0 view .LVU116
 353 00a8 0DD5     		bpl	.L47
 354              		.loc 1 1900 5 is_stmt 1 view .LVU117
 355              		.loc 1 1901 5 view .LVU118
 356              		.loc 1 1904 5 view .LVU119
 357              		.loc 1 1904 46 is_stmt 0 view .LVU120
 358 00aa 01F17847 		add	r7, r1, #-134217728
 359              		.loc 1 1906 42 view .LVU121
 360 00ae 03F00045 		and	r5, r3, #-2147483648
 361              	.LVL20:
 362              		.loc 1 1905 65 view .LVU122
 363 00b2 4FEA022C 		lsl	ip, r2, #8
 364              		.loc 1 1905 103 view .LVU123
 365 00b6 45EA1725 		orr	r5, r5, r7, lsr #8
 366              		.loc 1 1905 71 view .LVU124
 367 00ba 5E4F     		ldr	r7, .L119+8
 368 00bc 0CEA0707 		and	r7, ip, r7
 369              		.loc 1 1905 103 view .LVU125
 370 00c0 3D43     		orrs	r5, r5, r7
 371              		.loc 1 1904 22 view .LVU126
 372 00c2 5B4F     		ldr	r7, .L119+4
 373 00c4 7D63     		str	r5, [r7, #52]
 374              	.L47:
 375              		.loc 1 1910 3 is_stmt 1 view .LVU127
 376              		.loc 1 1910 5 is_stmt 0 view .LVU128
 377 00c6 B507     		lsls	r5, r6, #30
 378 00c8 AAD5     		bpl	.L18
 379              		.loc 1 1913 5 is_stmt 1 view .LVU129
 380              		.loc 1 1914 5 view .LVU130
 381              		.loc 1 1917 5 view .LVU131
 382              		.loc 1 1917 46 is_stmt 0 view .LVU132
 383 00ca A1F10161 		sub	r1, r1, #135266304
 384              	.LVL21:
 385              		.loc 1 1919 42 view .LVU133
 386 00ce 03F00043 		and	r3, r3, #-2147483648
 387              	.LVL22:
 388              		.loc 1 1918 45 view .LVU134
 389 00d2 A2F10162 		sub	r2, r2, #135266304
 390              	.LVL23:
 391              		.loc 1 1918 103 view .LVU135
 392 00d6 43EA1123 		orr	r3, r3, r1, lsr #8
 393              		.loc 1 1917 22 view .LVU136
 394 00da 5549     		ldr	r1, .L119+4
 395              	.LVL24:
 396              		.loc 1 1918 65 view .LVU137
 397 00dc 120A     		lsrs	r2, r2, #8
 398              	.LVL25:
 399              		.loc 1 1918 103 view .LVU138
ARM GAS  C:\Users\DEVELO~1\AppData\Local\Temp\ccY0vS6N.s 			page 8


 400 00de 43EA0243 		orr	r3, r3, r2, lsl #16
 401              		.loc 1 1917 22 view .LVU139
 402 00e2 C1F83431 		str	r3, [r1, #308]
 403 00e6 9BE7     		b	.L18
 404              	.LVL26:
 405              	.L49:
 406              		.loc 1 1917 22 view .LVU140
 407              	.LBE48:
 408              	.LBE49:
 409              		.loc 1 432 3 view .LVU141
 410 00e8 0220     		movs	r0, #2
 411              	.LVL27:
 412              		.loc 1 556 1 view .LVU142
 413 00ea F8BD     		pop	{r3, r4, r5, r6, r7, pc}
 414              	.LVL28:
 415              	.L115:
 416              		.loc 1 463 9 is_stmt 1 view .LVU143
 417 00ec EA69     		ldr	r2, [r5, #28]
 418 00ee A968     		ldr	r1, [r5, #8]
 419              	.LVL29:
 420              	.LBB50:
 421              	.LBI50:
 422              		.loc 1 1237 13 view .LVU144
 423              	.LBB51:
 424              		.loc 1 1240 3 view .LVU145
 425              		.loc 1 1241 3 view .LVU146
 426              		.loc 1 1243 3 view .LVU147
 427              		.loc 1 1243 5 is_stmt 0 view .LVU148
 428 00f0 D607     		lsls	r6, r2, #31
 429 00f2 08D5     		bpl	.L23
 430              		.loc 1 1246 5 is_stmt 1 view .LVU149
 431              		.loc 1 1246 22 is_stmt 0 view .LVU150
 432 00f4 DFF838C1 		ldr	ip, .L119+4
 433              		.loc 1 1246 38 view .LVU151
 434 00f8 CFB2     		uxtb	r7, r1
 435              		.loc 1 1246 22 view .LVU152
 436 00fa DCF83C60 		ldr	r6, [ip, #60]
 437 00fe 26EA0706 		bic	r6, r6, r7
 438 0102 CCF83C60 		str	r6, [ip, #60]
 439              	.L23:
 440              		.loc 1 1250 3 is_stmt 1 view .LVU153
 441              		.loc 1 1250 5 is_stmt 0 view .LVU154
 442 0106 9207     		lsls	r2, r2, #30
 443              	.LVL30:
 444              		.loc 1 1250 5 view .LVU155
 445 0108 AED5     		bpl	.L21
 446              		.loc 1 1253 5 is_stmt 1 view .LVU156
 447              		.loc 1 1253 22 is_stmt 0 view .LVU157
 448 010a 494E     		ldr	r6, .L119+4
 449              		.loc 1 1253 38 view .LVU158
 450 010c C9B2     		uxtb	r1, r1
 451              	.LVL31:
 452              		.loc 1 1253 22 view .LVU159
 453 010e D6F83C21 		ldr	r2, [r6, #316]
 454 0112 22EA0102 		bic	r2, r2, r1
 455 0116 C6F83C21 		str	r2, [r6, #316]
 456 011a A5E7     		b	.L21
ARM GAS  C:\Users\DEVELO~1\AppData\Local\Temp\ccY0vS6N.s 			page 9


 457              	.L118:
 458              		.loc 1 1253 22 view .LVU160
 459              	.LBE51:
 460              	.LBE50:
 461              		.loc 1 517 7 is_stmt 1 view .LVU161
 462 011c EA6A     		ldr	r2, [r5, #44]
 463 011e 6F6B     		ldr	r7, [r5, #52]
 464              	.LVL32:
 465              	.LBB52:
 466              	.LBI52:
 467              		.loc 1 1769 13 view .LVU162
 468              	.LBB53:
 469              		.loc 1 1772 3 view .LVU163
 470              		.loc 1 1774 3 view .LVU164
 471              		.loc 1 1774 5 is_stmt 0 view .LVU165
 472 0120 D107     		lsls	r1, r2, #31
 473 0122 0AD5     		bpl	.L44
 474              		.loc 1 1777 5 is_stmt 1 view .LVU166
 475              		.loc 1 1783 5 view .LVU167
 476 0124 DFF808C1 		ldr	ip, .L119+4
 477 0128 424E     		ldr	r6, .L119+8
 478 012a DCF844E0 		ldr	lr, [ip, #68]
 479 012e 698E     		ldrh	r1, [r5, #50]
 480 0130 0EEA0606 		and	r6, lr, r6
 481 0134 3143     		orrs	r1, r1, r6
 482 0136 CCF84410 		str	r1, [ip, #68]
 483              	.LVL33:
 484              	.L44:
 485              		.loc 1 1787 3 view .LVU168
 486              		.loc 1 1787 5 is_stmt 0 view .LVU169
 487 013a 9207     		lsls	r2, r2, #30
 488              	.LVL34:
 489              		.loc 1 1787 5 view .LVU170
 490 013c ADD5     		bpl	.L43
 491              		.loc 1 1790 5 is_stmt 1 view .LVU171
 492              		.loc 1 1796 5 view .LVU172
 493 013e 3C49     		ldr	r1, .L119+4
 494 0140 4A6C     		ldr	r2, [r1, #68]
 495 0142 92B2     		uxth	r2, r2
 496 0144 3A43     		orrs	r2, r2, r7
 497 0146 4A64     		str	r2, [r1, #68]
 498 0148 A7E7     		b	.L43
 499              	.LVL35:
 500              	.L117:
 501              		.loc 1 1796 5 is_stmt 0 view .LVU173
 502              	.LBE53:
 503              	.LBE52:
 504              		.loc 1 489 7 is_stmt 1 view .LVU174
 505              		.loc 1 492 7 view .LVU175
 506 014a D5E90772 		ldrd	r7, r2, [r5, #28]
 507              	.LVL36:
 508              		.loc 1 492 7 is_stmt 0 view .LVU176
 509 014e D5E90961 		ldrd	r6, r1, [r5, #36]
 510              	.LVL37:
 511              	.LBB54:
 512              	.LBI54:
 513              		.loc 1 1652 13 is_stmt 1 view .LVU177
ARM GAS  C:\Users\DEVELO~1\AppData\Local\Temp\ccY0vS6N.s 			page 10


 514              	.LBB55:
 515              		.loc 1 1655 3 view .LVU178
 516              		.loc 1 1656 3 view .LVU179
 517              		.loc 1 1658 3 view .LVU180
 518              		.loc 1 1658 5 is_stmt 0 view .LVU181
 519 0152 17F0010F 		tst	r7, #1
 520 0156 0FD0     		beq	.L39
 521              		.loc 1 1660 5 is_stmt 1 view .LVU182
 522              		.loc 1 1661 5 view .LVU183
 523              		.loc 1 1664 5 view .LVU184
 524              		.loc 1 1665 60 is_stmt 0 view .LVU185
 525 0158 4FEA012E 		lsl	lr, r1, #8
 526              		.loc 1 1665 66 view .LVU186
 527 015c DFF8D4C0 		ldr	ip, .L119+8
 528 0160 0EEA0C0C 		and	ip, lr, ip
 529              		.loc 1 1664 41 view .LVU187
 530 0164 06F1784E 		add	lr, r6, #-134217728
 531              		.loc 1 1665 99 view .LVU188
 532 0168 42EA1E2E 		orr	lr, r2, lr, lsr #8
 533 016c 4CEA0E0C 		orr	ip, ip, lr
 534              		.loc 1 1664 22 view .LVU189
 535 0170 DFF8BCE0 		ldr	lr, .L119+4
 536 0174 CEF82CC0 		str	ip, [lr, #44]
 537              	.L39:
 538              		.loc 1 1670 3 is_stmt 1 view .LVU190
 539              		.loc 1 1670 5 is_stmt 0 view .LVU191
 540 0178 BF07     		lsls	r7, r7, #30
 541              	.LVL38:
 542              		.loc 1 1670 5 view .LVU192
 543 017a 83D5     		bpl	.L38
 544              		.loc 1 1672 5 is_stmt 1 view .LVU193
 545              		.loc 1 1673 5 view .LVU194
 546              		.loc 1 1676 5 view .LVU195
 547              		.loc 1 1677 40 is_stmt 0 view .LVU196
 548 017c A1F10161 		sub	r1, r1, #135266304
 549              	.LVL39:
 550              		.loc 1 1676 41 view .LVU197
 551 0180 A6F10166 		sub	r6, r6, #135266304
 552              		.loc 1 1677 60 view .LVU198
 553 0184 090A     		lsrs	r1, r1, #8
 554              	.LVL40:
 555              		.loc 1 1677 99 view .LVU199
 556 0186 42EA1622 		orr	r2, r2, r6, lsr #8
 557              	.LVL41:
 558              		.loc 1 1677 99 view .LVU200
 559 018a 42EA0142 		orr	r2, r2, r1, lsl #16
 560              		.loc 1 1676 22 view .LVU201
 561 018e 2849     		ldr	r1, .L119+4
 562 0190 C1F82C21 		str	r2, [r1, #300]
 563 0194 76E7     		b	.L38
 564              	.L116:
 565              		.loc 1 1676 22 view .LVU202
 566              	.LBE55:
 567              	.LBE54:
 568              		.loc 1 483 7 is_stmt 1 view .LVU203
 569 0196 D5E90516 		ldrd	r1, r6, [r5, #20]
 570              	.LVL42:
ARM GAS  C:\Users\DEVELO~1\AppData\Local\Temp\ccY0vS6N.s 			page 11


 571              	.LBB56:
 572              	.LBI56:
 573              		.loc 1 1430 13 view .LVU204
 574              	.LBB57:
 575              		.loc 1 1432 3 view .LVU205
 576              		.loc 1 1433 3 view .LVU206
 577              		.loc 1 1436 3 view .LVU207
 578              		.loc 1 1438 3 view .LVU208
 579              		.loc 1 1438 5 is_stmt 0 view .LVU209
 580 019a 11F00102 		ands	r2, r1, #1
 581 019e 42D0     		beq	.L50
 582              		.loc 1 1441 5 is_stmt 1 view .LVU210
 583              		.loc 1 1444 5 view .LVU211
 584              		.loc 1 1444 33 is_stmt 0 view .LVU212
 585 01a0 06F01002 		and	r2, r6, #16
 586              	.LVL43:
 587              		.loc 1 1445 5 is_stmt 1 view .LVU213
 588              		.loc 1 1445 19 is_stmt 0 view .LVU214
 589 01a4 4FF0100C 		mov	ip, #16
 590              	.LVL44:
 591              	.L28:
 592              		.loc 1 1458 3 is_stmt 1 view .LVU215
 593              		.loc 1 1458 5 is_stmt 0 view .LVU216
 594 01a8 8F07     		lsls	r7, r1, #30
 595 01aa 04D5     		bpl	.L29
 596              		.loc 1 1461 5 is_stmt 1 view .LVU217
 597              		.loc 1 1464 5 view .LVU218
 598              		.loc 1 1464 33 is_stmt 0 view .LVU219
 599 01ac 06F04007 		and	r7, r6, #64
 600              		.loc 1 1465 19 view .LVU220
 601 01b0 4CF0400C 		orr	ip, ip, #64
 602              	.LVL45:
 603              		.loc 1 1464 18 view .LVU221
 604 01b4 3A43     		orrs	r2, r2, r7
 605              	.LVL46:
 606              		.loc 1 1465 5 is_stmt 1 view .LVU222
 607              	.L29:
 608              		.loc 1 1468 3 view .LVU223
 609              		.loc 1 1468 5 is_stmt 0 view .LVU224
 610 01b6 4F07     		lsls	r7, r1, #29
 611 01b8 04D5     		bpl	.L30
 612              		.loc 1 1471 5 is_stmt 1 view .LVU225
 613              		.loc 1 1474 5 view .LVU226
 614              		.loc 1 1474 33 is_stmt 0 view .LVU227
 615 01ba 06F08007 		and	r7, r6, #128
 616              		.loc 1 1475 19 view .LVU228
 617 01be 4CF0800C 		orr	ip, ip, #128
 618              	.LVL47:
 619              		.loc 1 1474 18 view .LVU229
 620 01c2 3A43     		orrs	r2, r2, r7
 621              	.LVL48:
 622              		.loc 1 1475 5 is_stmt 1 view .LVU230
 623              	.L30:
 624              		.loc 1 1478 3 view .LVU231
 625              		.loc 1 1478 5 is_stmt 0 view .LVU232
 626 01c4 0F07     		lsls	r7, r1, #28
 627 01c6 04D5     		bpl	.L31
ARM GAS  C:\Users\DEVELO~1\AppData\Local\Temp\ccY0vS6N.s 			page 12


 628              		.loc 1 1481 5 is_stmt 1 view .LVU233
 629              		.loc 1 1484 5 view .LVU234
 630              		.loc 1 1484 33 is_stmt 0 view .LVU235
 631 01c8 06F40037 		and	r7, r6, #131072
 632              		.loc 1 1485 19 view .LVU236
 633 01cc 4CF4003C 		orr	ip, ip, #131072
 634              	.LVL49:
 635              		.loc 1 1484 18 view .LVU237
 636 01d0 3A43     		orrs	r2, r2, r7
 637              	.LVL50:
 638              		.loc 1 1485 5 is_stmt 1 view .LVU238
 639              	.L31:
 640              		.loc 1 1488 3 view .LVU239
 641              		.loc 1 1488 5 is_stmt 0 view .LVU240
 642 01d2 CF06     		lsls	r7, r1, #27
 643 01d4 04D5     		bpl	.L32
 644              		.loc 1 1491 5 is_stmt 1 view .LVU241
 645              		.loc 1 1494 5 view .LVU242
 646              		.loc 1 1494 33 is_stmt 0 view .LVU243
 647 01d6 06F48027 		and	r7, r6, #262144
 648              		.loc 1 1495 19 view .LVU244
 649 01da 4CF4802C 		orr	ip, ip, #262144
 650              	.LVL51:
 651              		.loc 1 1494 18 view .LVU245
 652 01de 3A43     		orrs	r2, r2, r7
 653              	.LVL52:
 654              		.loc 1 1495 5 is_stmt 1 view .LVU246
 655              	.L32:
 656              		.loc 1 1498 3 view .LVU247
 657              		.loc 1 1498 5 is_stmt 0 view .LVU248
 658 01e0 8F06     		lsls	r7, r1, #26
 659 01e2 04D5     		bpl	.L33
 660              		.loc 1 1501 5 is_stmt 1 view .LVU249
 661              		.loc 1 1504 5 view .LVU250
 662              		.loc 1 1504 33 is_stmt 0 view .LVU251
 663 01e4 06F4C017 		and	r7, r6, #1572864
 664              		.loc 1 1505 19 view .LVU252
 665 01e8 4CF4C01C 		orr	ip, ip, #1572864
 666              	.LVL53:
 667              		.loc 1 1504 18 view .LVU253
 668 01ec 3A43     		orrs	r2, r2, r7
 669              	.LVL54:
 670              		.loc 1 1505 5 is_stmt 1 view .LVU254
 671              	.L33:
 672              		.loc 1 1508 3 view .LVU255
 673              		.loc 1 1508 5 is_stmt 0 view .LVU256
 674 01ee 4F06     		lsls	r7, r1, #25
 675 01f0 04D5     		bpl	.L34
 676              		.loc 1 1511 5 is_stmt 1 view .LVU257
 677              		.loc 1 1514 5 view .LVU258
 678              		.loc 1 1514 33 is_stmt 0 view .LVU259
 679 01f2 06F40017 		and	r7, r6, #2097152
 680              		.loc 1 1515 19 view .LVU260
 681 01f6 4CF4001C 		orr	ip, ip, #2097152
 682              	.LVL55:
 683              		.loc 1 1514 18 view .LVU261
 684 01fa 3A43     		orrs	r2, r2, r7
ARM GAS  C:\Users\DEVELO~1\AppData\Local\Temp\ccY0vS6N.s 			page 13


 685              	.LVL56:
 686              		.loc 1 1515 5 is_stmt 1 view .LVU262
 687              	.L34:
 688              		.loc 1 1563 3 view .LVU263
 689              		.loc 1 1563 5 is_stmt 0 view .LVU264
 690 01fc CF05     		lsls	r7, r1, #23
 691 01fe 04D5     		bpl	.L35
 692              		.loc 1 1566 5 is_stmt 1 view .LVU265
 693              		.loc 1 1569 5 view .LVU266
 694              		.loc 1 1569 33 is_stmt 0 view .LVU267
 695 0200 06F00047 		and	r7, r6, #-2147483648
 696              		.loc 1 1570 19 view .LVU268
 697 0204 4CF0004C 		orr	ip, ip, #-2147483648
 698              	.LVL57:
 699              		.loc 1 1569 18 view .LVU269
 700 0208 3A43     		orrs	r2, r2, r7
 701              	.LVL58:
 702              		.loc 1 1570 5 is_stmt 1 view .LVU270
 703              	.L35:
 704              		.loc 1 1574 3 view .LVU271
 705              		.loc 1 1574 5 is_stmt 0 view .LVU272
 706 020a 0906     		lsls	r1, r1, #24
 707              	.LVL59:
 708              		.loc 1 1574 5 view .LVU273
 709 020c 04D5     		bpl	.L36
 710              		.loc 1 1577 5 is_stmt 1 view .LVU274
 711              		.loc 1 1580 5 view .LVU275
 712              		.loc 1 1580 33 is_stmt 0 view .LVU276
 713 020e 06F00056 		and	r6, r6, #536870912
 714              	.LVL60:
 715              		.loc 1 1581 19 view .LVU277
 716 0212 4CF0005C 		orr	ip, ip, #536870912
 717              	.LVL61:
 718              		.loc 1 1580 18 view .LVU278
 719 0216 3243     		orrs	r2, r2, r6
 720              	.LVL62:
 721              		.loc 1 1581 5 is_stmt 1 view .LVU279
 722              	.L36:
 723              		.loc 1 1597 3 view .LVU280
 724 0218 054E     		ldr	r6, .L119+4
 725 021a 316A     		ldr	r1, [r6, #32]
 726 021c 21EA0C01 		bic	r1, r1, ip
 727 0220 0A43     		orrs	r2, r2, r1
 728              	.LVL63:
 729              		.loc 1 1597 3 is_stmt 0 view .LVU281
 730 0222 3262     		str	r2, [r6, #32]
 731              	.LVL64:
 732              		.loc 1 1598 1 view .LVU282
 733 0224 2CE7     		b	.L27
 734              	.LVL65:
 735              	.L50:
 736              		.loc 1 1433 12 view .LVU283
 737 0226 9446     		mov	ip, r2
 738 0228 BEE7     		b	.L28
 739              	.L120:
 740 022a 00BF     		.align	2
 741              	.L119:
ARM GAS  C:\Users\DEVELO~1\AppData\Local\Temp\ccY0vS6N.s 			page 14


 742 022c 00000000 		.word	pFlash
 743 0230 00200052 		.word	1375739904
 744 0234 0000FFFF 		.word	-65536
 745              	.LBE57:
 746              	.LBE56:
 747              		.cfi_endproc
 748              	.LFE143:
 749              		.size	HAL_FLASHEx_OBProgram, .-HAL_FLASHEx_OBProgram
 750              		.section	.text.HAL_FLASHEx_OBGetConfig,"ax",%progbits
 751              		.align	1
 752              		.p2align 2,,3
 753              		.global	HAL_FLASHEx_OBGetConfig
 754              		.syntax unified
 755              		.thumb
 756              		.thumb_func
 757              		.type	HAL_FLASHEx_OBGetConfig, %function
 758              	HAL_FLASHEx_OBGetConfig:
 759              	.LVL66:
 760              	.LFB144:
 761              		.loc 1 568 1 is_stmt 1 view -0
 762              		.cfi_startproc
 763              		@ args = 0, pretend = 0, frame = 0
 764              		@ frame_needed = 0, uses_anonymous_args = 0
 765              		@ link register save eliminated.
 766              		.loc 1 569 3 view .LVU285
 767              		.loc 1 572 3 view .LVU286
 768              	.LBB72:
 769              	.LBI72:
 770              		.loc 1 1374 17 view .LVU287
 771              	.LBB73:
 772              		.loc 1 1376 3 view .LVU288
 773              		.loc 1 1376 24 is_stmt 0 view .LVU289
 774 0000 3C4B     		ldr	r3, .L135
 775 0002 DB69     		ldr	r3, [r3, #28]
 776              		.loc 1 1376 12 view .LVU290
 777 0004 03F47F43 		and	r3, r3, #65280
 778              	.LVL67:
 779              		.loc 1 1378 3 is_stmt 1 view .LVU291
 780              		.loc 1 1378 6 is_stmt 0 view .LVU292
 781 0008 B3F52A4F 		cmp	r3, #43520
 782              	.LBE73:
 783              	.LBE72:
 784              		.loc 1 568 1 view .LVU293
 785 000c 10B4     		push	{r4}
 786              		.cfi_def_cfa_offset 4
 787              		.cfi_offset 4, -4
 788              	.LBB75:
 789              	.LBB74:
 790              		.loc 1 1378 6 view .LVU294
 791 000e 04D0     		beq	.L122
 792              		.loc 1 1380 12 view .LVU295
 793 0010 B3F54C4F 		cmp	r3, #52224
 794 0014 18BF     		it	ne
 795 0016 4FF4AA43 		movne	r3, #21760
 796              	.LVL68:
 797              	.L122:
 798              		.loc 1 1380 12 view .LVU296
ARM GAS  C:\Users\DEVELO~1\AppData\Local\Temp\ccY0vS6N.s 			page 15


 799              	.LBE74:
 800              	.LBE75:
 801              	.LBB76:
 802              	.LBB77:
 803              		.loc 1 1620 12 view .LVU297
 804 001a 364A     		ldr	r2, .L135
 805              	.LBE77:
 806              	.LBE76:
 807              		.loc 1 572 21 view .LVU298
 808 001c C360     		str	r3, [r0, #12]
 809              		.loc 1 575 3 is_stmt 1 view .LVU299
 810              	.LBB80:
 811              	.LBI76:
 812              		.loc 1 1618 17 view .LVU300
 813              	.LBB78:
 814              		.loc 1 1620 3 view .LVU301
 815              		.loc 1 1621 14 is_stmt 0 view .LVU302
 816 001e 364B     		ldr	r3, .L135+4
 817              		.loc 1 1620 12 view .LVU303
 818 0020 D469     		ldr	r4, [r2, #28]
 819              	.LVL69:
 820              		.loc 1 1621 3 is_stmt 1 view .LVU304
 821              		.loc 1 1623 3 view .LVU305
 822              		.loc 1 1623 3 is_stmt 0 view .LVU306
 823              	.LBE78:
 824              	.LBE80:
 825              		.loc 1 581 15 view .LVU307
 826 0022 C169     		ldr	r1, [r0, #28]
 827              	.LBB81:
 828              	.LBB79:
 829              		.loc 1 1621 14 view .LVU308
 830 0024 2340     		ands	r3, r3, r4
 831              	.LBE79:
 832              	.LBE81:
 833              		.loc 1 581 40 view .LVU309
 834 0026 01F1FF3C 		add	ip, r1, #-1
 835              		.loc 1 575 23 view .LVU310
 836 002a 8361     		str	r3, [r0, #24]
 837              		.loc 1 578 3 is_stmt 1 view .LVU311
 838              	.LBB82:
 839              	.LBI82:
 840              		.loc 1 1754 17 view .LVU312
 841              	.LBB83:
 842              		.loc 1 1756 3 view .LVU313
 843              		.loc 1 1756 16 is_stmt 0 view .LVU314
 844 002c D369     		ldr	r3, [r2, #28]
 845              	.LBE83:
 846              	.LBE82:
 847              		.loc 1 581 6 view .LVU315
 848 002e BCF1010F 		cmp	ip, #1
 849              	.LBB85:
 850              	.LBB84:
 851              		.loc 1 1756 28 view .LVU316
 852 0032 03F00C03 		and	r3, r3, #12
 853              	.LBE84:
 854              	.LBE85:
 855              		.loc 1 578 21 view .LVU317
ARM GAS  C:\Users\DEVELO~1\AppData\Local\Temp\ccY0vS6N.s 			page 16


 856 0036 0361     		str	r3, [r0, #16]
 857              		.loc 1 581 3 is_stmt 1 view .LVU318
 858              		.loc 1 581 6 is_stmt 0 view .LVU319
 859 0038 0BD9     		bls	.L133
 860 003a 5621     		movs	r1, #86
 861              	.L124:
 862              		.loc 1 599 3 is_stmt 1 view .LVU320
 863              	.LVL70:
 864              	.LBB86:
 865              	.LBI86:
 866              		.loc 1 1807 13 view .LVU321
 867              	.LBB87:
 868              		.loc 1 1809 3 view .LVU322
 869              		.loc 1 1817 3 view .LVU323
 870              		.loc 1 1817 12 is_stmt 0 view .LVU324
 871 003c 2D4A     		ldr	r2, .L135
 872              		.loc 1 1820 31 view .LVU325
 873 003e 2F4B     		ldr	r3, .L135+8
 874              		.loc 1 1817 12 view .LVU326
 875 0040 126C     		ldr	r2, [r2, #64]
 876              	.LVL71:
 877              		.loc 1 1819 3 is_stmt 1 view .LVU327
 878              	.LBE87:
 879              	.LBE86:
 880              		.loc 1 606 23 is_stmt 0 view .LVU328
 881 0042 0160     		str	r1, [r0]
 882              	.LBB90:
 883              	.LBB88:
 884              		.loc 1 1820 31 view .LVU329
 885 0044 1340     		ands	r3, r3, r2
 886              		.loc 1 1819 50 view .LVU330
 887 0046 1104     		lsls	r1, r2, #16
 888              	.LBE88:
 889              	.LBE90:
 890              		.loc 1 629 1 view .LVU331
 891 0048 5DF8044B 		ldr	r4, [sp], #4
 892              		.cfi_remember_state
 893              		.cfi_restore 4
 894              		.cfi_def_cfa_offset 0
 895              	.LBB91:
 896              	.LBB89:
 897              		.loc 1 1820 19 view .LVU332
 898 004c C0E90C13 		strd	r1, r3, [r0, #48]
 899              	.LVL72:
 900              		.loc 1 1820 19 view .LVU333
 901              	.LBE89:
 902              	.LBE91:
 903              		.loc 1 606 3 is_stmt 1 view .LVU334
 904              		.loc 1 629 1 is_stmt 0 view .LVU335
 905 0050 7047     		bx	lr
 906              	.L133:
 907              		.cfi_restore_state
 908              		.loc 1 586 5 is_stmt 1 view .LVU336
 909              		.loc 1 586 25 is_stmt 0 view .LVU337
 910 0052 3F23     		movs	r3, #63
 911              	.LBB92:
 912              	.LBB93:
ARM GAS  C:\Users\DEVELO~1\AppData\Local\Temp\ccY0vS6N.s 			page 17


 913              		.loc 1 1315 5 view .LVU338
 914 0054 0129     		cmp	r1, #1
 915              	.LBE93:
 916              	.LBE92:
 917              		.loc 1 586 25 view .LVU339
 918 0056 0360     		str	r3, [r0]
 919              		.loc 1 589 5 is_stmt 1 view .LVU340
 920              	.LVL73:
 921              	.LBB96:
 922              	.LBI92:
 923              		.loc 1 1311 13 view .LVU341
 924              	.LBB94:
 925              		.loc 1 1313 3 view .LVU342
 926              		.loc 1 1315 3 view .LVU343
 927              		.loc 1 1315 5 is_stmt 0 view .LVU344
 928 0058 29D0     		beq	.L134
 929              		.loc 1 1321 3 is_stmt 1 view .LVU345
 930              		.loc 1 1323 5 view .LVU346
 931              		.loc 1 1323 14 is_stmt 0 view .LVU347
 932 005a D2F83831 		ldr	r3, [r2, #312]
 933              	.LVL74:
 934              		.loc 1 1327 3 is_stmt 1 view .LVU348
 935              		.loc 1 1327 19 is_stmt 0 view .LVU349
 936 005e DB43     		mvns	r3, r3
 937              	.LVL75:
 938              		.loc 1 1327 30 view .LVU350
 939 0060 DBB2     		uxtb	r3, r3
 940              	.LVL76:
 941              		.loc 1 1329 5 view .LVU351
 942 0062 191E     		subs	r1, r3, #0
 943              	.LVL77:
 944              		.loc 1 1329 5 view .LVU352
 945 0064 18BF     		it	ne
 946 0066 0121     		movne	r1, #1
 947 0068 C0E90113 		strd	r1, r3, [r0, #4]
 948              	.LVL78:
 949              		.loc 1 1329 5 view .LVU353
 950              	.LBE94:
 951              	.LBE96:
 952              		.loc 1 592 5 is_stmt 1 view .LVU354
 953              	.LBB97:
 954              	.LBI97:
 955              		.loc 1 1701 13 view .LVU355
 956              	.LBB98:
 957              		.loc 1 1703 3 view .LVU356
 958              		.loc 1 1704 3 view .LVU357
 959              		.loc 1 1706 3 view .LVU358
 960              		.loc 1 1713 3 view .LVU359
 961              		.loc 1 1715 5 view .LVU360
 962              		.loc 1 1715 14 is_stmt 0 view .LVU361
 963 006c D2F82811 		ldr	r1, [r2, #296]
 964              	.LVL79:
 965              		.loc 1 1716 5 is_stmt 1 view .LVU362
 966              		.loc 1 1720 3 view .LVU363
 967              		.loc 1 1722 64 is_stmt 0 view .LVU364
 968 0070 234B     		ldr	r3, .L135+12
 969              		.loc 1 1720 31 view .LVU365
ARM GAS  C:\Users\DEVELO~1\AppData\Local\Temp\ccY0vS6N.s 			page 18


 970 0072 01F00044 		and	r4, r1, #-2147483648
 971              		.loc 1 1720 18 view .LVU366
 972 0076 0462     		str	r4, [r0, #32]
 973              		.loc 1 1722 3 is_stmt 1 view .LVU367
 974              		.loc 1 1722 64 is_stmt 0 view .LVU368
 975 0078 03EA0124 		and	r4, r3, r1, lsl #8
 976              		.loc 1 1724 38 view .LVU369
 977 007c 03EA1121 		and	r1, r3, r1, lsr #8
 978              	.LVL80:
 979              		.loc 1 1722 70 view .LVU370
 980 0080 04F10164 		add	r4, r4, #135266304
 981              		.loc 1 1724 44 view .LVU371
 982 0084 01F10161 		add	r1, r1, #135266304
 983              		.loc 1 1724 19 view .LVU372
 984 0088 C0E90941 		strd	r4, r1, [r0, #36]
 985              	.LVL81:
 986              		.loc 1 1724 19 view .LVU373
 987              	.LBE98:
 988              	.LBE97:
 989              		.loc 1 595 5 is_stmt 1 view .LVU374
 990              	.LBB100:
 991              	.LBI100:
 992              		.loc 1 1933 13 view .LVU375
 993              	.LBB101:
 994              		.loc 1 1935 3 view .LVU376
 995              		.loc 1 1936 3 view .LVU377
 996              		.loc 1 1939 3 view .LVU378
 997              		.loc 1 1946 3 view .LVU379
 998              		.loc 1 1948 5 view .LVU380
 999              		.loc 1 1948 14 is_stmt 0 view .LVU381
 1000 008c D2F83021 		ldr	r2, [r2, #304]
 1001              	.LVL82:
 1002              		.loc 1 1949 5 is_stmt 1 view .LVU382
 1003              		.loc 1 1955 68 is_stmt 0 view .LVU383
 1004 0090 03EA0224 		and	r4, r3, r2, lsl #8
 1005              		.loc 1 1957 48 view .LVU384
 1006 0094 03EA1223 		and	r3, r3, r2, lsr #8
 1007              		.loc 1 1954 35 view .LVU385
 1008 0098 02F00042 		and	r2, r2, #-2147483648
 1009              	.LVL83:
 1010              		.loc 1 1955 74 view .LVU386
 1011 009c 04F10164 		add	r4, r4, #135266304
 1012              		.loc 1 1957 54 view .LVU387
 1013 00a0 03F10163 		add	r3, r3, #135266304
 1014              	.LVL84:
 1015              	.L126:
 1016              		.loc 1 1954 3 is_stmt 1 view .LVU388
 1017              		.loc 1 1958 1 is_stmt 0 view .LVU389
 1018 00a4 7F21     		movs	r1, #127
 1019              		.loc 1 1957 24 view .LVU390
 1020 00a6 0364     		str	r3, [r0, #64]
 1021              		.loc 1 1955 26 view .LVU391
 1022 00a8 C0E90E24 		strd	r2, r4, [r0, #56]
 1023              		.loc 1 1956 3 is_stmt 1 view .LVU392
 1024              		.loc 1 1957 3 view .LVU393
 1025              		.loc 1 1958 1 is_stmt 0 view .LVU394
 1026 00ac C6E7     		b	.L124
ARM GAS  C:\Users\DEVELO~1\AppData\Local\Temp\ccY0vS6N.s 			page 19


 1027              	.LVL85:
 1028              	.L134:
 1029              		.loc 1 1958 1 view .LVU395
 1030              	.LBE101:
 1031              	.LBE100:
 1032              	.LBB103:
 1033              	.LBB95:
 1034              		.loc 1 1317 5 is_stmt 1 view .LVU396
 1035              		.loc 1 1317 14 is_stmt 0 view .LVU397
 1036 00ae 936B     		ldr	r3, [r2, #56]
 1037              	.LVL86:
 1038              		.loc 1 1321 3 is_stmt 1 view .LVU398
 1039              		.loc 1 1327 19 is_stmt 0 view .LVU399
 1040 00b0 DB43     		mvns	r3, r3
 1041              	.LVL87:
 1042              		.loc 1 1327 30 view .LVU400
 1043 00b2 DBB2     		uxtb	r3, r3
 1044              	.LVL88:
 1045              		.loc 1 1327 3 is_stmt 1 view .LVU401
 1046              		.loc 1 1329 5 is_stmt 0 view .LVU402
 1047 00b4 191E     		subs	r1, r3, #0
 1048              	.LVL89:
 1049              		.loc 1 1329 5 view .LVU403
 1050 00b6 18BF     		it	ne
 1051 00b8 0121     		movne	r1, #1
 1052 00ba C0E90113 		strd	r1, r3, [r0, #4]
 1053              	.LVL90:
 1054              		.loc 1 1329 5 view .LVU404
 1055              	.LBE95:
 1056              	.LBE103:
 1057              		.loc 1 592 5 is_stmt 1 view .LVU405
 1058              	.LBB104:
 1059              		.loc 1 1701 13 view .LVU406
 1060              	.LBB99:
 1061              		.loc 1 1703 3 view .LVU407
 1062              		.loc 1 1704 3 view .LVU408
 1063              		.loc 1 1706 3 view .LVU409
 1064              		.loc 1 1708 5 view .LVU410
 1065              		.loc 1 1708 14 is_stmt 0 view .LVU411
 1066 00be 916A     		ldr	r1, [r2, #40]
 1067              	.LVL91:
 1068              		.loc 1 1709 5 is_stmt 1 view .LVU412
 1069              		.loc 1 1713 3 view .LVU413
 1070              		.loc 1 1720 3 view .LVU414
 1071              		.loc 1 1722 64 is_stmt 0 view .LVU415
 1072 00c0 0F4B     		ldr	r3, .L135+12
 1073              		.loc 1 1720 31 view .LVU416
 1074 00c2 01F00044 		and	r4, r1, #-2147483648
 1075              		.loc 1 1720 18 view .LVU417
 1076 00c6 0462     		str	r4, [r0, #32]
 1077              		.loc 1 1722 3 is_stmt 1 view .LVU418
 1078              		.loc 1 1722 64 is_stmt 0 view .LVU419
 1079 00c8 03EA0124 		and	r4, r3, r1, lsl #8
 1080              		.loc 1 1724 38 view .LVU420
 1081 00cc 03EA1121 		and	r1, r3, r1, lsr #8
 1082              		.loc 1 1722 70 view .LVU421
 1083 00d0 04F10064 		add	r4, r4, #134217728
ARM GAS  C:\Users\DEVELO~1\AppData\Local\Temp\ccY0vS6N.s 			page 20


 1084              		.loc 1 1724 44 view .LVU422
 1085 00d4 01F10061 		add	r1, r1, #134217728
 1086              		.loc 1 1724 19 view .LVU423
 1087 00d8 C0E90941 		strd	r4, r1, [r0, #36]
 1088              	.LVL92:
 1089              		.loc 1 1724 19 view .LVU424
 1090              	.LBE99:
 1091              	.LBE104:
 1092              		.loc 1 595 5 is_stmt 1 view .LVU425
 1093              	.LBB105:
 1094              		.loc 1 1933 13 view .LVU426
 1095              	.LBB102:
 1096              		.loc 1 1935 3 view .LVU427
 1097              		.loc 1 1936 3 view .LVU428
 1098              		.loc 1 1939 3 view .LVU429
 1099              		.loc 1 1941 5 view .LVU430
 1100              		.loc 1 1941 14 is_stmt 0 view .LVU431
 1101 00dc 126B     		ldr	r2, [r2, #48]
 1102              	.LVL93:
 1103              		.loc 1 1942 5 is_stmt 1 view .LVU432
 1104              		.loc 1 1946 3 view .LVU433
 1105              		.loc 1 1955 68 is_stmt 0 view .LVU434
 1106 00de 03EA0224 		and	r4, r3, r2, lsl #8
 1107              		.loc 1 1957 48 view .LVU435
 1108 00e2 03EA1223 		and	r3, r3, r2, lsr #8
 1109              		.loc 1 1954 35 view .LVU436
 1110 00e6 02F00042 		and	r2, r2, #-2147483648
 1111              	.LVL94:
 1112              		.loc 1 1955 74 view .LVU437
 1113 00ea 04F10064 		add	r4, r4, #134217728
 1114              		.loc 1 1957 54 view .LVU438
 1115 00ee 03F10063 		add	r3, r3, #134217728
 1116 00f2 D7E7     		b	.L126
 1117              	.L136:
 1118              		.align	2
 1119              	.L135:
 1120 00f4 00200052 		.word	1375739904
 1121 00f8 F300FFFF 		.word	-65293
 1122 00fc 0000FFFF 		.word	-65536
 1123 0100 00FF0F00 		.word	1048320
 1124              	.LBE102:
 1125              	.LBE105:
 1126              		.cfi_endproc
 1127              	.LFE144:
 1128              		.size	HAL_FLASHEx_OBGetConfig, .-HAL_FLASHEx_OBGetConfig
 1129              		.section	.text.HAL_FLASHEx_Unlock_Bank1,"ax",%progbits
 1130              		.align	1
 1131              		.p2align 2,,3
 1132              		.global	HAL_FLASHEx_Unlock_Bank1
 1133              		.syntax unified
 1134              		.thumb
 1135              		.thumb_func
 1136              		.type	HAL_FLASHEx_Unlock_Bank1, %function
 1137              	HAL_FLASHEx_Unlock_Bank1:
 1138              	.LFB145:
 1139              		.loc 1 636 1 is_stmt 1 view -0
 1140              		.cfi_startproc
ARM GAS  C:\Users\DEVELO~1\AppData\Local\Temp\ccY0vS6N.s 			page 21


 1141              		@ args = 0, pretend = 0, frame = 0
 1142              		@ frame_needed = 0, uses_anonymous_args = 0
 1143              		@ link register save eliminated.
 1144              		.loc 1 637 3 view .LVU440
 1145              		.loc 1 637 6 is_stmt 0 view .LVU441
 1146 0000 064B     		ldr	r3, .L140
 1147 0002 D868     		ldr	r0, [r3, #12]
 1148              		.loc 1 637 5 view .LVU442
 1149 0004 10F00100 		ands	r0, r0, #1
 1150 0008 06D0     		beq	.L138
 1151              		.loc 1 640 5 is_stmt 1 view .LVU443
 1152 000a 0549     		ldr	r1, .L140+4
 1153              		.loc 1 641 5 is_stmt 0 view .LVU444
 1154 000c 054A     		ldr	r2, .L140+8
 1155              		.loc 1 640 5 view .LVU445
 1156 000e 5960     		str	r1, [r3, #4]
 1157              		.loc 1 641 5 is_stmt 1 view .LVU446
 1158 0010 5A60     		str	r2, [r3, #4]
 1159              		.loc 1 644 5 view .LVU447
 1160              		.loc 1 644 9 is_stmt 0 view .LVU448
 1161 0012 D868     		ldr	r0, [r3, #12]
 1162              		.loc 1 644 8 view .LVU449
 1163 0014 00F00100 		and	r0, r0, #1
 1164              	.L138:
 1165              		.loc 1 651 1 view .LVU450
 1166 0018 7047     		bx	lr
 1167              	.L141:
 1168 001a 00BF     		.align	2
 1169              	.L140:
 1170 001c 00200052 		.word	1375739904
 1171 0020 23016745 		.word	1164378403
 1172 0024 AB89EFCD 		.word	-839939669
 1173              		.cfi_endproc
 1174              	.LFE145:
 1175              		.size	HAL_FLASHEx_Unlock_Bank1, .-HAL_FLASHEx_Unlock_Bank1
 1176              		.section	.text.HAL_FLASHEx_Lock_Bank1,"ax",%progbits
 1177              		.align	1
 1178              		.p2align 2,,3
 1179              		.global	HAL_FLASHEx_Lock_Bank1
 1180              		.syntax unified
 1181              		.thumb
 1182              		.thumb_func
 1183              		.type	HAL_FLASHEx_Lock_Bank1, %function
 1184              	HAL_FLASHEx_Lock_Bank1:
 1185              	.LFB146:
 1186              		.loc 1 658 1 is_stmt 1 view -0
 1187              		.cfi_startproc
 1188              		@ args = 0, pretend = 0, frame = 0
 1189              		@ frame_needed = 0, uses_anonymous_args = 0
 1190              		@ link register save eliminated.
 1191              		.loc 1 660 3 view .LVU452
 1192 0000 034A     		ldr	r2, .L143
 1193              		.loc 1 662 1 is_stmt 0 view .LVU453
 1194 0002 0020     		movs	r0, #0
 1195              		.loc 1 660 3 view .LVU454
 1196 0004 D368     		ldr	r3, [r2, #12]
 1197 0006 43F00103 		orr	r3, r3, #1
ARM GAS  C:\Users\DEVELO~1\AppData\Local\Temp\ccY0vS6N.s 			page 22


 1198 000a D360     		str	r3, [r2, #12]
 1199              		.loc 1 661 3 is_stmt 1 view .LVU455
 1200              		.loc 1 662 1 is_stmt 0 view .LVU456
 1201 000c 7047     		bx	lr
 1202              	.L144:
 1203 000e 00BF     		.align	2
 1204              	.L143:
 1205 0010 00200052 		.word	1375739904
 1206              		.cfi_endproc
 1207              	.LFE146:
 1208              		.size	HAL_FLASHEx_Lock_Bank1, .-HAL_FLASHEx_Lock_Bank1
 1209              		.section	.text.HAL_FLASHEx_Unlock_Bank2,"ax",%progbits
 1210              		.align	1
 1211              		.p2align 2,,3
 1212              		.global	HAL_FLASHEx_Unlock_Bank2
 1213              		.syntax unified
 1214              		.thumb
 1215              		.thumb_func
 1216              		.type	HAL_FLASHEx_Unlock_Bank2, %function
 1217              	HAL_FLASHEx_Unlock_Bank2:
 1218              	.LFB147:
 1219              		.loc 1 670 1 is_stmt 1 view -0
 1220              		.cfi_startproc
 1221              		@ args = 0, pretend = 0, frame = 0
 1222              		@ frame_needed = 0, uses_anonymous_args = 0
 1223              		@ link register save eliminated.
 1224              		.loc 1 671 3 view .LVU458
 1225              		.loc 1 671 6 is_stmt 0 view .LVU459
 1226 0000 084B     		ldr	r3, .L148
 1227 0002 D3F80C01 		ldr	r0, [r3, #268]
 1228              		.loc 1 671 5 view .LVU460
 1229 0006 10F00100 		ands	r0, r0, #1
 1230 000a 09D0     		beq	.L146
 1231              		.loc 1 674 5 is_stmt 1 view .LVU461
 1232 000c 0649     		ldr	r1, .L148+4
 1233              		.loc 1 675 5 is_stmt 0 view .LVU462
 1234 000e 074A     		ldr	r2, .L148+8
 1235              		.loc 1 674 5 view .LVU463
 1236 0010 C3F80411 		str	r1, [r3, #260]
 1237              		.loc 1 675 5 is_stmt 1 view .LVU464
 1238 0014 C3F80421 		str	r2, [r3, #260]
 1239              		.loc 1 678 5 view .LVU465
 1240              		.loc 1 678 9 is_stmt 0 view .LVU466
 1241 0018 D3F80C01 		ldr	r0, [r3, #268]
 1242              		.loc 1 678 8 view .LVU467
 1243 001c 00F00100 		and	r0, r0, #1
 1244              	.L146:
 1245              		.loc 1 685 1 view .LVU468
 1246 0020 7047     		bx	lr
 1247              	.L149:
 1248 0022 00BF     		.align	2
 1249              	.L148:
 1250 0024 00200052 		.word	1375739904
 1251 0028 23016745 		.word	1164378403
 1252 002c AB89EFCD 		.word	-839939669
 1253              		.cfi_endproc
 1254              	.LFE147:
ARM GAS  C:\Users\DEVELO~1\AppData\Local\Temp\ccY0vS6N.s 			page 23


 1255              		.size	HAL_FLASHEx_Unlock_Bank2, .-HAL_FLASHEx_Unlock_Bank2
 1256              		.section	.text.HAL_FLASHEx_Lock_Bank2,"ax",%progbits
 1257              		.align	1
 1258              		.p2align 2,,3
 1259              		.global	HAL_FLASHEx_Lock_Bank2
 1260              		.syntax unified
 1261              		.thumb
 1262              		.thumb_func
 1263              		.type	HAL_FLASHEx_Lock_Bank2, %function
 1264              	HAL_FLASHEx_Lock_Bank2:
 1265              	.LFB148:
 1266              		.loc 1 692 1 is_stmt 1 view -0
 1267              		.cfi_startproc
 1268              		@ args = 0, pretend = 0, frame = 0
 1269              		@ frame_needed = 0, uses_anonymous_args = 0
 1270              		@ link register save eliminated.
 1271              		.loc 1 694 3 view .LVU470
 1272 0000 044A     		ldr	r2, .L151
 1273              		.loc 1 696 1 is_stmt 0 view .LVU471
 1274 0002 0020     		movs	r0, #0
 1275              		.loc 1 694 3 view .LVU472
 1276 0004 D2F80C31 		ldr	r3, [r2, #268]
 1277 0008 43F00103 		orr	r3, r3, #1
 1278 000c C2F80C31 		str	r3, [r2, #268]
 1279              		.loc 1 695 3 is_stmt 1 view .LVU473
 1280              		.loc 1 696 1 is_stmt 0 view .LVU474
 1281 0010 7047     		bx	lr
 1282              	.L152:
 1283 0012 00BF     		.align	2
 1284              	.L151:
 1285 0014 00200052 		.word	1375739904
 1286              		.cfi_endproc
 1287              	.LFE148:
 1288              		.size	HAL_FLASHEx_Lock_Bank2, .-HAL_FLASHEx_Lock_Bank2
 1289              		.section	.text.HAL_FLASHEx_ComputeCRC,"ax",%progbits
 1290              		.align	1
 1291              		.p2align 2,,3
 1292              		.global	HAL_FLASHEx_ComputeCRC
 1293              		.syntax unified
 1294              		.thumb
 1295              		.thumb_func
 1296              		.type	HAL_FLASHEx_ComputeCRC, %function
 1297              	HAL_FLASHEx_ComputeCRC:
 1298              	.LVL95:
 1299              	.LFB149:
 1300              		.loc 1 711 1 is_stmt 1 view -0
 1301              		.cfi_startproc
 1302              		@ args = 0, pretend = 0, frame = 0
 1303              		@ frame_needed = 0, uses_anonymous_args = 0
 1304              		.loc 1 712 3 view .LVU476
 1305              		.loc 1 713 3 view .LVU477
 1306              		.loc 1 716 3 view .LVU478
 1307              		.loc 1 717 3 view .LVU479
 1308              		.loc 1 720 3 view .LVU480
 1309              		.loc 1 711 1 is_stmt 0 view .LVU481
 1310 0000 38B5     		push	{r3, r4, r5, lr}
 1311              		.cfi_def_cfa_offset 16
ARM GAS  C:\Users\DEVELO~1\AppData\Local\Temp\ccY0vS6N.s 			page 24


 1312              		.cfi_offset 3, -16
 1313              		.cfi_offset 4, -12
 1314              		.cfi_offset 5, -8
 1315              		.cfi_offset 14, -4
 1316              		.loc 1 711 1 view .LVU482
 1317 0002 0546     		mov	r5, r0
 1318              		.loc 1 720 12 view .LVU483
 1319 0004 4CF25030 		movw	r0, #50000
 1320              	.LVL96:
 1321              		.loc 1 711 1 view .LVU484
 1322 0008 0C46     		mov	r4, r1
 1323              		.loc 1 720 12 view .LVU485
 1324 000a FFF7FEFF 		bl	FLASH_OB_WaitForLastOperation
 1325              	.LVL97:
 1326              		.loc 1 722 3 is_stmt 1 view .LVU486
 1327              		.loc 1 722 6 is_stmt 0 view .LVU487
 1328 000e 0028     		cmp	r0, #0
 1329 0010 3ED1     		bne	.L154
 1330              		.loc 1 724 5 is_stmt 1 view .LVU488
 1331              		.loc 1 724 8 is_stmt 0 view .LVU489
 1332 0012 AB68     		ldr	r3, [r5, #8]
 1333 0014 012B     		cmp	r3, #1
 1334              		.loc 1 727 18 view .LVU490
 1335 0016 554B     		ldr	r3, .L176
 1336              		.loc 1 724 8 view .LVU491
 1337 0018 3BD0     		beq	.L171
 1338              		.loc 1 776 7 is_stmt 1 view .LVU492
 1339              		.loc 1 776 18 is_stmt 0 view .LVU493
 1340 001a D3F80C21 		ldr	r2, [r3, #268]
 1341 001e 42F40042 		orr	r2, r2, #32768
 1342 0022 C3F80C21 		str	r2, [r3, #268]
 1343              		.loc 1 779 7 is_stmt 1 view .LVU494
 1344              		.loc 1 779 19 is_stmt 0 view .LVU495
 1345 0026 D3F81421 		ldr	r2, [r3, #276]
 1346 002a 42F0C052 		orr	r2, r2, #402653184
 1347 002e C3F81421 		str	r2, [r3, #276]
 1348              		.loc 1 782 7 is_stmt 1 view .LVU496
 1349              		.loc 1 782 21 is_stmt 0 view .LVU497
 1350 0032 D3F85001 		ldr	r0, [r3, #336]
 1351              	.LVL98:
 1352              		.loc 1 782 68 view .LVU498
 1353 0036 D5E90012 		ldrd	r1, r2, [r5]
 1354 003a 0A43     		orrs	r2, r2, r1
 1355              		.loc 1 784 10 view .LVU499
 1356 003c B1F5807F 		cmp	r1, #256
 1357              		.loc 1 782 21 view .LVU500
 1358 0040 42EA0002 		orr	r2, r2, r0
 1359 0044 42F40032 		orr	r2, r2, #131072
 1360 0048 C3F85021 		str	r2, [r3, #336]
 1361              		.loc 1 784 7 is_stmt 1 view .LVU501
 1362              		.loc 1 784 10 is_stmt 0 view .LVU502
 1363 004c 57D0     		beq	.L172
 1364              		.loc 1 795 12 is_stmt 1 view .LVU503
 1365              		.loc 1 795 15 is_stmt 0 view .LVU504
 1366 004e 484A     		ldr	r2, .L176+4
 1367 0050 9142     		cmp	r1, r2
 1368 0052 4DD0     		beq	.L173
ARM GAS  C:\Users\DEVELO~1\AppData\Local\Temp\ccY0vS6N.s 			page 25


 1369              		.loc 1 803 9 is_stmt 1 view .LVU505
 1370 0054 D5E90512 		ldrd	r1, r2, [r5, #20]
 1371              	.LVL99:
 1372              	.LBB116:
 1373              	.LBI116:
 1374              		.loc 1 1998 13 view .LVU506
 1375              	.LBB117:
 1376              		.loc 1 2000 3 view .LVU507
 1377              		.loc 1 2012 5 view .LVU508
 1378              		.loc 1 2013 5 view .LVU509
 1379              		.loc 1 2016 5 view .LVU510
 1380              		.loc 1 2016 21 is_stmt 0 view .LVU511
 1381 0058 C3F85411 		str	r1, [r3, #340]
 1382              		.loc 1 2017 5 is_stmt 1 view .LVU512
 1383              		.loc 1 2017 21 is_stmt 0 view .LVU513
 1384 005c C3F85821 		str	r2, [r3, #344]
 1385              	.LVL100:
 1386              	.L163:
 1387              		.loc 1 2017 21 view .LVU514
 1388              	.LBE117:
 1389              	.LBE116:
 1390              		.loc 1 807 7 is_stmt 1 view .LVU515
 1391              		.loc 1 807 21 is_stmt 0 view .LVU516
 1392 0060 424D     		ldr	r5, .L176
 1393              	.LVL101:
 1394              		.loc 1 810 16 view .LVU517
 1395 0062 0221     		movs	r1, #2
 1396 0064 4CF25030 		movw	r0, #50000
 1397              		.loc 1 807 21 view .LVU518
 1398 0068 D5F85031 		ldr	r3, [r5, #336]
 1399 006c 43F48033 		orr	r3, r3, #65536
 1400 0070 C5F85031 		str	r3, [r5, #336]
 1401              		.loc 1 810 7 is_stmt 1 view .LVU519
 1402              		.loc 1 810 16 is_stmt 0 view .LVU520
 1403 0074 FFF7FEFF 		bl	FLASH_CRC_WaitForLastOperation
 1404              	.LVL102:
 1405              		.loc 1 813 28 view .LVU521
 1406 0078 EB6D     		ldr	r3, [r5, #92]
 1407              		.loc 1 819 7 view .LVU522
 1408 007a 4FF0C052 		mov	r2, #402653184
 1409              	.LVL103:
 1410              		.loc 1 813 7 is_stmt 1 view .LVU523
 1411              		.loc 1 813 21 is_stmt 0 view .LVU524
 1412 007e 2360     		str	r3, [r4]
 1413              		.loc 1 816 7 is_stmt 1 view .LVU525
 1414              		.loc 1 816 18 is_stmt 0 view .LVU526
 1415 0080 D5F80C31 		ldr	r3, [r5, #268]
 1416 0084 23F40043 		bic	r3, r3, #32768
 1417 0088 C5F80C31 		str	r3, [r5, #268]
 1418              		.loc 1 819 7 is_stmt 1 view .LVU527
 1419 008c C5F81421 		str	r2, [r5, #276]
 1420              	.L154:
 1421              		.loc 1 824 3 view .LVU528
 1422              		.loc 1 825 1 is_stmt 0 view .LVU529
 1423 0090 38BD     		pop	{r3, r4, r5, pc}
 1424              	.LVL104:
 1425              	.L171:
ARM GAS  C:\Users\DEVELO~1\AppData\Local\Temp\ccY0vS6N.s 			page 26


 1426              		.loc 1 727 7 is_stmt 1 view .LVU530
 1427              		.loc 1 727 18 is_stmt 0 view .LVU531
 1428 0092 DA68     		ldr	r2, [r3, #12]
 1429 0094 42F40042 		orr	r2, r2, #32768
 1430 0098 DA60     		str	r2, [r3, #12]
 1431              		.loc 1 730 7 is_stmt 1 view .LVU532
 1432              		.loc 1 730 19 is_stmt 0 view .LVU533
 1433 009a 5A69     		ldr	r2, [r3, #20]
 1434 009c 42F0C052 		orr	r2, r2, #402653184
 1435 00a0 5A61     		str	r2, [r3, #20]
 1436              		.loc 1 733 7 is_stmt 1 view .LVU534
 1437              		.loc 1 733 21 is_stmt 0 view .LVU535
 1438 00a2 186D     		ldr	r0, [r3, #80]
 1439              	.LVL105:
 1440              		.loc 1 733 68 view .LVU536
 1441 00a4 D5E90012 		ldrd	r1, r2, [r5]
 1442 00a8 0A43     		orrs	r2, r2, r1
 1443              		.loc 1 735 10 view .LVU537
 1444 00aa B1F5807F 		cmp	r1, #256
 1445              		.loc 1 733 21 view .LVU538
 1446 00ae 42EA0002 		orr	r2, r2, r0
 1447 00b2 42F40032 		orr	r2, r2, #131072
 1448 00b6 1A65     		str	r2, [r3, #80]
 1449              		.loc 1 735 7 is_stmt 1 view .LVU539
 1450              		.loc 1 735 10 is_stmt 0 view .LVU540
 1451 00b8 3DD0     		beq	.L174
 1452              		.loc 1 746 12 is_stmt 1 view .LVU541
 1453              		.loc 1 746 15 is_stmt 0 view .LVU542
 1454 00ba 2D4A     		ldr	r2, .L176+4
 1455 00bc 9142     		cmp	r1, r2
 1456 00be 50D0     		beq	.L175
 1457              		.loc 1 754 9 is_stmt 1 view .LVU543
 1458 00c0 D5E90512 		ldrd	r1, r2, [r5, #20]
 1459              	.LVL106:
 1460              	.LBB118:
 1461              	.LBI118:
 1462              		.loc 1 1998 13 view .LVU544
 1463              	.LBB119:
 1464              		.loc 1 2000 3 view .LVU545
 1465              		.loc 1 2002 5 view .LVU546
 1466              		.loc 1 2003 5 view .LVU547
 1467              		.loc 1 2006 5 view .LVU548
 1468              		.loc 1 2006 21 is_stmt 0 view .LVU549
 1469 00c4 5965     		str	r1, [r3, #84]
 1470              		.loc 1 2007 5 is_stmt 1 view .LVU550
 1471              		.loc 1 2007 21 is_stmt 0 view .LVU551
 1472 00c6 9A65     		str	r2, [r3, #88]
 1473              	.LVL107:
 1474              	.L158:
 1475              		.loc 1 2007 21 view .LVU552
 1476              	.LBE119:
 1477              	.LBE118:
 1478              		.loc 1 758 7 is_stmt 1 view .LVU553
 1479              		.loc 1 758 21 is_stmt 0 view .LVU554
 1480 00c8 284D     		ldr	r5, .L176
 1481              	.LVL108:
 1482              		.loc 1 761 16 view .LVU555
ARM GAS  C:\Users\DEVELO~1\AppData\Local\Temp\ccY0vS6N.s 			page 27


 1483 00ca 0121     		movs	r1, #1
 1484 00cc 4CF25030 		movw	r0, #50000
 1485              		.loc 1 758 21 view .LVU556
 1486 00d0 2B6D     		ldr	r3, [r5, #80]
 1487 00d2 43F48033 		orr	r3, r3, #65536
 1488 00d6 2B65     		str	r3, [r5, #80]
 1489              		.loc 1 761 7 is_stmt 1 view .LVU557
 1490              		.loc 1 761 16 is_stmt 0 view .LVU558
 1491 00d8 FFF7FEFF 		bl	FLASH_CRC_WaitForLastOperation
 1492              	.LVL109:
 1493              		.loc 1 764 28 view .LVU559
 1494 00dc EB6D     		ldr	r3, [r5, #92]
 1495              		.loc 1 770 7 view .LVU560
 1496 00de 4FF0C052 		mov	r2, #402653184
 1497              	.LVL110:
 1498              		.loc 1 764 7 is_stmt 1 view .LVU561
 1499              		.loc 1 764 21 is_stmt 0 view .LVU562
 1500 00e2 2360     		str	r3, [r4]
 1501              		.loc 1 767 7 is_stmt 1 view .LVU563
 1502              		.loc 1 767 18 is_stmt 0 view .LVU564
 1503 00e4 EB68     		ldr	r3, [r5, #12]
 1504 00e6 23F40043 		bic	r3, r3, #32768
 1505 00ea EB60     		str	r3, [r5, #12]
 1506              		.loc 1 770 7 is_stmt 1 view .LVU565
 1507 00ec 6A61     		str	r2, [r5, #20]
 1508              		.loc 1 824 3 view .LVU566
 1509              		.loc 1 825 1 is_stmt 0 view .LVU567
 1510 00ee 38BD     		pop	{r3, r4, r5, pc}
 1511              	.LVL111:
 1512              	.L173:
 1513              		.loc 1 798 9 is_stmt 1 view .LVU568
 1514              		.loc 1 798 23 is_stmt 0 view .LVU569
 1515 00f0 D3F85021 		ldr	r2, [r3, #336]
 1516 00f4 42F48002 		orr	r2, r2, #4194304
 1517 00f8 C3F85021 		str	r2, [r3, #336]
 1518 00fc B0E7     		b	.L163
 1519              	.L172:
 1520              		.loc 1 787 9 is_stmt 1 view .LVU570
 1521              		.loc 1 787 23 is_stmt 0 view .LVU571
 1522 00fe D3F85021 		ldr	r2, [r3, #336]
 1523 0102 42F48062 		orr	r2, r2, #1024
 1524 0106 C3F85021 		str	r2, [r3, #336]
 1525              		.loc 1 790 9 is_stmt 1 view .LVU572
 1526              		.loc 1 790 82 is_stmt 0 view .LVU573
 1527 010a D5E90310 		ldrd	r1, r0, [r5, #12]
 1528 010e 0844     		add	r0, r0, r1
 1529              		.loc 1 790 59 view .LVU574
 1530 0110 8142     		cmp	r1, r0
 1531 0112 A5D2     		bcs	.L163
 1532              	.L162:
 1533              	.LVL112:
 1534              		.loc 1 792 11 is_stmt 1 view .LVU575
 1535              	.LBB120:
 1536              	.LBI120:
 1537              		.loc 1 1966 13 view .LVU576
 1538              	.LBB121:
 1539              		.loc 1 1969 3 view .LVU577
ARM GAS  C:\Users\DEVELO~1\AppData\Local\Temp\ccY0vS6N.s 			page 28


 1540              		.loc 1 1971 3 view .LVU578
 1541              		.loc 1 1983 5 view .LVU579
 1542              		.loc 1 1983 19 is_stmt 0 view .LVU580
 1543 0114 D3F85021 		ldr	r2, [r3, #336]
 1544 0118 22F00702 		bic	r2, r2, #7
 1545 011c C3F85021 		str	r2, [r3, #336]
 1546              		.loc 1 1986 5 is_stmt 1 view .LVU581
 1547              		.loc 1 1986 19 is_stmt 0 view .LVU582
 1548 0120 D3F85021 		ldr	r2, [r3, #336]
 1549 0124 0A43     		orrs	r2, r2, r1
 1550              	.LBE121:
 1551              	.LBE120:
 1552              		.loc 1 790 115 view .LVU583
 1553 0126 0131     		adds	r1, r1, #1
 1554              	.LVL113:
 1555              	.LBB124:
 1556              	.LBB122:
 1557              		.loc 1 1986 19 view .LVU584
 1558 0128 42F40072 		orr	r2, r2, #512
 1559              	.LBE122:
 1560              	.LBE124:
 1561              		.loc 1 790 59 view .LVU585
 1562 012c 8142     		cmp	r1, r0
 1563              	.LBB125:
 1564              	.LBB123:
 1565              		.loc 1 1986 19 view .LVU586
 1566 012e C3F85021 		str	r2, [r3, #336]
 1567              	.LVL114:
 1568              		.loc 1 1986 19 view .LVU587
 1569              	.LBE123:
 1570              	.LBE125:
 1571              		.loc 1 790 115 is_stmt 1 view .LVU588
 1572              		.loc 1 790 59 view .LVU589
 1573 0132 EFD1     		bne	.L162
 1574 0134 94E7     		b	.L163
 1575              	.LVL115:
 1576              	.L174:
 1577              		.loc 1 738 9 view .LVU590
 1578              		.loc 1 738 23 is_stmt 0 view .LVU591
 1579 0136 1A6D     		ldr	r2, [r3, #80]
 1580 0138 42F48062 		orr	r2, r2, #1024
 1581 013c 1A65     		str	r2, [r3, #80]
 1582              		.loc 1 741 9 is_stmt 1 view .LVU592
 1583              		.loc 1 741 82 is_stmt 0 view .LVU593
 1584 013e D5E90310 		ldrd	r1, r0, [r5, #12]
 1585 0142 0844     		add	r0, r0, r1
 1586              		.loc 1 741 59 view .LVU594
 1587 0144 8142     		cmp	r1, r0
 1588 0146 BFD2     		bcs	.L158
 1589              	.L157:
 1590              	.LVL116:
 1591              		.loc 1 743 11 is_stmt 1 view .LVU595
 1592              	.LBB126:
 1593              	.LBI126:
 1594              		.loc 1 1966 13 view .LVU596
 1595              		.loc 1 1969 3 view .LVU597
 1596              		.loc 1 1971 3 view .LVU598
ARM GAS  C:\Users\DEVELO~1\AppData\Local\Temp\ccY0vS6N.s 			page 29


 1597              	.LBB127:
 1598              	.LBI127:
 1599              		.loc 1 1966 13 view .LVU599
 1600              	.LBB128:
 1601              		.loc 1 1974 5 view .LVU600
 1602              		.loc 1 1974 19 is_stmt 0 view .LVU601
 1603 0148 1A6D     		ldr	r2, [r3, #80]
 1604 014a 22F00702 		bic	r2, r2, #7
 1605 014e 1A65     		str	r2, [r3, #80]
 1606              		.loc 1 1977 5 is_stmt 1 view .LVU602
 1607              		.loc 1 1977 19 is_stmt 0 view .LVU603
 1608 0150 1A6D     		ldr	r2, [r3, #80]
 1609 0152 0A43     		orrs	r2, r2, r1
 1610              	.LBE128:
 1611              	.LBE127:
 1612              	.LBE126:
 1613              		.loc 1 741 115 view .LVU604
 1614 0154 0131     		adds	r1, r1, #1
 1615              	.LVL117:
 1616              	.LBB133:
 1617              	.LBB131:
 1618              	.LBB129:
 1619              		.loc 1 1977 19 view .LVU605
 1620 0156 42F40072 		orr	r2, r2, #512
 1621              	.LBE129:
 1622              	.LBE131:
 1623              	.LBE133:
 1624              		.loc 1 741 59 view .LVU606
 1625 015a 8142     		cmp	r1, r0
 1626              	.LBB134:
 1627              	.LBB132:
 1628              	.LBB130:
 1629              		.loc 1 1977 19 view .LVU607
 1630 015c 1A65     		str	r2, [r3, #80]
 1631              	.LVL118:
 1632              		.loc 1 1977 19 view .LVU608
 1633              	.LBE130:
 1634              	.LBE132:
 1635              	.LBE134:
 1636              		.loc 1 741 115 is_stmt 1 view .LVU609
 1637              		.loc 1 741 59 view .LVU610
 1638 015e F3D1     		bne	.L157
 1639 0160 B2E7     		b	.L158
 1640              	.LVL119:
 1641              	.L175:
 1642              		.loc 1 749 9 view .LVU611
 1643              		.loc 1 749 23 is_stmt 0 view .LVU612
 1644 0162 1A6D     		ldr	r2, [r3, #80]
 1645 0164 42F48002 		orr	r2, r2, #4194304
 1646 0168 1A65     		str	r2, [r3, #80]
 1647 016a ADE7     		b	.L158
 1648              	.L177:
 1649              		.align	2
 1650              	.L176:
 1651 016c 00200052 		.word	1375739904
 1652 0170 00014000 		.word	4194560
 1653              		.cfi_endproc
ARM GAS  C:\Users\DEVELO~1\AppData\Local\Temp\ccY0vS6N.s 			page 30


 1654              	.LFE149:
 1655              		.size	HAL_FLASHEx_ComputeCRC, .-HAL_FLASHEx_ComputeCRC
 1656              		.section	.text.FLASH_Erase_Sector,"ax",%progbits
 1657              		.align	1
 1658              		.p2align 2,,3
 1659              		.global	FLASH_Erase_Sector
 1660              		.syntax unified
 1661              		.thumb
 1662              		.thumb_func
 1663              		.type	FLASH_Erase_Sector, %function
 1664              	FLASH_Erase_Sector:
 1665              	.LVL120:
 1666              	.LFB151:
 1667              		.loc 1 1181 1 is_stmt 1 view -0
 1668              		.cfi_startproc
 1669              		@ args = 0, pretend = 0, frame = 0
 1670              		@ frame_needed = 0, uses_anonymous_args = 0
 1671              		@ link register save eliminated.
 1672              		.loc 1 1182 3 view .LVU614
 1673              		.loc 1 1183 3 view .LVU615
 1674              		.loc 1 1185 3 view .LVU616
 1675              		.loc 1 1190 3 view .LVU617
 1676              		.loc 1 1181 1 is_stmt 0 view .LVU618
 1677 0000 10B4     		push	{r4}
 1678              		.cfi_def_cfa_offset 4
 1679              		.cfi_offset 4, -4
 1680              		.loc 1 1190 5 view .LVU619
 1681 0002 CC07     		lsls	r4, r1, #31
 1682 0004 0BD5     		bpl	.L179
 1683              		.loc 1 1194 5 is_stmt 1 view .LVU620
 1684              		.loc 1 1194 16 is_stmt 0 view .LVU621
 1685 0006 104C     		ldr	r4, .L188
 1686 0008 E368     		ldr	r3, [r4, #12]
 1687 000a 23F4E663 		bic	r3, r3, #1840
 1688 000e E360     		str	r3, [r4, #12]
 1689              		.loc 1 1196 5 is_stmt 1 view .LVU622
 1690              		.loc 1 1196 16 is_stmt 0 view .LVU623
 1691 0010 E368     		ldr	r3, [r4, #12]
 1692 0012 43EA0023 		orr	r3, r3, r0, lsl #8
 1693 0016 1343     		orrs	r3, r3, r2
 1694 0018 43F08403 		orr	r3, r3, #132
 1695 001c E360     		str	r3, [r4, #12]
 1696              	.L179:
 1697              		.loc 1 1206 3 is_stmt 1 view .LVU624
 1698              		.loc 1 1206 5 is_stmt 0 view .LVU625
 1699 001e 8B07     		lsls	r3, r1, #30
 1700 0020 0FD5     		bpl	.L178
 1701              	.LVL121:
 1702              	.LBB137:
 1703              	.LBI137:
 1704              		.loc 1 1180 6 is_stmt 1 view .LVU626
 1705              	.LBB138:
 1706              		.loc 1 1210 5 view .LVU627
 1707              		.loc 1 1210 16 is_stmt 0 view .LVU628
 1708 0022 0949     		ldr	r1, .L188
 1709              	.LVL122:
 1710              		.loc 1 1210 16 view .LVU629
ARM GAS  C:\Users\DEVELO~1\AppData\Local\Temp\ccY0vS6N.s 			page 31


 1711 0024 D1F80C31 		ldr	r3, [r1, #268]
 1712 0028 23F4E663 		bic	r3, r3, #1840
 1713 002c C1F80C31 		str	r3, [r1, #268]
 1714              		.loc 1 1212 5 is_stmt 1 view .LVU630
 1715              		.loc 1 1212 16 is_stmt 0 view .LVU631
 1716 0030 D1F80C31 		ldr	r3, [r1, #268]
 1717 0034 43EA0020 		orr	r0, r3, r0, lsl #8
 1718              	.LVL123:
 1719              		.loc 1 1212 16 view .LVU632
 1720 0038 0243     		orrs	r2, r2, r0
 1721              	.LVL124:
 1722              		.loc 1 1212 16 view .LVU633
 1723 003a 42F08402 		orr	r2, r2, #132
 1724 003e C1F80C21 		str	r2, [r1, #268]
 1725              	.LVL125:
 1726              	.L178:
 1727              		.loc 1 1212 16 view .LVU634
 1728              	.LBE138:
 1729              	.LBE137:
 1730              		.loc 1 1221 1 view .LVU635
 1731 0042 5DF8044B 		ldr	r4, [sp], #4
 1732              		.cfi_restore 4
 1733              		.cfi_def_cfa_offset 0
 1734 0046 7047     		bx	lr
 1735              	.L189:
 1736              		.align	2
 1737              	.L188:
 1738 0048 00200052 		.word	1375739904
 1739              		.cfi_endproc
 1740              	.LFE151:
 1741              		.size	FLASH_Erase_Sector, .-FLASH_Erase_Sector
 1742              		.section	.text.HAL_FLASHEx_Erase,"ax",%progbits
 1743              		.align	1
 1744              		.p2align 2,,3
 1745              		.global	HAL_FLASHEx_Erase
 1746              		.syntax unified
 1747              		.thumb
 1748              		.thumb_func
 1749              		.type	HAL_FLASHEx_Erase, %function
 1750              	HAL_FLASHEx_Erase:
 1751              	.LVL126:
 1752              	.LFB141:
 1753              		.loc 1 187 1 is_stmt 1 view -0
 1754              		.cfi_startproc
 1755              		@ args = 0, pretend = 0, frame = 0
 1756              		@ frame_needed = 0, uses_anonymous_args = 0
 1757              		.loc 1 188 3 view .LVU637
 1758              		.loc 1 189 3 view .LVU638
 1759              		.loc 1 192 3 view .LVU639
 1760              		.loc 1 193 3 view .LVU640
 1761              		.loc 1 196 3 view .LVU641
 1762              		.loc 1 196 3 view .LVU642
 1763              		.loc 1 187 1 is_stmt 0 view .LVU643
 1764 0000 2DE9F047 		push	{r4, r5, r6, r7, r8, r9, r10, lr}
 1765              		.cfi_def_cfa_offset 32
 1766              		.cfi_offset 4, -32
 1767              		.cfi_offset 5, -28
ARM GAS  C:\Users\DEVELO~1\AppData\Local\Temp\ccY0vS6N.s 			page 32


 1768              		.cfi_offset 6, -24
 1769              		.cfi_offset 7, -20
 1770              		.cfi_offset 8, -16
 1771              		.cfi_offset 9, -12
 1772              		.cfi_offset 10, -8
 1773              		.cfi_offset 14, -4
 1774              		.loc 1 196 3 view .LVU644
 1775 0004 4D4F     		ldr	r7, .L235
 1776 0006 3B7D     		ldrb	r3, [r7, #20]	@ zero_extendqisi2
 1777 0008 012B     		cmp	r3, #1
 1778 000a 6BD0     		beq	.L208
 1779              		.loc 1 196 3 is_stmt 1 discriminator 2 view .LVU645
 1780              		.loc 1 199 20 is_stmt 0 discriminator 2 view .LVU646
 1781 000c 0023     		movs	r3, #0
 1782              		.loc 1 196 3 discriminator 2 view .LVU647
 1783 000e 0126     		movs	r6, #1
 1784 0010 8946     		mov	r9, r1
 1785 0012 0446     		mov	r4, r0
 1786 0014 3E75     		strb	r6, [r7, #20]
 1787              		.loc 1 196 3 is_stmt 1 discriminator 2 view .LVU648
 1788              		.loc 1 199 3 discriminator 2 view .LVU649
 1789              		.loc 1 199 20 is_stmt 0 discriminator 2 view .LVU650
 1790 0016 BB61     		str	r3, [r7, #24]
 1791              		.loc 1 202 3 is_stmt 1 discriminator 2 view .LVU651
 1792              		.loc 1 202 17 is_stmt 0 discriminator 2 view .LVU652
 1793 0018 4368     		ldr	r3, [r0, #4]
 1794              		.loc 1 202 5 discriminator 2 view .LVU653
 1795 001a D907     		lsls	r1, r3, #31
 1796              	.LVL127:
 1797              		.loc 1 202 5 discriminator 2 view .LVU654
 1798 001c 50D4     		bmi	.L231
 1799              	.LVL128:
 1800              	.L192:
 1801              		.loc 1 212 3 is_stmt 1 view .LVU655
 1802              		.loc 1 212 5 is_stmt 0 view .LVU656
 1803 001e 9B07     		lsls	r3, r3, #30
 1804 0020 34D4     		bmi	.L207
 1805              	.L194:
 1806              	.LVL129:
 1807              		.loc 1 223 5 is_stmt 1 view .LVU657
 1808              		.loc 1 223 7 is_stmt 0 view .LVU658
 1809 0022 2568     		ldr	r5, [r4]
 1810 0024 012D     		cmp	r5, #1
 1811 0026 61D0     		beq	.L232
 1812              		.loc 1 254 7 is_stmt 1 view .LVU659
 1813              		.loc 1 254 20 is_stmt 0 view .LVU660
 1814 0028 4FF0FF33 		mov	r3, #-1
 1815 002c C9F80030 		str	r3, [r9]
 1816              		.loc 1 257 7 is_stmt 1 view .LVU661
 1817              		.loc 1 257 84 is_stmt 0 view .LVU662
 1818 0030 D4E90253 		ldrd	r5, r3, [r4, #8]
 1819 0034 2B44     		add	r3, r3, r5
 1820              		.loc 1 257 59 view .LVU663
 1821 0036 AB42     		cmp	r3, r5
 1822 0038 52D9     		bls	.L204
 1823              		.loc 1 267 22 view .LVU664
 1824 003a DFF80481 		ldr	r8, .L235+4
ARM GAS  C:\Users\DEVELO~1\AppData\Local\Temp\ccY0vS6N.s 			page 33


 1825 003e DFF804A1 		ldr	r10, .L235+8
 1826 0042 07E0     		b	.L199
 1827              	.LVL130:
 1828              	.L233:
 1829              		.loc 1 270 11 view .LVU665
 1830 0044 B007     		lsls	r0, r6, #30
 1831 0046 2ED4     		bmi	.L203
 1832              	.LVL131:
 1833              	.L201:
 1834              		.loc 1 257 119 is_stmt 1 view .LVU666
 1835 0048 0135     		adds	r5, r5, #1
 1836              	.LVL132:
 1837              		.loc 1 257 59 view .LVU667
 1838              		.loc 1 257 84 is_stmt 0 view .LVU668
 1839 004a D4E90223 		ldrd	r2, r3, [r4, #8]
 1840 004e 1344     		add	r3, r3, r2
 1841              		.loc 1 257 59 view .LVU669
 1842 0050 AB42     		cmp	r3, r5
 1843 0052 45D9     		bls	.L204
 1844              	.LVL133:
 1845              	.L199:
 1846              		.loc 1 259 9 is_stmt 1 view .LVU670
 1847 0054 6668     		ldr	r6, [r4, #4]
 1848 0056 2846     		mov	r0, r5
 1849 0058 2269     		ldr	r2, [r4, #16]
 1850 005a 3146     		mov	r1, r6
 1851 005c FFF7FEFF 		bl	FLASH_Erase_Sector
 1852              	.LVL134:
 1853              		.loc 1 261 9 view .LVU671
 1854              		.loc 1 270 9 view .LVU672
 1855              		.loc 1 261 11 is_stmt 0 view .LVU673
 1856 0060 F307     		lsls	r3, r6, #31
 1857 0062 EFD5     		bpl	.L233
 1858              		.loc 1 264 11 is_stmt 1 view .LVU674
 1859              		.loc 1 264 20 is_stmt 0 view .LVU675
 1860 0064 0121     		movs	r1, #1
 1861 0066 4CF25030 		movw	r0, #50000
 1862 006a FFF7FEFF 		bl	FLASH_WaitForLastOperation
 1863              	.LVL135:
 1864              		.loc 1 267 22 view .LVU676
 1865 006e D8F80C30 		ldr	r3, [r8, #12]
 1866              		.loc 1 264 20 view .LVU677
 1867 0072 0646     		mov	r6, r0
 1868              	.LVL136:
 1869              		.loc 1 267 11 is_stmt 1 view .LVU678
 1870              		.loc 1 267 22 is_stmt 0 view .LVU679
 1871 0074 03EA0A03 		and	r3, r3, r10
 1872 0078 C8F80C30 		str	r3, [r8, #12]
 1873              		.loc 1 270 9 is_stmt 1 view .LVU680
 1874              		.loc 1 270 31 is_stmt 0 view .LVU681
 1875 007c 6368     		ldr	r3, [r4, #4]
 1876              		.loc 1 270 11 view .LVU682
 1877 007e 9907     		lsls	r1, r3, #30
 1878 0080 11D4     		bmi	.L203
 1879              	.L202:
 1880              		.loc 1 280 9 is_stmt 1 view .LVU683
 1881              		.loc 1 280 11 is_stmt 0 view .LVU684
ARM GAS  C:\Users\DEVELO~1\AppData\Local\Temp\ccY0vS6N.s 			page 34


 1882 0082 002E     		cmp	r6, #0
 1883 0084 E0D0     		beq	.L201
 1884              		.loc 1 283 11 is_stmt 1 view .LVU685
 1885              		.loc 1 283 24 is_stmt 0 view .LVU686
 1886 0086 C9F80050 		str	r5, [r9]
 1887              		.loc 1 284 11 is_stmt 1 view .LVU687
 1888 008a 07E0     		b	.L195
 1889              	.LVL137:
 1890              	.L207:
 1891              		.loc 1 214 5 view .LVU688
 1892              		.loc 1 214 8 is_stmt 0 view .LVU689
 1893 008c 0221     		movs	r1, #2
 1894 008e 4CF25030 		movw	r0, #50000
 1895 0092 FFF7FEFF 		bl	FLASH_WaitForLastOperation
 1896              	.LVL138:
 1897              		.loc 1 221 3 is_stmt 1 view .LVU690
 1898              		.loc 1 221 5 is_stmt 0 view .LVU691
 1899 0096 0028     		cmp	r0, #0
 1900 0098 C3D0     		beq	.L194
 1901              	.LVL139:
 1902              	.L206:
 1903              		.loc 1 244 18 view .LVU692
 1904 009a 0126     		movs	r6, #1
 1905              	.L195:
 1906              	.LVL140:
 1907              		.loc 1 291 3 is_stmt 1 view .LVU693
 1908              		.loc 1 291 3 view .LVU694
 1909 009c 0023     		movs	r3, #0
 1910              		.loc 1 294 1 is_stmt 0 view .LVU695
 1911 009e 3046     		mov	r0, r6
 1912              		.loc 1 291 3 view .LVU696
 1913 00a0 3B75     		strb	r3, [r7, #20]
 1914              		.loc 1 291 3 is_stmt 1 view .LVU697
 1915              		.loc 1 293 3 view .LVU698
 1916              		.loc 1 294 1 is_stmt 0 view .LVU699
 1917 00a2 BDE8F087 		pop	{r4, r5, r6, r7, r8, r9, r10, pc}
 1918              	.LVL141:
 1919              	.L203:
 1920              		.loc 1 273 11 is_stmt 1 view .LVU700
 1921              		.loc 1 273 20 is_stmt 0 view .LVU701
 1922 00a6 0221     		movs	r1, #2
 1923 00a8 4CF25030 		movw	r0, #50000
 1924 00ac FFF7FEFF 		bl	FLASH_WaitForLastOperation
 1925              	.LVL142:
 1926              		.loc 1 276 22 view .LVU702
 1927 00b0 D8F80C31 		ldr	r3, [r8, #268]
 1928              		.loc 1 273 20 view .LVU703
 1929 00b4 0646     		mov	r6, r0
 1930              	.LVL143:
 1931              		.loc 1 276 11 is_stmt 1 view .LVU704
 1932              		.loc 1 276 22 is_stmt 0 view .LVU705
 1933 00b6 03EA0A03 		and	r3, r3, r10
 1934 00ba C8F80C31 		str	r3, [r8, #268]
 1935 00be E0E7     		b	.L202
 1936              	.LVL144:
 1937              	.L231:
 1938              		.loc 1 204 5 is_stmt 1 view .LVU706
ARM GAS  C:\Users\DEVELO~1\AppData\Local\Temp\ccY0vS6N.s 			page 35


 1939              		.loc 1 204 8 is_stmt 0 view .LVU707
 1940 00c0 3146     		mov	r1, r6
 1941 00c2 4CF25030 		movw	r0, #50000
 1942              	.LVL145:
 1943              		.loc 1 204 8 view .LVU708
 1944 00c6 FFF7FEFF 		bl	FLASH_WaitForLastOperation
 1945              	.LVL146:
 1946              		.loc 1 212 25 view .LVU709
 1947 00ca 6368     		ldr	r3, [r4, #4]
 1948              		.loc 1 204 7 view .LVU710
 1949 00cc 0028     		cmp	r0, #0
 1950 00ce A6D0     		beq	.L192
 1951              		.loc 1 206 7 is_stmt 1 view .LVU711
 1952              	.LVL147:
 1953              		.loc 1 212 3 view .LVU712
 1954              		.loc 1 212 5 is_stmt 0 view .LVU713
 1955 00d0 9A07     		lsls	r2, r3, #30
 1956 00d2 E2D5     		bpl	.L206
 1957              		.loc 1 214 5 is_stmt 1 view .LVU714
 1958              		.loc 1 214 8 is_stmt 0 view .LVU715
 1959 00d4 0221     		movs	r1, #2
 1960 00d6 4CF25030 		movw	r0, #50000
 1961 00da FFF7FEFF 		bl	FLASH_WaitForLastOperation
 1962              	.LVL148:
 1963              		.loc 1 221 3 is_stmt 1 view .LVU716
 1964 00de DDE7     		b	.L195
 1965              	.LVL149:
 1966              	.L204:
 1967              		.loc 1 244 18 is_stmt 0 view .LVU717
 1968 00e0 0026     		movs	r6, #0
 1969 00e2 DBE7     		b	.L195
 1970              	.LVL150:
 1971              	.L208:
 1972              		.loc 1 196 3 view .LVU718
 1973 00e4 0226     		movs	r6, #2
 1974              		.loc 1 294 1 view .LVU719
 1975 00e6 3046     		mov	r0, r6
 1976              	.LVL151:
 1977              		.loc 1 294 1 view .LVU720
 1978 00e8 BDE8F087 		pop	{r4, r5, r6, r7, r8, r9, r10, pc}
 1979              	.LVL152:
 1980              	.L232:
 1981              		.loc 1 226 7 is_stmt 1 view .LVU721
 1982 00ec 6168     		ldr	r1, [r4, #4]
 1983 00ee 2069     		ldr	r0, [r4, #16]
 1984 00f0 FFF7FEFF 		bl	FLASH_MassErase
 1985              	.LVL153:
 1986              		.loc 1 229 7 view .LVU722
 1987              		.loc 1 229 9 is_stmt 0 view .LVU723
 1988 00f4 11F00106 		ands	r6, r1, #1
 1989 00f8 11D1     		bne	.L234
 1990              	.L197:
 1991              	.LVL154:
 1992              		.loc 1 240 7 is_stmt 1 view .LVU724
 1993              		.loc 1 240 9 is_stmt 0 view .LVU725
 1994 00fa 8A07     		lsls	r2, r1, #30
 1995 00fc CED5     		bpl	.L195
ARM GAS  C:\Users\DEVELO~1\AppData\Local\Temp\ccY0vS6N.s 			page 36


 1996              		.loc 1 242 9 is_stmt 1 view .LVU726
 1997              		.loc 1 242 12 is_stmt 0 view .LVU727
 1998 00fe 0221     		movs	r1, #2
 1999 0100 4CF25030 		movw	r0, #50000
 2000 0104 FFF7FEFF 		bl	FLASH_WaitForLastOperation
 2001              	.LVL155:
 2002              		.loc 1 247 20 view .LVU728
 2003 0108 0D4A     		ldr	r2, .L235+4
 2004              		.loc 1 244 18 view .LVU729
 2005 010a 0028     		cmp	r0, #0
 2006              		.loc 1 247 20 view .LVU730
 2007 010c D2F80C31 		ldr	r3, [r2, #268]
 2008              		.loc 1 244 18 view .LVU731
 2009 0110 18BF     		it	ne
 2010 0112 0126     		movne	r6, #1
 2011              	.LVL156:
 2012              		.loc 1 247 9 is_stmt 1 view .LVU732
 2013              		.loc 1 247 20 is_stmt 0 view .LVU733
 2014 0114 23F00803 		bic	r3, r3, #8
 2015 0118 C2F80C31 		str	r3, [r2, #268]
 2016 011c BEE7     		b	.L195
 2017              	.LVL157:
 2018              	.L234:
 2019              		.loc 1 231 9 is_stmt 1 view .LVU734
 2020              		.loc 1 231 12 is_stmt 0 view .LVU735
 2021 011e 2946     		mov	r1, r5
 2022 0120 4CF25030 		movw	r0, #50000
 2023 0124 FFF7FEFF 		bl	FLASH_WaitForLastOperation
 2024              	.LVL158:
 2025              		.loc 1 236 20 view .LVU736
 2026 0128 054A     		ldr	r2, .L235+4
 2027              		.loc 1 233 18 view .LVU737
 2028 012a 061E     		subs	r6, r0, #0
 2029              		.loc 1 236 20 view .LVU738
 2030 012c D368     		ldr	r3, [r2, #12]
 2031              		.loc 1 233 18 view .LVU739
 2032 012e 18BF     		it	ne
 2033 0130 0126     		movne	r6, #1
 2034              	.LVL159:
 2035              		.loc 1 236 9 is_stmt 1 view .LVU740
 2036              		.loc 1 236 20 is_stmt 0 view .LVU741
 2037 0132 23F00803 		bic	r3, r3, #8
 2038 0136 D360     		str	r3, [r2, #12]
 2039              		.loc 1 240 21 view .LVU742
 2040 0138 6168     		ldr	r1, [r4, #4]
 2041 013a DEE7     		b	.L197
 2042              	.L236:
 2043              		.align	2
 2044              	.L235:
 2045 013c 00000000 		.word	pFlash
 2046 0140 00200052 		.word	1375739904
 2047 0144 FBF8FFFF 		.word	-1797
 2048              		.cfi_endproc
 2049              	.LFE141:
 2050              		.size	HAL_FLASHEx_Erase, .-HAL_FLASHEx_Erase
 2051              		.section	.text.HAL_FLASHEx_Erase_IT,"ax",%progbits
 2052              		.align	1
ARM GAS  C:\Users\DEVELO~1\AppData\Local\Temp\ccY0vS6N.s 			page 37


 2053              		.p2align 2,,3
 2054              		.global	HAL_FLASHEx_Erase_IT
 2055              		.syntax unified
 2056              		.thumb
 2057              		.thumb_func
 2058              		.type	HAL_FLASHEx_Erase_IT, %function
 2059              	HAL_FLASHEx_Erase_IT:
 2060              	.LVL160:
 2061              	.LFB142:
 2062              		.loc 1 304 1 is_stmt 1 view -0
 2063              		.cfi_startproc
 2064              		@ args = 0, pretend = 0, frame = 0
 2065              		@ frame_needed = 0, uses_anonymous_args = 0
 2066              		.loc 1 305 3 view .LVU744
 2067              		.loc 1 308 3 view .LVU745
 2068              		.loc 1 309 3 view .LVU746
 2069              		.loc 1 312 3 view .LVU747
 2070              		.loc 1 312 3 view .LVU748
 2071              		.loc 1 304 1 is_stmt 0 view .LVU749
 2072 0000 38B5     		push	{r3, r4, r5, lr}
 2073              		.cfi_def_cfa_offset 16
 2074              		.cfi_offset 3, -16
 2075              		.cfi_offset 4, -12
 2076              		.cfi_offset 5, -8
 2077              		.cfi_offset 14, -4
 2078              		.loc 1 312 3 view .LVU750
 2079 0002 374D     		ldr	r5, .L271
 2080 0004 2B7D     		ldrb	r3, [r5, #20]	@ zero_extendqisi2
 2081 0006 012B     		cmp	r3, #1
 2082 0008 3ED0     		beq	.L256
 2083              		.loc 1 312 3 is_stmt 1 discriminator 2 view .LVU751
 2084 000a 0123     		movs	r3, #1
 2085              		.loc 1 315 20 is_stmt 0 discriminator 2 view .LVU752
 2086 000c 0022     		movs	r2, #0
 2087 000e 0446     		mov	r4, r0
 2088              		.loc 1 312 3 discriminator 2 view .LVU753
 2089 0010 2B75     		strb	r3, [r5, #20]
 2090              		.loc 1 312 3 is_stmt 1 discriminator 2 view .LVU754
 2091              		.loc 1 315 3 discriminator 2 view .LVU755
 2092              		.loc 1 318 17 is_stmt 0 discriminator 2 view .LVU756
 2093 0012 4168     		ldr	r1, [r0, #4]
 2094              		.loc 1 315 20 discriminator 2 view .LVU757
 2095 0014 AA61     		str	r2, [r5, #24]
 2096              		.loc 1 318 3 is_stmt 1 discriminator 2 view .LVU758
 2097              		.loc 1 318 5 is_stmt 0 discriminator 2 view .LVU759
 2098 0016 CA07     		lsls	r2, r1, #31
 2099 0018 0CD4     		bmi	.L268
 2100              		.loc 1 328 3 is_stmt 1 view .LVU760
 2101              		.loc 1 328 5 is_stmt 0 view .LVU761
 2102 001a 8B07     		lsls	r3, r1, #30
 2103 001c 1AD5     		bpl	.L245
 2104              	.LVL161:
 2105              	.L255:
 2106              		.loc 1 330 5 is_stmt 1 view .LVU762
 2107              		.loc 1 330 8 is_stmt 0 view .LVU763
 2108 001e 0221     		movs	r1, #2
 2109 0020 4CF25030 		movw	r0, #50000
ARM GAS  C:\Users\DEVELO~1\AppData\Local\Temp\ccY0vS6N.s 			page 38


 2110 0024 FFF7FEFF 		bl	FLASH_WaitForLastOperation
 2111              	.LVL162:
 2112              		.loc 1 337 3 is_stmt 1 view .LVU764
 2113              		.loc 1 337 6 is_stmt 0 view .LVU765
 2114 0028 0028     		cmp	r0, #0
 2115 002a 36D0     		beq	.L242
 2116              	.LVL163:
 2117              	.L254:
 2118              		.loc 1 340 5 is_stmt 1 view .LVU766
 2119              		.loc 1 340 5 view .LVU767
 2120 002c 0023     		movs	r3, #0
 2121 002e 0120     		movs	r0, #1
 2122 0030 2B75     		strb	r3, [r5, #20]
 2123              		.loc 1 340 5 view .LVU768
 2124              		.loc 1 415 1 is_stmt 0 view .LVU769
 2125 0032 38BD     		pop	{r3, r4, r5, pc}
 2126              	.LVL164:
 2127              	.L268:
 2128              		.loc 1 320 5 is_stmt 1 view .LVU770
 2129              		.loc 1 320 8 is_stmt 0 view .LVU771
 2130 0034 1946     		mov	r1, r3
 2131 0036 4CF25030 		movw	r0, #50000
 2132              	.LVL165:
 2133              		.loc 1 320 8 view .LVU772
 2134 003a FFF7FEFF 		bl	FLASH_WaitForLastOperation
 2135              	.LVL166:
 2136              		.loc 1 320 7 view .LVU773
 2137 003e D0B9     		cbnz	r0, .L240
 2138              		.loc 1 328 17 view .LVU774
 2139 0040 6168     		ldr	r1, [r4, #4]
 2140              		.loc 1 328 3 is_stmt 1 view .LVU775
 2141              		.loc 1 328 5 is_stmt 0 view .LVU776
 2142 0042 8B07     		lsls	r3, r1, #30
 2143 0044 EBD4     		bmi	.L255
 2144              	.LVL167:
 2145              		.loc 1 344 5 is_stmt 1 view .LVU777
 2146              		.loc 1 344 7 is_stmt 0 view .LVU778
 2147 0046 CA07     		lsls	r2, r1, #31
 2148 0048 04D5     		bpl	.L245
 2149              		.loc 1 348 7 is_stmt 1 view .LVU779
 2150 004a 264A     		ldr	r2, .L271+4
 2151 004c D368     		ldr	r3, [r2, #12]
 2152 004e 43F4DE03 		orr	r3, r3, #7274496
 2153 0052 D360     		str	r3, [r2, #12]
 2154              		.loc 1 356 5 view .LVU780
 2155              	.L245:
 2156              		.loc 1 369 5 view .LVU781
 2157              		.loc 1 369 7 is_stmt 0 view .LVU782
 2158 0054 2368     		ldr	r3, [r4]
 2159 0056 012B     		cmp	r3, #1
 2160 0058 1AD0     		beq	.L269
 2161              	.L247:
 2162              		.loc 1 393 7 is_stmt 1 view .LVU783
 2163              		.loc 1 393 9 is_stmt 0 view .LVU784
 2164 005a 0129     		cmp	r1, #1
 2165 005c 16D0     		beq	.L270
 2166              		.loc 1 399 9 is_stmt 1 view .LVU785
ARM GAS  C:\Users\DEVELO~1\AppData\Local\Temp\ccY0vS6N.s 			page 39


 2167              		.loc 1 399 33 is_stmt 0 view .LVU786
 2168 005e 0423     		movs	r3, #4
 2169 0060 2B70     		strb	r3, [r5]
 2170              	.L251:
 2171              		.loc 1 405 7 is_stmt 1 view .LVU787
 2172              		.loc 1 406 33 is_stmt 0 view .LVU788
 2173 0062 A068     		ldr	r0, [r4, #8]
 2174              		.loc 1 405 43 view .LVU789
 2175 0064 D4E90332 		ldrd	r3, r2, [r4, #12]
 2176              		.loc 1 405 31 view .LVU790
 2177 0068 6B60     		str	r3, [r5, #4]
 2178              		.loc 1 406 7 is_stmt 1 view .LVU791
 2179              		.loc 1 406 21 is_stmt 0 view .LVU792
 2180 006a E860     		str	r0, [r5, #12]
 2181              		.loc 1 407 7 is_stmt 1 view .LVU793
 2182              		.loc 1 407 30 is_stmt 0 view .LVU794
 2183 006c AA60     		str	r2, [r5, #8]
 2184              		.loc 1 410 7 is_stmt 1 view .LVU795
 2185 006e FFF7FEFF 		bl	FLASH_Erase_Sector
 2186              	.LVL168:
 2187 0072 0020     		movs	r0, #0
 2188              		.loc 1 415 1 is_stmt 0 view .LVU796
 2189 0074 38BD     		pop	{r3, r4, r5, pc}
 2190              	.LVL169:
 2191              	.L240:
 2192              		.loc 1 322 7 is_stmt 1 view .LVU797
 2193              		.loc 1 328 3 view .LVU798
 2194              		.loc 1 328 25 is_stmt 0 view .LVU799
 2195 0076 6368     		ldr	r3, [r4, #4]
 2196              		.loc 1 328 5 view .LVU800
 2197 0078 9907     		lsls	r1, r3, #30
 2198 007a D7D5     		bpl	.L254
 2199              		.loc 1 330 5 is_stmt 1 view .LVU801
 2200              		.loc 1 330 8 is_stmt 0 view .LVU802
 2201 007c 0221     		movs	r1, #2
 2202 007e 4CF25030 		movw	r0, #50000
 2203 0082 FFF7FEFF 		bl	FLASH_WaitForLastOperation
 2204              	.LVL170:
 2205              		.loc 1 337 3 is_stmt 1 view .LVU803
 2206 0086 D1E7     		b	.L254
 2207              	.LVL171:
 2208              	.L256:
 2209              		.loc 1 312 3 is_stmt 0 view .LVU804
 2210 0088 0220     		movs	r0, #2
 2211              	.LVL172:
 2212              		.loc 1 415 1 view .LVU805
 2213 008a 38BD     		pop	{r3, r4, r5, pc}
 2214              	.LVL173:
 2215              	.L270:
 2216              		.loc 1 395 9 is_stmt 1 view .LVU806
 2217              		.loc 1 395 33 is_stmt 0 view .LVU807
 2218 008c 2970     		strb	r1, [r5]
 2219 008e E8E7     		b	.L251
 2220              	.L269:
 2221              		.loc 1 372 7 is_stmt 1 view .LVU808
 2222              		.loc 1 372 9 is_stmt 0 view .LVU809
 2223 0090 0129     		cmp	r1, #1
ARM GAS  C:\Users\DEVELO~1\AppData\Local\Temp\ccY0vS6N.s 			page 40


 2224 0092 13D1     		bne	.L246
 2225              		.loc 1 374 9 is_stmt 1 view .LVU810
 2226              		.loc 1 374 33 is_stmt 0 view .LVU811
 2227 0094 0223     		movs	r3, #2
 2228 0096 2B70     		strb	r3, [r5]
 2229 0098 15E0     		b	.L248
 2230              	.LVL174:
 2231              	.L242:
 2232              		.loc 1 344 5 is_stmt 1 view .LVU812
 2233              		.loc 1 344 19 is_stmt 0 view .LVU813
 2234 009a 6168     		ldr	r1, [r4, #4]
 2235              		.loc 1 344 7 view .LVU814
 2236 009c C807     		lsls	r0, r1, #31
 2237 009e 17D4     		bmi	.L243
 2238              		.loc 1 356 27 view .LVU815
 2239 00a0 01F00202 		and	r2, r1, #2
 2240              	.L244:
 2241              		.loc 1 356 5 is_stmt 1 view .LVU816
 2242              		.loc 1 356 7 is_stmt 0 view .LVU817
 2243 00a4 002A     		cmp	r2, #0
 2244 00a6 D5D0     		beq	.L245
 2245              		.loc 1 360 7 is_stmt 1 view .LVU818
 2246 00a8 0E4A     		ldr	r2, .L271+4
 2247 00aa D2F80C31 		ldr	r3, [r2, #268]
 2248 00ae 43F4DE03 		orr	r3, r3, #7274496
 2249 00b2 C2F80C31 		str	r3, [r2, #268]
 2250              		.loc 1 369 5 view .LVU819
 2251              		.loc 1 369 7 is_stmt 0 view .LVU820
 2252 00b6 2368     		ldr	r3, [r4]
 2253 00b8 012B     		cmp	r3, #1
 2254 00ba CED1     		bne	.L247
 2255              	.L246:
 2256              		.loc 1 377 12 is_stmt 1 view .LVU821
 2257              		.loc 1 377 14 is_stmt 0 view .LVU822
 2258 00bc 0229     		cmp	r1, #2
 2259              		.loc 1 379 9 is_stmt 1 view .LVU823
 2260              		.loc 1 379 33 is_stmt 0 view .LVU824
 2261 00be 0CBF     		ite	eq
 2262 00c0 0523     		moveq	r3, #5
 2263              		.loc 1 384 9 is_stmt 1 view .LVU825
 2264              		.loc 1 384 33 is_stmt 0 view .LVU826
 2265 00c2 0723     		movne	r3, #7
 2266 00c4 2B70     		strb	r3, [r5]
 2267              	.L248:
 2268              		.loc 1 387 7 is_stmt 1 view .LVU827
 2269 00c6 2069     		ldr	r0, [r4, #16]
 2270 00c8 FFF7FEFF 		bl	FLASH_MassErase
 2271              	.LVL175:
 2272 00cc 0020     		movs	r0, #0
 2273              		.loc 1 415 1 is_stmt 0 view .LVU828
 2274 00ce 38BD     		pop	{r3, r4, r5, pc}
 2275              	.LVL176:
 2276              	.L243:
 2277              		.loc 1 348 7 view .LVU829
 2278 00d0 0448     		ldr	r0, .L271+4
 2279              		.loc 1 356 27 view .LVU830
 2280 00d2 01F00202 		and	r2, r1, #2
ARM GAS  C:\Users\DEVELO~1\AppData\Local\Temp\ccY0vS6N.s 			page 41


 2281              		.loc 1 348 7 is_stmt 1 view .LVU831
 2282 00d6 C368     		ldr	r3, [r0, #12]
 2283 00d8 43F4DE03 		orr	r3, r3, #7274496
 2284 00dc C360     		str	r3, [r0, #12]
 2285 00de E1E7     		b	.L244
 2286              	.L272:
 2287              		.align	2
 2288              	.L271:
 2289 00e0 00000000 		.word	pFlash
 2290 00e4 00200052 		.word	1375739904
 2291              		.cfi_endproc
 2292              	.LFE142:
 2293              		.size	HAL_FLASHEx_Erase_IT, .-HAL_FLASHEx_Erase_IT
 2294              		.text
 2295              	.Letext0:
 2296              		.file 2 "c:\\chibistudio\\tools\\gnu tools arm embedded\\11.3 2022.08\\arm-none-eabi\\include\\mac
 2297              		.file 3 "c:\\chibistudio\\tools\\gnu tools arm embedded\\11.3 2022.08\\arm-none-eabi\\include\\sys
 2298              		.file 4 "./docs/ChibiOS/os/common/ext/ST/STM32H7xx/stm32h743xx.h"
 2299              		.file 5 "./drivers/stm32h7xx-hal-driver/Inc/stm32h7xx_hal_def.h"
 2300              		.file 6 "./drivers/stm32h7xx-hal-driver/Inc/stm32h7xx_hal_flash.h"
 2301              		.file 7 "./drivers/stm32h7xx-hal-driver/Inc/stm32h7xx_hal_flash_ex.h"