ARM GAS  C:\Users\DEVELO~1\AppData\Local\Temp\ccbkr0PB.s 			page 1


   1              		.cpu cortex-m7
   2              		.arch armv7e-m
   3              		.fpu fpv5-d16
   4              		.eabi_attribute 28, 1
   5              		.eabi_attribute 20, 1
   6              		.eabi_attribute 21, 1
   7              		.eabi_attribute 23, 3
   8              		.eabi_attribute 24, 1
   9              		.eabi_attribute 25, 1
  10              		.eabi_attribute 26, 1
  11              		.eabi_attribute 30, 2
  12              		.eabi_attribute 34, 1
  13              		.eabi_attribute 18, 4
  14              		.file	"stm32h7xx_hal_hcd.c"
  15              		.text
  16              	.Ltext0:
  17              		.cfi_sections	.debug_frame
  18              		.section	.text.HAL_HCD_HC_Init,"ax",%progbits
  19              		.align	1
  20              		.p2align 2,,3
  21              		.global	HAL_HCD_HC_Init
  22              		.syntax unified
  23              		.thumb
  24              		.thumb_func
  25              		.type	HAL_HCD_HC_Init, %function
  26              	HAL_HCD_HC_Init:
  27              	.LVL0:
  28              	.LFB142:
  29              		.file 1 "./drivers/stm32h7xx-hal-driver/Src/stm32h7xx_hal_hcd.c"
  30              		.loc 1 204 1 view -0
  31              		.cfi_startproc
  32              		@ args = 12, pretend = 0, frame = 0
  33              		@ frame_needed = 0, uses_anonymous_args = 0
  34              		.loc 1 205 3 view .LVU1
  35              		.loc 1 206 3 view .LVU2
  36              		.loc 1 207 3 view .LVU3
  37              		.loc 1 204 1 is_stmt 0 view .LVU4
  38 0000 2DE9F047 		push	{r4, r5, r6, r7, r8, r9, r10, lr}
  39              		.cfi_def_cfa_offset 32
  40              		.cfi_offset 4, -32
  41              		.cfi_offset 5, -28
  42              		.cfi_offset 6, -24
  43              		.cfi_offset 7, -20
  44              		.cfi_offset 8, -16
  45              		.cfi_offset 9, -12
  46              		.cfi_offset 10, -8
  47              		.cfi_offset 14, -4
  48 0004 9A46     		mov	r10, r3
  49              		.loc 1 209 3 view .LVU5
  50 0006 90F8D433 		ldrb	r3, [r0, #980]	@ zero_extendqisi2
  51              	.LVL1:
  52              		.loc 1 204 1 view .LVU6
  53 000a 84B0     		sub	sp, sp, #16
  54              		.cfi_def_cfa_offset 48
  55              		.loc 1 209 3 view .LVU7
  56 000c 012B     		cmp	r3, #1
  57              		.loc 1 204 1 view .LVU8
ARM GAS  C:\Users\DEVELO~1\AppData\Local\Temp\ccbkr0PB.s 			page 2


  58 000e 9DF83070 		ldrb	r7, [sp, #48]	@ zero_extendqisi2
  59 0012 9DF83460 		ldrb	r6, [sp, #52]	@ zero_extendqisi2
  60 0016 BDF83880 		ldrh	r8, [sp, #56]
  61              	.LVL2:
  62              		.loc 1 209 3 is_stmt 1 view .LVU9
  63              		.loc 1 209 3 view .LVU10
  64 001a 44D0     		beq	.L4
  65              		.loc 1 209 3 discriminator 2 view .LVU11
  66              		.loc 1 211 29 is_stmt 0 discriminator 2 view .LVU12
  67 001c C1EB011C 		rsb	ip, r1, r1, lsl #4
  68              		.loc 1 210 28 discriminator 2 view .LVU13
  69 0020 0023     		movs	r3, #0
  70 0022 9146     		mov	r9, r2
  71              		.loc 1 209 3 discriminator 2 view .LVU14
  72 0024 0122     		movs	r2, #1
  73              	.LVL3:
  74              		.loc 1 211 29 discriminator 2 view .LVU15
  75 0026 00EB8C0C 		add	ip, r0, ip, lsl #2
  76 002a 0446     		mov	r4, r0
  77              		.loc 1 209 3 discriminator 2 view .LVU16
  78 002c 80F8D423 		strb	r2, [r0, #980]
  79              		.loc 1 209 3 is_stmt 1 discriminator 2 view .LVU17
  80              		.loc 1 210 3 discriminator 2 view .LVU18
  81              		.loc 1 211 3 discriminator 2 view .LVU19
  82 0030 0D46     		mov	r5, r1
  83              		.loc 1 210 28 is_stmt 0 discriminator 2 view .LVU20
  84 0032 8CF81930 		strb	r3, [ip, #25]
  85              	.LBB4:
  86              	.LBB5:
  87              		.loc 1 1228 30 discriminator 2 view .LVU21
  88 0036 ACF81A30 		strh	r3, [ip, #26]	@ movhi
  89              		.loc 1 1231 33 discriminator 2 view .LVU22
  90 003a ACF82430 		strh	r3, [ip, #36]	@ movhi
  91              	.LBE5:
  92              	.LBE4:
  93              		.loc 1 214 35 discriminator 2 view .LVU23
  94 003e 09F07F03 		and	r3, r9, #127
  95              		.loc 1 212 27 discriminator 2 view .LVU24
  96 0042 8CF81510 		strb	r1, [ip, #21]
  97              		.loc 1 214 27 discriminator 2 view .LVU25
  98 0046 8CF81630 		strb	r3, [ip, #22]
  99              		.loc 1 218 6 discriminator 2 view .LVU26
 100 004a 4FEAD913 		lsr	r3, r9, #7
 101              		.loc 1 211 29 discriminator 2 view .LVU27
 102 004e 8CF814A0 		strb	r10, [ip, #20]
 103              		.loc 1 212 3 is_stmt 1 discriminator 2 view .LVU28
 104              		.loc 1 213 3 discriminator 2 view .LVU29
 105              		.loc 1 213 28 is_stmt 0 discriminator 2 view .LVU30
 106 0052 8CF82660 		strb	r6, [ip, #38]
 107              		.loc 1 214 3 is_stmt 1 discriminator 2 view .LVU31
 108              		.loc 1 216 3 discriminator 2 view .LVU32
 109              	.LVL4:
 110              	.LBB7:
 111              	.LBI4:
 112              		.loc 1 1226 19 discriminator 2 view .LVU33
 113              	.LBB6:
 114              		.loc 1 1228 3 discriminator 2 view .LVU34
ARM GAS  C:\Users\DEVELO~1\AppData\Local\Temp\ccbkr0PB.s 			page 3


 115              		.loc 1 1229 3 discriminator 2 view .LVU35
 116              		.loc 1 1230 3 discriminator 2 view .LVU36
 117              		.loc 1 1231 3 discriminator 2 view .LVU37
 118              		.loc 1 1233 3 discriminator 2 view .LVU38
 119              		.loc 1 1233 3 is_stmt 0 discriminator 2 view .LVU39
 120              	.LBE6:
 121              	.LBE7:
 122              		.loc 1 218 3 is_stmt 1 discriminator 2 view .LVU40
 123 0056 8CF81730 		strb	r3, [ip, #23]
 124              		.loc 1 227 3 discriminator 2 view .LVU41
 125              		.loc 1 227 19 is_stmt 0 discriminator 2 view .LVU42
 126 005a 0068     		ldr	r0, [r0]
 127              	.LVL5:
 128              		.loc 1 227 19 discriminator 2 view .LVU43
 129 005c FFF7FEFF 		bl	USB_GetHostSpeed
 130              	.LVL6:
 131              		.loc 1 229 3 is_stmt 1 discriminator 2 view .LVU44
 132              		.loc 1 229 6 is_stmt 0 discriminator 2 view .LVU45
 133 0060 012E     		cmp	r6, #1
 134              		.loc 1 211 29 discriminator 2 view .LVU46
 135 0062 4FEA0511 		lsl	r1, r5, #4
 136              		.loc 1 229 6 discriminator 2 view .LVU47
 137 0066 14D0     		beq	.L13
 138              	.LVL7:
 139              	.L3:
 140              		.loc 1 242 3 is_stmt 1 view .LVU48
 141              		.loc 1 242 26 is_stmt 0 view .LVU49
 142 0068 481B     		subs	r0, r1, r5
 143              	.LVL8:
 144              		.loc 1 245 13 view .LVU50
 145 006a 5346     		mov	r3, r10
 146 006c 4A46     		mov	r2, r9
 147 006e 2946     		mov	r1, r5
 148              		.loc 1 242 26 view .LVU51
 149 0070 04EB8000 		add	r0, r4, r0, lsl #2
 150 0074 0776     		strb	r7, [r0, #24]
 151              		.loc 1 243 3 is_stmt 1 view .LVU52
 152              		.loc 1 243 31 is_stmt 0 view .LVU53
 153 0076 A0F82880 		strh	r8, [r0, #40]	@ movhi
 154              		.loc 1 245 3 is_stmt 1 view .LVU54
 155              		.loc 1 245 13 is_stmt 0 view .LVU55
 156 007a 0097     		str	r7, [sp]
 157 007c CDE90168 		strd	r6, r8, [sp, #4]
 158 0080 2068     		ldr	r0, [r4]
 159 0082 FFF7FEFF 		bl	USB_HC_Init
 160              	.LVL9:
 161              		.loc 1 248 3 view .LVU56
 162 0086 0023     		movs	r3, #0
 163              	.LVL10:
 164              		.loc 1 248 3 is_stmt 1 view .LVU57
 165              		.loc 1 248 3 view .LVU58
 166 0088 84F8D433 		strb	r3, [r4, #980]
 167              		.loc 1 248 3 view .LVU59
 168              		.loc 1 250 3 view .LVU60
 169              		.loc 1 251 1 is_stmt 0 view .LVU61
 170 008c 04B0     		add	sp, sp, #16
 171              		.cfi_remember_state
ARM GAS  C:\Users\DEVELO~1\AppData\Local\Temp\ccbkr0PB.s 			page 4


 172              		.cfi_def_cfa_offset 32
 173              		@ sp needed
 174 008e BDE8F087 		pop	{r4, r5, r6, r7, r8, r9, r10, pc}
 175              	.LVL11:
 176              	.L13:
 177              		.cfi_restore_state
 178              		.loc 1 232 5 is_stmt 1 view .LVU62
 179              		.loc 1 232 8 is_stmt 0 view .LVU63
 180 0092 012F     		cmp	r7, #1
 181 0094 E8D1     		bne	.L3
 182 0096 0028     		cmp	r0, #0
 183 0098 E6D1     		bne	.L3
 184              		.loc 1 234 7 is_stmt 1 view .LVU64
 185              		.loc 1 243 33 is_stmt 0 view .LVU65
 186 009a B8F1BC0F 		cmp	r8, #188
 187 009e 28BF     		it	cs
 188 00a0 4FF0BC08 		movcs	r8, #188
 189              	.LVL12:
 190              		.loc 1 243 33 view .LVU66
 191 00a4 E0E7     		b	.L3
 192              	.LVL13:
 193              	.L4:
 194              		.loc 1 209 3 view .LVU67
 195 00a6 0220     		movs	r0, #2
 196              	.LVL14:
 197              		.loc 1 251 1 view .LVU68
 198 00a8 04B0     		add	sp, sp, #16
 199              		.cfi_def_cfa_offset 32
 200              		@ sp needed
 201 00aa BDE8F087 		pop	{r4, r5, r6, r7, r8, r9, r10, pc}
 202              		.loc 1 251 1 view .LVU69
 203              		.cfi_endproc
 204              	.LFE142:
 205              		.size	HAL_HCD_HC_Init, .-HAL_HCD_HC_Init
 206 00ae 00BF     		.section	.text.HAL_HCD_HC_Halt,"ax",%progbits
 207              		.align	1
 208              		.p2align 2,,3
 209              		.global	HAL_HCD_HC_Halt
 210              		.syntax unified
 211              		.thumb
 212              		.thumb_func
 213              		.type	HAL_HCD_HC_Halt, %function
 214              	HAL_HCD_HC_Halt:
 215              	.LVL15:
 216              	.LFB143:
 217              		.loc 1 261 1 is_stmt 1 view -0
 218              		.cfi_startproc
 219              		@ args = 0, pretend = 0, frame = 0
 220              		@ frame_needed = 0, uses_anonymous_args = 0
 221              		.loc 1 262 3 view .LVU71
 222              		.loc 1 264 3 view .LVU72
 223              		.loc 1 264 3 view .LVU73
 224 0000 90F8D433 		ldrb	r3, [r0, #980]	@ zero_extendqisi2
 225 0004 012B     		cmp	r3, #1
 226 0006 0CD0     		beq	.L16
 227              		.loc 1 264 3 discriminator 2 view .LVU74
 228 0008 0123     		movs	r3, #1
ARM GAS  C:\Users\DEVELO~1\AppData\Local\Temp\ccbkr0PB.s 			page 5


 229              		.loc 1 261 1 is_stmt 0 discriminator 2 view .LVU75
 230 000a 10B5     		push	{r4, lr}
 231              		.cfi_def_cfa_offset 8
 232              		.cfi_offset 4, -8
 233              		.cfi_offset 14, -4
 234 000c 0446     		mov	r4, r0
 235              		.loc 1 265 9 discriminator 2 view .LVU76
 236 000e 0068     		ldr	r0, [r0]
 237              	.LVL16:
 238              		.loc 1 264 3 discriminator 2 view .LVU77
 239 0010 84F8D433 		strb	r3, [r4, #980]
 240              		.loc 1 264 3 is_stmt 1 discriminator 2 view .LVU78
 241              		.loc 1 265 3 discriminator 2 view .LVU79
 242              		.loc 1 265 9 is_stmt 0 discriminator 2 view .LVU80
 243 0014 FFF7FEFF 		bl	USB_HC_Halt
 244              	.LVL17:
 245              		.loc 1 266 3 is_stmt 1 discriminator 2 view .LVU81
 246              		.loc 1 266 3 discriminator 2 view .LVU82
 247 0018 0023     		movs	r3, #0
 248              		.loc 1 268 10 is_stmt 0 discriminator 2 view .LVU83
 249 001a 1846     		mov	r0, r3
 250              		.loc 1 266 3 discriminator 2 view .LVU84
 251 001c 84F8D433 		strb	r3, [r4, #980]
 252              		.loc 1 266 3 is_stmt 1 discriminator 2 view .LVU85
 253              		.loc 1 268 3 discriminator 2 view .LVU86
 254              		.loc 1 269 1 is_stmt 0 discriminator 2 view .LVU87
 255 0020 10BD     		pop	{r4, pc}
 256              	.LVL18:
 257              	.L16:
 258              		.cfi_def_cfa_offset 0
 259              		.cfi_restore 4
 260              		.cfi_restore 14
 261              		.loc 1 264 3 view .LVU88
 262 0022 0220     		movs	r0, #2
 263              	.LVL19:
 264              		.loc 1 269 1 view .LVU89
 265 0024 7047     		bx	lr
 266              		.cfi_endproc
 267              	.LFE143:
 268              		.size	HAL_HCD_HC_Halt, .-HAL_HCD_HC_Halt
 269 0026 00BF     		.section	.text.HAL_HCD_MspInit,"ax",%progbits
 270              		.align	1
 271              		.p2align 2,,3
 272              		.weak	HAL_HCD_MspInit
 273              		.syntax unified
 274              		.thumb
 275              		.thumb_func
 276              		.type	HAL_HCD_MspInit, %function
 277              	HAL_HCD_MspInit:
 278              	.LVL20:
 279              	.LFB145:
 280              		.loc 1 312 1 is_stmt 1 view -0
 281              		.cfi_startproc
 282              		@ args = 0, pretend = 0, frame = 0
 283              		@ frame_needed = 0, uses_anonymous_args = 0
 284              		@ link register save eliminated.
 285              		.loc 1 314 3 view .LVU91
ARM GAS  C:\Users\DEVELO~1\AppData\Local\Temp\ccbkr0PB.s 			page 6


 286              		.loc 1 319 1 is_stmt 0 view .LVU92
 287 0000 7047     		bx	lr
 288              		.cfi_endproc
 289              	.LFE145:
 290              		.size	HAL_HCD_MspInit, .-HAL_HCD_MspInit
 291 0002 00BF     		.section	.text.HAL_HCD_Init,"ax",%progbits
 292              		.align	1
 293              		.p2align 2,,3
 294              		.global	HAL_HCD_Init
 295              		.syntax unified
 296              		.thumb
 297              		.thumb_func
 298              		.type	HAL_HCD_Init, %function
 299              	HAL_HCD_Init:
 300              	.LVL21:
 301              	.LFB141:
 302              		.loc 1 111 1 is_stmt 1 view -0
 303              		.cfi_startproc
 304              		@ args = 0, pretend = 0, frame = 0
 305              		@ frame_needed = 0, uses_anonymous_args = 0
 306              		.loc 1 113 3 view .LVU94
 307              		.loc 1 113 6 is_stmt 0 view .LVU95
 308 0000 0028     		cmp	r0, #0
 309 0002 43D0     		beq	.L28
 310              		.loc 1 119 3 is_stmt 1 view .LVU96
 311              		.loc 1 119 16 is_stmt 0 view .LVU97
 312 0004 0368     		ldr	r3, [r0]
 313 0006 224A     		ldr	r2, .L35
 314              		.loc 1 111 1 view .LVU98
 315 0008 30B5     		push	{r4, r5, lr}
 316              		.cfi_def_cfa_offset 12
 317              		.cfi_offset 4, -12
 318              		.cfi_offset 5, -8
 319              		.cfi_offset 14, -4
 320 000a 0446     		mov	r4, r0
 321              		.loc 1 119 16 view .LVU99
 322 000c 2148     		ldr	r0, .L35+4
 323              	.LVL22:
 324              		.loc 1 111 1 view .LVU100
 325 000e 83B0     		sub	sp, sp, #12
 326              		.cfi_def_cfa_offset 24
 327              		.loc 1 119 3 view .LVU101
 328 0010 9342     		cmp	r3, r2
 329 0012 18BF     		it	ne
 330 0014 8342     		cmpne	r3, r0
 331 0016 0CBF     		ite	eq
 332 0018 0120     		moveq	r0, #1
 333 001a 0020     		movne	r0, #0
 334 001c FFF7FEFF 		bl	assert_param
 335              	.LVL23:
 336              		.loc 1 121 3 is_stmt 1 view .LVU102
 337              		.loc 1 121 11 is_stmt 0 view .LVU103
 338 0020 94F8D533 		ldrb	r3, [r4, #981]	@ zero_extendqisi2
 339              		.loc 1 121 6 view .LVU104
 340 0024 03F0FF02 		and	r2, r3, #255
 341 0028 53B3     		cbz	r3, .L34
 342              	.L24:
ARM GAS  C:\Users\DEVELO~1\AppData\Local\Temp\ccbkr0PB.s 			page 7


 343              		.loc 1 147 3 is_stmt 1 view .LVU105
 344              		.loc 1 147 15 is_stmt 0 view .LVU106
 345 002a 0323     		movs	r3, #3
 346              		.loc 1 150 3 view .LVU107
 347 002c 2068     		ldr	r0, [r4]
 348              		.loc 1 153 7 view .LVU108
 349 002e 251D     		adds	r5, r4, #4
 350              		.loc 1 147 15 view .LVU109
 351 0030 84F8D533 		strb	r3, [r4, #981]
 352              		.loc 1 150 3 is_stmt 1 view .LVU110
 353 0034 FFF7FEFF 		bl	USB_DisableGlobalInt
 354              	.LVL24:
 355              		.loc 1 153 3 view .LVU111
 356              		.loc 1 153 7 is_stmt 0 view .LVU112
 357 0038 237C     		ldrb	r3, [r4, #16]	@ zero_extendqisi2
 358 003a 8DF80030 		strb	r3, [sp]
 359 003e 2068     		ldr	r0, [r4]
 360 0040 95E80E00 		ldm	r5, {r1, r2, r3}
 361 0044 FFF7FEFF 		bl	USB_CoreInit
 362              	.LVL25:
 363              		.loc 1 153 6 view .LVU113
 364 0048 28B1     		cbz	r0, .L25
 365              	.L33:
 366              		.loc 1 169 5 is_stmt 1 view .LVU114
 367              		.loc 1 169 17 is_stmt 0 view .LVU115
 368 004a 0223     		movs	r3, #2
 369              		.loc 1 170 12 view .LVU116
 370 004c 0120     		movs	r0, #1
 371              		.loc 1 169 17 view .LVU117
 372 004e 84F8D533 		strb	r3, [r4, #981]
 373              		.loc 1 170 5 is_stmt 1 view .LVU118
 374              		.loc 1 176 1 is_stmt 0 view .LVU119
 375 0052 03B0     		add	sp, sp, #12
 376              		.cfi_remember_state
 377              		.cfi_def_cfa_offset 12
 378              		@ sp needed
 379 0054 30BD     		pop	{r4, r5, pc}
 380              	.LVL26:
 381              	.L25:
 382              		.cfi_restore_state
 383              		.loc 1 160 3 is_stmt 1 view .LVU120
 384              		.loc 1 160 7 is_stmt 0 view .LVU121
 385 0056 0121     		movs	r1, #1
 386 0058 2068     		ldr	r0, [r4]
 387 005a FFF7FEFF 		bl	USB_SetCurrentMode
 388              	.LVL27:
 389              		.loc 1 160 6 view .LVU122
 390 005e 0028     		cmp	r0, #0
 391 0060 F3D1     		bne	.L33
 392              		.loc 1 167 3 is_stmt 1 view .LVU123
 393              		.loc 1 167 7 is_stmt 0 view .LVU124
 394 0062 207C     		ldrb	r0, [r4, #16]	@ zero_extendqisi2
 395 0064 95E80E00 		ldm	r5, {r1, r2, r3}
 396 0068 8DF80000 		strb	r0, [sp]
 397 006c 2068     		ldr	r0, [r4]
 398 006e FFF7FEFF 		bl	USB_HostInit
 399              	.LVL28:
ARM GAS  C:\Users\DEVELO~1\AppData\Local\Temp\ccbkr0PB.s 			page 8


 400              		.loc 1 167 6 view .LVU125
 401 0072 0028     		cmp	r0, #0
 402 0074 E9D1     		bne	.L33
 403              		.loc 1 173 3 is_stmt 1 view .LVU126
 404              		.loc 1 173 15 is_stmt 0 view .LVU127
 405 0076 0123     		movs	r3, #1
 406 0078 84F8D533 		strb	r3, [r4, #981]
 407              		.loc 1 175 3 is_stmt 1 view .LVU128
 408              		.loc 1 176 1 is_stmt 0 view .LVU129
 409 007c 03B0     		add	sp, sp, #12
 410              		.cfi_remember_state
 411              		.cfi_def_cfa_offset 12
 412              		@ sp needed
 413 007e 30BD     		pop	{r4, r5, pc}
 414              	.LVL29:
 415              	.L34:
 416              		.cfi_restore_state
 417              		.loc 1 124 5 is_stmt 1 view .LVU130
 418              		.loc 1 143 5 is_stmt 0 view .LVU131
 419 0080 2046     		mov	r0, r4
 420              		.loc 1 124 16 view .LVU132
 421 0082 84F8D423 		strb	r2, [r4, #980]
 422              		.loc 1 143 5 is_stmt 1 view .LVU133
 423 0086 FFF7FEFF 		bl	HAL_HCD_MspInit
 424              	.LVL30:
 425 008a CEE7     		b	.L24
 426              	.LVL31:
 427              	.L28:
 428              		.cfi_def_cfa_offset 0
 429              		.cfi_restore 4
 430              		.cfi_restore 5
 431              		.cfi_restore 14
 432              		.loc 1 115 12 is_stmt 0 view .LVU134
 433 008c 0120     		movs	r0, #1
 434              	.LVL32:
 435              		.loc 1 176 1 view .LVU135
 436 008e 7047     		bx	lr
 437              	.L36:
 438              		.align	2
 439              	.L35:
 440 0090 00000440 		.word	1074003968
 441 0094 00000840 		.word	1074266112
 442              		.cfi_endproc
 443              	.LFE141:
 444              		.size	HAL_HCD_Init, .-HAL_HCD_Init
 445              		.section	.text.HAL_HCD_MspDeInit,"ax",%progbits
 446              		.align	1
 447              		.p2align 2,,3
 448              		.weak	HAL_HCD_MspDeInit
 449              		.syntax unified
 450              		.thumb
 451              		.thumb_func
 452              		.type	HAL_HCD_MspDeInit, %function
 453              	HAL_HCD_MspDeInit:
 454              	.LFB171:
 455              		.cfi_startproc
 456              		@ args = 0, pretend = 0, frame = 0
ARM GAS  C:\Users\DEVELO~1\AppData\Local\Temp\ccbkr0PB.s 			page 9


 457              		@ frame_needed = 0, uses_anonymous_args = 0
 458              		@ link register save eliminated.
 459 0000 7047     		bx	lr
 460              		.cfi_endproc
 461              	.LFE171:
 462              		.size	HAL_HCD_MspDeInit, .-HAL_HCD_MspDeInit
 463 0002 00BF     		.section	.text.HAL_HCD_DeInit,"ax",%progbits
 464              		.align	1
 465              		.p2align 2,,3
 466              		.global	HAL_HCD_DeInit
 467              		.syntax unified
 468              		.thumb
 469              		.thumb_func
 470              		.type	HAL_HCD_DeInit, %function
 471              	HAL_HCD_DeInit:
 472              	.LVL33:
 473              	.LFB144:
 474              		.loc 1 277 1 is_stmt 1 view -0
 475              		.cfi_startproc
 476              		@ args = 0, pretend = 0, frame = 0
 477              		@ frame_needed = 0, uses_anonymous_args = 0
 478              		.loc 1 279 3 view .LVU137
 479              		.loc 1 279 6 is_stmt 0 view .LVU138
 480 0000 70B1     		cbz	r0, .L40
 481              		.loc 1 284 3 is_stmt 1 view .LVU139
 482              		.loc 1 284 15 is_stmt 0 view .LVU140
 483 0002 0323     		movs	r3, #3
 484              		.loc 1 277 1 view .LVU141
 485 0004 10B5     		push	{r4, lr}
 486              		.cfi_def_cfa_offset 8
 487              		.cfi_offset 4, -8
 488              		.cfi_offset 14, -4
 489 0006 0446     		mov	r4, r0
 490              		.loc 1 284 15 view .LVU142
 491 0008 80F8D533 		strb	r3, [r0, #981]
 492              		.loc 1 296 3 is_stmt 1 view .LVU143
 493 000c FFF7FEFF 		bl	HAL_HCD_MspDeInit
 494              	.LVL34:
 495              		.loc 1 299 3 view .LVU144
 496 0010 2068     		ldr	r0, [r4]
 497 0012 FFF7FEFF 		bl	USB_DisableGlobalInt
 498              	.LVL35:
 499              		.loc 1 301 3 view .LVU145
 500              		.loc 1 301 15 is_stmt 0 view .LVU146
 501 0016 0023     		movs	r3, #0
 502              		.loc 1 303 10 view .LVU147
 503 0018 1846     		mov	r0, r3
 504              		.loc 1 301 15 view .LVU148
 505 001a 84F8D533 		strb	r3, [r4, #981]
 506              		.loc 1 303 3 is_stmt 1 view .LVU149
 507              		.loc 1 304 1 is_stmt 0 view .LVU150
 508 001e 10BD     		pop	{r4, pc}
 509              	.LVL36:
 510              	.L40:
 511              		.cfi_def_cfa_offset 0
 512              		.cfi_restore 4
 513              		.cfi_restore 14
ARM GAS  C:\Users\DEVELO~1\AppData\Local\Temp\ccbkr0PB.s 			page 10


 514              		.loc 1 281 12 view .LVU151
 515 0020 0120     		movs	r0, #1
 516              	.LVL37:
 517              		.loc 1 304 1 view .LVU152
 518 0022 7047     		bx	lr
 519              		.cfi_endproc
 520              	.LFE144:
 521              		.size	HAL_HCD_DeInit, .-HAL_HCD_DeInit
 522              		.section	.text.HAL_HCD_HC_SubmitRequest,"ax",%progbits
 523              		.align	1
 524              		.p2align 2,,3
 525              		.global	HAL_HCD_HC_SubmitRequest
 526              		.syntax unified
 527              		.thumb
 528              		.thumb_func
 529              		.type	HAL_HCD_HC_SubmitRequest, %function
 530              	HAL_HCD_HC_SubmitRequest:
 531              	.LVL38:
 532              	.LFB147:
 533              		.loc 1 386 1 is_stmt 1 view -0
 534              		.cfi_startproc
 535              		@ args = 16, pretend = 0, frame = 0
 536              		@ frame_needed = 0, uses_anonymous_args = 0
 537              		.loc 1 387 3 view .LVU154
 538              		.loc 1 386 1 is_stmt 0 view .LVU155
 539 0000 F0B5     		push	{r4, r5, r6, r7, lr}
 540              		.cfi_def_cfa_offset 20
 541              		.cfi_offset 4, -20
 542              		.cfi_offset 5, -16
 543              		.cfi_offset 6, -12
 544              		.cfi_offset 7, -8
 545              		.cfi_offset 14, -4
 546              		.loc 1 387 29 view .LVU156
 547 0002 C1EB011E 		rsb	lr, r1, r1, lsl #4
 548              		.loc 1 386 1 view .LVU157
 549 0006 9DF81440 		ldrb	r4, [sp, #20]	@ zero_extendqisi2
 550 000a 069E     		ldr	r6, [sp, #24]
 551              		.loc 1 387 29 view .LVU158
 552 000c 4FEA011C 		lsl	ip, r1, #4
 553 0010 00EB8E0E 		add	lr, r0, lr, lsl #2
 554              		.loc 1 386 1 view .LVU159
 555 0014 BDF81C50 		ldrh	r5, [sp, #28]
 556 0018 9DF82070 		ldrb	r7, [sp, #32]	@ zero_extendqisi2
 557              		.loc 1 387 29 view .LVU160
 558 001c 8EF81720 		strb	r2, [lr, #23]
 559              		.loc 1 388 3 is_stmt 1 view .LVU161
 560              		.loc 1 388 29 is_stmt 0 view .LVU162
 561 0020 8EF82630 		strb	r3, [lr, #38]
 562              		.loc 1 390 3 is_stmt 1 view .LVU163
 563              		.loc 1 390 6 is_stmt 0 view .LVU164
 564 0024 FCB9     		cbnz	r4, .L46
 565              		.loc 1 392 5 is_stmt 1 view .LVU165
 566              		.loc 1 392 31 is_stmt 0 view .LVU166
 567 0026 0324     		movs	r4, #3
 568              		.loc 1 401 3 view .LVU167
 569 0028 022B     		cmp	r3, #2
 570              		.loc 1 393 30 view .LVU168
ARM GAS  C:\Users\DEVELO~1\AppData\Local\Temp\ccbkr0PB.s 			page 11


 571 002a 8EF81970 		strb	r7, [lr, #25]
 572              		.loc 1 392 31 view .LVU169
 573 002e 8EF82A40 		strb	r4, [lr, #42]
 574              		.loc 1 393 5 is_stmt 1 view .LVU170
 575              		.loc 1 401 3 view .LVU171
 576 0032 21D0     		beq	.L48
 577 0034 A342     		cmp	r3, r4
 578 0036 1FD0     		beq	.L48
 579 0038 012B     		cmp	r3, #1
 580 003a 29D0     		beq	.L49
 581              	.LVL39:
 582              	.L51:
 583              		.loc 1 507 3 view .LVU172
 584              		.loc 1 507 30 is_stmt 0 view .LVU173
 585 003c ACEB0103 		sub	r3, ip, r1
 586              		.loc 1 514 43 view .LVU174
 587 0040 3C24     		movs	r4, #60
 588              		.loc 1 510 31 view .LVU175
 589 0042 0022     		movs	r2, #0
 590              		.loc 1 507 30 view .LVU176
 591 0044 00EB8303 		add	r3, r0, r3, lsl #2
 592              		.loc 1 511 27 view .LVU177
 593 0048 5975     		strb	r1, [r3, #21]
 594              		.loc 1 514 43 view .LVU178
 595 004a 04FB0101 		mla	r1, r4, r1, r0
 596              	.LVL40:
 597              		.loc 1 509 30 view .LVU179
 598 004e A3F84C20 		strh	r2, [r3, #76]	@ movhi
 599              		.loc 1 507 30 view .LVU180
 600 0052 DE62     		str	r6, [r3, #44]
 601              		.loc 1 508 3 is_stmt 1 view .LVU181
 602              		.loc 1 514 10 is_stmt 0 view .LVU182
 603 0054 1431     		adds	r1, r1, #20
 604              		.loc 1 508 30 view .LVU183
 605 0056 C3E90D52 		strd	r5, r2, [r3, #52]
 606              		.loc 1 509 3 is_stmt 1 view .LVU184
 607              		.loc 1 510 3 view .LVU185
 608              		.loc 1 511 3 view .LVU186
 609              		.loc 1 512 3 view .LVU187
 610              		.loc 1 514 3 view .LVU188
 611              		.loc 1 515 1 is_stmt 0 view .LVU189
 612 005a BDE8F040 		pop	{r4, r5, r6, r7, lr}
 613              		.cfi_remember_state
 614              		.cfi_restore 14
 615              		.cfi_restore 7
 616              		.cfi_restore 6
 617              		.cfi_restore 5
 618              		.cfi_restore 4
 619              		.cfi_def_cfa_offset 0
 620              	.LVL41:
 621              		.loc 1 514 10 view .LVU190
 622 005e 8279     		ldrb	r2, [r0, #6]	@ zero_extendqisi2
 623 0060 0068     		ldr	r0, [r0]
 624              	.LVL42:
 625              		.loc 1 514 10 view .LVU191
 626 0062 FFF7FEBF 		b	USB_HC_StartXfer
 627              	.LVL43:
ARM GAS  C:\Users\DEVELO~1\AppData\Local\Temp\ccbkr0PB.s 			page 12


 628              	.L46:
 629              		.cfi_restore_state
 630              		.loc 1 397 5 is_stmt 1 view .LVU192
 631              		.loc 1 397 31 is_stmt 0 view .LVU193
 632 0066 0227     		movs	r7, #2
 633 0068 8EF82A70 		strb	r7, [lr, #42]
 634              		.loc 1 401 3 is_stmt 1 view .LVU194
 635 006c 032B     		cmp	r3, #3
 636 006e E5D8     		bhi	.L51
 637 0070 DFE803F0 		tbb	[pc, r3]
 638              	.L52:
 639 0074 1E       		.byte	(.L53-.L52)/2
 640 0075 0E       		.byte	(.L49-.L52)/2
 641 0076 02       		.byte	(.L48-.L52)/2
 642 0077 02       		.byte	(.L48-.L52)/2
 643              		.p2align 1
 644              	.L48:
 645              		.loc 1 472 7 view .LVU195
 646              		.loc 1 475 29 is_stmt 0 view .LVU196
 647 0078 ACEB0103 		sub	r3, ip, r1
 648              	.LVL44:
 649              		.loc 1 475 29 view .LVU197
 650 007c 00EB8303 		add	r3, r0, r3, lsl #2
 651              		.loc 1 472 10 view .LVU198
 652 0080 72B9     		cbnz	r2, .L60
 653              		.loc 1 475 9 is_stmt 1 view .LVU199
 654              		.loc 1 475 12 is_stmt 0 view .LVU200
 655 0082 93F83D40 		ldrb	r4, [r3, #61]	@ zero_extendqisi2
 656 0086 44B1     		cbz	r4, .L77
 657              		.loc 1 494 11 is_stmt 1 view .LVU201
 658              		.loc 1 494 37 is_stmt 0 view .LVU202
 659 0088 0222     		movs	r2, #2
 660              	.LVL45:
 661              		.loc 1 494 37 view .LVU203
 662 008a 83F82A20 		strb	r2, [r3, #42]
 663              	.LVL46:
 664              		.loc 1 494 37 view .LVU204
 665 008e D5E7     		b	.L51
 666              	.LVL47:
 667              	.L49:
 668              		.loc 1 500 7 is_stmt 1 view .LVU205
 669              		.loc 1 500 33 is_stmt 0 view .LVU206
 670 0090 ACEB0103 		sub	r3, ip, r1
 671              	.LVL48:
 672              		.loc 1 500 33 view .LVU207
 673 0094 0022     		movs	r2, #0
 674              	.LVL49:
 675              		.loc 1 500 33 view .LVU208
 676 0096 00EB8303 		add	r3, r0, r3, lsl #2
 677              	.L77:
 678              		.loc 1 500 33 view .LVU209
 679 009a 83F82A20 		strb	r2, [r3, #42]
 680              	.LVL50:
 681              		.loc 1 501 7 is_stmt 1 view .LVU210
 682 009e CDE7     		b	.L51
 683              	.LVL51:
 684              	.L60:
ARM GAS  C:\Users\DEVELO~1\AppData\Local\Temp\ccbkr0PB.s 			page 13


 685              		.loc 1 488 9 view .LVU211
 686              		.loc 1 488 12 is_stmt 0 view .LVU212
 687 00a0 93F83C20 		ldrb	r2, [r3, #60]	@ zero_extendqisi2
 688              	.LVL52:
 689              		.loc 1 488 12 view .LVU213
 690 00a4 002A     		cmp	r2, #0
 691 00a6 F8D0     		beq	.L77
 692              		.loc 1 494 11 is_stmt 1 view .LVU214
 693              		.loc 1 494 37 is_stmt 0 view .LVU215
 694 00a8 0222     		movs	r2, #2
 695 00aa 83F82A20 		strb	r2, [r3, #42]
 696              	.LVL53:
 697              		.loc 1 494 37 view .LVU216
 698 00ae C5E7     		b	.L51
 699              	.LVL54:
 700              	.L53:
 701              		.loc 1 404 7 is_stmt 1 view .LVU217
 702              		.loc 1 404 10 is_stmt 0 view .LVU218
 703 00b0 012C     		cmp	r4, #1
 704 00b2 C3D1     		bne	.L51
 705              		.loc 1 406 9 is_stmt 1 view .LVU219
 706              		.loc 1 411 41 is_stmt 0 view .LVU220
 707 00b4 ACEB0103 		sub	r3, ip, r1
 708              	.LVL55:
 709              		.loc 1 411 41 view .LVU221
 710 00b8 00EB8303 		add	r3, r0, r3, lsl #2
 711              		.loc 1 406 12 view .LVU222
 712 00bc 1AB9     		cbnz	r2, .L55
 713              		.loc 1 408 11 is_stmt 1 view .LVU223
 714              		.loc 1 408 14 is_stmt 0 view .LVU224
 715 00be 55B9     		cbnz	r5, .L56
 716              		.loc 1 411 13 is_stmt 1 view .LVU225
 717              		.loc 1 411 41 is_stmt 0 view .LVU226
 718 00c0 83F83D40 		strb	r4, [r3, #61]
 719              	.LVL56:
 720              		.loc 1 415 11 is_stmt 1 view .LVU227
 721 00c4 BAE7     		b	.L51
 722              	.LVL57:
 723              	.L55:
 724              		.loc 1 428 11 view .LVU228
 725              		.loc 1 428 14 is_stmt 0 view .LVU229
 726 00c6 9A7E     		ldrb	r2, [r3, #26]	@ zero_extendqisi2
 727              	.LVL58:
 728              		.loc 1 428 14 view .LVU230
 729 00c8 012A     		cmp	r2, #1
 730 00ca B7D1     		bne	.L51
 731              		.loc 1 430 13 is_stmt 1 view .LVU231
 732              		.loc 1 430 16 is_stmt 0 view .LVU232
 733 00cc 93F83C20 		ldrb	r2, [r3, #60]	@ zero_extendqisi2
 734 00d0 002A     		cmp	r2, #0
 735 00d2 B3D1     		bne	.L51
 736 00d4 E1E7     		b	.L77
 737              	.LVL59:
 738              	.L56:
 739              		.loc 1 415 11 is_stmt 1 view .LVU233
 740              		.loc 1 415 14 is_stmt 0 view .LVU234
 741 00d6 93F83D40 		ldrb	r4, [r3, #61]	@ zero_extendqisi2
ARM GAS  C:\Users\DEVELO~1\AppData\Local\Temp\ccbkr0PB.s 			page 14


 742 00da 002C     		cmp	r4, #0
 743 00dc DDD0     		beq	.L77
 744 00de ADE7     		b	.L51
 745              		.cfi_endproc
 746              	.LFE147:
 747              		.size	HAL_HCD_HC_SubmitRequest, .-HAL_HCD_HC_SubmitRequest
 748              		.section	.text.HAL_HCD_SOF_Callback,"ax",%progbits
 749              		.align	1
 750              		.p2align 2,,3
 751              		.weak	HAL_HCD_SOF_Callback
 752              		.syntax unified
 753              		.thumb
 754              		.thumb_func
 755              		.type	HAL_HCD_SOF_Callback, %function
 756              	HAL_HCD_SOF_Callback:
 757              	.LFB173:
 758              		.cfi_startproc
 759              		@ args = 0, pretend = 0, frame = 0
 760              		@ frame_needed = 0, uses_anonymous_args = 0
 761              		@ link register save eliminated.
 762 0000 7047     		bx	lr
 763              		.cfi_endproc
 764              	.LFE173:
 765              		.size	HAL_HCD_SOF_Callback, .-HAL_HCD_SOF_Callback
 766 0002 00BF     		.section	.text.HAL_HCD_Connect_Callback,"ax",%progbits
 767              		.align	1
 768              		.p2align 2,,3
 769              		.weak	HAL_HCD_Connect_Callback
 770              		.syntax unified
 771              		.thumb
 772              		.thumb_func
 773              		.type	HAL_HCD_Connect_Callback, %function
 774              	HAL_HCD_Connect_Callback:
 775              	.LFB175:
 776              		.cfi_startproc
 777              		@ args = 0, pretend = 0, frame = 0
 778              		@ frame_needed = 0, uses_anonymous_args = 0
 779              		@ link register save eliminated.
 780 0000 7047     		bx	lr
 781              		.cfi_endproc
 782              	.LFE175:
 783              		.size	HAL_HCD_Connect_Callback, .-HAL_HCD_Connect_Callback
 784 0002 00BF     		.section	.text.HAL_HCD_Disconnect_Callback,"ax",%progbits
 785              		.align	1
 786              		.p2align 2,,3
 787              		.weak	HAL_HCD_Disconnect_Callback
 788              		.syntax unified
 789              		.thumb
 790              		.thumb_func
 791              		.type	HAL_HCD_Disconnect_Callback, %function
 792              	HAL_HCD_Disconnect_Callback:
 793              	.LFB177:
 794              		.cfi_startproc
 795              		@ args = 0, pretend = 0, frame = 0
 796              		@ frame_needed = 0, uses_anonymous_args = 0
 797              		@ link register save eliminated.
 798 0000 7047     		bx	lr
ARM GAS  C:\Users\DEVELO~1\AppData\Local\Temp\ccbkr0PB.s 			page 15


 799              		.cfi_endproc
 800              	.LFE177:
 801              		.size	HAL_HCD_Disconnect_Callback, .-HAL_HCD_Disconnect_Callback
 802 0002 00BF     		.section	.text.HAL_HCD_PortEnabled_Callback,"ax",%progbits
 803              		.align	1
 804              		.p2align 2,,3
 805              		.weak	HAL_HCD_PortEnabled_Callback
 806              		.syntax unified
 807              		.thumb
 808              		.thumb_func
 809              		.type	HAL_HCD_PortEnabled_Callback, %function
 810              	HAL_HCD_PortEnabled_Callback:
 811              	.LFB179:
 812              		.cfi_startproc
 813              		@ args = 0, pretend = 0, frame = 0
 814              		@ frame_needed = 0, uses_anonymous_args = 0
 815              		@ link register save eliminated.
 816 0000 7047     		bx	lr
 817              		.cfi_endproc
 818              	.LFE179:
 819              		.size	HAL_HCD_PortEnabled_Callback, .-HAL_HCD_PortEnabled_Callback
 820 0002 00BF     		.section	.text.HAL_HCD_PortDisabled_Callback,"ax",%progbits
 821              		.align	1
 822              		.p2align 2,,3
 823              		.weak	HAL_HCD_PortDisabled_Callback
 824              		.syntax unified
 825              		.thumb
 826              		.thumb_func
 827              		.type	HAL_HCD_PortDisabled_Callback, %function
 828              	HAL_HCD_PortDisabled_Callback:
 829              	.LFB181:
 830              		.cfi_startproc
 831              		@ args = 0, pretend = 0, frame = 0
 832              		@ frame_needed = 0, uses_anonymous_args = 0
 833              		@ link register save eliminated.
 834 0000 7047     		bx	lr
 835              		.cfi_endproc
 836              	.LFE181:
 837              		.size	HAL_HCD_PortDisabled_Callback, .-HAL_HCD_PortDisabled_Callback
 838 0002 00BF     		.section	.text.HAL_HCD_HC_NotifyURBChange_Callback,"ax",%progbits
 839              		.align	1
 840              		.p2align 2,,3
 841              		.weak	HAL_HCD_HC_NotifyURBChange_Callback
 842              		.syntax unified
 843              		.thumb
 844              		.thumb_func
 845              		.type	HAL_HCD_HC_NotifyURBChange_Callback, %function
 846              	HAL_HCD_HC_NotifyURBChange_Callback:
 847              	.LVL60:
 848              	.LFB154:
 849              		.loc 1 731 1 is_stmt 1 view -0
 850              		.cfi_startproc
 851              		@ args = 0, pretend = 0, frame = 0
 852              		@ frame_needed = 0, uses_anonymous_args = 0
 853              		@ link register save eliminated.
 854              		.loc 1 733 3 view .LVU236
 855              		.loc 1 734 3 view .LVU237
ARM GAS  C:\Users\DEVELO~1\AppData\Local\Temp\ccbkr0PB.s 			page 16


 856              		.loc 1 735 3 view .LVU238
 857              		.loc 1 740 1 is_stmt 0 view .LVU239
 858 0000 7047     		bx	lr
 859              		.cfi_endproc
 860              	.LFE154:
 861              		.size	HAL_HCD_HC_NotifyURBChange_Callback, .-HAL_HCD_HC_NotifyURBChange_Callback
 862 0002 00BF     		.section	.text.HAL_HCD_IRQHandler,"ax",%progbits
 863              		.align	1
 864              		.p2align 2,,3
 865              		.global	HAL_HCD_IRQHandler
 866              		.syntax unified
 867              		.thumb
 868              		.thumb_func
 869              		.type	HAL_HCD_IRQHandler, %function
 870              	HAL_HCD_IRQHandler:
 871              	.LVL61:
 872              	.LFB148:
 873              		.loc 1 523 1 is_stmt 1 view -0
 874              		.cfi_startproc
 875              		@ args = 0, pretend = 0, frame = 16
 876              		@ frame_needed = 0, uses_anonymous_args = 0
 877              		.loc 1 524 3 view .LVU241
 878              		.loc 1 523 1 is_stmt 0 view .LVU242
 879 0000 2DE9F04F 		push	{r4, r5, r6, r7, r8, r9, r10, fp, lr}
 880              		.cfi_def_cfa_offset 36
 881              		.cfi_offset 4, -36
 882              		.cfi_offset 5, -32
 883              		.cfi_offset 6, -28
 884              		.cfi_offset 7, -24
 885              		.cfi_offset 8, -20
 886              		.cfi_offset 9, -16
 887              		.cfi_offset 10, -12
 888              		.cfi_offset 11, -8
 889              		.cfi_offset 14, -4
 890              		.loc 1 524 26 view .LVU243
 891 0004 0568     		ldr	r5, [r0]
 892              	.LVL62:
 893              		.loc 1 525 3 is_stmt 1 view .LVU244
 894              		.loc 1 526 3 view .LVU245
 895              		.loc 1 527 3 view .LVU246
 896              		.loc 1 530 3 view .LVU247
 897              		.loc 1 523 1 is_stmt 0 view .LVU248
 898 0006 85B0     		sub	sp, sp, #20
 899              		.cfi_def_cfa_offset 56
 900              		.loc 1 523 1 view .LVU249
 901 0008 0446     		mov	r4, r0
 902              		.loc 1 530 7 view .LVU250
 903 000a 2846     		mov	r0, r5
 904              	.LVL63:
 905              		.loc 1 530 7 view .LVU251
 906 000c FFF7FEFF 		bl	USB_GetMode
 907              	.LVL64:
 908              		.loc 1 530 6 view .LVU252
 909 0010 0128     		cmp	r0, #1
 910 0012 02D0     		beq	.L283
 911              	.LVL65:
 912              	.L89:
ARM GAS  C:\Users\DEVELO~1\AppData\Local\Temp\ccbkr0PB.s 			page 17


 913              		.loc 1 637 1 view .LVU253
 914 0014 05B0     		add	sp, sp, #20
 915              		.cfi_remember_state
 916              		.cfi_def_cfa_offset 36
 917              		@ sp needed
 918 0016 BDE8F08F 		pop	{r4, r5, r6, r7, r8, r9, r10, fp, pc}
 919              	.LVL66:
 920              	.L283:
 921              		.cfi_restore_state
 922              		.loc 1 533 5 is_stmt 1 view .LVU254
 923              		.loc 1 533 9 is_stmt 0 view .LVU255
 924 001a 2068     		ldr	r0, [r4]
 925 001c FFF7FEFF 		bl	USB_ReadInterrupts
 926              	.LVL67:
 927              		.loc 1 533 8 view .LVU256
 928 0020 0028     		cmp	r0, #0
 929 0022 F7D0     		beq	.L89
 930              		.loc 1 538 5 is_stmt 1 view .LVU257
 931              		.loc 1 538 9 is_stmt 0 view .LVU258
 932 0024 2068     		ldr	r0, [r4]
 933 0026 FFF7FEFF 		bl	USB_ReadInterrupts
 934              	.LVL68:
 935              		.loc 1 538 8 view .LVU259
 936 002a 10F4001F 		tst	r0, #2097152
 937              		.loc 1 541 7 view .LVU260
 938 002e 2068     		ldr	r0, [r4]
 939              		.loc 1 538 8 view .LVU261
 940 0030 02D0     		beq	.L94
 941              		.loc 1 541 7 is_stmt 1 view .LVU262
 942 0032 4FF40013 		mov	r3, #2097152
 943 0036 4361     		str	r3, [r0, #20]
 944              	.L94:
 945              		.loc 1 544 5 view .LVU263
 946              		.loc 1 544 9 is_stmt 0 view .LVU264
 947 0038 FFF7FEFF 		bl	USB_ReadInterrupts
 948              	.LVL69:
 949              		.loc 1 544 8 view .LVU265
 950 003c 10F4801F 		tst	r0, #1048576
 951              		.loc 1 547 7 view .LVU266
 952 0040 2068     		ldr	r0, [r4]
 953              		.loc 1 544 8 view .LVU267
 954 0042 02D0     		beq	.L96
 955              		.loc 1 547 7 is_stmt 1 view .LVU268
 956 0044 4FF48013 		mov	r3, #1048576
 957 0048 4361     		str	r3, [r0, #20]
 958              	.L96:
 959              		.loc 1 550 5 view .LVU269
 960              		.loc 1 550 9 is_stmt 0 view .LVU270
 961 004a FFF7FEFF 		bl	USB_ReadInterrupts
 962              	.LVL70:
 963              		.loc 1 550 8 view .LVU271
 964 004e 10F0806F 		tst	r0, #67108864
 965              		.loc 1 553 7 view .LVU272
 966 0052 2068     		ldr	r0, [r4]
 967              		.loc 1 550 8 view .LVU273
 968 0054 02D0     		beq	.L98
 969              		.loc 1 553 7 is_stmt 1 view .LVU274
ARM GAS  C:\Users\DEVELO~1\AppData\Local\Temp\ccbkr0PB.s 			page 18


 970 0056 4FF08063 		mov	r3, #67108864
 971 005a 4361     		str	r3, [r0, #20]
 972              	.L98:
 973              		.loc 1 556 5 view .LVU275
 974              		.loc 1 556 9 is_stmt 0 view .LVU276
 975 005c FFF7FEFF 		bl	USB_ReadInterrupts
 976              	.LVL71:
 977              		.loc 1 556 8 view .LVU277
 978 0060 10F0020F 		tst	r0, #2
 979              		.loc 1 559 7 view .LVU278
 980 0064 2068     		ldr	r0, [r4]
 981              		.loc 1 556 8 view .LVU279
 982 0066 01D0     		beq	.L100
 983              		.loc 1 559 7 is_stmt 1 view .LVU280
 984 0068 0223     		movs	r3, #2
 985 006a 4361     		str	r3, [r0, #20]
 986              	.L100:
 987              		.loc 1 563 5 view .LVU281
 988              		.loc 1 563 9 is_stmt 0 view .LVU282
 989 006c FFF7FEFF 		bl	USB_ReadInterrupts
 990              	.LVL72:
 991              		.loc 1 563 8 view .LVU283
 992 0070 10F0005F 		tst	r0, #536870912
 993              		.loc 1 565 7 view .LVU284
 994 0074 2068     		ldr	r0, [r4]
 995              		.loc 1 563 8 view .LVU285
 996 0076 29D1     		bne	.L101
 997              	.L102:
 998              		.loc 1 589 5 is_stmt 1 view .LVU286
 999              		.loc 1 589 9 is_stmt 0 view .LVU287
 1000 0078 FFF7FEFF 		bl	USB_ReadInterrupts
 1001              	.LVL73:
 1002              		.loc 1 589 8 view .LVU288
 1003 007c C001     		lsls	r0, r0, #7
 1004 007e 00F11E81 		bmi	.L284
 1005              	.L104:
 1006              		.loc 1 595 5 is_stmt 1 view .LVU289
 1007              		.loc 1 595 9 is_stmt 0 view .LVU290
 1008 0082 2068     		ldr	r0, [r4]
 1009 0084 FFF7FEFF 		bl	USB_ReadInterrupts
 1010              	.LVL74:
 1011              		.loc 1 595 8 view .LVU291
 1012 0088 0107     		lsls	r1, r0, #28
 1013 008a 00F11181 		bmi	.L113
 1014              		.loc 1 607 9 view .LVU292
 1015 008e 2068     		ldr	r0, [r4]
 1016              	.L114:
 1017              		.loc 1 607 5 is_stmt 1 view .LVU293
 1018              		.loc 1 607 9 is_stmt 0 view .LVU294
 1019 0090 FFF7FEFF 		bl	USB_ReadInterrupts
 1020              	.LVL75:
 1021              		.loc 1 607 8 view .LVU295
 1022 0094 10F0007F 		tst	r0, #33554432
 1023              		.loc 1 609 19 view .LVU296
 1024 0098 2068     		ldr	r0, [r4]
 1025              		.loc 1 607 8 view .LVU297
 1026 009a 2ED1     		bne	.L115
ARM GAS  C:\Users\DEVELO~1\AppData\Local\Temp\ccbkr0PB.s 			page 19


 1027              	.LVL76:
 1028              	.L116:
 1029              		.loc 1 628 5 is_stmt 1 view .LVU298
 1030              		.loc 1 628 10 is_stmt 0 view .LVU299
 1031 009c FFF7FEFF 		bl	USB_ReadInterrupts
 1032              	.LVL77:
 1033              		.loc 1 628 60 view .LVU300
 1034 00a0 C306     		lsls	r3, r0, #27
 1035 00a2 B7D5     		bpl	.L89
 1036              		.loc 1 630 7 is_stmt 1 view .LVU301
 1037 00a4 2568     		ldr	r5, [r4]
 1038 00a6 AB69     		ldr	r3, [r5, #24]
 1039 00a8 23F01003 		bic	r3, r3, #16
 1040 00ac AB61     		str	r3, [r5, #24]
 1041              		.loc 1 632 7 view .LVU302
 1042              	.LVL78:
 1043              	.LBB16:
 1044              	.LBI16:
 1045              		.loc 1 1813 13 view .LVU303
 1046              	.LBB17:
 1047              		.loc 1 1815 3 view .LVU304
 1048              		.loc 1 1816 3 view .LVU305
 1049              		.loc 1 1817 3 view .LVU306
 1050              		.loc 1 1818 3 view .LVU307
 1051              		.loc 1 1819 3 view .LVU308
 1052              		.loc 1 1820 3 view .LVU309
 1053              		.loc 1 1821 3 view .LVU310
 1054              		.loc 1 1822 3 view .LVU311
 1055              		.loc 1 1824 3 view .LVU312
 1056              		.loc 1 1824 14 is_stmt 0 view .LVU313
 1057 00ae 2E6A     		ldr	r6, [r5, #32]
 1058              	.LVL79:
 1059              		.loc 1 1825 3 is_stmt 1 view .LVU314
 1060              		.loc 1 1826 3 view .LVU315
 1061              		.loc 1 1827 3 view .LVU316
 1062              		.loc 1 1826 10 is_stmt 0 view .LVU317
 1063 00b0 C6F34341 		ubfx	r1, r6, #17, #4
 1064              		.loc 1 1827 10 view .LVU318
 1065 00b4 C6F30A17 		ubfx	r7, r6, #4, #11
 1066              	.LVL80:
 1067              		.loc 1 1829 3 is_stmt 1 view .LVU319
 1068              		.loc 1 1833 7 view .LVU320
 1069              		.loc 1 1833 10 is_stmt 0 view .LVU321
 1070 00b8 0229     		cmp	r1, #2
 1071 00ba 02D1     		bne	.L193
 1072 00bc 002F     		cmp	r7, #0
 1073 00be 40F0A181 		bne	.L285
 1074              	.LVL81:
 1075              	.L193:
 1076              		.loc 1 1833 10 view .LVU322
 1077              	.LBE17:
 1078              	.LBE16:
 1079              		.loc 1 634 7 is_stmt 1 view .LVU323
 1080 00c2 AB69     		ldr	r3, [r5, #24]
 1081 00c4 43F01003 		orr	r3, r3, #16
 1082 00c8 AB61     		str	r3, [r5, #24]
 1083 00ca A3E7     		b	.L89
ARM GAS  C:\Users\DEVELO~1\AppData\Local\Temp\ccbkr0PB.s 			page 20


 1084              	.LVL82:
 1085              	.L101:
 1086              		.loc 1 565 7 view .LVU324
 1087 00cc 4FF00053 		mov	r3, #536870912
 1088 00d0 4361     		str	r3, [r0, #20]
 1089              		.loc 1 567 7 view .LVU325
 1090              		.loc 1 567 12 is_stmt 0 view .LVU326
 1091 00d2 D5F84034 		ldr	r3, [r5, #1088]
 1092              		.loc 1 567 10 view .LVU327
 1093 00d6 DE07     		lsls	r6, r3, #31
 1094 00d8 CED4     		bmi	.L102
 1095              		.loc 1 570 9 is_stmt 1 view .LVU328
 1096              		.loc 1 570 15 is_stmt 0 view .LVU329
 1097 00da 1021     		movs	r1, #16
 1098 00dc 2846     		mov	r0, r5
 1099 00de FFF7FEFF 		bl	USB_FlushTxFifo
 1100              	.LVL83:
 1101              		.loc 1 571 9 is_stmt 1 view .LVU330
 1102              		.loc 1 571 15 is_stmt 0 view .LVU331
 1103 00e2 2846     		mov	r0, r5
 1104 00e4 FFF7FEFF 		bl	USB_FlushRxFifo
 1105              	.LVL84:
 1106              		.loc 1 573 9 is_stmt 1 view .LVU332
 1107              		.loc 1 573 12 is_stmt 0 view .LVU333
 1108 00e8 637A     		ldrb	r3, [r4, #9]	@ zero_extendqisi2
 1109 00ea 022B     		cmp	r3, #2
 1110 00ec 00F0A382 		beq	.L286
 1111              	.L103:
 1112              		.loc 1 583 9 is_stmt 1 view .LVU334
 1113 00f0 2046     		mov	r0, r4
 1114 00f2 FFF7FEFF 		bl	HAL_HCD_Disconnect_Callback
 1115              	.LVL85:
 1116              		.loc 1 589 9 is_stmt 0 view .LVU335
 1117 00f6 2068     		ldr	r0, [r4]
 1118 00f8 BEE7     		b	.L102
 1119              	.L115:
 1120              		.loc 1 609 7 is_stmt 1 view .LVU336
 1121              		.loc 1 609 19 is_stmt 0 view .LVU337
 1122 00fa FFF7FEFF 		bl	USB_HC_ReadInterrupt
 1123              	.LVL86:
 1124              		.loc 1 610 22 view .LVU338
 1125 00fe 6379     		ldrb	r3, [r4, #5]	@ zero_extendqisi2
 1126              		.loc 1 609 19 view .LVU339
 1127 0100 8046     		mov	r8, r0
 1128              	.LVL87:
 1129              		.loc 1 610 7 is_stmt 1 view .LVU340
 1130              		.loc 1 610 22 view .LVU341
 1131 0102 002B     		cmp	r3, #0
 1132 0104 00F0CF80 		beq	.L192
 1133              		.loc 1 610 14 is_stmt 0 view .LVU342
 1134 0108 4FF0000B 		mov	fp, #0
 1135 010c 2646     		mov	r6, r4
 1136 010e 05F5A065 		add	r5, r5, #1280
 1137              	.LVL88:
 1138              	.LBB21:
 1139              	.LBB22:
 1140              		.loc 1 1778 35 view .LVU343
ARM GAS  C:\Users\DEVELO~1\AppData\Local\Temp\ccbkr0PB.s 			page 21


 1141 0112 4FF0040A 		mov	r10, #4
 1142 0116 2AE0     		b	.L191
 1143              	.LVL89:
 1144              	.L287:
 1145              		.loc 1 1778 35 view .LVU344
 1146              	.LBE22:
 1147              	.LBE21:
 1148              		.loc 1 616 13 is_stmt 1 view .LVU345
 1149              	.LBB36:
 1150              	.LBB37:
 1151              		.loc 1 1259 7 is_stmt 0 view .LVU346
 1152 0118 FFF7FEFF 		bl	USB_ReadChInterrupts
 1153              	.LVL90:
 1154              		.loc 1 1259 6 view .LVU347
 1155 011c 10F0040F 		tst	r0, #4
 1156 0120 0099     		ldr	r1, [sp]
 1157 0122 46D0     		beq	.L121
 1158              		.loc 1 1261 5 is_stmt 1 view .LVU348
 1159 0124 07F5A063 		add	r3, r7, #1280
 1160 0128 4B44     		add	r3, r3, r9
 1161 012a C3F808A0 		str	r10, [r3, #8]
 1162              		.loc 1 1262 5 view .LVU349
 1163              	.LVL91:
 1164              	.L272:
 1165              		.loc 1 1286 5 view .LVU350
 1166              		.loc 1 1286 27 is_stmt 0 view .LVU351
 1167 012e 0723     		movs	r3, #7
 1168 0130 86F84D30 		strb	r3, [r6, #77]
 1169              		.loc 1 1287 5 is_stmt 1 view .LVU352
 1170              		.loc 1 1287 11 is_stmt 0 view .LVU353
 1171 0134 2068     		ldr	r0, [r4]
 1172 0136 FFF7FEFF 		bl	USB_HC_Halt
 1173              	.LVL92:
 1174 013a 0099     		ldr	r1, [sp]
 1175              	.L122:
 1176              		.loc 1 1292 3 is_stmt 1 view .LVU354
 1177              		.loc 1 1294 3 view .LVU355
 1178              		.loc 1 1294 7 is_stmt 0 view .LVU356
 1179 013c 2068     		ldr	r0, [r4]
 1180 013e 0091     		str	r1, [sp]
 1181 0140 FFF7FEFF 		bl	USB_ReadChInterrupts
 1182              	.LVL93:
 1183              		.loc 1 1294 6 view .LVU357
 1184 0144 10F40073 		ands	r3, r0, #512
 1185 0148 0099     		ldr	r1, [sp]
 1186 014a 71D0     		beq	.L126
 1187              		.loc 1 1296 5 is_stmt 1 view .LVU358
 1188              		.loc 1 1297 5 is_stmt 0 view .LVU359
 1189 014c 07F5A067 		add	r7, r7, #1280
 1190              	.LVL94:
 1191              		.loc 1 1296 11 view .LVU360
 1192 0150 2068     		ldr	r0, [r4]
 1193 0152 FFF7FEFF 		bl	USB_HC_Halt
 1194              	.LVL95:
 1195              		.loc 1 1297 5 is_stmt 1 view .LVU361
 1196 0156 4FF40073 		mov	r3, #512
 1197 015a 4F44     		add	r7, r7, r9
ARM GAS  C:\Users\DEVELO~1\AppData\Local\Temp\ccbkr0PB.s 			page 22


 1198              	.LVL96:
 1199              		.loc 1 1297 5 is_stmt 0 view .LVU362
 1200 015c BB60     		str	r3, [r7, #8]
 1201              	.LVL97:
 1202              	.L119:
 1203              		.loc 1 1297 5 view .LVU363
 1204              	.LBE37:
 1205              	.LBE36:
 1206              		.loc 1 610 51 is_stmt 1 discriminator 2 view .LVU364
 1207 015e 0BF1010B 		add	fp, fp, #1
 1208              	.LVL98:
 1209              		.loc 1 610 22 discriminator 2 view .LVU365
 1210              		.loc 1 610 34 is_stmt 0 discriminator 2 view .LVU366
 1211 0162 6379     		ldrb	r3, [r4, #5]	@ zero_extendqisi2
 1212              		.loc 1 610 22 discriminator 2 view .LVU367
 1213 0164 3C36     		adds	r6, r6, #60
 1214 0166 2035     		adds	r5, r5, #32
 1215 0168 5B45     		cmp	r3, fp
 1216 016a 40F29C80 		bls	.L192
 1217              	.LVL99:
 1218              	.L191:
 1219              		.loc 1 612 9 is_stmt 1 view .LVU368
 1220              		.loc 1 612 37 is_stmt 0 view .LVU369
 1221 016e 0BF00F03 		and	r3, fp, #15
 1222              		.loc 1 612 47 view .LVU370
 1223 0172 28FA03F3 		lsr	r3, r8, r3
 1224              		.loc 1 612 12 view .LVU371
 1225 0176 DA07     		lsls	r2, r3, #31
 1226 0178 F1D5     		bpl	.L119
 1227              		.loc 1 614 11 is_stmt 1 view .LVU372
 1228              		.loc 1 614 26 is_stmt 0 view .LVU373
 1229 017a 2B68     		ldr	r3, [r5]
 1230 017c 5FFA8BF1 		uxtb	r1, fp
 1231              	.LVL100:
 1232              	.LBB54:
 1233              	.LBI36:
 1234              		.loc 1 1253 13 is_stmt 1 view .LVU374
 1235              	.LBB38:
 1236              		.loc 1 1255 3 view .LVU375
 1237              		.loc 1 1256 3 view .LVU376
 1238              		.loc 1 1255 32 is_stmt 0 view .LVU377
 1239 0180 2768     		ldr	r7, [r4]
 1240              	.LVL101:
 1241              		.loc 1 1257 3 is_stmt 1 view .LVU378
 1242              		.loc 1 1259 3 view .LVU379
 1243 0182 4FEA4B19 		lsl	r9, fp, #5
 1244              	.LBE38:
 1245              	.LBE54:
 1246              		.loc 1 614 14 is_stmt 0 view .LVU380
 1247 0186 1B04     		lsls	r3, r3, #16
 1248              	.LBB55:
 1249              	.LBB39:
 1250              		.loc 1 1259 7 view .LVU381
 1251 0188 0091     		str	r1, [sp]
 1252 018a 3846     		mov	r0, r7
 1253              	.LBE39:
 1254              	.LBE55:
ARM GAS  C:\Users\DEVELO~1\AppData\Local\Temp\ccbkr0PB.s 			page 23


 1255              		.loc 1 614 14 view .LVU382
 1256 018c C4D4     		bmi	.L287
 1257              		.loc 1 620 13 is_stmt 1 view .LVU383
 1258              	.LBB56:
 1259              	.LBB23:
 1260              		.loc 1 1579 7 is_stmt 0 view .LVU384
 1261 018e FFF7FEFF 		bl	USB_ReadChInterrupts
 1262              	.LVL102:
 1263              		.loc 1 1579 6 view .LVU385
 1264 0192 10F00403 		ands	r3, r0, #4
 1265 0196 0099     		ldr	r1, [sp]
 1266 0198 22D0     		beq	.L160
 1267              		.loc 1 1581 5 is_stmt 1 view .LVU386
 1268 019a 07F5A067 		add	r7, r7, #1280
 1269              	.LVL103:
 1270              		.loc 1 1582 27 is_stmt 0 view .LVU387
 1271 019e 0723     		movs	r3, #7
 1272              		.loc 1 1581 5 view .LVU388
 1273 01a0 4F44     		add	r7, r7, r9
 1274              	.LVL104:
 1275              		.loc 1 1581 5 view .LVU389
 1276 01a2 C7F808A0 		str	r10, [r7, #8]
 1277              		.loc 1 1582 5 is_stmt 1 view .LVU390
 1278              		.loc 1 1582 27 is_stmt 0 view .LVU391
 1279 01a6 86F84D30 		strb	r3, [r6, #77]
 1280              	.LVL105:
 1281              		.loc 1 1583 5 is_stmt 1 view .LVU392
 1282              		.loc 1 1583 11 is_stmt 0 view .LVU393
 1283 01aa 2068     		ldr	r0, [r4]
 1284 01ac FFF7FEFF 		bl	USB_HC_Halt
 1285              	.LVL106:
 1286 01b0 D5E7     		b	.L119
 1287              	.LVL107:
 1288              	.L121:
 1289              		.loc 1 1583 11 view .LVU394
 1290              	.LBE23:
 1291              	.LBE56:
 1292              	.LBB57:
 1293              	.LBB40:
 1294              		.loc 1 1265 8 is_stmt 1 view .LVU395
 1295              		.loc 1 1265 12 is_stmt 0 view .LVU396
 1296 01b2 2068     		ldr	r0, [r4]
 1297 01b4 0091     		str	r1, [sp]
 1298              	.LVL108:
 1299              		.loc 1 1265 12 view .LVU397
 1300 01b6 FFF7FEFF 		bl	USB_ReadChInterrupts
 1301              	.LVL109:
 1302              		.loc 1 1265 11 view .LVU398
 1303 01ba 10F4807F 		tst	r0, #256
 1304 01be 0099     		ldr	r1, [sp]
 1305 01c0 00F0B780 		beq	.L123
 1306              		.loc 1 1267 5 is_stmt 1 view .LVU399
 1307 01c4 07F5A063 		add	r3, r7, #1280
 1308 01c8 4FF48072 		mov	r2, #256
 1309 01cc 4B44     		add	r3, r3, r9
 1310 01ce 9A60     		str	r2, [r3, #8]
 1311              		.loc 1 1268 5 view .LVU400
ARM GAS  C:\Users\DEVELO~1\AppData\Local\Temp\ccbkr0PB.s 			page 24


 1312              		.loc 1 1268 27 is_stmt 0 view .LVU401
 1313 01d0 0823     		movs	r3, #8
 1314 01d2 86F84D30 		strb	r3, [r6, #77]
 1315              		.loc 1 1269 5 is_stmt 1 view .LVU402
 1316              		.loc 1 1269 11 is_stmt 0 view .LVU403
 1317 01d6 2068     		ldr	r0, [r4]
 1318 01d8 FFF7FEFF 		bl	USB_HC_Halt
 1319              	.LVL110:
 1320 01dc 0099     		ldr	r1, [sp]
 1321 01de ADE7     		b	.L122
 1322              	.LVL111:
 1323              	.L160:
 1324              		.loc 1 1269 11 view .LVU404
 1325              	.LBE40:
 1326              	.LBE57:
 1327              	.LBB58:
 1328              	.LBB24:
 1329              		.loc 1 1585 12 view .LVU405
 1330 01e0 2068     		ldr	r0, [r4]
 1331 01e2 CDE90013 		strd	r1, r3, [sp]
 1332              	.LVL112:
 1333              		.loc 1 1585 12 view .LVU406
 1334 01e6 FFF7FEFF 		bl	USB_ReadChInterrupts
 1335              	.LVL113:
 1336              		.loc 1 1585 11 view .LVU407
 1337 01ea 10F0200F 		tst	r0, #32
 1338 01ee 0099     		ldr	r1, [sp]
 1339 01f0 00F0CE80 		beq	.L161
 1340              		.loc 1 1587 5 is_stmt 1 view .LVU408
 1341 01f4 07F5A067 		add	r7, r7, #1280
 1342              	.LVL114:
 1343              		.loc 1 1587 5 is_stmt 0 view .LVU409
 1344 01f8 2022     		movs	r2, #32
 1345              		.loc 1 1589 8 view .LVU410
 1346 01fa 019B     		ldr	r3, [sp, #4]
 1347              		.loc 1 1587 5 view .LVU411
 1348 01fc 4F44     		add	r7, r7, r9
 1349              	.LVL115:
 1350              		.loc 1 1587 5 view .LVU412
 1351 01fe BA60     		str	r2, [r7, #8]
 1352              		.loc 1 1589 5 is_stmt 1 view .LVU413
 1353              		.loc 1 1589 8 is_stmt 0 view .LVU414
 1354 0200 727E     		ldrb	r2, [r6, #25]	@ zero_extendqisi2
 1355 0202 012A     		cmp	r2, #1
 1356 0204 00F05681 		beq	.L288
 1357              	.L162:
 1358              		.loc 1 1597 5 is_stmt 1 view .LVU415
 1359              		.loc 1 1597 8 is_stmt 0 view .LVU416
 1360 0208 B37E     		ldrb	r3, [r6, #26]	@ zero_extendqisi2
 1361 020a 012B     		cmp	r3, #1
 1362 020c A7D1     		bne	.L119
 1363              		.loc 1 1597 43 view .LVU417
 1364 020e F27E     		ldrb	r2, [r6, #27]	@ zero_extendqisi2
 1365 0210 002A     		cmp	r2, #0
 1366 0212 A4D1     		bne	.L119
 1367              		.loc 1 1599 7 is_stmt 1 view .LVU418
 1368              		.loc 1 1599 10 is_stmt 0 view .LVU419
ARM GAS  C:\Users\DEVELO~1\AppData\Local\Temp\ccbkr0PB.s 			page 25


 1369 0214 96F82620 		ldrb	r2, [r6, #38]	@ zero_extendqisi2
 1370 0218 012A     		cmp	r2, #1
 1371              		.loc 1 1601 9 is_stmt 1 view .LVU420
 1372              		.loc 1 1604 7 view .LVU421
 1373              		.loc 1 1601 35 is_stmt 0 view .LVU422
 1374 021a 18BF     		it	ne
 1375 021c F376     		strbne	r3, [r6, #27]
 1376              		.loc 1 1604 29 view .LVU423
 1377 021e 0323     		movs	r3, #3
 1378 0220 86F84D30 		strb	r3, [r6, #77]
 1379              		.loc 1 1605 7 is_stmt 1 view .LVU424
 1380              		.loc 1 1605 13 is_stmt 0 view .LVU425
 1381 0224 2068     		ldr	r0, [r4]
 1382 0226 FFF7FEFF 		bl	USB_HC_Halt
 1383              	.LVL116:
 1384              		.loc 1 1608 7 is_stmt 1 view .LVU426
 1385              		.loc 1 1608 30 is_stmt 0 view .LVU427
 1386 022a 0023     		movs	r3, #0
 1387 022c 7364     		str	r3, [r6, #68]
 1388 022e 96E7     		b	.L119
 1389              	.LVL117:
 1390              	.L126:
 1391              		.loc 1 1608 30 view .LVU428
 1392              	.LBE24:
 1393              	.LBE58:
 1394              	.LBB59:
 1395              	.LBB41:
 1396              		.loc 1 1299 12 view .LVU429
 1397 0230 2068     		ldr	r0, [r4]
 1398 0232 CDE90013 		strd	r1, r3, [sp]
 1399 0236 FFF7FEFF 		bl	USB_ReadChInterrupts
 1400              	.LVL118:
 1401              		.loc 1 1299 11 view .LVU430
 1402 023a 10F0010F 		tst	r0, #1
 1403 023e 0099     		ldr	r1, [sp]
 1404 0240 00F08C80 		beq	.L127
 1405              		.loc 1 1302 5 is_stmt 1 view .LVU431
 1406 0244 07F5A060 		add	r0, r7, #1280
 1407 0248 2022     		movs	r2, #32
 1408              		.loc 1 1304 8 is_stmt 0 view .LVU432
 1409 024a 019B     		ldr	r3, [sp, #4]
 1410              		.loc 1 1302 5 view .LVU433
 1411 024c 00EB0907 		add	r7, r0, r9
 1412              	.LVL119:
 1413              		.loc 1 1302 5 view .LVU434
 1414 0250 BA60     		str	r2, [r7, #8]
 1415              		.loc 1 1304 5 is_stmt 1 view .LVU435
 1416              		.loc 1 1304 8 is_stmt 0 view .LVU436
 1417 0252 F27E     		ldrb	r2, [r6, #27]	@ zero_extendqisi2
 1418 0254 012A     		cmp	r2, #1
 1419 0256 04D1     		bne	.L128
 1420              		.loc 1 1306 7 is_stmt 1 view .LVU437
 1421              		.loc 1 1306 33 is_stmt 0 view .LVU438
 1422 0258 F376     		strb	r3, [r6, #27]
 1423              		.loc 1 1307 7 is_stmt 1 view .LVU439
 1424 025a 7B68     		ldr	r3, [r7, #4]
 1425 025c 23F48033 		bic	r3, r3, #65536
ARM GAS  C:\Users\DEVELO~1\AppData\Local\Temp\ccbkr0PB.s 			page 26


 1426 0260 7B60     		str	r3, [r7, #4]
 1427              	.L128:
 1428              		.loc 1 1310 5 view .LVU440
 1429              		.loc 1 1310 19 is_stmt 0 view .LVU441
 1430 0262 A279     		ldrb	r2, [r4, #6]	@ zero_extendqisi2
 1431              		.loc 1 1310 8 view .LVU442
 1432 0264 32B1     		cbz	r2, .L129
 1433              		.loc 1 1312 7 is_stmt 1 view .LVU443
 1434              		.loc 1 1312 78 is_stmt 0 view .LVU444
 1435 0266 3B69     		ldr	r3, [r7, #16]
 1436              		.loc 1 1312 87 view .LVU445
 1437 0268 C3F3120C 		ubfx	ip, r3, #0, #19
 1438              		.loc 1 1312 61 view .LVU446
 1439 026c 336B     		ldr	r3, [r6, #48]
 1440 026e A3EB0C03 		sub	r3, r3, ip
 1441              		.loc 1 1312 34 view .LVU447
 1442 0272 B363     		str	r3, [r6, #56]
 1443              	.L129:
 1444              		.loc 1 1315 5 is_stmt 1 view .LVU448
 1445              		.loc 1 1316 28 is_stmt 0 view .LVU449
 1446 0274 0023     		movs	r3, #0
 1447 0276 7364     		str	r3, [r6, #68]
 1448              		.loc 1 1315 27 view .LVU450
 1449 0278 0123     		movs	r3, #1
 1450 027a 86F84D30 		strb	r3, [r6, #77]
 1451              		.loc 1 1316 5 is_stmt 1 view .LVU451
 1452              		.loc 1 1317 5 view .LVU452
 1453 027e BB60     		str	r3, [r7, #8]
 1454              		.loc 1 1319 5 view .LVU453
 1455              		.loc 1 1319 51 is_stmt 0 view .LVU454
 1456 0280 96F82630 		ldrb	r3, [r6, #38]	@ zero_extendqisi2
 1457              		.loc 1 1319 8 view .LVU455
 1458 0284 13F0FD03 		ands	r3, r3, #253
 1459 0288 00F0B580 		beq	.L289
 1460              		.loc 1 1325 10 is_stmt 1 view .LVU456
 1461              		.loc 1 1325 13 is_stmt 0 view .LVU457
 1462 028c 012B     		cmp	r3, #1
 1463 028e 00F00381 		beq	.L290
 1464              	.LVL120:
 1465              	.L131:
 1466              		.loc 1 1340 5 is_stmt 1 view .LVU458
 1467              		.loc 1 1342 5 view .LVU459
 1468              		.loc 1 1342 8 is_stmt 0 view .LVU460
 1469 0292 012A     		cmp	r2, #1
 1470 0294 00F0A580 		beq	.L291
 1471              	.L132:
 1472              		.loc 1 1351 7 is_stmt 1 view .LVU461
 1473              		.loc 1 1351 33 is_stmt 0 view .LVU462
 1474 0298 96F83C30 		ldrb	r3, [r6, #60]	@ zero_extendqisi2
 1475 029c 83F00103 		eor	r3, r3, #1
 1476 02a0 86F83C30 		strb	r3, [r6, #60]
 1477 02a4 5BE7     		b	.L119
 1478              	.LVL121:
 1479              	.L192:
 1480              		.loc 1 1351 33 view .LVU463
 1481              	.LBE41:
 1482              	.LBE59:
ARM GAS  C:\Users\DEVELO~1\AppData\Local\Temp\ccbkr0PB.s 			page 27


 1483              		.loc 1 624 7 is_stmt 1 view .LVU464
 1484 02a6 2068     		ldr	r0, [r4]
 1485 02a8 4FF00073 		mov	r3, #33554432
 1486 02ac 4361     		str	r3, [r0, #20]
 1487 02ae F5E6     		b	.L116
 1488              	.LVL122:
 1489              	.L113:
 1490              		.loc 1 600 7 view .LVU465
 1491 02b0 2046     		mov	r0, r4
 1492 02b2 FFF7FEFF 		bl	HAL_HCD_SOF_Callback
 1493              	.LVL123:
 1494              		.loc 1 603 7 view .LVU466
 1495 02b6 2068     		ldr	r0, [r4]
 1496 02b8 0823     		movs	r3, #8
 1497 02ba 4361     		str	r3, [r0, #20]
 1498 02bc E8E6     		b	.L114
 1499              	.L284:
 1500              		.loc 1 591 7 view .LVU467
 1501              	.LVL124:
 1502              	.LBB60:
 1503              	.LBI60:
 1504              		.loc 1 1879 13 view .LVU468
 1505              	.LBB61:
 1506              		.loc 1 1881 3 view .LVU469
 1507              		.loc 1 1882 3 view .LVU470
 1508              		.loc 1 1882 12 is_stmt 0 view .LVU471
 1509 02be 2668     		ldr	r6, [r4]
 1510              	.LVL125:
 1511              		.loc 1 1883 3 is_stmt 1 view .LVU472
 1512              		.loc 1 1884 3 view .LVU473
 1513              		.loc 1 1887 3 view .LVU474
 1514              		.loc 1 1887 11 is_stmt 0 view .LVU475
 1515 02c0 D6F84034 		ldr	r3, [r6, #1088]
 1516              		.loc 1 1887 9 view .LVU476
 1517 02c4 0293     		str	r3, [sp, #8]
 1518              		.loc 1 1888 3 is_stmt 1 view .LVU477
 1519              		.loc 1 1888 15 is_stmt 0 view .LVU478
 1520 02c6 D6F84034 		ldr	r3, [r6, #1088]
 1521              		.loc 1 1888 13 view .LVU479
 1522 02ca 0393     		str	r3, [sp, #12]
 1523              		.loc 1 1890 3 is_stmt 1 view .LVU480
 1524              		.loc 1 1890 13 is_stmt 0 view .LVU481
 1525 02cc 039B     		ldr	r3, [sp, #12]
 1526 02ce 23F02E03 		bic	r3, r3, #46
 1527 02d2 0393     		str	r3, [sp, #12]
 1528              		.loc 1 1894 3 is_stmt 1 view .LVU482
 1529              		.loc 1 1894 14 is_stmt 0 view .LVU483
 1530 02d4 029B     		ldr	r3, [sp, #8]
 1531              		.loc 1 1894 6 view .LVU484
 1532 02d6 9907     		lsls	r1, r3, #30
 1533 02d8 07D5     		bpl	.L105
 1534              		.loc 1 1896 5 is_stmt 1 view .LVU485
 1535              		.loc 1 1896 16 is_stmt 0 view .LVU486
 1536 02da 029B     		ldr	r3, [sp, #8]
 1537              		.loc 1 1896 8 view .LVU487
 1538 02dc DA07     		lsls	r2, r3, #31
 1539 02de 00F1AC80 		bmi	.L292
ARM GAS  C:\Users\DEVELO~1\AppData\Local\Temp\ccbkr0PB.s 			page 28


 1540              	.LVL126:
 1541              	.L106:
 1542              		.loc 1 1904 5 is_stmt 1 view .LVU488
 1543              		.loc 1 1904 15 is_stmt 0 view .LVU489
 1544 02e2 039B     		ldr	r3, [sp, #12]
 1545 02e4 43F00203 		orr	r3, r3, #2
 1546 02e8 0393     		str	r3, [sp, #12]
 1547              	.L105:
 1548              		.loc 1 1908 3 is_stmt 1 view .LVU490
 1549              		.loc 1 1908 14 is_stmt 0 view .LVU491
 1550 02ea 029B     		ldr	r3, [sp, #8]
 1551              		.loc 1 1908 6 view .LVU492
 1552 02ec 1B07     		lsls	r3, r3, #28
 1553 02ee 15D5     		bpl	.L107
 1554              		.loc 1 1910 5 is_stmt 1 view .LVU493
 1555              		.loc 1 1910 15 is_stmt 0 view .LVU494
 1556 02f0 039B     		ldr	r3, [sp, #12]
 1557 02f2 43F00803 		orr	r3, r3, #8
 1558 02f6 0393     		str	r3, [sp, #12]
 1559              		.loc 1 1912 5 is_stmt 1 view .LVU495
 1560              		.loc 1 1912 16 is_stmt 0 view .LVU496
 1561 02f8 029B     		ldr	r3, [sp, #8]
 1562              		.loc 1 1912 8 view .LVU497
 1563 02fa 5F07     		lsls	r7, r3, #29
 1564 02fc 40F19980 		bpl	.L108
 1565              		.loc 1 1914 7 is_stmt 1 view .LVU498
 1566              		.loc 1 1914 10 is_stmt 0 view .LVU499
 1567 0300 617A     		ldrb	r1, [r4, #9]	@ zero_extendqisi2
 1568 0302 0229     		cmp	r1, #2
 1569 0304 00F0F280 		beq	.L293
 1570              		.loc 1 1927 9 is_stmt 1 view .LVU500
 1571              		.loc 1 1927 12 is_stmt 0 view .LVU501
 1572 0308 E379     		ldrb	r3, [r4, #7]	@ zero_extendqisi2
 1573 030a 012B     		cmp	r3, #1
 1574 030c 03D1     		bne	.L111
 1575              		.loc 1 1929 11 is_stmt 1 view .LVU502
 1576              		.loc 1 1929 27 is_stmt 0 view .LVU503
 1577 030e 4EF66022 		movw	r2, #60000
 1578 0312 C6F80424 		str	r2, [r6, #1028]
 1579              	.L111:
 1580              		.loc 1 1935 7 is_stmt 1 view .LVU504
 1581 0316 2046     		mov	r0, r4
 1582 0318 FFF7FEFF 		bl	HAL_HCD_PortEnabled_Callback
 1583              	.LVL127:
 1584              	.L107:
 1585              		.loc 1 1950 3 view .LVU505
 1586              		.loc 1 1950 14 is_stmt 0 view .LVU506
 1587 031c 029B     		ldr	r3, [sp, #8]
 1588              		.loc 1 1950 6 view .LVU507
 1589 031e 9806     		lsls	r0, r3, #26
 1590 0320 03D5     		bpl	.L112
 1591              		.loc 1 1952 5 is_stmt 1 view .LVU508
 1592              		.loc 1 1952 15 is_stmt 0 view .LVU509
 1593 0322 039B     		ldr	r3, [sp, #12]
 1594 0324 43F02003 		orr	r3, r3, #32
 1595 0328 0393     		str	r3, [sp, #12]
 1596              	.L112:
ARM GAS  C:\Users\DEVELO~1\AppData\Local\Temp\ccbkr0PB.s 			page 29


 1597              		.loc 1 1956 3 is_stmt 1 view .LVU510
 1598              		.loc 1 1956 14 is_stmt 0 view .LVU511
 1599 032a 039B     		ldr	r3, [sp, #12]
 1600 032c C6F84034 		str	r3, [r6, #1088]
 1601              		.loc 1 1957 1 view .LVU512
 1602 0330 A7E6     		b	.L104
 1603              	.LVL128:
 1604              	.L123:
 1605              		.loc 1 1957 1 view .LVU513
 1606              	.LBE61:
 1607              	.LBE60:
 1608              	.LBB64:
 1609              	.LBB42:
 1610              		.loc 1 1271 8 is_stmt 1 view .LVU514
 1611              		.loc 1 1271 12 is_stmt 0 view .LVU515
 1612 0332 2068     		ldr	r0, [r4]
 1613 0334 0091     		str	r1, [sp]
 1614 0336 FFF7FEFF 		bl	USB_ReadChInterrupts
 1615              	.LVL129:
 1616              		.loc 1 1271 11 view .LVU516
 1617 033a 10F0080F 		tst	r0, #8
 1618 033e 0099     		ldr	r1, [sp]
 1619 0340 38D0     		beq	.L124
 1620              		.loc 1 1273 5 is_stmt 1 view .LVU517
 1621 0342 07F5A063 		add	r3, r7, #1280
 1622 0346 0822     		movs	r2, #8
 1623 0348 4B44     		add	r3, r3, r9
 1624 034a 9A60     		str	r2, [r3, #8]
 1625              		.loc 1 1274 5 view .LVU518
 1626              		.loc 1 1274 27 is_stmt 0 view .LVU519
 1627 034c 0623     		movs	r3, #6
 1628 034e 86F84D30 		strb	r3, [r6, #77]
 1629              		.loc 1 1275 5 is_stmt 1 view .LVU520
 1630              		.loc 1 1275 11 is_stmt 0 view .LVU521
 1631 0352 2068     		ldr	r0, [r4]
 1632 0354 FFF7FEFF 		bl	USB_HC_Halt
 1633              	.LVL130:
 1634 0358 0099     		ldr	r1, [sp]
 1635 035a EFE6     		b	.L122
 1636              	.L127:
 1637              		.loc 1 1354 8 is_stmt 1 view .LVU522
 1638              		.loc 1 1354 12 is_stmt 0 view .LVU523
 1639 035c 2068     		ldr	r0, [r4]
 1640 035e 0091     		str	r1, [sp]
 1641 0360 FFF7FEFF 		bl	USB_ReadChInterrupts
 1642              	.LVL131:
 1643              		.loc 1 1354 11 view .LVU524
 1644 0364 10F0200F 		tst	r0, #32
 1645 0368 0099     		ldr	r1, [sp]
 1646 036a 00F0CA80 		beq	.L134
 1647              		.loc 1 1356 5 is_stmt 1 view .LVU525
 1648 036e 07F5A063 		add	r3, r7, #1280
 1649 0372 2022     		movs	r2, #32
 1650 0374 4B44     		add	r3, r3, r9
 1651 0376 9A60     		str	r2, [r3, #8]
 1652              		.loc 1 1358 5 view .LVU526
 1653              		.loc 1 1358 8 is_stmt 0 view .LVU527
ARM GAS  C:\Users\DEVELO~1\AppData\Local\Temp\ccbkr0PB.s 			page 30


 1654 0378 B37E     		ldrb	r3, [r6, #26]	@ zero_extendqisi2
 1655 037a 012B     		cmp	r3, #1
 1656 037c 7FF4EFAE 		bne	.L119
 1657              		.loc 1 1360 7 is_stmt 1 view .LVU528
 1658              		.loc 1 1360 33 is_stmt 0 view .LVU529
 1659 0380 F376     		strb	r3, [r6, #27]
 1660              		.loc 1 1361 7 is_stmt 1 view .LVU530
 1661              		.loc 1 1361 29 is_stmt 0 view .LVU531
 1662 0382 0323     		movs	r3, #3
 1663 0384 86F84D30 		strb	r3, [r6, #77]
 1664              		.loc 1 1363 7 is_stmt 1 view .LVU532
 1665              		.loc 1 1363 13 is_stmt 0 view .LVU533
 1666 0388 2068     		ldr	r0, [r4]
 1667 038a FFF7FEFF 		bl	USB_HC_Halt
 1668              	.LVL132:
 1669 038e E6E6     		b	.L119
 1670              	.L161:
 1671              		.loc 1 1363 13 view .LVU534
 1672              	.LBE42:
 1673              	.LBE64:
 1674              	.LBB65:
 1675              	.LBB25:
 1676              		.loc 1 1611 8 is_stmt 1 view .LVU535
 1677              		.loc 1 1611 12 is_stmt 0 view .LVU536
 1678 0390 2068     		ldr	r0, [r4]
 1679 0392 0091     		str	r1, [sp]
 1680 0394 FFF7FEFF 		bl	USB_ReadChInterrupts
 1681              	.LVL133:
 1682              		.loc 1 1611 11 view .LVU537
 1683 0398 10F40073 		ands	r3, r0, #512
 1684 039c 0099     		ldr	r1, [sp]
 1685 039e 50D0     		beq	.L164
 1686              		.loc 1 1613 5 is_stmt 1 view .LVU538
 1687 03a0 07F5A063 		add	r3, r7, #1280
 1688 03a4 4FF40072 		mov	r2, #512
 1689              		.loc 1 1614 11 is_stmt 0 view .LVU539
 1690 03a8 2068     		ldr	r0, [r4]
 1691              		.loc 1 1613 5 view .LVU540
 1692 03aa 4B44     		add	r3, r3, r9
 1693 03ac 9A60     		str	r2, [r3, #8]
 1694              		.loc 1 1614 5 is_stmt 1 view .LVU541
 1695              		.loc 1 1614 11 is_stmt 0 view .LVU542
 1696 03ae FFF7FEFF 		bl	USB_HC_Halt
 1697              	.LVL134:
 1698 03b2 D4E6     		b	.L119
 1699              	.L124:
 1700              		.loc 1 1614 11 view .LVU543
 1701              	.LBE25:
 1702              	.LBE65:
 1703              	.LBB66:
 1704              	.LBB43:
 1705              		.loc 1 1277 8 is_stmt 1 view .LVU544
 1706              		.loc 1 1277 12 is_stmt 0 view .LVU545
 1707 03b4 2068     		ldr	r0, [r4]
 1708 03b6 0091     		str	r1, [sp]
 1709 03b8 FFF7FEFF 		bl	USB_ReadChInterrupts
 1710              	.LVL135:
ARM GAS  C:\Users\DEVELO~1\AppData\Local\Temp\ccbkr0PB.s 			page 31


 1711              		.loc 1 1277 11 view .LVU546
 1712 03bc 10F4806F 		tst	r0, #1024
 1713 03c0 0099     		ldr	r1, [sp]
 1714 03c2 00F08480 		beq	.L125
 1715              		.loc 1 1279 5 is_stmt 1 view .LVU547
 1716 03c6 07F5A063 		add	r3, r7, #1280
 1717 03ca 4FF48062 		mov	r2, #1024
 1718 03ce 4B44     		add	r3, r3, r9
 1719 03d0 9A60     		str	r2, [r3, #8]
 1720              		.loc 1 1280 5 view .LVU548
 1721              		.loc 1 1280 27 is_stmt 0 view .LVU549
 1722 03d2 0923     		movs	r3, #9
 1723 03d4 86F84D30 		strb	r3, [r6, #77]
 1724              		.loc 1 1281 5 is_stmt 1 view .LVU550
 1725              		.loc 1 1281 11 is_stmt 0 view .LVU551
 1726 03d8 2068     		ldr	r0, [r4]
 1727 03da FFF7FEFF 		bl	USB_HC_Halt
 1728              	.LVL136:
 1729 03de 0099     		ldr	r1, [sp]
 1730 03e0 ACE6     		b	.L122
 1731              	.LVL137:
 1732              	.L291:
 1733              		.loc 1 1344 7 is_stmt 1 view .LVU552
 1734              		.loc 1 1344 70 is_stmt 0 view .LVU553
 1735 03e2 B36B     		ldr	r3, [r6, #56]
 1736              		.loc 1 1344 58 view .LVU554
 1737 03e4 328D     		ldrh	r2, [r6, #40]
 1738              		.loc 1 1344 70 view .LVU555
 1739 03e6 013B     		subs	r3, r3, #1
 1740 03e8 1344     		add	r3, r3, r2
 1741              		.loc 1 1344 76 view .LVU556
 1742 03ea B3FBF2F3 		udiv	r3, r3, r2
 1743              		.loc 1 1344 10 view .LVU557
 1744 03ee DF07     		lsls	r7, r3, #31
 1745 03f0 7FF5B5AE 		bpl	.L119
 1746 03f4 50E7     		b	.L132
 1747              	.LVL138:
 1748              	.L289:
 1749              		.loc 1 1322 7 is_stmt 1 view .LVU558
 1750              		.loc 1 1322 13 is_stmt 0 view .LVU559
 1751 03f6 2068     		ldr	r0, [r4]
 1752              	.LVL139:
 1753              		.loc 1 1322 13 view .LVU560
 1754 03f8 FFF7FEFF 		bl	USB_HC_Halt
 1755              	.LVL140:
 1756              		.loc 1 1323 7 is_stmt 1 view .LVU561
 1757 03fc 1023     		movs	r3, #16
 1758 03fe BB60     		str	r3, [r7, #8]
 1759              		.loc 1 1342 19 is_stmt 0 view .LVU562
 1760 0400 A279     		ldrb	r2, [r4, #6]	@ zero_extendqisi2
 1761 0402 46E7     		b	.L131
 1762              	.LVL141:
 1763              	.L285:
 1764              		.loc 1 1342 19 view .LVU563
 1765              	.LBE43:
 1766              	.LBE66:
 1767              	.LBB67:
ARM GAS  C:\Users\DEVELO~1\AppData\Local\Temp\ccbkr0PB.s 			page 32


 1768              	.LBB18:
 1769              		.loc 1 1825 9 view .LVU564
 1770 0404 06F00F06 		and	r6, r6, #15
 1771              	.LVL142:
 1772              		.loc 1 1833 44 view .LVU565
 1773 0408 C6EB0611 		rsb	r1, r6, r6, lsl #4
 1774 040c 04EB8108 		add	r8, r4, r1, lsl #2
 1775 0410 D8F82C10 		ldr	r1, [r8, #44]
 1776              		.loc 1 1833 25 view .LVU566
 1777 0414 0029     		cmp	r1, #0
 1778 0416 3FF454AE 		beq	.L193
 1779              		.loc 1 1835 9 is_stmt 1 view .LVU567
 1780              		.loc 1 1835 41 is_stmt 0 view .LVU568
 1781 041a D8F83800 		ldr	r0, [r8, #56]
 1782              		.loc 1 1835 12 view .LVU569
 1783 041e D8F83430 		ldr	r3, [r8, #52]
 1784              		.loc 1 1835 41 view .LVU570
 1785 0422 3844     		add	r0, r0, r7
 1786              		.loc 1 1835 12 view .LVU571
 1787 0424 9842     		cmp	r0, r3
 1788 0426 40F22581 		bls	.L294
 1789              		.loc 1 1859 11 is_stmt 1 view .LVU572
 1790              		.loc 1 1859 37 is_stmt 0 view .LVU573
 1791 042a 0423     		movs	r3, #4
 1792 042c 88F84C30 		strb	r3, [r8, #76]
 1793 0430 47E6     		b	.L193
 1794              	.LVL143:
 1795              	.L108:
 1796              		.loc 1 1859 37 view .LVU574
 1797              	.LBE18:
 1798              	.LBE67:
 1799              	.LBB68:
 1800              	.LBB62:
 1801              		.loc 1 1944 7 is_stmt 1 view .LVU575
 1802 0432 2046     		mov	r0, r4
 1803 0434 FFF7FEFF 		bl	HAL_HCD_PortDisabled_Callback
 1804              	.LVL144:
 1805 0438 70E7     		b	.L107
 1806              	.L292:
 1807              		.loc 1 1901 7 view .LVU576
 1808 043a 2046     		mov	r0, r4
 1809 043c FFF7FEFF 		bl	HAL_HCD_Connect_Callback
 1810              	.LVL145:
 1811 0440 4FE7     		b	.L106
 1812              	.LVL146:
 1813              	.L164:
 1814              		.loc 1 1901 7 is_stmt 0 view .LVU577
 1815              	.LBE62:
 1816              	.LBE68:
 1817              	.LBB69:
 1818              	.LBB26:
 1819              		.loc 1 1616 12 view .LVU578
 1820 0442 2068     		ldr	r0, [r4]
 1821 0444 CDE90013 		strd	r1, r3, [sp]
 1822 0448 FFF7FEFF 		bl	USB_ReadChInterrupts
 1823              	.LVL147:
 1824              		.loc 1 1616 11 view .LVU579
ARM GAS  C:\Users\DEVELO~1\AppData\Local\Temp\ccbkr0PB.s 			page 33


 1825 044c 10F0010F 		tst	r0, #1
 1826 0450 0099     		ldr	r1, [sp]
 1827 0452 00F0F580 		beq	.L165
 1828              		.loc 1 1618 5 is_stmt 1 view .LVU580
 1829              		.loc 1 1618 28 is_stmt 0 view .LVU581
 1830 0456 019B     		ldr	r3, [sp, #4]
 1831              		.loc 1 1621 9 view .LVU582
 1832 0458 2068     		ldr	r0, [r4]
 1833              		.loc 1 1618 28 view .LVU583
 1834 045a 7364     		str	r3, [r6, #68]
 1835              		.loc 1 1621 5 is_stmt 1 view .LVU584
 1836              		.loc 1 1621 9 is_stmt 0 view .LVU585
 1837 045c FFF7FEFF 		bl	USB_ReadChInterrupts
 1838              	.LVL148:
 1839              		.loc 1 1624 7 view .LVU586
 1840 0460 07F5A063 		add	r3, r7, #1280
 1841              		.loc 1 1621 8 view .LVU587
 1842 0464 10F0400F 		tst	r0, #64
 1843 0468 0099     		ldr	r1, [sp]
 1844              		.loc 1 1624 7 view .LVU588
 1845 046a 4B44     		add	r3, r3, r9
 1846              		.loc 1 1621 8 view .LVU589
 1847 046c 03D0     		beq	.L167
 1848              		.loc 1 1623 7 is_stmt 1 view .LVU590
 1849              		.loc 1 1623 31 is_stmt 0 view .LVU591
 1850 046e 0122     		movs	r2, #1
 1851 0470 7276     		strb	r2, [r6, #25]
 1852              		.loc 1 1624 7 is_stmt 1 view .LVU592
 1853 0472 4022     		movs	r2, #64
 1854 0474 9A60     		str	r2, [r3, #8]
 1855              	.L167:
 1856              		.loc 1 1627 5 view .LVU593
 1857              		.loc 1 1627 8 is_stmt 0 view .LVU594
 1858 0476 F27E     		ldrb	r2, [r6, #27]	@ zero_extendqisi2
 1859 0478 32B1     		cbz	r2, .L168
 1860              		.loc 1 1629 7 is_stmt 1 view .LVU595
 1861              		.loc 1 1629 33 is_stmt 0 view .LVU596
 1862 047a 4FF00002 		mov	r2, #0
 1863 047e F276     		strb	r2, [r6, #27]
 1864              		.loc 1 1630 7 is_stmt 1 view .LVU597
 1865 0480 5A68     		ldr	r2, [r3, #4]
 1866 0482 22F48032 		bic	r2, r2, #65536
 1867 0486 5A60     		str	r2, [r3, #4]
 1868              	.L168:
 1869              		.loc 1 1633 5 view .LVU598
 1870 0488 0122     		movs	r2, #1
 1871 048a 9A60     		str	r2, [r3, #8]
 1872              		.loc 1 1634 5 view .LVU599
 1873              		.loc 1 1634 27 is_stmt 0 view .LVU600
 1874 048c 86F84D20 		strb	r2, [r6, #77]
 1875              		.loc 1 1635 5 is_stmt 1 view .LVU601
 1876              		.loc 1 1635 11 is_stmt 0 view .LVU602
 1877 0490 2068     		ldr	r0, [r4]
 1878 0492 FFF7FEFF 		bl	USB_HC_Halt
 1879              	.LVL149:
 1880 0496 62E6     		b	.L119
 1881              	.LVL150:
ARM GAS  C:\Users\DEVELO~1\AppData\Local\Temp\ccbkr0PB.s 			page 34


 1882              	.L290:
 1883              		.loc 1 1635 11 view .LVU603
 1884              	.LBE26:
 1885              	.LBE69:
 1886              	.LBB70:
 1887              	.LBB44:
 1888              		.loc 1 1328 7 is_stmt 1 view .LVU604
 1889              		.loc 1 1328 30 is_stmt 0 view .LVU605
 1890 0498 50F80920 		ldr	r2, [r0, r9]
 1891 049c 42F00052 		orr	r2, r2, #536870912
 1892 04a0 40F80920 		str	r2, [r0, r9]
 1893              		.loc 1 1329 7 is_stmt 1 view .LVU606
 1894              		.loc 1 1334 7 is_stmt 0 view .LVU607
 1895 04a4 1A46     		mov	r2, r3
 1896 04a6 2046     		mov	r0, r4
 1897              	.LVL151:
 1898              		.loc 1 1329 33 view .LVU608
 1899 04a8 86F84C30 		strb	r3, [r6, #76]
 1900              		.loc 1 1334 7 is_stmt 1 view .LVU609
 1901 04ac FFF7FEFF 		bl	HAL_HCD_HC_NotifyURBChange_Callback
 1902              	.LVL152:
 1903              		.loc 1 1342 19 is_stmt 0 view .LVU610
 1904 04b0 A279     		ldrb	r2, [r4, #6]	@ zero_extendqisi2
 1905 04b2 EEE6     		b	.L131
 1906              	.L288:
 1907              		.loc 1 1342 19 view .LVU611
 1908              	.LBE44:
 1909              	.LBE70:
 1910              	.LBB71:
 1911              	.LBB27:
 1912              		.loc 1 1591 7 is_stmt 1 view .LVU612
 1913              		.loc 1 1591 31 is_stmt 0 view .LVU613
 1914 04b4 7376     		strb	r3, [r6, #25]
 1915              		.loc 1 1592 7 is_stmt 1 view .LVU614
 1916              		.loc 1 1592 33 is_stmt 0 view .LVU615
 1917 04b6 4FF00203 		mov	r3, #2
 1918 04ba 86F84C30 		strb	r3, [r6, #76]
 1919              		.loc 1 1593 7 is_stmt 1 view .LVU616
 1920              		.loc 1 1593 29 is_stmt 0 view .LVU617
 1921 04be 0323     		movs	r3, #3
 1922 04c0 86F84D30 		strb	r3, [r6, #77]
 1923              		.loc 1 1594 7 is_stmt 1 view .LVU618
 1924              		.loc 1 1594 13 is_stmt 0 view .LVU619
 1925 04c4 2068     		ldr	r0, [r4]
 1926 04c6 FFF7FEFF 		bl	USB_HC_Halt
 1927              	.LVL153:
 1928 04ca 0099     		ldr	r1, [sp]
 1929 04cc 9CE6     		b	.L162
 1930              	.LVL154:
 1931              	.L125:
 1932              		.loc 1 1594 13 view .LVU620
 1933              	.LBE27:
 1934              	.LBE71:
 1935              	.LBB72:
 1936              	.LBB45:
 1937              		.loc 1 1283 8 is_stmt 1 view .LVU621
 1938              		.loc 1 1283 12 is_stmt 0 view .LVU622
ARM GAS  C:\Users\DEVELO~1\AppData\Local\Temp\ccbkr0PB.s 			page 35


 1939 04ce 2068     		ldr	r0, [r4]
 1940 04d0 0091     		str	r1, [sp]
 1941 04d2 FFF7FEFF 		bl	USB_ReadChInterrupts
 1942              	.LVL155:
 1943              		.loc 1 1283 11 view .LVU623
 1944 04d6 10F0800F 		tst	r0, #128
 1945 04da 0099     		ldr	r1, [sp]
 1946 04dc 3FF42EAE 		beq	.L122
 1947              		.loc 1 1285 5 is_stmt 1 view .LVU624
 1948 04e0 07F5A063 		add	r3, r7, #1280
 1949 04e4 8022     		movs	r2, #128
 1950 04e6 4B44     		add	r3, r3, r9
 1951 04e8 9A60     		str	r2, [r3, #8]
 1952 04ea 20E6     		b	.L272
 1953              	.LVL156:
 1954              	.L293:
 1955              		.loc 1 1285 5 is_stmt 0 view .LVU625
 1956              	.LBE45:
 1957              	.LBE72:
 1958              	.LBB73:
 1959              	.LBB63:
 1960              		.loc 1 1916 9 is_stmt 1 view .LVU626
 1961              		.loc 1 1922 11 view .LVU627
 1962              		.loc 1 1916 20 is_stmt 0 view .LVU628
 1963 04ec 029B     		ldr	r3, [sp, #8]
 1964              		.loc 1 1922 17 view .LVU629
 1965 04ee 2068     		ldr	r0, [r4]
 1966              		.loc 1 1916 20 view .LVU630
 1967 04f0 03F4C023 		and	r3, r3, #393216
 1968              		.loc 1 1916 12 view .LVU631
 1969 04f4 B3F5802F 		cmp	r3, #262144
 1970              		.loc 1 1922 17 view .LVU632
 1971 04f8 18BF     		it	ne
 1972 04fa 0121     		movne	r1, #1
 1973 04fc FFF7FEFF 		bl	USB_InitFSLSPClkSel
 1974              	.LVL157:
 1975 0500 09E7     		b	.L111
 1976              	.LVL158:
 1977              	.L134:
 1978              		.loc 1 1922 17 view .LVU633
 1979              	.LBE63:
 1980              	.LBE73:
 1981              	.LBB74:
 1982              	.LBB46:
 1983              		.loc 1 1366 8 is_stmt 1 view .LVU634
 1984              		.loc 1 1366 12 is_stmt 0 view .LVU635
 1985 0502 2068     		ldr	r0, [r4]
 1986 0504 0091     		str	r1, [sp]
 1987 0506 FFF7FEFF 		bl	USB_ReadChInterrupts
 1988              	.LVL159:
 1989              		.loc 1 1366 11 view .LVU636
 1990 050a 10F0020F 		tst	r0, #2
 1991 050e 0099     		ldr	r1, [sp]
 1992 0510 00F0CD80 		beq	.L135
 1993              		.loc 1 1368 5 is_stmt 1 view .LVU637
 1994 0514 07F5A067 		add	r7, r7, #1280
 1995              	.LVL160:
ARM GAS  C:\Users\DEVELO~1\AppData\Local\Temp\ccbkr0PB.s 			page 36


 1996              		.loc 1 1368 5 is_stmt 0 view .LVU638
 1997 0518 0223     		movs	r3, #2
 1998 051a 07EB0902 		add	r2, r7, r9
 1999 051e 9360     		str	r3, [r2, #8]
 2000              		.loc 1 1370 5 is_stmt 1 view .LVU639
 2001              		.loc 1 1370 24 is_stmt 0 view .LVU640
 2002 0520 96F84D30 		ldrb	r3, [r6, #77]	@ zero_extendqisi2
 2003              		.loc 1 1370 8 view .LVU641
 2004 0524 012B     		cmp	r3, #1
 2005 0526 00F0EA80 		beq	.L295
 2006              		.loc 1 1375 10 is_stmt 1 view .LVU642
 2007 052a 023B     		subs	r3, r3, #2
 2008 052c 072B     		cmp	r3, #7
 2009 052e 25D8     		bhi	.L181
 2010 0530 01A0     		adr	r0, .L139
 2011 0532 50F823F0 		ldr	pc, [r0, r3, lsl #2]
 2012 0536 00BF     		.p2align 2
 2013              	.L139:
 2014 0538 5F010000 		.word	.L119+1
 2015 053c E9050000 		.word	.L144+1
 2016 0540 D1050000 		.word	.L143+1
 2017 0544 99050000 		.word	.L142+1
 2018 0548 89050000 		.word	.L186+1
 2019 054c 59050000 		.word	.L138+1
 2020 0550 23060000 		.word	.L140+1
 2021 0554 59050000 		.word	.L138+1
 2022              		.p2align 1
 2023              	.L138:
 2024              		.loc 1 1383 7 view .LVU643
 2025              		.loc 1 1383 29 is_stmt 0 view .LVU644
 2026 0558 4FF00203 		mov	r3, #2
 2027 055c 86F84D30 		strb	r3, [r6, #77]
 2028              		.loc 1 1384 7 is_stmt 1 view .LVU645
 2029              		.loc 1 1384 29 is_stmt 0 view .LVU646
 2030 0560 736C     		ldr	r3, [r6, #68]
 2031 0562 0133     		adds	r3, r3, #1
 2032              		.loc 1 1385 10 view .LVU647
 2033 0564 022B     		cmp	r3, #2
 2034              		.loc 1 1384 29 view .LVU648
 2035 0566 7364     		str	r3, [r6, #68]
 2036              		.loc 1 1385 7 is_stmt 1 view .LVU649
 2037              		.loc 1 1385 10 is_stmt 0 view .LVU650
 2038 0568 40F24F81 		bls	.L146
 2039              		.loc 1 1387 9 is_stmt 1 view .LVU651
 2040              		.loc 1 1387 32 is_stmt 0 view .LVU652
 2041 056c 0023     		movs	r3, #0
 2042 056e 7364     		str	r3, [r6, #68]
 2043              		.loc 1 1389 9 is_stmt 1 view .LVU653
 2044              		.loc 1 1389 12 is_stmt 0 view .LVU654
 2045 0570 B37E     		ldrb	r3, [r6, #26]	@ zero_extendqisi2
 2046 0572 012B     		cmp	r3, #1
 2047 0574 00F07981 		beq	.L296
 2048              	.LVL161:
 2049              	.L281:
 2050              		.loc 1 1389 12 view .LVU655
 2051              	.LBE46:
 2052              	.LBE74:
ARM GAS  C:\Users\DEVELO~1\AppData\Local\Temp\ccbkr0PB.s 			page 37


 2053              	.LBB75:
 2054              	.LBB28:
 2055              		.loc 1 1778 9 is_stmt 1 view .LVU656
 2056              		.loc 1 1778 35 is_stmt 0 view .LVU657
 2057 0578 86F84CA0 		strb	r10, [r6, #76]
 2058              	.L181:
 2059              		.loc 1 1799 5 is_stmt 1 view .LVU658
 2060 057c 96F84C20 		ldrb	r2, [r6, #76]	@ zero_extendqisi2
 2061 0580 2046     		mov	r0, r4
 2062 0582 FFF7FEFF 		bl	HAL_HCD_HC_NotifyURBChange_Callback
 2063              	.LVL162:
 2064 0586 EAE5     		b	.L119
 2065              	.L186:
 2066              		.loc 1 1767 7 view .LVU659
 2067              		.loc 1 1767 29 is_stmt 0 view .LVU660
 2068 0588 4FF00203 		mov	r3, #2
 2069 058c 86F84D30 		strb	r3, [r6, #77]
 2070              		.loc 1 1768 7 is_stmt 1 view .LVU661
 2071              		.loc 1 1768 34 is_stmt 0 view .LVU662
 2072 0590 0523     		movs	r3, #5
 2073 0592 86F84C30 		strb	r3, [r6, #76]
 2074 0596 F1E7     		b	.L181
 2075              	.LVL163:
 2076              	.L142:
 2077              		.loc 1 1768 34 view .LVU663
 2078              	.LBE28:
 2079              	.LBE75:
 2080              	.LBB76:
 2081              	.LBB47:
 2082              		.loc 1 1415 7 is_stmt 1 view .LVU664
 2083              		.loc 1 1417 10 is_stmt 0 view .LVU665
 2084 0598 F07E     		ldrb	r0, [r6, #27]	@ zero_extendqisi2
 2085              		.loc 1 1415 29 view .LVU666
 2086 059a 4FF00203 		mov	r3, #2
 2087              		.loc 1 1417 10 view .LVU667
 2088 059e 0128     		cmp	r0, #1
 2089              		.loc 1 1415 29 view .LVU668
 2090 05a0 86F84D30 		strb	r3, [r6, #77]
 2091              		.loc 1 1417 7 is_stmt 1 view .LVU669
 2092              		.loc 1 1417 10 is_stmt 0 view .LVU670
 2093 05a4 EAD1     		bne	.L181
 2094              		.loc 1 1419 9 is_stmt 1 view .LVU671
 2095              		.loc 1 1419 28 is_stmt 0 view .LVU672
 2096 05a6 96F82630 		ldrb	r3, [r6, #38]	@ zero_extendqisi2
 2097              		.loc 1 1419 12 view .LVU673
 2098 05aa 032B     		cmp	r3, #3
 2099 05ac 00F03881 		beq	.L297
 2100              		.loc 1 1441 11 is_stmt 1 view .LVU674
 2101              		.loc 1 1441 37 is_stmt 0 view .LVU675
 2102 05b0 4FF00202 		mov	r2, #2
 2103              		.loc 1 1444 12 view .LVU676
 2104 05b4 13F0FD0F 		tst	r3, #253
 2105              		.loc 1 1441 37 view .LVU677
 2106 05b8 86F84C20 		strb	r2, [r6, #76]
 2107              		.loc 1 1444 9 is_stmt 1 view .LVU678
 2108              		.loc 1 1444 12 is_stmt 0 view .LVU679
 2109 05bc DED1     		bne	.L181
ARM GAS  C:\Users\DEVELO~1\AppData\Local\Temp\ccbkr0PB.s 			page 38


 2110              	.LVL164:
 2111              	.L280:
 2112              		.loc 1 1444 12 view .LVU680
 2113              	.LBE47:
 2114              	.LBE76:
 2115              	.LBB77:
 2116              	.LBB29:
 2117              		.loc 1 1785 9 is_stmt 1 view .LVU681
 2118              		.loc 1 1785 16 is_stmt 0 view .LVU682
 2119 05be 57F80930 		ldr	r3, [r7, r9]
 2120              	.LVL165:
 2121              		.loc 1 1786 9 is_stmt 1 view .LVU683
 2122              		.loc 1 1786 16 is_stmt 0 view .LVU684
 2123 05c2 23F08043 		bic	r3, r3, #1073741824
 2124              	.LVL166:
 2125              		.loc 1 1787 9 is_stmt 1 view .LVU685
 2126              		.loc 1 1787 16 is_stmt 0 view .LVU686
 2127 05c6 43F00043 		orr	r3, r3, #-2147483648
 2128              	.LVL167:
 2129              		.loc 1 1788 9 is_stmt 1 view .LVU687
 2130              		.loc 1 1788 32 is_stmt 0 view .LVU688
 2131 05ca 47F80930 		str	r3, [r7, r9]
 2132 05ce D5E7     		b	.L181
 2133              	.LVL168:
 2134              	.L143:
 2135              		.loc 1 1788 32 view .LVU689
 2136              	.LBE29:
 2137              	.LBE77:
 2138              	.LBB78:
 2139              	.LBB48:
 2140              		.loc 1 1481 7 is_stmt 1 view .LVU690
 2141              		.loc 1 1481 29 is_stmt 0 view .LVU691
 2142 05d0 4FF00203 		mov	r3, #2
 2143 05d4 86F84D30 		strb	r3, [r6, #77]
 2144              		.loc 1 1482 7 is_stmt 1 view .LVU692
 2145              		.loc 1 1482 33 is_stmt 0 view .LVU693
 2146 05d8 86F84C30 		strb	r3, [r6, #76]
 2147              		.loc 1 1484 7 is_stmt 1 view .LVU694
 2148              		.loc 1 1484 53 is_stmt 0 view .LVU695
 2149 05dc 96F82630 		ldrb	r3, [r6, #38]	@ zero_extendqisi2
 2150              		.loc 1 1484 10 view .LVU696
 2151 05e0 13F0FD0F 		tst	r3, #253
 2152 05e4 CAD1     		bne	.L181
 2153 05e6 EAE7     		b	.L280
 2154              	.L144:
 2155              		.loc 1 1457 7 is_stmt 1 view .LVU697
 2156              		.loc 1 1457 29 is_stmt 0 view .LVU698
 2157 05e8 4FF00203 		mov	r3, #2
 2158 05ec 86F84D30 		strb	r3, [r6, #77]
 2159              		.loc 1 1459 7 is_stmt 1 view .LVU699
 2160              		.loc 1 1459 10 is_stmt 0 view .LVU700
 2161 05f0 F37E     		ldrb	r3, [r6, #27]	@ zero_extendqisi2
 2162 05f2 012B     		cmp	r3, #1
 2163 05f4 C2D1     		bne	.L181
 2164              		.loc 1 1461 9 is_stmt 1 view .LVU701
 2165              		.loc 1 1461 35 is_stmt 0 view .LVU702
 2166 05f6 4FF00203 		mov	r3, #2
ARM GAS  C:\Users\DEVELO~1\AppData\Local\Temp\ccbkr0PB.s 			page 39


 2167 05fa 86F84C30 		strb	r3, [r6, #76]
 2168              		.loc 1 1464 9 is_stmt 1 view .LVU703
 2169              		.loc 1 1464 32 is_stmt 0 view .LVU704
 2170 05fe 5368     		ldr	r3, [r2, #4]
 2171 0600 43F48033 		orr	r3, r3, #65536
 2172 0604 5360     		str	r3, [r2, #4]
 2173              		.loc 1 1465 9 is_stmt 1 view .LVU705
 2174              		.loc 1 1465 34 is_stmt 0 view .LVU706
 2175 0606 D368     		ldr	r3, [r2, #12]
 2176 0608 43F04003 		orr	r3, r3, #64
 2177 060c D360     		str	r3, [r2, #12]
 2178              		.loc 1 1466 9 is_stmt 1 view .LVU707
 2179              		.loc 1 1466 34 is_stmt 0 view .LVU708
 2180 060e D368     		ldr	r3, [r2, #12]
 2181 0610 23F02003 		bic	r3, r3, #32
 2182 0614 D360     		str	r3, [r2, #12]
 2183              		.loc 1 1468 9 is_stmt 1 view .LVU709
 2184              		.loc 1 1468 55 is_stmt 0 view .LVU710
 2185 0616 96F82630 		ldrb	r3, [r6, #38]	@ zero_extendqisi2
 2186              		.loc 1 1468 12 view .LVU711
 2187 061a 13F0FD0F 		tst	r3, #253
 2188 061e ADD1     		bne	.L181
 2189 0620 CDE7     		b	.L280
 2190              	.L140:
 2191              		.loc 1 1496 7 is_stmt 1 view .LVU712
 2192              		.loc 1 1496 29 is_stmt 0 view .LVU713
 2193 0622 4FF00203 		mov	r3, #2
 2194              		.loc 1 1498 33 view .LVU714
 2195 0626 86F84CA0 		strb	r10, [r6, #76]
 2196              		.loc 1 1496 29 view .LVU715
 2197 062a 86F84D30 		strb	r3, [r6, #77]
 2198              		.loc 1 1497 7 is_stmt 1 view .LVU716
 2199              		.loc 1 1497 29 is_stmt 0 view .LVU717
 2200 062e 736C     		ldr	r3, [r6, #68]
 2201 0630 0133     		adds	r3, r3, #1
 2202 0632 7364     		str	r3, [r6, #68]
 2203              		.loc 1 1498 7 is_stmt 1 view .LVU718
 2204 0634 A2E7     		b	.L181
 2205              	.LVL169:
 2206              	.L286:
 2207              		.loc 1 1498 7 is_stmt 0 view .LVU719
 2208              	.LBE48:
 2209              	.LBE78:
 2210              		.loc 1 576 11 is_stmt 1 view .LVU720
 2211              		.loc 1 576 17 is_stmt 0 view .LVU721
 2212 0636 0121     		movs	r1, #1
 2213 0638 2068     		ldr	r0, [r4]
 2214 063a FFF7FEFF 		bl	USB_InitFSLSPClkSel
 2215              	.LVL170:
 2216 063e 57E5     		b	.L103
 2217              	.LVL171:
 2218              	.L165:
 2219              	.LBB79:
 2220              	.LBB30:
 2221              		.loc 1 1637 8 is_stmt 1 view .LVU722
 2222              		.loc 1 1637 12 is_stmt 0 view .LVU723
 2223 0640 2068     		ldr	r0, [r4]
ARM GAS  C:\Users\DEVELO~1\AppData\Local\Temp\ccbkr0PB.s 			page 40


 2224 0642 0091     		str	r1, [sp]
 2225 0644 FFF7FEFF 		bl	USB_ReadChInterrupts
 2226              	.LVL172:
 2227              		.loc 1 1637 11 view .LVU724
 2228 0648 10F0400F 		tst	r0, #64
 2229 064c 0099     		ldr	r1, [sp]
 2230 064e 45D0     		beq	.L169
 2231              		.loc 1 1639 5 is_stmt 1 view .LVU725
 2232              		.loc 1 1639 27 is_stmt 0 view .LVU726
 2233 0650 0523     		movs	r3, #5
 2234 0652 86F84D30 		strb	r3, [r6, #77]
 2235              		.loc 1 1641 5 is_stmt 1 view .LVU727
 2236              		.loc 1 1641 8 is_stmt 0 view .LVU728
 2237 0656 B37E     		ldrb	r3, [r6, #26]	@ zero_extendqisi2
 2238 0658 0BB9     		cbnz	r3, .L170
 2239              		.loc 1 1643 7 is_stmt 1 view .LVU729
 2240              		.loc 1 1643 31 is_stmt 0 view .LVU730
 2241 065a 0123     		movs	r3, #1
 2242 065c 7376     		strb	r3, [r6, #25]
 2243              	.L170:
 2244              		.loc 1 1646 5 is_stmt 1 view .LVU731
 2245              		.loc 1 1646 28 is_stmt 0 view .LVU732
 2246 065e 0023     		movs	r3, #0
 2247              		.loc 1 1647 11 view .LVU733
 2248 0660 2068     		ldr	r0, [r4]
 2249              		.loc 1 1646 28 view .LVU734
 2250 0662 7364     		str	r3, [r6, #68]
 2251              		.loc 1 1647 5 is_stmt 1 view .LVU735
 2252              		.loc 1 1647 11 is_stmt 0 view .LVU736
 2253 0664 FFF7FEFF 		bl	USB_HC_Halt
 2254              	.LVL173:
 2255              		.loc 1 1648 5 is_stmt 1 view .LVU737
 2256 0668 07F5A063 		add	r3, r7, #1280
 2257 066c 4022     		movs	r2, #64
 2258 066e 4B44     		add	r3, r3, r9
 2259 0670 9A60     		str	r2, [r3, #8]
 2260 0672 74E5     		b	.L119
 2261              	.LVL174:
 2262              	.L294:
 2263              		.loc 1 1648 5 is_stmt 0 view .LVU738
 2264              	.LBE30:
 2265              	.LBE79:
 2266              	.LBB80:
 2267              	.LBB19:
 2268              		.loc 1 1837 11 is_stmt 1 view .LVU739
 2269              		.loc 1 1837 17 is_stmt 0 view .LVU740
 2270 0674 3A46     		mov	r2, r7
 2271 0676 2846     		mov	r0, r5
 2272 0678 FFF7FEFF 		bl	USB_ReadPacket
 2273              	.LVL175:
 2274              		.loc 1 1841 11 is_stmt 1 view .LVU741
 2275              		.loc 1 1841 37 is_stmt 0 view .LVU742
 2276 067c D8F82C30 		ldr	r3, [r8, #44]
 2277              		.loc 1 1845 29 view .LVU743
 2278 0680 05F5A065 		add	r5, r5, #1280
 2279              	.LVL176:
 2280              		.loc 1 1842 38 view .LVU744
ARM GAS  C:\Users\DEVELO~1\AppData\Local\Temp\ccbkr0PB.s 			page 41


 2281 0684 D8F83820 		ldr	r2, [r8, #56]
 2282              		.loc 1 1841 37 view .LVU745
 2283 0688 3B44     		add	r3, r3, r7
 2284              		.loc 1 1842 38 view .LVU746
 2285 068a 3A44     		add	r2, r2, r7
 2286              		.loc 1 1841 37 view .LVU747
 2287 068c C8F82C30 		str	r3, [r8, #44]
 2288              		.loc 1 1842 11 is_stmt 1 view .LVU748
 2289              		.loc 1 1845 29 is_stmt 0 view .LVU749
 2290 0690 05EB4613 		add	r3, r5, r6, lsl #5
 2291              		.loc 1 1845 43 view .LVU750
 2292 0694 1B69     		ldr	r3, [r3, #16]
 2293              		.loc 1 1842 38 view .LVU751
 2294 0696 C8F83820 		str	r2, [r8, #56]
 2295              		.loc 1 1845 11 is_stmt 1 view .LVU752
 2296              	.LVL177:
 2297              		.loc 1 1847 11 view .LVU753
 2298              		.loc 1 1845 29 is_stmt 0 view .LVU754
 2299 069a 7201     		lsls	r2, r6, #5
 2300              		.loc 1 1845 26 view .LVU755
 2301 069c C3F3C943 		ubfx	r3, r3, #19, #10
 2302              	.LVL178:
 2303              		.loc 1 1847 54 view .LVU756
 2304 06a0 1BB1     		cbz	r3, .L278
 2305              		.loc 1 1847 31 view .LVU757
 2306 06a2 B8F82830 		ldrh	r3, [r8, #40]
 2307              		.loc 1 1847 54 view .LVU758
 2308 06a6 BB42     		cmp	r3, r7
 2309 06a8 65D0     		beq	.L195
 2310              	.L278:
 2311              		.loc 1 1847 54 view .LVU759
 2312              	.LBE19:
 2313              	.LBE80:
 2314              		.loc 1 634 7 view .LVU760
 2315 06aa 2568     		ldr	r5, [r4]
 2316              	.LVL179:
 2317              		.loc 1 634 7 view .LVU761
 2318 06ac 09E5     		b	.L193
 2319              	.LVL180:
 2320              	.L135:
 2321              	.LBB81:
 2322              	.LBB49:
 2323              		.loc 1 1514 8 is_stmt 1 view .LVU762
 2324              		.loc 1 1514 12 is_stmt 0 view .LVU763
 2325 06ae 2068     		ldr	r0, [r4]
 2326 06b0 0091     		str	r1, [sp]
 2327 06b2 FFF7FEFF 		bl	USB_ReadChInterrupts
 2328              	.LVL181:
 2329              		.loc 1 1514 11 view .LVU764
 2330 06b6 10F04003 		ands	r3, r0, #64
 2331 06ba 0099     		ldr	r1, [sp]
 2332 06bc 26D0     		beq	.L153
 2333              		.loc 1 1516 5 is_stmt 1 view .LVU765
 2334 06be 07F5A063 		add	r3, r7, #1280
 2335 06c2 4022     		movs	r2, #64
 2336 06c4 4B44     		add	r3, r3, r9
 2337 06c6 9A60     		str	r2, [r3, #8]
ARM GAS  C:\Users\DEVELO~1\AppData\Local\Temp\ccbkr0PB.s 			page 42


 2338              		.loc 1 1517 5 view .LVU766
 2339              		.loc 1 1517 27 is_stmt 0 view .LVU767
 2340 06c8 0523     		movs	r3, #5
 2341 06ca 86F84D30 		strb	r3, [r6, #77]
 2342              		.loc 1 1519 5 is_stmt 1 view .LVU768
 2343              		.loc 1 1519 8 is_stmt 0 view .LVU769
 2344 06ce B37E     		ldrb	r3, [r6, #26]	@ zero_extendqisi2
 2345 06d0 03B9     		cbnz	r3, .L277
 2346              		.loc 1 1521 7 is_stmt 1 view .LVU770
 2347              		.loc 1 1521 30 is_stmt 0 view .LVU771
 2348 06d2 7364     		str	r3, [r6, #68]
 2349              		.loc 1 1524 5 is_stmt 1 view .LVU772
 2350              	.L277:
 2351              		.loc 1 1524 5 is_stmt 0 view .LVU773
 2352              	.LBE49:
 2353              	.LBE81:
 2354              	.LBB82:
 2355              	.LBB31:
 2356              		.loc 1 1654 5 is_stmt 1 view .LVU774
 2357              		.loc 1 1654 11 is_stmt 0 view .LVU775
 2358 06d4 2068     		ldr	r0, [r4]
 2359 06d6 FFF7FEFF 		bl	USB_HC_Halt
 2360              	.LVL182:
 2361 06da 40E5     		b	.L119
 2362              	.L169:
 2363              		.loc 1 1650 8 is_stmt 1 view .LVU776
 2364              		.loc 1 1650 12 is_stmt 0 view .LVU777
 2365 06dc 2068     		ldr	r0, [r4]
 2366 06de 0091     		str	r1, [sp]
 2367 06e0 FFF7FEFF 		bl	USB_ReadChInterrupts
 2368              	.LVL183:
 2369              		.loc 1 1650 11 view .LVU778
 2370 06e4 10F00803 		ands	r3, r0, #8
 2371 06e8 0099     		ldr	r1, [sp]
 2372 06ea 2DD0     		beq	.L171
 2373              		.loc 1 1652 5 is_stmt 1 view .LVU779
 2374 06ec 07F5A063 		add	r3, r7, #1280
 2375 06f0 0822     		movs	r2, #8
 2376 06f2 4B44     		add	r3, r3, r9
 2377 06f4 9A60     		str	r2, [r3, #8]
 2378              		.loc 1 1653 5 view .LVU780
 2379              		.loc 1 1653 27 is_stmt 0 view .LVU781
 2380 06f6 0623     		movs	r3, #6
 2381 06f8 86F84D30 		strb	r3, [r6, #77]
 2382 06fc EAE7     		b	.L277
 2383              	.LVL184:
 2384              	.L295:
 2385              		.loc 1 1653 27 view .LVU782
 2386              	.LBE31:
 2387              	.LBE82:
 2388              	.LBB83:
 2389              	.LBB50:
 2390              		.loc 1 1372 7 is_stmt 1 view .LVU783
 2391              		.loc 1 1373 33 is_stmt 0 view .LVU784
 2392 06fe 86F84C30 		strb	r3, [r6, #76]
 2393              		.loc 1 1372 29 view .LVU785
 2394 0702 4FF00203 		mov	r3, #2
ARM GAS  C:\Users\DEVELO~1\AppData\Local\Temp\ccbkr0PB.s 			page 43


 2395 0706 86F84D30 		strb	r3, [r6, #77]
 2396              		.loc 1 1373 7 is_stmt 1 view .LVU786
 2397 070a 37E7     		b	.L181
 2398              	.LVL185:
 2399              	.L153:
 2400              		.loc 1 1526 12 is_stmt 0 view .LVU787
 2401 070c 2068     		ldr	r0, [r4]
 2402 070e CDE90013 		strd	r1, r3, [sp]
 2403 0712 FFF7FEFF 		bl	USB_ReadChInterrupts
 2404              	.LVL186:
 2405              		.loc 1 1526 11 view .LVU788
 2406 0716 C006     		lsls	r0, r0, #27
 2407 0718 7FF521AD 		bpl	.L119
 2408              		.loc 1 1528 5 is_stmt 1 view .LVU789
 2409              		.loc 1 1528 24 is_stmt 0 view .LVU790
 2410 071c 96F82620 		ldrb	r2, [r6, #38]	@ zero_extendqisi2
 2411              		.loc 1 1528 8 view .LVU791
 2412 0720 032A     		cmp	r2, #3
 2413 0722 DDE90013 		ldrd	r1, r3, [sp]
 2414 0726 00F09980 		beq	.L298
 2415              		.loc 1 1534 10 is_stmt 1 view .LVU792
 2416              		.loc 1 1534 13 is_stmt 0 view .LVU793
 2417 072a 12F0FD02 		ands	r2, r2, #253
 2418 072e 37D1     		bne	.L156
 2419              		.loc 1 1537 7 is_stmt 1 view .LVU794
 2420              		.loc 1 1537 30 is_stmt 0 view .LVU795
 2421 0730 7264     		str	r2, [r6, #68]
 2422              		.loc 1 1539 7 is_stmt 1 view .LVU796
 2423              		.loc 1 1539 10 is_stmt 0 view .LVU797
 2424 0732 A379     		ldrb	r3, [r4, #6]	@ zero_extendqisi2
 2425 0734 7BB3     		cbz	r3, .L157
 2426              		.loc 1 1539 41 view .LVU798
 2427 0736 F37E     		ldrb	r3, [r6, #27]	@ zero_extendqisi2
 2428 0738 012B     		cmp	r3, #1
 2429 073a 2CD0     		beq	.L157
 2430              	.L279:
 2431              		.loc 1 1539 41 view .LVU799
 2432              	.LBE50:
 2433              	.LBE83:
 2434              	.LBB84:
 2435              	.LBB32:
 2436              		.loc 1 1670 5 is_stmt 1 view .LVU800
 2437 073c 07F5A063 		add	r3, r7, #1280
 2438              	.L276:
 2439              		.loc 1 1670 5 is_stmt 0 view .LVU801
 2440 0740 4B44     		add	r3, r3, r9
 2441 0742 1022     		movs	r2, #16
 2442 0744 9A60     		str	r2, [r3, #8]
 2443 0746 0AE5     		b	.L119
 2444              	.L171:
 2445              		.loc 1 1656 12 view .LVU802
 2446 0748 2068     		ldr	r0, [r4]
 2447 074a CDE90013 		strd	r1, r3, [sp]
 2448 074e FFF7FEFF 		bl	USB_ReadChInterrupts
 2449              	.LVL187:
 2450              		.loc 1 1656 11 view .LVU803
 2451 0752 10F0100F 		tst	r0, #16
ARM GAS  C:\Users\DEVELO~1\AppData\Local\Temp\ccbkr0PB.s 			page 44


 2452 0756 0099     		ldr	r1, [sp]
 2453 0758 35D0     		beq	.L172
 2454              		.loc 1 1658 5 is_stmt 1 view .LVU804
 2455              		.loc 1 1658 28 is_stmt 0 view .LVU805
 2456 075a 019B     		ldr	r3, [sp, #4]
 2457              		.loc 1 1659 27 view .LVU806
 2458 075c 86F84DA0 		strb	r10, [r6, #77]
 2459              		.loc 1 1658 28 view .LVU807
 2460 0760 7364     		str	r3, [r6, #68]
 2461              		.loc 1 1659 5 is_stmt 1 view .LVU808
 2462              		.loc 1 1661 5 view .LVU809
 2463              		.loc 1 1661 8 is_stmt 0 view .LVU810
 2464 0762 737E     		ldrb	r3, [r6, #25]	@ zero_extendqisi2
 2465 0764 1BB9     		cbnz	r3, .L173
 2466              		.loc 1 1663 7 is_stmt 1 view .LVU811
 2467              		.loc 1 1663 10 is_stmt 0 view .LVU812
 2468 0766 337E     		ldrb	r3, [r6, #24]	@ zero_extendqisi2
 2469 0768 0BB9     		cbnz	r3, .L173
 2470              		.loc 1 1665 9 is_stmt 1 view .LVU813
 2471              		.loc 1 1665 33 is_stmt 0 view .LVU814
 2472 076a 0123     		movs	r3, #1
 2473 076c 7376     		strb	r3, [r6, #25]
 2474              	.L173:
 2475              		.loc 1 1669 5 is_stmt 1 view .LVU815
 2476              		.loc 1 1669 11 is_stmt 0 view .LVU816
 2477 076e 2068     		ldr	r0, [r4]
 2478 0770 FFF7FEFF 		bl	USB_HC_Halt
 2479              	.LVL188:
 2480 0774 E2E7     		b	.L279
 2481              	.LVL189:
 2482              	.L195:
 2483              		.loc 1 1669 11 view .LVU817
 2484              	.LBE32:
 2485              	.LBE84:
 2486              	.LBB85:
 2487              	.LBB20:
 2488              		.loc 1 1850 13 is_stmt 1 view .LVU818
 2489              		.loc 1 1850 20 is_stmt 0 view .LVU819
 2490 0776 AB58     		ldr	r3, [r5, r2]
 2491              	.LVL190:
 2492              		.loc 1 1851 13 is_stmt 1 view .LVU820
 2493              		.loc 1 1851 20 is_stmt 0 view .LVU821
 2494 0778 23F08043 		bic	r3, r3, #1073741824
 2495              	.LVL191:
 2496              		.loc 1 1852 13 is_stmt 1 view .LVU822
 2497              		.loc 1 1852 20 is_stmt 0 view .LVU823
 2498 077c 43F00043 		orr	r3, r3, #-2147483648
 2499              	.LVL192:
 2500              		.loc 1 1853 13 is_stmt 1 view .LVU824
 2501              		.loc 1 1853 36 is_stmt 0 view .LVU825
 2502 0780 AB50     		str	r3, [r5, r2]
 2503              		.loc 1 1854 13 is_stmt 1 view .LVU826
 2504              		.loc 1 1854 39 is_stmt 0 view .LVU827
 2505 0782 3C23     		movs	r3, #60
 2506              	.LVL193:
 2507              		.loc 1 1854 39 view .LVU828
 2508 0784 03FB0643 		mla	r3, r3, r6, r4
ARM GAS  C:\Users\DEVELO~1\AppData\Local\Temp\ccbkr0PB.s 			page 45


 2509 0788 93F83C20 		ldrb	r2, [r3, #60]	@ zero_extendqisi2
 2510              	.LVL194:
 2511              		.loc 1 1854 39 view .LVU829
 2512 078c 82F00102 		eor	r2, r2, #1
 2513 0790 83F83C20 		strb	r2, [r3, #60]
 2514              	.LVL195:
 2515              		.loc 1 1854 39 view .LVU830
 2516 0794 89E7     		b	.L278
 2517              	.LVL196:
 2518              	.L157:
 2519              		.loc 1 1854 39 view .LVU831
 2520              	.LBE20:
 2521              	.LBE85:
 2522              	.LBB86:
 2523              	.LBB51:
 2524              		.loc 1 1541 9 is_stmt 1 view .LVU832
 2525              		.loc 1 1541 31 is_stmt 0 view .LVU833
 2526 0796 86F84DA0 		strb	r10, [r6, #77]
 2527              		.loc 1 1542 9 is_stmt 1 view .LVU834
 2528              		.loc 1 1542 15 is_stmt 0 view .LVU835
 2529 079a 2068     		ldr	r0, [r4]
 2530 079c FFF7FEFF 		bl	USB_HC_Halt
 2531              	.LVL197:
 2532              	.L156:
 2533              		.loc 1 1548 5 is_stmt 1 view .LVU836
 2534              		.loc 1 1550 5 view .LVU837
 2535              		.loc 1 1550 8 is_stmt 0 view .LVU838
 2536 07a0 F37E     		ldrb	r3, [r6, #27]	@ zero_extendqisi2
 2537 07a2 012B     		cmp	r3, #1
 2538              		.loc 1 1553 7 view .LVU839
 2539 07a4 07F5A063 		add	r3, r7, #1280
 2540              		.loc 1 1550 8 view .LVU840
 2541 07a8 CAD1     		bne	.L276
 2542              		.loc 1 1552 7 is_stmt 1 view .LVU841
 2543              		.loc 1 1552 33 is_stmt 0 view .LVU842
 2544 07aa 4FF00002 		mov	r2, #0
 2545 07ae F276     		strb	r2, [r6, #27]
 2546              		.loc 1 1553 7 is_stmt 1 view .LVU843
 2547 07b0 03EB0902 		add	r2, r3, r9
 2548 07b4 5168     		ldr	r1, [r2, #4]
 2549 07b6 21F48031 		bic	r1, r1, #65536
 2550 07ba 5160     		str	r1, [r2, #4]
 2551              		.loc 1 1554 7 view .LVU844
 2552 07bc D168     		ldr	r1, [r2, #12]
 2553 07be 41F02001 		orr	r1, r1, #32
 2554 07c2 D160     		str	r1, [r2, #12]
 2555              		.loc 1 1557 5 view .LVU845
 2556 07c4 BCE7     		b	.L276
 2557              	.L172:
 2558              		.loc 1 1557 5 is_stmt 0 view .LVU846
 2559              	.LBE51:
 2560              	.LBE86:
 2561              	.LBB87:
 2562              	.LBB33:
 2563              		.loc 1 1672 8 is_stmt 1 view .LVU847
 2564              		.loc 1 1672 12 is_stmt 0 view .LVU848
 2565 07c6 2068     		ldr	r0, [r4]
ARM GAS  C:\Users\DEVELO~1\AppData\Local\Temp\ccbkr0PB.s 			page 46


 2566 07c8 0091     		str	r1, [sp]
 2567 07ca FFF7FEFF 		bl	USB_ReadChInterrupts
 2568              	.LVL198:
 2569              		.loc 1 1672 11 view .LVU849
 2570 07ce 10F0800F 		tst	r0, #128
 2571 07d2 0099     		ldr	r1, [sp]
 2572 07d4 62D0     		beq	.L174
 2573              		.loc 1 1674 5 is_stmt 1 view .LVU850
 2574              		.loc 1 1674 8 is_stmt 0 view .LVU851
 2575 07d6 A379     		ldrb	r3, [r4, #6]	@ zero_extendqisi2
 2576 07d8 002B     		cmp	r3, #0
 2577 07da 56D0     		beq	.L299
 2578              		.loc 1 1681 7 is_stmt 1 view .LVU852
 2579              		.loc 1 1681 29 is_stmt 0 view .LVU853
 2580 07dc 736C     		ldr	r3, [r6, #68]
 2581 07de 0133     		adds	r3, r3, #1
 2582              		.loc 1 1682 10 view .LVU854
 2583 07e0 022B     		cmp	r3, #2
 2584              		.loc 1 1681 29 view .LVU855
 2585 07e2 7364     		str	r3, [r6, #68]
 2586              		.loc 1 1682 7 is_stmt 1 view .LVU856
 2587              		.loc 1 1682 10 is_stmt 0 view .LVU857
 2588 07e4 46D8     		bhi	.L300
 2589              		.loc 1 1695 9 is_stmt 1 view .LVU858
 2590              		.loc 1 1695 35 is_stmt 0 view .LVU859
 2591 07e6 4FF00203 		mov	r3, #2
 2592              		.loc 1 1698 18 view .LVU860
 2593 07ea 07F5A067 		add	r7, r7, #1280
 2594              	.LVL199:
 2595              		.loc 1 1695 35 view .LVU861
 2596 07ee 86F84C30 		strb	r3, [r6, #76]
 2597              		.loc 1 1698 9 is_stmt 1 view .LVU862
 2598              		.loc 1 1698 16 is_stmt 0 view .LVU863
 2599 07f2 57F80930 		ldr	r3, [r7, r9]
 2600              	.LVL200:
 2601              		.loc 1 1699 9 is_stmt 1 view .LVU864
 2602              		.loc 1 1699 16 is_stmt 0 view .LVU865
 2603 07f6 23F08043 		bic	r3, r3, #1073741824
 2604              	.LVL201:
 2605              		.loc 1 1700 9 is_stmt 1 view .LVU866
 2606              		.loc 1 1700 16 is_stmt 0 view .LVU867
 2607 07fa 43F00043 		orr	r3, r3, #-2147483648
 2608              	.LVL202:
 2609              		.loc 1 1701 9 is_stmt 1 view .LVU868
 2610              		.loc 1 1701 32 is_stmt 0 view .LVU869
 2611 07fe 47F80930 		str	r3, [r7, r9]
 2612              	.LVL203:
 2613              	.L176:
 2614              		.loc 1 1704 5 is_stmt 1 view .LVU870
 2615 0802 4F44     		add	r7, r7, r9
 2616 0804 8023     		movs	r3, #128
 2617 0806 BB60     		str	r3, [r7, #8]
 2618 0808 A9E4     		b	.L119
 2619              	.LVL204:
 2620              	.L146:
 2621              		.loc 1 1704 5 is_stmt 0 view .LVU871
 2622              	.LBE33:
ARM GAS  C:\Users\DEVELO~1\AppData\Local\Temp\ccbkr0PB.s 			page 47


 2623              	.LBE87:
 2624              	.LBB88:
 2625              	.LBB52:
 2626              		.loc 1 1400 9 is_stmt 1 view .LVU872
 2627              		.loc 1 1400 35 is_stmt 0 view .LVU873
 2628 080a 4FF00203 		mov	r3, #2
 2629 080e 86F84C30 		strb	r3, [r6, #76]
 2630              		.loc 1 1402 9 is_stmt 1 view .LVU874
 2631              		.loc 1 1402 55 is_stmt 0 view .LVU875
 2632 0812 96F82630 		ldrb	r3, [r6, #38]	@ zero_extendqisi2
 2633              		.loc 1 1402 12 view .LVU876
 2634 0816 13F0FD0F 		tst	r3, #253
 2635 081a 7FF4AFAE 		bne	.L181
 2636 081e CEE6     		b	.L280
 2637              	.L297:
 2638              		.loc 1 1421 11 is_stmt 1 view .LVU877
 2639              		.loc 1 1421 37 is_stmt 0 view .LVU878
 2640 0820 B36C     		ldr	r3, [r6, #72]
 2641 0822 0133     		adds	r3, r3, #1
 2642              		.loc 1 1422 14 view .LVU879
 2643 0824 022B     		cmp	r3, #2
 2644              		.loc 1 1421 37 view .LVU880
 2645 0826 B364     		str	r3, [r6, #72]
 2646              		.loc 1 1422 11 is_stmt 1 view .LVU881
 2647              		.loc 1 1422 14 is_stmt 0 view .LVU882
 2648 0828 13D9     		bls	.L282
 2649              		.loc 1 1424 13 is_stmt 1 view .LVU883
 2650              		.loc 1 1424 40 is_stmt 0 view .LVU884
 2651 082a 0023     		movs	r3, #0
 2652 082c B364     		str	r3, [r6, #72]
 2653              		.loc 1 1425 13 is_stmt 1 view .LVU885
 2654              		.loc 1 1425 39 is_stmt 0 view .LVU886
 2655 082e F376     		strb	r3, [r6, #27]
 2656              		.loc 1 1427 13 is_stmt 1 view .LVU887
 2657              		.loc 1 1427 16 is_stmt 0 view .LVU888
 2658 0830 736C     		ldr	r3, [r6, #68]
 2659 0832 022B     		cmp	r3, #2
 2660 0834 00D8     		bhi	.L273
 2661              		.loc 1 1429 15 is_stmt 1 view .LVU889
 2662              		.loc 1 1429 46 is_stmt 0 view .LVU890
 2663 0836 3077     		strb	r0, [r6, #28]
 2664              		.loc 1 1431 13 is_stmt 1 view .LVU891
 2665              	.L273:
 2666              		.loc 1 1393 11 view .LVU892
 2667 0838 5368     		ldr	r3, [r2, #4]
 2668 083a 23F48033 		bic	r3, r3, #65536
 2669 083e 5360     		str	r3, [r2, #4]
 2670              		.loc 1 1396 9 view .LVU893
 2671 0840 9AE6     		b	.L281
 2672              	.L189:
 2673              		.loc 1 1396 9 is_stmt 0 view .LVU894
 2674              	.LBE52:
 2675              	.LBE88:
 2676              	.LBB89:
 2677              	.LBB34:
 2678              		.loc 1 1742 7 is_stmt 1 view .LVU895
 2679              		.loc 1 1742 29 is_stmt 0 view .LVU896
ARM GAS  C:\Users\DEVELO~1\AppData\Local\Temp\ccbkr0PB.s 			page 48


 2680 0842 4FF00203 		mov	r3, #2
 2681 0846 86F84D30 		strb	r3, [r6, #77]
 2682              		.loc 1 1744 7 is_stmt 1 view .LVU897
 2683              		.loc 1 1744 10 is_stmt 0 view .LVU898
 2684 084a F37E     		ldrb	r3, [r6, #27]	@ zero_extendqisi2
 2685 084c 012B     		cmp	r3, #1
 2686 084e 7FF495AE 		bne	.L181
 2687              	.LVL205:
 2688              	.L282:
 2689              		.loc 1 1746 9 is_stmt 1 view .LVU899
 2690              		.loc 1 1746 35 is_stmt 0 view .LVU900
 2691 0852 4FF00203 		mov	r3, #2
 2692 0856 86F84C30 		strb	r3, [r6, #76]
 2693 085a 8FE6     		b	.L181
 2694              	.LVL206:
 2695              	.L298:
 2696              		.loc 1 1746 35 view .LVU901
 2697              	.LBE34:
 2698              	.LBE89:
 2699              	.LBB90:
 2700              	.LBB53:
 2701              		.loc 1 1530 7 is_stmt 1 view .LVU902
 2702              		.loc 1 1531 29 is_stmt 0 view .LVU903
 2703 085c 86F84DA0 		strb	r10, [r6, #77]
 2704              		.loc 1 1530 30 view .LVU904
 2705 0860 7364     		str	r3, [r6, #68]
 2706              		.loc 1 1531 7 is_stmt 1 view .LVU905
 2707              		.loc 1 1532 7 view .LVU906
 2708              		.loc 1 1532 13 is_stmt 0 view .LVU907
 2709 0862 2068     		ldr	r0, [r4]
 2710 0864 FFF7FEFF 		bl	USB_HC_Halt
 2711              	.LVL207:
 2712 0868 9AE7     		b	.L156
 2713              	.LVL208:
 2714              	.L296:
 2715              		.loc 1 1391 11 is_stmt 1 view .LVU908
 2716              		.loc 1 1391 37 is_stmt 0 view .LVU909
 2717 086a 4FF00003 		mov	r3, #0
 2718 086e F376     		strb	r3, [r6, #27]
 2719              		.loc 1 1392 11 is_stmt 1 view .LVU910
 2720              		.loc 1 1392 42 is_stmt 0 view .LVU911
 2721 0870 3377     		strb	r3, [r6, #28]
 2722 0872 E1E7     		b	.L273
 2723              	.LVL209:
 2724              	.L300:
 2725              		.loc 1 1392 42 view .LVU912
 2726              	.LBE53:
 2727              	.LBE90:
 2728              	.LBB91:
 2729              	.LBB35:
 2730              		.loc 1 1684 9 is_stmt 1 view .LVU913
 2731              		.loc 1 1684 32 is_stmt 0 view .LVU914
 2732 0874 0023     		movs	r3, #0
 2733              		.loc 1 1690 9 view .LVU915
 2734 0876 0422     		movs	r2, #4
 2735 0878 2046     		mov	r0, r4
 2736              		.loc 1 1685 35 view .LVU916
ARM GAS  C:\Users\DEVELO~1\AppData\Local\Temp\ccbkr0PB.s 			page 49


 2737 087a 86F84CA0 		strb	r10, [r6, #76]
 2738              		.loc 1 1684 32 view .LVU917
 2739 087e 7364     		str	r3, [r6, #68]
 2740              		.loc 1 1685 9 is_stmt 1 view .LVU918
 2741              		.loc 1 1690 9 view .LVU919
 2742 0880 07F5A067 		add	r7, r7, #1280
 2743              	.LVL210:
 2744              		.loc 1 1690 9 is_stmt 0 view .LVU920
 2745 0884 FFF7FEFF 		bl	HAL_HCD_HC_NotifyURBChange_Callback
 2746              	.LVL211:
 2747 0888 BBE7     		b	.L176
 2748              	.LVL212:
 2749              	.L299:
 2750              		.loc 1 1676 7 is_stmt 1 view .LVU921
 2751              		.loc 1 1676 29 is_stmt 0 view .LVU922
 2752 088a 0723     		movs	r3, #7
 2753 088c 07F5A067 		add	r7, r7, #1280
 2754              	.LVL213:
 2755              		.loc 1 1676 29 view .LVU923
 2756 0890 86F84D30 		strb	r3, [r6, #77]
 2757              		.loc 1 1677 7 is_stmt 1 view .LVU924
 2758              		.loc 1 1677 13 is_stmt 0 view .LVU925
 2759 0894 2068     		ldr	r0, [r4]
 2760 0896 FFF7FEFF 		bl	USB_HC_Halt
 2761              	.LVL214:
 2762 089a B2E7     		b	.L176
 2763              	.LVL215:
 2764              	.L174:
 2765              		.loc 1 1706 8 is_stmt 1 view .LVU926
 2766              		.loc 1 1706 12 is_stmt 0 view .LVU927
 2767 089c 2068     		ldr	r0, [r4]
 2768 089e 0091     		str	r1, [sp]
 2769 08a0 FFF7FEFF 		bl	USB_ReadChInterrupts
 2770              	.LVL216:
 2771              		.loc 1 1706 11 view .LVU928
 2772 08a4 10F4806F 		tst	r0, #1024
 2773 08a8 0099     		ldr	r1, [sp]
 2774 08aa 0CD0     		beq	.L178
 2775              		.loc 1 1708 5 is_stmt 1 view .LVU929
 2776              		.loc 1 1708 27 is_stmt 0 view .LVU930
 2777 08ac 0923     		movs	r3, #9
 2778 08ae 86F84D30 		strb	r3, [r6, #77]
 2779              		.loc 1 1709 5 is_stmt 1 view .LVU931
 2780              		.loc 1 1709 11 is_stmt 0 view .LVU932
 2781 08b2 2068     		ldr	r0, [r4]
 2782 08b4 FFF7FEFF 		bl	USB_HC_Halt
 2783              	.LVL217:
 2784              		.loc 1 1710 5 is_stmt 1 view .LVU933
 2785 08b8 07F5A063 		add	r3, r7, #1280
 2786 08bc 4FF48062 		mov	r2, #1024
 2787 08c0 4B44     		add	r3, r3, r9
 2788 08c2 9A60     		str	r2, [r3, #8]
 2789 08c4 4BE4     		b	.L119
 2790              	.L178:
 2791              		.loc 1 1712 8 view .LVU934
 2792              		.loc 1 1712 12 is_stmt 0 view .LVU935
 2793 08c6 2068     		ldr	r0, [r4]
ARM GAS  C:\Users\DEVELO~1\AppData\Local\Temp\ccbkr0PB.s 			page 50


 2794 08c8 0091     		str	r1, [sp]
 2795 08ca FFF7FEFF 		bl	USB_ReadChInterrupts
 2796              	.LVL218:
 2797              		.loc 1 1712 11 view .LVU936
 2798 08ce 8107     		lsls	r1, r0, #30
 2799 08d0 7FF545AC 		bpl	.L119
 2800              		.loc 1 1714 5 is_stmt 1 view .LVU937
 2801 08d4 07F5A067 		add	r7, r7, #1280
 2802              	.LVL219:
 2803              		.loc 1 1714 5 is_stmt 0 view .LVU938
 2804 08d8 0223     		movs	r3, #2
 2805              		.loc 1 1716 8 view .LVU939
 2806 08da 0099     		ldr	r1, [sp]
 2807              		.loc 1 1714 5 view .LVU940
 2808 08dc 07EB0902 		add	r2, r7, r9
 2809 08e0 9360     		str	r3, [r2, #8]
 2810              		.loc 1 1716 5 is_stmt 1 view .LVU941
 2811              		.loc 1 1716 24 is_stmt 0 view .LVU942
 2812 08e2 96F84D30 		ldrb	r3, [r6, #77]	@ zero_extendqisi2
 2813              		.loc 1 1716 8 view .LVU943
 2814 08e6 012B     		cmp	r3, #1
 2815 08e8 14D0     		beq	.L301
 2816              		.loc 1 1740 10 is_stmt 1 view .LVU944
 2817 08ea 033B     		subs	r3, r3, #3
 2818 08ec 062B     		cmp	r3, #6
 2819 08ee 3FF636AC 		bhi	.L119
 2820 08f2 01A0     		adr	r0, .L185
 2821 08f4 50F823F0 		ldr	pc, [r0, r3, lsl #2]
 2822              		.p2align 2
 2823              	.L185:
 2824 08f8 43080000 		.word	.L189+1
 2825 08fc 8D090000 		.word	.L188+1
 2826 0900 75090000 		.word	.L187+1
 2827 0904 89050000 		.word	.L186+1
 2828 0908 5D090000 		.word	.L184+1
 2829 090c 5F010000 		.word	.L119+1
 2830 0910 5D090000 		.word	.L184+1
 2831              		.p2align 1
 2832              	.L301:
 2833              		.loc 1 1718 7 view .LVU945
 2834              		.loc 1 1719 33 is_stmt 0 view .LVU946
 2835 0914 86F84C30 		strb	r3, [r6, #76]
 2836              		.loc 1 1718 29 view .LVU947
 2837 0918 4FF00203 		mov	r3, #2
 2838 091c 86F84D30 		strb	r3, [r6, #77]
 2839              		.loc 1 1719 7 is_stmt 1 view .LVU948
 2840              		.loc 1 1721 7 view .LVU949
 2841              		.loc 1 1721 53 is_stmt 0 view .LVU950
 2842 0920 96F82630 		ldrb	r3, [r6, #38]	@ zero_extendqisi2
 2843              		.loc 1 1721 10 view .LVU951
 2844 0924 023B     		subs	r3, r3, #2
 2845 0926 012B     		cmp	r3, #1
 2846 0928 3FF628AE 		bhi	.L181
 2847              		.loc 1 1724 9 is_stmt 1 view .LVU952
 2848              		.loc 1 1724 23 is_stmt 0 view .LVU953
 2849 092c A379     		ldrb	r3, [r4, #6]	@ zero_extendqisi2
 2850              		.loc 1 1724 12 view .LVU954
ARM GAS  C:\Users\DEVELO~1\AppData\Local\Temp\ccbkr0PB.s 			page 51


 2851 092e 73B1     		cbz	r3, .L275
 2852              		.loc 1 1729 9 is_stmt 1 view .LVU955
 2853              		.loc 1 1729 12 is_stmt 0 view .LVU956
 2854 0930 012B     		cmp	r3, #1
 2855 0932 7FF423AE 		bne	.L181
 2856              		.loc 1 1729 62 view .LVU957
 2857 0936 736B     		ldr	r3, [r6, #52]
 2858              		.loc 1 1729 43 view .LVU958
 2859 0938 002B     		cmp	r3, #0
 2860 093a 3FF41FAE 		beq	.L181
 2861              		.loc 1 1731 11 is_stmt 1 view .LVU959
 2862              		.loc 1 1731 68 is_stmt 0 view .LVU960
 2863 093e 328D     		ldrh	r2, [r6, #40]
 2864              	.LVL220:
 2865              		.loc 1 1733 11 is_stmt 1 view .LVU961
 2866              		.loc 1 1731 80 is_stmt 0 view .LVU962
 2867 0940 013B     		subs	r3, r3, #1
 2868              	.LVL221:
 2869              		.loc 1 1731 80 view .LVU963
 2870 0942 1344     		add	r3, r3, r2
 2871              		.loc 1 1731 23 view .LVU964
 2872 0944 B3FBF2F3 		udiv	r3, r3, r2
 2873              		.loc 1 1733 14 view .LVU965
 2874 0948 DA07     		lsls	r2, r3, #31
 2875              	.LVL222:
 2876              		.loc 1 1733 14 view .LVU966
 2877 094a 7FF517AE 		bpl	.L181
 2878              	.LVL223:
 2879              	.L275:
 2880              		.loc 1 1735 13 is_stmt 1 view .LVU967
 2881              		.loc 1 1735 40 is_stmt 0 view .LVU968
 2882 094e 96F83D30 		ldrb	r3, [r6, #61]	@ zero_extendqisi2
 2883 0952 83F00103 		eor	r3, r3, #1
 2884 0956 86F83D30 		strb	r3, [r6, #61]
 2885 095a 0FE6     		b	.L181
 2886              	.L184:
 2887              		.loc 1 1773 7 is_stmt 1 view .LVU969
 2888              		.loc 1 1773 29 is_stmt 0 view .LVU970
 2889 095c 4FF00203 		mov	r3, #2
 2890 0960 86F84D30 		strb	r3, [r6, #77]
 2891              		.loc 1 1774 7 is_stmt 1 view .LVU971
 2892              		.loc 1 1774 29 is_stmt 0 view .LVU972
 2893 0964 736C     		ldr	r3, [r6, #68]
 2894 0966 0133     		adds	r3, r3, #1
 2895              		.loc 1 1775 10 view .LVU973
 2896 0968 022B     		cmp	r3, #2
 2897              		.loc 1 1774 29 view .LVU974
 2898 096a 7364     		str	r3, [r6, #68]
 2899              		.loc 1 1775 7 is_stmt 1 view .LVU975
 2900              		.loc 1 1775 10 is_stmt 0 view .LVU976
 2901 096c 09D9     		bls	.L190
 2902              		.loc 1 1777 9 is_stmt 1 view .LVU977
 2903              		.loc 1 1777 32 is_stmt 0 view .LVU978
 2904 096e 0023     		movs	r3, #0
 2905 0970 7364     		str	r3, [r6, #68]
 2906 0972 01E6     		b	.L281
 2907              	.L187:
ARM GAS  C:\Users\DEVELO~1\AppData\Local\Temp\ccbkr0PB.s 			page 52


 2908              		.loc 1 1762 7 is_stmt 1 view .LVU979
 2909              		.loc 1 1762 29 is_stmt 0 view .LVU980
 2910 0974 4FF00203 		mov	r3, #2
 2911 0978 86F84D30 		strb	r3, [r6, #77]
 2912              		.loc 1 1763 7 is_stmt 1 view .LVU981
 2913              		.loc 1 1763 34 is_stmt 0 view .LVU982
 2914 097c 86F84C30 		strb	r3, [r6, #76]
 2915 0980 FCE5     		b	.L181
 2916              	.L190:
 2917              		.loc 1 1782 9 is_stmt 1 view .LVU983
 2918              		.loc 1 1782 35 is_stmt 0 view .LVU984
 2919 0982 4FF00203 		mov	r3, #2
 2920 0986 86F84C30 		strb	r3, [r6, #76]
 2921 098a 18E6     		b	.L280
 2922              	.L188:
 2923              		.loc 1 1751 7 is_stmt 1 view .LVU985
 2924              		.loc 1 1751 29 is_stmt 0 view .LVU986
 2925 098c 4FF00203 		mov	r3, #2
 2926 0990 86F84D30 		strb	r3, [r6, #77]
 2927              		.loc 1 1752 7 is_stmt 1 view .LVU987
 2928              		.loc 1 1752 33 is_stmt 0 view .LVU988
 2929 0994 86F84C30 		strb	r3, [r6, #76]
 2930              		.loc 1 1754 7 is_stmt 1 view .LVU989
 2931              		.loc 1 1754 10 is_stmt 0 view .LVU990
 2932 0998 F37E     		ldrb	r3, [r6, #27]	@ zero_extendqisi2
 2933 099a 012B     		cmp	r3, #1
 2934 099c 7FF4EEAD 		bne	.L181
 2935              		.loc 1 1756 9 is_stmt 1 view .LVU991
 2936              		.loc 1 1756 35 is_stmt 0 view .LVU992
 2937 09a0 4FF00003 		mov	r3, #0
 2938 09a4 F376     		strb	r3, [r6, #27]
 2939              		.loc 1 1757 9 is_stmt 1 view .LVU993
 2940 09a6 5368     		ldr	r3, [r2, #4]
 2941 09a8 23F48033 		bic	r3, r3, #65536
 2942 09ac 5360     		str	r3, [r2, #4]
 2943 09ae E5E5     		b	.L181
 2944              	.LBE35:
 2945              	.LBE91:
 2946              		.cfi_endproc
 2947              	.LFE148:
 2948              		.size	HAL_HCD_IRQHandler, .-HAL_HCD_IRQHandler
 2949              		.section	.text.HAL_HCD_Start,"ax",%progbits
 2950              		.align	1
 2951              		.p2align 2,,3
 2952              		.global	HAL_HCD_Start
 2953              		.syntax unified
 2954              		.thumb
 2955              		.thumb_func
 2956              		.type	HAL_HCD_Start, %function
 2957              	HAL_HCD_Start:
 2958              	.LVL224:
 2959              	.LFB155:
 2960              		.loc 1 1047 1 view -0
 2961              		.cfi_startproc
 2962              		@ args = 0, pretend = 0, frame = 0
 2963              		@ frame_needed = 0, uses_anonymous_args = 0
 2964              		.loc 1 1048 3 view .LVU995
ARM GAS  C:\Users\DEVELO~1\AppData\Local\Temp\ccbkr0PB.s 			page 53


 2965              		.loc 1 1048 3 view .LVU996
 2966 0000 90F8D433 		ldrb	r3, [r0, #980]	@ zero_extendqisi2
 2967 0004 012B     		cmp	r3, #1
 2968 0006 0FD0     		beq	.L304
 2969              		.loc 1 1048 3 discriminator 2 view .LVU997
 2970 0008 0121     		movs	r1, #1
 2971              		.loc 1 1047 1 is_stmt 0 discriminator 2 view .LVU998
 2972 000a 10B5     		push	{r4, lr}
 2973              		.cfi_def_cfa_offset 8
 2974              		.cfi_offset 4, -8
 2975              		.cfi_offset 14, -4
 2976 000c 0446     		mov	r4, r0
 2977              		.loc 1 1050 9 discriminator 2 view .LVU999
 2978 000e 0068     		ldr	r0, [r0]
 2979              	.LVL225:
 2980              		.loc 1 1048 3 discriminator 2 view .LVU1000
 2981 0010 84F8D413 		strb	r1, [r4, #980]
 2982              		.loc 1 1048 3 is_stmt 1 discriminator 2 view .LVU1001
 2983              		.loc 1 1050 3 discriminator 2 view .LVU1002
 2984              		.loc 1 1050 9 is_stmt 0 discriminator 2 view .LVU1003
 2985 0014 FFF7FEFF 		bl	USB_DriveVbus
 2986              	.LVL226:
 2987              		.loc 1 1053 3 is_stmt 1 discriminator 2 view .LVU1004
 2988 0018 2068     		ldr	r0, [r4]
 2989 001a FFF7FEFF 		bl	USB_EnableGlobalInt
 2990              	.LVL227:
 2991              		.loc 1 1054 3 discriminator 2 view .LVU1005
 2992              		.loc 1 1054 3 discriminator 2 view .LVU1006
 2993 001e 0023     		movs	r3, #0
 2994              		.loc 1 1056 10 is_stmt 0 discriminator 2 view .LVU1007
 2995 0020 1846     		mov	r0, r3
 2996              		.loc 1 1054 3 discriminator 2 view .LVU1008
 2997 0022 84F8D433 		strb	r3, [r4, #980]
 2998              		.loc 1 1054 3 is_stmt 1 discriminator 2 view .LVU1009
 2999              		.loc 1 1056 3 discriminator 2 view .LVU1010
 3000              		.loc 1 1057 1 is_stmt 0 discriminator 2 view .LVU1011
 3001 0026 10BD     		pop	{r4, pc}
 3002              	.LVL228:
 3003              	.L304:
 3004              		.cfi_def_cfa_offset 0
 3005              		.cfi_restore 4
 3006              		.cfi_restore 14
 3007              		.loc 1 1048 3 view .LVU1012
 3008 0028 0220     		movs	r0, #2
 3009              	.LVL229:
 3010              		.loc 1 1057 1 view .LVU1013
 3011 002a 7047     		bx	lr
 3012              		.cfi_endproc
 3013              	.LFE155:
 3014              		.size	HAL_HCD_Start, .-HAL_HCD_Start
 3015              		.section	.text.HAL_HCD_Stop,"ax",%progbits
 3016              		.align	1
 3017              		.p2align 2,,3
 3018              		.global	HAL_HCD_Stop
 3019              		.syntax unified
 3020              		.thumb
 3021              		.thumb_func
ARM GAS  C:\Users\DEVELO~1\AppData\Local\Temp\ccbkr0PB.s 			page 54


 3022              		.type	HAL_HCD_Stop, %function
 3023              	HAL_HCD_Stop:
 3024              	.LVL230:
 3025              	.LFB156:
 3026              		.loc 1 1066 1 is_stmt 1 view -0
 3027              		.cfi_startproc
 3028              		@ args = 0, pretend = 0, frame = 0
 3029              		@ frame_needed = 0, uses_anonymous_args = 0
 3030              		.loc 1 1067 3 view .LVU1015
 3031              		.loc 1 1067 3 view .LVU1016
 3032 0000 90F8D433 		ldrb	r3, [r0, #980]	@ zero_extendqisi2
 3033 0004 012B     		cmp	r3, #1
 3034 0006 0CD0     		beq	.L311
 3035              		.loc 1 1067 3 discriminator 2 view .LVU1017
 3036 0008 0123     		movs	r3, #1
 3037              		.loc 1 1066 1 is_stmt 0 discriminator 2 view .LVU1018
 3038 000a 10B5     		push	{r4, lr}
 3039              		.cfi_def_cfa_offset 8
 3040              		.cfi_offset 4, -8
 3041              		.cfi_offset 14, -4
 3042 000c 0446     		mov	r4, r0
 3043              		.loc 1 1068 9 discriminator 2 view .LVU1019
 3044 000e 0068     		ldr	r0, [r0]
 3045              	.LVL231:
 3046              		.loc 1 1067 3 discriminator 2 view .LVU1020
 3047 0010 84F8D433 		strb	r3, [r4, #980]
 3048              		.loc 1 1067 3 is_stmt 1 discriminator 2 view .LVU1021
 3049              		.loc 1 1068 3 discriminator 2 view .LVU1022
 3050              		.loc 1 1068 9 is_stmt 0 discriminator 2 view .LVU1023
 3051 0014 FFF7FEFF 		bl	USB_StopHost
 3052              	.LVL232:
 3053              		.loc 1 1069 3 is_stmt 1 discriminator 2 view .LVU1024
 3054              		.loc 1 1069 3 discriminator 2 view .LVU1025
 3055 0018 0023     		movs	r3, #0
 3056              		.loc 1 1071 10 is_stmt 0 discriminator 2 view .LVU1026
 3057 001a 1846     		mov	r0, r3
 3058              		.loc 1 1069 3 discriminator 2 view .LVU1027
 3059 001c 84F8D433 		strb	r3, [r4, #980]
 3060              		.loc 1 1069 3 is_stmt 1 discriminator 2 view .LVU1028
 3061              		.loc 1 1071 3 discriminator 2 view .LVU1029
 3062              		.loc 1 1072 1 is_stmt 0 discriminator 2 view .LVU1030
 3063 0020 10BD     		pop	{r4, pc}
 3064              	.LVL233:
 3065              	.L311:
 3066              		.cfi_def_cfa_offset 0
 3067              		.cfi_restore 4
 3068              		.cfi_restore 14
 3069              		.loc 1 1067 3 view .LVU1031
 3070 0022 0220     		movs	r0, #2
 3071              	.LVL234:
 3072              		.loc 1 1072 1 view .LVU1032
 3073 0024 7047     		bx	lr
 3074              		.cfi_endproc
 3075              	.LFE156:
 3076              		.size	HAL_HCD_Stop, .-HAL_HCD_Stop
 3077 0026 00BF     		.section	.text.HAL_HCD_ResetPort,"ax",%progbits
 3078              		.align	1
ARM GAS  C:\Users\DEVELO~1\AppData\Local\Temp\ccbkr0PB.s 			page 55


 3079              		.p2align 2,,3
 3080              		.global	HAL_HCD_ResetPort
 3081              		.syntax unified
 3082              		.thumb
 3083              		.thumb_func
 3084              		.type	HAL_HCD_ResetPort, %function
 3085              	HAL_HCD_ResetPort:
 3086              	.LVL235:
 3087              	.LFB157:
 3088              		.loc 1 1080 1 is_stmt 1 view -0
 3089              		.cfi_startproc
 3090              		@ args = 0, pretend = 0, frame = 0
 3091              		@ frame_needed = 0, uses_anonymous_args = 0
 3092              		@ link register save eliminated.
 3093              		.loc 1 1081 3 view .LVU1034
 3094              		.loc 1 1081 11 is_stmt 0 view .LVU1035
 3095 0000 0068     		ldr	r0, [r0]
 3096              	.LVL236:
 3097              		.loc 1 1081 11 view .LVU1036
 3098 0002 FFF7FEBF 		b	USB_ResetPort
 3099              	.LVL237:
 3100              		.cfi_endproc
 3101              	.LFE157:
 3102              		.size	HAL_HCD_ResetPort, .-HAL_HCD_ResetPort
 3103 0006 00BF     		.section	.text.HAL_HCD_GetState,"ax",%progbits
 3104              		.align	1
 3105              		.p2align 2,,3
 3106              		.global	HAL_HCD_GetState
 3107              		.syntax unified
 3108              		.thumb
 3109              		.thumb_func
 3110              		.type	HAL_HCD_GetState, %function
 3111              	HAL_HCD_GetState:
 3112              	.LVL238:
 3113              	.LFB158:
 3114              		.loc 1 1109 1 is_stmt 1 view -0
 3115              		.cfi_startproc
 3116              		@ args = 0, pretend = 0, frame = 0
 3117              		@ frame_needed = 0, uses_anonymous_args = 0
 3118              		@ link register save eliminated.
 3119              		.loc 1 1110 3 view .LVU1038
 3120              		.loc 1 1110 14 is_stmt 0 view .LVU1039
 3121 0000 90F8D503 		ldrb	r0, [r0, #981]	@ zero_extendqisi2
 3122              	.LVL239:
 3123              		.loc 1 1111 1 view .LVU1040
 3124 0004 7047     		bx	lr
 3125              		.cfi_endproc
 3126              	.LFE158:
 3127              		.size	HAL_HCD_GetState, .-HAL_HCD_GetState
 3128 0006 00BF     		.section	.text.HAL_HCD_HC_GetURBState,"ax",%progbits
 3129              		.align	1
 3130              		.p2align 2,,3
 3131              		.global	HAL_HCD_HC_GetURBState
 3132              		.syntax unified
 3133              		.thumb
 3134              		.thumb_func
 3135              		.type	HAL_HCD_HC_GetURBState, %function
ARM GAS  C:\Users\DEVELO~1\AppData\Local\Temp\ccbkr0PB.s 			page 56


 3136              	HAL_HCD_HC_GetURBState:
 3137              	.LVL240:
 3138              	.LFB159:
 3139              		.loc 1 1128 1 is_stmt 1 view -0
 3140              		.cfi_startproc
 3141              		@ args = 0, pretend = 0, frame = 0
 3142              		@ frame_needed = 0, uses_anonymous_args = 0
 3143              		@ link register save eliminated.
 3144              		.loc 1 1129 3 view .LVU1042
 3145              		.loc 1 1129 25 is_stmt 0 view .LVU1043
 3146 0000 C1EB0111 		rsb	r1, r1, r1, lsl #4
 3147              	.LVL241:
 3148              		.loc 1 1129 25 view .LVU1044
 3149 0004 00EB8100 		add	r0, r0, r1, lsl #2
 3150              	.LVL242:
 3151              		.loc 1 1130 1 view .LVU1045
 3152 0008 90F84C00 		ldrb	r0, [r0, #76]	@ zero_extendqisi2
 3153 000c 7047     		bx	lr
 3154              		.cfi_endproc
 3155              	.LFE159:
 3156              		.size	HAL_HCD_HC_GetURBState, .-HAL_HCD_HC_GetURBState
 3157 000e 00BF     		.section	.text.HAL_HCD_HC_GetXferCount,"ax",%progbits
 3158              		.align	1
 3159              		.p2align 2,,3
 3160              		.global	HAL_HCD_HC_GetXferCount
 3161              		.syntax unified
 3162              		.thumb
 3163              		.thumb_func
 3164              		.type	HAL_HCD_HC_GetXferCount, %function
 3165              	HAL_HCD_HC_GetXferCount:
 3166              	.LVL243:
 3167              	.LFB160:
 3168              		.loc 1 1141 1 is_stmt 1 view -0
 3169              		.cfi_startproc
 3170              		@ args = 0, pretend = 0, frame = 0
 3171              		@ frame_needed = 0, uses_anonymous_args = 0
 3172              		@ link register save eliminated.
 3173              		.loc 1 1142 3 view .LVU1047
 3174              		.loc 1 1142 25 is_stmt 0 view .LVU1048
 3175 0000 C1EB0111 		rsb	r1, r1, r1, lsl #4
 3176              	.LVL244:
 3177              		.loc 1 1142 25 view .LVU1049
 3178 0004 00EB8100 		add	r0, r0, r1, lsl #2
 3179              	.LVL245:
 3180              		.loc 1 1143 1 view .LVU1050
 3181 0008 806B     		ldr	r0, [r0, #56]
 3182 000a 7047     		bx	lr
 3183              		.cfi_endproc
 3184              	.LFE160:
 3185              		.size	HAL_HCD_HC_GetXferCount, .-HAL_HCD_HC_GetXferCount
 3186              		.section	.text.HAL_HCD_HC_GetState,"ax",%progbits
 3187              		.align	1
 3188              		.p2align 2,,3
 3189              		.global	HAL_HCD_HC_GetState
 3190              		.syntax unified
 3191              		.thumb
 3192              		.thumb_func
ARM GAS  C:\Users\DEVELO~1\AppData\Local\Temp\ccbkr0PB.s 			page 57


 3193              		.type	HAL_HCD_HC_GetState, %function
 3194              	HAL_HCD_HC_GetState:
 3195              	.LVL246:
 3196              	.LFB161:
 3197              		.loc 1 1163 1 is_stmt 1 view -0
 3198              		.cfi_startproc
 3199              		@ args = 0, pretend = 0, frame = 0
 3200              		@ frame_needed = 0, uses_anonymous_args = 0
 3201              		@ link register save eliminated.
 3202              		.loc 1 1164 3 view .LVU1052
 3203              		.loc 1 1164 25 is_stmt 0 view .LVU1053
 3204 0000 C1EB0111 		rsb	r1, r1, r1, lsl #4
 3205              	.LVL247:
 3206              		.loc 1 1164 25 view .LVU1054
 3207 0004 00EB8100 		add	r0, r0, r1, lsl #2
 3208              	.LVL248:
 3209              		.loc 1 1165 1 view .LVU1055
 3210 0008 90F84D00 		ldrb	r0, [r0, #77]	@ zero_extendqisi2
 3211 000c 7047     		bx	lr
 3212              		.cfi_endproc
 3213              	.LFE161:
 3214              		.size	HAL_HCD_HC_GetState, .-HAL_HCD_HC_GetState
 3215 000e 00BF     		.section	.text.HAL_HCD_GetCurrentFrame,"ax",%progbits
 3216              		.align	1
 3217              		.p2align 2,,3
 3218              		.global	HAL_HCD_GetCurrentFrame
 3219              		.syntax unified
 3220              		.thumb
 3221              		.thumb_func
 3222              		.type	HAL_HCD_GetCurrentFrame, %function
 3223              	HAL_HCD_GetCurrentFrame:
 3224              	.LVL249:
 3225              	.LFB162:
 3226              		.loc 1 1173 1 is_stmt 1 view -0
 3227              		.cfi_startproc
 3228              		@ args = 0, pretend = 0, frame = 0
 3229              		@ frame_needed = 0, uses_anonymous_args = 0
 3230              		@ link register save eliminated.
 3231              		.loc 1 1174 3 view .LVU1057
 3232              		.loc 1 1174 11 is_stmt 0 view .LVU1058
 3233 0000 0068     		ldr	r0, [r0]
 3234              	.LVL250:
 3235              		.loc 1 1174 11 view .LVU1059
 3236 0002 FFF7FEBF 		b	USB_GetCurrentFrame
 3237              	.LVL251:
 3238              		.cfi_endproc
 3239              	.LFE162:
 3240              		.size	HAL_HCD_GetCurrentFrame, .-HAL_HCD_GetCurrentFrame
 3241 0006 00BF     		.section	.text.HAL_HCD_GetCurrentSpeed,"ax",%progbits
 3242              		.align	1
 3243              		.p2align 2,,3
 3244              		.global	HAL_HCD_GetCurrentSpeed
 3245              		.syntax unified
 3246              		.thumb
 3247              		.thumb_func
 3248              		.type	HAL_HCD_GetCurrentSpeed, %function
 3249              	HAL_HCD_GetCurrentSpeed:
ARM GAS  C:\Users\DEVELO~1\AppData\Local\Temp\ccbkr0PB.s 			page 58


 3250              	.LVL252:
 3251              	.LFB163:
 3252              		.loc 1 1183 1 is_stmt 1 view -0
 3253              		.cfi_startproc
 3254              		@ args = 0, pretend = 0, frame = 0
 3255              		@ frame_needed = 0, uses_anonymous_args = 0
 3256              		@ link register save eliminated.
 3257              		.loc 1 1184 3 view .LVU1061
 3258              		.loc 1 1184 11 is_stmt 0 view .LVU1062
 3259 0000 0068     		ldr	r0, [r0]
 3260              	.LVL253:
 3261              		.loc 1 1184 11 view .LVU1063
 3262 0002 FFF7FEBF 		b	USB_GetHostSpeed
 3263              	.LVL254:
 3264              		.cfi_endproc
 3265              	.LFE163:
 3266              		.size	HAL_HCD_GetCurrentSpeed, .-HAL_HCD_GetCurrentSpeed
 3267 0006 00BF     		.section	.text.HAL_HCD_HC_SetHubInfo,"ax",%progbits
 3268              		.align	1
 3269              		.p2align 2,,3
 3270              		.global	HAL_HCD_HC_SetHubInfo
 3271              		.syntax unified
 3272              		.thumb
 3273              		.thumb_func
 3274              		.type	HAL_HCD_HC_SetHubInfo, %function
 3275              	HAL_HCD_HC_SetHubInfo:
 3276              	.LVL255:
 3277              	.LFB164:
 3278              		.loc 1 1198 1 is_stmt 1 view -0
 3279              		.cfi_startproc
 3280              		@ args = 0, pretend = 0, frame = 0
 3281              		@ frame_needed = 0, uses_anonymous_args = 0
 3282              		.loc 1 1199 3 view .LVU1065
 3283              		.loc 1 1198 1 is_stmt 0 view .LVU1066
 3284 0000 F8B5     		push	{r3, r4, r5, r6, r7, lr}
 3285              		.cfi_def_cfa_offset 24
 3286              		.cfi_offset 3, -24
 3287              		.cfi_offset 4, -20
 3288              		.cfi_offset 5, -16
 3289              		.cfi_offset 6, -12
 3290              		.cfi_offset 7, -8
 3291              		.cfi_offset 14, -4
 3292              		.loc 1 1198 1 view .LVU1067
 3293 0002 0D46     		mov	r5, r1
 3294 0004 0446     		mov	r4, r0
 3295              		.loc 1 1199 28 view .LVU1068
 3296 0006 0068     		ldr	r0, [r0]
 3297              	.LVL256:
 3298              		.loc 1 1198 1 view .LVU1069
 3299 0008 1746     		mov	r7, r2
 3300 000a 1E46     		mov	r6, r3
 3301              		.loc 1 1199 28 view .LVU1070
 3302 000c FFF7FEFF 		bl	USB_GetHostSpeed
 3303              	.LVL257:
 3304              		.loc 1 1202 3 is_stmt 1 view .LVU1071
 3305              		.loc 1 1202 24 is_stmt 0 view .LVU1072
 3306 0010 C5EB0511 		rsb	r1, r5, r5, lsl #4
ARM GAS  C:\Users\DEVELO~1\AppData\Local\Temp\ccbkr0PB.s 			page 59


 3307 0014 2B01     		lsls	r3, r5, #4
 3308 0016 04EB8101 		add	r1, r4, r1, lsl #2
 3309              		.loc 1 1202 6 view .LVU1073
 3310 001a 0A7E     		ldrb	r2, [r1, #24]	@ zero_extendqisi2
 3311              		.loc 1 1202 57 view .LVU1074
 3312 001c 02B1     		cbz	r2, .L326
 3313 001e 40B1     		cbz	r0, .L335
 3314              	.LVL258:
 3315              	.L326:
 3316              		.loc 1 1212 3 is_stmt 1 view .LVU1075
 3317              		.loc 1 1212 29 is_stmt 0 view .LVU1076
 3318 0020 5B1B     		subs	r3, r3, r5
 3319              		.loc 1 1216 1 view .LVU1077
 3320 0022 0020     		movs	r0, #0
 3321              		.loc 1 1212 29 view .LVU1078
 3322 0024 04EB8304 		add	r4, r4, r3, lsl #2
 3323              	.LVL259:
 3324              		.loc 1 1212 29 view .LVU1079
 3325 0028 84F82570 		strb	r7, [r4, #37]
 3326              		.loc 1 1213 3 is_stmt 1 view .LVU1080
 3327              		.loc 1 1213 33 is_stmt 0 view .LVU1081
 3328 002c 84F82460 		strb	r6, [r4, #36]
 3329              		.loc 1 1215 3 is_stmt 1 view .LVU1082
 3330              		.loc 1 1216 1 is_stmt 0 view .LVU1083
 3331 0030 F8BD     		pop	{r3, r4, r5, r6, r7, pc}
 3332              	.LVL260:
 3333              	.L335:
 3334              		.loc 1 1204 5 is_stmt 1 view .LVU1084
 3335              		.loc 1 1204 32 is_stmt 0 view .LVU1085
 3336 0032 0122     		movs	r2, #1
 3337              		.loc 1 1206 8 view .LVU1086
 3338 0034 91F82600 		ldrb	r0, [r1, #38]	@ zero_extendqisi2
 3339              	.LVL261:
 3340              		.loc 1 1204 32 view .LVU1087
 3341 0038 8A76     		strb	r2, [r1, #26]
 3342              		.loc 1 1206 5 is_stmt 1 view .LVU1088
 3343              		.loc 1 1206 8 is_stmt 0 view .LVU1089
 3344 003a 0028     		cmp	r0, #0
 3345 003c F0D1     		bne	.L326
 3346              		.loc 1 1206 52 discriminator 1 view .LVU1090
 3347 003e C87D     		ldrb	r0, [r1, #23]	@ zero_extendqisi2
 3348 0040 0028     		cmp	r0, #0
 3349 0042 EDD0     		beq	.L326
 3350              		.loc 1 1208 7 is_stmt 1 view .LVU1091
 3351              		.loc 1 1208 34 is_stmt 0 view .LVU1092
 3352 0044 81F83C20 		strb	r2, [r1, #60]
 3353 0048 EAE7     		b	.L326
 3354              		.cfi_endproc
 3355              	.LFE164:
 3356              		.size	HAL_HCD_HC_SetHubInfo, .-HAL_HCD_HC_SetHubInfo
 3357 004a 00BF     		.section	.text.HAL_HCD_HC_ClearHubInfo,"ax",%progbits
 3358              		.align	1
 3359              		.p2align 2,,3
 3360              		.global	HAL_HCD_HC_ClearHubInfo
 3361              		.syntax unified
 3362              		.thumb
 3363              		.thumb_func
ARM GAS  C:\Users\DEVELO~1\AppData\Local\Temp\ccbkr0PB.s 			page 60


 3364              		.type	HAL_HCD_HC_ClearHubInfo, %function
 3365              	HAL_HCD_HC_ClearHubInfo:
 3366              	.LVL262:
 3367              	.LFB165:
 3368              		.loc 1 1227 1 is_stmt 1 view -0
 3369              		.cfi_startproc
 3370              		@ args = 0, pretend = 0, frame = 0
 3371              		@ frame_needed = 0, uses_anonymous_args = 0
 3372              		@ link register save eliminated.
 3373              		.loc 1 1228 3 view .LVU1094
 3374              		.loc 1 1229 3 view .LVU1095
 3375              		.loc 1 1227 1 is_stmt 0 view .LVU1096
 3376 0000 0346     		mov	r3, r0
 3377              		.loc 1 1228 30 view .LVU1097
 3378 0002 C1EB0111 		rsb	r1, r1, r1, lsl #4
 3379              	.LVL263:
 3380              		.loc 1 1228 30 view .LVU1098
 3381 0006 0020     		movs	r0, #0
 3382              	.LVL264:
 3383              		.loc 1 1228 30 view .LVU1099
 3384 0008 03EB8101 		add	r1, r3, r1, lsl #2
 3385 000c 4883     		strh	r0, [r1, #26]	@ movhi
 3386              		.loc 1 1230 3 is_stmt 1 view .LVU1100
 3387              		.loc 1 1231 3 view .LVU1101
 3388              		.loc 1 1231 33 is_stmt 0 view .LVU1102
 3389 000e 8884     		strh	r0, [r1, #36]	@ movhi
 3390              		.loc 1 1233 3 is_stmt 1 view .LVU1103
 3391              		.loc 1 1234 1 is_stmt 0 view .LVU1104
 3392 0010 7047     		bx	lr
 3393              		.cfi_endproc
 3394              	.LFE165:
 3395              		.size	HAL_HCD_HC_ClearHubInfo, .-HAL_HCD_HC_ClearHubInfo
 3396 0012 00BF     		.text
 3397              	.Letext0:
 3398              		.file 2 "c:\\chibistudio\\tools\\gnu tools arm embedded\\11.3 2022.08\\arm-none-eabi\\include\\mac
 3399              		.file 3 "c:\\chibistudio\\tools\\gnu tools arm embedded\\11.3 2022.08\\arm-none-eabi\\include\\sys
 3400              		.file 4 "../../../os/common/ext/ST/STM32H7xx/stm32h743xx.h"
 3401              		.file 5 "./drivers/stm32h7xx-hal-driver/Inc/stm32h7xx_hal_def.h"
 3402              		.file 6 "./drivers/stm32h7xx-hal-driver/Inc/stm32h7xx_ll_usb.h"
 3403              		.file 7 "./drivers/stm32h7xx-hal-driver/Inc/stm32h7xx_hal_hcd.h"