ARM GAS  C:\Users\DEVELO~1\AppData\Local\Temp\ccPkHjk7.s 			page 1


   1              		.cpu cortex-m7
   2              		.arch armv7e-m
   3              		.fpu fpv5-d16
   4              		.eabi_attribute 28, 1
   5              		.eabi_attribute 20, 1
   6              		.eabi_attribute 21, 1
   7              		.eabi_attribute 23, 3
   8              		.eabi_attribute 24, 1
   9              		.eabi_attribute 25, 1
  10              		.eabi_attribute 26, 1
  11              		.eabi_attribute 30, 2
  12              		.eabi_attribute 34, 1
  13              		.eabi_attribute 18, 4
  14              		.file	"stm32h7xx_hal_rcc.c"
  15              		.text
  16              	.Ltext0:
  17              		.cfi_sections	.debug_frame
  18              		.section	.text.HAL_RCC_GetSysClockFreq.part.0,"ax",%progbits
  19              		.align	1
  20              		.p2align 2,,3
  21              		.syntax unified
  22              		.thumb
  23              		.thumb_func
  24              		.type	HAL_RCC_GetSysClockFreq.part.0, %function
  25              	HAL_RCC_GetSysClockFreq.part.0:
  26              	.LFB155:
  27              		.file 1 "./drivers/stm32h7xx-hal-driver/Src/stm32h7xx_hal_rcc.c"
  28              		.loc 1 1388 10 view -0
  29              		.cfi_startproc
  30              		@ args = 0, pretend = 0, frame = 0
  31              		@ frame_needed = 0, uses_anonymous_args = 0
  32              		@ link register save eliminated.
  33              		.loc 1 1424 7 view .LVU1
  34              		.loc 1 1424 23 is_stmt 0 view .LVU2
  35 0000 3B4B     		ldr	r3, .L15
  36              		.loc 1 1388 10 view .LVU3
  37 0002 30B4     		push	{r4, r5}
  38              		.cfi_def_cfa_offset 8
  39              		.cfi_offset 4, -8
  40              		.cfi_offset 5, -4
  41              		.loc 1 1424 23 view .LVU4
  42 0004 9A6A     		ldr	r2, [r3, #40]
  43              	.LVL0:
  44              		.loc 1 1425 7 is_stmt 1 view .LVU5
  45              		.loc 1 1425 19 is_stmt 0 view .LVU6
  46 0006 9C6A     		ldr	r4, [r3, #40]
  47              		.loc 1 1426 24 view .LVU7
  48 0008 DD6A     		ldr	r5, [r3, #44]
  49              		.loc 1 1429 10 view .LVU8
  50 000a 14F47C7F 		tst	r4, #1008
  51              		.loc 1 1427 53 view .LVU9
  52 000e 596B     		ldr	r1, [r3, #52]
  53              		.loc 1 1425 12 view .LVU10
  54 0010 C4F30510 		ubfx	r0, r4, #4, #6
  55              	.LVL1:
  56              		.loc 1 1426 7 is_stmt 1 view .LVU11
  57              		.loc 1 1427 7 view .LVU12
ARM GAS  C:\Users\DEVELO~1\AppData\Local\Temp\ccPkHjk7.s 			page 2


  58              		.loc 1 1429 7 view .LVU13
  59              		.loc 1 1429 10 is_stmt 0 view .LVU14
  60 0014 38D0     		beq	.L1
  61              		.loc 1 1427 89 view .LVU15
  62 0016 C1F3CC01 		ubfx	r1, r1, #3, #13
  63              	.LVL2:
  64              		.loc 1 1426 17 view .LVU16
  65 001a 05F00105 		and	r5, r5, #1
  66              	.LVL3:
  67              		.loc 1 1424 17 view .LVU17
  68 001e 02F00302 		and	r2, r2, #3
  69              	.LVL4:
  70              		.loc 1 1427 25 view .LVU18
  71 0022 05FB01F1 		mul	r1, r5, r1
  72 0026 012A     		cmp	r2, #1
  73              		.loc 1 1427 14 view .LVU19
  74 0028 07EE901A 		vmov	s15, r1	@ int
  75 002c B8EEE77A 		vcvt.f32.s32	s14, s15
  76              		.loc 1 1431 9 is_stmt 1 view .LVU20
  77 0030 02D0     		beq	.L5
  78 0032 022A     		cmp	r2, #2
  79 0034 4ED0     		beq	.L4
  80 0036 4AB3     		cbz	r2, .L14
  81              	.L5:
  82              		.loc 1 1455 13 view .LVU21
  83              		.loc 1 1455 44 is_stmt 0 view .LVU22
  84 0038 07EE900A 		vmov	s15, r0	@ int
  85              		.loc 1 1455 42 view .LVU23
  86 003c 9FED2D5A 		vldr.32	s10, .L15+4
  87              		.loc 1 1455 44 view .LVU24
  88 0040 F8EEE77A 		vcvt.f32.s32	s15, s15
  89              	.LVL5:
  90              	.L12:
  91              		.loc 1 1455 85 view .LVU25
  92 0044 1B6B     		ldr	r3, [r3, #48]
  93              		.loc 1 1455 42 view .LVU26
  94 0046 C5EE276A 		vdiv.f32	s13, s10, s15
  95              		.loc 1 1455 115 view .LVU27
  96 004a DFED2B5A 		vldr.32	s11, .L15+8
  97              		.loc 1 1455 71 view .LVU28
  98 004e C3F30803 		ubfx	r3, r3, #0, #9
  99 0052 07EE903A 		vmov	s15, r3	@ int
 100              		.loc 1 1455 144 view .LVU29
 101 0056 B7EE006A 		vmov.f32	s12, #1.0e+0
 102              		.loc 1 1455 62 view .LVU30
 103 005a F8EEE77A 		vcvt.f32.s32	s15, s15
 104              		.loc 1 1455 115 view .LVU31
 105 005e E7EE257A 		vfma.f32	s15, s14, s11
 106              		.loc 1 1455 144 view .LVU32
 107 0062 77EE867A 		vadd.f32	s15, s15, s12
 108              		.loc 1 1455 20 view .LVU33
 109 0066 66EEA76A 		vmul.f32	s13, s13, s15
 110              	.LVL6:
 111              		.loc 1 1456 13 is_stmt 1 view .LVU34
 112              	.L7:
 113              		.loc 1 1458 9 view .LVU35
 114              		.loc 1 1458 22 is_stmt 0 view .LVU36
ARM GAS  C:\Users\DEVELO~1\AppData\Local\Temp\ccPkHjk7.s 			page 3


 115 006a 214B     		ldr	r3, .L15
 116 006c 1B6B     		ldr	r3, [r3, #48]
 117              	.LVL7:
 118              		.loc 1 1459 9 is_stmt 1 view .LVU37
 119              		.loc 1 1458 52 is_stmt 0 view .LVU38
 120 006e C3F34623 		ubfx	r3, r3, #9, #7
 121              	.LVL8:
 122              		.loc 1 1458 14 view .LVU39
 123 0072 0133     		adds	r3, r3, #1
 124              		.loc 1 1459 53 view .LVU40
 125 0074 07EE903A 		vmov	s15, r3	@ int
 126 0078 B8EEE77A 		vcvt.f32.s32	s14, s15
 127              		.loc 1 1459 34 view .LVU41
 128 007c C6EE877A 		vdiv.f32	s15, s13, s14
 129              		.loc 1 1459 22 view .LVU42
 130 0080 FCEEE77A 		vcvt.u32.f32	s15, s15
 131 0084 17EE900A 		vmov	r0, s15	@ int
 132              	.LVL9:
 133              		.loc 1 1472 3 is_stmt 1 view .LVU43
 134              	.L1:
 135              		.loc 1 1473 1 is_stmt 0 view .LVU44
 136 0088 30BC     		pop	{r4, r5}
 137              		.cfi_remember_state
 138              		.cfi_restore 5
 139              		.cfi_restore 4
 140              		.cfi_def_cfa_offset 0
 141              	.LVL10:
 142              		.loc 1 1473 1 view .LVU45
 143 008a 7047     		bx	lr
 144              	.LVL11:
 145              	.L14:
 146              		.cfi_restore_state
 147              		.loc 1 1435 13 is_stmt 1 view .LVU46
 148              		.loc 1 1435 17 is_stmt 0 view .LVU47
 149 008c 1A68     		ldr	r2, [r3]
 150              	.LVL12:
 151              		.loc 1 1435 16 view .LVU48
 152 008e 9206     		lsls	r2, r2, #26
 153 0090 27D5     		bpl	.L6
 154              		.loc 1 1437 15 is_stmt 1 view .LVU49
 155              		.loc 1 1437 41 is_stmt 0 view .LVU50
 156 0092 1968     		ldr	r1, [r3]
 157              	.LVL13:
 158              		.loc 1 1438 15 is_stmt 1 view .LVU51
 159              		.loc 1 1438 45 is_stmt 0 view .LVU52
 160 0094 07EE900A 		vmov	s15, r0	@ int
 161              		.loc 1 1437 24 view .LVU53
 162 0098 184A     		ldr	r2, .L15+12
 163              		.loc 1 1438 145 view .LVU54
 164 009a F7EE005A 		vmov.f32	s11, #1.0e+0
 165              		.loc 1 1438 86 view .LVU55
 166 009e 1B6B     		ldr	r3, [r3, #48]
 167              		.loc 1 1437 69 view .LVU56
 168 00a0 C1F3C101 		ubfx	r1, r1, #3, #2
 169              	.LVL14:
 170              		.loc 1 1438 45 view .LVU57
 171 00a4 F8EEE77A 		vcvt.f32.s32	s15, s15
ARM GAS  C:\Users\DEVELO~1\AppData\Local\Temp\ccPkHjk7.s 			page 4


 172              		.loc 1 1438 116 view .LVU58
 173 00a8 9FED135A 		vldr.32	s10, .L15+8
 174              		.loc 1 1438 72 view .LVU59
 175 00ac C3F30803 		ubfx	r3, r3, #0, #9
 176              		.loc 1 1437 24 view .LVU60
 177 00b0 CA40     		lsrs	r2, r2, r1
 178              		.loc 1 1438 72 view .LVU61
 179 00b2 06EE903A 		vmov	s13, r3	@ int
 180              		.loc 1 1438 25 view .LVU62
 181 00b6 06EE102A 		vmov	s12, r2	@ int
 182              		.loc 1 1438 63 view .LVU63
 183 00ba F8EEE66A 		vcvt.f32.s32	s13, s13
 184              		.loc 1 1438 25 view .LVU64
 185 00be B8EEC66A 		vcvt.f32.s32	s12, s12
 186              		.loc 1 1438 116 view .LVU65
 187 00c2 E7EE056A 		vfma.f32	s13, s14, s10
 188              		.loc 1 1438 43 view .LVU66
 189 00c6 86EE277A 		vdiv.f32	s14, s12, s15
 190              		.loc 1 1438 145 view .LVU67
 191 00ca 76EEA56A 		vadd.f32	s13, s13, s11
 192              		.loc 1 1438 22 view .LVU68
 193 00ce 66EE876A 		vmul.f32	s13, s13, s14
 194              	.LVL15:
 195              		.loc 1 1438 22 view .LVU69
 196 00d2 CAE7     		b	.L7
 197              	.LVL16:
 198              	.L4:
 199              		.loc 1 1451 13 is_stmt 1 view .LVU70
 200              		.loc 1 1451 44 is_stmt 0 view .LVU71
 201 00d4 07EE900A 		vmov	s15, r0	@ int
 202              		.loc 1 1451 42 view .LVU72
 203 00d8 9FED095A 		vldr.32	s10, .L15+16
 204              		.loc 1 1451 44 view .LVU73
 205 00dc F8EEE77A 		vcvt.f32.s32	s15, s15
 206 00e0 B0E7     		b	.L12
 207              	.LVL17:
 208              	.L6:
 209              		.loc 1 1442 15 is_stmt 1 view .LVU74
 210              		.loc 1 1442 46 is_stmt 0 view .LVU75
 211 00e2 07EE900A 		vmov	s15, r0	@ int
 212              		.loc 1 1442 44 view .LVU76
 213 00e6 9FED075A 		vldr.32	s10, .L15+20
 214              		.loc 1 1442 46 view .LVU77
 215 00ea F8EEE77A 		vcvt.f32.s32	s15, s15
 216 00ee A9E7     		b	.L12
 217              	.L16:
 218              		.align	2
 219              	.L15:
 220 00f0 00440258 		.word	1476543488
 221 00f4 0024744A 		.word	1249125376
 222 00f8 00000039 		.word	956301312
 223 00fc 0090D003 		.word	64000000
 224 0100 0024F44A 		.word	1257513984
 225 0104 0024744C 		.word	1282679808
 226              		.cfi_endproc
 227              	.LFE155:
 228              		.size	HAL_RCC_GetSysClockFreq.part.0, .-HAL_RCC_GetSysClockFreq.part.0
ARM GAS  C:\Users\DEVELO~1\AppData\Local\Temp\ccPkHjk7.s 			page 5


 229              		.section	.text.HAL_RCC_DeInit,"ax",%progbits
 230              		.align	1
 231              		.p2align 2,,3
 232              		.global	HAL_RCC_DeInit
 233              		.syntax unified
 234              		.thumb
 235              		.thumb_func
 236              		.type	HAL_RCC_DeInit, %function
 237              	HAL_RCC_DeInit:
 238              	.LFB141:
 239              		.loc 1 189 1 is_stmt 1 view -0
 240              		.cfi_startproc
 241              		@ args = 0, pretend = 0, frame = 0
 242              		@ frame_needed = 0, uses_anonymous_args = 0
 243              		.loc 1 190 3 view .LVU79
 244              		.loc 1 193 3 view .LVU80
 245              		.loc 1 193 32 is_stmt 0 view .LVU81
 246 0000 5D4A     		ldr	r2, .L44
 247              		.loc 1 189 1 view .LVU82
 248 0002 F8B5     		push	{r3, r4, r5, r6, r7, lr}
 249              		.cfi_def_cfa_offset 24
 250              		.cfi_offset 3, -24
 251              		.cfi_offset 4, -20
 252              		.cfi_offset 5, -16
 253              		.cfi_offset 6, -12
 254              		.cfi_offset 7, -8
 255              		.cfi_offset 14, -4
 256              		.loc 1 193 32 view .LVU83
 257 0004 1368     		ldr	r3, [r2]
 258 0006 03F00F03 		and	r3, r3, #15
 259              		.loc 1 193 6 view .LVU84
 260 000a 062B     		cmp	r3, #6
 261 000c 0AD8     		bhi	.L20
 262              		.loc 1 196 5 is_stmt 1 view .LVU85
 263 000e 1368     		ldr	r3, [r2]
 264 0010 23F00F03 		bic	r3, r3, #15
 265 0014 43F00703 		orr	r3, r3, #7
 266 0018 1360     		str	r3, [r2]
 267              		.loc 1 200 5 view .LVU86
 268              		.loc 1 200 9 is_stmt 0 view .LVU87
 269 001a 1368     		ldr	r3, [r2]
 270 001c 03F00F03 		and	r3, r3, #15
 271              		.loc 1 200 8 view .LVU88
 272 0020 072B     		cmp	r3, #7
 273 0022 21D1     		bne	.L23
 274              	.L20:
 275              		.loc 1 209 3 is_stmt 1 view .LVU89
 276              		.loc 1 212 3 is_stmt 0 view .LVU90
 277 0024 554C     		ldr	r4, .L44+4
 278              		.loc 1 209 15 view .LVU91
 279 0026 FFF7FEFF 		bl	HAL_GetTick
 280              	.LVL18:
 281 002a 0546     		mov	r5, r0
 282              	.LVL19:
 283              		.loc 1 212 3 is_stmt 1 view .LVU92
 284 002c 2368     		ldr	r3, [r4]
 285 002e 43F00103 		orr	r3, r3, #1
ARM GAS  C:\Users\DEVELO~1\AppData\Local\Temp\ccPkHjk7.s 			page 6


 286 0032 2360     		str	r3, [r4]
 287              		.loc 1 215 3 view .LVU93
 288              		.loc 1 215 9 is_stmt 0 view .LVU94
 289 0034 04E0     		b	.L19
 290              	.LVL20:
 291              	.L22:
 292              		.loc 1 217 10 view .LVU95
 293 0036 FFF7FEFF 		bl	HAL_GetTick
 294              	.LVL21:
 295              		.loc 1 217 24 view .LVU96
 296 003a 401B     		subs	r0, r0, r5
 297              		.loc 1 217 8 view .LVU97
 298 003c 0228     		cmp	r0, #2
 299 003e 16D8     		bhi	.L25
 300              	.L19:
 301              		.loc 1 217 5 is_stmt 1 view .LVU98
 302              		.loc 1 215 43 view .LVU99
 303              		.loc 1 215 10 is_stmt 0 view .LVU100
 304 0040 2368     		ldr	r3, [r4]
 305              		.loc 1 215 43 view .LVU101
 306 0042 5E07     		lsls	r6, r3, #29
 307 0044 F7D5     		bpl	.L22
 308              		.loc 1 224 3 is_stmt 1 view .LVU102
 309 0046 6368     		ldr	r3, [r4, #4]
 310              		.loc 1 227 3 is_stmt 0 view .LVU103
 311 0048 0025     		movs	r5, #0
 312              	.LVL22:
 313              		.loc 1 234 7 view .LVU104
 314 004a 4D48     		ldr	r0, .L44+8
 315              		.loc 1 224 3 view .LVU105
 316 004c 43F08043 		orr	r3, r3, #1073741824
 317              		.loc 1 230 19 view .LVU106
 318 0050 4C4A     		ldr	r2, .L44+12
 319 0052 4D49     		ldr	r1, .L44+16
 320              		.loc 1 224 3 view .LVU107
 321 0054 6360     		str	r3, [r4, #4]
 322              		.loc 1 227 3 is_stmt 1 view .LVU108
 323              		.loc 1 231 17 is_stmt 0 view .LVU109
 324 0056 4D4B     		ldr	r3, .L44+20
 325              		.loc 1 227 3 view .LVU110
 326 0058 2561     		str	r5, [r4, #16]
 327              		.loc 1 230 3 is_stmt 1 view .LVU111
 328              		.loc 1 234 7 is_stmt 0 view .LVU112
 329 005a 0068     		ldr	r0, [r0]
 330              		.loc 1 230 19 view .LVU113
 331 005c 0A60     		str	r2, [r1]
 332              		.loc 1 231 3 is_stmt 1 view .LVU114
 333              		.loc 1 231 17 is_stmt 0 view .LVU115
 334 005e 1A60     		str	r2, [r3]
 335              		.loc 1 234 3 is_stmt 1 view .LVU116
 336              		.loc 1 234 7 is_stmt 0 view .LVU117
 337 0060 FFF7FEFF 		bl	HAL_InitTick
 338              	.LVL23:
 339              		.loc 1 234 6 view .LVU118
 340 0064 0446     		mov	r4, r0
 341 0066 28B1     		cbz	r0, .L43
 342              	.L23:
ARM GAS  C:\Users\DEVELO~1\AppData\Local\Temp\ccPkHjk7.s 			page 7


 343              		.loc 1 202 14 view .LVU119
 344 0068 0124     		movs	r4, #1
 345              	.L21:
 346              		.loc 1 389 1 view .LVU120
 347 006a 2046     		mov	r0, r4
 348 006c F8BD     		pop	{r3, r4, r5, r6, r7, pc}
 349              	.L25:
 350              		.loc 1 219 14 view .LVU121
 351 006e 0324     		movs	r4, #3
 352              		.loc 1 389 1 view .LVU122
 353 0070 2046     		mov	r0, r4
 354 0072 F8BD     		pop	{r3, r4, r5, r6, r7, pc}
 355              	.L43:
 356              		.loc 1 240 3 is_stmt 1 view .LVU123
 357              		.loc 1 240 15 is_stmt 0 view .LVU124
 358 0074 FFF7FEFF 		bl	HAL_GetTick
 359              	.LVL24:
 360              		.loc 1 243 10 view .LVU125
 361 0078 404E     		ldr	r6, .L44+4
 362              		.loc 1 245 8 view .LVU126
 363 007a 41F28837 		movw	r7, #5000
 364              		.loc 1 240 15 view .LVU127
 365 007e 0546     		mov	r5, r0
 366              	.LVL25:
 367              		.loc 1 243 3 is_stmt 1 view .LVU128
 368              		.loc 1 243 9 is_stmt 0 view .LVU129
 369 0080 04E0     		b	.L24
 370              	.LVL26:
 371              	.L26:
 372              		.loc 1 245 10 view .LVU130
 373 0082 FFF7FEFF 		bl	HAL_GetTick
 374              	.LVL27:
 375              		.loc 1 245 24 view .LVU131
 376 0086 431B     		subs	r3, r0, r5
 377              		.loc 1 245 8 view .LVU132
 378 0088 BB42     		cmp	r3, r7
 379 008a F0D8     		bhi	.L25
 380              	.L24:
 381              		.loc 1 245 5 is_stmt 1 view .LVU133
 382              		.loc 1 243 44 view .LVU134
 383              		.loc 1 243 10 is_stmt 0 view .LVU135
 384 008c 3369     		ldr	r3, [r6, #16]
 385              		.loc 1 243 44 view .LVU136
 386 008e 13F0380F 		tst	r3, #56
 387 0092 F6D1     		bne	.L26
 388              		.loc 1 252 3 is_stmt 1 view .LVU137
 389              		.loc 1 252 15 is_stmt 0 view .LVU138
 390 0094 FFF7FEFF 		bl	HAL_GetTick
 391              	.LVL28:
 392              		.loc 1 255 3 view .LVU139
 393 0098 3268     		ldr	r2, [r6]
 394 009a 3D4B     		ldr	r3, .L44+24
 395              		.loc 1 252 15 view .LVU140
 396 009c 0546     		mov	r5, r0
 397              	.LVL29:
 398              		.loc 1 255 3 is_stmt 1 view .LVU141
 399              		.loc 1 259 10 is_stmt 0 view .LVU142
ARM GAS  C:\Users\DEVELO~1\AppData\Local\Temp\ccPkHjk7.s 			page 8


 400 009e 374F     		ldr	r7, .L44+4
 401              		.loc 1 255 3 view .LVU143
 402 00a0 1340     		ands	r3, r3, r2
 403 00a2 3360     		str	r3, [r6]
 404              		.loc 1 259 3 is_stmt 1 view .LVU144
 405              		.loc 1 259 9 is_stmt 0 view .LVU145
 406 00a4 04E0     		b	.L27
 407              	.LVL30:
 408              	.L28:
 409              		.loc 1 261 10 view .LVU146
 410 00a6 FFF7FEFF 		bl	HAL_GetTick
 411              	.LVL31:
 412              		.loc 1 261 24 view .LVU147
 413 00aa 401B     		subs	r0, r0, r5
 414              		.loc 1 261 8 view .LVU148
 415 00ac 6428     		cmp	r0, #100
 416 00ae DED8     		bhi	.L25
 417              	.L27:
 418              		.loc 1 261 5 is_stmt 1 view .LVU149
 419              		.loc 1 259 43 view .LVU150
 420              		.loc 1 259 10 is_stmt 0 view .LVU151
 421 00b0 3B68     		ldr	r3, [r7]
 422              		.loc 1 259 43 view .LVU152
 423 00b2 9803     		lsls	r0, r3, #14
 424 00b4 F7D4     		bmi	.L28
 425              		.loc 1 268 3 is_stmt 1 view .LVU153
 426              		.loc 1 268 15 is_stmt 0 view .LVU154
 427 00b6 FFF7FEFF 		bl	HAL_GetTick
 428              	.LVL32:
 429              		.loc 1 271 3 view .LVU155
 430 00ba 3B68     		ldr	r3, [r7]
 431              		.loc 1 274 10 view .LVU156
 432 00bc 2F4E     		ldr	r6, .L44+4
 433              		.loc 1 268 15 view .LVU157
 434 00be 0546     		mov	r5, r0
 435              	.LVL33:
 436              		.loc 1 271 3 is_stmt 1 view .LVU158
 437 00c0 23F08073 		bic	r3, r3, #16777216
 438 00c4 3B60     		str	r3, [r7]
 439              		.loc 1 274 3 view .LVU159
 440              		.loc 1 274 9 is_stmt 0 view .LVU160
 441 00c6 04E0     		b	.L29
 442              	.LVL34:
 443              	.L30:
 444              		.loc 1 276 10 view .LVU161
 445 00c8 FFF7FEFF 		bl	HAL_GetTick
 446              	.LVL35:
 447              		.loc 1 276 24 view .LVU162
 448 00cc 401B     		subs	r0, r0, r5
 449              		.loc 1 276 8 view .LVU163
 450 00ce 0228     		cmp	r0, #2
 451 00d0 CDD8     		bhi	.L25
 452              	.L29:
 453              		.loc 1 276 5 is_stmt 1 view .LVU164
 454              		.loc 1 274 44 view .LVU165
 455              		.loc 1 274 10 is_stmt 0 view .LVU166
 456 00d2 3368     		ldr	r3, [r6]
ARM GAS  C:\Users\DEVELO~1\AppData\Local\Temp\ccPkHjk7.s 			page 9


 457              		.loc 1 274 44 view .LVU167
 458 00d4 9901     		lsls	r1, r3, #6
 459 00d6 F7D4     		bmi	.L30
 460              		.loc 1 283 3 is_stmt 1 view .LVU168
 461              		.loc 1 283 15 is_stmt 0 view .LVU169
 462 00d8 FFF7FEFF 		bl	HAL_GetTick
 463              	.LVL36:
 464              		.loc 1 286 3 view .LVU170
 465 00dc 3368     		ldr	r3, [r6]
 466              		.loc 1 289 10 view .LVU171
 467 00de 274F     		ldr	r7, .L44+4
 468              		.loc 1 283 15 view .LVU172
 469 00e0 0546     		mov	r5, r0
 470              	.LVL37:
 471              		.loc 1 286 3 is_stmt 1 view .LVU173
 472 00e2 23F08063 		bic	r3, r3, #67108864
 473 00e6 3360     		str	r3, [r6]
 474              		.loc 1 289 3 view .LVU174
 475              		.loc 1 289 9 is_stmt 0 view .LVU175
 476 00e8 04E0     		b	.L31
 477              	.LVL38:
 478              	.L32:
 479              		.loc 1 291 10 view .LVU176
 480 00ea FFF7FEFF 		bl	HAL_GetTick
 481              	.LVL39:
 482              		.loc 1 291 24 view .LVU177
 483 00ee 401B     		subs	r0, r0, r5
 484              		.loc 1 291 8 view .LVU178
 485 00f0 0228     		cmp	r0, #2
 486 00f2 BCD8     		bhi	.L25
 487              	.L31:
 488              		.loc 1 291 5 is_stmt 1 view .LVU179
 489              		.loc 1 289 44 view .LVU180
 490              		.loc 1 289 10 is_stmt 0 view .LVU181
 491 00f4 3B68     		ldr	r3, [r7]
 492              		.loc 1 289 44 view .LVU182
 493 00f6 1A01     		lsls	r2, r3, #4
 494 00f8 F7D4     		bmi	.L32
 495              		.loc 1 298 3 is_stmt 1 view .LVU183
 496              		.loc 1 298 15 is_stmt 0 view .LVU184
 497 00fa FFF7FEFF 		bl	HAL_GetTick
 498              	.LVL40:
 499              		.loc 1 301 3 view .LVU185
 500 00fe 3B68     		ldr	r3, [r7]
 501              		.loc 1 304 10 view .LVU186
 502 0100 1E4D     		ldr	r5, .L44+4
 503              	.LVL41:
 504              		.loc 1 298 15 view .LVU187
 505 0102 0646     		mov	r6, r0
 506              	.LVL42:
 507              		.loc 1 301 3 is_stmt 1 view .LVU188
 508 0104 23F08053 		bic	r3, r3, #268435456
 509 0108 3B60     		str	r3, [r7]
 510              		.loc 1 304 3 view .LVU189
 511              		.loc 1 304 9 is_stmt 0 view .LVU190
 512 010a 04E0     		b	.L33
 513              	.LVL43:
ARM GAS  C:\Users\DEVELO~1\AppData\Local\Temp\ccPkHjk7.s 			page 10


 514              	.L34:
 515              		.loc 1 306 10 view .LVU191
 516 010c FFF7FEFF 		bl	HAL_GetTick
 517              	.LVL44:
 518              		.loc 1 306 24 view .LVU192
 519 0110 801B     		subs	r0, r0, r6
 520              		.loc 1 306 8 view .LVU193
 521 0112 0228     		cmp	r0, #2
 522 0114 ABD8     		bhi	.L25
 523              	.L33:
 524              		.loc 1 306 5 is_stmt 1 view .LVU194
 525              		.loc 1 304 44 view .LVU195
 526              		.loc 1 304 10 is_stmt 0 view .LVU196
 527 0116 2B68     		ldr	r3, [r5]
 528              		.loc 1 304 44 view .LVU197
 529 0118 13F00053 		ands	r3, r3, #536870912
 530 011c F6D1     		bne	.L34
 531              		.loc 1 314 3 is_stmt 1 view .LVU198
 532              		.loc 1 333 18 is_stmt 0 view .LVU199
 533 011e 1D49     		ldr	r1, .L44+28
 534              		.loc 1 314 3 view .LVU200
 535 0120 AB61     		str	r3, [r5, #24]
 536              		.loc 1 317 3 is_stmt 1 view .LVU201
 537              		.loc 1 339 3 is_stmt 0 view .LVU202
 538 0122 1D4A     		ldr	r2, .L44+32
 539              		.loc 1 317 3 view .LVU203
 540 0124 EB61     		str	r3, [r5, #28]
 541              		.loc 1 320 3 is_stmt 1 view .LVU204
 542 0126 2B62     		str	r3, [r5, #32]
 543              		.loc 1 333 3 view .LVU205
 544              		.loc 1 333 18 is_stmt 0 view .LVU206
 545 0128 A962     		str	r1, [r5, #40]
 546              		.loc 1 336 3 is_stmt 1 view .LVU207
 547 012a 1C49     		ldr	r1, .L44+36
 548 012c E962     		str	r1, [r5, #44]
 549              		.loc 1 339 3 view .LVU208
 550              		.loc 1 368 3 is_stmt 0 view .LVU209
 551 012e 4FF0FF31 		mov	r1, #-1
 552              		.loc 1 339 3 view .LVU210
 553 0132 2A63     		str	r2, [r5, #48]
 554              		.loc 1 342 3 is_stmt 1 view .LVU211
 555 0134 6B63     		str	r3, [r5, #52]
 556              		.loc 1 345 3 view .LVU212
 557 0136 AA63     		str	r2, [r5, #56]
 558              		.loc 1 348 3 view .LVU213
 559 0138 EB63     		str	r3, [r5, #60]
 560              		.loc 1 351 3 view .LVU214
 561 013a 2A64     		str	r2, [r5, #64]
 562              		.loc 1 354 3 view .LVU215
 563 013c 6B64     		str	r3, [r5, #68]
 564              		.loc 1 362 3 view .LVU216
 565 013e 2A68     		ldr	r2, [r5]
 566 0140 22F48022 		bic	r2, r2, #262144
 567 0144 2A60     		str	r2, [r5]
 568              		.loc 1 365 3 view .LVU217
 569 0146 2B66     		str	r3, [r5, #96]
 570              		.loc 1 368 3 view .LVU218
ARM GAS  C:\Users\DEVELO~1\AppData\Local\Temp\ccPkHjk7.s 			page 11


 571 0148 A966     		str	r1, [r5, #104]
 572              		.loc 1 371 3 view .LVU219
 573 014a D5F8D030 		ldr	r3, [r5, #208]
 574              		.loc 1 374 32 is_stmt 0 view .LVU220
 575 014e 0A4A     		ldr	r2, .L44
 576              		.loc 1 371 3 view .LVU221
 577 0150 43F48033 		orr	r3, r3, #65536
 578 0154 C5F8D030 		str	r3, [r5, #208]
 579              		.loc 1 374 3 is_stmt 1 view .LVU222
 580              		.loc 1 374 32 is_stmt 0 view .LVU223
 581 0158 1368     		ldr	r3, [r2]
 582              		.loc 1 374 6 view .LVU224
 583 015a 1B07     		lsls	r3, r3, #28
 584 015c 85D5     		bpl	.L21
 585              		.loc 1 377 5 is_stmt 1 view .LVU225
 586 015e 1368     		ldr	r3, [r2]
 587 0160 23F00F03 		bic	r3, r3, #15
 588 0164 43F00703 		orr	r3, r3, #7
 589 0168 1360     		str	r3, [r2]
 590              		.loc 1 381 5 view .LVU226
 591              		.loc 1 381 9 is_stmt 0 view .LVU227
 592 016a 1468     		ldr	r4, [r2]
 593 016c 04F00F04 		and	r4, r4, #15
 594              		.loc 1 202 14 view .LVU228
 595 0170 073C     		subs	r4, r4, #7
 596 0172 18BF     		it	ne
 597 0174 0124     		movne	r4, #1
 598 0176 78E7     		b	.L21
 599              	.L45:
 600              		.align	2
 601              	.L44:
 602 0178 00200052 		.word	1375739904
 603 017c 00440258 		.word	1476543488
 604 0180 00000000 		.word	uwTickPrio
 605 0184 0090D003 		.word	64000000
 606 0188 00000000 		.word	SystemCoreClock
 607 018c 00000000 		.word	SystemD2Clock
 608 0190 45EDF6FF 		.word	-594619
 609 0194 00020202 		.word	33686016
 610 0198 80020101 		.word	16843392
 611 019c 0000FF01 		.word	33488896
 612              		.cfi_endproc
 613              	.LFE141:
 614              		.size	HAL_RCC_DeInit, .-HAL_RCC_DeInit
 615              		.section	.text.HAL_RCC_OscConfig,"ax",%progbits
 616              		.align	1
 617              		.p2align 2,,3
 618              		.weak	HAL_RCC_OscConfig
 619              		.syntax unified
 620              		.thumb
 621              		.thumb_func
 622              		.type	HAL_RCC_OscConfig, %function
 623              	HAL_RCC_OscConfig:
 624              	.LVL45:
 625              	.LFB142:
 626              		.loc 1 406 1 is_stmt 1 view -0
 627              		.cfi_startproc
ARM GAS  C:\Users\DEVELO~1\AppData\Local\Temp\ccPkHjk7.s 			page 12


 628              		@ args = 0, pretend = 0, frame = 0
 629              		@ frame_needed = 0, uses_anonymous_args = 0
 630              		.loc 1 407 3 view .LVU230
 631              		.loc 1 408 3 view .LVU231
 632              		.loc 1 411 3 view .LVU232
 633              		.loc 1 411 6 is_stmt 0 view .LVU233
 634 0000 0028     		cmp	r0, #0
 635 0002 00F0E881 		beq	.L184
 636              		.loc 1 417 3 is_stmt 1 view .LVU234
 637              		.loc 1 419 3 view .LVU235
 638              		.loc 1 406 1 is_stmt 0 view .LVU236
 639 0006 F8B5     		push	{r3, r4, r5, r6, r7, lr}
 640              		.cfi_def_cfa_offset 24
 641              		.cfi_offset 3, -24
 642              		.cfi_offset 4, -20
 643              		.cfi_offset 5, -16
 644              		.cfi_offset 6, -12
 645              		.cfi_offset 7, -8
 646              		.cfi_offset 14, -4
 647              		.loc 1 419 26 view .LVU237
 648 0008 0368     		ldr	r3, [r0]
 649 000a 0446     		mov	r4, r0
 650              		.loc 1 419 6 view .LVU238
 651 000c D907     		lsls	r1, r3, #31
 652 000e 2ED5     		bpl	.L49
 653              	.LBB2:
 654              		.loc 1 422 5 is_stmt 1 view .LVU239
 655              		.loc 1 424 5 view .LVU240
 656              		.loc 1 424 37 is_stmt 0 view .LVU241
 657 0010 A449     		ldr	r1, .L198
 658 0012 0A69     		ldr	r2, [r1, #16]
 659              		.loc 1 425 20 view .LVU242
 660 0014 896A     		ldr	r1, [r1, #40]
 661              		.loc 1 424 20 view .LVU243
 662 0016 02F03802 		and	r2, r2, #56
 663              	.LVL46:
 664              		.loc 1 425 5 is_stmt 1 view .LVU244
 665              		.loc 1 427 5 view .LVU245
 666              		.loc 1 427 8 is_stmt 0 view .LVU246
 667 001a 102A     		cmp	r2, #16
 668 001c 00F00781 		beq	.L50
 669              		.loc 1 427 46 discriminator 1 view .LVU247
 670 0020 182A     		cmp	r2, #24
 671 0022 00F0FF80 		beq	.L185
 672              	.LVL47:
 673              	.L51:
 674              		.loc 1 437 7 is_stmt 1 view .LVU248
 675              		.loc 1 437 7 view .LVU249
 676 0026 6368     		ldr	r3, [r4, #4]
 677 0028 B3F5803F 		cmp	r3, #65536
 678 002c 00F02A81 		beq	.L186
 679              		.loc 1 437 7 discriminator 2 view .LVU250
 680 0030 002B     		cmp	r3, #0
 681 0032 00F06881 		beq	.L187
 682              		.loc 1 437 7 discriminator 5 view .LVU251
 683 0036 B3F5A02F 		cmp	r3, #327680
 684 003a 9A4B     		ldr	r3, .L198
ARM GAS  C:\Users\DEVELO~1\AppData\Local\Temp\ccPkHjk7.s 			page 13


 685 003c 1A68     		ldr	r2, [r3]
 686              	.LVL48:
 687              		.loc 1 437 7 is_stmt 0 discriminator 5 view .LVU252
 688 003e 00F08982 		beq	.L188
 689              		.loc 1 437 7 is_stmt 1 discriminator 8 view .LVU253
 690 0042 22F48032 		bic	r2, r2, #65536
 691 0046 1A60     		str	r2, [r3]
 692              		.loc 1 437 7 discriminator 8 view .LVU254
 693 0048 1A68     		ldr	r2, [r3]
 694 004a 22F48022 		bic	r2, r2, #262144
 695 004e 1A60     		str	r2, [r3]
 696              	.L54:
 697              		.loc 1 443 9 view .LVU255
 698              		.loc 1 443 21 is_stmt 0 view .LVU256
 699 0050 FFF7FEFF 		bl	HAL_GetTick
 700              	.LVL49:
 701              		.loc 1 446 16 view .LVU257
 702 0054 934E     		ldr	r6, .L198
 703              		.loc 1 443 21 view .LVU258
 704 0056 0546     		mov	r5, r0
 705              	.LVL50:
 706              		.loc 1 446 9 is_stmt 1 view .LVU259
 707              		.loc 1 446 15 is_stmt 0 view .LVU260
 708 0058 05E0     		b	.L59
 709              	.LVL51:
 710              	.L60:
 711              		.loc 1 448 26 view .LVU261
 712 005a FFF7FEFF 		bl	HAL_GetTick
 713              	.LVL52:
 714              		.loc 1 448 40 view .LVU262
 715 005e 401B     		subs	r0, r0, r5
 716              		.loc 1 448 14 view .LVU263
 717 0060 6428     		cmp	r0, #100
 718 0062 00F24E81 		bhi	.L61
 719              	.L59:
 720              		.loc 1 448 11 is_stmt 1 view .LVU264
 721              		.loc 1 446 52 view .LVU265
 722              		.loc 1 446 16 is_stmt 0 view .LVU266
 723 0066 3368     		ldr	r3, [r6]
 724              		.loc 1 446 52 view .LVU267
 725 0068 9B03     		lsls	r3, r3, #14
 726 006a F6D5     		bpl	.L60
 727              	.LVL53:
 728              	.L176:
 729              		.loc 1 446 52 view .LVU268
 730              	.LBE2:
 731              		.loc 1 471 26 view .LVU269
 732 006c 2368     		ldr	r3, [r4]
 733              	.L49:
 734              		.loc 1 471 3 is_stmt 1 view .LVU270
 735              		.loc 1 471 6 is_stmt 0 view .LVU271
 736 006e 9D07     		lsls	r5, r3, #30
 737 0070 00F18A80 		bmi	.L189
 738              	.L63:
 739              		.loc 1 552 3 is_stmt 1 view .LVU272
 740              		.loc 1 552 6 is_stmt 0 view .LVU273
 741 0074 D906     		lsls	r1, r3, #27
ARM GAS  C:\Users\DEVELO~1\AppData\Local\Temp\ccPkHjk7.s 			page 14


 742 0076 33D5     		bpl	.L79
 743              	.LBB3:
 744              		.loc 1 555 5 is_stmt 1 view .LVU274
 745              		.loc 1 556 5 view .LVU275
 746              		.loc 1 559 5 view .LVU276
 747              		.loc 1 559 37 is_stmt 0 view .LVU277
 748 0078 8A4A     		ldr	r2, .L198
 749 007a 1369     		ldr	r3, [r2, #16]
 750              		.loc 1 560 20 view .LVU278
 751 007c 926A     		ldr	r2, [r2, #40]
 752              		.loc 1 559 20 view .LVU279
 753 007e 03F03803 		and	r3, r3, #56
 754              	.LVL54:
 755              		.loc 1 560 5 is_stmt 1 view .LVU280
 756              		.loc 1 561 5 view .LVU281
 757              		.loc 1 561 8 is_stmt 0 view .LVU282
 758 0082 082B     		cmp	r3, #8
 759 0084 00F0E380 		beq	.L80
 760              		.loc 1 561 46 discriminator 1 view .LVU283
 761 0088 182B     		cmp	r3, #24
 762 008a 00F0DB80 		beq	.L190
 763              	.LVL55:
 764              	.L81:
 765              		.loc 1 578 7 is_stmt 1 view .LVU284
 766              		.loc 1 578 10 is_stmt 0 view .LVU285
 767 008e E369     		ldr	r3, [r4, #28]
 768              	.LVL56:
 769              		.loc 1 581 9 view .LVU286
 770 0090 844D     		ldr	r5, .L198
 771              		.loc 1 578 10 view .LVU287
 772 0092 002B     		cmp	r3, #0
 773 0094 00F06F81 		beq	.L85
 774              		.loc 1 581 9 is_stmt 1 view .LVU288
 775 0098 2B68     		ldr	r3, [r5]
 776 009a 43F08003 		orr	r3, r3, #128
 777 009e 2B60     		str	r3, [r5]
 778              		.loc 1 584 9 view .LVU289
 779              		.loc 1 584 21 is_stmt 0 view .LVU290
 780 00a0 FFF7FEFF 		bl	HAL_GetTick
 781              	.LVL57:
 782 00a4 0646     		mov	r6, r0
 783              	.LVL58:
 784              		.loc 1 587 9 is_stmt 1 view .LVU291
 785              		.loc 1 587 15 is_stmt 0 view .LVU292
 786 00a6 05E0     		b	.L86
 787              	.LVL59:
 788              	.L87:
 789              		.loc 1 589 16 view .LVU293
 790 00a8 FFF7FEFF 		bl	HAL_GetTick
 791              	.LVL60:
 792              		.loc 1 589 30 view .LVU294
 793 00ac 801B     		subs	r0, r0, r6
 794              		.loc 1 589 14 view .LVU295
 795 00ae 0228     		cmp	r0, #2
 796 00b0 00F22781 		bhi	.L61
 797              	.L86:
 798              		.loc 1 589 11 is_stmt 1 view .LVU296
ARM GAS  C:\Users\DEVELO~1\AppData\Local\Temp\ccPkHjk7.s 			page 15


 799              		.loc 1 587 52 view .LVU297
 800              		.loc 1 587 16 is_stmt 0 view .LVU298
 801 00b4 2B68     		ldr	r3, [r5]
 802              		.loc 1 587 52 view .LVU299
 803 00b6 DB05     		lsls	r3, r3, #23
 804 00b8 F6D5     		bpl	.L87
 805              		.loc 1 596 9 is_stmt 1 view .LVU300
 806              		.loc 1 596 9 view .LVU301
 807 00ba FFF7FEFF 		bl	HAL_GetREVID
 808              	.LVL61:
 809 00be 41F20303 		movw	r3, #4099
 810 00c2 9842     		cmp	r0, r3
 811 00c4 00F26D82 		bhi	.L88
 812              		.loc 1 596 9 discriminator 1 view .LVU302
 813 00c8 226A     		ldr	r2, [r4, #32]
 814 00ca 6B68     		ldr	r3, [r5, #4]
 815 00cc 202A     		cmp	r2, #32
 816              		.loc 1 596 9 discriminator 1 view .LVU303
 817              		.loc 1 596 9 discriminator 1 view .LVU304
 818 00ce 23F0F843 		bic	r3, r3, #2080374784
 819 00d2 0CBF     		ite	eq
 820 00d4 43F08043 		orreq	r3, r3, #1073741824
 821 00d8 43EA8263 		orrne	r3, r3, r2, lsl #26
 822 00dc 6B60     		str	r3, [r5, #4]
 823              	.LBE3:
 824              		.loc 1 618 26 is_stmt 0 discriminator 1 view .LVU305
 825 00de 2368     		ldr	r3, [r4]
 826              	.LVL62:
 827              	.L79:
 828              		.loc 1 618 3 is_stmt 1 view .LVU306
 829              		.loc 1 618 6 is_stmt 0 view .LVU307
 830 00e0 1D07     		lsls	r5, r3, #28
 831 00e2 16D5     		bpl	.L92
 832              		.loc 1 621 5 is_stmt 1 view .LVU308
 833              		.loc 1 624 5 view .LVU309
 834              		.loc 1 624 8 is_stmt 0 view .LVU310
 835 00e4 6369     		ldr	r3, [r4, #20]
 836              		.loc 1 627 7 view .LVU311
 837 00e6 6F4D     		ldr	r5, .L198
 838              		.loc 1 624 8 view .LVU312
 839 00e8 002B     		cmp	r3, #0
 840 00ea 00F02281 		beq	.L93
 841              		.loc 1 627 7 is_stmt 1 view .LVU313
 842 00ee 6B6F     		ldr	r3, [r5, #116]
 843 00f0 43F00103 		orr	r3, r3, #1
 844 00f4 6B67     		str	r3, [r5, #116]
 845              		.loc 1 630 7 view .LVU314
 846              		.loc 1 630 19 is_stmt 0 view .LVU315
 847 00f6 FFF7FEFF 		bl	HAL_GetTick
 848              	.LVL63:
 849 00fa 0646     		mov	r6, r0
 850              	.LVL64:
 851              		.loc 1 633 7 is_stmt 1 view .LVU316
 852              		.loc 1 633 13 is_stmt 0 view .LVU317
 853 00fc 05E0     		b	.L94
 854              	.LVL65:
 855              	.L95:
ARM GAS  C:\Users\DEVELO~1\AppData\Local\Temp\ccPkHjk7.s 			page 16


 856              		.loc 1 635 14 view .LVU318
 857 00fe FFF7FEFF 		bl	HAL_GetTick
 858              	.LVL66:
 859              		.loc 1 635 28 view .LVU319
 860 0102 801B     		subs	r0, r0, r6
 861              		.loc 1 635 12 view .LVU320
 862 0104 0228     		cmp	r0, #2
 863 0106 00F2FC80 		bhi	.L61
 864              	.L94:
 865              		.loc 1 635 9 is_stmt 1 view .LVU321
 866              		.loc 1 633 50 view .LVU322
 867              		.loc 1 633 14 is_stmt 0 view .LVU323
 868 010a 6B6F     		ldr	r3, [r5, #116]
 869              		.loc 1 633 50 view .LVU324
 870 010c 9807     		lsls	r0, r3, #30
 871 010e F6D5     		bpl	.L95
 872              	.L178:
 873              		.loc 1 661 26 view .LVU325
 874 0110 2368     		ldr	r3, [r4]
 875              	.LVL67:
 876              	.L92:
 877              		.loc 1 661 3 is_stmt 1 view .LVU326
 878              		.loc 1 661 6 is_stmt 0 view .LVU327
 879 0112 9A06     		lsls	r2, r3, #26
 880 0114 16D5     		bpl	.L98
 881              		.loc 1 664 5 is_stmt 1 view .LVU328
 882              		.loc 1 667 5 view .LVU329
 883              		.loc 1 667 8 is_stmt 0 view .LVU330
 884 0116 A369     		ldr	r3, [r4, #24]
 885              		.loc 1 670 7 view .LVU331
 886 0118 624D     		ldr	r5, .L198
 887              		.loc 1 667 8 view .LVU332
 888 011a 002B     		cmp	r3, #0
 889 011c 00F01A81 		beq	.L99
 890              		.loc 1 670 7 is_stmt 1 view .LVU333
 891 0120 2B68     		ldr	r3, [r5]
 892 0122 43F48053 		orr	r3, r3, #4096
 893 0126 2B60     		str	r3, [r5]
 894              		.loc 1 670 31 view .LVU334
 895              		.loc 1 673 7 view .LVU335
 896              		.loc 1 673 19 is_stmt 0 view .LVU336
 897 0128 FFF7FEFF 		bl	HAL_GetTick
 898              	.LVL68:
 899 012c 0646     		mov	r6, r0
 900              	.LVL69:
 901              		.loc 1 676 7 is_stmt 1 view .LVU337
 902              		.loc 1 676 13 is_stmt 0 view .LVU338
 903 012e 05E0     		b	.L100
 904              	.LVL70:
 905              	.L101:
 906              		.loc 1 678 14 view .LVU339
 907 0130 FFF7FEFF 		bl	HAL_GetTick
 908              	.LVL71:
 909              		.loc 1 678 28 view .LVU340
 910 0134 801B     		subs	r0, r0, r6
 911              		.loc 1 678 12 view .LVU341
 912 0136 0228     		cmp	r0, #2
ARM GAS  C:\Users\DEVELO~1\AppData\Local\Temp\ccPkHjk7.s 			page 17


 913 0138 00F2E380 		bhi	.L61
 914              	.L100:
 915              		.loc 1 678 9 is_stmt 1 view .LVU342
 916              		.loc 1 676 52 view .LVU343
 917              		.loc 1 676 14 is_stmt 0 view .LVU344
 918 013c 2B68     		ldr	r3, [r5]
 919              		.loc 1 676 52 view .LVU345
 920 013e 9F04     		lsls	r7, r3, #18
 921 0140 F6D5     		bpl	.L101
 922              	.L179:
 923              		.loc 1 703 26 view .LVU346
 924 0142 2368     		ldr	r3, [r4]
 925              	.LVL72:
 926              	.L98:
 927              		.loc 1 703 3 is_stmt 1 view .LVU347
 928              		.loc 1 703 6 is_stmt 0 view .LVU348
 929 0144 5907     		lsls	r1, r3, #29
 930 0146 00F1A380 		bmi	.L104
 931              	.L117:
 932              		.loc 1 756 3 is_stmt 1 view .LVU349
 933              		.loc 1 757 3 view .LVU350
 934              		.loc 1 757 30 is_stmt 0 view .LVU351
 935 014a 606A     		ldr	r0, [r4, #36]
 936              		.loc 1 757 6 view .LVU352
 937 014c D0B1     		cbz	r0, .L106
 938              		.loc 1 760 5 is_stmt 1 view .LVU353
 939              		.loc 1 760 9 is_stmt 0 view .LVU354
 940 014e 554D     		ldr	r5, .L198
 941 0150 2B69     		ldr	r3, [r5, #16]
 942 0152 03F03803 		and	r3, r3, #56
 943              		.loc 1 760 8 view .LVU355
 944 0156 182B     		cmp	r3, #24
 945 0158 00F0AE81 		beq	.L119
 946              		.loc 1 762 7 is_stmt 1 view .LVU356
 947              		.loc 1 776 9 is_stmt 0 view .LVU357
 948 015c 2B68     		ldr	r3, [r5]
 949              		.loc 1 762 10 view .LVU358
 950 015e 0228     		cmp	r0, #2
 951              		.loc 1 776 9 view .LVU359
 952 0160 23F08073 		bic	r3, r3, #16777216
 953 0164 2B60     		str	r3, [r5]
 954              		.loc 1 762 10 view .LVU360
 955 0166 00F04281 		beq	.L191
 956              		.loc 1 840 9 is_stmt 1 view .LVU361
 957              		.loc 1 843 9 view .LVU362
 958              		.loc 1 843 21 is_stmt 0 view .LVU363
 959 016a FFF7FEFF 		bl	HAL_GetTick
 960              	.LVL73:
 961 016e 0446     		mov	r4, r0
 962              	.LVL74:
 963              		.loc 1 846 9 is_stmt 1 view .LVU364
 964              		.loc 1 846 15 is_stmt 0 view .LVU365
 965 0170 05E0     		b	.L125
 966              	.LVL75:
 967              	.L126:
 968              		.loc 1 848 16 view .LVU366
 969 0172 FFF7FEFF 		bl	HAL_GetTick
ARM GAS  C:\Users\DEVELO~1\AppData\Local\Temp\ccPkHjk7.s 			page 18


 970              	.LVL76:
 971              		.loc 1 848 30 view .LVU367
 972 0176 001B     		subs	r0, r0, r4
 973              		.loc 1 848 14 view .LVU368
 974 0178 0228     		cmp	r0, #2
 975 017a 00F2C280 		bhi	.L61
 976              	.L125:
 977              		.loc 1 848 11 is_stmt 1 view .LVU369
 978              		.loc 1 846 52 view .LVU370
 979              		.loc 1 846 16 is_stmt 0 view .LVU371
 980 017e 2B68     		ldr	r3, [r5]
 981              		.loc 1 846 52 view .LVU372
 982 0180 9B01     		lsls	r3, r3, #6
 983 0182 F6D4     		bmi	.L126
 984              	.LVL77:
 985              	.L106:
 986              		.loc 1 893 10 view .LVU373
 987 0184 0020     		movs	r0, #0
 988              	.L48:
 989              		.loc 1 894 1 view .LVU374
 990 0186 F8BD     		pop	{r3, r4, r5, r6, r7, pc}
 991              	.LVL78:
 992              	.L189:
 993              	.LBB4:
 994              		.loc 1 474 5 is_stmt 1 view .LVU375
 995              		.loc 1 475 5 view .LVU376
 996              		.loc 1 478 5 view .LVU377
 997              		.loc 1 478 37 is_stmt 0 view .LVU378
 998 0188 464A     		ldr	r2, .L198
 999 018a 1369     		ldr	r3, [r2, #16]
 1000              	.LVL79:
 1001              		.loc 1 479 5 is_stmt 1 view .LVU379
 1002              		.loc 1 479 20 is_stmt 0 view .LVU380
 1003 018c 926A     		ldr	r2, [r2, #40]
 1004              	.LVL80:
 1005              		.loc 1 480 5 is_stmt 1 view .LVU381
 1006              		.loc 1 480 8 is_stmt 0 view .LVU382
 1007 018e 13F03803 		ands	r3, r3, #56
 1008              	.LVL81:
 1009              		.loc 1 480 8 view .LVU383
 1010 0192 2DD1     		bne	.L192
 1011              	.L64:
 1012              		.loc 1 483 7 is_stmt 1 view .LVU384
 1013              		.loc 1 483 12 is_stmt 0 view .LVU385
 1014 0194 434B     		ldr	r3, .L198
 1015              	.LVL82:
 1016              		.loc 1 483 76 view .LVU386
 1017 0196 E268     		ldr	r2, [r4, #12]
 1018              	.LVL83:
 1019              		.loc 1 483 12 view .LVU387
 1020 0198 1B68     		ldr	r3, [r3]
 1021              		.loc 1 483 10 view .LVU388
 1022 019a 5907     		lsls	r1, r3, #29
 1023 019c 01D5     		bpl	.L67
 1024              		.loc 1 483 55 discriminator 1 view .LVU389
 1025 019e 002A     		cmp	r2, #0
 1026 01a0 4ED0     		beq	.L134
ARM GAS  C:\Users\DEVELO~1\AppData\Local\Temp\ccPkHjk7.s 			page 19


 1027              	.L67:
 1028              		.loc 1 491 9 is_stmt 1 view .LVU390
 1029 01a2 404D     		ldr	r5, .L198
 1030 01a4 2B68     		ldr	r3, [r5]
 1031 01a6 23F01903 		bic	r3, r3, #25
 1032 01aa 1343     		orrs	r3, r3, r2
 1033 01ac 2B60     		str	r3, [r5]
 1034              		.loc 1 494 9 view .LVU391
 1035              		.loc 1 494 21 is_stmt 0 view .LVU392
 1036 01ae FFF7FEFF 		bl	HAL_GetTick
 1037              	.LVL84:
 1038 01b2 0646     		mov	r6, r0
 1039              	.LVL85:
 1040              		.loc 1 497 9 is_stmt 1 view .LVU393
 1041              		.loc 1 497 15 is_stmt 0 view .LVU394
 1042 01b4 05E0     		b	.L68
 1043              	.LVL86:
 1044              	.L69:
 1045              		.loc 1 499 26 view .LVU395
 1046 01b6 FFF7FEFF 		bl	HAL_GetTick
 1047              	.LVL87:
 1048              		.loc 1 499 40 view .LVU396
 1049 01ba 801B     		subs	r0, r0, r6
 1050              		.loc 1 499 14 view .LVU397
 1051 01bc 0228     		cmp	r0, #2
 1052 01be 00F2A080 		bhi	.L61
 1053              	.L68:
 1054              		.loc 1 499 11 is_stmt 1 view .LVU398
 1055              		.loc 1 497 52 view .LVU399
 1056              		.loc 1 497 16 is_stmt 0 view .LVU400
 1057 01c2 2B68     		ldr	r3, [r5]
 1058              		.loc 1 497 52 view .LVU401
 1059 01c4 5B07     		lsls	r3, r3, #29
 1060 01c6 F6D5     		bpl	.L69
 1061              	.L183:
 1062              		.loc 1 530 9 is_stmt 1 view .LVU402
 1063              		.loc 1 530 9 view .LVU403
 1064 01c8 FFF7FEFF 		bl	HAL_GetREVID
 1065              	.LVL88:
 1066 01cc 41F20303 		movw	r3, #4099
 1067 01d0 9842     		cmp	r0, r3
 1068 01d2 00F2F780 		bhi	.L75
 1069              		.loc 1 530 9 discriminator 1 view .LVU404
 1070 01d6 2269     		ldr	r2, [r4, #16]
 1071 01d8 6B68     		ldr	r3, [r5, #4]
 1072 01da 402A     		cmp	r2, #64
 1073              		.loc 1 530 9 discriminator 1 view .LVU405
 1074              		.loc 1 530 9 discriminator 1 view .LVU406
 1075 01dc 23F47C33 		bic	r3, r3, #258048
 1076 01e0 0CBF     		ite	eq
 1077 01e2 43F40033 		orreq	r3, r3, #131072
 1078 01e6 43EA0233 		orrne	r3, r3, r2, lsl #12
 1079 01ea 6B60     		str	r3, [r5, #4]
 1080              	.LBE4:
 1081              		.loc 1 552 26 is_stmt 0 discriminator 1 view .LVU407
 1082 01ec 2368     		ldr	r3, [r4]
 1083 01ee 41E7     		b	.L63
ARM GAS  C:\Users\DEVELO~1\AppData\Local\Temp\ccPkHjk7.s 			page 20


 1084              	.LVL89:
 1085              	.L192:
 1086              	.LBB5:
 1087              		.loc 1 480 46 discriminator 1 view .LVU408
 1088 01f0 182B     		cmp	r3, #24
 1089 01f2 00F0E380 		beq	.L193
 1090              	.L65:
 1091              		.loc 1 512 7 is_stmt 1 view .LVU409
 1092              		.loc 1 515 9 is_stmt 0 view .LVU410
 1093 01f6 2B4D     		ldr	r5, .L198
 1094              		.loc 1 512 29 view .LVU411
 1095 01f8 E268     		ldr	r2, [r4, #12]
 1096              	.LVL90:
 1097              		.loc 1 515 9 view .LVU412
 1098 01fa 2B68     		ldr	r3, [r5]
 1099              	.LVL91:
 1100              		.loc 1 512 10 view .LVU413
 1101 01fc 002A     		cmp	r2, #0
 1102 01fe 00F0CC80 		beq	.L72
 1103              		.loc 1 515 9 is_stmt 1 view .LVU414
 1104 0202 23F01903 		bic	r3, r3, #25
 1105 0206 1343     		orrs	r3, r3, r2
 1106 0208 2B60     		str	r3, [r5]
 1107              		.loc 1 518 9 view .LVU415
 1108              		.loc 1 518 21 is_stmt 0 view .LVU416
 1109 020a FFF7FEFF 		bl	HAL_GetTick
 1110              	.LVL92:
 1111 020e 0646     		mov	r6, r0
 1112              	.LVL93:
 1113              		.loc 1 521 9 is_stmt 1 view .LVU417
 1114              		.loc 1 521 15 is_stmt 0 view .LVU418
 1115 0210 04E0     		b	.L73
 1116              	.LVL94:
 1117              	.L74:
 1118              		.loc 1 523 16 view .LVU419
 1119 0212 FFF7FEFF 		bl	HAL_GetTick
 1120              	.LVL95:
 1121              		.loc 1 523 30 view .LVU420
 1122 0216 801B     		subs	r0, r0, r6
 1123              		.loc 1 523 14 view .LVU421
 1124 0218 0228     		cmp	r0, #2
 1125 021a 72D8     		bhi	.L61
 1126              	.L73:
 1127              		.loc 1 523 11 is_stmt 1 view .LVU422
 1128              		.loc 1 521 52 view .LVU423
 1129              		.loc 1 521 16 is_stmt 0 view .LVU424
 1130 021c 2B68     		ldr	r3, [r5]
 1131              		.loc 1 521 52 view .LVU425
 1132 021e 5F07     		lsls	r7, r3, #29
 1133 0220 F7D5     		bpl	.L74
 1134 0222 D1E7     		b	.L183
 1135              	.LVL96:
 1136              	.L185:
 1137              		.loc 1 521 52 view .LVU426
 1138              	.LBE5:
 1139              	.LBB6:
 1140              		.loc 1 427 108 discriminator 2 view .LVU427
ARM GAS  C:\Users\DEVELO~1\AppData\Local\Temp\ccPkHjk7.s 			page 21


 1141 0224 01F00301 		and	r1, r1, #3
 1142              	.LVL97:
 1143              		.loc 1 427 88 discriminator 2 view .LVU428
 1144 0228 0229     		cmp	r1, #2
 1145 022a 7FF4FCAE 		bne	.L51
 1146              	.L50:
 1147              		.loc 1 429 7 is_stmt 1 view .LVU429
 1148              		.loc 1 429 12 is_stmt 0 view .LVU430
 1149 022e 1D4A     		ldr	r2, .L198
 1150              	.LVL98:
 1151              		.loc 1 429 12 view .LVU431
 1152 0230 1268     		ldr	r2, [r2]
 1153              		.loc 1 429 10 view .LVU432
 1154 0232 9203     		lsls	r2, r2, #14
 1155 0234 7FF51BAF 		bpl	.L49
 1156              		.loc 1 429 55 discriminator 1 view .LVU433
 1157 0238 6268     		ldr	r2, [r4, #4]
 1158 023a 002A     		cmp	r2, #0
 1159 023c 7FF417AF 		bne	.L49
 1160              	.LVL99:
 1161              	.L134:
 1162              		.loc 1 429 55 discriminator 1 view .LVU434
 1163              	.LBE6:
 1164              		.loc 1 868 16 view .LVU435
 1165 0240 0120     		movs	r0, #1
 1166              		.loc 1 894 1 view .LVU436
 1167 0242 F8BD     		pop	{r3, r4, r5, r6, r7, pc}
 1168              	.LVL100:
 1169              	.L190:
 1170              	.LBB7:
 1171              		.loc 1 561 108 discriminator 2 view .LVU437
 1172 0244 02F00302 		and	r2, r2, #3
 1173              	.LVL101:
 1174              		.loc 1 561 88 discriminator 2 view .LVU438
 1175 0248 012A     		cmp	r2, #1
 1176 024a 7FF420AF 		bne	.L81
 1177              	.L80:
 1178              		.loc 1 564 7 is_stmt 1 view .LVU439
 1179              		.loc 1 564 12 is_stmt 0 view .LVU440
 1180 024e 154B     		ldr	r3, .L198
 1181              	.LVL102:
 1182              		.loc 1 564 12 view .LVU441
 1183 0250 1B68     		ldr	r3, [r3]
 1184              		.loc 1 564 10 view .LVU442
 1185 0252 DA05     		lsls	r2, r3, #23
 1186 0254 02D5     		bpl	.L82
 1187              		.loc 1 564 55 discriminator 1 view .LVU443
 1188 0256 E369     		ldr	r3, [r4, #28]
 1189 0258 802B     		cmp	r3, #128
 1190 025a F1D1     		bne	.L134
 1191              	.L82:
 1192              		.loc 1 572 9 is_stmt 1 view .LVU444
 1193              		.loc 1 572 9 view .LVU445
 1194 025c FFF7FEFF 		bl	HAL_GetREVID
 1195              	.LVL103:
 1196 0260 41F20303 		movw	r3, #4099
 1197 0264 9842     		cmp	r0, r3
ARM GAS  C:\Users\DEVELO~1\AppData\Local\Temp\ccPkHjk7.s 			page 22


 1198 0266 00F2B880 		bhi	.L83
 1199              		.loc 1 572 9 discriminator 1 view .LVU446
 1200 026a 226A     		ldr	r2, [r4, #32]
 1201 026c 202A     		cmp	r2, #32
 1202 026e 00F0A781 		beq	.L194
 1203              		.loc 1 572 9 discriminator 4 view .LVU447
 1204 0272 0C49     		ldr	r1, .L198
 1205 0274 4B68     		ldr	r3, [r1, #4]
 1206 0276 23F0F843 		bic	r3, r3, #2080374784
 1207 027a 43EA8263 		orr	r3, r3, r2, lsl #26
 1208 027e 4B60     		str	r3, [r1, #4]
 1209              	.LBE7:
 1210              		.loc 1 618 26 is_stmt 0 discriminator 4 view .LVU448
 1211 0280 2368     		ldr	r3, [r4]
 1212 0282 2DE7     		b	.L79
 1213              	.LVL104:
 1214              	.L186:
 1215              	.LBB8:
 1216              		.loc 1 437 7 is_stmt 1 discriminator 1 view .LVU449
 1217 0284 074A     		ldr	r2, .L198
 1218              	.LVL105:
 1219              		.loc 1 437 7 is_stmt 0 discriminator 1 view .LVU450
 1220 0286 1368     		ldr	r3, [r2]
 1221 0288 43F48033 		orr	r3, r3, #65536
 1222 028c 1360     		str	r3, [r2]
 1223              		.loc 1 437 7 is_stmt 1 discriminator 1 view .LVU451
 1224              		.loc 1 440 7 discriminator 1 view .LVU452
 1225 028e DFE6     		b	.L54
 1226              	.LVL106:
 1227              	.L104:
 1228              		.loc 1 440 7 is_stmt 0 discriminator 1 view .LVU453
 1229              	.LBE8:
 1230              		.loc 1 706 5 is_stmt 1 view .LVU454
 1231              		.loc 1 709 5 view .LVU455
 1232              		.loc 1 709 14 is_stmt 0 view .LVU456
 1233 0290 054D     		ldr	r5, .L198+4
 1234 0292 2B68     		ldr	r3, [r5]
 1235 0294 43F48073 		orr	r3, r3, #256
 1236 0298 2B60     		str	r3, [r5]
 1237              		.loc 1 712 5 is_stmt 1 view .LVU457
 1238              		.loc 1 712 17 is_stmt 0 view .LVU458
 1239 029a FFF7FEFF 		bl	HAL_GetTick
 1240              	.LVL107:
 1241 029e 0646     		mov	r6, r0
 1242              	.LVL108:
 1243              		.loc 1 714 5 is_stmt 1 view .LVU459
 1244              		.loc 1 714 11 is_stmt 0 view .LVU460
 1245 02a0 09E0     		b	.L107
 1246              	.L199:
 1247 02a2 00BF     		.align	2
 1248              	.L198:
 1249 02a4 00440258 		.word	1476543488
 1250 02a8 00480258 		.word	1476544512
 1251              	.LVL109:
 1252              	.L108:
 1253              		.loc 1 716 12 view .LVU461
 1254 02ac FFF7FEFF 		bl	HAL_GetTick
ARM GAS  C:\Users\DEVELO~1\AppData\Local\Temp\ccPkHjk7.s 			page 23


 1255              	.LVL110:
 1256              		.loc 1 716 26 view .LVU462
 1257 02b0 801B     		subs	r0, r0, r6
 1258              		.loc 1 716 10 view .LVU463
 1259 02b2 6428     		cmp	r0, #100
 1260 02b4 25D8     		bhi	.L61
 1261              	.L107:
 1262              		.loc 1 716 7 is_stmt 1 view .LVU464
 1263              		.loc 1 714 37 view .LVU465
 1264              		.loc 1 714 16 is_stmt 0 view .LVU466
 1265 02b6 2B68     		ldr	r3, [r5]
 1266              		.loc 1 714 37 view .LVU467
 1267 02b8 DA05     		lsls	r2, r3, #23
 1268 02ba F7D5     		bpl	.L108
 1269              		.loc 1 723 5 is_stmt 1 view .LVU468
 1270              		.loc 1 723 5 view .LVU469
 1271 02bc A368     		ldr	r3, [r4, #8]
 1272 02be 012B     		cmp	r3, #1
 1273 02c0 00F07881 		beq	.L195
 1274              		.loc 1 723 5 discriminator 2 view .LVU470
 1275 02c4 002B     		cmp	r3, #0
 1276 02c6 00F05381 		beq	.L196
 1277              		.loc 1 723 5 discriminator 5 view .LVU471
 1278 02ca 052B     		cmp	r3, #5
 1279 02cc A54B     		ldr	r3, .L200
 1280 02ce 1A6F     		ldr	r2, [r3, #112]
 1281 02d0 00F07F81 		beq	.L197
 1282              		.loc 1 723 5 discriminator 8 view .LVU472
 1283 02d4 22F00102 		bic	r2, r2, #1
 1284 02d8 1A67     		str	r2, [r3, #112]
 1285              		.loc 1 723 5 discriminator 8 view .LVU473
 1286 02da 1A6F     		ldr	r2, [r3, #112]
 1287 02dc 22F00402 		bic	r2, r2, #4
 1288 02e0 1A67     		str	r2, [r3, #112]
 1289              	.L110:
 1290              		.loc 1 728 7 view .LVU474
 1291              		.loc 1 728 19 is_stmt 0 view .LVU475
 1292 02e2 FFF7FEFF 		bl	HAL_GetTick
 1293              	.LVL111:
 1294              		.loc 1 731 14 view .LVU476
 1295 02e6 9F4E     		ldr	r6, .L200
 1296              	.LVL112:
 1297              		.loc 1 733 12 view .LVU477
 1298 02e8 41F28837 		movw	r7, #5000
 1299              		.loc 1 728 19 view .LVU478
 1300 02ec 0546     		mov	r5, r0
 1301              	.LVL113:
 1302              		.loc 1 731 7 is_stmt 1 view .LVU479
 1303              		.loc 1 731 13 is_stmt 0 view .LVU480
 1304 02ee 04E0     		b	.L115
 1305              	.LVL114:
 1306              	.L116:
 1307              		.loc 1 733 14 view .LVU481
 1308 02f0 FFF7FEFF 		bl	HAL_GetTick
 1309              	.LVL115:
 1310              		.loc 1 733 28 view .LVU482
 1311 02f4 401B     		subs	r0, r0, r5
ARM GAS  C:\Users\DEVELO~1\AppData\Local\Temp\ccPkHjk7.s 			page 24


 1312              		.loc 1 733 12 view .LVU483
 1313 02f6 B842     		cmp	r0, r7
 1314 02f8 03D8     		bhi	.L61
 1315              	.L115:
 1316              		.loc 1 733 9 is_stmt 1 view .LVU484
 1317              		.loc 1 731 50 view .LVU485
 1318              		.loc 1 731 14 is_stmt 0 view .LVU486
 1319 02fa 336F     		ldr	r3, [r6, #112]
 1320              		.loc 1 731 50 view .LVU487
 1321 02fc 9B07     		lsls	r3, r3, #30
 1322 02fe F7D5     		bpl	.L116
 1323 0300 23E7     		b	.L117
 1324              	.LVL116:
 1325              	.L61:
 1326              	.LBB9:
 1327              		.loc 1 450 20 view .LVU488
 1328 0302 0320     		movs	r0, #3
 1329              	.LBE9:
 1330              		.loc 1 894 1 view .LVU489
 1331 0304 F8BD     		pop	{r3, r4, r5, r6, r7, pc}
 1332              	.LVL117:
 1333              	.L187:
 1334              	.LBB10:
 1335              		.loc 1 437 7 is_stmt 1 discriminator 4 view .LVU490
 1336 0306 974D     		ldr	r5, .L200
 1337 0308 2B68     		ldr	r3, [r5]
 1338 030a 23F48033 		bic	r3, r3, #65536
 1339 030e 2B60     		str	r3, [r5]
 1340              		.loc 1 437 7 discriminator 4 view .LVU491
 1341 0310 2B68     		ldr	r3, [r5]
 1342 0312 23F48023 		bic	r3, r3, #262144
 1343 0316 2B60     		str	r3, [r5]
 1344              		.loc 1 437 7 discriminator 4 view .LVU492
 1345              		.loc 1 440 7 discriminator 4 view .LVU493
 1346              		.loc 1 457 9 discriminator 4 view .LVU494
 1347              		.loc 1 457 21 is_stmt 0 discriminator 4 view .LVU495
 1348 0318 FFF7FEFF 		bl	HAL_GetTick
 1349              	.LVL118:
 1350              		.loc 1 457 21 discriminator 4 view .LVU496
 1351 031c 0646     		mov	r6, r0
 1352              	.LVL119:
 1353              		.loc 1 460 9 is_stmt 1 discriminator 4 view .LVU497
 1354              		.loc 1 460 15 is_stmt 0 discriminator 4 view .LVU498
 1355 031e 04E0     		b	.L56
 1356              	.LVL120:
 1357              	.L62:
 1358              		.loc 1 462 26 view .LVU499
 1359 0320 FFF7FEFF 		bl	HAL_GetTick
 1360              	.LVL121:
 1361              		.loc 1 462 40 view .LVU500
 1362 0324 801B     		subs	r0, r0, r6
 1363              		.loc 1 462 14 view .LVU501
 1364 0326 6428     		cmp	r0, #100
 1365 0328 EBD8     		bhi	.L61
 1366              	.L56:
 1367              		.loc 1 462 11 is_stmt 1 view .LVU502
 1368              		.loc 1 460 52 view .LVU503
ARM GAS  C:\Users\DEVELO~1\AppData\Local\Temp\ccPkHjk7.s 			page 25


 1369              		.loc 1 460 16 is_stmt 0 view .LVU504
 1370 032a 2B68     		ldr	r3, [r5]
 1371              		.loc 1 460 52 view .LVU505
 1372 032c 9F03     		lsls	r7, r3, #14
 1373 032e F7D4     		bmi	.L62
 1374 0330 9CE6     		b	.L176
 1375              	.LVL122:
 1376              	.L93:
 1377              		.loc 1 460 52 view .LVU506
 1378              	.LBE10:
 1379              		.loc 1 644 7 is_stmt 1 view .LVU507
 1380 0332 6B6F     		ldr	r3, [r5, #116]
 1381 0334 23F00103 		bic	r3, r3, #1
 1382 0338 6B67     		str	r3, [r5, #116]
 1383              		.loc 1 647 7 view .LVU508
 1384              		.loc 1 647 19 is_stmt 0 view .LVU509
 1385 033a FFF7FEFF 		bl	HAL_GetTick
 1386              	.LVL123:
 1387 033e 0646     		mov	r6, r0
 1388              	.LVL124:
 1389              		.loc 1 650 7 is_stmt 1 view .LVU510
 1390              		.loc 1 650 13 is_stmt 0 view .LVU511
 1391 0340 04E0     		b	.L96
 1392              	.LVL125:
 1393              	.L97:
 1394              		.loc 1 652 14 view .LVU512
 1395 0342 FFF7FEFF 		bl	HAL_GetTick
 1396              	.LVL126:
 1397              		.loc 1 652 28 view .LVU513
 1398 0346 801B     		subs	r0, r0, r6
 1399              		.loc 1 652 12 view .LVU514
 1400 0348 0228     		cmp	r0, #2
 1401 034a DAD8     		bhi	.L61
 1402              	.L96:
 1403              		.loc 1 652 9 is_stmt 1 view .LVU515
 1404              		.loc 1 650 50 view .LVU516
 1405              		.loc 1 650 14 is_stmt 0 view .LVU517
 1406 034c 6B6F     		ldr	r3, [r5, #116]
 1407              		.loc 1 650 50 view .LVU518
 1408 034e 9907     		lsls	r1, r3, #30
 1409 0350 F7D4     		bmi	.L97
 1410 0352 DDE6     		b	.L178
 1411              	.LVL127:
 1412              	.L99:
 1413              		.loc 1 687 7 is_stmt 1 view .LVU519
 1414 0354 2B68     		ldr	r3, [r5]
 1415 0356 23F48053 		bic	r3, r3, #4096
 1416 035a 2B60     		str	r3, [r5]
 1417              		.loc 1 687 32 view .LVU520
 1418              		.loc 1 690 7 view .LVU521
 1419              		.loc 1 690 19 is_stmt 0 view .LVU522
 1420 035c FFF7FEFF 		bl	HAL_GetTick
 1421              	.LVL128:
 1422 0360 0646     		mov	r6, r0
 1423              	.LVL129:
 1424              		.loc 1 693 7 is_stmt 1 view .LVU523
 1425              		.loc 1 693 13 is_stmt 0 view .LVU524
ARM GAS  C:\Users\DEVELO~1\AppData\Local\Temp\ccPkHjk7.s 			page 26


 1426 0362 04E0     		b	.L102
 1427              	.LVL130:
 1428              	.L103:
 1429              		.loc 1 695 14 view .LVU525
 1430 0364 FFF7FEFF 		bl	HAL_GetTick
 1431              	.LVL131:
 1432              		.loc 1 695 28 view .LVU526
 1433 0368 801B     		subs	r0, r0, r6
 1434              		.loc 1 695 12 view .LVU527
 1435 036a 0228     		cmp	r0, #2
 1436 036c C9D8     		bhi	.L61
 1437              	.L102:
 1438              		.loc 1 695 9 is_stmt 1 view .LVU528
 1439              		.loc 1 693 52 view .LVU529
 1440              		.loc 1 693 14 is_stmt 0 view .LVU530
 1441 036e 2B68     		ldr	r3, [r5]
 1442              		.loc 1 693 52 view .LVU531
 1443 0370 9804     		lsls	r0, r3, #18
 1444 0372 F7D4     		bmi	.L103
 1445 0374 E5E6     		b	.L179
 1446              	.LVL132:
 1447              	.L85:
 1448              	.LBB11:
 1449              		.loc 1 601 9 is_stmt 1 view .LVU532
 1450 0376 2B68     		ldr	r3, [r5]
 1451 0378 23F08003 		bic	r3, r3, #128
 1452 037c 2B60     		str	r3, [r5]
 1453              		.loc 1 604 9 view .LVU533
 1454              		.loc 1 604 21 is_stmt 0 view .LVU534
 1455 037e FFF7FEFF 		bl	HAL_GetTick
 1456              	.LVL133:
 1457 0382 0646     		mov	r6, r0
 1458              	.LVL134:
 1459              		.loc 1 607 9 is_stmt 1 view .LVU535
 1460              		.loc 1 607 15 is_stmt 0 view .LVU536
 1461 0384 04E0     		b	.L90
 1462              	.LVL135:
 1463              	.L91:
 1464              		.loc 1 609 16 view .LVU537
 1465 0386 FFF7FEFF 		bl	HAL_GetTick
 1466              	.LVL136:
 1467              		.loc 1 609 30 view .LVU538
 1468 038a 801B     		subs	r0, r0, r6
 1469              		.loc 1 609 14 view .LVU539
 1470 038c 0228     		cmp	r0, #2
 1471 038e B8D8     		bhi	.L61
 1472              	.L90:
 1473              		.loc 1 609 11 is_stmt 1 view .LVU540
 1474              		.loc 1 607 52 view .LVU541
 1475              		.loc 1 607 16 is_stmt 0 view .LVU542
 1476 0390 2B68     		ldr	r3, [r5]
 1477              		.loc 1 607 52 view .LVU543
 1478 0392 DF05     		lsls	r7, r3, #23
 1479 0394 F7D4     		bmi	.L91
 1480              	.LBE11:
 1481              		.loc 1 618 26 view .LVU544
 1482 0396 2368     		ldr	r3, [r4]
ARM GAS  C:\Users\DEVELO~1\AppData\Local\Temp\ccPkHjk7.s 			page 27


 1483 0398 A2E6     		b	.L79
 1484              	.LVL137:
 1485              	.L72:
 1486              	.LBB12:
 1487              		.loc 1 535 9 is_stmt 1 view .LVU545
 1488 039a 23F00103 		bic	r3, r3, #1
 1489 039e 2B60     		str	r3, [r5]
 1490              		.loc 1 538 9 view .LVU546
 1491              		.loc 1 538 21 is_stmt 0 view .LVU547
 1492 03a0 FFF7FEFF 		bl	HAL_GetTick
 1493              	.LVL138:
 1494 03a4 0646     		mov	r6, r0
 1495              	.LVL139:
 1496              		.loc 1 541 9 is_stmt 1 view .LVU548
 1497              		.loc 1 541 15 is_stmt 0 view .LVU549
 1498 03a6 04E0     		b	.L77
 1499              	.LVL140:
 1500              	.L78:
 1501              		.loc 1 543 16 view .LVU550
 1502 03a8 FFF7FEFF 		bl	HAL_GetTick
 1503              	.LVL141:
 1504              		.loc 1 543 30 view .LVU551
 1505 03ac 801B     		subs	r0, r0, r6
 1506              		.loc 1 543 14 view .LVU552
 1507 03ae 0228     		cmp	r0, #2
 1508 03b0 A7D8     		bhi	.L61
 1509              	.L77:
 1510              		.loc 1 543 11 is_stmt 1 view .LVU553
 1511              		.loc 1 541 52 view .LVU554
 1512              		.loc 1 541 16 is_stmt 0 view .LVU555
 1513 03b2 2B68     		ldr	r3, [r5]
 1514              		.loc 1 541 52 view .LVU556
 1515 03b4 5807     		lsls	r0, r3, #29
 1516 03b6 F7D4     		bmi	.L78
 1517              	.LBE12:
 1518              		.loc 1 552 26 view .LVU557
 1519 03b8 2368     		ldr	r3, [r4]
 1520 03ba 5BE6     		b	.L63
 1521              	.LVL142:
 1522              	.L193:
 1523              	.LBB13:
 1524              		.loc 1 480 88 discriminator 2 view .LVU558
 1525 03bc 9007     		lsls	r0, r2, #30
 1526 03be 7FF41AAF 		bne	.L65
 1527 03c2 E7E6     		b	.L64
 1528              	.LVL143:
 1529              	.L75:
 1530              		.loc 1 530 9 is_stmt 1 discriminator 2 view .LVU559
 1531 03c4 6B68     		ldr	r3, [r5, #4]
 1532 03c6 2269     		ldr	r2, [r4, #16]
 1533 03c8 23F0FE43 		bic	r3, r3, #2130706432
 1534 03cc 43EA0263 		orr	r3, r3, r2, lsl #24
 1535 03d0 6B60     		str	r3, [r5, #4]
 1536              	.LBE13:
 1537              		.loc 1 552 26 is_stmt 0 discriminator 2 view .LVU560
 1538 03d2 2368     		ldr	r3, [r4]
 1539 03d4 4EE6     		b	.L63
ARM GAS  C:\Users\DEVELO~1\AppData\Local\Temp\ccPkHjk7.s 			page 28


 1540              	.LVL144:
 1541              	.L184:
 1542              		.cfi_def_cfa_offset 0
 1543              		.cfi_restore 3
 1544              		.cfi_restore 4
 1545              		.cfi_restore 5
 1546              		.cfi_restore 6
 1547              		.cfi_restore 7
 1548              		.cfi_restore 14
 1549              		.loc 1 413 12 view .LVU561
 1550 03d6 0120     		movs	r0, #1
 1551              	.LVL145:
 1552              		.loc 1 894 1 view .LVU562
 1553 03d8 7047     		bx	lr
 1554              	.LVL146:
 1555              	.L83:
 1556              		.cfi_def_cfa_offset 24
 1557              		.cfi_offset 3, -24
 1558              		.cfi_offset 4, -20
 1559              		.cfi_offset 5, -16
 1560              		.cfi_offset 6, -12
 1561              		.cfi_offset 7, -8
 1562              		.cfi_offset 14, -4
 1563              	.LBB14:
 1564              		.loc 1 572 9 is_stmt 1 discriminator 2 view .LVU563
 1565 03da 624A     		ldr	r2, .L200
 1566 03dc 216A     		ldr	r1, [r4, #32]
 1567 03de D368     		ldr	r3, [r2, #12]
 1568 03e0 23F07C53 		bic	r3, r3, #1056964608
 1569 03e4 43EA0163 		orr	r3, r3, r1, lsl #24
 1570 03e8 D360     		str	r3, [r2, #12]
 1571              	.LBE14:
 1572              		.loc 1 618 26 is_stmt 0 discriminator 2 view .LVU564
 1573 03ea 2368     		ldr	r3, [r4]
 1574 03ec 78E6     		b	.L79
 1575              	.L191:
 1576              		.loc 1 765 9 is_stmt 1 view .LVU565
 1577              		.loc 1 766 9 view .LVU566
 1578              		.loc 1 767 9 view .LVU567
 1579              		.loc 1 768 9 view .LVU568
 1580              		.loc 1 769 9 view .LVU569
 1581              		.loc 1 770 9 view .LVU570
 1582              		.loc 1 771 9 view .LVU571
 1583              		.loc 1 772 9 view .LVU572
 1584              		.loc 1 773 9 view .LVU573
 1585              		.loc 1 776 9 view .LVU574
 1586              		.loc 1 779 9 view .LVU575
 1587              		.loc 1 779 21 is_stmt 0 view .LVU576
 1588 03ee FFF7FEFF 		bl	HAL_GetTick
 1589              	.LVL147:
 1590 03f2 0646     		mov	r6, r0
 1591              	.LVL148:
 1592              		.loc 1 782 9 is_stmt 1 view .LVU577
 1593              		.loc 1 782 15 is_stmt 0 view .LVU578
 1594 03f4 04E0     		b	.L121
 1595              	.LVL149:
 1596              	.L122:
ARM GAS  C:\Users\DEVELO~1\AppData\Local\Temp\ccPkHjk7.s 			page 29


 1597              		.loc 1 784 16 view .LVU579
 1598 03f6 FFF7FEFF 		bl	HAL_GetTick
 1599              	.LVL150:
 1600              		.loc 1 784 30 view .LVU580
 1601 03fa 801B     		subs	r0, r0, r6
 1602              		.loc 1 784 14 view .LVU581
 1603 03fc 0228     		cmp	r0, #2
 1604 03fe 80D8     		bhi	.L61
 1605              	.L121:
 1606              		.loc 1 784 11 is_stmt 1 view .LVU582
 1607              		.loc 1 782 52 view .LVU583
 1608              		.loc 1 782 16 is_stmt 0 view .LVU584
 1609 0400 2B68     		ldr	r3, [r5]
 1610              		.loc 1 782 52 view .LVU585
 1611 0402 9901     		lsls	r1, r3, #6
 1612 0404 F7D4     		bmi	.L122
 1613              		.loc 1 791 9 is_stmt 1 view .LVU586
 1614              		.loc 1 791 9 view .LVU587
 1615 0406 A96A     		ldr	r1, [r5, #40]
 1616 0408 574B     		ldr	r3, .L200+4
 1617 040a A26A     		ldr	r2, [r4, #40]
 1618 040c 0B40     		ands	r3, r3, r1
 1619              		.loc 1 802 9 is_stmt 0 view .LVU588
 1620 040e 5749     		ldr	r1, .L200+8
 1621              		.loc 1 829 16 view .LVU589
 1622 0410 544E     		ldr	r6, .L200
 1623              	.LVL151:
 1624              		.loc 1 791 9 view .LVU590
 1625 0412 1343     		orrs	r3, r3, r2
 1626 0414 E26A     		ldr	r2, [r4, #44]
 1627 0416 43EA0213 		orr	r3, r3, r2, lsl #4
 1628 041a AB62     		str	r3, [r5, #40]
 1629              		.loc 1 791 9 is_stmt 1 view .LVU591
 1630 041c D4E90D32 		ldrd	r3, r2, [r4, #52]
 1631 0420 013B     		subs	r3, r3, #1
 1632 0422 013A     		subs	r2, r2, #1
 1633 0424 5B02     		lsls	r3, r3, #9
 1634 0426 1204     		lsls	r2, r2, #16
 1635 0428 9BB2     		uxth	r3, r3
 1636 042a 02F4FE02 		and	r2, r2, #8323072
 1637 042e 1343     		orrs	r3, r3, r2
 1638 0430 226B     		ldr	r2, [r4, #48]
 1639 0432 013A     		subs	r2, r2, #1
 1640 0434 C2F30802 		ubfx	r2, r2, #0, #9
 1641 0438 1343     		orrs	r3, r3, r2
 1642 043a E26B     		ldr	r2, [r4, #60]
 1643 043c 013A     		subs	r2, r2, #1
 1644 043e 1206     		lsls	r2, r2, #24
 1645 0440 02F0FE42 		and	r2, r2, #2130706432
 1646 0444 1343     		orrs	r3, r3, r2
 1647 0446 2B63     		str	r3, [r5, #48]
 1648              		.loc 1 791 9 view .LVU592
 1649              		.loc 1 799 9 view .LVU593
 1650 0448 EB6A     		ldr	r3, [r5, #44]
 1651 044a 23F00103 		bic	r3, r3, #1
 1652 044e EB62     		str	r3, [r5, #44]
 1653              		.loc 1 802 9 view .LVU594
ARM GAS  C:\Users\DEVELO~1\AppData\Local\Temp\ccPkHjk7.s 			page 30


 1654 0450 6A6B     		ldr	r2, [r5, #52]
 1655 0452 A36C     		ldr	r3, [r4, #72]
 1656 0454 1140     		ands	r1, r1, r2
 1657 0456 41EAC301 		orr	r1, r1, r3, lsl #3
 1658 045a 6963     		str	r1, [r5, #52]
 1659              		.loc 1 805 9 view .LVU595
 1660 045c EB6A     		ldr	r3, [r5, #44]
 1661 045e 226C     		ldr	r2, [r4, #64]
 1662 0460 23F00C03 		bic	r3, r3, #12
 1663 0464 1343     		orrs	r3, r3, r2
 1664 0466 EB62     		str	r3, [r5, #44]
 1665              		.loc 1 808 9 view .LVU596
 1666 0468 EB6A     		ldr	r3, [r5, #44]
 1667 046a 626C     		ldr	r2, [r4, #68]
 1668 046c 23F00203 		bic	r3, r3, #2
 1669 0470 1343     		orrs	r3, r3, r2
 1670 0472 EB62     		str	r3, [r5, #44]
 1671              		.loc 1 811 9 view .LVU597
 1672 0474 EB6A     		ldr	r3, [r5, #44]
 1673 0476 43F48033 		orr	r3, r3, #65536
 1674 047a EB62     		str	r3, [r5, #44]
 1675              		.loc 1 814 9 view .LVU598
 1676 047c EB6A     		ldr	r3, [r5, #44]
 1677 047e 43F40033 		orr	r3, r3, #131072
 1678 0482 EB62     		str	r3, [r5, #44]
 1679              		.loc 1 817 9 view .LVU599
 1680 0484 EB6A     		ldr	r3, [r5, #44]
 1681 0486 43F48023 		orr	r3, r3, #262144
 1682 048a EB62     		str	r3, [r5, #44]
 1683              		.loc 1 820 9 view .LVU600
 1684 048c EB6A     		ldr	r3, [r5, #44]
 1685 048e 43F00103 		orr	r3, r3, #1
 1686 0492 EB62     		str	r3, [r5, #44]
 1687              		.loc 1 823 9 view .LVU601
 1688 0494 2B68     		ldr	r3, [r5]
 1689 0496 43F08073 		orr	r3, r3, #16777216
 1690 049a 2B60     		str	r3, [r5]
 1691              		.loc 1 826 9 view .LVU602
 1692              		.loc 1 826 21 is_stmt 0 view .LVU603
 1693 049c FFF7FEFF 		bl	HAL_GetTick
 1694              	.LVL152:
 1695 04a0 0446     		mov	r4, r0
 1696              	.LVL153:
 1697              		.loc 1 829 9 is_stmt 1 view .LVU604
 1698              		.loc 1 829 15 is_stmt 0 view .LVU605
 1699 04a2 05E0     		b	.L123
 1700              	.LVL154:
 1701              	.L124:
 1702              		.loc 1 831 16 view .LVU606
 1703 04a4 FFF7FEFF 		bl	HAL_GetTick
 1704              	.LVL155:
 1705              		.loc 1 831 30 view .LVU607
 1706 04a8 001B     		subs	r0, r0, r4
 1707              		.loc 1 831 14 view .LVU608
 1708 04aa 0228     		cmp	r0, #2
 1709 04ac 3FF629AF 		bhi	.L61
 1710              	.L123:
ARM GAS  C:\Users\DEVELO~1\AppData\Local\Temp\ccPkHjk7.s 			page 31


 1711              		.loc 1 831 11 is_stmt 1 view .LVU609
 1712              		.loc 1 829 52 view .LVU610
 1713              		.loc 1 829 16 is_stmt 0 view .LVU611
 1714 04b0 3368     		ldr	r3, [r6]
 1715              		.loc 1 829 52 view .LVU612
 1716 04b2 9A01     		lsls	r2, r3, #6
 1717 04b4 F6D5     		bpl	.L124
 1718 04b6 65E6     		b	.L106
 1719              	.LVL156:
 1720              	.L119:
 1721              		.loc 1 858 7 is_stmt 1 view .LVU613
 1722              		.loc 1 860 10 is_stmt 0 view .LVU614
 1723 04b8 0128     		cmp	r0, #1
 1724              		.loc 1 858 22 view .LVU615
 1725 04ba AA6A     		ldr	r2, [r5, #40]
 1726              	.LVL157:
 1727              		.loc 1 859 7 is_stmt 1 view .LVU616
 1728              		.loc 1 859 22 is_stmt 0 view .LVU617
 1729 04bc 2E6B     		ldr	r6, [r5, #48]
 1730              	.LVL158:
 1731              		.loc 1 860 7 is_stmt 1 view .LVU618
 1732              		.loc 1 860 10 is_stmt 0 view .LVU619
 1733 04be 3FF462AE 		beq	.L48
 1734              		.loc 1 861 12 discriminator 1 view .LVU620
 1735 04c2 02F00303 		and	r3, r2, #3
 1736              		.loc 1 860 62 discriminator 1 view .LVU621
 1737 04c6 A16A     		ldr	r1, [r4, #40]
 1738 04c8 8B42     		cmp	r3, r1
 1739 04ca 7FF4B9AE 		bne	.L134
 1740              		.loc 1 862 59 view .LVU622
 1741 04ce C2F30512 		ubfx	r2, r2, #4, #6
 1742              	.LVL159:
 1743              		.loc 1 861 96 view .LVU623
 1744 04d2 E36A     		ldr	r3, [r4, #44]
 1745 04d4 9A42     		cmp	r2, r3
 1746 04d6 7FF4B3AE 		bne	.L134
 1747              		.loc 1 863 86 view .LVU624
 1748 04da 236B     		ldr	r3, [r4, #48]
 1749              		.loc 1 863 12 view .LVU625
 1750 04dc C6F30802 		ubfx	r2, r6, #0, #9
 1751              		.loc 1 863 86 view .LVU626
 1752 04e0 013B     		subs	r3, r3, #1
 1753              		.loc 1 862 119 view .LVU627
 1754 04e2 9A42     		cmp	r2, r3
 1755 04e4 7FF4ACAE 		bne	.L134
 1756              		.loc 1 864 111 view .LVU628
 1757 04e8 636B     		ldr	r3, [r4, #52]
 1758              		.loc 1 864 55 view .LVU629
 1759 04ea C6F34622 		ubfx	r2, r6, #9, #7
 1760              		.loc 1 864 111 view .LVU630
 1761 04ee 013B     		subs	r3, r3, #1
 1762              		.loc 1 863 93 view .LVU631
 1763 04f0 9A42     		cmp	r2, r3
 1764 04f2 7FF4A5AE 		bne	.L134
 1765              		.loc 1 865 111 view .LVU632
 1766 04f6 A36B     		ldr	r3, [r4, #56]
 1767              		.loc 1 865 55 view .LVU633
ARM GAS  C:\Users\DEVELO~1\AppData\Local\Temp\ccPkHjk7.s 			page 32


 1768 04f8 C6F30642 		ubfx	r2, r6, #16, #7
 1769              		.loc 1 865 111 view .LVU634
 1770 04fc 013B     		subs	r3, r3, #1
 1771              		.loc 1 864 118 view .LVU635
 1772 04fe 9A42     		cmp	r2, r3
 1773 0500 7FF49EAE 		bne	.L134
 1774              		.loc 1 866 111 view .LVU636
 1775 0504 E36B     		ldr	r3, [r4, #60]
 1776              		.loc 1 866 55 view .LVU637
 1777 0506 C6F30666 		ubfx	r6, r6, #24, #7
 1778              	.LVL160:
 1779              		.loc 1 866 111 view .LVU638
 1780 050a 013B     		subs	r3, r3, #1
 1781              		.loc 1 865 118 view .LVU639
 1782 050c 9E42     		cmp	r6, r3
 1783 050e 7FF497AE 		bne	.L134
 1784              		.loc 1 873 9 is_stmt 1 view .LVU640
 1785              		.loc 1 873 31 is_stmt 0 view .LVU641
 1786 0512 6B6B     		ldr	r3, [r5, #52]
 1787              	.LVL161:
 1788              		.loc 1 874 9 is_stmt 1 view .LVU642
 1789              		.loc 1 874 12 is_stmt 0 view .LVU643
 1790 0514 A26C     		ldr	r2, [r4, #72]
 1791              		.loc 1 873 24 view .LVU644
 1792 0516 C3F3CC03 		ubfx	r3, r3, #3, #13
 1793              	.LVL162:
 1794              		.loc 1 874 12 view .LVU645
 1795 051a 9A42     		cmp	r2, r3
 1796 051c 3FF432AE 		beq	.L106
 1797              		.loc 1 876 11 is_stmt 1 view .LVU646
 1798              		.loc 1 878 11 view .LVU647
 1799 0520 104A     		ldr	r2, .L200
 1800 0522 D36A     		ldr	r3, [r2, #44]
 1801 0524 23F00103 		bic	r3, r3, #1
 1802 0528 D362     		str	r3, [r2, #44]
 1803              		.loc 1 880 11 view .LVU648
 1804              		.loc 1 880 23 is_stmt 0 view .LVU649
 1805 052a FFF7FEFF 		bl	HAL_GetTick
 1806              	.LVL163:
 1807 052e 0546     		mov	r5, r0
 1808              	.LVL164:
 1809              		.loc 1 882 11 is_stmt 1 view .LVU650
 1810              	.L127:
 1811              		.loc 1 884 11 discriminator 1 view .LVU651
 1812              		.loc 1 882 46 discriminator 1 view .LVU652
 1813              		.loc 1 882 19 is_stmt 0 discriminator 1 view .LVU653
 1814 0530 FFF7FEFF 		bl	HAL_GetTick
 1815              	.LVL165:
 1816              		.loc 1 882 46 discriminator 1 view .LVU654
 1817 0534 A842     		cmp	r0, r5
 1818 0536 FBD0     		beq	.L127
 1819              		.loc 1 886 11 is_stmt 1 view .LVU655
 1820 0538 0A4A     		ldr	r2, .L200
 1821              		.loc 1 893 10 is_stmt 0 view .LVU656
 1822 053a 0020     		movs	r0, #0
 1823              		.loc 1 886 11 view .LVU657
 1824 053c A16C     		ldr	r1, [r4, #72]
ARM GAS  C:\Users\DEVELO~1\AppData\Local\Temp\ccPkHjk7.s 			page 33


 1825 053e 0B4B     		ldr	r3, .L200+8
 1826 0540 546B     		ldr	r4, [r2, #52]
 1827              	.LVL166:
 1828              		.loc 1 886 11 view .LVU658
 1829 0542 2340     		ands	r3, r3, r4
 1830 0544 43EAC103 		orr	r3, r3, r1, lsl #3
 1831 0548 5363     		str	r3, [r2, #52]
 1832              		.loc 1 888 11 is_stmt 1 view .LVU659
 1833 054a D36A     		ldr	r3, [r2, #44]
 1834 054c 43F00103 		orr	r3, r3, #1
 1835 0550 D362     		str	r3, [r2, #44]
 1836              		.loc 1 894 1 is_stmt 0 view .LVU660
 1837 0552 F8BD     		pop	{r3, r4, r5, r6, r7, pc}
 1838              	.LVL167:
 1839              	.L188:
 1840              	.LBB15:
 1841              		.loc 1 437 7 is_stmt 1 discriminator 7 view .LVU661
 1842 0554 42F48022 		orr	r2, r2, #262144
 1843 0558 1A60     		str	r2, [r3]
 1844              		.loc 1 437 7 discriminator 7 view .LVU662
 1845 055a 1A68     		ldr	r2, [r3]
 1846 055c 42F48032 		orr	r2, r2, #65536
 1847 0560 1A60     		str	r2, [r3]
 1848 0562 75E5     		b	.L54
 1849              	.L201:
 1850              		.align	2
 1851              	.L200:
 1852 0564 00440258 		.word	1476543488
 1853 0568 0CFCFFFF 		.word	-1012
 1854 056c 0700FFFF 		.word	-65529
 1855              	.LVL168:
 1856              	.L196:
 1857              		.loc 1 437 7 is_stmt 0 discriminator 7 view .LVU663
 1858              	.LBE15:
 1859              		.loc 1 723 5 is_stmt 1 discriminator 4 view .LVU664
 1860 0570 1C4D     		ldr	r5, .L202
 1861              		.loc 1 747 12 is_stmt 0 discriminator 4 view .LVU665
 1862 0572 41F28837 		movw	r7, #5000
 1863              		.loc 1 723 5 discriminator 4 view .LVU666
 1864 0576 2B6F     		ldr	r3, [r5, #112]
 1865 0578 23F00103 		bic	r3, r3, #1
 1866 057c 2B67     		str	r3, [r5, #112]
 1867              		.loc 1 723 5 is_stmt 1 discriminator 4 view .LVU667
 1868 057e 2B6F     		ldr	r3, [r5, #112]
 1869 0580 23F00403 		bic	r3, r3, #4
 1870 0584 2B67     		str	r3, [r5, #112]
 1871              		.loc 1 723 5 discriminator 4 view .LVU668
 1872              		.loc 1 725 5 discriminator 4 view .LVU669
 1873              		.loc 1 742 7 discriminator 4 view .LVU670
 1874              		.loc 1 742 19 is_stmt 0 discriminator 4 view .LVU671
 1875 0586 FFF7FEFF 		bl	HAL_GetTick
 1876              	.LVL169:
 1877 058a 0646     		mov	r6, r0
 1878              	.LVL170:
 1879              		.loc 1 745 7 is_stmt 1 discriminator 4 view .LVU672
 1880              		.loc 1 745 13 is_stmt 0 discriminator 4 view .LVU673
 1881 058c 05E0     		b	.L112
ARM GAS  C:\Users\DEVELO~1\AppData\Local\Temp\ccPkHjk7.s 			page 34


 1882              	.LVL171:
 1883              	.L118:
 1884              		.loc 1 747 14 view .LVU674
 1885 058e FFF7FEFF 		bl	HAL_GetTick
 1886              	.LVL172:
 1887              		.loc 1 747 28 view .LVU675
 1888 0592 801B     		subs	r0, r0, r6
 1889              		.loc 1 747 12 view .LVU676
 1890 0594 B842     		cmp	r0, r7
 1891 0596 3FF6B4AE 		bhi	.L61
 1892              	.L112:
 1893              		.loc 1 747 9 is_stmt 1 view .LVU677
 1894              		.loc 1 745 50 view .LVU678
 1895              		.loc 1 745 14 is_stmt 0 view .LVU679
 1896 059a 2B6F     		ldr	r3, [r5, #112]
 1897              		.loc 1 745 50 view .LVU680
 1898 059c 9807     		lsls	r0, r3, #30
 1899 059e F6D4     		bmi	.L118
 1900 05a0 D3E5     		b	.L117
 1901              	.L88:
 1902              	.LBB16:
 1903              		.loc 1 596 9 is_stmt 1 discriminator 2 view .LVU681
 1904 05a2 EB68     		ldr	r3, [r5, #12]
 1905 05a4 226A     		ldr	r2, [r4, #32]
 1906 05a6 23F07C53 		bic	r3, r3, #1056964608
 1907 05aa 43EA0263 		orr	r3, r3, r2, lsl #24
 1908 05ae EB60     		str	r3, [r5, #12]
 1909              	.LBE16:
 1910              		.loc 1 618 26 is_stmt 0 discriminator 2 view .LVU682
 1911 05b0 2368     		ldr	r3, [r4]
 1912 05b2 95E5     		b	.L79
 1913              	.L195:
 1914              		.loc 1 723 5 is_stmt 1 discriminator 1 view .LVU683
 1915 05b4 0B4A     		ldr	r2, .L202
 1916 05b6 136F     		ldr	r3, [r2, #112]
 1917 05b8 43F00103 		orr	r3, r3, #1
 1918 05bc 1367     		str	r3, [r2, #112]
 1919              		.loc 1 723 5 discriminator 1 view .LVU684
 1920              		.loc 1 725 5 discriminator 1 view .LVU685
 1921 05be 90E6     		b	.L110
 1922              	.LVL173:
 1923              	.L194:
 1924              	.LBB17:
 1925              		.loc 1 572 9 discriminator 3 view .LVU686
 1926 05c0 084A     		ldr	r2, .L202
 1927 05c2 5368     		ldr	r3, [r2, #4]
 1928 05c4 23F0F843 		bic	r3, r3, #2080374784
 1929 05c8 43F08043 		orr	r3, r3, #1073741824
 1930 05cc 5360     		str	r3, [r2, #4]
 1931              	.LBE17:
 1932              		.loc 1 618 26 is_stmt 0 discriminator 3 view .LVU687
 1933 05ce 2368     		ldr	r3, [r4]
 1934              	.LBB18:
 1935 05d0 86E5     		b	.L79
 1936              	.LVL174:
 1937              	.L197:
 1938              		.loc 1 618 26 discriminator 3 view .LVU688
ARM GAS  C:\Users\DEVELO~1\AppData\Local\Temp\ccPkHjk7.s 			page 35


 1939              	.LBE18:
 1940              		.loc 1 723 5 is_stmt 1 discriminator 7 view .LVU689
 1941 05d2 42F00402 		orr	r2, r2, #4
 1942 05d6 1A67     		str	r2, [r3, #112]
 1943              		.loc 1 723 5 discriminator 7 view .LVU690
 1944 05d8 1A6F     		ldr	r2, [r3, #112]
 1945 05da 42F00102 		orr	r2, r2, #1
 1946 05de 1A67     		str	r2, [r3, #112]
 1947 05e0 7FE6     		b	.L110
 1948              	.L203:
 1949 05e2 00BF     		.align	2
 1950              	.L202:
 1951 05e4 00440258 		.word	1476543488
 1952              		.cfi_endproc
 1953              	.LFE142:
 1954              		.size	HAL_RCC_OscConfig, .-HAL_RCC_OscConfig
 1955              		.section	.text.HAL_RCC_MCOConfig,"ax",%progbits
 1956              		.align	1
 1957              		.p2align 2,,3
 1958              		.global	HAL_RCC_MCOConfig
 1959              		.syntax unified
 1960              		.thumb
 1961              		.thumb_func
 1962              		.type	HAL_RCC_MCOConfig, %function
 1963              	HAL_RCC_MCOConfig:
 1964              	.LVL175:
 1965              	.LFB144:
 1966              		.loc 1 1287 1 view -0
 1967              		.cfi_startproc
 1968              		@ args = 0, pretend = 0, frame = 32
 1969              		@ frame_needed = 0, uses_anonymous_args = 0
 1970              		.loc 1 1288 3 view .LVU692
 1971              		.loc 1 1290 3 view .LVU693
 1972              		.loc 1 1291 3 view .LVU694
 1973              		.loc 1 1293 3 view .LVU695
 1974              		.loc 1 1287 1 is_stmt 0 view .LVU696
 1975 0000 70B5     		push	{r4, r5, r6, lr}
 1976              		.cfi_def_cfa_offset 16
 1977              		.cfi_offset 4, -16
 1978              		.cfi_offset 5, -12
 1979              		.cfi_offset 6, -8
 1980              		.cfi_offset 14, -4
 1981 0002 0D46     		mov	r5, r1
 1982 0004 88B0     		sub	sp, sp, #32
 1983              		.cfi_def_cfa_offset 48
 1984              		.loc 1 1287 1 view .LVU697
 1985 0006 1446     		mov	r4, r2
 1986              	.LBB19:
 1987              		.loc 1 1298 5 view .LVU698
 1988 0008 234E     		ldr	r6, .L208
 1989              	.LBE19:
 1990              		.loc 1 1293 6 view .LVU699
 1991 000a 00BB     		cbnz	r0, .L205
 1992              		.loc 1 1295 5 is_stmt 1 view .LVU700
 1993              		.loc 1 1298 5 view .LVU701
 1994              	.LBB20:
 1995              		.loc 1 1298 5 view .LVU702
ARM GAS  C:\Users\DEVELO~1\AppData\Local\Temp\ccPkHjk7.s 			page 36


 1996              		.loc 1 1298 5 view .LVU703
 1997 000c D6F8E030 		ldr	r3, [r6, #224]
 1998              	.LBE20:
 1999              		.loc 1 1306 5 is_stmt 0 view .LVU704
 2000 0010 03A9     		add	r1, sp, #12
 2001              	.LVL176:
 2002              	.LBB21:
 2003              		.loc 1 1298 5 view .LVU705
 2004 0012 43F00103 		orr	r3, r3, #1
 2005 0016 C6F8E030 		str	r3, [r6, #224]
 2006              		.loc 1 1298 5 is_stmt 1 view .LVU706
 2007 001a D6F8E030 		ldr	r3, [r6, #224]
 2008              	.LBE21:
 2009              		.loc 1 1304 26 is_stmt 0 view .LVU707
 2010 001e 0590     		str	r0, [sp, #20]
 2011              	.LBB22:
 2012              		.loc 1 1298 5 view .LVU708
 2013 0020 03F00103 		and	r3, r3, #1
 2014              	.LBE22:
 2015              		.loc 1 1305 31 view .LVU709
 2016 0024 0790     		str	r0, [sp, #28]
 2017              		.loc 1 1306 5 view .LVU710
 2018 0026 1D48     		ldr	r0, .L208+4
 2019              	.LVL177:
 2020              	.LBB23:
 2021              		.loc 1 1298 5 view .LVU711
 2022 0028 0193     		str	r3, [sp, #4]
 2023              		.loc 1 1298 5 is_stmt 1 view .LVU712
 2024              	.LBE23:
 2025              		.loc 1 1301 25 is_stmt 0 view .LVU713
 2026 002a 4FF48073 		mov	r3, #256
 2027              	.LBB24:
 2028              		.loc 1 1298 5 view .LVU714
 2029 002e 019A     		ldr	r2, [sp, #4]
 2030              	.LVL178:
 2031              		.loc 1 1298 5 view .LVU715
 2032              	.LBE24:
 2033              		.loc 1 1298 5 is_stmt 1 view .LVU716
 2034              		.loc 1 1301 5 view .LVU717
 2035              		.loc 1 1301 25 is_stmt 0 view .LVU718
 2036 0030 0393     		str	r3, [sp, #12]
 2037              		.loc 1 1302 5 is_stmt 1 view .LVU719
 2038              		.loc 1 1302 26 is_stmt 0 view .LVU720
 2039 0032 0223     		movs	r3, #2
 2040 0034 0493     		str	r3, [sp, #16]
 2041              		.loc 1 1303 5 is_stmt 1 view .LVU721
 2042              		.loc 1 1303 27 is_stmt 0 view .LVU722
 2043 0036 0323     		movs	r3, #3
 2044 0038 0693     		str	r3, [sp, #24]
 2045              		.loc 1 1304 5 is_stmt 1 view .LVU723
 2046              		.loc 1 1305 5 view .LVU724
 2047              		.loc 1 1306 5 view .LVU725
 2048 003a FFF7FEFF 		bl	HAL_GPIO_Init
 2049              	.LVL179:
 2050              		.loc 1 1309 5 view .LVU726
 2051 003e 3369     		ldr	r3, [r6, #16]
 2052 0040 23F0FE73 		bic	r3, r3, #33292288
ARM GAS  C:\Users\DEVELO~1\AppData\Local\Temp\ccPkHjk7.s 			page 37


 2053 0044 2B43     		orrs	r3, r3, r5
 2054 0046 2343     		orrs	r3, r3, r4
 2055 0048 3361     		str	r3, [r6, #16]
 2056              		.loc 1 1329 1 is_stmt 0 view .LVU727
 2057 004a 08B0     		add	sp, sp, #32
 2058              		.cfi_remember_state
 2059              		.cfi_def_cfa_offset 16
 2060              		@ sp needed
 2061 004c 70BD     		pop	{r4, r5, r6, pc}
 2062              	.LVL180:
 2063              	.L205:
 2064              		.cfi_restore_state
 2065              		.loc 1 1313 5 is_stmt 1 view .LVU728
 2066              		.loc 1 1316 5 view .LVU729
 2067              	.LBB25:
 2068              		.loc 1 1316 5 view .LVU730
 2069              		.loc 1 1316 5 view .LVU731
 2070 004e D6F8E030 		ldr	r3, [r6, #224]
 2071              	.LBE25:
 2072              		.loc 1 1322 26 is_stmt 0 view .LVU732
 2073 0052 0022     		movs	r2, #0
 2074              	.LVL181:
 2075              		.loc 1 1319 25 view .LVU733
 2076 0054 4FF40071 		mov	r1, #512
 2077              	.LVL182:
 2078              		.loc 1 1324 5 view .LVU734
 2079 0058 1148     		ldr	r0, .L208+8
 2080              	.LVL183:
 2081              	.LBB26:
 2082              		.loc 1 1316 5 view .LVU735
 2083 005a 43F00403 		orr	r3, r3, #4
 2084 005e C6F8E030 		str	r3, [r6, #224]
 2085              		.loc 1 1316 5 is_stmt 1 view .LVU736
 2086 0062 D6F8E030 		ldr	r3, [r6, #224]
 2087              	.LBE26:
 2088              		.loc 1 1322 26 is_stmt 0 view .LVU737
 2089 0066 0592     		str	r2, [sp, #20]
 2090              	.LBB27:
 2091              		.loc 1 1316 5 view .LVU738
 2092 0068 03F00403 		and	r3, r3, #4
 2093              	.LBE27:
 2094              		.loc 1 1323 31 view .LVU739
 2095 006c 0792     		str	r2, [sp, #28]
 2096              		.loc 1 1320 26 view .LVU740
 2097 006e 0222     		movs	r2, #2
 2098              		.loc 1 1319 25 view .LVU741
 2099 0070 0391     		str	r1, [sp, #12]
 2100              	.LBB28:
 2101              		.loc 1 1316 5 view .LVU742
 2102 0072 0293     		str	r3, [sp, #8]
 2103              		.loc 1 1316 5 is_stmt 1 view .LVU743
 2104              	.LBE28:
 2105              		.loc 1 1321 27 is_stmt 0 view .LVU744
 2106 0074 0323     		movs	r3, #3
 2107              	.LBB29:
 2108              		.loc 1 1316 5 view .LVU745
 2109 0076 0299     		ldr	r1, [sp, #8]
ARM GAS  C:\Users\DEVELO~1\AppData\Local\Temp\ccPkHjk7.s 			page 38


 2110              	.LBE29:
 2111              		.loc 1 1316 5 is_stmt 1 view .LVU746
 2112              		.loc 1 1319 5 view .LVU747
 2113              		.loc 1 1320 5 view .LVU748
 2114              		.loc 1 1324 5 is_stmt 0 view .LVU749
 2115 0078 03A9     		add	r1, sp, #12
 2116              		.loc 1 1321 27 view .LVU750
 2117 007a 0693     		str	r3, [sp, #24]
 2118              		.loc 1 1320 26 view .LVU751
 2119 007c 0492     		str	r2, [sp, #16]
 2120              		.loc 1 1321 5 is_stmt 1 view .LVU752
 2121              		.loc 1 1322 5 view .LVU753
 2122              		.loc 1 1323 5 view .LVU754
 2123              		.loc 1 1324 5 view .LVU755
 2124 007e FFF7FEFF 		bl	HAL_GPIO_Init
 2125              	.LVL184:
 2126              		.loc 1 1327 5 view .LVU756
 2127 0082 3369     		ldr	r3, [r6, #16]
 2128 0084 23F07E43 		bic	r3, r3, #-33554432
 2129 0088 43EA0501 		orr	r1, r3, r5
 2130 008c 41EAC411 		orr	r1, r1, r4, lsl #7
 2131 0090 3161     		str	r1, [r6, #16]
 2132              		.loc 1 1329 1 is_stmt 0 view .LVU757
 2133 0092 08B0     		add	sp, sp, #32
 2134              		.cfi_def_cfa_offset 16
 2135              		@ sp needed
 2136 0094 70BD     		pop	{r4, r5, r6, pc}
 2137              	.LVL185:
 2138              	.L209:
 2139              		.loc 1 1329 1 view .LVU758
 2140 0096 00BF     		.align	2
 2141              	.L208:
 2142 0098 00440258 		.word	1476543488
 2143 009c 00000258 		.word	1476526080
 2144 00a0 00080258 		.word	1476528128
 2145              		.cfi_endproc
 2146              	.LFE144:
 2147              		.size	HAL_RCC_MCOConfig, .-HAL_RCC_MCOConfig
 2148              		.section	.text.HAL_RCC_EnableCSS,"ax",%progbits
 2149              		.align	1
 2150              		.p2align 2,,3
 2151              		.global	HAL_RCC_EnableCSS
 2152              		.syntax unified
 2153              		.thumb
 2154              		.thumb_func
 2155              		.type	HAL_RCC_EnableCSS, %function
 2156              	HAL_RCC_EnableCSS:
 2157              	.LFB145:
 2158              		.loc 1 1341 1 is_stmt 1 view -0
 2159              		.cfi_startproc
 2160              		@ args = 0, pretend = 0, frame = 0
 2161              		@ frame_needed = 0, uses_anonymous_args = 0
 2162              		@ link register save eliminated.
 2163              		.loc 1 1342 3 view .LVU760
 2164 0000 024A     		ldr	r2, .L211
 2165 0002 1368     		ldr	r3, [r2]
 2166 0004 43F40023 		orr	r3, r3, #524288
ARM GAS  C:\Users\DEVELO~1\AppData\Local\Temp\ccPkHjk7.s 			page 39


 2167 0008 1360     		str	r3, [r2]
 2168              		.loc 1 1343 1 is_stmt 0 view .LVU761
 2169 000a 7047     		bx	lr
 2170              	.L212:
 2171              		.align	2
 2172              	.L211:
 2173 000c 00440258 		.word	1476543488
 2174              		.cfi_endproc
 2175              	.LFE145:
 2176              		.size	HAL_RCC_EnableCSS, .-HAL_RCC_EnableCSS
 2177              		.section	.text.HAL_RCC_DisableCSS,"ax",%progbits
 2178              		.align	1
 2179              		.p2align 2,,3
 2180              		.global	HAL_RCC_DisableCSS
 2181              		.syntax unified
 2182              		.thumb
 2183              		.thumb_func
 2184              		.type	HAL_RCC_DisableCSS, %function
 2185              	HAL_RCC_DisableCSS:
 2186              	.LFB146:
 2187              		.loc 1 1350 1 is_stmt 1 view -0
 2188              		.cfi_startproc
 2189              		@ args = 0, pretend = 0, frame = 0
 2190              		@ frame_needed = 0, uses_anonymous_args = 0
 2191              		@ link register save eliminated.
 2192              		.loc 1 1351 3 view .LVU763
 2193 0000 024A     		ldr	r2, .L214
 2194 0002 1368     		ldr	r3, [r2]
 2195 0004 23F40023 		bic	r3, r3, #524288
 2196 0008 1360     		str	r3, [r2]
 2197              		.loc 1 1352 1 is_stmt 0 view .LVU764
 2198 000a 7047     		bx	lr
 2199              	.L215:
 2200              		.align	2
 2201              	.L214:
 2202 000c 00440258 		.word	1476543488
 2203              		.cfi_endproc
 2204              	.LFE146:
 2205              		.size	HAL_RCC_DisableCSS, .-HAL_RCC_DisableCSS
 2206              		.section	.text.HAL_RCC_GetSysClockFreq,"ax",%progbits
 2207              		.align	1
 2208              		.p2align 2,,3
 2209              		.global	HAL_RCC_GetSysClockFreq
 2210              		.syntax unified
 2211              		.thumb
 2212              		.thumb_func
 2213              		.type	HAL_RCC_GetSysClockFreq, %function
 2214              	HAL_RCC_GetSysClockFreq:
 2215              	.LFB147:
 2216              		.loc 1 1389 1 is_stmt 1 view -0
 2217              		.cfi_startproc
 2218              		@ args = 0, pretend = 0, frame = 0
 2219              		@ frame_needed = 0, uses_anonymous_args = 0
 2220              		@ link register save eliminated.
 2221              		.loc 1 1390 3 view .LVU766
 2222              		.loc 1 1391 3 view .LVU767
 2223              		.loc 1 1392 3 view .LVU768
ARM GAS  C:\Users\DEVELO~1\AppData\Local\Temp\ccPkHjk7.s 			page 40


 2224              		.loc 1 1396 3 view .LVU769
 2225              		.loc 1 1396 14 is_stmt 0 view .LVU770
 2226 0000 0C4A     		ldr	r2, .L223
 2227 0002 1369     		ldr	r3, [r2, #16]
 2228              		.loc 1 1396 21 view .LVU771
 2229 0004 03F03803 		and	r3, r3, #56
 2230              		.loc 1 1396 3 view .LVU772
 2231 0008 102B     		cmp	r3, #16
 2232 000a 04D0     		beq	.L219
 2233 000c 182B     		cmp	r3, #24
 2234 000e 0DD0     		beq	.L218
 2235 0010 1BB1     		cbz	r3, .L222
 2236              		.loc 1 1412 20 view .LVU773
 2237 0012 0948     		ldr	r0, .L223+4
 2238 0014 7047     		bx	lr
 2239              	.L219:
 2240              		.loc 1 1396 3 view .LVU774
 2241 0016 0948     		ldr	r0, .L223+8
 2242 0018 7047     		bx	lr
 2243              	.L222:
 2244              		.loc 1 1400 7 is_stmt 1 view .LVU775
 2245              		.loc 1 1400 11 is_stmt 0 view .LVU776
 2246 001a 1368     		ldr	r3, [r2]
 2247              		.loc 1 1400 10 view .LVU777
 2248 001c 9B06     		lsls	r3, r3, #26
 2249 001e 07D5     		bpl	.L221
 2250              		.loc 1 1402 9 is_stmt 1 view .LVU778
 2251              		.loc 1 1402 49 is_stmt 0 view .LVU779
 2252 0020 1368     		ldr	r3, [r2]
 2253              		.loc 1 1402 22 view .LVU780
 2254 0022 0748     		ldr	r0, .L223+12
 2255              		.loc 1 1402 77 view .LVU781
 2256 0024 C3F3C103 		ubfx	r3, r3, #3, #2
 2257              		.loc 1 1402 22 view .LVU782
 2258 0028 D840     		lsrs	r0, r0, r3
 2259              	.LVL186:
 2260              		.loc 1 1402 22 view .LVU783
 2261 002a 7047     		bx	lr
 2262              	.LVL187:
 2263              	.L218:
 2264              		.loc 1 1402 22 view .LVU784
 2265 002c FFF7FEBF 		b	HAL_RCC_GetSysClockFreq.part.0
 2266              	.LVL188:
 2267              	.L221:
 2268              		.loc 1 1406 22 view .LVU785
 2269 0030 0348     		ldr	r0, .L223+12
 2270              	.LVL189:
 2271              		.loc 1 1472 3 is_stmt 1 view .LVU786
 2272              		.loc 1 1473 1 is_stmt 0 view .LVU787
 2273 0032 7047     		bx	lr
 2274              	.L224:
 2275              		.align	2
 2276              	.L223:
 2277 0034 00440258 		.word	1476543488
 2278 0038 00093D00 		.word	4000000
 2279 003c 00127A00 		.word	8000000
 2280 0040 0090D003 		.word	64000000
ARM GAS  C:\Users\DEVELO~1\AppData\Local\Temp\ccPkHjk7.s 			page 41


 2281              		.cfi_endproc
 2282              	.LFE147:
 2283              		.size	HAL_RCC_GetSysClockFreq, .-HAL_RCC_GetSysClockFreq
 2284              		.section	.text.HAL_RCC_ClockConfig,"ax",%progbits
 2285              		.align	1
 2286              		.p2align 2,,3
 2287              		.global	HAL_RCC_ClockConfig
 2288              		.syntax unified
 2289              		.thumb
 2290              		.thumb_func
 2291              		.type	HAL_RCC_ClockConfig, %function
 2292              	HAL_RCC_ClockConfig:
 2293              	.LVL190:
 2294              	.LFB143:
 2295              		.loc 1 923 1 is_stmt 1 view -0
 2296              		.cfi_startproc
 2297              		@ args = 0, pretend = 0, frame = 0
 2298              		@ frame_needed = 0, uses_anonymous_args = 0
 2299              		.loc 1 924 3 view .LVU789
 2300              		.loc 1 925 3 view .LVU790
 2301              		.loc 1 926 3 view .LVU791
 2302              		.loc 1 929 3 view .LVU792
 2303              		.loc 1 929 6 is_stmt 0 view .LVU793
 2304 0000 0028     		cmp	r0, #0
 2305 0002 00F00C81 		beq	.L292
 2306              		.loc 1 943 18 view .LVU794
 2307 0006 8C4A     		ldr	r2, .L297
 2308 0008 1368     		ldr	r3, [r2]
 2309 000a 03F00F03 		and	r3, r3, #15
 2310              		.loc 1 943 6 view .LVU795
 2311 000e 8B42     		cmp	r3, r1
 2312              		.loc 1 923 1 view .LVU796
 2313 0010 2DE9F041 		push	{r4, r5, r6, r7, r8, lr}
 2314              		.cfi_def_cfa_offset 24
 2315              		.cfi_offset 4, -24
 2316              		.cfi_offset 5, -20
 2317              		.cfi_offset 6, -16
 2318              		.cfi_offset 7, -12
 2319              		.cfi_offset 8, -8
 2320              		.cfi_offset 14, -4
 2321 0014 0446     		mov	r4, r0
 2322 0016 0D46     		mov	r5, r1
 2323              		.loc 1 935 3 is_stmt 1 view .LVU797
 2324              		.loc 1 936 3 view .LVU798
 2325              		.loc 1 943 3 view .LVU799
 2326              		.loc 1 943 6 is_stmt 0 view .LVU800
 2327 0018 0CD2     		bcs	.L232
 2328              		.loc 1 946 5 is_stmt 1 view .LVU801
 2329 001a 1368     		ldr	r3, [r2]
 2330 001c 23F00F03 		bic	r3, r3, #15
 2331 0020 0B43     		orrs	r3, r3, r1
 2332 0022 1360     		str	r3, [r2]
 2333              		.loc 1 950 5 view .LVU802
 2334              		.loc 1 950 9 is_stmt 0 view .LVU803
 2335 0024 1368     		ldr	r3, [r2]
 2336 0026 03F00F03 		and	r3, r3, #15
 2337              		.loc 1 950 8 view .LVU804
ARM GAS  C:\Users\DEVELO~1\AppData\Local\Temp\ccPkHjk7.s 			page 42


 2338 002a 8B42     		cmp	r3, r1
 2339 002c 02D0     		beq	.L232
 2340              	.LVL191:
 2341              	.L231:
 2342              		.loc 1 931 12 view .LVU805
 2343 002e 0120     		movs	r0, #1
 2344              	.L288:
 2345              		.loc 1 1240 1 view .LVU806
 2346 0030 BDE8F081 		pop	{r4, r5, r6, r7, r8, pc}
 2347              	.LVL192:
 2348              	.L232:
 2349              		.loc 1 959 3 is_stmt 1 view .LVU807
 2350              		.loc 1 959 26 is_stmt 0 view .LVU808
 2351 0034 2368     		ldr	r3, [r4]
 2352              		.loc 1 959 6 view .LVU809
 2353 0036 5F07     		lsls	r7, r3, #29
 2354 0038 0BD5     		bpl	.L230
 2355              		.loc 1 962 5 is_stmt 1 view .LVU810
 2356              		.loc 1 962 51 is_stmt 0 view .LVU811
 2357 003a 8049     		ldr	r1, .L297+4
 2358              	.LVL193:
 2359              		.loc 1 962 27 view .LVU812
 2360 003c 2069     		ldr	r0, [r4, #16]
 2361              	.LVL194:
 2362              		.loc 1 962 51 view .LVU813
 2363 003e 8A69     		ldr	r2, [r1, #24]
 2364              		.loc 1 962 60 view .LVU814
 2365 0040 02F07002 		and	r2, r2, #112
 2366              		.loc 1 962 8 view .LVU815
 2367 0044 9042     		cmp	r0, r2
 2368 0046 04D9     		bls	.L230
 2369              		.loc 1 964 7 is_stmt 1 view .LVU816
 2370              		.loc 1 965 7 view .LVU817
 2371 0048 8A69     		ldr	r2, [r1, #24]
 2372 004a 22F07002 		bic	r2, r2, #112
 2373 004e 0243     		orrs	r2, r2, r0
 2374 0050 8A61     		str	r2, [r1, #24]
 2375              	.L230:
 2376              		.loc 1 977 3 view .LVU818
 2377              		.loc 1 977 6 is_stmt 0 view .LVU819
 2378 0052 1E07     		lsls	r6, r3, #28
 2379 0054 0BD5     		bpl	.L233
 2380              		.loc 1 980 5 is_stmt 1 view .LVU820
 2381              		.loc 1 980 51 is_stmt 0 view .LVU821
 2382 0056 7949     		ldr	r1, .L297+4
 2383              		.loc 1 980 27 view .LVU822
 2384 0058 6069     		ldr	r0, [r4, #20]
 2385              		.loc 1 980 51 view .LVU823
 2386 005a CA69     		ldr	r2, [r1, #28]
 2387              		.loc 1 980 60 view .LVU824
 2388 005c 02F07002 		and	r2, r2, #112
 2389              		.loc 1 980 8 view .LVU825
 2390 0060 9042     		cmp	r0, r2
 2391 0062 04D9     		bls	.L233
 2392              		.loc 1 982 7 is_stmt 1 view .LVU826
 2393              		.loc 1 983 7 view .LVU827
 2394 0064 CA69     		ldr	r2, [r1, #28]
ARM GAS  C:\Users\DEVELO~1\AppData\Local\Temp\ccPkHjk7.s 			page 43


 2395 0066 22F07002 		bic	r2, r2, #112
 2396 006a 0243     		orrs	r2, r2, r0
 2397 006c CA61     		str	r2, [r1, #28]
 2398              	.L233:
 2399              		.loc 1 994 3 view .LVU828
 2400              		.loc 1 994 6 is_stmt 0 view .LVU829
 2401 006e D806     		lsls	r0, r3, #27
 2402 0070 0BD5     		bpl	.L234
 2403              		.loc 1 997 5 is_stmt 1 view .LVU830
 2404              		.loc 1 997 51 is_stmt 0 view .LVU831
 2405 0072 7249     		ldr	r1, .L297+4
 2406              		.loc 1 997 27 view .LVU832
 2407 0074 A069     		ldr	r0, [r4, #24]
 2408              		.loc 1 997 51 view .LVU833
 2409 0076 CA69     		ldr	r2, [r1, #28]
 2410              		.loc 1 997 60 view .LVU834
 2411 0078 02F4E062 		and	r2, r2, #1792
 2412              		.loc 1 997 8 view .LVU835
 2413 007c 9042     		cmp	r0, r2
 2414 007e 04D9     		bls	.L234
 2415              		.loc 1 999 7 is_stmt 1 view .LVU836
 2416              		.loc 1 1000 7 view .LVU837
 2417 0080 CA69     		ldr	r2, [r1, #28]
 2418 0082 22F4E062 		bic	r2, r2, #1792
 2419 0086 0243     		orrs	r2, r2, r0
 2420 0088 CA61     		str	r2, [r1, #28]
 2421              	.L234:
 2422              		.loc 1 1012 3 view .LVU838
 2423              		.loc 1 1012 6 is_stmt 0 view .LVU839
 2424 008a 9906     		lsls	r1, r3, #26
 2425 008c 0BD5     		bpl	.L235
 2426              		.loc 1 1015 5 is_stmt 1 view .LVU840
 2427              		.loc 1 1015 51 is_stmt 0 view .LVU841
 2428 008e 6B49     		ldr	r1, .L297+4
 2429              		.loc 1 1015 27 view .LVU842
 2430 0090 E069     		ldr	r0, [r4, #28]
 2431              		.loc 1 1015 51 view .LVU843
 2432 0092 0A6A     		ldr	r2, [r1, #32]
 2433              		.loc 1 1015 60 view .LVU844
 2434 0094 02F07002 		and	r2, r2, #112
 2435              		.loc 1 1015 8 view .LVU845
 2436 0098 9042     		cmp	r0, r2
 2437 009a 04D9     		bls	.L235
 2438              		.loc 1 1017 7 is_stmt 1 view .LVU846
 2439              		.loc 1 1018 7 view .LVU847
 2440 009c 0A6A     		ldr	r2, [r1, #32]
 2441 009e 22F07002 		bic	r2, r2, #112
 2442 00a2 0243     		orrs	r2, r2, r0
 2443 00a4 0A62     		str	r2, [r1, #32]
 2444              	.L235:
 2445              		.loc 1 1030 3 view .LVU848
 2446              		.loc 1 1030 6 is_stmt 0 view .LVU849
 2447 00a6 9A07     		lsls	r2, r3, #30
 2448 00a8 40F1AB80 		bpl	.L236
 2449              		.loc 1 1033 5 is_stmt 1 view .LVU850
 2450              		.loc 1 1033 50 is_stmt 0 view .LVU851
 2451 00ac 6348     		ldr	r0, .L297+4
ARM GAS  C:\Users\DEVELO~1\AppData\Local\Temp\ccPkHjk7.s 			page 44


 2452              		.loc 1 1033 27 view .LVU852
 2453 00ae E168     		ldr	r1, [r4, #12]
 2454              		.loc 1 1033 50 view .LVU853
 2455 00b0 8269     		ldr	r2, [r0, #24]
 2456              		.loc 1 1033 59 view .LVU854
 2457 00b2 02F00F02 		and	r2, r2, #15
 2458              		.loc 1 1033 8 view .LVU855
 2459 00b6 9142     		cmp	r1, r2
 2460 00b8 04D9     		bls	.L237
 2461              		.loc 1 1036 7 is_stmt 1 view .LVU856
 2462              		.loc 1 1037 7 view .LVU857
 2463 00ba 8269     		ldr	r2, [r0, #24]
 2464 00bc 22F00F02 		bic	r2, r2, #15
 2465 00c0 0A43     		orrs	r2, r2, r1
 2466 00c2 8261     		str	r2, [r0, #24]
 2467              	.L237:
 2468              		.loc 1 1050 3 view .LVU858
 2469              		.loc 1 1050 6 is_stmt 0 view .LVU859
 2470 00c4 D807     		lsls	r0, r3, #31
 2471 00c6 30D5     		bpl	.L253
 2472              	.L252:
 2473              		.loc 1 1052 5 is_stmt 1 view .LVU860
 2474              		.loc 1 1053 5 view .LVU861
 2475              		.loc 1 1055 5 view .LVU862
 2476 00c8 5C4A     		ldr	r2, .L297+4
 2477 00ca A168     		ldr	r1, [r4, #8]
 2478 00cc 9369     		ldr	r3, [r2, #24]
 2479 00ce 23F47063 		bic	r3, r3, #3840
 2480 00d2 0B43     		orrs	r3, r3, r1
 2481 00d4 9361     		str	r3, [r2, #24]
 2482              		.loc 1 1060 5 view .LVU863
 2483              		.loc 1 1060 26 is_stmt 0 view .LVU864
 2484 00d6 6168     		ldr	r1, [r4, #4]
 2485              		.loc 1 1063 11 view .LVU865
 2486 00d8 1368     		ldr	r3, [r2]
 2487              		.loc 1 1060 8 view .LVU866
 2488 00da 0229     		cmp	r1, #2
 2489 00dc 00F0A180 		beq	.L293
 2490              		.loc 1 1069 10 is_stmt 1 view .LVU867
 2491              		.loc 1 1069 13 is_stmt 0 view .LVU868
 2492 00e0 0329     		cmp	r1, #3
 2493 00e2 00F09880 		beq	.L294
 2494              		.loc 1 1078 10 is_stmt 1 view .LVU869
 2495              		.loc 1 1078 13 is_stmt 0 view .LVU870
 2496 00e6 0129     		cmp	r1, #1
 2497 00e8 00F0A180 		beq	.L295
 2498              		.loc 1 1090 7 is_stmt 1 view .LVU871
 2499              		.loc 1 1090 10 is_stmt 0 view .LVU872
 2500 00ec 5807     		lsls	r0, r3, #29
 2501 00ee 9ED5     		bpl	.L231
 2502              	.L239:
 2503              		.loc 1 1095 5 is_stmt 1 view .LVU873
 2504 00f0 524E     		ldr	r6, .L297+4
 2505              		.loc 1 1102 10 is_stmt 0 view .LVU874
 2506 00f2 41F28838 		movw	r8, #5000
 2507              		.loc 1 1095 5 view .LVU875
 2508 00f6 3369     		ldr	r3, [r6, #16]
ARM GAS  C:\Users\DEVELO~1\AppData\Local\Temp\ccPkHjk7.s 			page 45


 2509 00f8 23F00703 		bic	r3, r3, #7
 2510 00fc 0B43     		orrs	r3, r3, r1
 2511 00fe 3361     		str	r3, [r6, #16]
 2512              		.loc 1 1098 5 is_stmt 1 view .LVU876
 2513              		.loc 1 1098 17 is_stmt 0 view .LVU877
 2514 0100 FFF7FEFF 		bl	HAL_GetTick
 2515              	.LVL195:
 2516 0104 0746     		mov	r7, r0
 2517              	.LVL196:
 2518              		.loc 1 1100 5 is_stmt 1 view .LVU878
 2519              		.loc 1 1100 11 is_stmt 0 view .LVU879
 2520 0106 05E0     		b	.L242
 2521              	.LVL197:
 2522              	.L243:
 2523              		.loc 1 1102 12 view .LVU880
 2524 0108 FFF7FEFF 		bl	HAL_GetTick
 2525              	.LVL198:
 2526              		.loc 1 1102 26 view .LVU881
 2527 010c C01B     		subs	r0, r0, r7
 2528              		.loc 1 1102 10 view .LVU882
 2529 010e 4045     		cmp	r0, r8
 2530 0110 00F28B80 		bhi	.L254
 2531              	.L242:
 2532              		.loc 1 1102 7 is_stmt 1 view .LVU883
 2533              		.loc 1 1100 42 view .LVU884
 2534              		.loc 1 1100 12 is_stmt 0 view .LVU885
 2535 0114 3369     		ldr	r3, [r6, #16]
 2536              		.loc 1 1100 78 view .LVU886
 2537 0116 6268     		ldr	r2, [r4, #4]
 2538              		.loc 1 1100 12 view .LVU887
 2539 0118 03F03803 		and	r3, r3, #56
 2540              		.loc 1 1100 42 view .LVU888
 2541 011c B3EBC20F 		cmp	r3, r2, lsl #3
 2542 0120 F2D1     		bne	.L243
 2543              		.loc 1 1112 3 is_stmt 1 view .LVU889
 2544              		.loc 1 1112 26 is_stmt 0 view .LVU890
 2545 0122 2368     		ldr	r3, [r4]
 2546              		.loc 1 1112 6 view .LVU891
 2547 0124 9907     		lsls	r1, r3, #30
 2548 0126 06D5     		bpl	.L244
 2549              		.loc 1 1115 27 view .LVU892
 2550 0128 E168     		ldr	r1, [r4, #12]
 2551              	.LVL199:
 2552              	.L253:
 2553              		.loc 1 1115 5 is_stmt 1 view .LVU893
 2554              		.loc 1 1115 50 is_stmt 0 view .LVU894
 2555 012a 4448     		ldr	r0, .L297+4
 2556 012c 8269     		ldr	r2, [r0, #24]
 2557              		.loc 1 1115 59 view .LVU895
 2558 012e 02F00F02 		and	r2, r2, #15
 2559              		.loc 1 1115 8 view .LVU896
 2560 0132 8A42     		cmp	r2, r1
 2561 0134 69D8     		bhi	.L296
 2562              	.L244:
 2563              		.loc 1 1132 3 is_stmt 1 view .LVU897
 2564              		.loc 1 1132 18 is_stmt 0 view .LVU898
 2565 0136 4049     		ldr	r1, .L297
ARM GAS  C:\Users\DEVELO~1\AppData\Local\Temp\ccPkHjk7.s 			page 46


 2566 0138 0A68     		ldr	r2, [r1]
 2567 013a 02F00F02 		and	r2, r2, #15
 2568              		.loc 1 1132 6 view .LVU899
 2569 013e AA42     		cmp	r2, r5
 2570 0140 0AD9     		bls	.L248
 2571              		.loc 1 1135 5 is_stmt 1 view .LVU900
 2572 0142 0A68     		ldr	r2, [r1]
 2573 0144 22F00F02 		bic	r2, r2, #15
 2574 0148 2A43     		orrs	r2, r2, r5
 2575 014a 0A60     		str	r2, [r1]
 2576              		.loc 1 1139 5 view .LVU901
 2577              		.loc 1 1139 9 is_stmt 0 view .LVU902
 2578 014c 0A68     		ldr	r2, [r1]
 2579 014e 02F00F02 		and	r2, r2, #15
 2580              		.loc 1 1139 8 view .LVU903
 2581 0152 AA42     		cmp	r2, r5
 2582 0154 7FF46BAF 		bne	.L231
 2583              	.L248:
 2584              		.loc 1 1146 3 is_stmt 1 view .LVU904
 2585              		.loc 1 1146 6 is_stmt 0 view .LVU905
 2586 0158 5A07     		lsls	r2, r3, #29
 2587 015a 0BD5     		bpl	.L247
 2588              		.loc 1 1149 5 is_stmt 1 view .LVU906
 2589              		.loc 1 1149 51 is_stmt 0 view .LVU907
 2590 015c 3749     		ldr	r1, .L297+4
 2591              		.loc 1 1149 27 view .LVU908
 2592 015e 2069     		ldr	r0, [r4, #16]
 2593              		.loc 1 1149 51 view .LVU909
 2594 0160 8A69     		ldr	r2, [r1, #24]
 2595              		.loc 1 1149 60 view .LVU910
 2596 0162 02F07002 		and	r2, r2, #112
 2597              		.loc 1 1149 8 view .LVU911
 2598 0166 9042     		cmp	r0, r2
 2599 0168 04D2     		bcs	.L247
 2600              		.loc 1 1151 7 is_stmt 1 view .LVU912
 2601              		.loc 1 1152 7 view .LVU913
 2602 016a 8A69     		ldr	r2, [r1, #24]
 2603 016c 22F07002 		bic	r2, r2, #112
 2604 0170 0243     		orrs	r2, r2, r0
 2605 0172 8A61     		str	r2, [r1, #24]
 2606              	.L247:
 2607              		.loc 1 1164 3 view .LVU914
 2608              		.loc 1 1164 6 is_stmt 0 view .LVU915
 2609 0174 1F07     		lsls	r7, r3, #28
 2610 0176 0BD5     		bpl	.L249
 2611              		.loc 1 1167 5 is_stmt 1 view .LVU916
 2612              		.loc 1 1167 51 is_stmt 0 view .LVU917
 2613 0178 3049     		ldr	r1, .L297+4
 2614              		.loc 1 1167 27 view .LVU918
 2615 017a 6069     		ldr	r0, [r4, #20]
 2616              		.loc 1 1167 51 view .LVU919
 2617 017c CA69     		ldr	r2, [r1, #28]
 2618              		.loc 1 1167 60 view .LVU920
 2619 017e 02F07002 		and	r2, r2, #112
 2620              		.loc 1 1167 8 view .LVU921
 2621 0182 9042     		cmp	r0, r2
 2622 0184 04D2     		bcs	.L249
ARM GAS  C:\Users\DEVELO~1\AppData\Local\Temp\ccPkHjk7.s 			page 47


 2623              		.loc 1 1169 7 is_stmt 1 view .LVU922
 2624              		.loc 1 1170 7 view .LVU923
 2625 0186 CA69     		ldr	r2, [r1, #28]
 2626 0188 22F07002 		bic	r2, r2, #112
 2627 018c 0243     		orrs	r2, r2, r0
 2628 018e CA61     		str	r2, [r1, #28]
 2629              	.L249:
 2630              		.loc 1 1182 3 view .LVU924
 2631              		.loc 1 1182 6 is_stmt 0 view .LVU925
 2632 0190 DE06     		lsls	r6, r3, #27
 2633 0192 0BD5     		bpl	.L250
 2634              		.loc 1 1185 5 is_stmt 1 view .LVU926
 2635              		.loc 1 1185 51 is_stmt 0 view .LVU927
 2636 0194 2949     		ldr	r1, .L297+4
 2637              		.loc 1 1185 27 view .LVU928
 2638 0196 A069     		ldr	r0, [r4, #24]
 2639              		.loc 1 1185 51 view .LVU929
 2640 0198 CA69     		ldr	r2, [r1, #28]
 2641              		.loc 1 1185 60 view .LVU930
 2642 019a 02F4E062 		and	r2, r2, #1792
 2643              		.loc 1 1185 8 view .LVU931
 2644 019e 9042     		cmp	r0, r2
 2645 01a0 04D2     		bcs	.L250
 2646              		.loc 1 1187 7 is_stmt 1 view .LVU932
 2647              		.loc 1 1188 7 view .LVU933
 2648 01a2 CA69     		ldr	r2, [r1, #28]
 2649 01a4 22F4E062 		bic	r2, r2, #1792
 2650 01a8 0243     		orrs	r2, r2, r0
 2651 01aa CA61     		str	r2, [r1, #28]
 2652              	.L250:
 2653              		.loc 1 1200 3 view .LVU934
 2654              		.loc 1 1200 6 is_stmt 0 view .LVU935
 2655 01ac 9D06     		lsls	r5, r3, #26
 2656              	.LVL200:
 2657              		.loc 1 1200 6 view .LVU936
 2658 01ae 0BD5     		bpl	.L251
 2659              		.loc 1 1203 5 is_stmt 1 view .LVU937
 2660              		.loc 1 1203 51 is_stmt 0 view .LVU938
 2661 01b0 224A     		ldr	r2, .L297+4
 2662              		.loc 1 1203 27 view .LVU939
 2663 01b2 E169     		ldr	r1, [r4, #28]
 2664              		.loc 1 1203 51 view .LVU940
 2665 01b4 136A     		ldr	r3, [r2, #32]
 2666              		.loc 1 1203 60 view .LVU941
 2667 01b6 03F07003 		and	r3, r3, #112
 2668              		.loc 1 1203 8 view .LVU942
 2669 01ba 9942     		cmp	r1, r3
 2670 01bc 04D2     		bcs	.L251
 2671              		.loc 1 1205 7 is_stmt 1 view .LVU943
 2672              		.loc 1 1206 7 view .LVU944
 2673 01be 136A     		ldr	r3, [r2, #32]
 2674 01c0 23F07003 		bic	r3, r3, #112
 2675 01c4 0B43     		orrs	r3, r3, r1
 2676 01c6 1362     		str	r3, [r2, #32]
 2677              	.L251:
 2678              		.loc 1 1219 3 view .LVU945
 2679              		.loc 1 1219 25 is_stmt 0 view .LVU946
ARM GAS  C:\Users\DEVELO~1\AppData\Local\Temp\ccPkHjk7.s 			page 48


 2680 01c8 FFF7FEFF 		bl	HAL_RCC_GetSysClockFreq
 2681              	.LVL201:
 2682              		.loc 1 1219 77 view .LVU947
 2683 01cc 1B4A     		ldr	r2, .L297+4
 2684              		.loc 1 1219 25 view .LVU948
 2685 01ce 0346     		mov	r3, r0
 2686              		.loc 1 1219 72 view .LVU949
 2687 01d0 1B48     		ldr	r0, .L297+8
 2688              		.loc 1 1219 77 view .LVU950
 2689 01d2 9169     		ldr	r1, [r2, #24]
 2690              		.loc 1 1225 66 view .LVU951
 2691 01d4 9269     		ldr	r2, [r2, #24]
 2692              		.loc 1 1219 107 view .LVU952
 2693 01d6 C1F30321 		ubfx	r1, r1, #8, #4
 2694              		.loc 1 1233 19 view .LVU953
 2695 01da 1A4D     		ldr	r5, .L297+12
 2696              		.loc 1 1225 94 view .LVU954
 2697 01dc 02F00F02 		and	r2, r2, #15
 2698              		.loc 1 1225 17 view .LVU955
 2699 01e0 194C     		ldr	r4, .L297+16
 2700              	.LVL202:
 2701              		.loc 1 1219 134 view .LVU956
 2702 01e2 415C     		ldrb	r1, [r0, r1]	@ zero_extendqisi2
 2703              		.loc 1 1225 119 view .LVU957
 2704 01e4 825C     		ldrb	r2, [r0, r2]	@ zero_extendqisi2
 2705              		.loc 1 1219 134 view .LVU958
 2706 01e6 01F01F01 		and	r1, r1, #31
 2707              		.loc 1 1237 15 view .LVU959
 2708 01ea 1848     		ldr	r0, .L297+20
 2709              		.loc 1 1225 119 view .LVU960
 2710 01ec 02F01F02 		and	r2, r2, #31
 2711              		.loc 1 1219 23 view .LVU961
 2712 01f0 CB40     		lsrs	r3, r3, r1
 2713              	.LVL203:
 2714              		.loc 1 1225 3 is_stmt 1 view .LVU962
 2715              		.loc 1 1237 15 is_stmt 0 view .LVU963
 2716 01f2 0068     		ldr	r0, [r0]
 2717              		.loc 1 1233 19 view .LVU964
 2718 01f4 2B60     		str	r3, [r5]
 2719              		.loc 1 1225 40 view .LVU965
 2720 01f6 D340     		lsrs	r3, r3, r2
 2721              	.LVL204:
 2722              		.loc 1 1225 17 view .LVU966
 2723 01f8 2360     		str	r3, [r4]
 2724              		.loc 1 1233 3 is_stmt 1 view .LVU967
 2725              		.loc 1 1237 3 view .LVU968
 2726              		.loc 1 1240 1 is_stmt 0 view .LVU969
 2727 01fa BDE8F041 		pop	{r4, r5, r6, r7, r8, lr}
 2728              		.cfi_remember_state
 2729              		.cfi_restore 14
 2730              		.cfi_restore 8
 2731              		.cfi_restore 7
 2732              		.cfi_restore 6
 2733              		.cfi_restore 5
 2734              		.cfi_restore 4
 2735              		.cfi_def_cfa_offset 0
 2736              	.LVL205:
ARM GAS  C:\Users\DEVELO~1\AppData\Local\Temp\ccPkHjk7.s 			page 49


 2737              		.loc 1 1237 15 view .LVU970
 2738 01fe FFF7FEBF 		b	HAL_InitTick
 2739              	.LVL206:
 2740              	.L236:
 2741              		.cfi_restore_state
 2742              		.loc 1 1050 3 is_stmt 1 view .LVU971
 2743              		.loc 1 1050 6 is_stmt 0 view .LVU972
 2744 0202 DA07     		lsls	r2, r3, #31
 2745 0204 3FF560AF 		bmi	.L252
 2746 0208 95E7     		b	.L244
 2747              	.L296:
 2748              		.loc 1 1118 7 is_stmt 1 view .LVU973
 2749              		.loc 1 1119 7 view .LVU974
 2750 020a 8269     		ldr	r2, [r0, #24]
 2751 020c 22F00F02 		bic	r2, r2, #15
 2752 0210 0A43     		orrs	r2, r2, r1
 2753 0212 8261     		str	r2, [r0, #24]
 2754 0214 8FE7     		b	.L244
 2755              	.L294:
 2756              		.loc 1 1072 7 view .LVU975
 2757              		.loc 1 1072 10 is_stmt 0 view .LVU976
 2758 0216 9F01     		lsls	r7, r3, #6
 2759 0218 3FF56AAF 		bmi	.L239
 2760 021c 07E7     		b	.L231
 2761              	.LVL207:
 2762              	.L292:
 2763              		.cfi_def_cfa_offset 0
 2764              		.cfi_restore 4
 2765              		.cfi_restore 5
 2766              		.cfi_restore 6
 2767              		.cfi_restore 7
 2768              		.cfi_restore 8
 2769              		.cfi_restore 14
 2770              		.loc 1 931 12 view .LVU977
 2771 021e 0120     		movs	r0, #1
 2772              	.LVL208:
 2773              		.loc 1 1240 1 view .LVU978
 2774 0220 7047     		bx	lr
 2775              	.LVL209:
 2776              	.L293:
 2777              		.cfi_def_cfa_offset 24
 2778              		.cfi_offset 4, -24
 2779              		.cfi_offset 5, -20
 2780              		.cfi_offset 6, -16
 2781              		.cfi_offset 7, -12
 2782              		.cfi_offset 8, -8
 2783              		.cfi_offset 14, -4
 2784              		.loc 1 1063 7 is_stmt 1 view .LVU979
 2785              		.loc 1 1063 10 is_stmt 0 view .LVU980
 2786 0222 9B03     		lsls	r3, r3, #14
 2787 0224 3FF564AF 		bmi	.L239
 2788 0228 01E7     		b	.L231
 2789              	.LVL210:
 2790              	.L254:
 2791              		.loc 1 1104 16 view .LVU981
 2792 022a 0320     		movs	r0, #3
 2793 022c 00E7     		b	.L288
ARM GAS  C:\Users\DEVELO~1\AppData\Local\Temp\ccPkHjk7.s 			page 50


 2794              	.LVL211:
 2795              	.L295:
 2796              		.loc 1 1081 7 is_stmt 1 view .LVU982
 2797              		.loc 1 1081 10 is_stmt 0 view .LVU983
 2798 022e DE05     		lsls	r6, r3, #23
 2799 0230 3FF55EAF 		bmi	.L239
 2800 0234 FBE6     		b	.L231
 2801              	.L298:
 2802 0236 00BF     		.align	2
 2803              	.L297:
 2804 0238 00200052 		.word	1375739904
 2805 023c 00440258 		.word	1476543488
 2806 0240 00000000 		.word	D1CorePrescTable
 2807 0244 00000000 		.word	SystemCoreClock
 2808 0248 00000000 		.word	SystemD2Clock
 2809 024c 00000000 		.word	uwTickPrio
 2810              		.cfi_endproc
 2811              	.LFE143:
 2812              		.size	HAL_RCC_ClockConfig, .-HAL_RCC_ClockConfig
 2813              		.section	.text.HAL_RCC_GetHCLKFreq,"ax",%progbits
 2814              		.align	1
 2815              		.p2align 2,,3
 2816              		.global	HAL_RCC_GetHCLKFreq
 2817              		.syntax unified
 2818              		.thumb
 2819              		.thumb_func
 2820              		.type	HAL_RCC_GetHCLKFreq, %function
 2821              	HAL_RCC_GetHCLKFreq:
 2822              	.LFB148:
 2823              		.loc 1 1486 1 is_stmt 1 view -0
 2824              		.cfi_startproc
 2825              		@ args = 0, pretend = 0, frame = 0
 2826              		@ frame_needed = 0, uses_anonymous_args = 0
 2827              		.loc 1 1487 3 view .LVU985
 2828              		.loc 1 1490 3 view .LVU986
 2829              	.LBB32:
 2830              	.LBI32:
 2831              		.loc 1 1388 10 view .LVU987
 2832              	.LBB33:
 2833              		.loc 1 1390 3 view .LVU988
 2834              		.loc 1 1391 3 view .LVU989
 2835              		.loc 1 1392 3 view .LVU990
 2836              		.loc 1 1396 3 view .LVU991
 2837              		.loc 1 1396 14 is_stmt 0 view .LVU992
 2838 0000 184A     		ldr	r2, .L307
 2839              	.LBE33:
 2840              	.LBE32:
 2841              		.loc 1 1486 1 view .LVU993
 2842 0002 38B5     		push	{r3, r4, r5, lr}
 2843              		.cfi_def_cfa_offset 16
 2844              		.cfi_offset 3, -16
 2845              		.cfi_offset 4, -12
 2846              		.cfi_offset 5, -8
 2847              		.cfi_offset 14, -4
 2848              	.LBB36:
 2849              	.LBB34:
 2850              		.loc 1 1396 14 view .LVU994
ARM GAS  C:\Users\DEVELO~1\AppData\Local\Temp\ccPkHjk7.s 			page 51


 2851 0004 1369     		ldr	r3, [r2, #16]
 2852              		.loc 1 1396 21 view .LVU995
 2853 0006 03F03803 		and	r3, r3, #56
 2854              		.loc 1 1396 3 view .LVU996
 2855 000a 102B     		cmp	r3, #16
 2856 000c 1AD0     		beq	.L302
 2857 000e 182B     		cmp	r3, #24
 2858 0010 23D0     		beq	.L301
 2859 0012 CBB1     		cbz	r3, .L306
 2860              		.loc 1 1412 20 view .LVU997
 2861 0014 1448     		ldr	r0, .L307+4
 2862              	.L300:
 2863              	.LVL212:
 2864              		.loc 1 1472 3 is_stmt 1 view .LVU998
 2865              		.loc 1 1472 3 is_stmt 0 view .LVU999
 2866              	.LBE34:
 2867              	.LBE36:
 2868              		.loc 1 1490 76 view .LVU1000
 2869 0016 134B     		ldr	r3, .L307
 2870              		.loc 1 1490 71 view .LVU1001
 2871 0018 1449     		ldr	r1, .L307+8
 2872              		.loc 1 1490 76 view .LVU1002
 2873 001a 9A69     		ldr	r2, [r3, #24]
 2874              		.loc 1 1496 66 view .LVU1003
 2875 001c 9B69     		ldr	r3, [r3, #24]
 2876              		.loc 1 1490 106 view .LVU1004
 2877 001e C2F30322 		ubfx	r2, r2, #8, #4
 2878              		.loc 1 1496 17 view .LVU1005
 2879 0022 134C     		ldr	r4, .L307+12
 2880              		.loc 1 1496 94 view .LVU1006
 2881 0024 03F00F03 		and	r3, r3, #15
 2882              		.loc 1 1504 19 view .LVU1007
 2883 0028 124D     		ldr	r5, .L307+16
 2884              		.loc 1 1490 132 view .LVU1008
 2885 002a 8A5C     		ldrb	r2, [r1, r2]	@ zero_extendqisi2
 2886              		.loc 1 1496 119 view .LVU1009
 2887 002c CB5C     		ldrb	r3, [r1, r3]	@ zero_extendqisi2
 2888              		.loc 1 1490 132 view .LVU1010
 2889 002e 02F01F02 		and	r2, r2, #31
 2890              		.loc 1 1490 23 view .LVU1011
 2891 0032 20FA02F2 		lsr	r2, r0, r2
 2892              	.LVL213:
 2893              		.loc 1 1496 3 is_stmt 1 view .LVU1012
 2894              		.loc 1 1496 119 is_stmt 0 view .LVU1013
 2895 0036 03F01F00 		and	r0, r3, #31
 2896              		.loc 1 1496 40 view .LVU1014
 2897 003a 22FA00F0 		lsr	r0, r2, r0
 2898              		.loc 1 1504 19 view .LVU1015
 2899 003e 2A60     		str	r2, [r5]
 2900              		.loc 1 1496 17 view .LVU1016
 2901 0040 2060     		str	r0, [r4]
 2902              		.loc 1 1504 3 is_stmt 1 view .LVU1017
 2903              		.loc 1 1507 3 view .LVU1018
 2904              		.loc 1 1508 1 is_stmt 0 view .LVU1019
 2905 0042 38BD     		pop	{r3, r4, r5, pc}
 2906              	.LVL214:
 2907              	.L302:
ARM GAS  C:\Users\DEVELO~1\AppData\Local\Temp\ccPkHjk7.s 			page 52


 2908              	.LBB37:
 2909              	.LBB35:
 2910              		.loc 1 1396 3 view .LVU1020
 2911 0044 0C48     		ldr	r0, .L307+20
 2912 0046 E6E7     		b	.L300
 2913              	.L306:
 2914              		.loc 1 1400 7 is_stmt 1 view .LVU1021
 2915              		.loc 1 1400 11 is_stmt 0 view .LVU1022
 2916 0048 1368     		ldr	r3, [r2]
 2917              		.loc 1 1400 10 view .LVU1023
 2918 004a 9B06     		lsls	r3, r3, #26
 2919 004c 08D5     		bpl	.L304
 2920              		.loc 1 1402 9 is_stmt 1 view .LVU1024
 2921              		.loc 1 1402 49 is_stmt 0 view .LVU1025
 2922 004e 1368     		ldr	r3, [r2]
 2923              		.loc 1 1402 22 view .LVU1026
 2924 0050 0A48     		ldr	r0, .L307+24
 2925              		.loc 1 1402 77 view .LVU1027
 2926 0052 C3F3C103 		ubfx	r3, r3, #3, #2
 2927              		.loc 1 1402 22 view .LVU1028
 2928 0056 D840     		lsrs	r0, r0, r3
 2929              	.LVL215:
 2930              		.loc 1 1402 22 view .LVU1029
 2931 0058 DDE7     		b	.L300
 2932              	.LVL216:
 2933              	.L301:
 2934              		.loc 1 1402 22 view .LVU1030
 2935 005a FFF7FEFF 		bl	HAL_RCC_GetSysClockFreq.part.0
 2936              	.LVL217:
 2937 005e DAE7     		b	.L300
 2938              	.L304:
 2939              		.loc 1 1406 22 view .LVU1031
 2940 0060 0648     		ldr	r0, .L307+24
 2941 0062 D8E7     		b	.L300
 2942              	.L308:
 2943              		.align	2
 2944              	.L307:
 2945 0064 00440258 		.word	1476543488
 2946 0068 00093D00 		.word	4000000
 2947 006c 00000000 		.word	D1CorePrescTable
 2948 0070 00000000 		.word	SystemD2Clock
 2949 0074 00000000 		.word	SystemCoreClock
 2950 0078 00127A00 		.word	8000000
 2951 007c 0090D003 		.word	64000000
 2952              	.LBE35:
 2953              	.LBE37:
 2954              		.cfi_endproc
 2955              	.LFE148:
 2956              		.size	HAL_RCC_GetHCLKFreq, .-HAL_RCC_GetHCLKFreq
 2957              		.section	.text.HAL_RCC_GetPCLK1Freq,"ax",%progbits
 2958              		.align	1
 2959              		.p2align 2,,3
 2960              		.global	HAL_RCC_GetPCLK1Freq
 2961              		.syntax unified
 2962              		.thumb
 2963              		.thumb_func
 2964              		.type	HAL_RCC_GetPCLK1Freq, %function
ARM GAS  C:\Users\DEVELO~1\AppData\Local\Temp\ccPkHjk7.s 			page 53


 2965              	HAL_RCC_GetPCLK1Freq:
 2966              	.LFB149:
 2967              		.loc 1 1518 1 is_stmt 1 view -0
 2968              		.cfi_startproc
 2969              		@ args = 0, pretend = 0, frame = 0
 2970              		@ frame_needed = 0, uses_anonymous_args = 0
 2971              		.loc 1 1521 3 view .LVU1033
 2972              		.loc 1 1518 1 is_stmt 0 view .LVU1034
 2973 0000 08B5     		push	{r3, lr}
 2974              		.cfi_def_cfa_offset 8
 2975              		.cfi_offset 3, -8
 2976              		.cfi_offset 14, -4
 2977              		.loc 1 1521 11 view .LVU1035
 2978 0002 FFF7FEFF 		bl	HAL_RCC_GetHCLKFreq
 2979              	.LVL218:
 2980              		.loc 1 1521 59 view .LVU1036
 2981 0006 054B     		ldr	r3, .L311
 2982              		.loc 1 1521 54 view .LVU1037
 2983 0008 054A     		ldr	r2, .L311+4
 2984              		.loc 1 1521 59 view .LVU1038
 2985 000a DB69     		ldr	r3, [r3, #28]
 2986              		.loc 1 1521 90 view .LVU1039
 2987 000c C3F30213 		ubfx	r3, r3, #4, #3
 2988              		.loc 1 1521 118 view .LVU1040
 2989 0010 D35C     		ldrb	r3, [r2, r3]	@ zero_extendqisi2
 2990 0012 03F01F03 		and	r3, r3, #31
 2991              		.loc 1 1526 1 view .LVU1041
 2992 0016 D840     		lsrs	r0, r0, r3
 2993 0018 08BD     		pop	{r3, pc}
 2994              	.L312:
 2995 001a 00BF     		.align	2
 2996              	.L311:
 2997 001c 00440258 		.word	1476543488
 2998 0020 00000000 		.word	D1CorePrescTable
 2999              		.cfi_endproc
 3000              	.LFE149:
 3001              		.size	HAL_RCC_GetPCLK1Freq, .-HAL_RCC_GetPCLK1Freq
 3002              		.section	.text.HAL_RCC_GetPCLK2Freq,"ax",%progbits
 3003              		.align	1
 3004              		.p2align 2,,3
 3005              		.global	HAL_RCC_GetPCLK2Freq
 3006              		.syntax unified
 3007              		.thumb
 3008              		.thumb_func
 3009              		.type	HAL_RCC_GetPCLK2Freq, %function
 3010              	HAL_RCC_GetPCLK2Freq:
 3011              	.LFB150:
 3012              		.loc 1 1536 1 is_stmt 1 view -0
 3013              		.cfi_startproc
 3014              		@ args = 0, pretend = 0, frame = 0
 3015              		@ frame_needed = 0, uses_anonymous_args = 0
 3016              		.loc 1 1539 3 view .LVU1043
 3017              		.loc 1 1536 1 is_stmt 0 view .LVU1044
 3018 0000 08B5     		push	{r3, lr}
 3019              		.cfi_def_cfa_offset 8
 3020              		.cfi_offset 3, -8
 3021              		.cfi_offset 14, -4
ARM GAS  C:\Users\DEVELO~1\AppData\Local\Temp\ccPkHjk7.s 			page 54


 3022              		.loc 1 1539 11 view .LVU1045
 3023 0002 FFF7FEFF 		bl	HAL_RCC_GetHCLKFreq
 3024              	.LVL219:
 3025              		.loc 1 1539 59 view .LVU1046
 3026 0006 054B     		ldr	r3, .L315
 3027              		.loc 1 1539 54 view .LVU1047
 3028 0008 054A     		ldr	r2, .L315+4
 3029              		.loc 1 1539 59 view .LVU1048
 3030 000a DB69     		ldr	r3, [r3, #28]
 3031              		.loc 1 1539 90 view .LVU1049
 3032 000c C3F30223 		ubfx	r3, r3, #8, #3
 3033              		.loc 1 1539 118 view .LVU1050
 3034 0010 D35C     		ldrb	r3, [r2, r3]	@ zero_extendqisi2
 3035 0012 03F01F03 		and	r3, r3, #31
 3036              		.loc 1 1543 1 view .LVU1051
 3037 0016 D840     		lsrs	r0, r0, r3
 3038 0018 08BD     		pop	{r3, pc}
 3039              	.L316:
 3040 001a 00BF     		.align	2
 3041              	.L315:
 3042 001c 00440258 		.word	1476543488
 3043 0020 00000000 		.word	D1CorePrescTable
 3044              		.cfi_endproc
 3045              	.LFE150:
 3046              		.size	HAL_RCC_GetPCLK2Freq, .-HAL_RCC_GetPCLK2Freq
 3047              		.section	.text.HAL_RCC_GetOscConfig,"ax",%progbits
 3048              		.align	1
 3049              		.p2align 2,,3
 3050              		.global	HAL_RCC_GetOscConfig
 3051              		.syntax unified
 3052              		.thumb
 3053              		.thumb_func
 3054              		.type	HAL_RCC_GetOscConfig, %function
 3055              	HAL_RCC_GetOscConfig:
 3056              	.LVL220:
 3057              	.LFB151:
 3058              		.loc 1 1553 1 is_stmt 1 view -0
 3059              		.cfi_startproc
 3060              		@ args = 0, pretend = 0, frame = 0
 3061              		@ frame_needed = 0, uses_anonymous_args = 0
 3062              		.loc 1 1555 3 view .LVU1053
 3063              		.loc 1 1553 1 is_stmt 0 view .LVU1054
 3064 0000 38B5     		push	{r3, r4, r5, lr}
 3065              		.cfi_def_cfa_offset 16
 3066              		.cfi_offset 3, -16
 3067              		.cfi_offset 4, -12
 3068              		.cfi_offset 5, -8
 3069              		.cfi_offset 14, -4
 3070              		.loc 1 1555 37 view .LVU1055
 3071 0002 3F22     		movs	r2, #63
 3072              		.loc 1 1577 11 view .LVU1056
 3073 0004 394B     		ldr	r3, .L329
 3074              		.loc 1 1553 1 view .LVU1057
 3075 0006 0446     		mov	r4, r0
 3076              		.loc 1 1555 37 view .LVU1058
 3077 0008 0260     		str	r2, [r0]
 3078              		.loc 1 1577 3 is_stmt 1 view .LVU1059
ARM GAS  C:\Users\DEVELO~1\AppData\Local\Temp\ccPkHjk7.s 			page 55


 3079              		.loc 1 1577 11 is_stmt 0 view .LVU1060
 3080 000a 1A68     		ldr	r2, [r3]
 3081              		.loc 1 1577 6 view .LVU1061
 3082 000c 5203     		lsls	r2, r2, #13
 3083 000e 64D4     		bmi	.L325
 3084              		.loc 1 1581 8 is_stmt 1 view .LVU1062
 3085              		.loc 1 1581 16 is_stmt 0 view .LVU1063
 3086 0010 1B68     		ldr	r3, [r3]
 3087              		.loc 1 1581 11 view .LVU1064
 3088 0012 03F48033 		and	r3, r3, #65536
 3089              	.L318:
 3090              		.loc 1 1592 11 view .LVU1065
 3091 0016 354D     		ldr	r5, .L329
 3092              		.loc 1 1579 33 view .LVU1066
 3093 0018 6360     		str	r3, [r4, #4]
 3094              		.loc 1 1592 3 is_stmt 1 view .LVU1067
 3095              		.loc 1 1592 11 is_stmt 0 view .LVU1068
 3096 001a 2B68     		ldr	r3, [r5]
 3097              		.loc 1 1592 6 view .LVU1069
 3098 001c 03F08003 		and	r3, r3, #128
 3099 0020 E361     		str	r3, [r4, #28]
 3100              		.loc 1 1602 3 is_stmt 1 view .LVU1070
 3101              		.loc 1 1602 7 is_stmt 0 view .LVU1071
 3102 0022 FFF7FEFF 		bl	HAL_GetREVID
 3103              	.LVL221:
 3104              		.loc 1 1602 6 view .LVU1072
 3105 0026 41F20303 		movw	r3, #4099
 3106 002a 9842     		cmp	r0, r3
 3107 002c 5AD8     		bhi	.L319
 3108              		.loc 1 1604 5 is_stmt 1 view .LVU1073
 3109              		.loc 1 1604 57 is_stmt 0 view .LVU1074
 3110 002e 6B68     		ldr	r3, [r5, #4]
 3111              		.loc 1 1604 46 view .LVU1075
 3112 0030 C3F38463 		ubfx	r3, r3, #26, #5
 3113              	.L320:
 3114              		.loc 1 1615 11 view .LVU1076
 3115 0034 2D4D     		ldr	r5, .L329
 3116 0036 2362     		str	r3, [r4, #32]
 3117              		.loc 1 1615 3 is_stmt 1 view .LVU1077
 3118              		.loc 1 1615 11 is_stmt 0 view .LVU1078
 3119 0038 2B68     		ldr	r3, [r5]
 3120              		.loc 1 1615 16 view .LVU1079
 3121 003a 03F00103 		and	r3, r3, #1
 3122 003e E360     		str	r3, [r4, #12]
 3123              		.loc 1 1625 3 is_stmt 1 view .LVU1080
 3124              		.loc 1 1625 7 is_stmt 0 view .LVU1081
 3125 0040 FFF7FEFF 		bl	HAL_GetREVID
 3126              	.LVL222:
 3127              		.loc 1 1627 5 is_stmt 1 view .LVU1082
 3128              		.loc 1 1631 5 view .LVU1083
 3129              		.loc 1 1625 6 is_stmt 0 view .LVU1084
 3130 0044 41F20303 		movw	r3, #4099
 3131              		.loc 1 1656 11 view .LVU1085
 3132 0048 284A     		ldr	r2, .L329
 3133              		.loc 1 1625 6 view .LVU1086
 3134 004a 9842     		cmp	r0, r3
 3135              		.loc 1 1627 57 view .LVU1087
ARM GAS  C:\Users\DEVELO~1\AppData\Local\Temp\ccPkHjk7.s 			page 56


 3136 004c 6B68     		ldr	r3, [r5, #4]
 3137              		.loc 1 1627 46 view .LVU1088
 3138 004e 94BF     		ite	ls
 3139 0050 C3F30533 		ubfxls	r3, r3, #12, #6
 3140              		.loc 1 1631 46 view .LVU1089
 3141 0054 C3F30663 		ubfxhi	r3, r3, #24, #7
 3142 0058 2361     		str	r3, [r4, #16]
 3143              		.loc 1 1656 3 is_stmt 1 view .LVU1090
 3144              		.loc 1 1656 11 is_stmt 0 view .LVU1091
 3145 005a 136F     		ldr	r3, [r2, #112]
 3146              		.loc 1 1656 6 view .LVU1092
 3147 005c 5B07     		lsls	r3, r3, #29
 3148 005e 3FD4     		bmi	.L326
 3149              		.loc 1 1660 8 is_stmt 1 view .LVU1093
 3150              		.loc 1 1660 16 is_stmt 0 view .LVU1094
 3151 0060 126F     		ldr	r2, [r2, #112]
 3152              		.loc 1 1660 23 view .LVU1095
 3153 0062 02F00102 		and	r2, r2, #1
 3154              	.L323:
 3155              		.loc 1 1671 11 view .LVU1096
 3156 0066 214B     		ldr	r3, .L329
 3157              		.loc 1 1658 33 view .LVU1097
 3158 0068 A260     		str	r2, [r4, #8]
 3159              		.loc 1 1671 3 is_stmt 1 view .LVU1098
 3160              		.loc 1 1671 11 is_stmt 0 view .LVU1099
 3161 006a 5A6F     		ldr	r2, [r3, #116]
 3162              		.loc 1 1671 17 view .LVU1100
 3163 006c 02F00102 		and	r2, r2, #1
 3164 0070 6261     		str	r2, [r4, #20]
 3165              		.loc 1 1681 3 is_stmt 1 view .LVU1101
 3166              		.loc 1 1681 11 is_stmt 0 view .LVU1102
 3167 0072 1A68     		ldr	r2, [r3]
 3168              		.loc 1 1681 6 view .LVU1103
 3169 0074 C2F30032 		ubfx	r2, r2, #12, #1
 3170 0078 A261     		str	r2, [r4, #24]
 3171              		.loc 1 1691 3 is_stmt 1 view .LVU1104
 3172              		.loc 1 1691 11 is_stmt 0 view .LVU1105
 3173 007a 1A68     		ldr	r2, [r3]
 3174              		.loc 1 1697 37 view .LVU1106
 3175 007c 12F0807F 		tst	r2, #16777216
 3176 0080 14BF     		ite	ne
 3177 0082 0222     		movne	r2, #2
 3178 0084 0122     		moveq	r2, #1
 3179 0086 6262     		str	r2, [r4, #36]
 3180              		.loc 1 1699 3 is_stmt 1 view .LVU1107
 3181              		.loc 1 1699 52 is_stmt 0 view .LVU1108
 3182 0088 9A6A     		ldr	r2, [r3, #40]
 3183              		.loc 1 1699 38 view .LVU1109
 3184 008a 02F00302 		and	r2, r2, #3
 3185              		.loc 1 1699 36 view .LVU1110
 3186 008e A262     		str	r2, [r4, #40]
 3187              		.loc 1 1700 3 is_stmt 1 view .LVU1111
 3188              		.loc 1 1700 48 is_stmt 0 view .LVU1112
 3189 0090 9A6A     		ldr	r2, [r3, #40]
 3190              		.loc 1 1700 33 view .LVU1113
 3191 0092 C2F30512 		ubfx	r2, r2, #4, #6
 3192              		.loc 1 1700 31 view .LVU1114
ARM GAS  C:\Users\DEVELO~1\AppData\Local\Temp\ccPkHjk7.s 			page 57


 3193 0096 E262     		str	r2, [r4, #44]
 3194              		.loc 1 1701 3 is_stmt 1 view .LVU1115
 3195              		.loc 1 1701 48 is_stmt 0 view .LVU1116
 3196 0098 1A6B     		ldr	r2, [r3, #48]
 3197              		.loc 1 1701 33 view .LVU1117
 3198 009a C2F30802 		ubfx	r2, r2, #0, #9
 3199              		.loc 1 1701 102 view .LVU1118
 3200 009e 0132     		adds	r2, r2, #1
 3201              		.loc 1 1701 31 view .LVU1119
 3202 00a0 2263     		str	r2, [r4, #48]
 3203              		.loc 1 1702 3 is_stmt 1 view .LVU1120
 3204              		.loc 1 1702 48 is_stmt 0 view .LVU1121
 3205 00a2 1A6B     		ldr	r2, [r3, #48]
 3206              		.loc 1 1702 33 view .LVU1122
 3207 00a4 C2F30662 		ubfx	r2, r2, #24, #7
 3208              		.loc 1 1702 102 view .LVU1123
 3209 00a8 0132     		adds	r2, r2, #1
 3210              		.loc 1 1702 31 view .LVU1124
 3211 00aa E263     		str	r2, [r4, #60]
 3212              		.loc 1 1703 3 is_stmt 1 view .LVU1125
 3213              		.loc 1 1703 48 is_stmt 0 view .LVU1126
 3214 00ac 1A6B     		ldr	r2, [r3, #48]
 3215              		.loc 1 1703 33 view .LVU1127
 3216 00ae C2F34622 		ubfx	r2, r2, #9, #7
 3217              		.loc 1 1703 102 view .LVU1128
 3218 00b2 0132     		adds	r2, r2, #1
 3219              		.loc 1 1703 31 view .LVU1129
 3220 00b4 6263     		str	r2, [r4, #52]
 3221              		.loc 1 1704 3 is_stmt 1 view .LVU1130
 3222              		.loc 1 1704 48 is_stmt 0 view .LVU1131
 3223 00b6 1A6B     		ldr	r2, [r3, #48]
 3224              		.loc 1 1704 33 view .LVU1132
 3225 00b8 C2F30642 		ubfx	r2, r2, #16, #7
 3226              		.loc 1 1704 102 view .LVU1133
 3227 00bc 0132     		adds	r2, r2, #1
 3228              		.loc 1 1704 31 view .LVU1134
 3229 00be A263     		str	r2, [r4, #56]
 3230              		.loc 1 1705 3 is_stmt 1 view .LVU1135
 3231              		.loc 1 1705 50 is_stmt 0 view .LVU1136
 3232 00c0 DA6A     		ldr	r2, [r3, #44]
 3233              		.loc 1 1705 35 view .LVU1137
 3234 00c2 02F00C02 		and	r2, r2, #12
 3235              		.loc 1 1705 33 view .LVU1138
 3236 00c6 2264     		str	r2, [r4, #64]
 3237              		.loc 1 1706 3 is_stmt 1 view .LVU1139
 3238              		.loc 1 1706 53 is_stmt 0 view .LVU1140
 3239 00c8 DA6A     		ldr	r2, [r3, #44]
 3240              		.loc 1 1706 38 view .LVU1141
 3241 00ca C2F34002 		ubfx	r2, r2, #1, #1
 3242              		.loc 1 1706 36 view .LVU1142
 3243 00ce 6264     		str	r2, [r4, #68]
 3244              		.loc 1 1707 3 is_stmt 1 view .LVU1143
 3245              		.loc 1 1707 53 is_stmt 0 view .LVU1144
 3246 00d0 5B6B     		ldr	r3, [r3, #52]
 3247              		.loc 1 1707 37 view .LVU1145
 3248 00d2 C3F3CC03 		ubfx	r3, r3, #3, #13
 3249              		.loc 1 1707 35 view .LVU1146
ARM GAS  C:\Users\DEVELO~1\AppData\Local\Temp\ccPkHjk7.s 			page 58


 3250 00d6 A364     		str	r3, [r4, #72]
 3251              		.loc 1 1708 1 view .LVU1147
 3252 00d8 38BD     		pop	{r3, r4, r5, pc}
 3253              	.LVL223:
 3254              	.L325:
 3255              		.loc 1 1708 1 view .LVU1148
 3256 00da 4FF4A023 		mov	r3, #327680
 3257 00de 9AE7     		b	.L318
 3258              	.LVL224:
 3259              	.L326:
 3260              		.loc 1 1708 1 view .LVU1149
 3261 00e0 0522     		movs	r2, #5
 3262 00e2 C0E7     		b	.L323
 3263              	.L319:
 3264              		.loc 1 1608 5 is_stmt 1 view .LVU1150
 3265              		.loc 1 1608 57 is_stmt 0 view .LVU1151
 3266 00e4 EB68     		ldr	r3, [r5, #12]
 3267              		.loc 1 1608 46 view .LVU1152
 3268 00e6 C3F30563 		ubfx	r3, r3, #24, #6
 3269 00ea A3E7     		b	.L320
 3270              	.L330:
 3271              		.align	2
 3272              	.L329:
 3273 00ec 00440258 		.word	1476543488
 3274              		.cfi_endproc
 3275              	.LFE151:
 3276              		.size	HAL_RCC_GetOscConfig, .-HAL_RCC_GetOscConfig
 3277              		.section	.text.HAL_RCC_GetClockConfig,"ax",%progbits
 3278              		.align	1
 3279              		.p2align 2,,3
 3280              		.global	HAL_RCC_GetClockConfig
 3281              		.syntax unified
 3282              		.thumb
 3283              		.thumb_func
 3284              		.type	HAL_RCC_GetClockConfig, %function
 3285              	HAL_RCC_GetClockConfig:
 3286              	.LVL225:
 3287              	.LFB152:
 3288              		.loc 1 1719 1 is_stmt 1 view -0
 3289              		.cfi_startproc
 3290              		@ args = 0, pretend = 0, frame = 0
 3291              		@ frame_needed = 0, uses_anonymous_args = 0
 3292              		@ link register save eliminated.
 3293              		.loc 1 1721 3 view .LVU1154
 3294              		.loc 1 1725 51 is_stmt 0 view .LVU1155
 3295 0000 134B     		ldr	r3, .L333
 3296              		.loc 1 1721 32 view .LVU1156
 3297 0002 3F22     		movs	r2, #63
 3298 0004 0260     		str	r2, [r0]
 3299              		.loc 1 1725 3 is_stmt 1 view .LVU1157
 3300              		.loc 1 1725 51 is_stmt 0 view .LVU1158
 3301 0006 1A69     		ldr	r2, [r3, #16]
 3302              		.loc 1 1725 37 view .LVU1159
 3303 0008 02F00702 		and	r2, r2, #7
 3304              		.loc 1 1725 35 view .LVU1160
 3305 000c 4260     		str	r2, [r0, #4]
 3306              		.loc 1 1729 3 is_stmt 1 view .LVU1161
ARM GAS  C:\Users\DEVELO~1\AppData\Local\Temp\ccPkHjk7.s 			page 59


 3307              		.loc 1 1729 52 is_stmt 0 view .LVU1162
 3308 000e 9A69     		ldr	r2, [r3, #24]
 3309              		.loc 1 1729 38 view .LVU1163
 3310 0010 02F47062 		and	r2, r2, #3840
 3311              		.loc 1 1729 36 view .LVU1164
 3312 0014 8260     		str	r2, [r0, #8]
 3313              		.loc 1 1732 3 is_stmt 1 view .LVU1165
 3314              		.loc 1 1732 52 is_stmt 0 view .LVU1166
 3315 0016 9A69     		ldr	r2, [r3, #24]
 3316              		.loc 1 1732 38 view .LVU1167
 3317 0018 02F00F02 		and	r2, r2, #15
 3318              		.loc 1 1732 36 view .LVU1168
 3319 001c C260     		str	r2, [r0, #12]
 3320              		.loc 1 1735 3 is_stmt 1 view .LVU1169
 3321              		.loc 1 1735 53 is_stmt 0 view .LVU1170
 3322 001e 9A69     		ldr	r2, [r3, #24]
 3323              		.loc 1 1735 39 view .LVU1171
 3324 0020 02F07002 		and	r2, r2, #112
 3325              		.loc 1 1735 37 view .LVU1172
 3326 0024 0261     		str	r2, [r0, #16]
 3327              		.loc 1 1738 3 is_stmt 1 view .LVU1173
 3328              		.loc 1 1738 53 is_stmt 0 view .LVU1174
 3329 0026 DA69     		ldr	r2, [r3, #28]
 3330              		.loc 1 1738 39 view .LVU1175
 3331 0028 02F07002 		and	r2, r2, #112
 3332              		.loc 1 1738 37 view .LVU1176
 3333 002c 4261     		str	r2, [r0, #20]
 3334              		.loc 1 1741 3 is_stmt 1 view .LVU1177
 3335              		.loc 1 1741 53 is_stmt 0 view .LVU1178
 3336 002e DA69     		ldr	r2, [r3, #28]
 3337              		.loc 1 1741 39 view .LVU1179
 3338 0030 02F4E062 		and	r2, r2, #1792
 3339              		.loc 1 1741 37 view .LVU1180
 3340 0034 8261     		str	r2, [r0, #24]
 3341              		.loc 1 1744 3 is_stmt 1 view .LVU1181
 3342              		.loc 1 1744 53 is_stmt 0 view .LVU1182
 3343 0036 1B6A     		ldr	r3, [r3, #32]
 3344              		.loc 1 1719 1 view .LVU1183
 3345 0038 10B4     		push	{r4}
 3346              		.cfi_def_cfa_offset 4
 3347              		.cfi_offset 4, -4
 3348              		.loc 1 1744 39 view .LVU1184
 3349 003a 03F07003 		and	r3, r3, #112
 3350              		.loc 1 1766 32 view .LVU1185
 3351 003e 054C     		ldr	r4, .L333+4
 3352              		.loc 1 1744 37 view .LVU1186
 3353 0040 C361     		str	r3, [r0, #28]
 3354              		.loc 1 1766 3 is_stmt 1 view .LVU1187
 3355              		.loc 1 1766 32 is_stmt 0 view .LVU1188
 3356 0042 2368     		ldr	r3, [r4]
 3357              		.loc 1 1767 1 view .LVU1189
 3358 0044 5DF8044B 		ldr	r4, [sp], #4
 3359              		.cfi_restore 4
 3360              		.cfi_def_cfa_offset 0
 3361              		.loc 1 1766 16 view .LVU1190
 3362 0048 03F00F03 		and	r3, r3, #15
 3363              		.loc 1 1766 14 view .LVU1191
ARM GAS  C:\Users\DEVELO~1\AppData\Local\Temp\ccPkHjk7.s 			page 60


 3364 004c 0B60     		str	r3, [r1]
 3365              		.loc 1 1767 1 view .LVU1192
 3366 004e 7047     		bx	lr
 3367              	.L334:
 3368              		.align	2
 3369              	.L333:
 3370 0050 00440258 		.word	1476543488
 3371 0054 00200052 		.word	1375739904
 3372              		.cfi_endproc
 3373              	.LFE152:
 3374              		.size	HAL_RCC_GetClockConfig, .-HAL_RCC_GetClockConfig
 3375              		.section	.text.HAL_RCC_CSSCallback,"ax",%progbits
 3376              		.align	1
 3377              		.p2align 2,,3
 3378              		.weak	HAL_RCC_CSSCallback
 3379              		.syntax unified
 3380              		.thumb
 3381              		.thumb_func
 3382              		.type	HAL_RCC_CSSCallback, %function
 3383              	HAL_RCC_CSSCallback:
 3384              	.LFB154:
 3385              		.loc 1 1792 1 is_stmt 1 view -0
 3386              		.cfi_startproc
 3387              		@ args = 0, pretend = 0, frame = 0
 3388              		@ frame_needed = 0, uses_anonymous_args = 0
 3389              		@ link register save eliminated.
 3390              		.loc 1 1796 1 view .LVU1194
 3391 0000 7047     		bx	lr
 3392              		.cfi_endproc
 3393              	.LFE154:
 3394              		.size	HAL_RCC_CSSCallback, .-HAL_RCC_CSSCallback
 3395 0002 00BF     		.section	.text.HAL_RCC_NMI_IRQHandler,"ax",%progbits
 3396              		.align	1
 3397              		.p2align 2,,3
 3398              		.global	HAL_RCC_NMI_IRQHandler
 3399              		.syntax unified
 3400              		.thumb
 3401              		.thumb_func
 3402              		.type	HAL_RCC_NMI_IRQHandler, %function
 3403              	HAL_RCC_NMI_IRQHandler:
 3404              	.LFB153:
 3405              		.loc 1 1775 1 view -0
 3406              		.cfi_startproc
 3407              		@ args = 0, pretend = 0, frame = 0
 3408              		@ frame_needed = 0, uses_anonymous_args = 0
 3409              		.loc 1 1777 3 view .LVU1196
 3410              		.loc 1 1775 1 is_stmt 0 view .LVU1197
 3411 0000 10B5     		push	{r4, lr}
 3412              		.cfi_def_cfa_offset 8
 3413              		.cfi_offset 4, -8
 3414              		.cfi_offset 14, -4
 3415              		.loc 1 1777 7 view .LVU1198
 3416 0002 054C     		ldr	r4, .L343
 3417 0004 636E     		ldr	r3, [r4, #100]
 3418              		.loc 1 1777 6 view .LVU1199
 3419 0006 5B05     		lsls	r3, r3, #21
 3420 0008 00D4     		bmi	.L342
ARM GAS  C:\Users\DEVELO~1\AppData\Local\Temp\ccPkHjk7.s 			page 61


 3421              		.loc 1 1785 1 view .LVU1200
 3422 000a 10BD     		pop	{r4, pc}
 3423              	.L342:
 3424              		.loc 1 1780 5 is_stmt 1 view .LVU1201
 3425 000c FFF7FEFF 		bl	HAL_RCC_CSSCallback
 3426              	.LVL226:
 3427              		.loc 1 1783 5 view .LVU1202
 3428 0010 4FF48063 		mov	r3, #1024
 3429 0014 A366     		str	r3, [r4, #104]
 3430              		.loc 1 1785 1 is_stmt 0 view .LVU1203
 3431 0016 10BD     		pop	{r4, pc}
 3432              	.L344:
 3433              		.align	2
 3434              	.L343:
 3435 0018 00440258 		.word	1476543488
 3436              		.cfi_endproc
 3437              	.LFE153:
 3438              		.size	HAL_RCC_NMI_IRQHandler, .-HAL_RCC_NMI_IRQHandler
 3439              		.text
 3440              	.Letext0:
 3441              		.file 2 "c:\\chibistudio\\tools\\gnu tools arm embedded\\11.3 2022.08\\arm-none-eabi\\include\\mac
 3442              		.file 3 "c:\\chibistudio\\tools\\gnu tools arm embedded\\11.3 2022.08\\arm-none-eabi\\include\\sys
 3443              		.file 4 "./docs/ChibiOS/os/common/ext/ST/STM32H7xx/system_stm32h7xx.h"
 3444              		.file 5 "./docs/ChibiOS/os/common/ext/ST/STM32H7xx/stm32h743xx.h"
 3445              		.file 6 "c:\\chibistudio\\tools\\gnu tools arm embedded\\11.3 2022.08\\arm-none-eabi\\include\\mat
 3446              		.file 7 "./drivers/stm32h7xx-hal-driver/Inc/stm32h7xx_hal_def.h"
 3447              		.file 8 "./drivers/stm32h7xx-hal-driver/Inc/stm32h7xx_hal_rcc.h"
 3448              		.file 9 "./drivers/stm32h7xx-hal-driver/Inc/stm32h7xx_hal_gpio.h"
 3449              		.file 10 "./drivers/stm32h7xx-hal-driver/Inc/stm32h7xx_hal.h"
 3450              		.section	.debug_info,"",%progbits
 3451              	.Ldebug_info0:
 3452 0000 16120000 		.4byte	0x1216
 3453 0004 0500     		.2byte	0x5
 3454 0006 01       		.byte	0x1
 3455 0007 04       		.byte	0x4
 3456 0008 00000000 		.4byte	.Ldebug_abbrev0
 3457 000c 24       		.uleb128 0x24
 3458 000d B7000000 		.4byte	.LASF216
 3459 0011 1D       		.byte	0x1d
 3460 0012 37060000 		.4byte	.LASF217
 3461 0016 1E000000 		.4byte	.LASF218
 3462 001a A9000000 		.4byte	.LLRL36
 3463 001e 00000000 		.4byte	0
 3464 0022 00000000 		.4byte	.Ldebug_line0
 3465 0026 25       		.uleb128 0x25
 3466 0027 04       		.byte	0x4
 3467 0028 05       		.byte	0x5
 3468 0029 696E7400 		.ascii	"int\000"
 3469 002d 06       		.uleb128 0x6
 3470 002e 04       		.byte	0x4
 3471 002f 04       		.byte	0x4
 3472 0030 6E060000 		.4byte	.LASF0
 3473 0034 06       		.uleb128 0x6
 3474 0035 02       		.byte	0x2
 3475 0036 05       		.byte	0x5
 3476 0037 23070000 		.4byte	.LASF1
 3477 003b 06       		.uleb128 0x6
ARM GAS  C:\Users\DEVELO~1\AppData\Local\Temp\ccPkHjk7.s 			page 62


 3478 003c 01       		.byte	0x1
 3479 003d 06       		.byte	0x6
 3480 003e 9E090000 		.4byte	.LASF2
 3481 0042 08       		.uleb128 0x8
 3482 0043 91000000 		.4byte	.LASF4
 3483 0047 02       		.byte	0x2
 3484 0048 2B       		.byte	0x2b
 3485 0049 18       		.byte	0x18
 3486 004a 4E000000 		.4byte	0x4e
 3487 004e 06       		.uleb128 0x6
 3488 004f 01       		.byte	0x1
 3489 0050 08       		.byte	0x8
 3490 0051 FA060000 		.4byte	.LASF3
 3491 0055 08       		.uleb128 0x8
 3492 0056 00080000 		.4byte	.LASF5
 3493 005a 02       		.byte	0x2
 3494 005b 39       		.byte	0x39
 3495 005c 19       		.byte	0x19
 3496 005d 61000000 		.4byte	0x61
 3497 0061 06       		.uleb128 0x6
 3498 0062 02       		.byte	0x2
 3499 0063 07       		.byte	0x7
 3500 0064 5E040000 		.4byte	.LASF6
 3501 0068 06       		.uleb128 0x6
 3502 0069 04       		.byte	0x4
 3503 006a 05       		.byte	0x5
 3504 006b 95090000 		.4byte	.LASF7
 3505 006f 08       		.uleb128 0x8
 3506 0070 5D030000 		.4byte	.LASF8
 3507 0074 02       		.byte	0x2
 3508 0075 4F       		.byte	0x4f
 3509 0076 19       		.byte	0x19
 3510 0077 7B000000 		.4byte	0x7b
 3511 007b 06       		.uleb128 0x6
 3512 007c 04       		.byte	0x4
 3513 007d 07       		.byte	0x7
 3514 007e 13040000 		.4byte	.LASF9
 3515 0082 06       		.uleb128 0x6
 3516 0083 08       		.byte	0x8
 3517 0084 05       		.byte	0x5
 3518 0085 C5020000 		.4byte	.LASF10
 3519 0089 06       		.uleb128 0x6
 3520 008a 08       		.byte	0x8
 3521 008b 07       		.byte	0x7
 3522 008c 2E020000 		.4byte	.LASF11
 3523 0090 06       		.uleb128 0x6
 3524 0091 04       		.byte	0x4
 3525 0092 07       		.byte	0x7
 3526 0093 CA030000 		.4byte	.LASF12
 3527 0097 08       		.uleb128 0x8
 3528 0098 2B090000 		.4byte	.LASF13
 3529 009c 03       		.byte	0x3
 3530 009d 18       		.byte	0x18
 3531 009e 13       		.byte	0x13
 3532 009f 42000000 		.4byte	0x42
 3533 00a3 10       		.uleb128 0x10
 3534 00a4 97000000 		.4byte	0x97
ARM GAS  C:\Users\DEVELO~1\AppData\Local\Temp\ccPkHjk7.s 			page 63


 3535 00a8 08       		.uleb128 0x8
 3536 00a9 DB020000 		.4byte	.LASF14
 3537 00ad 03       		.byte	0x3
 3538 00ae 24       		.byte	0x24
 3539 00af 14       		.byte	0x14
 3540 00b0 55000000 		.4byte	0x55
 3541 00b4 08       		.uleb128 0x8
 3542 00b5 E1080000 		.4byte	.LASF15
 3543 00b9 03       		.byte	0x3
 3544 00ba 30       		.byte	0x30
 3545 00bb 14       		.byte	0x14
 3546 00bc 6F000000 		.4byte	0x6f
 3547 00c0 1C       		.uleb128 0x1c
 3548 00c1 B4000000 		.4byte	0xb4
 3549 00c5 10       		.uleb128 0x10
 3550 00c6 B4000000 		.4byte	0xb4
 3551 00ca 0D       		.uleb128 0xd
 3552 00cb B4000000 		.4byte	0xb4
 3553 00cf DA000000 		.4byte	0xda
 3554 00d3 0E       		.uleb128 0xe
 3555 00d4 90000000 		.4byte	0x90
 3556 00d8 01       		.byte	0x1
 3557 00d9 00       		.byte	0
 3558 00da 19       		.uleb128 0x19
 3559 00db DF030000 		.4byte	.LASF16
 3560 00df 39       		.byte	0x39
 3561 00e0 11       		.byte	0x11
 3562 00e1 B4000000 		.4byte	0xb4
 3563 00e5 19       		.uleb128 0x19
 3564 00e6 B9010000 		.4byte	.LASF17
 3565 00ea 3A       		.byte	0x3a
 3566 00eb 11       		.byte	0x11
 3567 00ec B4000000 		.4byte	0xb4
 3568 00f0 0D       		.uleb128 0xd
 3569 00f1 A3000000 		.4byte	0xa3
 3570 00f5 00010000 		.4byte	0x100
 3571 00f9 0E       		.uleb128 0xe
 3572 00fa 90000000 		.4byte	0x90
 3573 00fe 0F       		.byte	0xf
 3574 00ff 00       		.byte	0
 3575 0100 10       		.uleb128 0x10
 3576 0101 F0000000 		.4byte	0xf0
 3577 0105 19       		.uleb128 0x19
 3578 0106 EF030000 		.4byte	.LASF18
 3579 010a 3B       		.byte	0x3b
 3580 010b 17       		.byte	0x17
 3581 010c 00010000 		.4byte	0x100
 3582 0110 0D       		.uleb128 0xd
 3583 0111 B4000000 		.4byte	0xb4
 3584 0115 20010000 		.4byte	0x120
 3585 0119 0E       		.uleb128 0xe
 3586 011a 90000000 		.4byte	0x90
 3587 011e 03       		.byte	0x3
 3588 011f 00       		.byte	0
 3589 0120 0D       		.uleb128 0xd
 3590 0121 C0000000 		.4byte	0xc0
 3591 0125 30010000 		.4byte	0x130
ARM GAS  C:\Users\DEVELO~1\AppData\Local\Temp\ccPkHjk7.s 			page 64


 3592 0129 0E       		.uleb128 0xe
 3593 012a 90000000 		.4byte	0x90
 3594 012e 01       		.byte	0x1
 3595 012f 00       		.byte	0
 3596 0130 1C       		.uleb128 0x1c
 3597 0131 20010000 		.4byte	0x120
 3598 0135 0D       		.uleb128 0xd
 3599 0136 B4000000 		.4byte	0xb4
 3600 013a 45010000 		.4byte	0x145
 3601 013e 0E       		.uleb128 0xe
 3602 013f 90000000 		.4byte	0x90
 3603 0143 08       		.byte	0x8
 3604 0144 00       		.byte	0
 3605 0145 1D       		.uleb128 0x1d
 3606 0146 6401     		.2byte	0x164
 3607 0148 9303     		.2byte	0x393
 3608 014a 8E030000 		.4byte	0x38e
 3609 014e 07       		.uleb128 0x7
 3610 014f 41435200 		.ascii	"ACR\000"
 3611 0153 9503     		.2byte	0x395
 3612 0155 11       		.byte	0x11
 3613 0156 C0000000 		.4byte	0xc0
 3614 015a 00       		.byte	0
 3615 015b 01       		.uleb128 0x1
 3616 015c 62080000 		.4byte	.LASF19
 3617 0160 9603     		.2byte	0x396
 3618 0162 11       		.byte	0x11
 3619 0163 C0000000 		.4byte	0xc0
 3620 0167 04       		.byte	0x4
 3621 0168 01       		.uleb128 0x1
 3622 0169 D3020000 		.4byte	.LASF20
 3623 016d 9703     		.2byte	0x397
 3624 016f 11       		.byte	0x11
 3625 0170 C0000000 		.4byte	0xc0
 3626 0174 08       		.byte	0x8
 3627 0175 07       		.uleb128 0x7
 3628 0176 43523100 		.ascii	"CR1\000"
 3629 017a 9803     		.2byte	0x398
 3630 017c 11       		.byte	0x11
 3631 017d C0000000 		.4byte	0xc0
 3632 0181 0C       		.byte	0xc
 3633 0182 07       		.uleb128 0x7
 3634 0183 53523100 		.ascii	"SR1\000"
 3635 0187 9903     		.2byte	0x399
 3636 0189 11       		.byte	0x11
 3637 018a C0000000 		.4byte	0xc0
 3638 018e 10       		.byte	0x10
 3639 018f 01       		.uleb128 0x1
 3640 0190 F5080000 		.4byte	.LASF21
 3641 0194 9A03     		.2byte	0x39a
 3642 0196 11       		.byte	0x11
 3643 0197 C0000000 		.4byte	0xc0
 3644 019b 14       		.byte	0x14
 3645 019c 01       		.uleb128 0x1
 3646 019d 6C010000 		.4byte	.LASF22
 3647 01a1 9B03     		.2byte	0x39b
 3648 01a3 11       		.byte	0x11
ARM GAS  C:\Users\DEVELO~1\AppData\Local\Temp\ccPkHjk7.s 			page 65


 3649 01a4 C0000000 		.4byte	0xc0
 3650 01a8 18       		.byte	0x18
 3651 01a9 01       		.uleb128 0x1
 3652 01aa E6050000 		.4byte	.LASF23
 3653 01ae 9C03     		.2byte	0x39c
 3654 01b0 11       		.byte	0x11
 3655 01b1 C0000000 		.4byte	0xc0
 3656 01b5 1C       		.byte	0x1c
 3657 01b6 01       		.uleb128 0x1
 3658 01b7 A4000000 		.4byte	.LASF24
 3659 01bb 9D03     		.2byte	0x39d
 3660 01bd 11       		.byte	0x11
 3661 01be C0000000 		.4byte	0xc0
 3662 01c2 20       		.byte	0x20
 3663 01c3 01       		.uleb128 0x1
 3664 01c4 55020000 		.4byte	.LASF25
 3665 01c8 9E03     		.2byte	0x39e
 3666 01ca 11       		.byte	0x11
 3667 01cb C0000000 		.4byte	0xc0
 3668 01cf 24       		.byte	0x24
 3669 01d0 01       		.uleb128 0x1
 3670 01d1 CB040000 		.4byte	.LASF26
 3671 01d5 9F03     		.2byte	0x39f
 3672 01d7 11       		.byte	0x11
 3673 01d8 C0000000 		.4byte	0xc0
 3674 01dc 28       		.byte	0x28
 3675 01dd 01       		.uleb128 0x1
 3676 01de 87010000 		.4byte	.LASF27
 3677 01e2 A003     		.2byte	0x3a0
 3678 01e4 11       		.byte	0x11
 3679 01e5 C0000000 		.4byte	0xc0
 3680 01e9 2C       		.byte	0x2c
 3681 01ea 01       		.uleb128 0x1
 3682 01eb E4020000 		.4byte	.LASF28
 3683 01ef A103     		.2byte	0x3a1
 3684 01f1 11       		.byte	0x11
 3685 01f2 C0000000 		.4byte	0xc0
 3686 01f6 30       		.byte	0x30
 3687 01f7 01       		.uleb128 0x1
 3688 01f8 52050000 		.4byte	.LASF29
 3689 01fc A203     		.2byte	0x3a2
 3690 01fe 11       		.byte	0x11
 3691 01ff C0000000 		.4byte	0xc0
 3692 0203 34       		.byte	0x34
 3693 0204 01       		.uleb128 0x1
 3694 0205 CD080000 		.4byte	.LASF30
 3695 0209 A303     		.2byte	0x3a3
 3696 020b 11       		.byte	0x11
 3697 020c C0000000 		.4byte	0xc0
 3698 0210 38       		.byte	0x38
 3699 0211 01       		.uleb128 0x1
 3700 0212 96050000 		.4byte	.LASF31
 3701 0216 A403     		.2byte	0x3a4
 3702 0218 11       		.byte	0x11
 3703 0219 C0000000 		.4byte	0xc0
 3704 021d 3C       		.byte	0x3c
 3705 021e 01       		.uleb128 0x1
ARM GAS  C:\Users\DEVELO~1\AppData\Local\Temp\ccPkHjk7.s 			page 66


 3706 021f F8010000 		.4byte	.LASF32
 3707 0223 A503     		.2byte	0x3a5
 3708 0225 11       		.byte	0x11
 3709 0226 C0000000 		.4byte	0xc0
 3710 022a 40       		.byte	0x40
 3711 022b 01       		.uleb128 0x1
 3712 022c 4C040000 		.4byte	.LASF33
 3713 0230 A603     		.2byte	0x3a6
 3714 0232 11       		.byte	0x11
 3715 0233 C0000000 		.4byte	0xc0
 3716 0237 44       		.byte	0x44
 3717 0238 01       		.uleb128 0x1
 3718 0239 89060000 		.4byte	.LASF34
 3719 023d A703     		.2byte	0x3a7
 3720 023f 11       		.byte	0x11
 3721 0240 CA000000 		.4byte	0xca
 3722 0244 48       		.byte	0x48
 3723 0245 01       		.uleb128 0x1
 3724 0246 CC050000 		.4byte	.LASF35
 3725 024a A803     		.2byte	0x3a8
 3726 024c 11       		.byte	0x11
 3727 024d C0000000 		.4byte	0xc0
 3728 0251 50       		.byte	0x50
 3729 0252 01       		.uleb128 0x1
 3730 0253 3D090000 		.4byte	.LASF36
 3731 0257 A903     		.2byte	0x3a9
 3732 0259 11       		.byte	0x11
 3733 025a C0000000 		.4byte	0xc0
 3734 025e 54       		.byte	0x54
 3735 025f 01       		.uleb128 0x1
 3736 0260 A1010000 		.4byte	.LASF37
 3737 0264 AA03     		.2byte	0x3aa
 3738 0266 11       		.byte	0x11
 3739 0267 C0000000 		.4byte	0xc0
 3740 026b 58       		.byte	0x58
 3741 026c 01       		.uleb128 0x1
 3742 026d BD020000 		.4byte	.LASF38
 3743 0271 AB03     		.2byte	0x3ab
 3744 0273 11       		.byte	0x11
 3745 0274 C0000000 		.4byte	0xc0
 3746 0278 5C       		.byte	0x5c
 3747 0279 01       		.uleb128 0x1
 3748 027a E4090000 		.4byte	.LASF39
 3749 027e AC03     		.2byte	0x3ac
 3750 0280 11       		.byte	0x11
 3751 0281 C0000000 		.4byte	0xc0
 3752 0285 60       		.byte	0x60
 3753 0286 01       		.uleb128 0x1
 3754 0287 93060000 		.4byte	.LASF40
 3755 028b AD03     		.2byte	0x3ad
 3756 028d 11       		.byte	0x11
 3757 028e 8E030000 		.4byte	0x38e
 3758 0292 64       		.byte	0x64
 3759 0293 04       		.uleb128 0x4
 3760 0294 2C080000 		.4byte	.LASF41
 3761 0298 AE03     		.2byte	0x3ae
 3762 029a 11       		.byte	0x11
ARM GAS  C:\Users\DEVELO~1\AppData\Local\Temp\ccPkHjk7.s 			page 67


 3763 029b C0000000 		.4byte	0xc0
 3764 029f 0401     		.2byte	0x104
 3765 02a1 04       		.uleb128 0x4
 3766 02a2 86070000 		.4byte	.LASF42
 3767 02a6 AF03     		.2byte	0x3af
 3768 02a8 11       		.byte	0x11
 3769 02a9 B4000000 		.4byte	0xb4
 3770 02ad 0801     		.2byte	0x108
 3771 02af 1E       		.uleb128 0x1e
 3772 02b0 43523200 		.ascii	"CR2\000"
 3773 02b4 B003     		.2byte	0x3b0
 3774 02b6 C0000000 		.4byte	0xc0
 3775 02ba 0C01     		.2byte	0x10c
 3776 02bc 1E       		.uleb128 0x1e
 3777 02bd 53523200 		.ascii	"SR2\000"
 3778 02c1 B103     		.2byte	0x3b1
 3779 02c3 C0000000 		.4byte	0xc0
 3780 02c7 1001     		.2byte	0x110
 3781 02c9 04       		.uleb128 0x4
 3782 02ca FA080000 		.4byte	.LASF43
 3783 02ce B203     		.2byte	0x3b2
 3784 02d0 11       		.byte	0x11
 3785 02d1 C0000000 		.4byte	0xc0
 3786 02d5 1401     		.2byte	0x114
 3787 02d7 04       		.uleb128 0x4
 3788 02d8 90070000 		.4byte	.LASF44
 3789 02dc B303     		.2byte	0x3b3
 3790 02de 11       		.byte	0x11
 3791 02df 10010000 		.4byte	0x110
 3792 02e3 1801     		.2byte	0x118
 3793 02e5 04       		.uleb128 0x4
 3794 02e6 D5040000 		.4byte	.LASF45
 3795 02ea B403     		.2byte	0x3b4
 3796 02ec 11       		.byte	0x11
 3797 02ed C0000000 		.4byte	0xc0
 3798 02f1 2801     		.2byte	0x128
 3799 02f3 04       		.uleb128 0x4
 3800 02f4 91010000 		.4byte	.LASF46
 3801 02f8 B503     		.2byte	0x3b5
 3802 02fa 11       		.byte	0x11
 3803 02fb C0000000 		.4byte	0xc0
 3804 02ff 2C01     		.2byte	0x12c
 3805 0301 04       		.uleb128 0x4
 3806 0302 EE020000 		.4byte	.LASF47
 3807 0306 B603     		.2byte	0x3b6
 3808 0308 11       		.byte	0x11
 3809 0309 C0000000 		.4byte	0xc0
 3810 030d 3001     		.2byte	0x130
 3811 030f 04       		.uleb128 0x4
 3812 0310 EB070000 		.4byte	.LASF48
 3813 0314 B703     		.2byte	0x3b7
 3814 0316 11       		.byte	0x11
 3815 0317 C0000000 		.4byte	0xc0
 3816 031b 3401     		.2byte	0x134
 3817 031d 04       		.uleb128 0x4
 3818 031e BC080000 		.4byte	.LASF49
 3819 0322 B803     		.2byte	0x3b8
ARM GAS  C:\Users\DEVELO~1\AppData\Local\Temp\ccPkHjk7.s 			page 68


 3820 0324 11       		.byte	0x11
 3821 0325 C0000000 		.4byte	0xc0
 3822 0329 3801     		.2byte	0x138
 3823 032b 04       		.uleb128 0x4
 3824 032c 68000000 		.4byte	.LASF50
 3825 0330 B903     		.2byte	0x3b9
 3826 0332 11       		.byte	0x11
 3827 0333 C0000000 		.4byte	0xc0
 3828 0337 3C01     		.2byte	0x13c
 3829 0339 04       		.uleb128 0x4
 3830 033a 9A070000 		.4byte	.LASF51
 3831 033e BA03     		.2byte	0x3ba
 3832 0340 11       		.byte	0x11
 3833 0341 10010000 		.4byte	0x110
 3834 0345 4001     		.2byte	0x140
 3835 0347 04       		.uleb128 0x4
 3836 0348 32040000 		.4byte	.LASF52
 3837 034c BB03     		.2byte	0x3bb
 3838 034e 11       		.byte	0x11
 3839 034f C0000000 		.4byte	0xc0
 3840 0353 5001     		.2byte	0x150
 3841 0355 04       		.uleb128 0x4
 3842 0356 46090000 		.4byte	.LASF53
 3843 035a BC03     		.2byte	0x3bc
 3844 035c 11       		.byte	0x11
 3845 035d C0000000 		.4byte	0xc0
 3846 0361 5401     		.2byte	0x154
 3847 0363 04       		.uleb128 0x4
 3848 0364 B9050000 		.4byte	.LASF54
 3849 0368 BD03     		.2byte	0x3bd
 3850 036a 11       		.byte	0x11
 3851 036b C0000000 		.4byte	0xc0
 3852 036f 5801     		.2byte	0x158
 3853 0371 04       		.uleb128 0x4
 3854 0372 84020000 		.4byte	.LASF55
 3855 0376 BE03     		.2byte	0x3be
 3856 0378 11       		.byte	0x11
 3857 0379 C0000000 		.4byte	0xc0
 3858 037d 5C01     		.2byte	0x15c
 3859 037f 04       		.uleb128 0x4
 3860 0380 5A070000 		.4byte	.LASF56
 3861 0384 BF03     		.2byte	0x3bf
 3862 0386 11       		.byte	0x11
 3863 0387 C0000000 		.4byte	0xc0
 3864 038b 6001     		.2byte	0x160
 3865 038d 00       		.byte	0
 3866 038e 0D       		.uleb128 0xd
 3867 038f B4000000 		.4byte	0xb4
 3868 0393 9E030000 		.4byte	0x39e
 3869 0397 0E       		.uleb128 0xe
 3870 0398 90000000 		.4byte	0x90
 3871 039c 27       		.byte	0x27
 3872 039d 00       		.byte	0
 3873 039e 13       		.uleb128 0x13
 3874 039f 11020000 		.4byte	.LASF57
 3875 03a3 C003     		.2byte	0x3c0
 3876 03a5 45010000 		.4byte	0x145
ARM GAS  C:\Users\DEVELO~1\AppData\Local\Temp\ccPkHjk7.s 			page 69


 3877 03a9 1F       		.uleb128 0x1f
 3878 03aa 28       		.byte	0x28
 3879 03ab 0204     		.2byte	0x402
 3880 03ad 27040000 		.4byte	0x427
 3881 03b1 01       		.uleb128 0x1
 3882 03b2 81010000 		.4byte	.LASF58
 3883 03b6 0404     		.2byte	0x404
 3884 03b8 11       		.byte	0x11
 3885 03b9 C0000000 		.4byte	0xc0
 3886 03bd 00       		.byte	0
 3887 03be 01       		.uleb128 0x1
 3888 03bf 8A000000 		.4byte	.LASF59
 3889 03c3 0504     		.2byte	0x405
 3890 03c5 11       		.byte	0x11
 3891 03c6 C0000000 		.4byte	0xc0
 3892 03ca 04       		.byte	0x4
 3893 03cb 01       		.uleb128 0x1
 3894 03cc 55030000 		.4byte	.LASF60
 3895 03d0 0604     		.2byte	0x406
 3896 03d2 11       		.byte	0x11
 3897 03d3 C0000000 		.4byte	0xc0
 3898 03d7 08       		.byte	0x8
 3899 03d8 01       		.uleb128 0x1
 3900 03d9 9B010000 		.4byte	.LASF61
 3901 03dd 0704     		.2byte	0x407
 3902 03df 11       		.byte	0x11
 3903 03e0 C0000000 		.4byte	0xc0
 3904 03e4 0C       		.byte	0xc
 3905 03e5 07       		.uleb128 0x7
 3906 03e6 49445200 		.ascii	"IDR\000"
 3907 03ea 0804     		.2byte	0x408
 3908 03ec 11       		.byte	0x11
 3909 03ed C0000000 		.4byte	0xc0
 3910 03f1 10       		.byte	0x10
 3911 03f2 07       		.uleb128 0x7
 3912 03f3 4F445200 		.ascii	"ODR\000"
 3913 03f7 0904     		.2byte	0x409
 3914 03f9 11       		.byte	0x11
 3915 03fa C0000000 		.4byte	0xc0
 3916 03fe 14       		.byte	0x14
 3917 03ff 01       		.uleb128 0x1
 3918 0400 18090000 		.4byte	.LASF62
 3919 0404 0A04     		.2byte	0x40a
 3920 0406 11       		.byte	0x11
 3921 0407 C0000000 		.4byte	0xc0
 3922 040b 18       		.byte	0x18
 3923 040c 01       		.uleb128 0x1
 3924 040d 5C000000 		.4byte	.LASF63
 3925 0411 0B04     		.2byte	0x40b
 3926 0413 11       		.byte	0x11
 3927 0414 C0000000 		.4byte	0xc0
 3928 0418 1C       		.byte	0x1c
 3929 0419 07       		.uleb128 0x7
 3930 041a 41465200 		.ascii	"AFR\000"
 3931 041e 0C04     		.2byte	0x40c
 3932 0420 11       		.byte	0x11
 3933 0421 30010000 		.4byte	0x130
ARM GAS  C:\Users\DEVELO~1\AppData\Local\Temp\ccPkHjk7.s 			page 70


 3934 0425 20       		.byte	0x20
 3935 0426 00       		.byte	0
 3936 0427 13       		.uleb128 0x13
 3937 0428 25040000 		.4byte	.LASF64
 3938 042c 0D04     		.2byte	0x40d
 3939 042e A9030000 		.4byte	0x3a9
 3940 0432 1F       		.uleb128 0x1f
 3941 0433 2C       		.byte	0x2c
 3942 0434 BB04     		.2byte	0x4bb
 3943 0436 CA040000 		.4byte	0x4ca
 3944 043a 07       		.uleb128 0x7
 3945 043b 43523100 		.ascii	"CR1\000"
 3946 043f BD04     		.2byte	0x4bd
 3947 0441 11       		.byte	0x11
 3948 0442 C0000000 		.4byte	0xc0
 3949 0446 00       		.byte	0
 3950 0447 01       		.uleb128 0x1
 3951 0448 DF090000 		.4byte	.LASF65
 3952 044c BE04     		.2byte	0x4be
 3953 044e 11       		.byte	0x11
 3954 044f C0000000 		.4byte	0xc0
 3955 0453 04       		.byte	0x4
 3956 0454 07       		.uleb128 0x7
 3957 0455 43523200 		.ascii	"CR2\000"
 3958 0459 BF04     		.2byte	0x4bf
 3959 045b 11       		.byte	0x11
 3960 045c C0000000 		.4byte	0xc0
 3961 0460 08       		.byte	0x8
 3962 0461 07       		.uleb128 0x7
 3963 0462 43523300 		.ascii	"CR3\000"
 3964 0466 C004     		.2byte	0x4c0
 3965 0468 11       		.byte	0x11
 3966 0469 C0000000 		.4byte	0xc0
 3967 046d 0C       		.byte	0xc
 3968 046e 01       		.uleb128 0x1
 3969 046f F5070000 		.4byte	.LASF66
 3970 0473 C104     		.2byte	0x4c1
 3971 0475 11       		.byte	0x11
 3972 0476 C0000000 		.4byte	0xc0
 3973 047a 10       		.byte	0x10
 3974 047b 01       		.uleb128 0x1
 3975 047c 89060000 		.4byte	.LASF34
 3976 0480 C204     		.2byte	0x4c2
 3977 0482 11       		.byte	0x11
 3978 0483 B4000000 		.4byte	0xb4
 3979 0487 14       		.byte	0x14
 3980 0488 01       		.uleb128 0x1
 3981 0489 B1070000 		.4byte	.LASF67
 3982 048d C304     		.2byte	0x4c3
 3983 048f 11       		.byte	0x11
 3984 0490 C0000000 		.4byte	0xc0
 3985 0494 18       		.byte	0x18
 3986 0495 01       		.uleb128 0x1
 3987 0496 93060000 		.4byte	.LASF40
 3988 049a C404     		.2byte	0x4c4
 3989 049c 11       		.byte	0x11
 3990 049d B4000000 		.4byte	0xb4
ARM GAS  C:\Users\DEVELO~1\AppData\Local\Temp\ccPkHjk7.s 			page 71


 3991 04a1 1C       		.byte	0x1c
 3992 04a2 01       		.uleb128 0x1
 3993 04a3 01020000 		.4byte	.LASF68
 3994 04a7 C504     		.2byte	0x4c5
 3995 04a9 11       		.byte	0x11
 3996 04aa C0000000 		.4byte	0xc0
 3997 04ae 20       		.byte	0x20
 3998 04af 01       		.uleb128 0x1
 3999 04b0 61000000 		.4byte	.LASF69
 4000 04b4 C604     		.2byte	0x4c6
 4001 04b6 11       		.byte	0x11
 4002 04b7 C0000000 		.4byte	0xc0
 4003 04bb 24       		.byte	0x24
 4004 04bc 01       		.uleb128 0x1
 4005 04bd D7030000 		.4byte	.LASF70
 4006 04c1 C704     		.2byte	0x4c7
 4007 04c3 11       		.byte	0x11
 4008 04c4 C0000000 		.4byte	0xc0
 4009 04c8 28       		.byte	0x28
 4010 04c9 00       		.byte	0
 4011 04ca 13       		.uleb128 0x13
 4012 04cb 89080000 		.4byte	.LASF71
 4013 04cf C804     		.2byte	0x4c8
 4014 04d1 32040000 		.4byte	0x432
 4015 04d5 1D       		.uleb128 0x1d
 4016 04d6 3001     		.2byte	0x130
 4017 04d8 CE04     		.2byte	0x4ce
 4018 04da 34080000 		.4byte	0x834
 4019 04de 07       		.uleb128 0x7
 4020 04df 435200   		.ascii	"CR\000"
 4021 04e2 D004     		.2byte	0x4d0
 4022 04e4 10       		.byte	0x10
 4023 04e5 C0000000 		.4byte	0xc0
 4024 04e9 00       		.byte	0
 4025 04ea 01       		.uleb128 0x1
 4026 04eb 00040000 		.4byte	.LASF72
 4027 04ef D104     		.2byte	0x4d1
 4028 04f1 10       		.byte	0x10
 4029 04f2 C0000000 		.4byte	0xc0
 4030 04f6 04       		.byte	0x4
 4031 04f7 01       		.uleb128 0x1
 4032 04f8 2D030000 		.4byte	.LASF73
 4033 04fc D204     		.2byte	0x4d2
 4034 04fe 10       		.byte	0x10
 4035 04ff C0000000 		.4byte	0xc0
 4036 0503 08       		.byte	0x8
 4037 0504 01       		.uleb128 0x1
 4038 0505 B4080000 		.4byte	.LASF74
 4039 0509 D304     		.2byte	0x4d3
 4040 050b 10       		.byte	0x10
 4041 050c C0000000 		.4byte	0xc0
 4042 0510 0C       		.byte	0xc
 4043 0511 01       		.uleb128 0x1
 4044 0512 90090000 		.4byte	.LASF75
 4045 0516 D404     		.2byte	0x4d4
 4046 0518 10       		.byte	0x10
 4047 0519 C0000000 		.4byte	0xc0
ARM GAS  C:\Users\DEVELO~1\AppData\Local\Temp\ccPkHjk7.s 			page 72


 4048 051d 10       		.byte	0x10
 4049 051e 01       		.uleb128 0x1
 4050 051f 93060000 		.4byte	.LASF40
 4051 0523 D504     		.2byte	0x4d5
 4052 0525 0F       		.byte	0xf
 4053 0526 B4000000 		.4byte	0xb4
 4054 052a 14       		.byte	0x14
 4055 052b 01       		.uleb128 0x1
 4056 052c FD090000 		.4byte	.LASF76
 4057 0530 D604     		.2byte	0x4d6
 4058 0532 10       		.byte	0x10
 4059 0533 C0000000 		.4byte	0xc0
 4060 0537 18       		.byte	0x18
 4061 0538 01       		.uleb128 0x1
 4062 0539 B7060000 		.4byte	.LASF77
 4063 053d D704     		.2byte	0x4d7
 4064 053f 10       		.byte	0x10
 4065 0540 C0000000 		.4byte	0xc0
 4066 0544 1C       		.byte	0x1c
 4067 0545 01       		.uleb128 0x1
 4068 0546 0C030000 		.4byte	.LASF78
 4069 054a D804     		.2byte	0x4d8
 4070 054c 10       		.byte	0x10
 4071 054d C0000000 		.4byte	0xc0
 4072 0551 20       		.byte	0x20
 4073 0552 01       		.uleb128 0x1
 4074 0553 86070000 		.4byte	.LASF42
 4075 0557 D904     		.2byte	0x4d9
 4076 0559 0F       		.byte	0xf
 4077 055a B4000000 		.4byte	0xb4
 4078 055e 24       		.byte	0x24
 4079 055f 01       		.uleb128 0x1
 4080 0560 84040000 		.4byte	.LASF79
 4081 0564 DA04     		.2byte	0x4da
 4082 0566 10       		.byte	0x10
 4083 0567 C0000000 		.4byte	0xc0
 4084 056b 28       		.byte	0x28
 4085 056c 01       		.uleb128 0x1
 4086 056d 13030000 		.4byte	.LASF80
 4087 0571 DB04     		.2byte	0x4db
 4088 0573 10       		.byte	0x10
 4089 0574 C0000000 		.4byte	0xc0
 4090 0578 2C       		.byte	0x2c
 4091 0579 01       		.uleb128 0x1
 4092 057a 15000000 		.4byte	.LASF81
 4093 057e DC04     		.2byte	0x4dc
 4094 0580 10       		.byte	0x10
 4095 0581 C0000000 		.4byte	0xc0
 4096 0585 30       		.byte	0x30
 4097 0586 01       		.uleb128 0x1
 4098 0587 8D020000 		.4byte	.LASF82
 4099 058b DD04     		.2byte	0x4dd
 4100 058d 10       		.byte	0x10
 4101 058e C0000000 		.4byte	0xc0
 4102 0592 34       		.byte	0x34
 4103 0593 01       		.uleb128 0x1
 4104 0594 F1060000 		.4byte	.LASF83
ARM GAS  C:\Users\DEVELO~1\AppData\Local\Temp\ccPkHjk7.s 			page 73


 4105 0598 DE04     		.2byte	0x4de
 4106 059a 10       		.byte	0x10
 4107 059b C0000000 		.4byte	0xc0
 4108 059f 38       		.byte	0x38
 4109 05a0 01       		.uleb128 0x1
 4110 05a1 B0030000 		.4byte	.LASF84
 4111 05a5 DF04     		.2byte	0x4df
 4112 05a7 10       		.byte	0x10
 4113 05a8 C0000000 		.4byte	0xc0
 4114 05ac 3C       		.byte	0x3c
 4115 05ad 01       		.uleb128 0x1
 4116 05ae 38030000 		.4byte	.LASF85
 4117 05b2 E004     		.2byte	0x4e0
 4118 05b4 10       		.byte	0x10
 4119 05b5 C0000000 		.4byte	0xc0
 4120 05b9 40       		.byte	0x40
 4121 05ba 01       		.uleb128 0x1
 4122 05bb 0D050000 		.4byte	.LASF86
 4123 05bf E104     		.2byte	0x4e1
 4124 05c1 10       		.byte	0x10
 4125 05c2 C0000000 		.4byte	0xc0
 4126 05c6 44       		.byte	0x44
 4127 05c7 01       		.uleb128 0x1
 4128 05c8 90070000 		.4byte	.LASF44
 4129 05cc E204     		.2byte	0x4e2
 4130 05ce 10       		.byte	0x10
 4131 05cf B4000000 		.4byte	0xb4
 4132 05d3 48       		.byte	0x48
 4133 05d4 01       		.uleb128 0x1
 4134 05d5 C0070000 		.4byte	.LASF87
 4135 05d9 E304     		.2byte	0x4e3
 4136 05db 11       		.byte	0x11
 4137 05dc C0000000 		.4byte	0xc0
 4138 05e0 4C       		.byte	0x4c
 4139 05e1 01       		.uleb128 0x1
 4140 05e2 68030000 		.4byte	.LASF88
 4141 05e6 E404     		.2byte	0x4e4
 4142 05e8 11       		.byte	0x11
 4143 05e9 C0000000 		.4byte	0xc0
 4144 05ed 50       		.byte	0x50
 4145 05ee 01       		.uleb128 0x1
 4146 05ef 55040000 		.4byte	.LASF89
 4147 05f3 E504     		.2byte	0x4e5
 4148 05f5 11       		.byte	0x11
 4149 05f6 C0000000 		.4byte	0xc0
 4150 05fa 54       		.byte	0x54
 4151 05fb 01       		.uleb128 0x1
 4152 05fc 8A030000 		.4byte	.LASF90
 4153 0600 E604     		.2byte	0x4e6
 4154 0602 11       		.byte	0x11
 4155 0603 C0000000 		.4byte	0xc0
 4156 0607 58       		.byte	0x58
 4157 0608 01       		.uleb128 0x1
 4158 0609 9A070000 		.4byte	.LASF51
 4159 060d E704     		.2byte	0x4e7
 4160 060f 10       		.byte	0x10
 4161 0610 B4000000 		.4byte	0xb4
ARM GAS  C:\Users\DEVELO~1\AppData\Local\Temp\ccPkHjk7.s 			page 74


 4162 0614 5C       		.byte	0x5c
 4163 0615 01       		.uleb128 0x1
 4164 0616 D6010000 		.4byte	.LASF91
 4165 061a E804     		.2byte	0x4e8
 4166 061c 11       		.byte	0x11
 4167 061d C0000000 		.4byte	0xc0
 4168 0621 60       		.byte	0x60
 4169 0622 01       		.uleb128 0x1
 4170 0623 33030000 		.4byte	.LASF92
 4171 0627 E904     		.2byte	0x4e9
 4172 0629 11       		.byte	0x11
 4173 062a C0000000 		.4byte	0xc0
 4174 062e 64       		.byte	0x64
 4175 062f 01       		.uleb128 0x1
 4176 0630 FF080000 		.4byte	.LASF93
 4177 0634 EA04     		.2byte	0x4ea
 4178 0636 11       		.byte	0x11
 4179 0637 C0000000 		.4byte	0xc0
 4180 063b 68       		.byte	0x68
 4181 063c 01       		.uleb128 0x1
 4182 063d BE060000 		.4byte	.LASF94
 4183 0641 EB04     		.2byte	0x4eb
 4184 0643 0F       		.byte	0xf
 4185 0644 B4000000 		.4byte	0xb4
 4186 0648 6C       		.byte	0x6c
 4187 0649 01       		.uleb128 0x1
 4188 064a 26090000 		.4byte	.LASF95
 4189 064e EC04     		.2byte	0x4ec
 4190 0650 11       		.byte	0x11
 4191 0651 C0000000 		.4byte	0xc0
 4192 0655 70       		.byte	0x70
 4193 0656 07       		.uleb128 0x7
 4194 0657 43535200 		.ascii	"CSR\000"
 4195 065b ED04     		.2byte	0x4ed
 4196 065d 11       		.byte	0x11
 4197 065e C0000000 		.4byte	0xc0
 4198 0662 74       		.byte	0x74
 4199 0663 01       		.uleb128 0x1
 4200 0664 C8060000 		.4byte	.LASF96
 4201 0668 EE04     		.2byte	0x4ee
 4202 066a 0F       		.byte	0xf
 4203 066b B4000000 		.4byte	0xb4
 4204 066f 78       		.byte	0x78
 4205 0670 01       		.uleb128 0x1
 4206 0671 97040000 		.4byte	.LASF97
 4207 0675 EF04     		.2byte	0x4ef
 4208 0677 10       		.byte	0x10
 4209 0678 C0000000 		.4byte	0xc0
 4210 067c 7C       		.byte	0x7c
 4211 067d 01       		.uleb128 0x1
 4212 067e 08020000 		.4byte	.LASF98
 4213 0682 F004     		.2byte	0x4f0
 4214 0684 10       		.byte	0x10
 4215 0685 C0000000 		.4byte	0xc0
 4216 0689 80       		.byte	0x80
 4217 068a 01       		.uleb128 0x1
 4218 068b 23080000 		.4byte	.LASF99
ARM GAS  C:\Users\DEVELO~1\AppData\Local\Temp\ccPkHjk7.s 			page 75


 4219 068f F104     		.2byte	0x4f1
 4220 0691 10       		.byte	0x10
 4221 0692 C0000000 		.4byte	0xc0
 4222 0696 84       		.byte	0x84
 4223 0697 01       		.uleb128 0x1
 4224 0698 72000000 		.4byte	.LASF100
 4225 069c F204     		.2byte	0x4f2
 4226 069e 10       		.byte	0x10
 4227 069f C0000000 		.4byte	0xc0
 4228 06a3 88       		.byte	0x88
 4229 06a4 01       		.uleb128 0x1
 4230 06a5 AB080000 		.4byte	.LASF101
 4231 06a9 F304     		.2byte	0x4f3
 4232 06ab 10       		.byte	0x10
 4233 06ac C0000000 		.4byte	0xc0
 4234 06b0 8C       		.byte	0x8c
 4235 06b1 01       		.uleb128 0x1
 4236 06b2 7F080000 		.4byte	.LASF102
 4237 06b6 F404     		.2byte	0x4f4
 4238 06b8 10       		.byte	0x10
 4239 06b9 C0000000 		.4byte	0xc0
 4240 06bd 90       		.byte	0x90
 4241 06be 01       		.uleb128 0x1
 4242 06bf C2050000 		.4byte	.LASF103
 4243 06c3 F504     		.2byte	0x4f5
 4244 06c5 10       		.byte	0x10
 4245 06c6 C0000000 		.4byte	0xc0
 4246 06ca 94       		.byte	0x94
 4247 06cb 01       		.uleb128 0x1
 4248 06cc A1020000 		.4byte	.LASF104
 4249 06d0 F604     		.2byte	0x4f6
 4250 06d2 10       		.byte	0x10
 4251 06d3 C0000000 		.4byte	0xc0
 4252 06d7 98       		.byte	0x98
 4253 06d8 01       		.uleb128 0x1
 4254 06d9 2C050000 		.4byte	.LASF105
 4255 06dd F704     		.2byte	0x4f7
 4256 06df 10       		.byte	0x10
 4257 06e0 C0000000 		.4byte	0xc0
 4258 06e4 9C       		.byte	0x9c
 4259 06e5 07       		.uleb128 0x7
 4260 06e6 47435200 		.ascii	"GCR\000"
 4261 06ea F804     		.2byte	0x4f8
 4262 06ec 10       		.byte	0x10
 4263 06ed C0000000 		.4byte	0xc0
 4264 06f1 A0       		.byte	0xa0
 4265 06f2 01       		.uleb128 0x1
 4266 06f3 D2060000 		.4byte	.LASF106
 4267 06f7 F904     		.2byte	0x4f9
 4268 06f9 0F       		.byte	0xf
 4269 06fa B4000000 		.4byte	0xb4
 4270 06fe A4       		.byte	0xa4
 4271 06ff 01       		.uleb128 0x1
 4272 0700 AA010000 		.4byte	.LASF107
 4273 0704 FA04     		.2byte	0x4fa
 4274 0706 10       		.byte	0x10
 4275 0707 C0000000 		.4byte	0xc0
ARM GAS  C:\Users\DEVELO~1\AppData\Local\Temp\ccPkHjk7.s 			page 76


 4276 070b A8       		.byte	0xa8
 4277 070c 01       		.uleb128 0x1
 4278 070d 5C020000 		.4byte	.LASF108
 4279 0711 FB04     		.2byte	0x4fb
 4280 0713 0F       		.byte	0xf
 4281 0714 35010000 		.4byte	0x135
 4282 0718 AC       		.byte	0xac
 4283 0719 07       		.uleb128 0x7
 4284 071a 52535200 		.ascii	"RSR\000"
 4285 071e FC04     		.2byte	0x4fc
 4286 0720 10       		.byte	0x10
 4287 0721 C0000000 		.4byte	0xc0
 4288 0725 D0       		.byte	0xd0
 4289 0726 01       		.uleb128 0x1
 4290 0727 7E070000 		.4byte	.LASF109
 4291 072b FD04     		.2byte	0x4fd
 4292 072d 10       		.byte	0x10
 4293 072e C0000000 		.4byte	0xc0
 4294 0732 D4       		.byte	0xd4
 4295 0733 01       		.uleb128 0x1
 4296 0734 A8030000 		.4byte	.LASF110
 4297 0738 FE04     		.2byte	0x4fe
 4298 073a 10       		.byte	0x10
 4299 073b C0000000 		.4byte	0xc0
 4300 073f D8       		.byte	0xd8
 4301 0740 01       		.uleb128 0x1
 4302 0741 95080000 		.4byte	.LASF111
 4303 0745 FF04     		.2byte	0x4ff
 4304 0747 10       		.byte	0x10
 4305 0748 C0000000 		.4byte	0xc0
 4306 074c DC       		.byte	0xdc
 4307 074d 01       		.uleb128 0x1
 4308 074e 32080000 		.4byte	.LASF112
 4309 0752 0005     		.2byte	0x500
 4310 0754 10       		.byte	0x10
 4311 0755 C0000000 		.4byte	0xc0
 4312 0759 E0       		.byte	0xe0
 4313 075a 01       		.uleb128 0x1
 4314 075b 74060000 		.4byte	.LASF113
 4315 075f 0105     		.2byte	0x501
 4316 0761 10       		.byte	0x10
 4317 0762 C0000000 		.4byte	0xc0
 4318 0766 E4       		.byte	0xe4
 4319 0767 01       		.uleb128 0x1
 4320 0768 D6090000 		.4byte	.LASF114
 4321 076c 0205     		.2byte	0x502
 4322 076e 10       		.byte	0x10
 4323 076f C0000000 		.4byte	0xc0
 4324 0773 E8       		.byte	0xe8
 4325 0774 01       		.uleb128 0x1
 4326 0775 AB040000 		.4byte	.LASF115
 4327 0779 0305     		.2byte	0x503
 4328 077b 10       		.byte	0x10
 4329 077c C0000000 		.4byte	0xc0
 4330 0780 EC       		.byte	0xec
 4331 0781 01       		.uleb128 0x1
 4332 0782 76070000 		.4byte	.LASF116
ARM GAS  C:\Users\DEVELO~1\AppData\Local\Temp\ccPkHjk7.s 			page 77


 4333 0786 0405     		.2byte	0x504
 4334 0788 10       		.byte	0x10
 4335 0789 C0000000 		.4byte	0xc0
 4336 078d F0       		.byte	0xf0
 4337 078e 01       		.uleb128 0x1
 4338 078f 73050000 		.4byte	.LASF117
 4339 0793 0505     		.2byte	0x505
 4340 0795 10       		.byte	0x10
 4341 0796 C0000000 		.4byte	0xc0
 4342 079a F4       		.byte	0xf4
 4343 079b 01       		.uleb128 0x1
 4344 079c 67020000 		.4byte	.LASF118
 4345 07a0 0605     		.2byte	0x506
 4346 07a2 10       		.byte	0x10
 4347 07a3 B4000000 		.4byte	0xb4
 4348 07a7 F8       		.byte	0xf8
 4349 07a8 01       		.uleb128 0x1
 4350 07a9 2D070000 		.4byte	.LASF119
 4351 07ad 0705     		.2byte	0x507
 4352 07af 10       		.byte	0x10
 4353 07b0 C0000000 		.4byte	0xc0
 4354 07b4 FC       		.byte	0xfc
 4355 07b5 04       		.uleb128 0x4
 4356 07b6 33090000 		.4byte	.LASF120
 4357 07ba 0805     		.2byte	0x508
 4358 07bc 10       		.byte	0x10
 4359 07bd C0000000 		.4byte	0xc0
 4360 07c1 0001     		.2byte	0x100
 4361 07c3 04       		.uleb128 0x4
 4362 07c4 FE050000 		.4byte	.LASF121
 4363 07c8 0905     		.2byte	0x509
 4364 07ca 10       		.byte	0x10
 4365 07cb C0000000 		.4byte	0xc0
 4366 07cf 0401     		.2byte	0x104
 4367 07d1 04       		.uleb128 0x4
 4368 07d2 58080000 		.4byte	.LASF122
 4369 07d6 0A05     		.2byte	0x50a
 4370 07d8 10       		.byte	0x10
 4371 07d9 C0000000 		.4byte	0xc0
 4372 07dd 0801     		.2byte	0x108
 4373 07df 04       		.uleb128 0x4
 4374 07e0 08060000 		.4byte	.LASF123
 4375 07e4 0B05     		.2byte	0x50b
 4376 07e6 10       		.byte	0x10
 4377 07e7 C0000000 		.4byte	0xc0
 4378 07eb 0C01     		.2byte	0x10c
 4379 07ed 04       		.uleb128 0x4
 4380 07ee EA080000 		.4byte	.LASF124
 4381 07f2 0C05     		.2byte	0x50c
 4382 07f4 10       		.byte	0x10
 4383 07f5 C0000000 		.4byte	0xc0
 4384 07f9 1001     		.2byte	0x110
 4385 07fb 04       		.uleb128 0x4
 4386 07fc 57010000 		.4byte	.LASF125
 4387 0800 0D05     		.2byte	0x50d
 4388 0802 10       		.byte	0x10
 4389 0803 C0000000 		.4byte	0xc0
ARM GAS  C:\Users\DEVELO~1\AppData\Local\Temp\ccPkHjk7.s 			page 78


 4390 0807 1401     		.2byte	0x114
 4391 0809 04       		.uleb128 0x4
 4392 080a 03050000 		.4byte	.LASF126
 4393 080e 0E05     		.2byte	0x50e
 4394 0810 10       		.byte	0x10
 4395 0811 C0000000 		.4byte	0xc0
 4396 0815 1801     		.2byte	0x118
 4397 0817 04       		.uleb128 0x4
 4398 0818 AA020000 		.4byte	.LASF127
 4399 081c 0F05     		.2byte	0x50f
 4400 081e 10       		.byte	0x10
 4401 081f C0000000 		.4byte	0xc0
 4402 0823 1C01     		.2byte	0x11c
 4403 0825 04       		.uleb128 0x4
 4404 0826 72020000 		.4byte	.LASF128
 4405 082a 1005     		.2byte	0x510
 4406 082c 0F       		.byte	0xf
 4407 082d 10010000 		.4byte	0x110
 4408 0831 2001     		.2byte	0x120
 4409 0833 00       		.byte	0
 4410 0834 13       		.uleb128 0x13
 4411 0835 39040000 		.4byte	.LASF129
 4412 0839 1205     		.2byte	0x512
 4413 083b D5040000 		.4byte	0x4d5
 4414 083f 06       		.uleb128 0x6
 4415 0840 08       		.byte	0x8
 4416 0841 04       		.byte	0x4
 4417 0842 C8070000 		.4byte	.LASF130
 4418 0846 06       		.uleb128 0x6
 4419 0847 01       		.byte	0x1
 4420 0848 08       		.byte	0x8
 4421 0849 D4070000 		.4byte	.LASF131
 4422 084d 08       		.uleb128 0x8
 4423 084e C3040000 		.4byte	.LASF132
 4424 0852 06       		.byte	0x6
 4425 0853 A0       		.byte	0xa0
 4426 0854 14       		.byte	0x14
 4427 0855 2D000000 		.4byte	0x2d
 4428 0859 06       		.uleb128 0x6
 4429 085a 08       		.byte	0x8
 4430 085b 04       		.byte	0x4
 4431 085c EC090000 		.4byte	.LASF133
 4432 0860 26       		.uleb128 0x26
 4433 0861 07       		.byte	0x7
 4434 0862 01       		.byte	0x1
 4435 0863 4E000000 		.4byte	0x4e
 4436 0867 07       		.byte	0x7
 4437 0868 28       		.byte	0x28
 4438 0869 01       		.byte	0x1
 4439 086a 87080000 		.4byte	0x887
 4440 086e 14       		.uleb128 0x14
 4441 086f 45040000 		.4byte	.LASF134
 4442 0873 00       		.byte	0
 4443 0874 14       		.uleb128 0x14
 4444 0875 B6070000 		.4byte	.LASF135
 4445 0879 01       		.byte	0x1
 4446 087a 14       		.uleb128 0x14
ARM GAS  C:\Users\DEVELO~1\AppData\Local\Temp\ccPkHjk7.s 			page 79


 4447 087b 9B000000 		.4byte	.LASF136
 4448 087f 02       		.byte	0x2
 4449 0880 14       		.uleb128 0x14
 4450 0881 9C030000 		.4byte	.LASF137
 4451 0885 03       		.byte	0x3
 4452 0886 00       		.byte	0
 4453 0887 08       		.uleb128 0x8
 4454 0888 F1040000 		.4byte	.LASF138
 4455 088c 07       		.byte	0x7
 4456 088d 2D       		.byte	0x2d
 4457 088e 03       		.byte	0x3
 4458 088f 60080000 		.4byte	0x860
 4459 0893 15       		.uleb128 0x15
 4460 0894 28       		.byte	0x28
 4461 0895 08       		.byte	0x8
 4462 0896 2E       		.byte	0x2e
 4463 0897 14090000 		.4byte	0x914
 4464 089b 03       		.uleb128 0x3
 4465 089c 8E040000 		.4byte	.LASF139
 4466 08a0 08       		.byte	0x8
 4467 08a1 30       		.byte	0x30
 4468 08a2 B4000000 		.4byte	0xb4
 4469 08a6 00       		.byte	0
 4470 08a7 03       		.uleb128 0x3
 4471 08a8 41070000 		.4byte	.LASF140
 4472 08ac 08       		.byte	0x8
 4473 08ad 33       		.byte	0x33
 4474 08ae B4000000 		.4byte	0xb4
 4475 08b2 04       		.byte	0x4
 4476 08b3 03       		.uleb128 0x3
 4477 08b4 62010000 		.4byte	.LASF141
 4478 08b8 08       		.byte	0x8
 4479 08b9 36       		.byte	0x36
 4480 08ba B4000000 		.4byte	0xb4
 4481 08be 08       		.byte	0x8
 4482 08bf 03       		.uleb128 0x3
 4483 08c0 67010000 		.4byte	.LASF142
 4484 08c4 08       		.byte	0x8
 4485 08c5 39       		.byte	0x39
 4486 08c6 B4000000 		.4byte	0xb4
 4487 08ca 0C       		.byte	0xc
 4488 08cb 03       		.uleb128 0x3
 4489 08cc 72010000 		.4byte	.LASF143
 4490 08d0 08       		.byte	0x8
 4491 08d1 3E       		.byte	0x3e
 4492 08d2 B4000000 		.4byte	0xb4
 4493 08d6 10       		.byte	0x10
 4494 08d7 03       		.uleb128 0x3
 4495 08d8 77010000 		.4byte	.LASF144
 4496 08dc 08       		.byte	0x8
 4497 08dd 42       		.byte	0x42
 4498 08de B4000000 		.4byte	0xb4
 4499 08e2 14       		.byte	0x14
 4500 08e3 03       		.uleb128 0x3
 4501 08e4 7C010000 		.4byte	.LASF145
 4502 08e8 08       		.byte	0x8
 4503 08e9 45       		.byte	0x45
ARM GAS  C:\Users\DEVELO~1\AppData\Local\Temp\ccPkHjk7.s 			page 80


 4504 08ea B4000000 		.4byte	0xb4
 4505 08ee 18       		.byte	0x18
 4506 08ef 03       		.uleb128 0x3
 4507 08f0 17050000 		.4byte	.LASF146
 4508 08f4 08       		.byte	0x8
 4509 08f5 47       		.byte	0x47
 4510 08f6 B4000000 		.4byte	0xb4
 4511 08fa 1C       		.byte	0x1c
 4512 08fb 03       		.uleb128 0x3
 4513 08fc 5C050000 		.4byte	.LASF147
 4514 0900 08       		.byte	0x8
 4515 0901 49       		.byte	0x49
 4516 0902 B4000000 		.4byte	0xb4
 4517 0906 20       		.byte	0x20
 4518 0907 03       		.uleb128 0x3
 4519 0908 9D060000 		.4byte	.LASF148
 4520 090c 08       		.byte	0x8
 4521 090d 4C       		.byte	0x4c
 4522 090e B4000000 		.4byte	0xb4
 4523 0912 24       		.byte	0x24
 4524 0913 00       		.byte	0
 4525 0914 08       		.uleb128 0x8
 4526 0915 71040000 		.4byte	.LASF149
 4527 0919 08       		.byte	0x8
 4528 091a 4F       		.byte	0x4f
 4529 091b 03       		.byte	0x3
 4530 091c 93080000 		.4byte	0x893
 4531 0920 15       		.uleb128 0x15
 4532 0921 4C       		.byte	0x4c
 4533 0922 08       		.byte	0x8
 4534 0923 54       		.byte	0x54
 4535 0924 A2090000 		.4byte	0x9a2
 4536 0928 03       		.uleb128 0x3
 4537 0929 B4040000 		.4byte	.LASF150
 4538 092d 08       		.byte	0x8
 4539 092e 56       		.byte	0x56
 4540 092f B4000000 		.4byte	0xb4
 4541 0933 00       		.byte	0
 4542 0934 03       		.uleb128 0x3
 4543 0935 7B050000 		.4byte	.LASF151
 4544 0939 08       		.byte	0x8
 4545 093a 59       		.byte	0x59
 4546 093b B4000000 		.4byte	0xb4
 4547 093f 04       		.byte	0x4
 4548 0940 03       		.uleb128 0x3
 4549 0941 1A070000 		.4byte	.LASF152
 4550 0945 08       		.byte	0x8
 4551 0946 5C       		.byte	0x5c
 4552 0947 B4000000 		.4byte	0xb4
 4553 094b 08       		.byte	0x8
 4554 094c 03       		.uleb128 0x3
 4555 094d B0010000 		.4byte	.LASF153
 4556 0951 08       		.byte	0x8
 4557 0952 5F       		.byte	0x5f
 4558 0953 B4000000 		.4byte	0xb4
 4559 0957 0C       		.byte	0xc
 4560 0958 03       		.uleb128 0x3
ARM GAS  C:\Users\DEVELO~1\AppData\Local\Temp\ccPkHjk7.s 			page 81


 4561 0959 F8020000 		.4byte	.LASF154
 4562 095d 08       		.byte	0x8
 4563 095e 62       		.byte	0x62
 4564 095f B4000000 		.4byte	0xb4
 4565 0963 10       		.byte	0x10
 4566 0964 03       		.uleb128 0x3
 4567 0965 B4020000 		.4byte	.LASF155
 4568 0969 08       		.byte	0x8
 4569 096a 66       		.byte	0x66
 4570 096b B4000000 		.4byte	0xb4
 4571 096f 14       		.byte	0x14
 4572 0970 03       		.uleb128 0x3
 4573 0971 68090000 		.4byte	.LASF156
 4574 0975 08       		.byte	0x8
 4575 0976 69       		.byte	0x69
 4576 0977 B4000000 		.4byte	0xb4
 4577 097b 18       		.byte	0x18
 4578 097c 03       		.uleb128 0x3
 4579 097d C1030000 		.4byte	.LASF157
 4580 0981 08       		.byte	0x8
 4581 0982 6C       		.byte	0x6c
 4582 0983 B4000000 		.4byte	0xb4
 4583 0987 1C       		.byte	0x1c
 4584 0988 03       		.uleb128 0x3
 4585 0989 76030000 		.4byte	.LASF158
 4586 098d 08       		.byte	0x8
 4587 098e 6F       		.byte	0x6f
 4588 098f B4000000 		.4byte	0xb4
 4589 0993 20       		.byte	0x20
 4590 0994 20       		.uleb128 0x20
 4591 0995 504C4C00 		.ascii	"PLL\000"
 4592 0999 08       		.byte	0x8
 4593 099a 73       		.byte	0x73
 4594 099b 16       		.byte	0x16
 4595 099c 14090000 		.4byte	0x914
 4596 09a0 24       		.byte	0x24
 4597 09a1 00       		.byte	0
 4598 09a2 08       		.uleb128 0x8
 4599 09a3 E5010000 		.4byte	.LASF159
 4600 09a7 08       		.byte	0x8
 4601 09a8 75       		.byte	0x75
 4602 09a9 03       		.byte	0x3
 4603 09aa 20090000 		.4byte	0x920
 4604 09ae 15       		.uleb128 0x15
 4605 09af 20       		.byte	0x20
 4606 09b0 08       		.byte	0x8
 4607 09b1 7A       		.byte	0x7a
 4608 09b2 170A0000 		.4byte	0xa17
 4609 09b6 03       		.uleb128 0x3
 4610 09b7 4F090000 		.4byte	.LASF160
 4611 09bb 08       		.byte	0x8
 4612 09bc 7C       		.byte	0x7c
 4613 09bd B4000000 		.4byte	0xb4
 4614 09c1 00       		.byte	0
 4615 09c2 03       		.uleb128 0x3
 4616 09c3 040A0000 		.4byte	.LASF161
 4617 09c7 08       		.byte	0x8
ARM GAS  C:\Users\DEVELO~1\AppData\Local\Temp\ccPkHjk7.s 			page 82


 4618 09c8 7F       		.byte	0x7f
 4619 09c9 B4000000 		.4byte	0xb4
 4620 09cd 04       		.byte	0x4
 4621 09ce 03       		.uleb128 0x3
 4622 09cf 44050000 		.4byte	.LASF162
 4623 09d3 08       		.byte	0x8
 4624 09d4 82       		.byte	0x82
 4625 09d5 B4000000 		.4byte	0xb4
 4626 09d9 08       		.byte	0x8
 4627 09da 03       		.uleb128 0x3
 4628 09db 1E050000 		.4byte	.LASF163
 4629 09df 08       		.byte	0x8
 4630 09e0 85       		.byte	0x85
 4631 09e1 B4000000 		.4byte	0xb4
 4632 09e5 0C       		.byte	0xc
 4633 09e6 03       		.uleb128 0x3
 4634 09e7 59090000 		.4byte	.LASF164
 4635 09eb 08       		.byte	0x8
 4636 09ec 88       		.byte	0x88
 4637 09ed B4000000 		.4byte	0xb4
 4638 09f1 10       		.byte	0x10
 4639 09f2 03       		.uleb128 0x3
 4640 09f3 7B000000 		.4byte	.LASF165
 4641 09f7 08       		.byte	0x8
 4642 09f8 8B       		.byte	0x8b
 4643 09f9 B4000000 		.4byte	0xb4
 4644 09fd 14       		.byte	0x14
 4645 09fe 03       		.uleb128 0x3
 4646 09ff 49080000 		.4byte	.LASF166
 4647 0a03 08       		.byte	0x8
 4648 0a04 8D       		.byte	0x8d
 4649 0a05 B4000000 		.4byte	0xb4
 4650 0a09 18       		.byte	0x18
 4651 0a0a 03       		.uleb128 0x3
 4652 0a0b 4B070000 		.4byte	.LASF167
 4653 0a0f 08       		.byte	0x8
 4654 0a10 8F       		.byte	0x8f
 4655 0a11 B4000000 		.4byte	0xb4
 4656 0a15 1C       		.byte	0x1c
 4657 0a16 00       		.byte	0
 4658 0a17 08       		.uleb128 0x8
 4659 0a18 12060000 		.4byte	.LASF168
 4660 0a1c 08       		.byte	0x8
 4661 0a1d 91       		.byte	0x91
 4662 0a1e 03       		.byte	0x3
 4663 0a1f AE090000 		.4byte	0x9ae
 4664 0a23 10       		.uleb128 0x10
 4665 0a24 170A0000 		.4byte	0xa17
 4666 0a28 15       		.uleb128 0x15
 4667 0a29 14       		.byte	0x14
 4668 0a2a 09       		.byte	0x9
 4669 0a2b 2E       		.byte	0x2e
 4670 0a2c 6E0A0000 		.4byte	0xa6e
 4671 0a30 20       		.uleb128 0x20
 4672 0a31 50696E00 		.ascii	"Pin\000"
 4673 0a35 09       		.byte	0x9
 4674 0a36 30       		.byte	0x30
ARM GAS  C:\Users\DEVELO~1\AppData\Local\Temp\ccPkHjk7.s 			page 83


 4675 0a37 0C       		.byte	0xc
 4676 0a38 B4000000 		.4byte	0xb4
 4677 0a3c 00       		.byte	0
 4678 0a3d 03       		.uleb128 0x3
 4679 0a3e 71030000 		.4byte	.LASF169
 4680 0a42 09       		.byte	0x9
 4681 0a43 33       		.byte	0x33
 4682 0a44 B4000000 		.4byte	0xb4
 4683 0a48 04       		.byte	0x4
 4684 0a49 03       		.uleb128 0x3
 4685 0a4a 82090000 		.4byte	.LASF170
 4686 0a4e 09       		.byte	0x9
 4687 0a4f 36       		.byte	0x36
 4688 0a50 B4000000 		.4byte	0xb4
 4689 0a54 08       		.byte	0x8
 4690 0a55 03       		.uleb128 0x3
 4691 0a56 90050000 		.4byte	.LASF171
 4692 0a5a 09       		.byte	0x9
 4693 0a5b 39       		.byte	0x39
 4694 0a5c B4000000 		.4byte	0xb4
 4695 0a60 0C       		.byte	0xc
 4696 0a61 03       		.uleb128 0x3
 4697 0a62 DB010000 		.4byte	.LASF172
 4698 0a66 09       		.byte	0x9
 4699 0a67 3C       		.byte	0x3c
 4700 0a68 B4000000 		.4byte	0xb4
 4701 0a6c 10       		.byte	0x10
 4702 0a6d 00       		.byte	0
 4703 0a6e 08       		.uleb128 0x8
 4704 0a6f A6060000 		.4byte	.LASF173
 4705 0a73 09       		.byte	0x9
 4706 0a74 3E       		.byte	0x3e
 4707 0a75 03       		.byte	0x3
 4708 0a76 280A0000 		.4byte	0xa28
 4709 0a7a 10       		.uleb128 0x10
 4710 0a7b 6E0A0000 		.4byte	0xa6e
 4711 0a7f 27       		.uleb128 0x27
 4712 0a80 A0040000 		.4byte	.LASF174
 4713 0a84 0A       		.byte	0xa
 4714 0a85 1B04     		.2byte	0x41b
 4715 0a87 11       		.byte	0x11
 4716 0a88 B4000000 		.4byte	0xb4
 4717 0a8c 28       		.uleb128 0x28
 4718 0a8d F0050000 		.4byte	.LASF219
 4719 0a91 09       		.byte	0x9
 4720 0a92 FF       		.byte	0xff
 4721 0a93 07       		.byte	0x7
 4722 0a94 A30A0000 		.4byte	0xaa3
 4723 0a98 1A       		.uleb128 0x1a
 4724 0a99 A30A0000 		.4byte	0xaa3
 4725 0a9d 1A       		.uleb128 0x1a
 4726 0a9e A80A0000 		.4byte	0xaa8
 4727 0aa2 00       		.byte	0
 4728 0aa3 0F       		.uleb128 0xf
 4729 0aa4 27040000 		.4byte	0x427
 4730 0aa8 0F       		.uleb128 0xf
 4731 0aa9 7A0A0000 		.4byte	0xa7a
ARM GAS  C:\Users\DEVELO~1\AppData\Local\Temp\ccPkHjk7.s 			page 84


 4732 0aad 21       		.uleb128 0x21
 4733 0aae A4070000 		.4byte	.LASF175
 4734 0ab2 4004     		.2byte	0x440
 4735 0ab4 B4000000 		.4byte	0xb4
 4736 0ab8 29       		.uleb128 0x29
 4737 0ab9 7C060000 		.4byte	.LASF186
 4738 0abd 0A       		.byte	0xa
 4739 0abe 2D04     		.2byte	0x42d
 4740 0ac0 13       		.byte	0x13
 4741 0ac1 87080000 		.4byte	0x887
 4742 0ac5 CF0A0000 		.4byte	0xacf
 4743 0ac9 1A       		.uleb128 0x1a
 4744 0aca B4000000 		.4byte	0xb4
 4745 0ace 00       		.byte	0
 4746 0acf 21       		.uleb128 0x21
 4747 0ad0 84050000 		.4byte	.LASF176
 4748 0ad4 3904     		.2byte	0x439
 4749 0ad6 B4000000 		.4byte	0xb4
 4750 0ada 1B       		.uleb128 0x1b
 4751 0adb 62070000 		.4byte	.LASF196
 4752 0adf FF06     		.2byte	0x6ff
 4753 0ae1 0D       		.byte	0xd
 4754 0ae2 00000000 		.4byte	.LFB154
 4755 0ae6 02000000 		.4byte	.LFE154-.LFB154
 4756 0aea 01       		.uleb128 0x1
 4757 0aeb 9C       		.byte	0x9c
 4758 0aec 16       		.uleb128 0x16
 4759 0aed BF090000 		.4byte	.LASF177
 4760 0af1 EE06     		.2byte	0x6ee
 4761 0af3 00000000 		.4byte	.LFB153
 4762 0af7 1C000000 		.4byte	.LFE153-.LFB153
 4763 0afb 01       		.uleb128 0x1
 4764 0afc 9C       		.byte	0x9c
 4765 0afd 0B0B0000 		.4byte	0xb0b
 4766 0b01 02       		.uleb128 0x2
 4767 0b02 10000000 		.4byte	.LVL226
 4768 0b06 DA0A0000 		.4byte	0xada
 4769 0b0a 00       		.byte	0
 4770 0b0b 16       		.uleb128 0x16
 4771 0b0c 68080000 		.4byte	.LASF178
 4772 0b10 B606     		.2byte	0x6b6
 4773 0b12 00000000 		.4byte	.LFB152
 4774 0b16 58000000 		.4byte	.LFE152-.LFB152
 4775 0b1a 01       		.uleb128 0x1
 4776 0b1b 9C       		.byte	0x9c
 4777 0b1c 390B0000 		.4byte	0xb39
 4778 0b20 22       		.uleb128 0x22
 4779 0b21 08070000 		.4byte	.LASF179
 4780 0b25 32       		.byte	0x32
 4781 0b26 390B0000 		.4byte	0xb39
 4782 0b2a 01       		.uleb128 0x1
 4783 0b2b 50       		.byte	0x50
 4784 0b2c 22       		.uleb128 0x22
 4785 0b2d D7080000 		.4byte	.LASF180
 4786 0b31 4F       		.byte	0x4f
 4787 0b32 3E0B0000 		.4byte	0xb3e
 4788 0b36 01       		.uleb128 0x1
ARM GAS  C:\Users\DEVELO~1\AppData\Local\Temp\ccPkHjk7.s 			page 85


 4789 0b37 51       		.byte	0x51
 4790 0b38 00       		.byte	0
 4791 0b39 0F       		.uleb128 0xf
 4792 0b3a 170A0000 		.4byte	0xa17
 4793 0b3e 0F       		.uleb128 0xf
 4794 0b3f B4000000 		.4byte	0xb4
 4795 0b43 16       		.uleb128 0x16
 4796 0b44 AA090000 		.4byte	.LASF181
 4797 0b48 1006     		.2byte	0x610
 4798 0b4a 00000000 		.4byte	.LFB151
 4799 0b4e F0000000 		.4byte	.LFE151-.LFB151
 4800 0b52 01       		.uleb128 0x1
 4801 0b53 9C       		.byte	0x9c
 4802 0b54 7F0B0000 		.4byte	0xb7f
 4803 0b58 0C       		.uleb128 0xc
 4804 0b59 1B030000 		.4byte	.LASF200
 4805 0b5d 1006     		.2byte	0x610
 4806 0b5f 30       		.byte	0x30
 4807 0b60 7F0B0000 		.4byte	0xb7f
 4808 0b64 14000000 		.4byte	.LLST35
 4809 0b68 0C000000 		.4byte	.LVUS35
 4810 0b6c 02       		.uleb128 0x2
 4811 0b6d 26000000 		.4byte	.LVL221
 4812 0b71 AD0A0000 		.4byte	0xaad
 4813 0b75 02       		.uleb128 0x2
 4814 0b76 44000000 		.4byte	.LVL222
 4815 0b7a AD0A0000 		.4byte	0xaad
 4816 0b7e 00       		.byte	0
 4817 0b7f 0F       		.uleb128 0xf
 4818 0b80 A2090000 		.4byte	0x9a2
 4819 0b84 11       		.uleb128 0x11
 4820 0b85 DC060000 		.4byte	.LASF182
 4821 0b89 FF05     		.2byte	0x5ff
 4822 0b8b 0A       		.byte	0xa
 4823 0b8c B4000000 		.4byte	0xb4
 4824 0b90 00000000 		.4byte	.LFB150
 4825 0b94 24000000 		.4byte	.LFE150-.LFB150
 4826 0b98 01       		.uleb128 0x1
 4827 0b99 9C       		.byte	0x9c
 4828 0b9a A80B0000 		.4byte	0xba8
 4829 0b9e 02       		.uleb128 0x2
 4830 0b9f 06000000 		.4byte	.LVL219
 4831 0ba3 CC0B0000 		.4byte	0xbcc
 4832 0ba7 00       		.byte	0
 4833 0ba8 11       		.uleb128 0x11
 4834 0ba9 00000000 		.4byte	.LASF183
 4835 0bad ED05     		.2byte	0x5ed
 4836 0baf 0A       		.byte	0xa
 4837 0bb0 B4000000 		.4byte	0xb4
 4838 0bb4 00000000 		.4byte	.LFB149
 4839 0bb8 24000000 		.4byte	.LFE149-.LFB149
 4840 0bbc 01       		.uleb128 0x1
 4841 0bbd 9C       		.byte	0x9c
 4842 0bbe CC0B0000 		.4byte	0xbcc
 4843 0bc2 02       		.uleb128 0x2
 4844 0bc3 06000000 		.4byte	.LVL218
 4845 0bc7 CC0B0000 		.4byte	0xbcc
ARM GAS  C:\Users\DEVELO~1\AppData\Local\Temp\ccPkHjk7.s 			page 86


 4846 0bcb 00       		.byte	0
 4847 0bcc 11       		.uleb128 0x11
 4848 0bcd A0050000 		.4byte	.LASF184
 4849 0bd1 CD05     		.2byte	0x5cd
 4850 0bd3 0A       		.byte	0xa
 4851 0bd4 B4000000 		.4byte	0xb4
 4852 0bd8 00000000 		.4byte	.LFB148
 4853 0bdc 80000000 		.4byte	.LFE148-.LFB148
 4854 0be0 01       		.uleb128 0x1
 4855 0be1 9C       		.byte	0x9c
 4856 0be2 4E0C0000 		.4byte	0xc4e
 4857 0be6 09       		.uleb128 0x9
 4858 0be7 04090000 		.4byte	.LASF185
 4859 0beb CF05     		.2byte	0x5cf
 4860 0bed 0C       		.byte	0xc
 4861 0bee B4000000 		.4byte	0xb4
 4862 0bf2 35000000 		.4byte	.LLST32
 4863 0bf6 33000000 		.4byte	.LVUS32
 4864 0bfa 2A       		.uleb128 0x2a
 4865 0bfb 4E0C0000 		.4byte	0xc4e
 4866 0bff 00000000 		.4byte	.LBI32
 4867 0c03 0300     		.2byte	.LVU987
 4868 0c05 99000000 		.4byte	.LLRL33
 4869 0c09 01       		.byte	0x1
 4870 0c0a D205     		.2byte	0x5d2
 4871 0c0c 19       		.byte	0x19
 4872 0c0d 2B       		.uleb128 0x2b
 4873 0c0e 99000000 		.4byte	.LLRL33
 4874 0c12 05       		.uleb128 0x5
 4875 0c13 600C0000 		.4byte	0xc60
 4876 0c17 05       		.uleb128 0x5
 4877 0c18 6C0C0000 		.4byte	0xc6c
 4878 0c1c 05       		.uleb128 0x5
 4879 0c1d 780C0000 		.4byte	0xc78
 4880 0c21 05       		.uleb128 0x5
 4881 0c22 840C0000 		.4byte	0xc84
 4882 0c26 05       		.uleb128 0x5
 4883 0c27 900C0000 		.4byte	0xc90
 4884 0c2b 05       		.uleb128 0x5
 4885 0c2c 9C0C0000 		.4byte	0xc9c
 4886 0c30 05       		.uleb128 0x5
 4887 0c31 A80C0000 		.4byte	0xca8
 4888 0c35 0A       		.uleb128 0xa
 4889 0c36 B40C0000 		.4byte	0xcb4
 4890 0c3a 42000000 		.4byte	.LLST34
 4891 0c3e 3E000000 		.4byte	.LVUS34
 4892 0c42 02       		.uleb128 0x2
 4893 0c43 5E000000 		.4byte	.LVL217
 4894 0c47 54110000 		.4byte	0x1154
 4895 0c4b 00       		.byte	0
 4896 0c4c 00       		.byte	0
 4897 0c4d 00       		.byte	0
 4898 0c4e 2C       		.uleb128 0x2c
 4899 0c4f 0B080000 		.4byte	.LASF187
 4900 0c53 01       		.byte	0x1
 4901 0c54 6C05     		.2byte	0x56c
 4902 0c56 0A       		.byte	0xa
ARM GAS  C:\Users\DEVELO~1\AppData\Local\Temp\ccPkHjk7.s 			page 87


 4903 0c57 B4000000 		.4byte	0xb4
 4904 0c5b 01       		.byte	0x1
 4905 0c5c C10C0000 		.4byte	0xcc1
 4906 0c60 0B       		.uleb128 0xb
 4907 0c61 B4050000 		.4byte	.LASF188
 4908 0c65 6E05     		.2byte	0x56e
 4909 0c67 0C       		.byte	0xc
 4910 0c68 B4000000 		.4byte	0xb4
 4911 0c6c 0B       		.uleb128 0xb
 4912 0c6d F3090000 		.4byte	.LASF189
 4913 0c71 6E05     		.2byte	0x56e
 4914 0c73 12       		.byte	0x12
 4915 0c74 B4000000 		.4byte	0xb4
 4916 0c78 0B       		.uleb128 0xb
 4917 0c79 FB070000 		.4byte	.LASF190
 4918 0c7d 6E05     		.2byte	0x56e
 4919 0c7f 1D       		.byte	0x1d
 4920 0c80 B4000000 		.4byte	0xb4
 4921 0c84 0B       		.uleb128 0xb
 4922 0c85 92030000 		.4byte	.LASF191
 4923 0c89 6E05     		.2byte	0x56e
 4924 0c8b 23       		.byte	0x23
 4925 0c8c B4000000 		.4byte	0xb4
 4926 0c90 0B       		.uleb128 0xb
 4927 0c91 1D090000 		.4byte	.LASF192
 4928 0c95 6E05     		.2byte	0x56e
 4929 0c97 2E       		.byte	0x2e
 4930 0c98 B4000000 		.4byte	0xb4
 4931 0c9c 0B       		.uleb128 0xb
 4932 0c9d C6080000 		.4byte	.LASF193
 4933 0ca1 6F05     		.2byte	0x56f
 4934 0ca3 0B       		.byte	0xb
 4935 0ca4 4D080000 		.4byte	0x84d
 4936 0ca8 0B       		.uleb128 0xb
 4937 0ca9 BA030000 		.4byte	.LASF194
 4938 0cad 6F05     		.2byte	0x56f
 4939 0caf 13       		.byte	0x13
 4940 0cb0 4D080000 		.4byte	0x84d
 4941 0cb4 0B       		.uleb128 0xb
 4942 0cb5 66050000 		.4byte	.LASF195
 4943 0cb9 7005     		.2byte	0x570
 4944 0cbb 0C       		.byte	0xc
 4945 0cbc B4000000 		.4byte	0xb4
 4946 0cc0 00       		.byte	0
 4947 0cc1 1B       		.uleb128 0x1b
 4948 0cc2 D3050000 		.4byte	.LASF197
 4949 0cc6 4505     		.2byte	0x545
 4950 0cc8 06       		.byte	0x6
 4951 0cc9 00000000 		.4byte	.LFB146
 4952 0ccd 10000000 		.4byte	.LFE146-.LFB146
 4953 0cd1 01       		.uleb128 0x1
 4954 0cd2 9C       		.byte	0x9c
 4955 0cd3 1B       		.uleb128 0x1b
 4956 0cd4 DF040000 		.4byte	.LASF198
 4957 0cd8 3C05     		.2byte	0x53c
 4958 0cda 06       		.byte	0x6
 4959 0cdb 00000000 		.4byte	.LFB145
ARM GAS  C:\Users\DEVELO~1\AppData\Local\Temp\ccPkHjk7.s 			page 88


 4960 0cdf 10000000 		.4byte	.LFE145-.LFB145
 4961 0ce3 01       		.uleb128 0x1
 4962 0ce4 9C       		.byte	0x9c
 4963 0ce5 16       		.uleb128 0x16
 4964 0ce6 25060000 		.4byte	.LASF199
 4965 0cea 0605     		.2byte	0x506
 4966 0cec 00000000 		.4byte	.LFB144
 4967 0cf0 A4000000 		.4byte	.LFE144-.LFB144
 4968 0cf4 01       		.uleb128 0x1
 4969 0cf5 9C       		.byte	0x9c
 4970 0cf6 AE0D0000 		.4byte	0xdae
 4971 0cfa 0C       		.uleb128 0xc
 4972 0cfb 87090000 		.4byte	.LASF201
 4973 0cff 0605     		.2byte	0x506
 4974 0d01 21       		.byte	0x21
 4975 0d02 B4000000 		.4byte	0xb4
 4976 0d06 5C000000 		.4byte	.LLST22
 4977 0d0a 52000000 		.4byte	.LVUS22
 4978 0d0e 0C       		.uleb128 0xc
 4979 0d0f 9D080000 		.4byte	.LASF202
 4980 0d13 0605     		.2byte	0x506
 4981 0d15 34       		.byte	0x34
 4982 0d16 B4000000 		.4byte	0xb4
 4983 0d1a 8D000000 		.4byte	.LLST23
 4984 0d1e 83000000 		.4byte	.LVUS23
 4985 0d22 0C       		.uleb128 0xc
 4986 0d23 08040000 		.4byte	.LASF203
 4987 0d27 0605     		.2byte	0x506
 4988 0d29 4C       		.byte	0x4c
 4989 0d2a B4000000 		.4byte	0xb4
 4990 0d2e BC000000 		.4byte	.LLST24
 4991 0d32 B2000000 		.4byte	.LVUS24
 4992 0d36 17       		.uleb128 0x17
 4993 0d37 45020000 		.4byte	.LASF204
 4994 0d3b 0805     		.2byte	0x508
 4995 0d3d 14       		.byte	0x14
 4996 0d3e 6E0A0000 		.4byte	0xa6e
 4997 0d42 02       		.uleb128 0x2
 4998 0d43 91       		.byte	0x91
 4999 0d44 5C       		.sleb128 -36
 5000 0d45 12       		.uleb128 0x12
 5001 0d46 6C000000 		.4byte	.LLRL25
 5002 0d4a 5E0D0000 		.4byte	0xd5e
 5003 0d4e 17       		.uleb128 0x17
 5004 0d4f 7D020000 		.4byte	.LASF205
 5005 0d53 1205     		.2byte	0x512
 5006 0d55 05       		.byte	0x5
 5007 0d56 C0000000 		.4byte	0xc0
 5008 0d5a 02       		.uleb128 0x2
 5009 0d5b 91       		.byte	0x91
 5010 0d5c 54       		.sleb128 -44
 5011 0d5d 00       		.byte	0
 5012 0d5e 12       		.uleb128 0x12
 5013 0d5f 84000000 		.4byte	.LLRL26
 5014 0d63 770D0000 		.4byte	0xd77
 5015 0d67 17       		.uleb128 0x17
 5016 0d68 7D020000 		.4byte	.LASF205
ARM GAS  C:\Users\DEVELO~1\AppData\Local\Temp\ccPkHjk7.s 			page 89


 5017 0d6c 2405     		.2byte	0x524
 5018 0d6e 05       		.byte	0x5
 5019 0d6f C0000000 		.4byte	0xc0
 5020 0d73 02       		.uleb128 0x2
 5021 0d74 91       		.byte	0x91
 5022 0d75 58       		.sleb128 -40
 5023 0d76 00       		.byte	0
 5024 0d77 2D       		.uleb128 0x2d
 5025 0d78 3E000000 		.4byte	.LVL179
 5026 0d7c 8C0A0000 		.4byte	0xa8c
 5027 0d80 940D0000 		.4byte	0xd94
 5028 0d84 18       		.uleb128 0x18
 5029 0d85 01       		.uleb128 0x1
 5030 0d86 50       		.byte	0x50
 5031 0d87 05       		.uleb128 0x5
 5032 0d88 0C       		.byte	0xc
 5033 0d89 00000258 		.4byte	0x58020000
 5034 0d8d 18       		.uleb128 0x18
 5035 0d8e 01       		.uleb128 0x1
 5036 0d8f 51       		.byte	0x51
 5037 0d90 02       		.uleb128 0x2
 5038 0d91 91       		.byte	0x91
 5039 0d92 5C       		.sleb128 -36
 5040 0d93 00       		.byte	0
 5041 0d94 2E       		.uleb128 0x2e
 5042 0d95 82000000 		.4byte	.LVL184
 5043 0d99 8C0A0000 		.4byte	0xa8c
 5044 0d9d 18       		.uleb128 0x18
 5045 0d9e 01       		.uleb128 0x1
 5046 0d9f 50       		.byte	0x50
 5047 0da0 05       		.uleb128 0x5
 5048 0da1 0C       		.byte	0xc
 5049 0da2 00080258 		.4byte	0x58020800
 5050 0da6 18       		.uleb128 0x18
 5051 0da7 01       		.uleb128 0x1
 5052 0da8 51       		.byte	0x51
 5053 0da9 02       		.uleb128 0x2
 5054 0daa 91       		.byte	0x91
 5055 0dab 5C       		.sleb128 -36
 5056 0dac 00       		.byte	0
 5057 0dad 00       		.byte	0
 5058 0dae 11       		.uleb128 0x11
 5059 0daf 41030000 		.4byte	.LASF206
 5060 0db3 9A03     		.2byte	0x39a
 5061 0db5 13       		.byte	0x13
 5062 0db6 87080000 		.4byte	0x887
 5063 0dba 00000000 		.4byte	.LFB143
 5064 0dbe 50020000 		.4byte	.LFE143-.LFB143
 5065 0dc2 01       		.uleb128 0x1
 5066 0dc3 9C       		.byte	0x9c
 5067 0dc4 4B0E0000 		.4byte	0xe4b
 5068 0dc8 0C       		.uleb128 0xc
 5069 0dc9 08070000 		.4byte	.LASF179
 5070 0dcd 9A03     		.2byte	0x39a
 5071 0dcf 42       		.byte	0x42
 5072 0dd0 4B0E0000 		.4byte	0xe4b
 5073 0dd4 F3000000 		.4byte	.LLST28
ARM GAS  C:\Users\DEVELO~1\AppData\Local\Temp\ccPkHjk7.s 			page 90


 5074 0dd8 E1000000 		.4byte	.LVUS28
 5075 0ddc 0C       		.uleb128 0xc
 5076 0ddd AE000000 		.4byte	.LASF207
 5077 0de1 9A03     		.2byte	0x39a
 5078 0de3 5E       		.byte	0x5e
 5079 0de4 B4000000 		.4byte	0xb4
 5080 0de8 47010000 		.4byte	.LLST29
 5081 0dec 37010000 		.4byte	.LVUS29
 5082 0df0 17       		.uleb128 0x17
 5083 0df1 97020000 		.4byte	.LASF208
 5084 0df5 9C03     		.2byte	0x39c
 5085 0df7 15       		.byte	0x15
 5086 0df8 87080000 		.4byte	0x887
 5087 0dfc 01       		.uleb128 0x1
 5088 0dfd 50       		.byte	0x50
 5089 0dfe 09       		.uleb128 0x9
 5090 0dff 37070000 		.4byte	.LASF209
 5091 0e03 9D03     		.2byte	0x39d
 5092 0e05 0C       		.byte	0xc
 5093 0e06 B4000000 		.4byte	0xb4
 5094 0e0a 87010000 		.4byte	.LLST30
 5095 0e0e 81010000 		.4byte	.LVUS30
 5096 0e12 09       		.uleb128 0x9
 5097 0e13 04090000 		.4byte	.LASF185
 5098 0e17 9E03     		.2byte	0x39e
 5099 0e19 0C       		.byte	0xc
 5100 0e1a B4000000 		.4byte	0xb4
 5101 0e1e A2010000 		.4byte	.LLST31
 5102 0e22 9E010000 		.4byte	.LVUS31
 5103 0e26 02       		.uleb128 0x2
 5104 0e27 04010000 		.4byte	.LVL195
 5105 0e2b CF0A0000 		.4byte	0xacf
 5106 0e2f 02       		.uleb128 0x2
 5107 0e30 0C010000 		.4byte	.LVL198
 5108 0e34 CF0A0000 		.4byte	0xacf
 5109 0e38 02       		.uleb128 0x2
 5110 0e39 CC010000 		.4byte	.LVL201
 5111 0e3d 4E0C0000 		.4byte	0xc4e
 5112 0e41 23       		.uleb128 0x23
 5113 0e42 02020000 		.4byte	.LVL206
 5114 0e46 B80A0000 		.4byte	0xab8
 5115 0e4a 00       		.byte	0
 5116 0e4b 0F       		.uleb128 0xf
 5117 0e4c 230A0000 		.4byte	0xa23
 5118 0e50 11       		.uleb128 0x11
 5119 0e51 D9070000 		.4byte	.LASF210
 5120 0e55 9501     		.2byte	0x195
 5121 0e57 1A       		.byte	0x1a
 5122 0e58 87080000 		.4byte	0x887
 5123 0e5c 00000000 		.4byte	.LFB142
 5124 0e60 E8050000 		.4byte	.LFE142-.LFB142
 5125 0e64 01       		.uleb128 0x1
 5126 0e65 9C       		.byte	0x9c
 5127 0e66 B0100000 		.4byte	0x10b0
 5128 0e6a 0C       		.uleb128 0xc
 5129 0e6b 1B030000 		.4byte	.LASF200
 5130 0e6f 9501     		.2byte	0x195
ARM GAS  C:\Users\DEVELO~1\AppData\Local\Temp\ccPkHjk7.s 			page 91


 5131 0e71 41       		.byte	0x41
 5132 0e72 7F0B0000 		.4byte	0xb7f
 5133 0e76 D9010000 		.4byte	.LLST9
 5134 0e7a B3010000 		.4byte	.LVUS9
 5135 0e7e 09       		.uleb128 0x9
 5136 0e7f 37070000 		.4byte	.LASF209
 5137 0e83 9701     		.2byte	0x197
 5138 0e85 0C       		.byte	0xc
 5139 0e86 B4000000 		.4byte	0xb4
 5140 0e8a BE020000 		.4byte	.LLST10
 5141 0e8e 70020000 		.4byte	.LVUS10
 5142 0e92 09       		.uleb128 0x9
 5143 0e93 35050000 		.4byte	.LASF211
 5144 0e97 9801     		.2byte	0x198
 5145 0e99 0C       		.byte	0xc
 5146 0e9a B4000000 		.4byte	0xb4
 5147 0e9e D2030000 		.4byte	.LLST11
 5148 0ea2 CE030000 		.4byte	.LVUS11
 5149 0ea6 09       		.uleb128 0x9
 5150 0ea7 1F020000 		.4byte	.LASF212
 5151 0eab 9801     		.2byte	0x198
 5152 0ead 1C       		.byte	0x1c
 5153 0eae B4000000 		.4byte	0xb4
 5154 0eb2 EC030000 		.4byte	.LLST12
 5155 0eb6 EA030000 		.4byte	.LVUS12
 5156 0eba 12       		.uleb128 0x12
 5157 0ebb 0C000000 		.4byte	.LLRL13
 5158 0ebf 100F0000 		.4byte	0xf10
 5159 0ec3 09       		.uleb128 0x9
 5160 0ec4 73090000 		.4byte	.LASF213
 5161 0ec8 A801     		.2byte	0x1a8
 5162 0eca 14       		.byte	0x14
 5163 0ecb C5000000 		.4byte	0xc5
 5164 0ecf FD030000 		.4byte	.LLST14
 5165 0ed3 F5030000 		.4byte	.LVUS14
 5166 0ed7 09       		.uleb128 0x9
 5167 0ed8 C7010000 		.4byte	.LASF214
 5168 0edc A901     		.2byte	0x1a9
 5169 0ede 14       		.byte	0x14
 5170 0edf C5000000 		.4byte	0xc5
 5171 0ee3 21040000 		.4byte	.LLST15
 5172 0ee7 1D040000 		.4byte	.LVUS15
 5173 0eeb 02       		.uleb128 0x2
 5174 0eec 54000000 		.4byte	.LVL49
 5175 0ef0 CF0A0000 		.4byte	0xacf
 5176 0ef4 02       		.uleb128 0x2
 5177 0ef5 5E000000 		.4byte	.LVL52
 5178 0ef9 CF0A0000 		.4byte	0xacf
 5179 0efd 02       		.uleb128 0x2
 5180 0efe 1C030000 		.4byte	.LVL118
 5181 0f02 CF0A0000 		.4byte	0xacf
 5182 0f06 02       		.uleb128 0x2
 5183 0f07 24030000 		.4byte	.LVL121
 5184 0f0b CF0A0000 		.4byte	0xacf
 5185 0f0f 00       		.byte	0
 5186 0f10 12       		.uleb128 0x12
 5187 0f11 55000000 		.4byte	.LLRL19
ARM GAS  C:\Users\DEVELO~1\AppData\Local\Temp\ccPkHjk7.s 			page 92


 5188 0f15 810F0000 		.4byte	0xf81
 5189 0f19 09       		.uleb128 0x9
 5190 0f1a 73090000 		.4byte	.LASF213
 5191 0f1e DE01     		.2byte	0x1de
 5192 0f20 14       		.byte	0x14
 5193 0f21 C5000000 		.4byte	0xc5
 5194 0f25 3B040000 		.4byte	.LLST20
 5195 0f29 33040000 		.4byte	.LVUS20
 5196 0f2d 09       		.uleb128 0x9
 5197 0f2e C7010000 		.4byte	.LASF214
 5198 0f32 DF01     		.2byte	0x1df
 5199 0f34 14       		.byte	0x14
 5200 0f35 C5000000 		.4byte	0xc5
 5201 0f39 62040000 		.4byte	.LLST21
 5202 0f3d 5C040000 		.4byte	.LVUS21
 5203 0f41 02       		.uleb128 0x2
 5204 0f42 B2010000 		.4byte	.LVL84
 5205 0f46 CF0A0000 		.4byte	0xacf
 5206 0f4a 02       		.uleb128 0x2
 5207 0f4b BA010000 		.4byte	.LVL87
 5208 0f4f CF0A0000 		.4byte	0xacf
 5209 0f53 02       		.uleb128 0x2
 5210 0f54 CC010000 		.4byte	.LVL88
 5211 0f58 AD0A0000 		.4byte	0xaad
 5212 0f5c 02       		.uleb128 0x2
 5213 0f5d 0E020000 		.4byte	.LVL92
 5214 0f61 CF0A0000 		.4byte	0xacf
 5215 0f65 02       		.uleb128 0x2
 5216 0f66 16020000 		.4byte	.LVL95
 5217 0f6a CF0A0000 		.4byte	0xacf
 5218 0f6e 02       		.uleb128 0x2
 5219 0f6f A4030000 		.4byte	.LVL138
 5220 0f73 CF0A0000 		.4byte	0xacf
 5221 0f77 02       		.uleb128 0x2
 5222 0f78 AC030000 		.4byte	.LVL141
 5223 0f7c CF0A0000 		.4byte	0xacf
 5224 0f80 00       		.byte	0
 5225 0f81 12       		.uleb128 0x12
 5226 0f82 2E000000 		.4byte	.LLRL16
 5227 0f86 E90F0000 		.4byte	0xfe9
 5228 0f8a 09       		.uleb128 0x9
 5229 0f8b 73090000 		.4byte	.LASF213
 5230 0f8f 2F02     		.2byte	0x22f
 5231 0f91 14       		.byte	0x14
 5232 0f92 C5000000 		.4byte	0xc5
 5233 0f96 7D040000 		.4byte	.LLST17
 5234 0f9a 79040000 		.4byte	.LVUS17
 5235 0f9e 09       		.uleb128 0x9
 5236 0f9f C7010000 		.4byte	.LASF214
 5237 0fa3 3002     		.2byte	0x230
 5238 0fa5 14       		.byte	0x14
 5239 0fa6 C5000000 		.4byte	0xc5
 5240 0faa 93040000 		.4byte	.LLST18
 5241 0fae 8F040000 		.4byte	.LVUS18
 5242 0fb2 02       		.uleb128 0x2
 5243 0fb3 A4000000 		.4byte	.LVL57
 5244 0fb7 CF0A0000 		.4byte	0xacf
ARM GAS  C:\Users\DEVELO~1\AppData\Local\Temp\ccPkHjk7.s 			page 93


 5245 0fbb 02       		.uleb128 0x2
 5246 0fbc AC000000 		.4byte	.LVL60
 5247 0fc0 CF0A0000 		.4byte	0xacf
 5248 0fc4 02       		.uleb128 0x2
 5249 0fc5 BE000000 		.4byte	.LVL61
 5250 0fc9 AD0A0000 		.4byte	0xaad
 5251 0fcd 02       		.uleb128 0x2
 5252 0fce 60020000 		.4byte	.LVL103
 5253 0fd2 AD0A0000 		.4byte	0xaad
 5254 0fd6 02       		.uleb128 0x2
 5255 0fd7 82030000 		.4byte	.LVL133
 5256 0fdb CF0A0000 		.4byte	0xacf
 5257 0fdf 02       		.uleb128 0x2
 5258 0fe0 8A030000 		.4byte	.LVL136
 5259 0fe4 CF0A0000 		.4byte	0xacf
 5260 0fe8 00       		.byte	0
 5261 0fe9 02       		.uleb128 0x2
 5262 0fea FA000000 		.4byte	.LVL63
 5263 0fee CF0A0000 		.4byte	0xacf
 5264 0ff2 02       		.uleb128 0x2
 5265 0ff3 02010000 		.4byte	.LVL66
 5266 0ff7 CF0A0000 		.4byte	0xacf
 5267 0ffb 02       		.uleb128 0x2
 5268 0ffc 2C010000 		.4byte	.LVL68
 5269 1000 CF0A0000 		.4byte	0xacf
 5270 1004 02       		.uleb128 0x2
 5271 1005 34010000 		.4byte	.LVL71
 5272 1009 CF0A0000 		.4byte	0xacf
 5273 100d 02       		.uleb128 0x2
 5274 100e 6E010000 		.4byte	.LVL73
 5275 1012 CF0A0000 		.4byte	0xacf
 5276 1016 02       		.uleb128 0x2
 5277 1017 76010000 		.4byte	.LVL76
 5278 101b CF0A0000 		.4byte	0xacf
 5279 101f 02       		.uleb128 0x2
 5280 1020 9E020000 		.4byte	.LVL107
 5281 1024 CF0A0000 		.4byte	0xacf
 5282 1028 02       		.uleb128 0x2
 5283 1029 B0020000 		.4byte	.LVL110
 5284 102d CF0A0000 		.4byte	0xacf
 5285 1031 02       		.uleb128 0x2
 5286 1032 E6020000 		.4byte	.LVL111
 5287 1036 CF0A0000 		.4byte	0xacf
 5288 103a 02       		.uleb128 0x2
 5289 103b F4020000 		.4byte	.LVL115
 5290 103f CF0A0000 		.4byte	0xacf
 5291 1043 02       		.uleb128 0x2
 5292 1044 3E030000 		.4byte	.LVL123
 5293 1048 CF0A0000 		.4byte	0xacf
 5294 104c 02       		.uleb128 0x2
 5295 104d 46030000 		.4byte	.LVL126
 5296 1051 CF0A0000 		.4byte	0xacf
 5297 1055 02       		.uleb128 0x2
 5298 1056 60030000 		.4byte	.LVL128
 5299 105a CF0A0000 		.4byte	0xacf
 5300 105e 02       		.uleb128 0x2
 5301 105f 68030000 		.4byte	.LVL131
ARM GAS  C:\Users\DEVELO~1\AppData\Local\Temp\ccPkHjk7.s 			page 94


 5302 1063 CF0A0000 		.4byte	0xacf
 5303 1067 02       		.uleb128 0x2
 5304 1068 F2030000 		.4byte	.LVL147
 5305 106c CF0A0000 		.4byte	0xacf
 5306 1070 02       		.uleb128 0x2
 5307 1071 FA030000 		.4byte	.LVL150
 5308 1075 CF0A0000 		.4byte	0xacf
 5309 1079 02       		.uleb128 0x2
 5310 107a A0040000 		.4byte	.LVL152
 5311 107e CF0A0000 		.4byte	0xacf
 5312 1082 02       		.uleb128 0x2
 5313 1083 A8040000 		.4byte	.LVL155
 5314 1087 CF0A0000 		.4byte	0xacf
 5315 108b 02       		.uleb128 0x2
 5316 108c 2E050000 		.4byte	.LVL163
 5317 1090 CF0A0000 		.4byte	0xacf
 5318 1094 02       		.uleb128 0x2
 5319 1095 34050000 		.4byte	.LVL165
 5320 1099 CF0A0000 		.4byte	0xacf
 5321 109d 02       		.uleb128 0x2
 5322 109e 8A050000 		.4byte	.LVL169
 5323 10a2 CF0A0000 		.4byte	0xacf
 5324 10a6 02       		.uleb128 0x2
 5325 10a7 92050000 		.4byte	.LVL172
 5326 10ab CF0A0000 		.4byte	0xacf
 5327 10af 00       		.byte	0
 5328 10b0 2F       		.uleb128 0x2f
 5329 10b1 3A080000 		.4byte	.LASF215
 5330 10b5 01       		.byte	0x1
 5331 10b6 BC       		.byte	0xbc
 5332 10b7 13       		.byte	0x13
 5333 10b8 87080000 		.4byte	0x887
 5334 10bc 00000000 		.4byte	.LFB141
 5335 10c0 A0010000 		.4byte	.LFE141-.LFB141
 5336 10c4 01       		.uleb128 0x1
 5337 10c5 9C       		.byte	0x9c
 5338 10c6 54110000 		.4byte	0x1154
 5339 10ca 30       		.uleb128 0x30
 5340 10cb 37070000 		.4byte	.LASF209
 5341 10cf 01       		.byte	0x1
 5342 10d0 BE       		.byte	0xbe
 5343 10d1 0C       		.byte	0xc
 5344 10d2 B4000000 		.4byte	0xb4
 5345 10d6 BD040000 		.4byte	.LLST8
 5346 10da A5040000 		.4byte	.LVUS8
 5347 10de 02       		.uleb128 0x2
 5348 10df 2A000000 		.4byte	.LVL18
 5349 10e3 CF0A0000 		.4byte	0xacf
 5350 10e7 02       		.uleb128 0x2
 5351 10e8 3A000000 		.4byte	.LVL21
 5352 10ec CF0A0000 		.4byte	0xacf
 5353 10f0 02       		.uleb128 0x2
 5354 10f1 64000000 		.4byte	.LVL23
 5355 10f5 B80A0000 		.4byte	0xab8
 5356 10f9 02       		.uleb128 0x2
 5357 10fa 78000000 		.4byte	.LVL24
 5358 10fe CF0A0000 		.4byte	0xacf
ARM GAS  C:\Users\DEVELO~1\AppData\Local\Temp\ccPkHjk7.s 			page 95


 5359 1102 02       		.uleb128 0x2
 5360 1103 86000000 		.4byte	.LVL27
 5361 1107 CF0A0000 		.4byte	0xacf
 5362 110b 02       		.uleb128 0x2
 5363 110c 98000000 		.4byte	.LVL28
 5364 1110 CF0A0000 		.4byte	0xacf
 5365 1114 02       		.uleb128 0x2
 5366 1115 AA000000 		.4byte	.LVL31
 5367 1119 CF0A0000 		.4byte	0xacf
 5368 111d 02       		.uleb128 0x2
 5369 111e BA000000 		.4byte	.LVL32
 5370 1122 CF0A0000 		.4byte	0xacf
 5371 1126 02       		.uleb128 0x2
 5372 1127 CC000000 		.4byte	.LVL35
 5373 112b CF0A0000 		.4byte	0xacf
 5374 112f 02       		.uleb128 0x2
 5375 1130 DC000000 		.4byte	.LVL36
 5376 1134 CF0A0000 		.4byte	0xacf
 5377 1138 02       		.uleb128 0x2
 5378 1139 EE000000 		.4byte	.LVL39
 5379 113d CF0A0000 		.4byte	0xacf
 5380 1141 02       		.uleb128 0x2
 5381 1142 FE000000 		.4byte	.LVL40
 5382 1146 CF0A0000 		.4byte	0xacf
 5383 114a 02       		.uleb128 0x2
 5384 114b 10010000 		.4byte	.LVL44
 5385 114f CF0A0000 		.4byte	0xacf
 5386 1153 00       		.byte	0
 5387 1154 31       		.uleb128 0x31
 5388 1155 4E0C0000 		.4byte	0xc4e
 5389 1159 00000000 		.4byte	.LFB155
 5390 115d 08010000 		.4byte	.LFE155-.LFB155
 5391 1161 01       		.uleb128 0x1
 5392 1162 9C       		.byte	0x9c
 5393 1163 D0110000 		.4byte	0x11d0
 5394 1167 0A       		.uleb128 0xa
 5395 1168 600C0000 		.4byte	0xc60
 5396 116c 0E050000 		.4byte	.LLST0
 5397 1170 0C050000 		.4byte	.LVUS0
 5398 1174 0A       		.uleb128 0xa
 5399 1175 6C0C0000 		.4byte	0xc6c
 5400 1179 28050000 		.4byte	.LLST1
 5401 117d 20050000 		.4byte	.LVUS1
 5402 1181 0A       		.uleb128 0xa
 5403 1182 780C0000 		.4byte	0xc78
 5404 1186 50050000 		.4byte	.LLST2
 5405 118a 4A050000 		.4byte	.LVUS2
 5406 118e 0A       		.uleb128 0xa
 5407 118f 840C0000 		.4byte	0xc84
 5408 1193 74050000 		.4byte	.LLST3
 5409 1197 6E050000 		.4byte	.LVUS3
 5410 119b 0A       		.uleb128 0xa
 5411 119c 900C0000 		.4byte	0xc90
 5412 11a0 90050000 		.4byte	.LLST4
 5413 11a4 8E050000 		.4byte	.LVUS4
 5414 11a8 0A       		.uleb128 0xa
 5415 11a9 9C0C0000 		.4byte	0xc9c
ARM GAS  C:\Users\DEVELO~1\AppData\Local\Temp\ccPkHjk7.s 			page 96


 5416 11ad A7050000 		.4byte	.LLST5
 5417 11b1 A5050000 		.4byte	.LVUS5
 5418 11b5 0A       		.uleb128 0xa
 5419 11b6 A80C0000 		.4byte	0xca8
 5420 11ba C5050000 		.4byte	.LLST6
 5421 11be C1050000 		.4byte	.LVUS6
 5422 11c2 0A       		.uleb128 0xa
 5423 11c3 B40C0000 		.4byte	0xcb4
 5424 11c7 D9050000 		.4byte	.LLST7
 5425 11cb D7050000 		.4byte	.LVUS7
 5426 11cf 00       		.byte	0
 5427 11d0 32       		.uleb128 0x32
 5428 11d1 4E0C0000 		.4byte	0xc4e
 5429 11d5 00000000 		.4byte	.LFB147
 5430 11d9 44000000 		.4byte	.LFE147-.LFB147
 5431 11dd 01       		.uleb128 0x1
 5432 11de 9C       		.byte	0x9c
 5433 11df 05       		.uleb128 0x5
 5434 11e0 600C0000 		.4byte	0xc60
 5435 11e4 05       		.uleb128 0x5
 5436 11e5 6C0C0000 		.4byte	0xc6c
 5437 11e9 05       		.uleb128 0x5
 5438 11ea 780C0000 		.4byte	0xc78
 5439 11ee 05       		.uleb128 0x5
 5440 11ef 840C0000 		.4byte	0xc84
 5441 11f3 05       		.uleb128 0x5
 5442 11f4 900C0000 		.4byte	0xc90
 5443 11f8 05       		.uleb128 0x5
 5444 11f9 9C0C0000 		.4byte	0xc9c
 5445 11fd 05       		.uleb128 0x5
 5446 11fe A80C0000 		.4byte	0xca8
 5447 1202 0A       		.uleb128 0xa
 5448 1203 B40C0000 		.4byte	0xcb4
 5449 1207 E6050000 		.4byte	.LLST27
 5450 120b E2050000 		.4byte	.LVUS27
 5451 120f 23       		.uleb128 0x23
 5452 1210 30000000 		.4byte	.LVL188
 5453 1214 54110000 		.4byte	0x1154
 5454 1218 00       		.byte	0
 5455 1219 00       		.byte	0
 5456              		.section	.debug_abbrev,"",%progbits
 5457              	.Ldebug_abbrev0:
 5458 0000 01       		.uleb128 0x1
 5459 0001 0D       		.uleb128 0xd
 5460 0002 00       		.byte	0
 5461 0003 03       		.uleb128 0x3
 5462 0004 0E       		.uleb128 0xe
 5463 0005 3A       		.uleb128 0x3a
 5464 0006 21       		.uleb128 0x21
 5465 0007 05       		.sleb128 5
 5466 0008 3B       		.uleb128 0x3b
 5467 0009 05       		.uleb128 0x5
 5468 000a 39       		.uleb128 0x39
 5469 000b 0B       		.uleb128 0xb
 5470 000c 49       		.uleb128 0x49
 5471 000d 13       		.uleb128 0x13
 5472 000e 38       		.uleb128 0x38
ARM GAS  C:\Users\DEVELO~1\AppData\Local\Temp\ccPkHjk7.s 			page 97


 5473 000f 0B       		.uleb128 0xb
 5474 0010 00       		.byte	0
 5475 0011 00       		.byte	0
 5476 0012 02       		.uleb128 0x2
 5477 0013 48       		.uleb128 0x48
 5478 0014 00       		.byte	0
 5479 0015 7D       		.uleb128 0x7d
 5480 0016 01       		.uleb128 0x1
 5481 0017 7F       		.uleb128 0x7f
 5482 0018 13       		.uleb128 0x13
 5483 0019 00       		.byte	0
 5484 001a 00       		.byte	0
 5485 001b 03       		.uleb128 0x3
 5486 001c 0D       		.uleb128 0xd
 5487 001d 00       		.byte	0
 5488 001e 03       		.uleb128 0x3
 5489 001f 0E       		.uleb128 0xe
 5490 0020 3A       		.uleb128 0x3a
 5491 0021 0B       		.uleb128 0xb
 5492 0022 3B       		.uleb128 0x3b
 5493 0023 0B       		.uleb128 0xb
 5494 0024 39       		.uleb128 0x39
 5495 0025 21       		.uleb128 0x21
 5496 0026 0C       		.sleb128 12
 5497 0027 49       		.uleb128 0x49
 5498 0028 13       		.uleb128 0x13
 5499 0029 38       		.uleb128 0x38
 5500 002a 0B       		.uleb128 0xb
 5501 002b 00       		.byte	0
 5502 002c 00       		.byte	0
 5503 002d 04       		.uleb128 0x4
 5504 002e 0D       		.uleb128 0xd
 5505 002f 00       		.byte	0
 5506 0030 03       		.uleb128 0x3
 5507 0031 0E       		.uleb128 0xe
 5508 0032 3A       		.uleb128 0x3a
 5509 0033 21       		.uleb128 0x21
 5510 0034 05       		.sleb128 5
 5511 0035 3B       		.uleb128 0x3b
 5512 0036 05       		.uleb128 0x5
 5513 0037 39       		.uleb128 0x39
 5514 0038 0B       		.uleb128 0xb
 5515 0039 49       		.uleb128 0x49
 5516 003a 13       		.uleb128 0x13
 5517 003b 38       		.uleb128 0x38
 5518 003c 05       		.uleb128 0x5
 5519 003d 00       		.byte	0
 5520 003e 00       		.byte	0
 5521 003f 05       		.uleb128 0x5
 5522 0040 34       		.uleb128 0x34
 5523 0041 00       		.byte	0
 5524 0042 31       		.uleb128 0x31
 5525 0043 13       		.uleb128 0x13
 5526 0044 00       		.byte	0
 5527 0045 00       		.byte	0
 5528 0046 06       		.uleb128 0x6
 5529 0047 24       		.uleb128 0x24
ARM GAS  C:\Users\DEVELO~1\AppData\Local\Temp\ccPkHjk7.s 			page 98


 5530 0048 00       		.byte	0
 5531 0049 0B       		.uleb128 0xb
 5532 004a 0B       		.uleb128 0xb
 5533 004b 3E       		.uleb128 0x3e
 5534 004c 0B       		.uleb128 0xb
 5535 004d 03       		.uleb128 0x3
 5536 004e 0E       		.uleb128 0xe
 5537 004f 00       		.byte	0
 5538 0050 00       		.byte	0
 5539 0051 07       		.uleb128 0x7
 5540 0052 0D       		.uleb128 0xd
 5541 0053 00       		.byte	0
 5542 0054 03       		.uleb128 0x3
 5543 0055 08       		.uleb128 0x8
 5544 0056 3A       		.uleb128 0x3a
 5545 0057 21       		.uleb128 0x21
 5546 0058 05       		.sleb128 5
 5547 0059 3B       		.uleb128 0x3b
 5548 005a 05       		.uleb128 0x5
 5549 005b 39       		.uleb128 0x39
 5550 005c 0B       		.uleb128 0xb
 5551 005d 49       		.uleb128 0x49
 5552 005e 13       		.uleb128 0x13
 5553 005f 38       		.uleb128 0x38
 5554 0060 0B       		.uleb128 0xb
 5555 0061 00       		.byte	0
 5556 0062 00       		.byte	0
 5557 0063 08       		.uleb128 0x8
 5558 0064 16       		.uleb128 0x16
 5559 0065 00       		.byte	0
 5560 0066 03       		.uleb128 0x3
 5561 0067 0E       		.uleb128 0xe
 5562 0068 3A       		.uleb128 0x3a
 5563 0069 0B       		.uleb128 0xb
 5564 006a 3B       		.uleb128 0x3b
 5565 006b 0B       		.uleb128 0xb
 5566 006c 39       		.uleb128 0x39
 5567 006d 0B       		.uleb128 0xb
 5568 006e 49       		.uleb128 0x49
 5569 006f 13       		.uleb128 0x13
 5570 0070 00       		.byte	0
 5571 0071 00       		.byte	0
 5572 0072 09       		.uleb128 0x9
 5573 0073 34       		.uleb128 0x34
 5574 0074 00       		.byte	0
 5575 0075 03       		.uleb128 0x3
 5576 0076 0E       		.uleb128 0xe
 5577 0077 3A       		.uleb128 0x3a
 5578 0078 21       		.uleb128 0x21
 5579 0079 01       		.sleb128 1
 5580 007a 3B       		.uleb128 0x3b
 5581 007b 05       		.uleb128 0x5
 5582 007c 39       		.uleb128 0x39
 5583 007d 0B       		.uleb128 0xb
 5584 007e 49       		.uleb128 0x49
 5585 007f 13       		.uleb128 0x13
 5586 0080 02       		.uleb128 0x2
ARM GAS  C:\Users\DEVELO~1\AppData\Local\Temp\ccPkHjk7.s 			page 99


 5587 0081 17       		.uleb128 0x17
 5588 0082 B742     		.uleb128 0x2137
 5589 0084 17       		.uleb128 0x17
 5590 0085 00       		.byte	0
 5591 0086 00       		.byte	0
 5592 0087 0A       		.uleb128 0xa
 5593 0088 34       		.uleb128 0x34
 5594 0089 00       		.byte	0
 5595 008a 31       		.uleb128 0x31
 5596 008b 13       		.uleb128 0x13
 5597 008c 02       		.uleb128 0x2
 5598 008d 17       		.uleb128 0x17
 5599 008e B742     		.uleb128 0x2137
 5600 0090 17       		.uleb128 0x17
 5601 0091 00       		.byte	0
 5602 0092 00       		.byte	0
 5603 0093 0B       		.uleb128 0xb
 5604 0094 34       		.uleb128 0x34
 5605 0095 00       		.byte	0
 5606 0096 03       		.uleb128 0x3
 5607 0097 0E       		.uleb128 0xe
 5608 0098 3A       		.uleb128 0x3a
 5609 0099 21       		.uleb128 0x21
 5610 009a 01       		.sleb128 1
 5611 009b 3B       		.uleb128 0x3b
 5612 009c 05       		.uleb128 0x5
 5613 009d 39       		.uleb128 0x39
 5614 009e 0B       		.uleb128 0xb
 5615 009f 49       		.uleb128 0x49
 5616 00a0 13       		.uleb128 0x13
 5617 00a1 00       		.byte	0
 5618 00a2 00       		.byte	0
 5619 00a3 0C       		.uleb128 0xc
 5620 00a4 05       		.uleb128 0x5
 5621 00a5 00       		.byte	0
 5622 00a6 03       		.uleb128 0x3
 5623 00a7 0E       		.uleb128 0xe
 5624 00a8 3A       		.uleb128 0x3a
 5625 00a9 21       		.uleb128 0x21
 5626 00aa 01       		.sleb128 1
 5627 00ab 3B       		.uleb128 0x3b
 5628 00ac 05       		.uleb128 0x5
 5629 00ad 39       		.uleb128 0x39
 5630 00ae 0B       		.uleb128 0xb
 5631 00af 49       		.uleb128 0x49
 5632 00b0 13       		.uleb128 0x13
 5633 00b1 02       		.uleb128 0x2
 5634 00b2 17       		.uleb128 0x17
 5635 00b3 B742     		.uleb128 0x2137
 5636 00b5 17       		.uleb128 0x17
 5637 00b6 00       		.byte	0
 5638 00b7 00       		.byte	0
 5639 00b8 0D       		.uleb128 0xd
 5640 00b9 01       		.uleb128 0x1
 5641 00ba 01       		.byte	0x1
 5642 00bb 49       		.uleb128 0x49
 5643 00bc 13       		.uleb128 0x13
ARM GAS  C:\Users\DEVELO~1\AppData\Local\Temp\ccPkHjk7.s 			page 100


 5644 00bd 01       		.uleb128 0x1
 5645 00be 13       		.uleb128 0x13
 5646 00bf 00       		.byte	0
 5647 00c0 00       		.byte	0
 5648 00c1 0E       		.uleb128 0xe
 5649 00c2 21       		.uleb128 0x21
 5650 00c3 00       		.byte	0
 5651 00c4 49       		.uleb128 0x49
 5652 00c5 13       		.uleb128 0x13
 5653 00c6 2F       		.uleb128 0x2f
 5654 00c7 0B       		.uleb128 0xb
 5655 00c8 00       		.byte	0
 5656 00c9 00       		.byte	0
 5657 00ca 0F       		.uleb128 0xf
 5658 00cb 0F       		.uleb128 0xf
 5659 00cc 00       		.byte	0
 5660 00cd 0B       		.uleb128 0xb
 5661 00ce 21       		.uleb128 0x21
 5662 00cf 04       		.sleb128 4
 5663 00d0 49       		.uleb128 0x49
 5664 00d1 13       		.uleb128 0x13
 5665 00d2 00       		.byte	0
 5666 00d3 00       		.byte	0
 5667 00d4 10       		.uleb128 0x10
 5668 00d5 26       		.uleb128 0x26
 5669 00d6 00       		.byte	0
 5670 00d7 49       		.uleb128 0x49
 5671 00d8 13       		.uleb128 0x13
 5672 00d9 00       		.byte	0
 5673 00da 00       		.byte	0
 5674 00db 11       		.uleb128 0x11
 5675 00dc 2E       		.uleb128 0x2e
 5676 00dd 01       		.byte	0x1
 5677 00de 3F       		.uleb128 0x3f
 5678 00df 19       		.uleb128 0x19
 5679 00e0 03       		.uleb128 0x3
 5680 00e1 0E       		.uleb128 0xe
 5681 00e2 3A       		.uleb128 0x3a
 5682 00e3 21       		.uleb128 0x21
 5683 00e4 01       		.sleb128 1
 5684 00e5 3B       		.uleb128 0x3b
 5685 00e6 05       		.uleb128 0x5
 5686 00e7 39       		.uleb128 0x39
 5687 00e8 0B       		.uleb128 0xb
 5688 00e9 27       		.uleb128 0x27
 5689 00ea 19       		.uleb128 0x19
 5690 00eb 49       		.uleb128 0x49
 5691 00ec 13       		.uleb128 0x13
 5692 00ed 11       		.uleb128 0x11
 5693 00ee 01       		.uleb128 0x1
 5694 00ef 12       		.uleb128 0x12
 5695 00f0 06       		.uleb128 0x6
 5696 00f1 40       		.uleb128 0x40
 5697 00f2 18       		.uleb128 0x18
 5698 00f3 7A       		.uleb128 0x7a
 5699 00f4 19       		.uleb128 0x19
 5700 00f5 01       		.uleb128 0x1
ARM GAS  C:\Users\DEVELO~1\AppData\Local\Temp\ccPkHjk7.s 			page 101


 5701 00f6 13       		.uleb128 0x13
 5702 00f7 00       		.byte	0
 5703 00f8 00       		.byte	0
 5704 00f9 12       		.uleb128 0x12
 5705 00fa 0B       		.uleb128 0xb
 5706 00fb 01       		.byte	0x1
 5707 00fc 55       		.uleb128 0x55
 5708 00fd 17       		.uleb128 0x17
 5709 00fe 01       		.uleb128 0x1
 5710 00ff 13       		.uleb128 0x13
 5711 0100 00       		.byte	0
 5712 0101 00       		.byte	0
 5713 0102 13       		.uleb128 0x13
 5714 0103 16       		.uleb128 0x16
 5715 0104 00       		.byte	0
 5716 0105 03       		.uleb128 0x3
 5717 0106 0E       		.uleb128 0xe
 5718 0107 3A       		.uleb128 0x3a
 5719 0108 21       		.uleb128 0x21
 5720 0109 05       		.sleb128 5
 5721 010a 3B       		.uleb128 0x3b
 5722 010b 05       		.uleb128 0x5
 5723 010c 39       		.uleb128 0x39
 5724 010d 21       		.uleb128 0x21
 5725 010e 03       		.sleb128 3
 5726 010f 49       		.uleb128 0x49
 5727 0110 13       		.uleb128 0x13
 5728 0111 00       		.byte	0
 5729 0112 00       		.byte	0
 5730 0113 14       		.uleb128 0x14
 5731 0114 28       		.uleb128 0x28
 5732 0115 00       		.byte	0
 5733 0116 03       		.uleb128 0x3
 5734 0117 0E       		.uleb128 0xe
 5735 0118 1C       		.uleb128 0x1c
 5736 0119 0B       		.uleb128 0xb
 5737 011a 00       		.byte	0
 5738 011b 00       		.byte	0
 5739 011c 15       		.uleb128 0x15
 5740 011d 13       		.uleb128 0x13
 5741 011e 01       		.byte	0x1
 5742 011f 0B       		.uleb128 0xb
 5743 0120 0B       		.uleb128 0xb
 5744 0121 3A       		.uleb128 0x3a
 5745 0122 0B       		.uleb128 0xb
 5746 0123 3B       		.uleb128 0x3b
 5747 0124 0B       		.uleb128 0xb
 5748 0125 39       		.uleb128 0x39
 5749 0126 21       		.uleb128 0x21
 5750 0127 09       		.sleb128 9
 5751 0128 01       		.uleb128 0x1
 5752 0129 13       		.uleb128 0x13
 5753 012a 00       		.byte	0
 5754 012b 00       		.byte	0
 5755 012c 16       		.uleb128 0x16
 5756 012d 2E       		.uleb128 0x2e
 5757 012e 01       		.byte	0x1
ARM GAS  C:\Users\DEVELO~1\AppData\Local\Temp\ccPkHjk7.s 			page 102


 5758 012f 3F       		.uleb128 0x3f
 5759 0130 19       		.uleb128 0x19
 5760 0131 03       		.uleb128 0x3
 5761 0132 0E       		.uleb128 0xe
 5762 0133 3A       		.uleb128 0x3a
 5763 0134 21       		.uleb128 0x21
 5764 0135 01       		.sleb128 1
 5765 0136 3B       		.uleb128 0x3b
 5766 0137 05       		.uleb128 0x5
 5767 0138 39       		.uleb128 0x39
 5768 0139 21       		.uleb128 0x21
 5769 013a 06       		.sleb128 6
 5770 013b 27       		.uleb128 0x27
 5771 013c 19       		.uleb128 0x19
 5772 013d 11       		.uleb128 0x11
 5773 013e 01       		.uleb128 0x1
 5774 013f 12       		.uleb128 0x12
 5775 0140 06       		.uleb128 0x6
 5776 0141 40       		.uleb128 0x40
 5777 0142 18       		.uleb128 0x18
 5778 0143 7A       		.uleb128 0x7a
 5779 0144 19       		.uleb128 0x19
 5780 0145 01       		.uleb128 0x1
 5781 0146 13       		.uleb128 0x13
 5782 0147 00       		.byte	0
 5783 0148 00       		.byte	0
 5784 0149 17       		.uleb128 0x17
 5785 014a 34       		.uleb128 0x34
 5786 014b 00       		.byte	0
 5787 014c 03       		.uleb128 0x3
 5788 014d 0E       		.uleb128 0xe
 5789 014e 3A       		.uleb128 0x3a
 5790 014f 21       		.uleb128 0x21
 5791 0150 01       		.sleb128 1
 5792 0151 3B       		.uleb128 0x3b
 5793 0152 05       		.uleb128 0x5
 5794 0153 39       		.uleb128 0x39
 5795 0154 0B       		.uleb128 0xb
 5796 0155 49       		.uleb128 0x49
 5797 0156 13       		.uleb128 0x13
 5798 0157 02       		.uleb128 0x2
 5799 0158 18       		.uleb128 0x18
 5800 0159 00       		.byte	0
 5801 015a 00       		.byte	0
 5802 015b 18       		.uleb128 0x18
 5803 015c 49       		.uleb128 0x49
 5804 015d 00       		.byte	0
 5805 015e 02       		.uleb128 0x2
 5806 015f 18       		.uleb128 0x18
 5807 0160 7E       		.uleb128 0x7e
 5808 0161 18       		.uleb128 0x18
 5809 0162 00       		.byte	0
 5810 0163 00       		.byte	0
 5811 0164 19       		.uleb128 0x19
 5812 0165 34       		.uleb128 0x34
 5813 0166 00       		.byte	0
 5814 0167 03       		.uleb128 0x3
ARM GAS  C:\Users\DEVELO~1\AppData\Local\Temp\ccPkHjk7.s 			page 103


 5815 0168 0E       		.uleb128 0xe
 5816 0169 3A       		.uleb128 0x3a
 5817 016a 21       		.uleb128 0x21
 5818 016b 04       		.sleb128 4
 5819 016c 3B       		.uleb128 0x3b
 5820 016d 0B       		.uleb128 0xb
 5821 016e 39       		.uleb128 0x39
 5822 016f 0B       		.uleb128 0xb
 5823 0170 49       		.uleb128 0x49
 5824 0171 13       		.uleb128 0x13
 5825 0172 3F       		.uleb128 0x3f
 5826 0173 19       		.uleb128 0x19
 5827 0174 3C       		.uleb128 0x3c
 5828 0175 19       		.uleb128 0x19
 5829 0176 00       		.byte	0
 5830 0177 00       		.byte	0
 5831 0178 1A       		.uleb128 0x1a
 5832 0179 05       		.uleb128 0x5
 5833 017a 00       		.byte	0
 5834 017b 49       		.uleb128 0x49
 5835 017c 13       		.uleb128 0x13
 5836 017d 00       		.byte	0
 5837 017e 00       		.byte	0
 5838 017f 1B       		.uleb128 0x1b
 5839 0180 2E       		.uleb128 0x2e
 5840 0181 00       		.byte	0
 5841 0182 3F       		.uleb128 0x3f
 5842 0183 19       		.uleb128 0x19
 5843 0184 03       		.uleb128 0x3
 5844 0185 0E       		.uleb128 0xe
 5845 0186 3A       		.uleb128 0x3a
 5846 0187 21       		.uleb128 0x21
 5847 0188 01       		.sleb128 1
 5848 0189 3B       		.uleb128 0x3b
 5849 018a 05       		.uleb128 0x5
 5850 018b 39       		.uleb128 0x39
 5851 018c 0B       		.uleb128 0xb
 5852 018d 27       		.uleb128 0x27
 5853 018e 19       		.uleb128 0x19
 5854 018f 11       		.uleb128 0x11
 5855 0190 01       		.uleb128 0x1
 5856 0191 12       		.uleb128 0x12
 5857 0192 06       		.uleb128 0x6
 5858 0193 40       		.uleb128 0x40
 5859 0194 18       		.uleb128 0x18
 5860 0195 7A       		.uleb128 0x7a
 5861 0196 19       		.uleb128 0x19
 5862 0197 00       		.byte	0
 5863 0198 00       		.byte	0
 5864 0199 1C       		.uleb128 0x1c
 5865 019a 35       		.uleb128 0x35
 5866 019b 00       		.byte	0
 5867 019c 49       		.uleb128 0x49
 5868 019d 13       		.uleb128 0x13
 5869 019e 00       		.byte	0
 5870 019f 00       		.byte	0
 5871 01a0 1D       		.uleb128 0x1d
ARM GAS  C:\Users\DEVELO~1\AppData\Local\Temp\ccPkHjk7.s 			page 104


 5872 01a1 13       		.uleb128 0x13
 5873 01a2 01       		.byte	0x1
 5874 01a3 0B       		.uleb128 0xb
 5875 01a4 05       		.uleb128 0x5
 5876 01a5 3A       		.uleb128 0x3a
 5877 01a6 21       		.uleb128 0x21
 5878 01a7 05       		.sleb128 5
 5879 01a8 3B       		.uleb128 0x3b
 5880 01a9 05       		.uleb128 0x5
 5881 01aa 39       		.uleb128 0x39
 5882 01ab 21       		.uleb128 0x21
 5883 01ac 09       		.sleb128 9
 5884 01ad 01       		.uleb128 0x1
 5885 01ae 13       		.uleb128 0x13
 5886 01af 00       		.byte	0
 5887 01b0 00       		.byte	0
 5888 01b1 1E       		.uleb128 0x1e
 5889 01b2 0D       		.uleb128 0xd
 5890 01b3 00       		.byte	0
 5891 01b4 03       		.uleb128 0x3
 5892 01b5 08       		.uleb128 0x8
 5893 01b6 3A       		.uleb128 0x3a
 5894 01b7 21       		.uleb128 0x21
 5895 01b8 05       		.sleb128 5
 5896 01b9 3B       		.uleb128 0x3b
 5897 01ba 05       		.uleb128 0x5
 5898 01bb 39       		.uleb128 0x39
 5899 01bc 21       		.uleb128 0x21
 5900 01bd 11       		.sleb128 17
 5901 01be 49       		.uleb128 0x49
 5902 01bf 13       		.uleb128 0x13
 5903 01c0 38       		.uleb128 0x38
 5904 01c1 05       		.uleb128 0x5
 5905 01c2 00       		.byte	0
 5906 01c3 00       		.byte	0
 5907 01c4 1F       		.uleb128 0x1f
 5908 01c5 13       		.uleb128 0x13
 5909 01c6 01       		.byte	0x1
 5910 01c7 0B       		.uleb128 0xb
 5911 01c8 0B       		.uleb128 0xb
 5912 01c9 3A       		.uleb128 0x3a
 5913 01ca 21       		.uleb128 0x21
 5914 01cb 05       		.sleb128 5
 5915 01cc 3B       		.uleb128 0x3b
 5916 01cd 05       		.uleb128 0x5
 5917 01ce 39       		.uleb128 0x39
 5918 01cf 21       		.uleb128 0x21
 5919 01d0 09       		.sleb128 9
 5920 01d1 01       		.uleb128 0x1
 5921 01d2 13       		.uleb128 0x13
 5922 01d3 00       		.byte	0
 5923 01d4 00       		.byte	0
 5924 01d5 20       		.uleb128 0x20
 5925 01d6 0D       		.uleb128 0xd
 5926 01d7 00       		.byte	0
 5927 01d8 03       		.uleb128 0x3
 5928 01d9 08       		.uleb128 0x8
ARM GAS  C:\Users\DEVELO~1\AppData\Local\Temp\ccPkHjk7.s 			page 105


 5929 01da 3A       		.uleb128 0x3a
 5930 01db 0B       		.uleb128 0xb
 5931 01dc 3B       		.uleb128 0x3b
 5932 01dd 0B       		.uleb128 0xb
 5933 01de 39       		.uleb128 0x39
 5934 01df 0B       		.uleb128 0xb
 5935 01e0 49       		.uleb128 0x49
 5936 01e1 13       		.uleb128 0x13
 5937 01e2 38       		.uleb128 0x38
 5938 01e3 0B       		.uleb128 0xb
 5939 01e4 00       		.byte	0
 5940 01e5 00       		.byte	0
 5941 01e6 21       		.uleb128 0x21
 5942 01e7 2E       		.uleb128 0x2e
 5943 01e8 00       		.byte	0
 5944 01e9 3F       		.uleb128 0x3f
 5945 01ea 19       		.uleb128 0x19
 5946 01eb 03       		.uleb128 0x3
 5947 01ec 0E       		.uleb128 0xe
 5948 01ed 3A       		.uleb128 0x3a
 5949 01ee 21       		.uleb128 0x21
 5950 01ef 0A       		.sleb128 10
 5951 01f0 3B       		.uleb128 0x3b
 5952 01f1 05       		.uleb128 0x5
 5953 01f2 39       		.uleb128 0x39
 5954 01f3 21       		.uleb128 0x21
 5955 01f4 0A       		.sleb128 10
 5956 01f5 27       		.uleb128 0x27
 5957 01f6 19       		.uleb128 0x19
 5958 01f7 49       		.uleb128 0x49
 5959 01f8 13       		.uleb128 0x13
 5960 01f9 3C       		.uleb128 0x3c
 5961 01fa 19       		.uleb128 0x19
 5962 01fb 00       		.byte	0
 5963 01fc 00       		.byte	0
 5964 01fd 22       		.uleb128 0x22
 5965 01fe 05       		.uleb128 0x5
 5966 01ff 00       		.byte	0
 5967 0200 03       		.uleb128 0x3
 5968 0201 0E       		.uleb128 0xe
 5969 0202 3A       		.uleb128 0x3a
 5970 0203 21       		.uleb128 0x21
 5971 0204 01       		.sleb128 1
 5972 0205 3B       		.uleb128 0x3b
 5973 0206 21       		.uleb128 0x21
 5974 0207 B60D     		.sleb128 1718
 5975 0209 39       		.uleb128 0x39
 5976 020a 0B       		.uleb128 0xb
 5977 020b 49       		.uleb128 0x49
 5978 020c 13       		.uleb128 0x13
 5979 020d 02       		.uleb128 0x2
 5980 020e 18       		.uleb128 0x18
 5981 020f 00       		.byte	0
 5982 0210 00       		.byte	0
 5983 0211 23       		.uleb128 0x23
 5984 0212 48       		.uleb128 0x48
 5985 0213 00       		.byte	0
ARM GAS  C:\Users\DEVELO~1\AppData\Local\Temp\ccPkHjk7.s 			page 106


 5986 0214 7D       		.uleb128 0x7d
 5987 0215 01       		.uleb128 0x1
 5988 0216 8201     		.uleb128 0x82
 5989 0218 19       		.uleb128 0x19
 5990 0219 7F       		.uleb128 0x7f
 5991 021a 13       		.uleb128 0x13
 5992 021b 00       		.byte	0
 5993 021c 00       		.byte	0
 5994 021d 24       		.uleb128 0x24
 5995 021e 11       		.uleb128 0x11
 5996 021f 01       		.byte	0x1
 5997 0220 25       		.uleb128 0x25
 5998 0221 0E       		.uleb128 0xe
 5999 0222 13       		.uleb128 0x13
 6000 0223 0B       		.uleb128 0xb
 6001 0224 03       		.uleb128 0x3
 6002 0225 0E       		.uleb128 0xe
 6003 0226 1B       		.uleb128 0x1b
 6004 0227 0E       		.uleb128 0xe
 6005 0228 55       		.uleb128 0x55
 6006 0229 17       		.uleb128 0x17
 6007 022a 11       		.uleb128 0x11
 6008 022b 01       		.uleb128 0x1
 6009 022c 10       		.uleb128 0x10
 6010 022d 17       		.uleb128 0x17
 6011 022e 00       		.byte	0
 6012 022f 00       		.byte	0
 6013 0230 25       		.uleb128 0x25
 6014 0231 24       		.uleb128 0x24
 6015 0232 00       		.byte	0
 6016 0233 0B       		.uleb128 0xb
 6017 0234 0B       		.uleb128 0xb
 6018 0235 3E       		.uleb128 0x3e
 6019 0236 0B       		.uleb128 0xb
 6020 0237 03       		.uleb128 0x3
 6021 0238 08       		.uleb128 0x8
 6022 0239 00       		.byte	0
 6023 023a 00       		.byte	0
 6024 023b 26       		.uleb128 0x26
 6025 023c 04       		.uleb128 0x4
 6026 023d 01       		.byte	0x1
 6027 023e 3E       		.uleb128 0x3e
 6028 023f 0B       		.uleb128 0xb
 6029 0240 0B       		.uleb128 0xb
 6030 0241 0B       		.uleb128 0xb
 6031 0242 49       		.uleb128 0x49
 6032 0243 13       		.uleb128 0x13
 6033 0244 3A       		.uleb128 0x3a
 6034 0245 0B       		.uleb128 0xb
 6035 0246 3B       		.uleb128 0x3b
 6036 0247 0B       		.uleb128 0xb
 6037 0248 39       		.uleb128 0x39
 6038 0249 0B       		.uleb128 0xb
 6039 024a 01       		.uleb128 0x1
 6040 024b 13       		.uleb128 0x13
 6041 024c 00       		.byte	0
 6042 024d 00       		.byte	0
ARM GAS  C:\Users\DEVELO~1\AppData\Local\Temp\ccPkHjk7.s 			page 107


 6043 024e 27       		.uleb128 0x27
 6044 024f 34       		.uleb128 0x34
 6045 0250 00       		.byte	0
 6046 0251 03       		.uleb128 0x3
 6047 0252 0E       		.uleb128 0xe
 6048 0253 3A       		.uleb128 0x3a
 6049 0254 0B       		.uleb128 0xb
 6050 0255 3B       		.uleb128 0x3b
 6051 0256 05       		.uleb128 0x5
 6052 0257 39       		.uleb128 0x39
 6053 0258 0B       		.uleb128 0xb
 6054 0259 49       		.uleb128 0x49
 6055 025a 13       		.uleb128 0x13
 6056 025b 3F       		.uleb128 0x3f
 6057 025c 19       		.uleb128 0x19
 6058 025d 3C       		.uleb128 0x3c
 6059 025e 19       		.uleb128 0x19
 6060 025f 00       		.byte	0
 6061 0260 00       		.byte	0
 6062 0261 28       		.uleb128 0x28
 6063 0262 2E       		.uleb128 0x2e
 6064 0263 01       		.byte	0x1
 6065 0264 3F       		.uleb128 0x3f
 6066 0265 19       		.uleb128 0x19
 6067 0266 03       		.uleb128 0x3
 6068 0267 0E       		.uleb128 0xe
 6069 0268 3A       		.uleb128 0x3a
 6070 0269 0B       		.uleb128 0xb
 6071 026a 3B       		.uleb128 0x3b
 6072 026b 0B       		.uleb128 0xb
 6073 026c 39       		.uleb128 0x39
 6074 026d 0B       		.uleb128 0xb
 6075 026e 27       		.uleb128 0x27
 6076 026f 19       		.uleb128 0x19
 6077 0270 3C       		.uleb128 0x3c
 6078 0271 19       		.uleb128 0x19
 6079 0272 01       		.uleb128 0x1
 6080 0273 13       		.uleb128 0x13
 6081 0274 00       		.byte	0
 6082 0275 00       		.byte	0
 6083 0276 29       		.uleb128 0x29
 6084 0277 2E       		.uleb128 0x2e
 6085 0278 01       		.byte	0x1
 6086 0279 3F       		.uleb128 0x3f
 6087 027a 19       		.uleb128 0x19
 6088 027b 03       		.uleb128 0x3
 6089 027c 0E       		.uleb128 0xe
 6090 027d 3A       		.uleb128 0x3a
 6091 027e 0B       		.uleb128 0xb
 6092 027f 3B       		.uleb128 0x3b
 6093 0280 05       		.uleb128 0x5
 6094 0281 39       		.uleb128 0x39
 6095 0282 0B       		.uleb128 0xb
 6096 0283 27       		.uleb128 0x27
 6097 0284 19       		.uleb128 0x19
 6098 0285 49       		.uleb128 0x49
 6099 0286 13       		.uleb128 0x13
ARM GAS  C:\Users\DEVELO~1\AppData\Local\Temp\ccPkHjk7.s 			page 108


 6100 0287 3C       		.uleb128 0x3c
 6101 0288 19       		.uleb128 0x19
 6102 0289 01       		.uleb128 0x1
 6103 028a 13       		.uleb128 0x13
 6104 028b 00       		.byte	0
 6105 028c 00       		.byte	0
 6106 028d 2A       		.uleb128 0x2a
 6107 028e 1D       		.uleb128 0x1d
 6108 028f 01       		.byte	0x1
 6109 0290 31       		.uleb128 0x31
 6110 0291 13       		.uleb128 0x13
 6111 0292 52       		.uleb128 0x52
 6112 0293 01       		.uleb128 0x1
 6113 0294 B842     		.uleb128 0x2138
 6114 0296 05       		.uleb128 0x5
 6115 0297 55       		.uleb128 0x55
 6116 0298 17       		.uleb128 0x17
 6117 0299 58       		.uleb128 0x58
 6118 029a 0B       		.uleb128 0xb
 6119 029b 59       		.uleb128 0x59
 6120 029c 05       		.uleb128 0x5
 6121 029d 57       		.uleb128 0x57
 6122 029e 0B       		.uleb128 0xb
 6123 029f 00       		.byte	0
 6124 02a0 00       		.byte	0
 6125 02a1 2B       		.uleb128 0x2b
 6126 02a2 0B       		.uleb128 0xb
 6127 02a3 01       		.byte	0x1
 6128 02a4 55       		.uleb128 0x55
 6129 02a5 17       		.uleb128 0x17
 6130 02a6 00       		.byte	0
 6131 02a7 00       		.byte	0
 6132 02a8 2C       		.uleb128 0x2c
 6133 02a9 2E       		.uleb128 0x2e
 6134 02aa 01       		.byte	0x1
 6135 02ab 3F       		.uleb128 0x3f
 6136 02ac 19       		.uleb128 0x19
 6137 02ad 03       		.uleb128 0x3
 6138 02ae 0E       		.uleb128 0xe
 6139 02af 3A       		.uleb128 0x3a
 6140 02b0 0B       		.uleb128 0xb
 6141 02b1 3B       		.uleb128 0x3b
 6142 02b2 05       		.uleb128 0x5
 6143 02b3 39       		.uleb128 0x39
 6144 02b4 0B       		.uleb128 0xb
 6145 02b5 27       		.uleb128 0x27
 6146 02b6 19       		.uleb128 0x19
 6147 02b7 49       		.uleb128 0x49
 6148 02b8 13       		.uleb128 0x13
 6149 02b9 20       		.uleb128 0x20
 6150 02ba 0B       		.uleb128 0xb
 6151 02bb 01       		.uleb128 0x1
 6152 02bc 13       		.uleb128 0x13
 6153 02bd 00       		.byte	0
 6154 02be 00       		.byte	0
 6155 02bf 2D       		.uleb128 0x2d
 6156 02c0 48       		.uleb128 0x48
ARM GAS  C:\Users\DEVELO~1\AppData\Local\Temp\ccPkHjk7.s 			page 109


 6157 02c1 01       		.byte	0x1
 6158 02c2 7D       		.uleb128 0x7d
 6159 02c3 01       		.uleb128 0x1
 6160 02c4 7F       		.uleb128 0x7f
 6161 02c5 13       		.uleb128 0x13
 6162 02c6 01       		.uleb128 0x1
 6163 02c7 13       		.uleb128 0x13
 6164 02c8 00       		.byte	0
 6165 02c9 00       		.byte	0
 6166 02ca 2E       		.uleb128 0x2e
 6167 02cb 48       		.uleb128 0x48
 6168 02cc 01       		.byte	0x1
 6169 02cd 7D       		.uleb128 0x7d
 6170 02ce 01       		.uleb128 0x1
 6171 02cf 7F       		.uleb128 0x7f
 6172 02d0 13       		.uleb128 0x13
 6173 02d1 00       		.byte	0
 6174 02d2 00       		.byte	0
 6175 02d3 2F       		.uleb128 0x2f
 6176 02d4 2E       		.uleb128 0x2e
 6177 02d5 01       		.byte	0x1
 6178 02d6 3F       		.uleb128 0x3f
 6179 02d7 19       		.uleb128 0x19
 6180 02d8 03       		.uleb128 0x3
 6181 02d9 0E       		.uleb128 0xe
 6182 02da 3A       		.uleb128 0x3a
 6183 02db 0B       		.uleb128 0xb
 6184 02dc 3B       		.uleb128 0x3b
 6185 02dd 0B       		.uleb128 0xb
 6186 02de 39       		.uleb128 0x39
 6187 02df 0B       		.uleb128 0xb
 6188 02e0 27       		.uleb128 0x27
 6189 02e1 19       		.uleb128 0x19
 6190 02e2 49       		.uleb128 0x49
 6191 02e3 13       		.uleb128 0x13
 6192 02e4 11       		.uleb128 0x11
 6193 02e5 01       		.uleb128 0x1
 6194 02e6 12       		.uleb128 0x12
 6195 02e7 06       		.uleb128 0x6
 6196 02e8 40       		.uleb128 0x40
 6197 02e9 18       		.uleb128 0x18
 6198 02ea 7A       		.uleb128 0x7a
 6199 02eb 19       		.uleb128 0x19
 6200 02ec 01       		.uleb128 0x1
 6201 02ed 13       		.uleb128 0x13
 6202 02ee 00       		.byte	0
 6203 02ef 00       		.byte	0
 6204 02f0 30       		.uleb128 0x30
 6205 02f1 34       		.uleb128 0x34
 6206 02f2 00       		.byte	0
 6207 02f3 03       		.uleb128 0x3
 6208 02f4 0E       		.uleb128 0xe
 6209 02f5 3A       		.uleb128 0x3a
 6210 02f6 0B       		.uleb128 0xb
 6211 02f7 3B       		.uleb128 0x3b
 6212 02f8 0B       		.uleb128 0xb
 6213 02f9 39       		.uleb128 0x39
ARM GAS  C:\Users\DEVELO~1\AppData\Local\Temp\ccPkHjk7.s 			page 110


 6214 02fa 0B       		.uleb128 0xb
 6215 02fb 49       		.uleb128 0x49
 6216 02fc 13       		.uleb128 0x13
 6217 02fd 02       		.uleb128 0x2
 6218 02fe 17       		.uleb128 0x17
 6219 02ff B742     		.uleb128 0x2137
 6220 0301 17       		.uleb128 0x17
 6221 0302 00       		.byte	0
 6222 0303 00       		.byte	0
 6223 0304 31       		.uleb128 0x31
 6224 0305 2E       		.uleb128 0x2e
 6225 0306 01       		.byte	0x1
 6226 0307 31       		.uleb128 0x31
 6227 0308 13       		.uleb128 0x13
 6228 0309 11       		.uleb128 0x11
 6229 030a 01       		.uleb128 0x1
 6230 030b 12       		.uleb128 0x12
 6231 030c 06       		.uleb128 0x6
 6232 030d 40       		.uleb128 0x40
 6233 030e 18       		.uleb128 0x18
 6234 030f 7A       		.uleb128 0x7a
 6235 0310 19       		.uleb128 0x19
 6236 0311 01       		.uleb128 0x1
 6237 0312 13       		.uleb128 0x13
 6238 0313 00       		.byte	0
 6239 0314 00       		.byte	0
 6240 0315 32       		.uleb128 0x32
 6241 0316 2E       		.uleb128 0x2e
 6242 0317 01       		.byte	0x1
 6243 0318 31       		.uleb128 0x31
 6244 0319 13       		.uleb128 0x13
 6245 031a 11       		.uleb128 0x11
 6246 031b 01       		.uleb128 0x1
 6247 031c 12       		.uleb128 0x12
 6248 031d 06       		.uleb128 0x6
 6249 031e 40       		.uleb128 0x40
 6250 031f 18       		.uleb128 0x18
 6251 0320 7A       		.uleb128 0x7a
 6252 0321 19       		.uleb128 0x19
 6253 0322 00       		.byte	0
 6254 0323 00       		.byte	0
 6255 0324 00       		.byte	0
 6256              		.section	.debug_loclists,"",%progbits
 6257 0000 F7050000 		.4byte	.Ldebug_loc3-.Ldebug_loc2
 6258              	.Ldebug_loc2:
 6259 0004 0500     		.2byte	0x5
 6260 0006 04       		.byte	0x4
 6261 0007 00       		.byte	0
 6262 0008 00000000 		.4byte	0
 6263              	.Ldebug_loc0:
 6264              	.LVUS35:
 6265 000c 00       		.uleb128 0
 6266 000d 00       		.uleb128 .LVU1072
 6267 000e 00       		.uleb128 .LVU1072
 6268 000f 00       		.uleb128 .LVU1148
 6269 0010 00       		.uleb128 .LVU1148
 6270 0011 00       		.uleb128 .LVU1149
ARM GAS  C:\Users\DEVELO~1\AppData\Local\Temp\ccPkHjk7.s 			page 111


 6271 0012 00       		.uleb128 .LVU1149
 6272 0013 00       		.uleb128 0
 6273              	.LLST35:
 6274 0014 06       		.byte	0x6
 6275 0015 00000000 		.4byte	.LVL220
 6276 0019 04       		.byte	0x4
 6277 001a 00       		.uleb128 .LVL220-.LVL220
 6278 001b 25       		.uleb128 .LVL221-1-.LVL220
 6279 001c 01       		.uleb128 0x1
 6280 001d 50       		.byte	0x50
 6281 001e 04       		.byte	0x4
 6282 001f 25       		.uleb128 .LVL221-1-.LVL220
 6283 0020 DA01     		.uleb128 .LVL223-.LVL220
 6284 0022 01       		.uleb128 0x1
 6285 0023 54       		.byte	0x54
 6286 0024 04       		.byte	0x4
 6287 0025 DA01     		.uleb128 .LVL223-.LVL220
 6288 0027 E001     		.uleb128 .LVL224-.LVL220
 6289 0029 01       		.uleb128 0x1
 6290 002a 50       		.byte	0x50
 6291 002b 04       		.byte	0x4
 6292 002c E001     		.uleb128 .LVL224-.LVL220
 6293 002e F001     		.uleb128 .LFE151-.LVL220
 6294 0030 01       		.uleb128 0x1
 6295 0031 54       		.byte	0x54
 6296 0032 00       		.byte	0
 6297              	.LVUS32:
 6298 0033 00       		.uleb128 .LVU1012
 6299 0034 00       		.uleb128 .LVU1020
 6300              	.LLST32:
 6301 0035 08       		.byte	0x8
 6302 0036 36000000 		.4byte	.LVL213
 6303 003a 0E       		.uleb128 .LVL214-.LVL213
 6304 003b 01       		.uleb128 0x1
 6305 003c 52       		.byte	0x52
 6306 003d 00       		.byte	0
 6307              	.LVUS34:
 6308 003e 00       		.uleb128 .LVU998
 6309 003f 01       		.uleb128 .LVU999
 6310 0040 00       		.uleb128 .LVU1029
 6311 0041 00       		.uleb128 .LVU1030
 6312              	.LLST34:
 6313 0042 06       		.byte	0x6
 6314 0043 16000000 		.4byte	.LVL212
 6315 0047 04       		.byte	0x4
 6316 0048 00       		.uleb128 .LVL212-.LVL212
 6317 0049 00       		.uleb128 .LVL212-.LVL212
 6318 004a 01       		.uleb128 0x1
 6319 004b 50       		.byte	0x50
 6320 004c 04       		.byte	0x4
 6321 004d 42       		.uleb128 .LVL215-.LVL212
 6322 004e 44       		.uleb128 .LVL216-.LVL212
 6323 004f 01       		.uleb128 0x1
 6324 0050 50       		.byte	0x50
 6325 0051 00       		.byte	0
 6326              	.LVUS22:
 6327 0052 00       		.uleb128 0
ARM GAS  C:\Users\DEVELO~1\AppData\Local\Temp\ccPkHjk7.s 			page 112


 6328 0053 00       		.uleb128 .LVU711
 6329 0054 00       		.uleb128 .LVU711
 6330 0055 00       		.uleb128 .LVU726
 6331 0056 00       		.uleb128 .LVU726
 6332 0057 00       		.uleb128 .LVU728
 6333 0058 00       		.uleb128 .LVU728
 6334 0059 00       		.uleb128 .LVU735
 6335 005a 00       		.uleb128 .LVU735
 6336 005b 00       		.uleb128 0
 6337              	.LLST22:
 6338 005c 06       		.byte	0x6
 6339 005d 00000000 		.4byte	.LVL175
 6340 0061 04       		.byte	0x4
 6341 0062 00       		.uleb128 .LVL175-.LVL175
 6342 0063 28       		.uleb128 .LVL177-.LVL175
 6343 0064 01       		.uleb128 0x1
 6344 0065 50       		.byte	0x50
 6345 0066 04       		.byte	0x4
 6346 0067 28       		.uleb128 .LVL177-.LVL175
 6347 0068 3D       		.uleb128 .LVL179-1-.LVL175
 6348 0069 02       		.uleb128 0x2
 6349 006a 91       		.byte	0x91
 6350 006b 64       		.sleb128 -28
 6351 006c 04       		.byte	0x4
 6352 006d 3D       		.uleb128 .LVL179-1-.LVL175
 6353 006e 4E       		.uleb128 .LVL180-.LVL175
 6354 006f 04       		.uleb128 0x4
 6355 0070 A3       		.byte	0xa3
 6356 0071 01       		.uleb128 0x1
 6357 0072 50       		.byte	0x50
 6358 0073 9F       		.byte	0x9f
 6359 0074 04       		.byte	0x4
 6360 0075 4E       		.uleb128 .LVL180-.LVL175
 6361 0076 5A       		.uleb128 .LVL183-.LVL175
 6362 0077 01       		.uleb128 0x1
 6363 0078 50       		.byte	0x50
 6364 0079 04       		.byte	0x4
 6365 007a 5A       		.uleb128 .LVL183-.LVL175
 6366 007b A401     		.uleb128 .LFE144-.LVL175
 6367 007d 04       		.uleb128 0x4
 6368 007e A3       		.byte	0xa3
 6369 007f 01       		.uleb128 0x1
 6370 0080 50       		.byte	0x50
 6371 0081 9F       		.byte	0x9f
 6372 0082 00       		.byte	0
 6373              	.LVUS23:
 6374 0083 00       		.uleb128 0
 6375 0084 00       		.uleb128 .LVU705
 6376 0085 00       		.uleb128 .LVU705
 6377 0086 00       		.uleb128 .LVU728
 6378 0087 00       		.uleb128 .LVU728
 6379 0088 00       		.uleb128 .LVU734
 6380 0089 00       		.uleb128 .LVU734
 6381 008a 00       		.uleb128 .LVU758
 6382 008b 00       		.uleb128 .LVU758
 6383 008c 00       		.uleb128 0
 6384              	.LLST23:
ARM GAS  C:\Users\DEVELO~1\AppData\Local\Temp\ccPkHjk7.s 			page 113


 6385 008d 06       		.byte	0x6
 6386 008e 00000000 		.4byte	.LVL175
 6387 0092 04       		.byte	0x4
 6388 0093 00       		.uleb128 .LVL175-.LVL175
 6389 0094 12       		.uleb128 .LVL176-.LVL175
 6390 0095 01       		.uleb128 0x1
 6391 0096 51       		.byte	0x51
 6392 0097 04       		.byte	0x4
 6393 0098 12       		.uleb128 .LVL176-.LVL175
 6394 0099 4E       		.uleb128 .LVL180-.LVL175
 6395 009a 01       		.uleb128 0x1
 6396 009b 55       		.byte	0x55
 6397 009c 04       		.byte	0x4
 6398 009d 4E       		.uleb128 .LVL180-.LVL175
 6399 009e 58       		.uleb128 .LVL182-.LVL175
 6400 009f 01       		.uleb128 0x1
 6401 00a0 51       		.byte	0x51
 6402 00a1 04       		.byte	0x4
 6403 00a2 58       		.uleb128 .LVL182-.LVL175
 6404 00a3 9601     		.uleb128 .LVL185-.LVL175
 6405 00a5 01       		.uleb128 0x1
 6406 00a6 55       		.byte	0x55
 6407 00a7 04       		.byte	0x4
 6408 00a8 9601     		.uleb128 .LVL185-.LVL175
 6409 00aa A401     		.uleb128 .LFE144-.LVL175
 6410 00ac 04       		.uleb128 0x4
 6411 00ad A3       		.byte	0xa3
 6412 00ae 01       		.uleb128 0x1
 6413 00af 51       		.byte	0x51
 6414 00b0 9F       		.byte	0x9f
 6415 00b1 00       		.byte	0
 6416              	.LVUS24:
 6417 00b2 00       		.uleb128 0
 6418 00b3 00       		.uleb128 .LVU715
 6419 00b4 00       		.uleb128 .LVU715
 6420 00b5 00       		.uleb128 .LVU728
 6421 00b6 00       		.uleb128 .LVU728
 6422 00b7 00       		.uleb128 .LVU733
 6423 00b8 00       		.uleb128 .LVU733
 6424 00b9 00       		.uleb128 .LVU758
 6425 00ba 00       		.uleb128 .LVU758
 6426 00bb 00       		.uleb128 0
 6427              	.LLST24:
 6428 00bc 06       		.byte	0x6
 6429 00bd 00000000 		.4byte	.LVL175
 6430 00c1 04       		.byte	0x4
 6431 00c2 00       		.uleb128 .LVL175-.LVL175
 6432 00c3 30       		.uleb128 .LVL178-.LVL175
 6433 00c4 01       		.uleb128 0x1
 6434 00c5 52       		.byte	0x52
 6435 00c6 04       		.byte	0x4
 6436 00c7 30       		.uleb128 .LVL178-.LVL175
 6437 00c8 4E       		.uleb128 .LVL180-.LVL175
 6438 00c9 01       		.uleb128 0x1
 6439 00ca 54       		.byte	0x54
 6440 00cb 04       		.byte	0x4
 6441 00cc 4E       		.uleb128 .LVL180-.LVL175
ARM GAS  C:\Users\DEVELO~1\AppData\Local\Temp\ccPkHjk7.s 			page 114


 6442 00cd 54       		.uleb128 .LVL181-.LVL175
 6443 00ce 01       		.uleb128 0x1
 6444 00cf 52       		.byte	0x52
 6445 00d0 04       		.byte	0x4
 6446 00d1 54       		.uleb128 .LVL181-.LVL175
 6447 00d2 9601     		.uleb128 .LVL185-.LVL175
 6448 00d4 01       		.uleb128 0x1
 6449 00d5 54       		.byte	0x54
 6450 00d6 04       		.byte	0x4
 6451 00d7 9601     		.uleb128 .LVL185-.LVL175
 6452 00d9 A401     		.uleb128 .LFE144-.LVL175
 6453 00db 04       		.uleb128 0x4
 6454 00dc A3       		.byte	0xa3
 6455 00dd 01       		.uleb128 0x1
 6456 00de 52       		.byte	0x52
 6457 00df 9F       		.byte	0x9f
 6458 00e0 00       		.byte	0
 6459              	.LVUS28:
 6460 00e1 00       		.uleb128 0
 6461 00e2 00       		.uleb128 .LVU805
 6462 00e3 00       		.uleb128 .LVU805
 6463 00e4 00       		.uleb128 .LVU807
 6464 00e5 00       		.uleb128 .LVU807
 6465 00e6 00       		.uleb128 .LVU813
 6466 00e7 00       		.uleb128 .LVU813
 6467 00e8 00       		.uleb128 .LVU956
 6468 00e9 00       		.uleb128 .LVU956
 6469 00ea 00       		.uleb128 .LVU971
 6470 00eb 00       		.uleb128 .LVU971
 6471 00ec 00       		.uleb128 .LVU977
 6472 00ed 00       		.uleb128 .LVU977
 6473 00ee 00       		.uleb128 .LVU978
 6474 00ef 00       		.uleb128 .LVU978
 6475 00f0 00       		.uleb128 .LVU979
 6476 00f1 00       		.uleb128 .LVU979
 6477 00f2 00       		.uleb128 0
 6478              	.LLST28:
 6479 00f3 06       		.byte	0x6
 6480 00f4 00000000 		.4byte	.LVL190
 6481 00f8 04       		.byte	0x4
 6482 00f9 00       		.uleb128 .LVL190-.LVL190
 6483 00fa 2E       		.uleb128 .LVL191-.LVL190
 6484 00fb 01       		.uleb128 0x1
 6485 00fc 50       		.byte	0x50
 6486 00fd 04       		.byte	0x4
 6487 00fe 2E       		.uleb128 .LVL191-.LVL190
 6488 00ff 34       		.uleb128 .LVL192-.LVL190
 6489 0100 01       		.uleb128 0x1
 6490 0101 54       		.byte	0x54
 6491 0102 04       		.byte	0x4
 6492 0103 34       		.uleb128 .LVL192-.LVL190
 6493 0104 3E       		.uleb128 .LVL194-.LVL190
 6494 0105 01       		.uleb128 0x1
 6495 0106 50       		.byte	0x50
 6496 0107 04       		.byte	0x4
 6497 0108 3E       		.uleb128 .LVL194-.LVL190
 6498 0109 E203     		.uleb128 .LVL202-.LVL190
ARM GAS  C:\Users\DEVELO~1\AppData\Local\Temp\ccPkHjk7.s 			page 115


 6499 010b 01       		.uleb128 0x1
 6500 010c 54       		.byte	0x54
 6501 010d 04       		.byte	0x4
 6502 010e E203     		.uleb128 .LVL202-.LVL190
 6503 0110 8204     		.uleb128 .LVL206-.LVL190
 6504 0112 04       		.uleb128 0x4
 6505 0113 A3       		.byte	0xa3
 6506 0114 01       		.uleb128 0x1
 6507 0115 50       		.byte	0x50
 6508 0116 9F       		.byte	0x9f
 6509 0117 04       		.byte	0x4
 6510 0118 8204     		.uleb128 .LVL206-.LVL190
 6511 011a 9E04     		.uleb128 .LVL207-.LVL190
 6512 011c 01       		.uleb128 0x1
 6513 011d 54       		.byte	0x54
 6514 011e 04       		.byte	0x4
 6515 011f 9E04     		.uleb128 .LVL207-.LVL190
 6516 0121 A004     		.uleb128 .LVL208-.LVL190
 6517 0123 01       		.uleb128 0x1
 6518 0124 50       		.byte	0x50
 6519 0125 04       		.byte	0x4
 6520 0126 A004     		.uleb128 .LVL208-.LVL190
 6521 0128 A204     		.uleb128 .LVL209-.LVL190
 6522 012a 04       		.uleb128 0x4
 6523 012b A3       		.byte	0xa3
 6524 012c 01       		.uleb128 0x1
 6525 012d 50       		.byte	0x50
 6526 012e 9F       		.byte	0x9f
 6527 012f 04       		.byte	0x4
 6528 0130 A204     		.uleb128 .LVL209-.LVL190
 6529 0132 D004     		.uleb128 .LFE143-.LVL190
 6530 0134 01       		.uleb128 0x1
 6531 0135 54       		.byte	0x54
 6532 0136 00       		.byte	0
 6533              	.LVUS29:
 6534 0137 00       		.uleb128 0
 6535 0138 00       		.uleb128 .LVU805
 6536 0139 00       		.uleb128 .LVU805
 6537 013a 00       		.uleb128 .LVU807
 6538 013b 00       		.uleb128 .LVU807
 6539 013c 00       		.uleb128 .LVU812
 6540 013d 00       		.uleb128 .LVU812
 6541 013e 00       		.uleb128 .LVU936
 6542 013f 00       		.uleb128 .LVU936
 6543 0140 00       		.uleb128 .LVU971
 6544 0141 00       		.uleb128 .LVU971
 6545 0142 00       		.uleb128 .LVU977
 6546 0143 00       		.uleb128 .LVU977
 6547 0144 00       		.uleb128 .LVU979
 6548 0145 00       		.uleb128 .LVU979
 6549 0146 00       		.uleb128 0
 6550              	.LLST29:
 6551 0147 06       		.byte	0x6
 6552 0148 00000000 		.4byte	.LVL190
 6553 014c 04       		.byte	0x4
 6554 014d 00       		.uleb128 .LVL190-.LVL190
 6555 014e 2E       		.uleb128 .LVL191-.LVL190
ARM GAS  C:\Users\DEVELO~1\AppData\Local\Temp\ccPkHjk7.s 			page 116


 6556 014f 01       		.uleb128 0x1
 6557 0150 51       		.byte	0x51
 6558 0151 04       		.byte	0x4
 6559 0152 2E       		.uleb128 .LVL191-.LVL190
 6560 0153 34       		.uleb128 .LVL192-.LVL190
 6561 0154 01       		.uleb128 0x1
 6562 0155 55       		.byte	0x55
 6563 0156 04       		.byte	0x4
 6564 0157 34       		.uleb128 .LVL192-.LVL190
 6565 0158 3C       		.uleb128 .LVL193-.LVL190
 6566 0159 01       		.uleb128 0x1
 6567 015a 51       		.byte	0x51
 6568 015b 04       		.byte	0x4
 6569 015c 3C       		.uleb128 .LVL193-.LVL190
 6570 015d AE03     		.uleb128 .LVL200-.LVL190
 6571 015f 01       		.uleb128 0x1
 6572 0160 55       		.byte	0x55
 6573 0161 04       		.byte	0x4
 6574 0162 AE03     		.uleb128 .LVL200-.LVL190
 6575 0164 8204     		.uleb128 .LVL206-.LVL190
 6576 0166 04       		.uleb128 0x4
 6577 0167 A3       		.byte	0xa3
 6578 0168 01       		.uleb128 0x1
 6579 0169 51       		.byte	0x51
 6580 016a 9F       		.byte	0x9f
 6581 016b 04       		.byte	0x4
 6582 016c 8204     		.uleb128 .LVL206-.LVL190
 6583 016e 9E04     		.uleb128 .LVL207-.LVL190
 6584 0170 01       		.uleb128 0x1
 6585 0171 55       		.byte	0x55
 6586 0172 04       		.byte	0x4
 6587 0173 9E04     		.uleb128 .LVL207-.LVL190
 6588 0175 A204     		.uleb128 .LVL209-.LVL190
 6589 0177 01       		.uleb128 0x1
 6590 0178 51       		.byte	0x51
 6591 0179 04       		.byte	0x4
 6592 017a A204     		.uleb128 .LVL209-.LVL190
 6593 017c D004     		.uleb128 .LFE143-.LVL190
 6594 017e 01       		.uleb128 0x1
 6595 017f 55       		.byte	0x55
 6596 0180 00       		.byte	0
 6597              	.LVUS30:
 6598 0181 00       		.uleb128 .LVU878
 6599 0182 00       		.uleb128 .LVU880
 6600 0183 00       		.uleb128 .LVU880
 6601 0184 00       		.uleb128 .LVU893
 6602 0185 00       		.uleb128 .LVU981
 6603 0186 00       		.uleb128 .LVU982
 6604              	.LLST30:
 6605 0187 06       		.byte	0x6
 6606 0188 06010000 		.4byte	.LVL196
 6607 018c 04       		.byte	0x4
 6608 018d 00       		.uleb128 .LVL196-.LVL196
 6609 018e 02       		.uleb128 .LVL197-.LVL196
 6610 018f 01       		.uleb128 0x1
 6611 0190 50       		.byte	0x50
 6612 0191 04       		.byte	0x4
ARM GAS  C:\Users\DEVELO~1\AppData\Local\Temp\ccPkHjk7.s 			page 117


 6613 0192 02       		.uleb128 .LVL197-.LVL196
 6614 0193 24       		.uleb128 .LVL199-.LVL196
 6615 0194 01       		.uleb128 0x1
 6616 0195 57       		.byte	0x57
 6617 0196 04       		.byte	0x4
 6618 0197 A402     		.uleb128 .LVL210-.LVL196
 6619 0199 A802     		.uleb128 .LVL211-.LVL196
 6620 019b 01       		.uleb128 0x1
 6621 019c 57       		.byte	0x57
 6622 019d 00       		.byte	0
 6623              	.LVUS31:
 6624 019e 00       		.uleb128 .LVU962
 6625 019f 00       		.uleb128 .LVU966
 6626 01a0 00       		.uleb128 .LVU966
 6627 01a1 00       		.uleb128 .LVU970
 6628              	.LLST31:
 6629 01a2 06       		.byte	0x6
 6630 01a3 F2010000 		.4byte	.LVL203
 6631 01a7 04       		.byte	0x4
 6632 01a8 00       		.uleb128 .LVL203-.LVL203
 6633 01a9 06       		.uleb128 .LVL204-.LVL203
 6634 01aa 01       		.uleb128 0x1
 6635 01ab 53       		.byte	0x53
 6636 01ac 04       		.byte	0x4
 6637 01ad 06       		.uleb128 .LVL204-.LVL203
 6638 01ae 0C       		.uleb128 .LVL205-.LVL203
 6639 01af 02       		.uleb128 0x2
 6640 01b0 75       		.byte	0x75
 6641 01b1 00       		.sleb128 0
 6642 01b2 00       		.byte	0
 6643              	.LVUS9:
 6644 01b3 00       		.uleb128 0
 6645 01b4 00       		.uleb128 .LVU257
 6646 01b5 00       		.uleb128 .LVU257
 6647 01b6 00       		.uleb128 .LVU364
 6648 01b7 00       		.uleb128 .LVU364
 6649 01b8 00       		.uleb128 .LVU375
 6650 01b9 00       		.uleb128 .LVU375
 6651 01ba 00       		.uleb128 .LVU426
 6652 01bb 00       		.uleb128 .LVU426
 6653 01bc 00       		.uleb128 .LVU434
 6654 01bd 00       		.uleb128 .LVU434
 6655 01be 00       		.uleb128 .LVU449
 6656 01bf 00       		.uleb128 .LVU449
 6657 01c0 00       		.uleb128 .LVU453
 6658 01c1 00       		.uleb128 .LVU453
 6659 01c2 00       		.uleb128 .LVU488
 6660 01c3 00       		.uleb128 .LVU488
 6661 01c4 00       		.uleb128 .LVU490
 6662 01c5 00       		.uleb128 .LVU490
 6663 01c6 00       		.uleb128 .LVU496
 6664 01c7 00       		.uleb128 .LVU496
 6665 01c8 00       		.uleb128 .LVU561
 6666 01c9 00       		.uleb128 .LVU561
 6667 01ca 00       		.uleb128 .LVU562
 6668 01cb 00       		.uleb128 .LVU562
 6669 01cc 00       		.uleb128 .LVU563
ARM GAS  C:\Users\DEVELO~1\AppData\Local\Temp\ccPkHjk7.s 			page 118


 6670 01cd 00       		.uleb128 .LVU563
 6671 01ce 00       		.uleb128 .LVU604
 6672 01cf 00       		.uleb128 .LVU604
 6673 01d0 00       		.uleb128 .LVU613
 6674 01d1 00       		.uleb128 .LVU613
 6675 01d2 00       		.uleb128 .LVU658
 6676 01d3 00       		.uleb128 .LVU658
 6677 01d4 00       		.uleb128 .LVU661
 6678 01d5 00       		.uleb128 .LVU661
 6679 01d6 00       		.uleb128 .LVU663
 6680 01d7 00       		.uleb128 .LVU663
 6681 01d8 00       		.uleb128 0
 6682              	.LLST9:
 6683 01d9 06       		.byte	0x6
 6684 01da 00000000 		.4byte	.LVL45
 6685 01de 04       		.byte	0x4
 6686 01df 00       		.uleb128 .LVL45-.LVL45
 6687 01e0 53       		.uleb128 .LVL49-1-.LVL45
 6688 01e1 01       		.uleb128 0x1
 6689 01e2 50       		.byte	0x50
 6690 01e3 04       		.byte	0x4
 6691 01e4 53       		.uleb128 .LVL49-1-.LVL45
 6692 01e5 F002     		.uleb128 .LVL74-.LVL45
 6693 01e7 01       		.uleb128 0x1
 6694 01e8 54       		.byte	0x54
 6695 01e9 04       		.byte	0x4
 6696 01ea F002     		.uleb128 .LVL74-.LVL45
 6697 01ec 8803     		.uleb128 .LVL78-.LVL45
 6698 01ee 04       		.uleb128 0x4
 6699 01ef A3       		.byte	0xa3
 6700 01f0 01       		.uleb128 0x1
 6701 01f1 50       		.byte	0x50
 6702 01f2 9F       		.byte	0x9f
 6703 01f3 04       		.byte	0x4
 6704 01f4 8803     		.uleb128 .LVL78-.LVL45
 6705 01f6 A404     		.uleb128 .LVL96-.LVL45
 6706 01f8 01       		.uleb128 0x1
 6707 01f9 54       		.byte	0x54
 6708 01fa 04       		.byte	0x4
 6709 01fb A404     		.uleb128 .LVL96-.LVL45
 6710 01fd C004     		.uleb128 .LVL99-.LVL45
 6711 01ff 01       		.uleb128 0x1
 6712 0200 50       		.byte	0x50
 6713 0201 04       		.byte	0x4
 6714 0202 C004     		.uleb128 .LVL99-.LVL45
 6715 0204 8405     		.uleb128 .LVL104-.LVL45
 6716 0206 01       		.uleb128 0x1
 6717 0207 54       		.byte	0x54
 6718 0208 04       		.byte	0x4
 6719 0209 8405     		.uleb128 .LVL104-.LVL45
 6720 020b 9005     		.uleb128 .LVL106-.LVL45
 6721 020d 01       		.uleb128 0x1
 6722 020e 50       		.byte	0x50
 6723 020f 04       		.byte	0x4
 6724 0210 9005     		.uleb128 .LVL106-.LVL45
 6725 0212 8206     		.uleb128 .LVL116-.LVL45
 6726 0214 01       		.uleb128 0x1
ARM GAS  C:\Users\DEVELO~1\AppData\Local\Temp\ccPkHjk7.s 			page 119


 6727 0215 54       		.byte	0x54
 6728 0216 04       		.byte	0x4
 6729 0217 8206     		.uleb128 .LVL116-.LVL45
 6730 0219 8606     		.uleb128 .LVL117-.LVL45
 6731 021b 04       		.uleb128 0x4
 6732 021c A3       		.byte	0xa3
 6733 021d 01       		.uleb128 0x1
 6734 021e 50       		.byte	0x50
 6735 021f 9F       		.byte	0x9f
 6736 0220 04       		.byte	0x4
 6737 0221 8606     		.uleb128 .LVL117-.LVL45
 6738 0223 9B06     		.uleb128 .LVL118-1-.LVL45
 6739 0225 01       		.uleb128 0x1
 6740 0226 50       		.byte	0x50
 6741 0227 04       		.byte	0x4
 6742 0228 9B06     		.uleb128 .LVL118-1-.LVL45
 6743 022a D607     		.uleb128 .LVL144-.LVL45
 6744 022c 01       		.uleb128 0x1
 6745 022d 54       		.byte	0x54
 6746 022e 04       		.byte	0x4
 6747 022f D607     		.uleb128 .LVL144-.LVL45
 6748 0231 D807     		.uleb128 .LVL145-.LVL45
 6749 0233 01       		.uleb128 0x1
 6750 0234 50       		.byte	0x50
 6751 0235 04       		.byte	0x4
 6752 0236 D807     		.uleb128 .LVL145-.LVL45
 6753 0238 DA07     		.uleb128 .LVL146-.LVL45
 6754 023a 04       		.uleb128 0x4
 6755 023b A3       		.byte	0xa3
 6756 023c 01       		.uleb128 0x1
 6757 023d 50       		.byte	0x50
 6758 023e 9F       		.byte	0x9f
 6759 023f 04       		.byte	0x4
 6760 0240 DA07     		.uleb128 .LVL146-.LVL45
 6761 0242 A209     		.uleb128 .LVL153-.LVL45
 6762 0244 01       		.uleb128 0x1
 6763 0245 54       		.byte	0x54
 6764 0246 04       		.byte	0x4
 6765 0247 A209     		.uleb128 .LVL153-.LVL45
 6766 0249 B809     		.uleb128 .LVL156-.LVL45
 6767 024b 04       		.uleb128 0x4
 6768 024c A3       		.byte	0xa3
 6769 024d 01       		.uleb128 0x1
 6770 024e 50       		.byte	0x50
 6771 024f 9F       		.byte	0x9f
 6772 0250 04       		.byte	0x4
 6773 0251 B809     		.uleb128 .LVL156-.LVL45
 6774 0253 C20A     		.uleb128 .LVL166-.LVL45
 6775 0255 01       		.uleb128 0x1
 6776 0256 54       		.byte	0x54
 6777 0257 04       		.byte	0x4
 6778 0258 C20A     		.uleb128 .LVL166-.LVL45
 6779 025a D40A     		.uleb128 .LVL167-.LVL45
 6780 025c 04       		.uleb128 0x4
 6781 025d A3       		.byte	0xa3
 6782 025e 01       		.uleb128 0x1
 6783 025f 50       		.byte	0x50
ARM GAS  C:\Users\DEVELO~1\AppData\Local\Temp\ccPkHjk7.s 			page 120


 6784 0260 9F       		.byte	0x9f
 6785 0261 04       		.byte	0x4
 6786 0262 D40A     		.uleb128 .LVL167-.LVL45
 6787 0264 F00A     		.uleb128 .LVL168-.LVL45
 6788 0266 01       		.uleb128 0x1
 6789 0267 50       		.byte	0x50
 6790 0268 04       		.byte	0x4
 6791 0269 F00A     		.uleb128 .LVL168-.LVL45
 6792 026b E80B     		.uleb128 .LFE142-.LVL45
 6793 026d 01       		.uleb128 0x1
 6794 026e 54       		.byte	0x54
 6795 026f 00       		.byte	0
 6796              	.LVUS10:
 6797 0270 00       		.uleb128 .LVU259
 6798 0271 00       		.uleb128 .LVU261
 6799 0272 00       		.uleb128 .LVU261
 6800 0273 00       		.uleb128 .LVU268
 6801 0274 00       		.uleb128 .LVU291
 6802 0275 00       		.uleb128 .LVU293
 6803 0276 00       		.uleb128 .LVU293
 6804 0277 00       		.uleb128 .LVU306
 6805 0278 00       		.uleb128 .LVU316
 6806 0279 00       		.uleb128 .LVU318
 6807 027a 00       		.uleb128 .LVU318
 6808 027b 00       		.uleb128 .LVU326
 6809 027c 00       		.uleb128 .LVU337
 6810 027d 00       		.uleb128 .LVU339
 6811 027e 00       		.uleb128 .LVU339
 6812 027f 00       		.uleb128 .LVU347
 6813 0280 00       		.uleb128 .LVU364
 6814 0281 00       		.uleb128 .LVU366
 6815 0282 00       		.uleb128 .LVU366
 6816 0283 00       		.uleb128 .LVU373
 6817 0284 00       		.uleb128 .LVU393
 6818 0285 00       		.uleb128 .LVU395
 6819 0286 00       		.uleb128 .LVU395
 6820 0287 00       		.uleb128 .LVU408
 6821 0288 00       		.uleb128 .LVU417
 6822 0289 00       		.uleb128 .LVU419
 6823 028a 00       		.uleb128 .LVU419
 6824 028b 00       		.uleb128 .LVU426
 6825 028c 00       		.uleb128 .LVU459
 6826 028d 00       		.uleb128 .LVU461
 6827 028e 00       		.uleb128 .LVU461
 6828 028f 00       		.uleb128 .LVU477
 6829 0290 00       		.uleb128 .LVU479
 6830 0291 00       		.uleb128 .LVU481
 6831 0292 00       		.uleb128 .LVU481
 6832 0293 00       		.uleb128 .LVU488
 6833 0294 00       		.uleb128 .LVU497
 6834 0295 00       		.uleb128 .LVU499
 6835 0296 00       		.uleb128 .LVU499
 6836 0297 00       		.uleb128 .LVU506
 6837 0298 00       		.uleb128 .LVU510
 6838 0299 00       		.uleb128 .LVU512
 6839 029a 00       		.uleb128 .LVU512
 6840 029b 00       		.uleb128 .LVU519
ARM GAS  C:\Users\DEVELO~1\AppData\Local\Temp\ccPkHjk7.s 			page 121


 6841 029c 00       		.uleb128 .LVU523
 6842 029d 00       		.uleb128 .LVU525
 6843 029e 00       		.uleb128 .LVU525
 6844 029f 00       		.uleb128 .LVU532
 6845 02a0 00       		.uleb128 .LVU535
 6846 02a1 00       		.uleb128 .LVU537
 6847 02a2 00       		.uleb128 .LVU537
 6848 02a3 00       		.uleb128 .LVU545
 6849 02a4 00       		.uleb128 .LVU548
 6850 02a5 00       		.uleb128 .LVU550
 6851 02a6 00       		.uleb128 .LVU550
 6852 02a7 00       		.uleb128 .LVU558
 6853 02a8 00       		.uleb128 .LVU559
 6854 02a9 00       		.uleb128 .LVU561
 6855 02aa 00       		.uleb128 .LVU577
 6856 02ab 00       		.uleb128 .LVU579
 6857 02ac 00       		.uleb128 .LVU579
 6858 02ad 00       		.uleb128 .LVU590
 6859 02ae 00       		.uleb128 .LVU604
 6860 02af 00       		.uleb128 .LVU606
 6861 02b0 00       		.uleb128 .LVU606
 6862 02b1 00       		.uleb128 .LVU613
 6863 02b2 00       		.uleb128 .LVU650
 6864 02b3 01       		.uleb128 .LVU651
 6865 02b4 01       		.uleb128 .LVU651
 6866 02b5 00       		.uleb128 .LVU661
 6867 02b6 00       		.uleb128 .LVU663
 6868 02b7 00       		.uleb128 .LVU672
 6869 02b8 00       		.uleb128 .LVU672
 6870 02b9 00       		.uleb128 .LVU674
 6871 02ba 00       		.uleb128 .LVU674
 6872 02bb 00       		.uleb128 .LVU686
 6873 02bc 00       		.uleb128 .LVU688
 6874 02bd 00       		.uleb128 0
 6875              	.LLST10:
 6876 02be 06       		.byte	0x6
 6877 02bf 58000000 		.4byte	.LVL50
 6878 02c3 04       		.byte	0x4
 6879 02c4 00       		.uleb128 .LVL50-.LVL50
 6880 02c5 02       		.uleb128 .LVL51-.LVL50
 6881 02c6 01       		.uleb128 0x1
 6882 02c7 50       		.byte	0x50
 6883 02c8 04       		.byte	0x4
 6884 02c9 02       		.uleb128 .LVL51-.LVL50
 6885 02ca 14       		.uleb128 .LVL53-.LVL50
 6886 02cb 01       		.uleb128 0x1
 6887 02cc 55       		.byte	0x55
 6888 02cd 04       		.byte	0x4
 6889 02ce 4E       		.uleb128 .LVL58-.LVL50
 6890 02cf 50       		.uleb128 .LVL59-.LVL50
 6891 02d0 01       		.uleb128 0x1
 6892 02d1 50       		.byte	0x50
 6893 02d2 04       		.byte	0x4
 6894 02d3 50       		.uleb128 .LVL59-.LVL50
 6895 02d4 8801     		.uleb128 .LVL62-.LVL50
 6896 02d6 01       		.uleb128 0x1
 6897 02d7 56       		.byte	0x56
ARM GAS  C:\Users\DEVELO~1\AppData\Local\Temp\ccPkHjk7.s 			page 122


 6898 02d8 04       		.byte	0x4
 6899 02d9 A401     		.uleb128 .LVL64-.LVL50
 6900 02db A601     		.uleb128 .LVL65-.LVL50
 6901 02dd 01       		.uleb128 0x1
 6902 02de 50       		.byte	0x50
 6903 02df 04       		.byte	0x4
 6904 02e0 A601     		.uleb128 .LVL65-.LVL50
 6905 02e2 BA01     		.uleb128 .LVL67-.LVL50
 6906 02e4 01       		.uleb128 0x1
 6907 02e5 56       		.byte	0x56
 6908 02e6 04       		.byte	0x4
 6909 02e7 D601     		.uleb128 .LVL69-.LVL50
 6910 02e9 D801     		.uleb128 .LVL70-.LVL50
 6911 02eb 01       		.uleb128 0x1
 6912 02ec 50       		.byte	0x50
 6913 02ed 04       		.byte	0x4
 6914 02ee D801     		.uleb128 .LVL70-.LVL50
 6915 02f0 EC01     		.uleb128 .LVL72-.LVL50
 6916 02f2 01       		.uleb128 0x1
 6917 02f3 56       		.byte	0x56
 6918 02f4 04       		.byte	0x4
 6919 02f5 9802     		.uleb128 .LVL74-.LVL50
 6920 02f7 9A02     		.uleb128 .LVL75-.LVL50
 6921 02f9 01       		.uleb128 0x1
 6922 02fa 50       		.byte	0x50
 6923 02fb 04       		.byte	0x4
 6924 02fc 9A02     		.uleb128 .LVL75-.LVL50
 6925 02fe AC02     		.uleb128 .LVL77-.LVL50
 6926 0300 01       		.uleb128 0x1
 6927 0301 54       		.byte	0x54
 6928 0302 04       		.byte	0x4
 6929 0303 DC02     		.uleb128 .LVL85-.LVL50
 6930 0305 DE02     		.uleb128 .LVL86-.LVL50
 6931 0307 01       		.uleb128 0x1
 6932 0308 50       		.byte	0x50
 6933 0309 04       		.byte	0x4
 6934 030a DE02     		.uleb128 .LVL86-.LVL50
 6935 030c 9803     		.uleb128 .LVL89-.LVL50
 6936 030e 01       		.uleb128 0x1
 6937 030f 56       		.byte	0x56
 6938 0310 04       		.byte	0x4
 6939 0311 B803     		.uleb128 .LVL93-.LVL50
 6940 0313 BA03     		.uleb128 .LVL94-.LVL50
 6941 0315 01       		.uleb128 0x1
 6942 0316 50       		.byte	0x50
 6943 0317 04       		.byte	0x4
 6944 0318 BA03     		.uleb128 .LVL94-.LVL50
 6945 031a CC03     		.uleb128 .LVL96-.LVL50
 6946 031c 01       		.uleb128 0x1
 6947 031d 56       		.byte	0x56
 6948 031e 04       		.byte	0x4
 6949 031f C804     		.uleb128 .LVL108-.LVL50
 6950 0321 D404     		.uleb128 .LVL109-.LVL50
 6951 0323 01       		.uleb128 0x1
 6952 0324 50       		.byte	0x50
 6953 0325 04       		.byte	0x4
 6954 0326 D404     		.uleb128 .LVL109-.LVL50
ARM GAS  C:\Users\DEVELO~1\AppData\Local\Temp\ccPkHjk7.s 			page 123


 6955 0328 9005     		.uleb128 .LVL112-.LVL50
 6956 032a 01       		.uleb128 0x1
 6957 032b 56       		.byte	0x56
 6958 032c 04       		.byte	0x4
 6959 032d 9605     		.uleb128 .LVL113-.LVL50
 6960 032f 9805     		.uleb128 .LVL114-.LVL50
 6961 0331 01       		.uleb128 0x1
 6962 0332 50       		.byte	0x50
 6963 0333 04       		.byte	0x4
 6964 0334 9805     		.uleb128 .LVL114-.LVL50
 6965 0336 AA05     		.uleb128 .LVL116-.LVL50
 6966 0338 01       		.uleb128 0x1
 6967 0339 55       		.byte	0x55
 6968 033a 04       		.byte	0x4
 6969 033b C605     		.uleb128 .LVL119-.LVL50
 6970 033d C805     		.uleb128 .LVL120-.LVL50
 6971 033f 01       		.uleb128 0x1
 6972 0340 50       		.byte	0x50
 6973 0341 04       		.byte	0x4
 6974 0342 C805     		.uleb128 .LVL120-.LVL50
 6975 0344 DA05     		.uleb128 .LVL122-.LVL50
 6976 0346 01       		.uleb128 0x1
 6977 0347 56       		.byte	0x56
 6978 0348 04       		.byte	0x4
 6979 0349 E805     		.uleb128 .LVL124-.LVL50
 6980 034b EA05     		.uleb128 .LVL125-.LVL50
 6981 034d 01       		.uleb128 0x1
 6982 034e 50       		.byte	0x50
 6983 034f 04       		.byte	0x4
 6984 0350 EA05     		.uleb128 .LVL125-.LVL50
 6985 0352 FC05     		.uleb128 .LVL127-.LVL50
 6986 0354 01       		.uleb128 0x1
 6987 0355 56       		.byte	0x56
 6988 0356 04       		.byte	0x4
 6989 0357 8A06     		.uleb128 .LVL129-.LVL50
 6990 0359 8C06     		.uleb128 .LVL130-.LVL50
 6991 035b 01       		.uleb128 0x1
 6992 035c 50       		.byte	0x50
 6993 035d 04       		.byte	0x4
 6994 035e 8C06     		.uleb128 .LVL130-.LVL50
 6995 0360 9E06     		.uleb128 .LVL132-.LVL50
 6996 0362 01       		.uleb128 0x1
 6997 0363 56       		.byte	0x56
 6998 0364 04       		.byte	0x4
 6999 0365 AC06     		.uleb128 .LVL134-.LVL50
 7000 0367 AE06     		.uleb128 .LVL135-.LVL50
 7001 0369 01       		.uleb128 0x1
 7002 036a 50       		.byte	0x50
 7003 036b 04       		.byte	0x4
 7004 036c AE06     		.uleb128 .LVL135-.LVL50
 7005 036e C206     		.uleb128 .LVL137-.LVL50
 7006 0370 01       		.uleb128 0x1
 7007 0371 56       		.byte	0x56
 7008 0372 04       		.byte	0x4
 7009 0373 CE06     		.uleb128 .LVL139-.LVL50
 7010 0375 D006     		.uleb128 .LVL140-.LVL50
 7011 0377 01       		.uleb128 0x1
ARM GAS  C:\Users\DEVELO~1\AppData\Local\Temp\ccPkHjk7.s 			page 124


 7012 0378 50       		.byte	0x50
 7013 0379 04       		.byte	0x4
 7014 037a D006     		.uleb128 .LVL140-.LVL50
 7015 037c E406     		.uleb128 .LVL142-.LVL50
 7016 037e 01       		.uleb128 0x1
 7017 037f 56       		.byte	0x56
 7018 0380 04       		.byte	0x4
 7019 0381 EC06     		.uleb128 .LVL143-.LVL50
 7020 0383 FE06     		.uleb128 .LVL144-.LVL50
 7021 0385 01       		.uleb128 0x1
 7022 0386 56       		.byte	0x56
 7023 0387 04       		.byte	0x4
 7024 0388 9C07     		.uleb128 .LVL148-.LVL50
 7025 038a 9E07     		.uleb128 .LVL149-.LVL50
 7026 038c 01       		.uleb128 0x1
 7027 038d 50       		.byte	0x50
 7028 038e 04       		.byte	0x4
 7029 038f 9E07     		.uleb128 .LVL149-.LVL50
 7030 0391 BA07     		.uleb128 .LVL151-.LVL50
 7031 0393 01       		.uleb128 0x1
 7032 0394 56       		.byte	0x56
 7033 0395 04       		.byte	0x4
 7034 0396 CA08     		.uleb128 .LVL153-.LVL50
 7035 0398 CC08     		.uleb128 .LVL154-.LVL50
 7036 039a 01       		.uleb128 0x1
 7037 039b 50       		.byte	0x50
 7038 039c 04       		.byte	0x4
 7039 039d CC08     		.uleb128 .LVL154-.LVL50
 7040 039f E008     		.uleb128 .LVL156-.LVL50
 7041 03a1 01       		.uleb128 0x1
 7042 03a2 54       		.byte	0x54
 7043 03a3 04       		.byte	0x4
 7044 03a4 D809     		.uleb128 .LVL164-.LVL50
 7045 03a6 D809     		.uleb128 .LVL164-.LVL50
 7046 03a8 01       		.uleb128 0x1
 7047 03a9 50       		.byte	0x50
 7048 03aa 04       		.byte	0x4
 7049 03ab D809     		.uleb128 .LVL164-.LVL50
 7050 03ad FC09     		.uleb128 .LVL167-.LVL50
 7051 03af 01       		.uleb128 0x1
 7052 03b0 55       		.byte	0x55
 7053 03b1 04       		.byte	0x4
 7054 03b2 980A     		.uleb128 .LVL168-.LVL50
 7055 03b4 B40A     		.uleb128 .LVL170-.LVL50
 7056 03b6 01       		.uleb128 0x1
 7057 03b7 56       		.byte	0x56
 7058 03b8 04       		.byte	0x4
 7059 03b9 B40A     		.uleb128 .LVL170-.LVL50
 7060 03bb B60A     		.uleb128 .LVL171-.LVL50
 7061 03bd 01       		.uleb128 0x1
 7062 03be 50       		.byte	0x50
 7063 03bf 04       		.byte	0x4
 7064 03c0 B60A     		.uleb128 .LVL171-.LVL50
 7065 03c2 E80A     		.uleb128 .LVL173-.LVL50
 7066 03c4 01       		.uleb128 0x1
 7067 03c5 56       		.byte	0x56
 7068 03c6 04       		.byte	0x4
ARM GAS  C:\Users\DEVELO~1\AppData\Local\Temp\ccPkHjk7.s 			page 125


 7069 03c7 FA0A     		.uleb128 .LVL174-.LVL50
 7070 03c9 900B     		.uleb128 .LFE142-.LVL50
 7071 03cb 01       		.uleb128 0x1
 7072 03cc 56       		.byte	0x56
 7073 03cd 00       		.byte	0
 7074              	.LVUS11:
 7075 03ce 00       		.uleb128 .LVU616
 7076 03cf 00       		.uleb128 .LVU623
 7077 03d0 00       		.uleb128 .LVU642
 7078 03d1 00       		.uleb128 .LVU645
 7079              	.LLST11:
 7080 03d2 06       		.byte	0x6
 7081 03d3 BC040000 		.4byte	.LVL157
 7082 03d7 04       		.byte	0x4
 7083 03d8 00       		.uleb128 .LVL157-.LVL157
 7084 03d9 16       		.uleb128 .LVL159-.LVL157
 7085 03da 01       		.uleb128 0x1
 7086 03db 52       		.byte	0x52
 7087 03dc 04       		.byte	0x4
 7088 03dd 58       		.uleb128 .LVL161-.LVL157
 7089 03de 5E       		.uleb128 .LVL162-.LVL157
 7090 03df 09       		.uleb128 0x9
 7091 03e0 73       		.byte	0x73
 7092 03e1 00       		.sleb128 0
 7093 03e2 33       		.byte	0x33
 7094 03e3 25       		.byte	0x25
 7095 03e4 0A       		.byte	0xa
 7096 03e5 FF1F     		.2byte	0x1fff
 7097 03e7 1A       		.byte	0x1a
 7098 03e8 9F       		.byte	0x9f
 7099 03e9 00       		.byte	0
 7100              	.LVUS12:
 7101 03ea 00       		.uleb128 .LVU618
 7102 03eb 00       		.uleb128 .LVU638
 7103              	.LLST12:
 7104 03ec 08       		.byte	0x8
 7105 03ed BE040000 		.4byte	.LVL158
 7106 03f1 4C       		.uleb128 .LVL160-.LVL158
 7107 03f2 01       		.uleb128 0x1
 7108 03f3 56       		.byte	0x56
 7109 03f4 00       		.byte	0
 7110              	.LVUS14:
 7111 03f5 00       		.uleb128 .LVU244
 7112 03f6 00       		.uleb128 .LVU252
 7113 03f7 00       		.uleb128 .LVU426
 7114 03f8 00       		.uleb128 .LVU431
 7115 03f9 00       		.uleb128 .LVU449
 7116 03fa 00       		.uleb128 .LVU450
 7117 03fb 00       		.uleb128 .LVU490
 7118 03fc 00       		.uleb128 .LVU496
 7119              	.LLST14:
 7120 03fd 06       		.byte	0x6
 7121 03fe 1A000000 		.4byte	.LVL46
 7122 0402 04       		.byte	0x4
 7123 0403 00       		.uleb128 .LVL46-.LVL46
 7124 0404 24       		.uleb128 .LVL48-.LVL46
 7125 0405 01       		.uleb128 0x1
ARM GAS  C:\Users\DEVELO~1\AppData\Local\Temp\ccPkHjk7.s 			page 126


 7126 0406 52       		.byte	0x52
 7127 0407 04       		.byte	0x4
 7128 0408 8A04     		.uleb128 .LVL96-.LVL46
 7129 040a 9604     		.uleb128 .LVL98-.LVL46
 7130 040c 01       		.uleb128 0x1
 7131 040d 52       		.byte	0x52
 7132 040e 04       		.byte	0x4
 7133 040f EA04     		.uleb128 .LVL104-.LVL46
 7134 0411 EC04     		.uleb128 .LVL105-.LVL46
 7135 0413 01       		.uleb128 0x1
 7136 0414 52       		.byte	0x52
 7137 0415 04       		.byte	0x4
 7138 0416 EC05     		.uleb128 .LVL117-.LVL46
 7139 0418 8106     		.uleb128 .LVL118-1-.LVL46
 7140 041a 01       		.uleb128 0x1
 7141 041b 52       		.byte	0x52
 7142 041c 00       		.byte	0
 7143              	.LVUS15:
 7144 041d 01       		.uleb128 .LVU245
 7145 041e 00       		.uleb128 .LVU248
 7146 041f 00       		.uleb128 .LVU426
 7147 0420 00       		.uleb128 .LVU428
 7148              	.LLST15:
 7149 0421 06       		.byte	0x6
 7150 0422 1A000000 		.4byte	.LVL46
 7151 0426 04       		.byte	0x4
 7152 0427 00       		.uleb128 .LVL46-.LVL46
 7153 0428 0C       		.uleb128 .LVL47-.LVL46
 7154 0429 01       		.uleb128 0x1
 7155 042a 51       		.byte	0x51
 7156 042b 04       		.byte	0x4
 7157 042c 8A04     		.uleb128 .LVL96-.LVL46
 7158 042e 8E04     		.uleb128 .LVL97-.LVL46
 7159 0430 01       		.uleb128 0x1
 7160 0431 51       		.byte	0x51
 7161 0432 00       		.byte	0
 7162              	.LVUS20:
 7163 0433 00       		.uleb128 .LVU379
 7164 0434 00       		.uleb128 .LVU383
 7165 0435 00       		.uleb128 .LVU383
 7166 0436 00       		.uleb128 .LVU386
 7167 0437 00       		.uleb128 .LVU408
 7168 0438 00       		.uleb128 .LVU413
 7169 0439 00       		.uleb128 .LVU558
 7170 043a 00       		.uleb128 .LVU559
 7171              	.LLST20:
 7172 043b 06       		.byte	0x6
 7173 043c 8C010000 		.4byte	.LVL79
 7174 0440 04       		.byte	0x4
 7175 0441 00       		.uleb128 .LVL79-.LVL79
 7176 0442 06       		.uleb128 .LVL81-.LVL79
 7177 0443 06       		.uleb128 0x6
 7178 0444 73       		.byte	0x73
 7179 0445 00       		.sleb128 0
 7180 0446 08       		.byte	0x8
 7181 0447 38       		.byte	0x38
 7182 0448 1A       		.byte	0x1a
ARM GAS  C:\Users\DEVELO~1\AppData\Local\Temp\ccPkHjk7.s 			page 127


 7183 0449 9F       		.byte	0x9f
 7184 044a 04       		.byte	0x4
 7185 044b 06       		.uleb128 .LVL81-.LVL79
 7186 044c 0A       		.uleb128 .LVL82-.LVL79
 7187 044d 01       		.uleb128 0x1
 7188 044e 53       		.byte	0x53
 7189 044f 04       		.byte	0x4
 7190 0450 64       		.uleb128 .LVL89-.LVL79
 7191 0451 70       		.uleb128 .LVL91-.LVL79
 7192 0452 01       		.uleb128 0x1
 7193 0453 53       		.byte	0x53
 7194 0454 04       		.byte	0x4
 7195 0455 B004     		.uleb128 .LVL142-.LVL79
 7196 0457 B804     		.uleb128 .LVL143-.LVL79
 7197 0459 01       		.uleb128 0x1
 7198 045a 53       		.byte	0x53
 7199 045b 00       		.byte	0
 7200              	.LVUS21:
 7201 045c 00       		.uleb128 .LVU381
 7202 045d 00       		.uleb128 .LVU387
 7203 045e 00       		.uleb128 .LVU408
 7204 045f 00       		.uleb128 .LVU412
 7205 0460 00       		.uleb128 .LVU558
 7206 0461 00       		.uleb128 .LVU559
 7207              	.LLST21:
 7208 0462 06       		.byte	0x6
 7209 0463 8E010000 		.4byte	.LVL80
 7210 0467 04       		.byte	0x4
 7211 0468 00       		.uleb128 .LVL80-.LVL80
 7212 0469 0A       		.uleb128 .LVL83-.LVL80
 7213 046a 01       		.uleb128 0x1
 7214 046b 52       		.byte	0x52
 7215 046c 04       		.byte	0x4
 7216 046d 62       		.uleb128 .LVL89-.LVL80
 7217 046e 6C       		.uleb128 .LVL90-.LVL80
 7218 046f 01       		.uleb128 0x1
 7219 0470 52       		.byte	0x52
 7220 0471 04       		.byte	0x4
 7221 0472 AE04     		.uleb128 .LVL142-.LVL80
 7222 0474 B604     		.uleb128 .LVL143-.LVL80
 7223 0476 01       		.uleb128 0x1
 7224 0477 52       		.byte	0x52
 7225 0478 00       		.byte	0
 7226              	.LVUS17:
 7227 0479 00       		.uleb128 .LVU280
 7228 047a 00       		.uleb128 .LVU286
 7229 047b 00       		.uleb128 .LVU437
 7230 047c 00       		.uleb128 .LVU441
 7231              	.LLST17:
 7232 047d 06       		.byte	0x6
 7233 047e 82000000 		.4byte	.LVL54
 7234 0482 04       		.byte	0x4
 7235 0483 00       		.uleb128 .LVL54-.LVL54
 7236 0484 0E       		.uleb128 .LVL56-.LVL54
 7237 0485 01       		.uleb128 0x1
 7238 0486 53       		.byte	0x53
 7239 0487 04       		.byte	0x4
ARM GAS  C:\Users\DEVELO~1\AppData\Local\Temp\ccPkHjk7.s 			page 128


 7240 0488 C203     		.uleb128 .LVL100-.LVL54
 7241 048a CE03     		.uleb128 .LVL102-.LVL54
 7242 048c 01       		.uleb128 0x1
 7243 048d 53       		.byte	0x53
 7244 048e 00       		.byte	0
 7245              	.LVUS18:
 7246 048f 01       		.uleb128 .LVU281
 7247 0490 00       		.uleb128 .LVU284
 7248 0491 00       		.uleb128 .LVU437
 7249 0492 00       		.uleb128 .LVU438
 7250              	.LLST18:
 7251 0493 06       		.byte	0x6
 7252 0494 82000000 		.4byte	.LVL54
 7253 0498 04       		.byte	0x4
 7254 0499 00       		.uleb128 .LVL54-.LVL54
 7255 049a 0C       		.uleb128 .LVL55-.LVL54
 7256 049b 01       		.uleb128 0x1
 7257 049c 52       		.byte	0x52
 7258 049d 04       		.byte	0x4
 7259 049e C203     		.uleb128 .LVL100-.LVL54
 7260 04a0 C603     		.uleb128 .LVL101-.LVL54
 7261 04a2 01       		.uleb128 0x1
 7262 04a3 52       		.byte	0x52
 7263 04a4 00       		.byte	0
 7264              	.LVUS8:
 7265 04a5 00       		.uleb128 .LVU92
 7266 04a6 00       		.uleb128 .LVU95
 7267 04a7 00       		.uleb128 .LVU95
 7268 04a8 00       		.uleb128 .LVU104
 7269 04a9 00       		.uleb128 .LVU128
 7270 04aa 00       		.uleb128 .LVU130
 7271 04ab 00       		.uleb128 .LVU130
 7272 04ac 00       		.uleb128 .LVU141
 7273 04ad 00       		.uleb128 .LVU141
 7274 04ae 00       		.uleb128 .LVU146
 7275 04af 00       		.uleb128 .LVU146
 7276 04b0 00       		.uleb128 .LVU158
 7277 04b1 00       		.uleb128 .LVU158
 7278 04b2 00       		.uleb128 .LVU161
 7279 04b3 00       		.uleb128 .LVU161
 7280 04b4 00       		.uleb128 .LVU173
 7281 04b5 00       		.uleb128 .LVU173
 7282 04b6 00       		.uleb128 .LVU176
 7283 04b7 00       		.uleb128 .LVU176
 7284 04b8 00       		.uleb128 .LVU187
 7285 04b9 00       		.uleb128 .LVU188
 7286 04ba 00       		.uleb128 .LVU191
 7287 04bb 00       		.uleb128 .LVU191
 7288 04bc 00       		.uleb128 0
 7289              	.LLST8:
 7290 04bd 06       		.byte	0x6
 7291 04be 2C000000 		.4byte	.LVL19
 7292 04c2 04       		.byte	0x4
 7293 04c3 00       		.uleb128 .LVL19-.LVL19
 7294 04c4 0A       		.uleb128 .LVL20-.LVL19
 7295 04c5 01       		.uleb128 0x1
 7296 04c6 50       		.byte	0x50
ARM GAS  C:\Users\DEVELO~1\AppData\Local\Temp\ccPkHjk7.s 			page 129


 7297 04c7 04       		.byte	0x4
 7298 04c8 0A       		.uleb128 .LVL20-.LVL19
 7299 04c9 1E       		.uleb128 .LVL22-.LVL19
 7300 04ca 01       		.uleb128 0x1
 7301 04cb 55       		.byte	0x55
 7302 04cc 04       		.byte	0x4
 7303 04cd 54       		.uleb128 .LVL25-.LVL19
 7304 04ce 56       		.uleb128 .LVL26-.LVL19
 7305 04cf 01       		.uleb128 0x1
 7306 04d0 50       		.byte	0x50
 7307 04d1 04       		.byte	0x4
 7308 04d2 56       		.uleb128 .LVL26-.LVL19
 7309 04d3 72       		.uleb128 .LVL29-.LVL19
 7310 04d4 01       		.uleb128 0x1
 7311 04d5 55       		.byte	0x55
 7312 04d6 04       		.byte	0x4
 7313 04d7 72       		.uleb128 .LVL29-.LVL19
 7314 04d8 7A       		.uleb128 .LVL30-.LVL19
 7315 04d9 01       		.uleb128 0x1
 7316 04da 50       		.byte	0x50
 7317 04db 04       		.byte	0x4
 7318 04dc 7A       		.uleb128 .LVL30-.LVL19
 7319 04dd 9401     		.uleb128 .LVL33-.LVL19
 7320 04df 01       		.uleb128 0x1
 7321 04e0 55       		.byte	0x55
 7322 04e1 04       		.byte	0x4
 7323 04e2 9401     		.uleb128 .LVL33-.LVL19
 7324 04e4 9C01     		.uleb128 .LVL34-.LVL19
 7325 04e6 01       		.uleb128 0x1
 7326 04e7 50       		.byte	0x50
 7327 04e8 04       		.byte	0x4
 7328 04e9 9C01     		.uleb128 .LVL34-.LVL19
 7329 04eb B601     		.uleb128 .LVL37-.LVL19
 7330 04ed 01       		.uleb128 0x1
 7331 04ee 55       		.byte	0x55
 7332 04ef 04       		.byte	0x4
 7333 04f0 B601     		.uleb128 .LVL37-.LVL19
 7334 04f2 BE01     		.uleb128 .LVL38-.LVL19
 7335 04f4 01       		.uleb128 0x1
 7336 04f5 50       		.byte	0x50
 7337 04f6 04       		.byte	0x4
 7338 04f7 BE01     		.uleb128 .LVL38-.LVL19
 7339 04f9 D601     		.uleb128 .LVL41-.LVL19
 7340 04fb 01       		.uleb128 0x1
 7341 04fc 55       		.byte	0x55
 7342 04fd 04       		.byte	0x4
 7343 04fe D801     		.uleb128 .LVL42-.LVL19
 7344 0500 E001     		.uleb128 .LVL43-.LVL19
 7345 0502 01       		.uleb128 0x1
 7346 0503 50       		.byte	0x50
 7347 0504 04       		.byte	0x4
 7348 0505 E001     		.uleb128 .LVL43-.LVL19
 7349 0507 F402     		.uleb128 .LFE141-.LVL19
 7350 0509 01       		.uleb128 0x1
 7351 050a 56       		.byte	0x56
 7352 050b 00       		.byte	0
 7353              	.LVUS0:
ARM GAS  C:\Users\DEVELO~1\AppData\Local\Temp\ccPkHjk7.s 			page 130


 7354 050c 00       		.uleb128 .LVU37
 7355 050d 00       		.uleb128 .LVU39
 7356              	.LLST0:
 7357 050e 08       		.byte	0x8
 7358 050f 6E000000 		.4byte	.LVL7
 7359 0513 04       		.uleb128 .LVL8-.LVL7
 7360 0514 0A       		.uleb128 0xa
 7361 0515 73       		.byte	0x73
 7362 0516 00       		.sleb128 0
 7363 0517 39       		.byte	0x39
 7364 0518 25       		.byte	0x25
 7365 0519 08       		.byte	0x8
 7366 051a 7F       		.byte	0x7f
 7367 051b 1A       		.byte	0x1a
 7368 051c 23       		.byte	0x23
 7369 051d 01       		.uleb128 0x1
 7370 051e 9F       		.byte	0x9f
 7371 051f 00       		.byte	0
 7372              	.LVUS1:
 7373 0520 00       		.uleb128 .LVU5
 7374 0521 00       		.uleb128 .LVU18
 7375 0522 00       		.uleb128 .LVU18
 7376 0523 00       		.uleb128 .LVU25
 7377 0524 00       		.uleb128 .LVU46
 7378 0525 00       		.uleb128 .LVU48
 7379 0526 00       		.uleb128 .LVU70
 7380 0527 00       		.uleb128 .LVU74
 7381              	.LLST1:
 7382 0528 06       		.byte	0x6
 7383 0529 06000000 		.4byte	.LVL0
 7384 052d 04       		.byte	0x4
 7385 052e 00       		.uleb128 .LVL0-.LVL0
 7386 052f 1C       		.uleb128 .LVL4-.LVL0
 7387 0530 05       		.uleb128 0x5
 7388 0531 72       		.byte	0x72
 7389 0532 00       		.sleb128 0
 7390 0533 33       		.byte	0x33
 7391 0534 1A       		.byte	0x1a
 7392 0535 9F       		.byte	0x9f
 7393 0536 04       		.byte	0x4
 7394 0537 1C       		.uleb128 .LVL4-.LVL0
 7395 0538 3E       		.uleb128 .LVL5-.LVL0
 7396 0539 01       		.uleb128 0x1
 7397 053a 52       		.byte	0x52
 7398 053b 04       		.byte	0x4
 7399 053c 8601     		.uleb128 .LVL11-.LVL0
 7400 053e 8801     		.uleb128 .LVL12-.LVL0
 7401 0540 01       		.uleb128 0x1
 7402 0541 52       		.byte	0x52
 7403 0542 04       		.byte	0x4
 7404 0543 CE01     		.uleb128 .LVL16-.LVL0
 7405 0545 DC01     		.uleb128 .LVL17-.LVL0
 7406 0547 01       		.uleb128 0x1
 7407 0548 52       		.byte	0x52
 7408 0549 00       		.byte	0
 7409              	.LVUS2:
 7410 054a 00       		.uleb128 .LVU11
ARM GAS  C:\Users\DEVELO~1\AppData\Local\Temp\ccPkHjk7.s 			page 131


 7411 054b 00       		.uleb128 .LVU43
 7412 054c 00       		.uleb128 .LVU43
 7413 054d 00       		.uleb128 .LVU45
 7414 054e 00       		.uleb128 .LVU46
 7415 054f 00       		.uleb128 0
 7416              	.LLST2:
 7417 0550 06       		.byte	0x6
 7418 0551 14000000 		.4byte	.LVL1
 7419 0555 04       		.byte	0x4
 7420 0556 00       		.uleb128 .LVL1-.LVL1
 7421 0557 74       		.uleb128 .LVL9-.LVL1
 7422 0558 01       		.uleb128 0x1
 7423 0559 50       		.byte	0x50
 7424 055a 04       		.byte	0x4
 7425 055b 74       		.uleb128 .LVL9-.LVL1
 7426 055c 76       		.uleb128 .LVL10-.LVL1
 7427 055d 09       		.uleb128 0x9
 7428 055e 74       		.byte	0x74
 7429 055f 00       		.sleb128 0
 7430 0560 09       		.byte	0x9
 7431 0561 FA       		.byte	0xfa
 7432 0562 24       		.byte	0x24
 7433 0563 09       		.byte	0x9
 7434 0564 FE       		.byte	0xfe
 7435 0565 25       		.byte	0x25
 7436 0566 9F       		.byte	0x9f
 7437 0567 04       		.byte	0x4
 7438 0568 78       		.uleb128 .LVL11-.LVL1
 7439 0569 F401     		.uleb128 .LFE155-.LVL1
 7440 056b 01       		.uleb128 0x1
 7441 056c 50       		.byte	0x50
 7442 056d 00       		.byte	0
 7443              	.LVUS3:
 7444 056e 01       		.uleb128 .LVU12
 7445 056f 00       		.uleb128 .LVU17
 7446 0570 00       		.uleb128 .LVU17
 7447 0571 01       		.uleb128 .LVU44
 7448 0572 00       		.uleb128 .LVU46
 7449 0573 00       		.uleb128 0
 7450              	.LLST3:
 7451 0574 06       		.byte	0x6
 7452 0575 14000000 		.4byte	.LVL1
 7453 0579 04       		.byte	0x4
 7454 057a 00       		.uleb128 .LVL1-.LVL1
 7455 057b 0A       		.uleb128 .LVL3-.LVL1
 7456 057c 05       		.uleb128 0x5
 7457 057d 75       		.byte	0x75
 7458 057e 00       		.sleb128 0
 7459 057f 31       		.byte	0x31
 7460 0580 1A       		.byte	0x1a
 7461 0581 9F       		.byte	0x9f
 7462 0582 04       		.byte	0x4
 7463 0583 0A       		.uleb128 .LVL3-.LVL1
 7464 0584 74       		.uleb128 .LVL9-.LVL1
 7465 0585 01       		.uleb128 0x1
 7466 0586 55       		.byte	0x55
 7467 0587 04       		.byte	0x4
ARM GAS  C:\Users\DEVELO~1\AppData\Local\Temp\ccPkHjk7.s 			page 132


 7468 0588 78       		.uleb128 .LVL11-.LVL1
 7469 0589 F401     		.uleb128 .LFE155-.LVL1
 7470 058b 01       		.uleb128 0x1
 7471 058c 55       		.byte	0x55
 7472 058d 00       		.byte	0
 7473              	.LVUS4:
 7474 058e 00       		.uleb128 .LVU51
 7475 058f 00       		.uleb128 .LVU57
 7476              	.LLST4:
 7477 0590 08       		.byte	0x8
 7478 0591 94000000 		.4byte	.LVL13
 7479 0595 10       		.uleb128 .LVL14-.LVL13
 7480 0596 0D       		.uleb128 0xd
 7481 0597 0C       		.byte	0xc
 7482 0598 0090D003 		.4byte	0x3d09000
 7483 059c 71       		.byte	0x71
 7484 059d 00       		.sleb128 0
 7485 059e 33       		.byte	0x33
 7486 059f 25       		.byte	0x25
 7487 05a0 33       		.byte	0x33
 7488 05a1 1A       		.byte	0x1a
 7489 05a2 25       		.byte	0x25
 7490 05a3 9F       		.byte	0x9f
 7491 05a4 00       		.byte	0
 7492              	.LVUS5:
 7493 05a5 02       		.uleb128 .LVU13
 7494 05a6 00       		.uleb128 .LVU16
 7495              	.LLST5:
 7496 05a7 08       		.byte	0x8
 7497 05a8 14000000 		.4byte	.LVL1
 7498 05ac 06       		.uleb128 .LVL2-.LVL1
 7499 05ad 12       		.uleb128 0x12
 7500 05ae 75       		.byte	0x75
 7501 05af 00       		.sleb128 0
 7502 05b0 31       		.byte	0x31
 7503 05b1 1A       		.byte	0x1a
 7504 05b2 71       		.byte	0x71
 7505 05b3 00       		.sleb128 0
 7506 05b4 33       		.byte	0x33
 7507 05b5 25       		.byte	0x25
 7508 05b6 0A       		.byte	0xa
 7509 05b7 FF1F     		.2byte	0x1fff
 7510 05b9 1A       		.byte	0x1a
 7511 05ba 1E       		.byte	0x1e
 7512 05bb A8       		.byte	0xa8
 7513 05bc 26       		.uleb128 0x26
 7514 05bd A8       		.byte	0xa8
 7515 05be 2D       		.uleb128 0x2d
 7516 05bf 9F       		.byte	0x9f
 7517 05c0 00       		.byte	0
 7518              	.LVUS6:
 7519 05c1 00       		.uleb128 .LVU34
 7520 05c2 01       		.uleb128 .LVU44
 7521 05c3 00       		.uleb128 .LVU69
 7522 05c4 00       		.uleb128 .LVU70
 7523              	.LLST6:
 7524 05c5 06       		.byte	0x6
ARM GAS  C:\Users\DEVELO~1\AppData\Local\Temp\ccPkHjk7.s 			page 133


 7525 05c6 6A000000 		.4byte	.LVL6
 7526 05ca 04       		.byte	0x4
 7527 05cb 00       		.uleb128 .LVL6-.LVL6
 7528 05cc 1E       		.uleb128 .LVL9-.LVL6
 7529 05cd 02       		.uleb128 0x2
 7530 05ce 90       		.byte	0x90
 7531 05cf 4D       		.uleb128 0x4d
 7532 05d0 04       		.byte	0x4
 7533 05d1 68       		.uleb128 .LVL15-.LVL6
 7534 05d2 6A       		.uleb128 .LVL16-.LVL6
 7535 05d3 02       		.uleb128 0x2
 7536 05d4 90       		.byte	0x90
 7537 05d5 4D       		.uleb128 0x4d
 7538 05d6 00       		.byte	0
 7539              	.LVUS7:
 7540 05d7 00       		.uleb128 .LVU43
 7541 05d8 01       		.uleb128 .LVU44
 7542              	.LLST7:
 7543 05d9 08       		.byte	0x8
 7544 05da 88000000 		.4byte	.LVL9
 7545 05de 00       		.uleb128 .LVL9-.LVL9
 7546 05df 01       		.uleb128 0x1
 7547 05e0 50       		.byte	0x50
 7548 05e1 00       		.byte	0
 7549              	.LVUS27:
 7550 05e2 00       		.uleb128 .LVU783
 7551 05e3 00       		.uleb128 .LVU784
 7552 05e4 00       		.uleb128 .LVU786
 7553 05e5 00       		.uleb128 0
 7554              	.LLST27:
 7555 05e6 06       		.byte	0x6
 7556 05e7 2A000000 		.4byte	.LVL186
 7557 05eb 04       		.byte	0x4
 7558 05ec 00       		.uleb128 .LVL186-.LVL186
 7559 05ed 02       		.uleb128 .LVL187-.LVL186
 7560 05ee 01       		.uleb128 0x1
 7561 05ef 50       		.byte	0x50
 7562 05f0 04       		.byte	0x4
 7563 05f1 08       		.uleb128 .LVL189-.LVL186
 7564 05f2 1A       		.uleb128 .LFE147-.LVL186
 7565 05f3 06       		.uleb128 0x6
 7566 05f4 0C       		.byte	0xc
 7567 05f5 0090D003 		.4byte	0x3d09000
 7568 05f9 9F       		.byte	0x9f
 7569 05fa 00       		.byte	0
 7570              	.Ldebug_loc3:
 7571              		.section	.debug_aranges,"",%progbits
 7572 0000 8C000000 		.4byte	0x8c
 7573 0004 0200     		.2byte	0x2
 7574 0006 00000000 		.4byte	.Ldebug_info0
 7575 000a 04       		.byte	0x4
 7576 000b 00       		.byte	0
 7577 000c 0000     		.2byte	0
 7578 000e 0000     		.2byte	0
 7579 0010 00000000 		.4byte	.LFB155
 7580 0014 08010000 		.4byte	.LFE155-.LFB155
 7581 0018 00000000 		.4byte	.LFB141
ARM GAS  C:\Users\DEVELO~1\AppData\Local\Temp\ccPkHjk7.s 			page 134


 7582 001c A0010000 		.4byte	.LFE141-.LFB141
 7583 0020 00000000 		.4byte	.LFB142
 7584 0024 E8050000 		.4byte	.LFE142-.LFB142
 7585 0028 00000000 		.4byte	.LFB144
 7586 002c A4000000 		.4byte	.LFE144-.LFB144
 7587 0030 00000000 		.4byte	.LFB145
 7588 0034 10000000 		.4byte	.LFE145-.LFB145
 7589 0038 00000000 		.4byte	.LFB146
 7590 003c 10000000 		.4byte	.LFE146-.LFB146
 7591 0040 00000000 		.4byte	.LFB147
 7592 0044 44000000 		.4byte	.LFE147-.LFB147
 7593 0048 00000000 		.4byte	.LFB143
 7594 004c 50020000 		.4byte	.LFE143-.LFB143
 7595 0050 00000000 		.4byte	.LFB148
 7596 0054 80000000 		.4byte	.LFE148-.LFB148
 7597 0058 00000000 		.4byte	.LFB149
 7598 005c 24000000 		.4byte	.LFE149-.LFB149
 7599 0060 00000000 		.4byte	.LFB150
 7600 0064 24000000 		.4byte	.LFE150-.LFB150
 7601 0068 00000000 		.4byte	.LFB151
 7602 006c F0000000 		.4byte	.LFE151-.LFB151
 7603 0070 00000000 		.4byte	.LFB152
 7604 0074 58000000 		.4byte	.LFE152-.LFB152
 7605 0078 00000000 		.4byte	.LFB154
 7606 007c 02000000 		.4byte	.LFE154-.LFB154
 7607 0080 00000000 		.4byte	.LFB153
 7608 0084 1C000000 		.4byte	.LFE153-.LFB153
 7609 0088 00000000 		.4byte	0
 7610 008c 00000000 		.4byte	0
 7611              		.section	.debug_rnglists,"",%progbits
 7612              	.Ldebug_ranges0:
 7613 0000 07010000 		.4byte	.Ldebug_ranges3-.Ldebug_ranges2
 7614              	.Ldebug_ranges2:
 7615 0004 0500     		.2byte	0x5
 7616 0006 04       		.byte	0x4
 7617 0007 00       		.byte	0
 7618 0008 00000000 		.4byte	0
 7619              	.LLRL13:
 7620 000c 05       		.byte	0x5
 7621 000d 10000000 		.4byte	.LBB2
 7622 0011 04       		.byte	0x4
 7623 0012 00       		.uleb128 .LBB2-.LBB2
 7624 0013 5C       		.uleb128 .LBE2-.LBB2
 7625 0014 04       		.byte	0x4
 7626 0015 9404     		.uleb128 .LBB6-.LBB2
 7627 0017 B004     		.uleb128 .LBE6-.LBB2
 7628 0019 04       		.byte	0x4
 7629 001a F404     		.uleb128 .LBB8-.LBB2
 7630 001c 8005     		.uleb128 .LBE8-.LBB2
 7631 001e 04       		.byte	0x4
 7632 001f F205     		.uleb128 .LBB9-.LBB2
 7633 0021 F405     		.uleb128 .LBE9-.LBB2
 7634 0023 04       		.byte	0x4
 7635 0024 F605     		.uleb128 .LBB10-.LBB2
 7636 0026 A206     		.uleb128 .LBE10-.LBB2
 7637 0028 04       		.byte	0x4
 7638 0029 C40A     		.uleb128 .LBB15-.LBB2
ARM GAS  C:\Users\DEVELO~1\AppData\Local\Temp\ccPkHjk7.s 			page 135


 7639 002b E00A     		.uleb128 .LBE15-.LBB2
 7640 002d 00       		.byte	0
 7641              	.LLRL16:
 7642 002e 05       		.byte	0x5
 7643 002f 78000000 		.4byte	.LBB3
 7644 0033 04       		.byte	0x4
 7645 0034 00       		.uleb128 .LBB3-.LBB3
 7646 0035 66       		.uleb128 .LBE3-.LBB3
 7647 0036 04       		.byte	0x4
 7648 0037 CC03     		.uleb128 .LBB7-.LBB3
 7649 0039 8804     		.uleb128 .LBE7-.LBB3
 7650 003b 04       		.byte	0x4
 7651 003c FE05     		.uleb128 .LBB11-.LBB3
 7652 003e 9E06     		.uleb128 .LBE11-.LBB3
 7653 0040 04       		.byte	0x4
 7654 0041 E206     		.uleb128 .LBB14-.LBB3
 7655 0043 F206     		.uleb128 .LBE14-.LBB3
 7656 0045 04       		.byte	0x4
 7657 0046 AA0A     		.uleb128 .LBB16-.LBB3
 7658 0048 B80A     		.uleb128 .LBE16-.LBB3
 7659 004a 04       		.byte	0x4
 7660 004b C80A     		.uleb128 .LBB17-.LBB3
 7661 004d D60A     		.uleb128 .LBE17-.LBB3
 7662 004f 04       		.byte	0x4
 7663 0050 D80A     		.uleb128 .LBB18-.LBB3
 7664 0052 DA0A     		.uleb128 .LBE18-.LBB3
 7665 0054 00       		.byte	0
 7666              	.LLRL19:
 7667 0055 05       		.byte	0x5
 7668 0056 88010000 		.4byte	.LBB4
 7669 005a 04       		.byte	0x4
 7670 005b 00       		.uleb128 .LBB4-.LBB4
 7671 005c 64       		.uleb128 .LBE4-.LBB4
 7672 005d 04       		.byte	0x4
 7673 005e 68       		.uleb128 .LBB5-.LBB4
 7674 005f 9C01     		.uleb128 .LBE5-.LBB4
 7675 0061 04       		.byte	0x4
 7676 0062 9204     		.uleb128 .LBB12-.LBB4
 7677 0064 B004     		.uleb128 .LBE12-.LBB4
 7678 0066 04       		.byte	0x4
 7679 0067 B404     		.uleb128 .LBB13-.LBB4
 7680 0069 CA04     		.uleb128 .LBE13-.LBB4
 7681 006b 00       		.byte	0
 7682              	.LLRL25:
 7683 006c 05       		.byte	0x5
 7684 006d 08000000 		.4byte	.LBB19
 7685 0071 04       		.byte	0x4
 7686 0072 00       		.uleb128 .LBB19-.LBB19
 7687 0073 02       		.uleb128 .LBE19-.LBB19
 7688 0074 04       		.byte	0x4
 7689 0075 04       		.uleb128 .LBB20-.LBB19
 7690 0076 08       		.uleb128 .LBE20-.LBB19
 7691 0077 04       		.byte	0x4
 7692 0078 0A       		.uleb128 .LBB21-.LBB19
 7693 0079 16       		.uleb128 .LBE21-.LBB19
 7694 007a 04       		.byte	0x4
 7695 007b 18       		.uleb128 .LBB22-.LBB19
ARM GAS  C:\Users\DEVELO~1\AppData\Local\Temp\ccPkHjk7.s 			page 136


 7696 007c 1C       		.uleb128 .LBE22-.LBB19
 7697 007d 04       		.byte	0x4
 7698 007e 20       		.uleb128 .LBB23-.LBB19
 7699 007f 22       		.uleb128 .LBE23-.LBB19
 7700 0080 04       		.byte	0x4
 7701 0081 26       		.uleb128 .LBB24-.LBB19
 7702 0082 28       		.uleb128 .LBE24-.LBB19
 7703 0083 00       		.byte	0
 7704              	.LLRL26:
 7705 0084 05       		.byte	0x5
 7706 0085 4E000000 		.4byte	.LBB25
 7707 0089 04       		.byte	0x4
 7708 008a 00       		.uleb128 .LBB25-.LBB25
 7709 008b 04       		.uleb128 .LBE25-.LBB25
 7710 008c 04       		.byte	0x4
 7711 008d 0C       		.uleb128 .LBB26-.LBB25
 7712 008e 18       		.uleb128 .LBE26-.LBB25
 7713 008f 04       		.byte	0x4
 7714 0090 1A       		.uleb128 .LBB27-.LBB25
 7715 0091 1E       		.uleb128 .LBE27-.LBB25
 7716 0092 04       		.byte	0x4
 7717 0093 24       		.uleb128 .LBB28-.LBB25
 7718 0094 26       		.uleb128 .LBE28-.LBB25
 7719 0095 04       		.byte	0x4
 7720 0096 28       		.uleb128 .LBB29-.LBB25
 7721 0097 2A       		.uleb128 .LBE29-.LBB25
 7722 0098 00       		.byte	0
 7723              	.LLRL33:
 7724 0099 05       		.byte	0x5
 7725 009a 00000000 		.4byte	.LBB32
 7726 009e 04       		.byte	0x4
 7727 009f 00       		.uleb128 .LBB32-.LBB32
 7728 00a0 02       		.uleb128 .LBE32-.LBB32
 7729 00a1 04       		.byte	0x4
 7730 00a2 04       		.uleb128 .LBB36-.LBB32
 7731 00a3 16       		.uleb128 .LBE36-.LBB32
 7732 00a4 04       		.byte	0x4
 7733 00a5 44       		.uleb128 .LBB37-.LBB32
 7734 00a6 8001     		.uleb128 .LBE37-.LBB32
 7735 00a8 00       		.byte	0
 7736              	.LLRL36:
 7737 00a9 07       		.byte	0x7
 7738 00aa 00000000 		.4byte	.LFB155
 7739 00ae 8802     		.uleb128 .LFE155-.LFB155
 7740 00b0 07       		.byte	0x7
 7741 00b1 00000000 		.4byte	.LFB141
 7742 00b5 A003     		.uleb128 .LFE141-.LFB141
 7743 00b7 07       		.byte	0x7
 7744 00b8 00000000 		.4byte	.LFB142
 7745 00bc E80B     		.uleb128 .LFE142-.LFB142
 7746 00be 07       		.byte	0x7
 7747 00bf 00000000 		.4byte	.LFB144
 7748 00c3 A401     		.uleb128 .LFE144-.LFB144
 7749 00c5 07       		.byte	0x7
 7750 00c6 00000000 		.4byte	.LFB145
 7751 00ca 10       		.uleb128 .LFE145-.LFB145
 7752 00cb 07       		.byte	0x7
ARM GAS  C:\Users\DEVELO~1\AppData\Local\Temp\ccPkHjk7.s 			page 137


 7753 00cc 00000000 		.4byte	.LFB146
 7754 00d0 10       		.uleb128 .LFE146-.LFB146
 7755 00d1 07       		.byte	0x7
 7756 00d2 00000000 		.4byte	.LFB147
 7757 00d6 44       		.uleb128 .LFE147-.LFB147
 7758 00d7 07       		.byte	0x7
 7759 00d8 00000000 		.4byte	.LFB143
 7760 00dc D004     		.uleb128 .LFE143-.LFB143
 7761 00de 07       		.byte	0x7
 7762 00df 00000000 		.4byte	.LFB148
 7763 00e3 8001     		.uleb128 .LFE148-.LFB148
 7764 00e5 07       		.byte	0x7
 7765 00e6 00000000 		.4byte	.LFB149
 7766 00ea 24       		.uleb128 .LFE149-.LFB149
 7767 00eb 07       		.byte	0x7
 7768 00ec 00000000 		.4byte	.LFB150
 7769 00f0 24       		.uleb128 .LFE150-.LFB150
 7770 00f1 07       		.byte	0x7
 7771 00f2 00000000 		.4byte	.LFB151
 7772 00f6 F001     		.uleb128 .LFE151-.LFB151
 7773 00f8 07       		.byte	0x7
 7774 00f9 00000000 		.4byte	.LFB152
 7775 00fd 58       		.uleb128 .LFE152-.LFB152
 7776 00fe 07       		.byte	0x7
 7777 00ff 00000000 		.4byte	.LFB154
 7778 0103 02       		.uleb128 .LFE154-.LFB154
 7779 0104 07       		.byte	0x7
 7780 0105 00000000 		.4byte	.LFB153
 7781 0109 1C       		.uleb128 .LFE153-.LFB153
 7782 010a 00       		.byte	0
 7783              	.Ldebug_ranges3:
 7784              		.section	.debug_line,"",%progbits
 7785              	.Ldebug_line0:
 7786 0000 56140000 		.section	.debug_str,"MS",%progbits,1
 7786      03003E02 
 7786      00000201 
 7786      FB0E0D00 
 7786      01010101 
 7787              	.LASF183:
 7788 0000 48414C5F 		.ascii	"HAL_RCC_GetPCLK1Freq\000"
 7788      5243435F 
 7788      47657450 
 7788      434C4B31 
 7788      46726571 
 7789              	.LASF81:
 7790 0015 504C4C31 		.ascii	"PLL1DIVR\000"
 7790      44495652 
 7790      00
 7791              	.LASF218:
 7792 001e 433A5C43 		.ascii	"C:\\ChibiStudio\\ChibiOS-master\\demos\\STM32\\CUST"
 7792      68696269 
 7792      53747564 
 7792      696F5C43 
 7792      68696269 
 7793 004c 4F4D5F48 		.ascii	"OM_H743IIT6_maj\000"
 7793      37343349 
 7793      4954365F 
ARM GAS  C:\Users\DEVELO~1\AppData\Local\Temp\ccPkHjk7.s 			page 138


 7793      6D616A00 
 7794              	.LASF63:
 7795 005c 4C434B52 		.ascii	"LCKR\000"
 7795      00
 7796              	.LASF69:
 7797 0061 574B5550 		.ascii	"WKUPFR\000"
 7797      465200
 7798              	.LASF50:
 7799 0068 5750534E 		.ascii	"WPSN_PRG2\000"
 7799      5F505247 
 7799      3200
 7800              	.LASF100:
 7801 0072 41484234 		.ascii	"AHB4RSTR\000"
 7801      52535452 
 7801      00
 7802              	.LASF165:
 7803 007b 41504231 		.ascii	"APB1CLKDivider\000"
 7803      434C4B44 
 7803      69766964 
 7803      657200
 7804              	.LASF59:
 7805 008a 4F545950 		.ascii	"OTYPER\000"
 7805      455200
 7806              	.LASF4:
 7807 0091 5F5F7569 		.ascii	"__uint8_t\000"
 7807      6E74385F 
 7807      7400
 7808              	.LASF136:
 7809 009b 48414C5F 		.ascii	"HAL_BUSY\000"
 7809      42555359 
 7809      00
 7810              	.LASF24:
 7811 00a4 4F505453 		.ascii	"OPTSR_PRG\000"
 7811      525F5052 
 7811      4700
 7812              	.LASF207:
 7813 00ae 464C6174 		.ascii	"FLatency\000"
 7813      656E6379 
 7813      00
 7814              	.LASF216:
 7815 00b7 474E5520 		.ascii	"GNU C17 11.3.1 20220712 -mcpu=cortex-m7 -mthumb -mf"
 7815      43313720 
 7815      31312E33 
 7815      2E312032 
 7815      30323230 
 7816 00ea 6C6F6174 		.ascii	"loat-abi=hard -mfpu=fpv5-d16 -march=armv7e-m+fp.dp "
 7816      2D616269 
 7816      3D686172 
 7816      64202D6D 
 7816      6670753D 
 7817 011d 2D676764 		.ascii	"-ggdb -O2 -ffunction-sections -fdata-sections -fno-"
 7817      62202D4F 
 7817      32202D66 
 7817      66756E63 
 7817      74696F6E 
 7818 0150 636F6D6D 		.ascii	"common\000"
 7818      6F6E00
ARM GAS  C:\Users\DEVELO~1\AppData\Local\Temp\ccPkHjk7.s 			page 139


 7819              	.LASF125:
 7820 0157 41504231 		.ascii	"APB1HLPENR\000"
 7820      484C5045 
 7820      4E5200
 7821              	.LASF141:
 7822 0162 504C4C4D 		.ascii	"PLLM\000"
 7822      00
 7823              	.LASF142:
 7824 0167 504C4C4E 		.ascii	"PLLN\000"
 7824      00
 7825              	.LASF22:
 7826 016c 4F505443 		.ascii	"OPTCR\000"
 7826      5200
 7827              	.LASF143:
 7828 0172 504C4C50 		.ascii	"PLLP\000"
 7828      00
 7829              	.LASF144:
 7830 0177 504C4C51 		.ascii	"PLLQ\000"
 7830      00
 7831              	.LASF145:
 7832 017c 504C4C52 		.ascii	"PLLR\000"
 7832      00
 7833              	.LASF58:
 7834 0181 4D4F4445 		.ascii	"MODER\000"
 7834      5200
 7835              	.LASF27:
 7836 0187 50524152 		.ascii	"PRAR_PRG1\000"
 7836      5F505247 
 7836      3100
 7837              	.LASF46:
 7838 0191 50524152 		.ascii	"PRAR_PRG2\000"
 7838      5F505247 
 7838      3200
 7839              	.LASF61:
 7840 019b 50555044 		.ascii	"PUPDR\000"
 7840      5200
 7841              	.LASF37:
 7842 01a1 43524345 		.ascii	"CRCEADD1\000"
 7842      41444431 
 7842      00
 7843              	.LASF107:
 7844 01aa 4433414D 		.ascii	"D3AMR\000"
 7844      5200
 7845              	.LASF153:
 7846 01b0 48534953 		.ascii	"HSIState\000"
 7846      74617465 
 7846      00
 7847              	.LASF17:
 7848 01b9 53797374 		.ascii	"SystemD2Clock\000"
 7848      656D4432 
 7848      436C6F63 
 7848      6B00
 7849              	.LASF214:
 7850 01c7 74656D70 		.ascii	"temp_pllckselr\000"
 7850      5F706C6C 
 7850      636B7365 
 7850      6C7200
ARM GAS  C:\Users\DEVELO~1\AppData\Local\Temp\ccPkHjk7.s 			page 140


 7851              	.LASF91:
 7852 01d6 43494552 		.ascii	"CIER\000"
 7852      00
 7853              	.LASF172:
 7854 01db 416C7465 		.ascii	"Alternate\000"
 7854      726E6174 
 7854      6500
 7855              	.LASF159:
 7856 01e5 5243435F 		.ascii	"RCC_OscInitTypeDef\000"
 7856      4F736349 
 7856      6E697454 
 7856      79706544 
 7856      656600
 7857              	.LASF32:
 7858 01f8 424F4F54 		.ascii	"BOOT_CUR\000"
 7858      5F435552 
 7858      00
 7859              	.LASF68:
 7860 0201 574B5550 		.ascii	"WKUPCR\000"
 7860      435200
 7861              	.LASF98:
 7862 0208 41484231 		.ascii	"AHB1RSTR\000"
 7862      52535452 
 7862      00
 7863              	.LASF57:
 7864 0211 464C4153 		.ascii	"FLASH_TypeDef\000"
 7864      485F5479 
 7864      70654465 
 7864      6600
 7865              	.LASF212:
 7866 021f 74656D70 		.ascii	"temp2_pllckcfg\000"
 7866      325F706C 
 7866      6C636B63 
 7866      666700
 7867              	.LASF11:
 7868 022e 6C6F6E67 		.ascii	"long long unsigned int\000"
 7868      206C6F6E 
 7868      6720756E 
 7868      7369676E 
 7868      65642069 
 7869              	.LASF204:
 7870 0245 4750494F 		.ascii	"GPIO_InitStruct\000"
 7870      5F496E69 
 7870      74537472 
 7870      75637400 
 7871              	.LASF25:
 7872 0255 4F505443 		.ascii	"OPTCCR\000"
 7872      435200
 7873              	.LASF108:
 7874 025c 52455345 		.ascii	"RESERVED11\000"
 7874      52564544 
 7874      313100
 7875              	.LASF118:
 7876 0267 52455345 		.ascii	"RESERVED12\000"
 7876      52564544 
 7876      313200
 7877              	.LASF128:
ARM GAS  C:\Users\DEVELO~1\AppData\Local\Temp\ccPkHjk7.s 			page 141


 7878 0272 52455345 		.ascii	"RESERVED13\000"
 7878      52564544 
 7878      313300
 7879              	.LASF205:
 7880 027d 746D7072 		.ascii	"tmpreg\000"
 7880      656700
 7881              	.LASF55:
 7882 0284 43524344 		.ascii	"CRCDATA2\000"
 7882      41544132 
 7882      00
 7883              	.LASF82:
 7884 028d 504C4C31 		.ascii	"PLL1FRACR\000"
 7884      46524143 
 7884      5200
 7885              	.LASF208:
 7886 0297 68616C73 		.ascii	"halstatus\000"
 7886      74617475 
 7886      7300
 7887              	.LASF104:
 7888 02a1 41504232 		.ascii	"APB2RSTR\000"
 7888      52535452 
 7888      00
 7889              	.LASF127:
 7890 02aa 41504234 		.ascii	"APB4LPENR\000"
 7890      4C50454E 
 7890      5200
 7891              	.LASF155:
 7892 02b4 4C534953 		.ascii	"LSIState\000"
 7892      74617465 
 7892      00
 7893              	.LASF38:
 7894 02bd 43524344 		.ascii	"CRCDATA\000"
 7894      41544100 
 7895              	.LASF10:
 7896 02c5 6C6F6E67 		.ascii	"long long int\000"
 7896      206C6F6E 
 7896      6720696E 
 7896      7400
 7897              	.LASF20:
 7898 02d3 4F50544B 		.ascii	"OPTKEYR\000"
 7898      45595200 
 7899              	.LASF14:
 7900 02db 75696E74 		.ascii	"uint16_t\000"
 7900      31365F74 
 7900      00
 7901              	.LASF28:
 7902 02e4 53434152 		.ascii	"SCAR_CUR1\000"
 7902      5F435552 
 7902      3100
 7903              	.LASF47:
 7904 02ee 53434152 		.ascii	"SCAR_CUR2\000"
 7904      5F435552 
 7904      3200
 7905              	.LASF154:
 7906 02f8 48534943 		.ascii	"HSICalibrationValue\000"
 7906      616C6962 
 7906      72617469 
ARM GAS  C:\Users\DEVELO~1\AppData\Local\Temp\ccPkHjk7.s 			page 142


 7906      6F6E5661 
 7906      6C756500 
 7907              	.LASF78:
 7908 030c 44334346 		.ascii	"D3CFGR\000"
 7908      475200
 7909              	.LASF80:
 7910 0313 504C4C43 		.ascii	"PLLCFGR\000"
 7910      46475200 
 7911              	.LASF200:
 7912 031b 5243435F 		.ascii	"RCC_OscInitStruct\000"
 7912      4F736349 
 7912      6E697453 
 7912      74727563 
 7912      7400
 7913              	.LASF73:
 7914 032d 43525243 		.ascii	"CRRCR\000"
 7914      5200
 7915              	.LASF92:
 7916 0333 43494652 		.ascii	"CIFR\000"
 7916      00
 7917              	.LASF85:
 7918 0338 504C4C33 		.ascii	"PLL3DIVR\000"
 7918      44495652 
 7918      00
 7919              	.LASF206:
 7920 0341 48414C5F 		.ascii	"HAL_RCC_ClockConfig\000"
 7920      5243435F 
 7920      436C6F63 
 7920      6B436F6E 
 7920      66696700 
 7921              	.LASF60:
 7922 0355 4F535045 		.ascii	"OSPEEDR\000"
 7922      45445200 
 7923              	.LASF8:
 7924 035d 5F5F7569 		.ascii	"__uint32_t\000"
 7924      6E743332 
 7924      5F7400
 7925              	.LASF88:
 7926 0368 44324343 		.ascii	"D2CCIP1R\000"
 7926      49503152 
 7926      00
 7927              	.LASF169:
 7928 0371 4D6F6465 		.ascii	"Mode\000"
 7928      00
 7929              	.LASF158:
 7930 0376 43534943 		.ascii	"CSICalibrationValue\000"
 7930      616C6962 
 7930      72617469 
 7930      6F6E5661 
 7930      6C756500 
 7931              	.LASF90:
 7932 038a 44334343 		.ascii	"D3CCIPR\000"
 7932      49505200 
 7933              	.LASF191:
 7934 0392 706C6C66 		.ascii	"pllfracen\000"
 7934      72616365 
 7934      6E00
ARM GAS  C:\Users\DEVELO~1\AppData\Local\Temp\ccPkHjk7.s 			page 143


 7935              	.LASF137:
 7936 039c 48414C5F 		.ascii	"HAL_TIMEOUT\000"
 7936      54494D45 
 7936      4F555400 
 7937              	.LASF110:
 7938 03a8 41484231 		.ascii	"AHB1ENR\000"
 7938      454E5200 
 7939              	.LASF84:
 7940 03b0 504C4C32 		.ascii	"PLL2FRACR\000"
 7940      46524143 
 7940      5200
 7941              	.LASF194:
 7942 03ba 706C6C76 		.ascii	"pllvco\000"
 7942      636F00
 7943              	.LASF157:
 7944 03c1 43534953 		.ascii	"CSIState\000"
 7944      74617465 
 7944      00
 7945              	.LASF12:
 7946 03ca 756E7369 		.ascii	"unsigned int\000"
 7946      676E6564 
 7946      20696E74 
 7946      00
 7947              	.LASF70:
 7948 03d7 574B5550 		.ascii	"WKUPEPR\000"
 7948      45505200 
 7949              	.LASF16:
 7950 03df 53797374 		.ascii	"SystemCoreClock\000"
 7950      656D436F 
 7950      7265436C 
 7950      6F636B00 
 7951              	.LASF18:
 7952 03ef 4431436F 		.ascii	"D1CorePrescTable\000"
 7952      72655072 
 7952      65736354 
 7952      61626C65 
 7952      00
 7953              	.LASF72:
 7954 0400 48534943 		.ascii	"HSICFGR\000"
 7954      46475200 
 7955              	.LASF203:
 7956 0408 5243435F 		.ascii	"RCC_MCODiv\000"
 7956      4D434F44 
 7956      697600
 7957              	.LASF9:
 7958 0413 6C6F6E67 		.ascii	"long unsigned int\000"
 7958      20756E73 
 7958      69676E65 
 7958      6420696E 
 7958      7400
 7959              	.LASF64:
 7960 0425 4750494F 		.ascii	"GPIO_TypeDef\000"
 7960      5F547970 
 7960      65446566 
 7960      00
 7961              	.LASF52:
 7962 0432 43524343 		.ascii	"CRCCR2\000"
ARM GAS  C:\Users\DEVELO~1\AppData\Local\Temp\ccPkHjk7.s 			page 144


 7962      523200
 7963              	.LASF129:
 7964 0439 5243435F 		.ascii	"RCC_TypeDef\000"
 7964      54797065 
 7964      44656600 
 7965              	.LASF134:
 7966 0445 48414C5F 		.ascii	"HAL_OK\000"
 7966      4F4B00
 7967              	.LASF33:
 7968 044c 424F4F54 		.ascii	"BOOT_PRG\000"
 7968      5F505247 
 7968      00
 7969              	.LASF89:
 7970 0455 44324343 		.ascii	"D2CCIP2R\000"
 7970      49503252 
 7970      00
 7971              	.LASF6:
 7972 045e 73686F72 		.ascii	"short unsigned int\000"
 7972      7420756E 
 7972      7369676E 
 7972      65642069 
 7972      6E7400
 7973              	.LASF149:
 7974 0471 5243435F 		.ascii	"RCC_PLLInitTypeDef\000"
 7974      504C4C49 
 7974      6E697454 
 7974      79706544 
 7974      656600
 7975              	.LASF79:
 7976 0484 504C4C43 		.ascii	"PLLCKSELR\000"
 7976      4B53454C 
 7976      5200
 7977              	.LASF139:
 7978 048e 504C4C53 		.ascii	"PLLState\000"
 7978      74617465 
 7978      00
 7979              	.LASF97:
 7980 0497 41484233 		.ascii	"AHB3RSTR\000"
 7980      52535452 
 7980      00
 7981              	.LASF174:
 7982 04a0 75775469 		.ascii	"uwTickPrio\000"
 7982      636B5072 
 7982      696F00
 7983              	.LASF115:
 7984 04ab 41504231 		.ascii	"APB1HENR\000"
 7984      48454E52 
 7984      00
 7985              	.LASF150:
 7986 04b4 4F736369 		.ascii	"OscillatorType\000"
 7986      6C6C6174 
 7986      6F725479 
 7986      706500
 7987              	.LASF132:
 7988 04c3 666C6F61 		.ascii	"float_t\000"
 7988      745F7400 
 7989              	.LASF26:
ARM GAS  C:\Users\DEVELO~1\AppData\Local\Temp\ccPkHjk7.s 			page 145


 7990 04cb 50524152 		.ascii	"PRAR_CUR1\000"
 7990      5F435552 
 7990      3100
 7991              	.LASF45:
 7992 04d5 50524152 		.ascii	"PRAR_CUR2\000"
 7992      5F435552 
 7992      3200
 7993              	.LASF198:
 7994 04df 48414C5F 		.ascii	"HAL_RCC_EnableCSS\000"
 7994      5243435F 
 7994      456E6162 
 7994      6C654353 
 7994      5300
 7995              	.LASF138:
 7996 04f1 48414C5F 		.ascii	"HAL_StatusTypeDef\000"
 7996      53746174 
 7996      75735479 
 7996      70654465 
 7996      6600
 7997              	.LASF126:
 7998 0503 41504232 		.ascii	"APB2LPENR\000"
 7998      4C50454E 
 7998      5200
 7999              	.LASF86:
 8000 050d 504C4C33 		.ascii	"PLL3FRACR\000"
 8000      46524143 
 8000      5200
 8001              	.LASF146:
 8002 0517 504C4C52 		.ascii	"PLLRGE\000"
 8002      474500
 8003              	.LASF163:
 8004 051e 41484243 		.ascii	"AHBCLKDivider\000"
 8004      4C4B4469 
 8004      76696465 
 8004      7200
 8005              	.LASF105:
 8006 052c 41504234 		.ascii	"APB4RSTR\000"
 8006      52535452 
 8006      00
 8007              	.LASF211:
 8008 0535 74656D70 		.ascii	"temp1_pllckcfg\000"
 8008      315F706C 
 8008      6C636B63 
 8008      666700
 8009              	.LASF162:
 8010 0544 53595343 		.ascii	"SYSCLKDivider\000"
 8010      4C4B4469 
 8010      76696465 
 8010      7200
 8011              	.LASF29:
 8012 0552 53434152 		.ascii	"SCAR_PRG1\000"
 8012      5F505247 
 8012      3100
 8013              	.LASF147:
 8014 055c 504C4C56 		.ascii	"PLLVCOSEL\000"
 8014      434F5345 
 8014      4C00
ARM GAS  C:\Users\DEVELO~1\AppData\Local\Temp\ccPkHjk7.s 			page 146


 8015              	.LASF195:
 8016 0566 73797363 		.ascii	"sysclockfreq\000"
 8016      6C6F636B 
 8016      66726571 
 8016      00
 8017              	.LASF117:
 8018 0573 41504234 		.ascii	"APB4ENR\000"
 8018      454E5200 
 8019              	.LASF151:
 8020 057b 48534553 		.ascii	"HSEState\000"
 8020      74617465 
 8020      00
 8021              	.LASF176:
 8022 0584 48414C5F 		.ascii	"HAL_GetTick\000"
 8022      47657454 
 8022      69636B00 
 8023              	.LASF171:
 8024 0590 53706565 		.ascii	"Speed\000"
 8024      6400
 8025              	.LASF31:
 8026 0596 5750534E 		.ascii	"WPSN_PRG1\000"
 8026      5F505247 
 8026      3100
 8027              	.LASF184:
 8028 05a0 48414C5F 		.ascii	"HAL_RCC_GetHCLKFreq\000"
 8028      5243435F 
 8028      47657448 
 8028      434C4B46 
 8028      72657100 
 8029              	.LASF188:
 8030 05b4 706C6C70 		.ascii	"pllp\000"
 8030      00
 8031              	.LASF54:
 8032 05b9 43524345 		.ascii	"CRCEADD2\000"
 8032      41444432 
 8032      00
 8033              	.LASF103:
 8034 05c2 41504231 		.ascii	"APB1HRSTR\000"
 8034      48525354 
 8034      5200
 8035              	.LASF35:
 8036 05cc 43524343 		.ascii	"CRCCR1\000"
 8036      523100
 8037              	.LASF197:
 8038 05d3 48414C5F 		.ascii	"HAL_RCC_DisableCSS\000"
 8038      5243435F 
 8038      44697361 
 8038      626C6543 
 8038      535300
 8039              	.LASF23:
 8040 05e6 4F505453 		.ascii	"OPTSR_CUR\000"
 8040      525F4355 
 8040      5200
 8041              	.LASF219:
 8042 05f0 48414C5F 		.ascii	"HAL_GPIO_Init\000"
 8042      4750494F 
 8042      5F496E69 
ARM GAS  C:\Users\DEVELO~1\AppData\Local\Temp\ccPkHjk7.s 			page 147


 8042      7400
 8043              	.LASF121:
 8044 05fe 41484232 		.ascii	"AHB2LPENR\000"
 8044      4C50454E 
 8044      5200
 8045              	.LASF123:
 8046 0608 41504233 		.ascii	"APB3LPENR\000"
 8046      4C50454E 
 8046      5200
 8047              	.LASF168:
 8048 0612 5243435F 		.ascii	"RCC_ClkInitTypeDef\000"
 8048      436C6B49 
 8048      6E697454 
 8048      79706544 
 8048      656600
 8049              	.LASF199:
 8050 0625 48414C5F 		.ascii	"HAL_RCC_MCOConfig\000"
 8050      5243435F 
 8050      4D434F43 
 8050      6F6E6669 
 8050      6700
 8051              	.LASF217:
 8052 0637 2E2F6472 		.ascii	"./drivers/stm32h7xx-hal-driver/Src/stm32h7xx_hal_rc"
 8052      69766572 
 8052      732F7374 
 8052      6D333268 
 8052      3778782D 
 8053 066a 632E6300 		.ascii	"c.c\000"
 8054              	.LASF0:
 8055 066e 666C6F61 		.ascii	"float\000"
 8055      7400
 8056              	.LASF113:
 8057 0674 41504233 		.ascii	"APB3ENR\000"
 8057      454E5200 
 8058              	.LASF186:
 8059 067c 48414C5F 		.ascii	"HAL_InitTick\000"
 8059      496E6974 
 8059      5469636B 
 8059      00
 8060              	.LASF34:
 8061 0689 52455345 		.ascii	"RESERVED0\000"
 8061      52564544 
 8061      3000
 8062              	.LASF40:
 8063 0693 52455345 		.ascii	"RESERVED1\000"
 8063      52564544 
 8063      3100
 8064              	.LASF148:
 8065 069d 504C4C46 		.ascii	"PLLFRACN\000"
 8065      5241434E 
 8065      00
 8066              	.LASF173:
 8067 06a6 4750494F 		.ascii	"GPIO_InitTypeDef\000"
 8067      5F496E69 
 8067      74547970 
 8067      65446566 
 8067      00
ARM GAS  C:\Users\DEVELO~1\AppData\Local\Temp\ccPkHjk7.s 			page 148


 8068              	.LASF77:
 8069 06b7 44324346 		.ascii	"D2CFGR\000"
 8069      475200
 8070              	.LASF94:
 8071 06be 52455345 		.ascii	"RESERVED5\000"
 8071      52564544 
 8071      3500
 8072              	.LASF96:
 8073 06c8 52455345 		.ascii	"RESERVED6\000"
 8073      52564544 
 8073      3600
 8074              	.LASF106:
 8075 06d2 52455345 		.ascii	"RESERVED8\000"
 8075      52564544 
 8075      3800
 8076              	.LASF182:
 8077 06dc 48414C5F 		.ascii	"HAL_RCC_GetPCLK2Freq\000"
 8077      5243435F 
 8077      47657450 
 8077      434C4B32 
 8077      46726571 
 8078              	.LASF83:
 8079 06f1 504C4C32 		.ascii	"PLL2DIVR\000"
 8079      44495652 
 8079      00
 8080              	.LASF3:
 8081 06fa 756E7369 		.ascii	"unsigned char\000"
 8081      676E6564 
 8081      20636861 
 8081      7200
 8082              	.LASF179:
 8083 0708 5243435F 		.ascii	"RCC_ClkInitStruct\000"
 8083      436C6B49 
 8083      6E697453 
 8083      74727563 
 8083      7400
 8084              	.LASF152:
 8085 071a 4C534553 		.ascii	"LSEState\000"
 8085      74617465 
 8085      00
 8086              	.LASF1:
 8087 0723 73686F72 		.ascii	"short int\000"
 8087      7420696E 
 8087      7400
 8088              	.LASF119:
 8089 072d 41484233 		.ascii	"AHB3LPENR\000"
 8089      4C50454E 
 8089      5200
 8090              	.LASF209:
 8091 0737 7469636B 		.ascii	"tickstart\000"
 8091      73746172 
 8091      7400
 8092              	.LASF140:
 8093 0741 504C4C53 		.ascii	"PLLSource\000"
 8093      6F757263 
 8093      6500
 8094              	.LASF167:
ARM GAS  C:\Users\DEVELO~1\AppData\Local\Temp\ccPkHjk7.s 			page 149


 8095 074b 41504234 		.ascii	"APB4CLKDivider\000"
 8095      434C4B44 
 8095      69766964 
 8095      657200
 8096              	.LASF56:
 8097 075a 4543435F 		.ascii	"ECC_FA2\000"
 8097      46413200 
 8098              	.LASF196:
 8099 0762 48414C5F 		.ascii	"HAL_RCC_CSSCallback\000"
 8099      5243435F 
 8099      43535343 
 8099      616C6C62 
 8099      61636B00 
 8100              	.LASF116:
 8101 0776 41504232 		.ascii	"APB2ENR\000"
 8101      454E5200 
 8102              	.LASF109:
 8103 077e 41484233 		.ascii	"AHB3ENR\000"
 8103      454E5200 
 8104              	.LASF42:
 8105 0786 52455345 		.ascii	"RESERVED2\000"
 8105      52564544 
 8105      3200
 8106              	.LASF44:
 8107 0790 52455345 		.ascii	"RESERVED3\000"
 8107      52564544 
 8107      3300
 8108              	.LASF51:
 8109 079a 52455345 		.ascii	"RESERVED4\000"
 8109      52564544 
 8109      3400
 8110              	.LASF175:
 8111 07a4 48414C5F 		.ascii	"HAL_GetREVID\000"
 8111      47657452 
 8111      45564944 
 8111      00
 8112              	.LASF67:
 8113 07b1 44334352 		.ascii	"D3CR\000"
 8113      00
 8114              	.LASF135:
 8115 07b6 48414C5F 		.ascii	"HAL_ERROR\000"
 8115      4552524F 
 8115      5200
 8116              	.LASF87:
 8117 07c0 44314343 		.ascii	"D1CCIPR\000"
 8117      49505200 
 8118              	.LASF130:
 8119 07c8 6C6F6E67 		.ascii	"long double\000"
 8119      20646F75 
 8119      626C6500 
 8120              	.LASF131:
 8121 07d4 63686172 		.ascii	"char\000"
 8121      00
 8122              	.LASF210:
 8123 07d9 48414C5F 		.ascii	"HAL_RCC_OscConfig\000"
 8123      5243435F 
 8123      4F736343 
ARM GAS  C:\Users\DEVELO~1\AppData\Local\Temp\ccPkHjk7.s 			page 150


 8123      6F6E6669 
 8123      6700
 8124              	.LASF48:
 8125 07eb 53434152 		.ascii	"SCAR_PRG2\000"
 8125      5F505247 
 8125      3200
 8126              	.LASF66:
 8127 07f5 43505543 		.ascii	"CPUCR\000"
 8127      5200
 8128              	.LASF190:
 8129 07fb 706C6C6D 		.ascii	"pllm\000"
 8129      00
 8130              	.LASF5:
 8131 0800 5F5F7569 		.ascii	"__uint16_t\000"
 8131      6E743136 
 8131      5F7400
 8132              	.LASF187:
 8133 080b 48414C5F 		.ascii	"HAL_RCC_GetSysClockFreq\000"
 8133      5243435F 
 8133      47657453 
 8133      7973436C 
 8133      6F636B46 
 8134              	.LASF99:
 8135 0823 41484232 		.ascii	"AHB2RSTR\000"
 8135      52535452 
 8135      00
 8136              	.LASF41:
 8137 082c 4B455952 		.ascii	"KEYR2\000"
 8137      3200
 8138              	.LASF112:
 8139 0832 41484234 		.ascii	"AHB4ENR\000"
 8139      454E5200 
 8140              	.LASF215:
 8141 083a 48414C5F 		.ascii	"HAL_RCC_DeInit\000"
 8141      5243435F 
 8141      4465496E 
 8141      697400
 8142              	.LASF166:
 8143 0849 41504232 		.ascii	"APB2CLKDivider\000"
 8143      434C4B44 
 8143      69766964 
 8143      657200
 8144              	.LASF122:
 8145 0858 41484234 		.ascii	"AHB4LPENR\000"
 8145      4C50454E 
 8145      5200
 8146              	.LASF19:
 8147 0862 4B455952 		.ascii	"KEYR1\000"
 8147      3100
 8148              	.LASF178:
 8149 0868 48414C5F 		.ascii	"HAL_RCC_GetClockConfig\000"
 8149      5243435F 
 8149      47657443 
 8149      6C6F636B 
 8149      436F6E66 
 8150              	.LASF102:
 8151 087f 41504231 		.ascii	"APB1LRSTR\000"
ARM GAS  C:\Users\DEVELO~1\AppData\Local\Temp\ccPkHjk7.s 			page 151


 8151      4C525354 
 8151      5200
 8152              	.LASF71:
 8153 0889 5057525F 		.ascii	"PWR_TypeDef\000"
 8153      54797065 
 8153      44656600 
 8154              	.LASF111:
 8155 0895 41484232 		.ascii	"AHB2ENR\000"
 8155      454E5200 
 8156              	.LASF202:
 8157 089d 5243435F 		.ascii	"RCC_MCOSource\000"
 8157      4D434F53 
 8157      6F757263 
 8157      6500
 8158              	.LASF101:
 8159 08ab 41504233 		.ascii	"APB3RSTR\000"
 8159      52535452 
 8159      00
 8160              	.LASF74:
 8161 08b4 43534943 		.ascii	"CSICFGR\000"
 8161      46475200 
 8162              	.LASF49:
 8163 08bc 5750534E 		.ascii	"WPSN_CUR2\000"
 8163      5F435552 
 8163      3200
 8164              	.LASF193:
 8165 08c6 66726163 		.ascii	"fracn1\000"
 8165      6E3100
 8166              	.LASF30:
 8167 08cd 5750534E 		.ascii	"WPSN_CUR1\000"
 8167      5F435552 
 8167      3100
 8168              	.LASF180:
 8169 08d7 70464C61 		.ascii	"pFLatency\000"
 8169      74656E63 
 8169      7900
 8170              	.LASF15:
 8171 08e1 75696E74 		.ascii	"uint32_t\000"
 8171      33325F74 
 8171      00
 8172              	.LASF124:
 8173 08ea 41504231 		.ascii	"APB1LLPENR\000"
 8173      4C4C5045 
 8173      4E5200
 8174              	.LASF21:
 8175 08f5 43435231 		.ascii	"CCR1\000"
 8175      00
 8176              	.LASF43:
 8177 08fa 43435232 		.ascii	"CCR2\000"
 8177      00
 8178              	.LASF93:
 8179 08ff 43494352 		.ascii	"CICR\000"
 8179      00
 8180              	.LASF185:
 8181 0904 636F6D6D 		.ascii	"common_system_clock\000"
 8181      6F6E5F73 
 8181      79737465 
ARM GAS  C:\Users\DEVELO~1\AppData\Local\Temp\ccPkHjk7.s 			page 152


 8181      6D5F636C 
 8181      6F636B00 
 8182              	.LASF62:
 8183 0918 42535252 		.ascii	"BSRR\000"
 8183      00
 8184              	.LASF192:
 8185 091d 68736976 		.ascii	"hsivalue\000"
 8185      616C7565 
 8185      00
 8186              	.LASF95:
 8187 0926 42444352 		.ascii	"BDCR\000"
 8187      00
 8188              	.LASF13:
 8189 092b 75696E74 		.ascii	"uint8_t\000"
 8189      385F7400 
 8190              	.LASF120:
 8191 0933 41484231 		.ascii	"AHB1LPENR\000"
 8191      4C50454E 
 8191      5200
 8192              	.LASF36:
 8193 093d 43524353 		.ascii	"CRCSADD1\000"
 8193      41444431 
 8193      00
 8194              	.LASF53:
 8195 0946 43524353 		.ascii	"CRCSADD2\000"
 8195      41444432 
 8195      00
 8196              	.LASF160:
 8197 094f 436C6F63 		.ascii	"ClockType\000"
 8197      6B547970 
 8197      6500
 8198              	.LASF164:
 8199 0959 41504233 		.ascii	"APB3CLKDivider\000"
 8199      434C4B44 
 8199      69766964 
 8199      657200
 8200              	.LASF156:
 8201 0968 48534934 		.ascii	"HSI48State\000"
 8201      38537461 
 8201      746500
 8202              	.LASF213:
 8203 0973 74656D70 		.ascii	"temp_sysclksrc\000"
 8203      5F737973 
 8203      636C6B73 
 8203      726300
 8204              	.LASF170:
 8205 0982 50756C6C 		.ascii	"Pull\000"
 8205      00
 8206              	.LASF201:
 8207 0987 5243435F 		.ascii	"RCC_MCOx\000"
 8207      4D434F78 
 8207      00
 8208              	.LASF75:
 8209 0990 43464752 		.ascii	"CFGR\000"
 8209      00
 8210              	.LASF7:
 8211 0995 6C6F6E67 		.ascii	"long int\000"
ARM GAS  C:\Users\DEVELO~1\AppData\Local\Temp\ccPkHjk7.s 			page 153


 8211      20696E74 
 8211      00
 8212              	.LASF2:
 8213 099e 7369676E 		.ascii	"signed char\000"
 8213      65642063 
 8213      68617200 
 8214              	.LASF181:
 8215 09aa 48414C5F 		.ascii	"HAL_RCC_GetOscConfig\000"
 8215      5243435F 
 8215      4765744F 
 8215      7363436F 
 8215      6E666967 
 8216              	.LASF177:
 8217 09bf 48414C5F 		.ascii	"HAL_RCC_NMI_IRQHandler\000"
 8217      5243435F 
 8217      4E4D495F 
 8217      49525148 
 8217      616E646C 
 8218              	.LASF114:
 8219 09d6 41504231 		.ascii	"APB1LENR\000"
 8219      4C454E52 
 8219      00
 8220              	.LASF65:
 8221 09df 43535231 		.ascii	"CSR1\000"
 8221      00
 8222              	.LASF39:
 8223 09e4 4543435F 		.ascii	"ECC_FA1\000"
 8223      46413100 
 8224              	.LASF133:
 8225 09ec 646F7562 		.ascii	"double\000"
 8225      6C6500
 8226              	.LASF189:
 8227 09f3 706C6C73 		.ascii	"pllsource\000"
 8227      6F757263 
 8227      6500
 8228              	.LASF76:
 8229 09fd 44314346 		.ascii	"D1CFGR\000"
 8229      475200
 8230              	.LASF161:
 8231 0a04 53595343 		.ascii	"SYSCLKSource\000"
 8231      4C4B536F 
 8231      75726365 
 8231      00
 8232              		.ident	"GCC: (Arm GNU Toolchain 11.3.Rel1) 11.3.1 20220712"
ARM GAS  C:\Users\DEVELO~1\AppData\Local\Temp\ccPkHjk7.s 			page 154


DEFINED SYMBOLS
                            *ABS*:00000000 stm32h7xx_hal_rcc.c
C:\Users\DEVELO~1\AppData\Local\Temp\ccPkHjk7.s:19     .text.HAL_RCC_GetSysClockFreq.part.0:00000000 $t
C:\Users\DEVELO~1\AppData\Local\Temp\ccPkHjk7.s:25     .text.HAL_RCC_GetSysClockFreq.part.0:00000000 HAL_RCC_GetSysClockFreq.part.0
C:\Users\DEVELO~1\AppData\Local\Temp\ccPkHjk7.s:220    .text.HAL_RCC_GetSysClockFreq.part.0:000000f0 $d
C:\Users\DEVELO~1\AppData\Local\Temp\ccPkHjk7.s:230    .text.HAL_RCC_DeInit:00000000 $t
C:\Users\DEVELO~1\AppData\Local\Temp\ccPkHjk7.s:237    .text.HAL_RCC_DeInit:00000000 HAL_RCC_DeInit
C:\Users\DEVELO~1\AppData\Local\Temp\ccPkHjk7.s:602    .text.HAL_RCC_DeInit:00000178 $d
C:\Users\DEVELO~1\AppData\Local\Temp\ccPkHjk7.s:616    .text.HAL_RCC_OscConfig:00000000 $t
C:\Users\DEVELO~1\AppData\Local\Temp\ccPkHjk7.s:623    .text.HAL_RCC_OscConfig:00000000 HAL_RCC_OscConfig
C:\Users\DEVELO~1\AppData\Local\Temp\ccPkHjk7.s:1249   .text.HAL_RCC_OscConfig:000002a4 $d
C:\Users\DEVELO~1\AppData\Local\Temp\ccPkHjk7.s:1254   .text.HAL_RCC_OscConfig:000002ac $t
C:\Users\DEVELO~1\AppData\Local\Temp\ccPkHjk7.s:1852   .text.HAL_RCC_OscConfig:00000564 $d
C:\Users\DEVELO~1\AppData\Local\Temp\ccPkHjk7.s:1860   .text.HAL_RCC_OscConfig:00000570 $t
C:\Users\DEVELO~1\AppData\Local\Temp\ccPkHjk7.s:1951   .text.HAL_RCC_OscConfig:000005e4 $d
C:\Users\DEVELO~1\AppData\Local\Temp\ccPkHjk7.s:1956   .text.HAL_RCC_MCOConfig:00000000 $t
C:\Users\DEVELO~1\AppData\Local\Temp\ccPkHjk7.s:1963   .text.HAL_RCC_MCOConfig:00000000 HAL_RCC_MCOConfig
C:\Users\DEVELO~1\AppData\Local\Temp\ccPkHjk7.s:2142   .text.HAL_RCC_MCOConfig:00000098 $d
C:\Users\DEVELO~1\AppData\Local\Temp\ccPkHjk7.s:2149   .text.HAL_RCC_EnableCSS:00000000 $t
C:\Users\DEVELO~1\AppData\Local\Temp\ccPkHjk7.s:2156   .text.HAL_RCC_EnableCSS:00000000 HAL_RCC_EnableCSS
C:\Users\DEVELO~1\AppData\Local\Temp\ccPkHjk7.s:2173   .text.HAL_RCC_EnableCSS:0000000c $d
C:\Users\DEVELO~1\AppData\Local\Temp\ccPkHjk7.s:2178   .text.HAL_RCC_DisableCSS:00000000 $t
C:\Users\DEVELO~1\AppData\Local\Temp\ccPkHjk7.s:2185   .text.HAL_RCC_DisableCSS:00000000 HAL_RCC_DisableCSS
C:\Users\DEVELO~1\AppData\Local\Temp\ccPkHjk7.s:2202   .text.HAL_RCC_DisableCSS:0000000c $d
C:\Users\DEVELO~1\AppData\Local\Temp\ccPkHjk7.s:2207   .text.HAL_RCC_GetSysClockFreq:00000000 $t
C:\Users\DEVELO~1\AppData\Local\Temp\ccPkHjk7.s:2214   .text.HAL_RCC_GetSysClockFreq:00000000 HAL_RCC_GetSysClockFreq
C:\Users\DEVELO~1\AppData\Local\Temp\ccPkHjk7.s:2277   .text.HAL_RCC_GetSysClockFreq:00000034 $d
C:\Users\DEVELO~1\AppData\Local\Temp\ccPkHjk7.s:2285   .text.HAL_RCC_ClockConfig:00000000 $t
C:\Users\DEVELO~1\AppData\Local\Temp\ccPkHjk7.s:2292   .text.HAL_RCC_ClockConfig:00000000 HAL_RCC_ClockConfig
C:\Users\DEVELO~1\AppData\Local\Temp\ccPkHjk7.s:2804   .text.HAL_RCC_ClockConfig:00000238 $d
C:\Users\DEVELO~1\AppData\Local\Temp\ccPkHjk7.s:2814   .text.HAL_RCC_GetHCLKFreq:00000000 $t
C:\Users\DEVELO~1\AppData\Local\Temp\ccPkHjk7.s:2821   .text.HAL_RCC_GetHCLKFreq:00000000 HAL_RCC_GetHCLKFreq
C:\Users\DEVELO~1\AppData\Local\Temp\ccPkHjk7.s:2945   .text.HAL_RCC_GetHCLKFreq:00000064 $d
C:\Users\DEVELO~1\AppData\Local\Temp\ccPkHjk7.s:2958   .text.HAL_RCC_GetPCLK1Freq:00000000 $t
C:\Users\DEVELO~1\AppData\Local\Temp\ccPkHjk7.s:2965   .text.HAL_RCC_GetPCLK1Freq:00000000 HAL_RCC_GetPCLK1Freq
C:\Users\DEVELO~1\AppData\Local\Temp\ccPkHjk7.s:2997   .text.HAL_RCC_GetPCLK1Freq:0000001c $d
C:\Users\DEVELO~1\AppData\Local\Temp\ccPkHjk7.s:3003   .text.HAL_RCC_GetPCLK2Freq:00000000 $t
C:\Users\DEVELO~1\AppData\Local\Temp\ccPkHjk7.s:3010   .text.HAL_RCC_GetPCLK2Freq:00000000 HAL_RCC_GetPCLK2Freq
C:\Users\DEVELO~1\AppData\Local\Temp\ccPkHjk7.s:3042   .text.HAL_RCC_GetPCLK2Freq:0000001c $d
C:\Users\DEVELO~1\AppData\Local\Temp\ccPkHjk7.s:3048   .text.HAL_RCC_GetOscConfig:00000000 $t
C:\Users\DEVELO~1\AppData\Local\Temp\ccPkHjk7.s:3055   .text.HAL_RCC_GetOscConfig:00000000 HAL_RCC_GetOscConfig
C:\Users\DEVELO~1\AppData\Local\Temp\ccPkHjk7.s:3273   .text.HAL_RCC_GetOscConfig:000000ec $d
C:\Users\DEVELO~1\AppData\Local\Temp\ccPkHjk7.s:3278   .text.HAL_RCC_GetClockConfig:00000000 $t
C:\Users\DEVELO~1\AppData\Local\Temp\ccPkHjk7.s:3285   .text.HAL_RCC_GetClockConfig:00000000 HAL_RCC_GetClockConfig
C:\Users\DEVELO~1\AppData\Local\Temp\ccPkHjk7.s:3370   .text.HAL_RCC_GetClockConfig:00000050 $d
C:\Users\DEVELO~1\AppData\Local\Temp\ccPkHjk7.s:3376   .text.HAL_RCC_CSSCallback:00000000 $t
C:\Users\DEVELO~1\AppData\Local\Temp\ccPkHjk7.s:3383   .text.HAL_RCC_CSSCallback:00000000 HAL_RCC_CSSCallback
C:\Users\DEVELO~1\AppData\Local\Temp\ccPkHjk7.s:3396   .text.HAL_RCC_NMI_IRQHandler:00000000 $t
C:\Users\DEVELO~1\AppData\Local\Temp\ccPkHjk7.s:3403   .text.HAL_RCC_NMI_IRQHandler:00000000 HAL_RCC_NMI_IRQHandler
C:\Users\DEVELO~1\AppData\Local\Temp\ccPkHjk7.s:3435   .text.HAL_RCC_NMI_IRQHandler:00000018 $d

UNDEFINED SYMBOLS
HAL_GetTick
HAL_InitTick
uwTickPrio
SystemCoreClock
SystemD2Clock
ARM GAS  C:\Users\DEVELO~1\AppData\Local\Temp\ccPkHjk7.s 			page 155


HAL_GetREVID
HAL_GPIO_Init
D1CorePrescTable
