ARM GAS  C:\Users\DEVELO~1\AppData\Local\Temp\cc677bLb.s 			page 1


   1              		.cpu cortex-m7
   2              		.arch armv7e-m
   3              		.fpu fpv5-d16
   4              		.eabi_attribute 28, 1
   5              		.eabi_attribute 20, 1
   6              		.eabi_attribute 21, 1
   7              		.eabi_attribute 23, 3
   8              		.eabi_attribute 24, 1
   9              		.eabi_attribute 25, 1
  10              		.eabi_attribute 26, 1
  11              		.eabi_attribute 30, 2
  12              		.eabi_attribute 34, 1
  13              		.eabi_attribute 18, 4
  14              		.file	"stm32h7xx_hal_pwr.c"
  15              		.text
  16              	.Ltext0:
  17              		.cfi_sections	.debug_frame
  18              		.section	.text.HAL_PWR_DeInit,"ax",%progbits
  19              		.align	1
  20              		.p2align 2,,3
  21              		.global	HAL_PWR_DeInit
  22              		.syntax unified
  23              		.thumb
  24              		.thumb_func
  25              		.type	HAL_PWR_DeInit, %function
  26              	HAL_PWR_DeInit:
  27              	.LFB141:
  28              		.file 1 "./drivers/stm32h7xx-hal-driver/Src/stm32h7xx_hal_pwr.c"
  29              		.loc 1 226 1 view -0
  30              		.cfi_startproc
  31              		@ args = 0, pretend = 0, frame = 0
  32              		@ frame_needed = 0, uses_anonymous_args = 0
  33              		@ link register save eliminated.
  34              		.loc 1 227 1 view .LVU1
  35 0000 7047     		bx	lr
  36              		.cfi_endproc
  37              	.LFE141:
  38              		.size	HAL_PWR_DeInit, .-HAL_PWR_DeInit
  39 0002 00BF     		.section	.text.HAL_PWR_EnableBkUpAccess,"ax",%progbits
  40              		.align	1
  41              		.p2align 2,,3
  42              		.global	HAL_PWR_EnableBkUpAccess
  43              		.syntax unified
  44              		.thumb
  45              		.thumb_func
  46              		.type	HAL_PWR_EnableBkUpAccess, %function
  47              	HAL_PWR_EnableBkUpAccess:
  48              	.LFB142:
  49              		.loc 1 237 1 view -0
  50              		.cfi_startproc
  51              		@ args = 0, pretend = 0, frame = 0
  52              		@ frame_needed = 0, uses_anonymous_args = 0
  53              		@ link register save eliminated.
  54              		.loc 1 239 3 view .LVU3
  55 0000 024A     		ldr	r2, .L4
  56 0002 1368     		ldr	r3, [r2]
  57 0004 43F48073 		orr	r3, r3, #256
ARM GAS  C:\Users\DEVELO~1\AppData\Local\Temp\cc677bLb.s 			page 2


  58 0008 1360     		str	r3, [r2]
  59              		.loc 1 240 1 is_stmt 0 view .LVU4
  60 000a 7047     		bx	lr
  61              	.L5:
  62              		.align	2
  63              	.L4:
  64 000c 00480258 		.word	1476544512
  65              		.cfi_endproc
  66              	.LFE142:
  67              		.size	HAL_PWR_EnableBkUpAccess, .-HAL_PWR_EnableBkUpAccess
  68              		.section	.text.HAL_PWR_DisableBkUpAccess,"ax",%progbits
  69              		.align	1
  70              		.p2align 2,,3
  71              		.global	HAL_PWR_DisableBkUpAccess
  72              		.syntax unified
  73              		.thumb
  74              		.thumb_func
  75              		.type	HAL_PWR_DisableBkUpAccess, %function
  76              	HAL_PWR_DisableBkUpAccess:
  77              	.LFB143:
  78              		.loc 1 250 1 is_stmt 1 view -0
  79              		.cfi_startproc
  80              		@ args = 0, pretend = 0, frame = 0
  81              		@ frame_needed = 0, uses_anonymous_args = 0
  82              		@ link register save eliminated.
  83              		.loc 1 252 3 view .LVU6
  84 0000 024A     		ldr	r2, .L7
  85 0002 1368     		ldr	r3, [r2]
  86 0004 23F48073 		bic	r3, r3, #256
  87 0008 1360     		str	r3, [r2]
  88              		.loc 1 253 1 is_stmt 0 view .LVU7
  89 000a 7047     		bx	lr
  90              	.L8:
  91              		.align	2
  92              	.L7:
  93 000c 00480258 		.word	1476544512
  94              		.cfi_endproc
  95              	.LFE143:
  96              		.size	HAL_PWR_DisableBkUpAccess, .-HAL_PWR_DisableBkUpAccess
  97              		.section	.text.HAL_PWR_ConfigPVD,"ax",%progbits
  98              		.align	1
  99              		.p2align 2,,3
 100              		.global	HAL_PWR_ConfigPVD
 101              		.syntax unified
 102              		.thumb
 103              		.thumb_func
 104              		.type	HAL_PWR_ConfigPVD, %function
 105              	HAL_PWR_ConfigPVD:
 106              	.LVL0:
 107              	.LFB144:
 108              		.loc 1 416 1 is_stmt 1 view -0
 109              		.cfi_startproc
 110              		@ args = 0, pretend = 0, frame = 0
 111              		@ frame_needed = 0, uses_anonymous_args = 0
 112              		.loc 1 418 3 view .LVU9
 113              		.loc 1 418 6 is_stmt 0 view .LVU10
 114 0000 0028     		cmp	r0, #0
ARM GAS  C:\Users\DEVELO~1\AppData\Local\Temp\cc677bLb.s 			page 3


 115 0002 5FD0     		beq	.L29
 116              		.loc 1 424 3 is_stmt 1 view .LVU11
 117              		.loc 1 416 1 is_stmt 0 view .LVU12
 118 0004 10B5     		push	{r4, lr}
 119              		.cfi_def_cfa_offset 8
 120              		.cfi_offset 4, -8
 121              		.cfi_offset 14, -4
 122 0006 0446     		mov	r4, r0
 123              		.loc 1 424 17 view .LVU13
 124 0008 0068     		ldr	r0, [r0]
 125              	.LVL1:
 126              		.loc 1 424 17 view .LVU14
 127 000a 20F06000 		bic	r0, r0, #96
 128              		.loc 1 424 3 view .LVU15
 129 000e 0028     		cmp	r0, #0
 130 0010 18BF     		it	ne
 131 0012 8028     		cmpne	r0, #128
 132 0014 0CBF     		ite	eq
 133 0016 0120     		moveq	r0, #1
 134 0018 0020     		movne	r0, #0
 135 001a FFF7FEFF 		bl	assert_param
 136              	.LVL2:
 137              		.loc 1 425 3 is_stmt 1 view .LVU16
 138              		.loc 1 425 17 is_stmt 0 view .LVU17
 139 001e 6368     		ldr	r3, [r4, #4]
 140 0020 6FF40032 		mvn	r2, #131072
 141 0024 A3F10110 		sub	r0, r3, #65537
 142 0028 1A44     		add	r2, r2, r3
 143              		.loc 1 425 3 view .LVU18
 144 002a 022A     		cmp	r2, #2
 145 002c 88BF     		it	hi
 146 002e 0228     		cmphi	r0, #2
 147 0030 94BF     		ite	ls
 148 0032 0120     		movls	r0, #1
 149 0034 0020     		movhi	r0, #0
 150 0036 002B     		cmp	r3, #0
 151 0038 08BF     		it	eq
 152 003a 40F00100 		orreq	r0, r0, #1
 153 003e FFF7FEFF 		bl	assert_param
 154              	.LVL3:
 155              		.loc 1 428 3 is_stmt 1 view .LVU19
 156 0042 2149     		ldr	r1, .L32
 157 0044 2068     		ldr	r0, [r4]
 158              		.loc 1 432 3 is_stmt 0 view .LVU20
 159 0046 4FF0B043 		mov	r3, #1476395008
 160              		.loc 1 428 3 view .LVU21
 161 004a 0A68     		ldr	r2, [r1]
 162 004c 22F0E002 		bic	r2, r2, #224
 163 0050 0243     		orrs	r2, r2, r0
 164 0052 0A60     		str	r2, [r1]
 165              		.loc 1 432 3 is_stmt 1 view .LVU22
 166 0054 D3F88420 		ldr	r2, [r3, #132]
 167 0058 22F48032 		bic	r2, r2, #65536
 168 005c C3F88420 		str	r2, [r3, #132]
 169              		.loc 1 433 3 view .LVU23
 170 0060 D3F88020 		ldr	r2, [r3, #128]
 171 0064 22F48032 		bic	r2, r2, #65536
ARM GAS  C:\Users\DEVELO~1\AppData\Local\Temp\cc677bLb.s 			page 4


 172 0068 C3F88020 		str	r2, [r3, #128]
 173              		.loc 1 436 3 view .LVU24
 174 006c 1A68     		ldr	r2, [r3]
 175 006e 22F48032 		bic	r2, r2, #65536
 176 0072 1A60     		str	r2, [r3]
 177              		.loc 1 437 3 view .LVU25
 178 0074 5A68     		ldr	r2, [r3, #4]
 179 0076 22F48032 		bic	r2, r2, #65536
 180 007a 5A60     		str	r2, [r3, #4]
 181              		.loc 1 441 3 view .LVU26
 182              		.loc 1 441 18 is_stmt 0 view .LVU27
 183 007c 6268     		ldr	r2, [r4, #4]
 184              		.loc 1 441 6 view .LVU28
 185 007e D403     		lsls	r4, r2, #15
 186              	.LVL4:
 187              		.loc 1 441 6 view .LVU29
 188 0080 05D5     		bpl	.L12
 189              		.loc 1 443 5 is_stmt 1 view .LVU30
 190 0082 D3F88010 		ldr	r1, [r3, #128]
 191 0086 41F48031 		orr	r1, r1, #65536
 192 008a C3F88010 		str	r1, [r3, #128]
 193              	.L12:
 194              		.loc 1 447 3 view .LVU31
 195              		.loc 1 447 6 is_stmt 0 view .LVU32
 196 008e 9003     		lsls	r0, r2, #14
 197 0090 07D5     		bpl	.L13
 198              		.loc 1 449 5 is_stmt 1 view .LVU33
 199 0092 4FF0B041 		mov	r1, #1476395008
 200 0096 D1F88430 		ldr	r3, [r1, #132]
 201 009a 43F48033 		orr	r3, r3, #65536
 202 009e C1F88430 		str	r3, [r1, #132]
 203              	.L13:
 204              		.loc 1 454 3 view .LVU34
 205              		.loc 1 454 6 is_stmt 0 view .LVU35
 206 00a2 D107     		lsls	r1, r2, #31
 207 00a4 05D5     		bpl	.L14
 208              		.loc 1 456 5 is_stmt 1 view .LVU36
 209 00a6 4FF0B041 		mov	r1, #1476395008
 210 00aa 0B68     		ldr	r3, [r1]
 211 00ac 43F48033 		orr	r3, r3, #65536
 212 00b0 0B60     		str	r3, [r1]
 213              	.L14:
 214              		.loc 1 460 3 view .LVU37
 215              		.loc 1 460 6 is_stmt 0 view .LVU38
 216 00b2 9307     		lsls	r3, r2, #30
 217 00b4 05D5     		bpl	.L9
 218              		.loc 1 462 5 is_stmt 1 view .LVU39
 219 00b6 4FF0B042 		mov	r2, #1476395008
 220 00ba 5368     		ldr	r3, [r2, #4]
 221 00bc 43F48033 		orr	r3, r3, #65536
 222 00c0 5360     		str	r3, [r2, #4]
 223              	.L9:
 224              		.loc 1 464 1 is_stmt 0 view .LVU40
 225 00c2 10BD     		pop	{r4, pc}
 226              	.LVL5:
 227              	.L29:
 228              		.cfi_def_cfa_offset 0
ARM GAS  C:\Users\DEVELO~1\AppData\Local\Temp\cc677bLb.s 			page 5


 229              		.cfi_restore 4
 230              		.cfi_restore 14
 231              		.loc 1 464 1 view .LVU41
 232 00c4 7047     		bx	lr
 233              	.L33:
 234 00c6 00BF     		.align	2
 235              	.L32:
 236 00c8 00480258 		.word	1476544512
 237              		.cfi_endproc
 238              	.LFE144:
 239              		.size	HAL_PWR_ConfigPVD, .-HAL_PWR_ConfigPVD
 240              		.section	.text.HAL_PWR_EnablePVD,"ax",%progbits
 241              		.align	1
 242              		.p2align 2,,3
 243              		.global	HAL_PWR_EnablePVD
 244              		.syntax unified
 245              		.thumb
 246              		.thumb_func
 247              		.type	HAL_PWR_EnablePVD, %function
 248              	HAL_PWR_EnablePVD:
 249              	.LFB145:
 250              		.loc 1 471 1 is_stmt 1 view -0
 251              		.cfi_startproc
 252              		@ args = 0, pretend = 0, frame = 0
 253              		@ frame_needed = 0, uses_anonymous_args = 0
 254              		@ link register save eliminated.
 255              		.loc 1 473 3 view .LVU43
 256 0000 024A     		ldr	r2, .L35
 257 0002 1368     		ldr	r3, [r2]
 258 0004 43F01003 		orr	r3, r3, #16
 259 0008 1360     		str	r3, [r2]
 260              		.loc 1 474 1 is_stmt 0 view .LVU44
 261 000a 7047     		bx	lr
 262              	.L36:
 263              		.align	2
 264              	.L35:
 265 000c 00480258 		.word	1476544512
 266              		.cfi_endproc
 267              	.LFE145:
 268              		.size	HAL_PWR_EnablePVD, .-HAL_PWR_EnablePVD
 269              		.section	.text.HAL_PWR_DisablePVD,"ax",%progbits
 270              		.align	1
 271              		.p2align 2,,3
 272              		.global	HAL_PWR_DisablePVD
 273              		.syntax unified
 274              		.thumb
 275              		.thumb_func
 276              		.type	HAL_PWR_DisablePVD, %function
 277              	HAL_PWR_DisablePVD:
 278              	.LFB146:
 279              		.loc 1 481 1 is_stmt 1 view -0
 280              		.cfi_startproc
 281              		@ args = 0, pretend = 0, frame = 0
 282              		@ frame_needed = 0, uses_anonymous_args = 0
 283              		@ link register save eliminated.
 284              		.loc 1 483 3 view .LVU46
 285 0000 024A     		ldr	r2, .L38
ARM GAS  C:\Users\DEVELO~1\AppData\Local\Temp\cc677bLb.s 			page 6


 286 0002 1368     		ldr	r3, [r2]
 287 0004 23F01003 		bic	r3, r3, #16
 288 0008 1360     		str	r3, [r2]
 289              		.loc 1 484 1 is_stmt 0 view .LVU47
 290 000a 7047     		bx	lr
 291              	.L39:
 292              		.align	2
 293              	.L38:
 294 000c 00480258 		.word	1476544512
 295              		.cfi_endproc
 296              	.LFE146:
 297              		.size	HAL_PWR_DisablePVD, .-HAL_PWR_DisablePVD
 298              		.section	.text.HAL_PWR_EnableWakeUpPin,"ax",%progbits
 299              		.align	1
 300              		.p2align 2,,3
 301              		.global	HAL_PWR_EnableWakeUpPin
 302              		.syntax unified
 303              		.thumb
 304              		.thumb_func
 305              		.type	HAL_PWR_EnableWakeUpPin, %function
 306              	HAL_PWR_EnableWakeUpPin:
 307              	.LVL6:
 308              	.LFB147:
 309              		.loc 1 508 1 is_stmt 1 view -0
 310              		.cfi_startproc
 311              		@ args = 0, pretend = 0, frame = 0
 312              		@ frame_needed = 0, uses_anonymous_args = 0
 313              		.loc 1 510 3 view .LVU49
 314 0000 1028     		cmp	r0, #16
 315              		.loc 1 508 1 is_stmt 0 view .LVU50
 316 0002 10B5     		push	{r4, lr}
 317              		.cfi_def_cfa_offset 8
 318              		.cfi_offset 4, -8
 319              		.cfi_offset 14, -4
 320              		.loc 1 508 1 view .LVU51
 321 0004 0446     		mov	r4, r0
 322 0006 16D8     		bhi	.L41
 323 0008 144B     		ldr	r3, .L49
 324 000a C340     		lsrs	r3, r3, r0
 325 000c DB07     		lsls	r3, r3, #31
 326 000e 1AD4     		bmi	.L46
 327              	.L43:
 328              		.loc 1 510 17 discriminator 14 view .LVU52
 329 0010 40F60800 		movw	r0, #2056
 330              	.LVL7:
 331              		.loc 1 510 17 discriminator 14 view .LVU53
 332 0014 41F21003 		movw	r3, #4112
 333 0018 9C42     		cmp	r4, r3
 334 001a 18BF     		it	ne
 335 001c 8442     		cmpne	r4, r0
 336 001e 0CBF     		ite	eq
 337 0020 0120     		moveq	r0, #1
 338 0022 0020     		movne	r0, #0
 339              	.L42:
 340              		.loc 1 510 3 discriminator 20 view .LVU54
 341 0024 FFF7FEFF 		bl	assert_param
 342              	.LVL8:
ARM GAS  C:\Users\DEVELO~1\AppData\Local\Temp\cc677bLb.s 			page 7


 343              		.loc 1 516 3 is_stmt 1 discriminator 20 view .LVU55
 344 0028 0D4A     		ldr	r2, .L49+4
 345 002a 0E4B     		ldr	r3, .L49+8
 346 002c 916A     		ldr	r1, [r2, #40]
 347 002e 0B40     		ands	r3, r3, r1
 348 0030 2343     		orrs	r3, r3, r4
 349 0032 9362     		str	r3, [r2, #40]
 350              		.loc 1 517 1 is_stmt 0 discriminator 20 view .LVU56
 351 0034 10BD     		pop	{r4, pc}
 352              	.LVL9:
 353              	.L41:
 354              		.loc 1 510 17 discriminator 10 view .LVU57
 355 0036 20F40053 		bic	r3, r0, #8192
 356 003a 202B     		cmp	r3, #32
 357 003c 03D0     		beq	.L46
 358 003e 40F20113 		movw	r3, #257
 359 0042 9842     		cmp	r0, r3
 360 0044 01D1     		bne	.L48
 361              	.L46:
 362              		.loc 1 510 3 view .LVU58
 363 0046 0120     		movs	r0, #1
 364              	.LVL10:
 365              		.loc 1 510 3 view .LVU59
 366 0048 ECE7     		b	.L42
 367              	.LVL11:
 368              	.L48:
 369              		.loc 1 510 17 discriminator 12 view .LVU60
 370 004a 40F20223 		movw	r3, #514
 371 004e 9842     		cmp	r0, r3
 372 0050 F9D0     		beq	.L46
 373 0052 40F20443 		movw	r3, #1028
 374 0056 9842     		cmp	r0, r3
 375 0058 F5D0     		beq	.L46
 376 005a D9E7     		b	.L43
 377              	.L50:
 378              		.align	2
 379              	.L49:
 380 005c 16010100 		.word	65814
 381 0060 00480258 		.word	1476544512
 382 0064 C0C000F0 		.word	-268386112
 383              		.cfi_endproc
 384              	.LFE147:
 385              		.size	HAL_PWR_EnableWakeUpPin, .-HAL_PWR_EnableWakeUpPin
 386              		.section	.text.HAL_PWR_DisableWakeUpPin,"ax",%progbits
 387              		.align	1
 388              		.p2align 2,,3
 389              		.global	HAL_PWR_DisableWakeUpPin
 390              		.syntax unified
 391              		.thumb
 392              		.thumb_func
 393              		.type	HAL_PWR_DisableWakeUpPin, %function
 394              	HAL_PWR_DisableWakeUpPin:
 395              	.LVL12:
 396              	.LFB148:
 397              		.loc 1 537 1 is_stmt 1 view -0
 398              		.cfi_startproc
 399              		@ args = 0, pretend = 0, frame = 0
ARM GAS  C:\Users\DEVELO~1\AppData\Local\Temp\cc677bLb.s 			page 8


 400              		@ frame_needed = 0, uses_anonymous_args = 0
 401              		.loc 1 539 3 view .LVU62
 402 0000 1028     		cmp	r0, #16
 403              		.loc 1 537 1 is_stmt 0 view .LVU63
 404 0002 10B5     		push	{r4, lr}
 405              		.cfi_def_cfa_offset 8
 406              		.cfi_offset 4, -8
 407              		.cfi_offset 14, -4
 408              		.loc 1 537 1 view .LVU64
 409 0004 0446     		mov	r4, r0
 410 0006 17D8     		bhi	.L52
 411 0008 154B     		ldr	r3, .L60
 412 000a C340     		lsrs	r3, r3, r0
 413 000c DB07     		lsls	r3, r3, #31
 414 000e 1BD4     		bmi	.L57
 415              	.L54:
 416              		.loc 1 539 17 discriminator 14 view .LVU65
 417 0010 40F60800 		movw	r0, #2056
 418              	.LVL13:
 419              		.loc 1 539 17 discriminator 14 view .LVU66
 420 0014 41F21003 		movw	r3, #4112
 421 0018 9C42     		cmp	r4, r3
 422 001a 18BF     		it	ne
 423 001c 8442     		cmpne	r4, r0
 424 001e 0CBF     		ite	eq
 425 0020 0120     		moveq	r0, #1
 426 0022 0020     		movne	r0, #0
 427              	.L53:
 428              		.loc 1 539 3 discriminator 20 view .LVU67
 429 0024 FFF7FEFF 		bl	assert_param
 430              	.LVL14:
 431              		.loc 1 542 3 is_stmt 1 discriminator 20 view .LVU68
 432 0028 0E4A     		ldr	r2, .L60+4
 433 002a 04F03F04 		and	r4, r4, #63
 434              	.LVL15:
 435              		.loc 1 542 3 is_stmt 0 discriminator 20 view .LVU69
 436 002e 936A     		ldr	r3, [r2, #40]
 437 0030 23EA0403 		bic	r3, r3, r4
 438 0034 9362     		str	r3, [r2, #40]
 439              		.loc 1 543 1 discriminator 20 view .LVU70
 440 0036 10BD     		pop	{r4, pc}
 441              	.LVL16:
 442              	.L52:
 443              		.loc 1 539 17 discriminator 10 view .LVU71
 444 0038 20F40053 		bic	r3, r0, #8192
 445 003c 202B     		cmp	r3, #32
 446 003e 03D0     		beq	.L57
 447 0040 40F20113 		movw	r3, #257
 448 0044 9842     		cmp	r0, r3
 449 0046 01D1     		bne	.L59
 450              	.L57:
 451              		.loc 1 539 3 view .LVU72
 452 0048 0120     		movs	r0, #1
 453              	.LVL17:
 454              		.loc 1 539 3 view .LVU73
 455 004a EBE7     		b	.L53
 456              	.LVL18:
ARM GAS  C:\Users\DEVELO~1\AppData\Local\Temp\cc677bLb.s 			page 9


 457              	.L59:
 458              		.loc 1 539 17 discriminator 12 view .LVU74
 459 004c 40F20223 		movw	r3, #514
 460 0050 9842     		cmp	r0, r3
 461 0052 F9D0     		beq	.L57
 462 0054 40F20443 		movw	r3, #1028
 463 0058 9842     		cmp	r0, r3
 464 005a F5D0     		beq	.L57
 465 005c D8E7     		b	.L54
 466              	.L61:
 467 005e 00BF     		.align	2
 468              	.L60:
 469 0060 16010100 		.word	65814
 470 0064 00480258 		.word	1476544512
 471              		.cfi_endproc
 472              	.LFE148:
 473              		.size	HAL_PWR_DisableWakeUpPin, .-HAL_PWR_DisableWakeUpPin
 474              		.section	.text.HAL_PWR_EnterSLEEPMode,"ax",%progbits
 475              		.align	1
 476              		.p2align 2,,3
 477              		.global	HAL_PWR_EnterSLEEPMode
 478              		.syntax unified
 479              		.thumb
 480              		.thumb_func
 481              		.type	HAL_PWR_EnterSLEEPMode, %function
 482              	HAL_PWR_EnterSLEEPMode:
 483              	.LVL19:
 484              	.LFB149:
 485              		.loc 1 565 1 is_stmt 1 view -0
 486              		.cfi_startproc
 487              		@ args = 0, pretend = 0, frame = 0
 488              		@ frame_needed = 0, uses_anonymous_args = 0
 489              		.loc 1 567 3 view .LVU76
 490 0000 0128     		cmp	r0, #1
 491              		.loc 1 565 1 is_stmt 0 view .LVU77
 492 0002 10B5     		push	{r4, lr}
 493              		.cfi_def_cfa_offset 8
 494              		.cfi_offset 4, -8
 495              		.cfi_offset 14, -4
 496              		.loc 1 565 1 view .LVU78
 497 0004 0C46     		mov	r4, r1
 498              		.loc 1 567 3 view .LVU79
 499 0006 8CBF     		ite	hi
 500 0008 0020     		movhi	r0, #0
 501              	.LVL20:
 502              		.loc 1 567 3 view .LVU80
 503 000a 0120     		movls	r0, #1
 504 000c FFF7FEFF 		bl	assert_param
 505              	.LVL21:
 506              		.loc 1 568 3 is_stmt 1 view .LVU81
 507 0010 601E     		subs	r0, r4, #1
 508 0012 0128     		cmp	r0, #1
 509 0014 8CBF     		ite	hi
 510 0016 0020     		movhi	r0, #0
 511 0018 0120     		movls	r0, #1
 512 001a FFF7FEFF 		bl	assert_param
 513              	.LVL22:
ARM GAS  C:\Users\DEVELO~1\AppData\Local\Temp\cc677bLb.s 			page 10


 514              		.loc 1 571 3 view .LVU82
 515              		.loc 1 574 3 view .LVU83
 516 001e 054A     		ldr	r2, .L67
 517              		.loc 1 577 6 is_stmt 0 view .LVU84
 518 0020 012C     		cmp	r4, #1
 519              		.loc 1 574 3 view .LVU85
 520 0022 1369     		ldr	r3, [r2, #16]
 521 0024 23F00403 		bic	r3, r3, #4
 522 0028 1361     		str	r3, [r2, #16]
 523              		.loc 1 577 3 is_stmt 1 view .LVU86
 524              		.loc 1 577 6 is_stmt 0 view .LVU87
 525 002a 01D0     		beq	.L66
 526              		.loc 1 585 5 is_stmt 1 view .LVU88
 527              		.syntax unified
 528              	@ 585 "./drivers/stm32h7xx-hal-driver/Src/stm32h7xx_hal_pwr.c" 1
 529 002c 20BF     		wfe
 530              	@ 0 "" 2
 531              		.loc 1 587 1 is_stmt 0 view .LVU89
 532              		.thumb
 533              		.syntax unified
 534 002e 10BD     		pop	{r4, pc}
 535              	.L66:
 536              		.loc 1 580 5 is_stmt 1 view .LVU90
 537              		.syntax unified
 538              	@ 580 "./drivers/stm32h7xx-hal-driver/Src/stm32h7xx_hal_pwr.c" 1
 539 0030 30BF     		wfi
 540              	@ 0 "" 2
 541              		.loc 1 587 1 is_stmt 0 view .LVU91
 542              		.thumb
 543              		.syntax unified
 544 0032 10BD     		pop	{r4, pc}
 545              	.L68:
 546              		.align	2
 547              	.L67:
 548 0034 00ED00E0 		.word	-536810240
 549              		.cfi_endproc
 550              	.LFE149:
 551              		.size	HAL_PWR_EnterSLEEPMode, .-HAL_PWR_EnterSLEEPMode
 552              		.section	.text.HAL_PWR_EnterSTOPMode,"ax",%progbits
 553              		.align	1
 554              		.p2align 2,,3
 555              		.global	HAL_PWR_EnterSTOPMode
 556              		.syntax unified
 557              		.thumb
 558              		.thumb_func
 559              		.type	HAL_PWR_EnterSTOPMode, %function
 560              	HAL_PWR_EnterSTOPMode:
 561              	.LVL23:
 562              	.LFB150:
 563              		.loc 1 619 1 is_stmt 1 view -0
 564              		.cfi_startproc
 565              		@ args = 0, pretend = 0, frame = 0
 566              		@ frame_needed = 0, uses_anonymous_args = 0
 567              		.loc 1 621 3 view .LVU93
 568 0000 0128     		cmp	r0, #1
 569              		.loc 1 619 1 is_stmt 0 view .LVU94
 570 0002 38B5     		push	{r3, r4, r5, lr}
ARM GAS  C:\Users\DEVELO~1\AppData\Local\Temp\cc677bLb.s 			page 11


 571              		.cfi_def_cfa_offset 16
 572              		.cfi_offset 3, -16
 573              		.cfi_offset 4, -12
 574              		.cfi_offset 5, -8
 575              		.cfi_offset 14, -4
 576              		.loc 1 619 1 view .LVU95
 577 0004 0C46     		mov	r4, r1
 578 0006 0546     		mov	r5, r0
 579              		.loc 1 621 3 view .LVU96
 580 0008 8CBF     		ite	hi
 581 000a 0020     		movhi	r0, #0
 582              	.LVL24:
 583              		.loc 1 621 3 view .LVU97
 584 000c 0120     		movls	r0, #1
 585 000e FFF7FEFF 		bl	assert_param
 586              	.LVL25:
 587              		.loc 1 622 3 is_stmt 1 view .LVU98
 588 0012 601E     		subs	r0, r4, #1
 589 0014 0128     		cmp	r0, #1
 590 0016 8CBF     		ite	hi
 591 0018 0020     		movhi	r0, #0
 592 001a 0120     		movls	r0, #1
 593 001c FFF7FEFF 		bl	assert_param
 594              	.LVL26:
 595              		.loc 1 625 3 view .LVU99
 596 0020 104B     		ldr	r3, .L74
 597              		.loc 1 651 3 is_stmt 0 view .LVU100
 598 0022 1149     		ldr	r1, .L74+4
 599              		.loc 1 625 3 view .LVU101
 600 0024 1A68     		ldr	r2, [r3]
 601 0026 22F00102 		bic	r2, r2, #1
 602 002a 2A43     		orrs	r2, r2, r5
 603 002c 1A60     		str	r2, [r3]
 604              		.loc 1 642 3 is_stmt 1 view .LVU102
 605 002e 1A69     		ldr	r2, [r3, #16]
 606 0030 22F00502 		bic	r2, r2, #5
 607 0034 1A61     		str	r2, [r3, #16]
 608              		.loc 1 646 3 view .LVU103
 609 0036 1A69     		ldr	r2, [r3, #16]
 610 0038 22F00202 		bic	r2, r2, #2
 611 003c 1A61     		str	r2, [r3, #16]
 612              		.loc 1 651 3 view .LVU104
 613 003e 0B69     		ldr	r3, [r1, #16]
 614 0040 43F00403 		orr	r3, r3, #4
 615 0044 0B61     		str	r3, [r1, #16]
 616              		.loc 1 654 3 view .LVU105
 617              	.LBB10:
 618              	.LBI10:
 619              		.file 2 "../../../os/common/ext/ARM/CMSIS/Core/Include/cmsis_gcc.h"
 620              		.loc 2 877 27 view .LVU106
 621              	.LBB11:
 622              		.loc 2 879 3 view .LVU107
 623              		.syntax unified
 624              	@ 879 "../../../os/common/ext/ARM/CMSIS/Core/Include/cmsis_gcc.h" 1
 625 0046 BFF34F8F 		dsb 0xF
 626              	@ 0 "" 2
 627              		.thumb
ARM GAS  C:\Users\DEVELO~1\AppData\Local\Temp\cc677bLb.s 			page 12


 628              		.syntax unified
 629              	.LBE11:
 630              	.LBE10:
 631              		.loc 1 655 3 view .LVU108
 632              	.LBB12:
 633              	.LBI12:
 634              		.loc 2 866 27 view .LVU109
 635              	.LBB13:
 636              		.loc 2 868 3 view .LVU110
 637              		.syntax unified
 638              	@ 868 "../../../os/common/ext/ARM/CMSIS/Core/Include/cmsis_gcc.h" 1
 639 004a BFF36F8F 		isb 0xF
 640              	@ 0 "" 2
 641              		.thumb
 642              		.syntax unified
 643              	.LBE13:
 644              	.LBE12:
 645              		.loc 1 658 3 view .LVU111
 646              		.loc 1 658 6 is_stmt 0 view .LVU112
 647 004e 012C     		cmp	r4, #1
 648 0050 06D0     		beq	.L73
 649              		.loc 1 666 5 is_stmt 1 view .LVU113
 650              		.syntax unified
 651              	@ 666 "./drivers/stm32h7xx-hal-driver/Src/stm32h7xx_hal_pwr.c" 1
 652 0052 20BF     		wfe
 653              	@ 0 "" 2
 654              		.thumb
 655              		.syntax unified
 656              	.L71:
 657              		.loc 1 670 3 view .LVU114
 658 0054 044A     		ldr	r2, .L74+4
 659 0056 1369     		ldr	r3, [r2, #16]
 660 0058 23F00403 		bic	r3, r3, #4
 661 005c 1361     		str	r3, [r2, #16]
 662              		.loc 1 671 1 is_stmt 0 view .LVU115
 663 005e 38BD     		pop	{r3, r4, r5, pc}
 664              	.LVL27:
 665              	.L73:
 666              		.loc 1 661 5 is_stmt 1 view .LVU116
 667              		.syntax unified
 668              	@ 661 "./drivers/stm32h7xx-hal-driver/Src/stm32h7xx_hal_pwr.c" 1
 669 0060 30BF     		wfi
 670              	@ 0 "" 2
 671              		.thumb
 672              		.syntax unified
 673 0062 F7E7     		b	.L71
 674              	.L75:
 675              		.align	2
 676              	.L74:
 677 0064 00480258 		.word	1476544512
 678 0068 00ED00E0 		.word	-536810240
 679              		.cfi_endproc
 680              	.LFE150:
 681              		.size	HAL_PWR_EnterSTOPMode, .-HAL_PWR_EnterSTOPMode
 682              		.section	.text.HAL_PWR_EnterSTANDBYMode,"ax",%progbits
 683              		.align	1
 684              		.p2align 2,,3
ARM GAS  C:\Users\DEVELO~1\AppData\Local\Temp\cc677bLb.s 			page 13


 685              		.global	HAL_PWR_EnterSTANDBYMode
 686              		.syntax unified
 687              		.thumb
 688              		.thumb_func
 689              		.type	HAL_PWR_EnterSTANDBYMode, %function
 690              	HAL_PWR_EnterSTANDBYMode:
 691              	.LFB151:
 692              		.loc 1 690 1 view -0
 693              		.cfi_startproc
 694              		@ args = 0, pretend = 0, frame = 0
 695              		@ frame_needed = 0, uses_anonymous_args = 0
 696              		@ link register save eliminated.
 697              		.loc 1 708 3 view .LVU118
 698 0000 094B     		ldr	r3, .L77
 699              		.loc 1 717 3 is_stmt 0 view .LVU119
 700 0002 0A49     		ldr	r1, .L77+4
 701              		.loc 1 708 3 view .LVU120
 702 0004 1A69     		ldr	r2, [r3, #16]
 703 0006 42F00502 		orr	r2, r2, #5
 704 000a 1A61     		str	r2, [r3, #16]
 705              		.loc 1 712 3 is_stmt 1 view .LVU121
 706 000c 1A69     		ldr	r2, [r3, #16]
 707 000e 42F00202 		orr	r2, r2, #2
 708 0012 1A61     		str	r2, [r3, #16]
 709              		.loc 1 717 3 view .LVU122
 710 0014 0B69     		ldr	r3, [r1, #16]
 711 0016 43F00403 		orr	r3, r3, #4
 712 001a 0B61     		str	r3, [r1, #16]
 713              		.loc 1 720 3 view .LVU123
 714              	.LBB14:
 715              	.LBI14:
 716              		.loc 2 877 27 view .LVU124
 717              	.LBB15:
 718              		.loc 2 879 3 view .LVU125
 719              		.syntax unified
 720              	@ 879 "../../../os/common/ext/ARM/CMSIS/Core/Include/cmsis_gcc.h" 1
 721 001c BFF34F8F 		dsb 0xF
 722              	@ 0 "" 2
 723              		.thumb
 724              		.syntax unified
 725              	.LBE15:
 726              	.LBE14:
 727              		.loc 1 721 3 view .LVU126
 728              	.LBB16:
 729              	.LBI16:
 730              		.loc 2 866 27 view .LVU127
 731              	.LBB17:
 732              		.loc 2 868 3 view .LVU128
 733              		.syntax unified
 734              	@ 868 "../../../os/common/ext/ARM/CMSIS/Core/Include/cmsis_gcc.h" 1
 735 0020 BFF36F8F 		isb 0xF
 736              	@ 0 "" 2
 737              		.thumb
 738              		.syntax unified
 739              	.LBE17:
 740              	.LBE16:
 741              		.loc 1 729 3 view .LVU129
ARM GAS  C:\Users\DEVELO~1\AppData\Local\Temp\cc677bLb.s 			page 14


 742              		.syntax unified
 743              	@ 729 "./drivers/stm32h7xx-hal-driver/Src/stm32h7xx_hal_pwr.c" 1
 744 0024 30BF     		wfi
 745              	@ 0 "" 2
 746              		.loc 1 730 1 is_stmt 0 view .LVU130
 747              		.thumb
 748              		.syntax unified
 749 0026 7047     		bx	lr
 750              	.L78:
 751              		.align	2
 752              	.L77:
 753 0028 00480258 		.word	1476544512
 754 002c 00ED00E0 		.word	-536810240
 755              		.cfi_endproc
 756              	.LFE151:
 757              		.size	HAL_PWR_EnterSTANDBYMode, .-HAL_PWR_EnterSTANDBYMode
 758              		.section	.text.HAL_PWR_EnableSleepOnExit,"ax",%progbits
 759              		.align	1
 760              		.p2align 2,,3
 761              		.global	HAL_PWR_EnableSleepOnExit
 762              		.syntax unified
 763              		.thumb
 764              		.thumb_func
 765              		.type	HAL_PWR_EnableSleepOnExit, %function
 766              	HAL_PWR_EnableSleepOnExit:
 767              	.LFB152:
 768              		.loc 1 742 1 is_stmt 1 view -0
 769              		.cfi_startproc
 770              		@ args = 0, pretend = 0, frame = 0
 771              		@ frame_needed = 0, uses_anonymous_args = 0
 772              		@ link register save eliminated.
 773              		.loc 1 744 3 view .LVU132
 774 0000 024A     		ldr	r2, .L80
 775 0002 1369     		ldr	r3, [r2, #16]
 776 0004 43F00203 		orr	r3, r3, #2
 777 0008 1361     		str	r3, [r2, #16]
 778              		.loc 1 745 1 is_stmt 0 view .LVU133
 779 000a 7047     		bx	lr
 780              	.L81:
 781              		.align	2
 782              	.L80:
 783 000c 00ED00E0 		.word	-536810240
 784              		.cfi_endproc
 785              	.LFE152:
 786              		.size	HAL_PWR_EnableSleepOnExit, .-HAL_PWR_EnableSleepOnExit
 787              		.section	.text.HAL_PWR_DisableSleepOnExit,"ax",%progbits
 788              		.align	1
 789              		.p2align 2,,3
 790              		.global	HAL_PWR_DisableSleepOnExit
 791              		.syntax unified
 792              		.thumb
 793              		.thumb_func
 794              		.type	HAL_PWR_DisableSleepOnExit, %function
 795              	HAL_PWR_DisableSleepOnExit:
 796              	.LFB153:
 797              		.loc 1 755 1 is_stmt 1 view -0
 798              		.cfi_startproc
ARM GAS  C:\Users\DEVELO~1\AppData\Local\Temp\cc677bLb.s 			page 15


 799              		@ args = 0, pretend = 0, frame = 0
 800              		@ frame_needed = 0, uses_anonymous_args = 0
 801              		@ link register save eliminated.
 802              		.loc 1 757 3 view .LVU135
 803 0000 024A     		ldr	r2, .L83
 804 0002 1369     		ldr	r3, [r2, #16]
 805 0004 23F00203 		bic	r3, r3, #2
 806 0008 1361     		str	r3, [r2, #16]
 807              		.loc 1 758 1 is_stmt 0 view .LVU136
 808 000a 7047     		bx	lr
 809              	.L84:
 810              		.align	2
 811              	.L83:
 812 000c 00ED00E0 		.word	-536810240
 813              		.cfi_endproc
 814              	.LFE153:
 815              		.size	HAL_PWR_DisableSleepOnExit, .-HAL_PWR_DisableSleepOnExit
 816              		.section	.text.HAL_PWR_EnableSEVOnPend,"ax",%progbits
 817              		.align	1
 818              		.p2align 2,,3
 819              		.global	HAL_PWR_EnableSEVOnPend
 820              		.syntax unified
 821              		.thumb
 822              		.thumb_func
 823              		.type	HAL_PWR_EnableSEVOnPend, %function
 824              	HAL_PWR_EnableSEVOnPend:
 825              	.LFB154:
 826              		.loc 1 768 1 is_stmt 1 view -0
 827              		.cfi_startproc
 828              		@ args = 0, pretend = 0, frame = 0
 829              		@ frame_needed = 0, uses_anonymous_args = 0
 830              		@ link register save eliminated.
 831              		.loc 1 770 3 view .LVU138
 832 0000 024A     		ldr	r2, .L86
 833 0002 1369     		ldr	r3, [r2, #16]
 834 0004 43F01003 		orr	r3, r3, #16
 835 0008 1361     		str	r3, [r2, #16]
 836              		.loc 1 771 1 is_stmt 0 view .LVU139
 837 000a 7047     		bx	lr
 838              	.L87:
 839              		.align	2
 840              	.L86:
 841 000c 00ED00E0 		.word	-536810240
 842              		.cfi_endproc
 843              	.LFE154:
 844              		.size	HAL_PWR_EnableSEVOnPend, .-HAL_PWR_EnableSEVOnPend
 845              		.section	.text.HAL_PWR_DisableSEVOnPend,"ax",%progbits
 846              		.align	1
 847              		.p2align 2,,3
 848              		.global	HAL_PWR_DisableSEVOnPend
 849              		.syntax unified
 850              		.thumb
 851              		.thumb_func
 852              		.type	HAL_PWR_DisableSEVOnPend, %function
 853              	HAL_PWR_DisableSEVOnPend:
 854              	.LFB155:
 855              		.loc 1 780 1 is_stmt 1 view -0
ARM GAS  C:\Users\DEVELO~1\AppData\Local\Temp\cc677bLb.s 			page 16


 856              		.cfi_startproc
 857              		@ args = 0, pretend = 0, frame = 0
 858              		@ frame_needed = 0, uses_anonymous_args = 0
 859              		@ link register save eliminated.
 860              		.loc 1 782 3 view .LVU141
 861 0000 024A     		ldr	r2, .L89
 862 0002 1369     		ldr	r3, [r2, #16]
 863 0004 23F01003 		bic	r3, r3, #16
 864 0008 1361     		str	r3, [r2, #16]
 865              		.loc 1 783 1 is_stmt 0 view .LVU142
 866 000a 7047     		bx	lr
 867              	.L90:
 868              		.align	2
 869              	.L89:
 870 000c 00ED00E0 		.word	-536810240
 871              		.cfi_endproc
 872              	.LFE155:
 873              		.size	HAL_PWR_DisableSEVOnPend, .-HAL_PWR_DisableSEVOnPend
 874              		.section	.text.HAL_PWR_PVDCallback,"ax",%progbits
 875              		.align	1
 876              		.p2align 2,,3
 877              		.weak	HAL_PWR_PVDCallback
 878              		.syntax unified
 879              		.thumb
 880              		.thumb_func
 881              		.type	HAL_PWR_PVDCallback, %function
 882              	HAL_PWR_PVDCallback:
 883              	.LFB157:
 884              		.loc 1 854 1 is_stmt 1 view -0
 885              		.cfi_startproc
 886              		@ args = 0, pretend = 0, frame = 0
 887              		@ frame_needed = 0, uses_anonymous_args = 0
 888              		@ link register save eliminated.
 889              		.loc 1 858 1 view .LVU144
 890 0000 7047     		bx	lr
 891              		.cfi_endproc
 892              	.LFE157:
 893              		.size	HAL_PWR_PVDCallback, .-HAL_PWR_PVDCallback
 894 0002 00BF     		.section	.text.HAL_PWR_PVD_IRQHandler,"ax",%progbits
 895              		.align	1
 896              		.p2align 2,,3
 897              		.global	HAL_PWR_PVD_IRQHandler
 898              		.syntax unified
 899              		.thumb
 900              		.thumb_func
 901              		.type	HAL_PWR_PVD_IRQHandler, %function
 902              	HAL_PWR_PVD_IRQHandler:
 903              	.LFB156:
 904              		.loc 1 809 1 view -0
 905              		.cfi_startproc
 906              		@ args = 0, pretend = 0, frame = 0
 907              		@ frame_needed = 0, uses_anonymous_args = 0
 908              		.loc 1 838 3 view .LVU146
 909              		.loc 1 809 1 is_stmt 0 view .LVU147
 910 0000 08B5     		push	{r3, lr}
 911              		.cfi_def_cfa_offset 8
 912              		.cfi_offset 3, -8
ARM GAS  C:\Users\DEVELO~1\AppData\Local\Temp\cc677bLb.s 			page 17


 913              		.cfi_offset 14, -4
 914              		.loc 1 838 7 view .LVU148
 915 0002 4FF0B043 		mov	r3, #1476395008
 916 0006 D3F88820 		ldr	r2, [r3, #136]
 917              		.loc 1 838 6 view .LVU149
 918 000a D203     		lsls	r2, r2, #15
 919 000c 00D4     		bmi	.L98
 920              		.loc 1 847 1 view .LVU150
 921 000e 08BD     		pop	{r3, pc}
 922              	.L98:
 923              		.loc 1 841 5 is_stmt 1 view .LVU151
 924 0010 D3F88820 		ldr	r2, [r3, #136]
 925 0014 42F48032 		orr	r2, r2, #65536
 926 0018 C3F88820 		str	r2, [r3, #136]
 927              		.loc 1 844 5 view .LVU152
 928 001c FFF7FEFF 		bl	HAL_PWR_PVDCallback
 929              	.LVL28:
 930              		.loc 1 847 1 is_stmt 0 view .LVU153
 931 0020 08BD     		pop	{r3, pc}
 932              		.cfi_endproc
 933              	.LFE156:
 934              		.size	HAL_PWR_PVD_IRQHandler, .-HAL_PWR_PVD_IRQHandler
 935 0022 00BF     		.text
 936              	.Letext0:
 937              		.file 3 "c:\\chibistudio\\tools\\gnu tools arm embedded\\11.3 2022.08\\arm-none-eabi\\include\\mac
 938              		.file 4 "c:\\chibistudio\\tools\\gnu tools arm embedded\\11.3 2022.08\\arm-none-eabi\\include\\sys
 939              		.file 5 "../../../os/common/ext/ARM/CMSIS/Core/Include/core_cm7.h"
 940              		.file 6 "../../../os/common/ext/ST/STM32H7xx/stm32h743xx.h"
 941              		.file 7 "./drivers/stm32h7xx-hal-driver/Inc/stm32h7xx_hal_pwr.h"
 942              		.section	.debug_info,"",%progbits
 943              	.Ldebug_info0:
 944 0000 950A0000 		.4byte	0xa95
 945 0004 0500     		.2byte	0x5
 946 0006 01       		.byte	0x1
 947 0007 04       		.byte	0x4
 948 0008 00000000 		.4byte	.Ldebug_abbrev0
 949 000c 19       		.uleb128 0x19
 950 000d 69000000 		.4byte	.LASF128
 951 0011 1D       		.byte	0x1d
 952 0012 BE020000 		.4byte	.LASF129
 953 0016 1C000000 		.4byte	.LASF130
 954 001a 0C000000 		.4byte	.LLRL7
 955 001e 00000000 		.4byte	0
 956 0022 00000000 		.4byte	.Ldebug_line0
 957 0026 03       		.uleb128 0x3
 958 0027 02       		.byte	0x2
 959 0028 05       		.byte	0x5
 960 0029 59040000 		.4byte	.LASF0
 961 002d 03       		.uleb128 0x3
 962 002e 01       		.byte	0x1
 963 002f 06       		.byte	0x6
 964 0030 73010000 		.4byte	.LASF1
 965 0034 0D       		.uleb128 0xd
 966 0035 5A000000 		.4byte	.LASF5
 967 0039 03       		.byte	0x3
 968 003a 2B       		.byte	0x2b
 969 003b 18       		.byte	0x18
ARM GAS  C:\Users\DEVELO~1\AppData\Local\Temp\cc677bLb.s 			page 18


 970 003c 40000000 		.4byte	0x40
 971 0040 03       		.uleb128 0x3
 972 0041 01       		.byte	0x1
 973 0042 08       		.byte	0x8
 974 0043 25040000 		.4byte	.LASF2
 975 0047 03       		.uleb128 0x3
 976 0048 02       		.byte	0x2
 977 0049 07       		.byte	0x7
 978 004a 9C020000 		.4byte	.LASF3
 979 004e 03       		.uleb128 0x3
 980 004f 04       		.byte	0x4
 981 0050 05       		.byte	0x5
 982 0051 A4010000 		.4byte	.LASF4
 983 0055 0D       		.uleb128 0xd
 984 0056 0E020000 		.4byte	.LASF6
 985 005a 03       		.byte	0x3
 986 005b 4F       		.byte	0x4f
 987 005c 19       		.byte	0x19
 988 005d 61000000 		.4byte	0x61
 989 0061 03       		.uleb128 0x3
 990 0062 04       		.byte	0x4
 991 0063 07       		.byte	0x7
 992 0064 86010000 		.4byte	.LASF7
 993 0068 03       		.uleb128 0x3
 994 0069 08       		.byte	0x8
 995 006a 05       		.byte	0x5
 996 006b CD010000 		.4byte	.LASF8
 997 006f 03       		.uleb128 0x3
 998 0070 08       		.byte	0x8
 999 0071 07       		.byte	0x7
 1000 0072 26010000 		.4byte	.LASF9
 1001 0076 1A       		.uleb128 0x1a
 1002 0077 04       		.byte	0x4
 1003 0078 05       		.byte	0x5
 1004 0079 696E7400 		.ascii	"int\000"
 1005 007d 03       		.uleb128 0x3
 1006 007e 04       		.byte	0x4
 1007 007f 07       		.byte	0x7
 1008 0080 5B020000 		.4byte	.LASF10
 1009 0084 0D       		.uleb128 0xd
 1010 0085 AD050000 		.4byte	.LASF11
 1011 0089 04       		.byte	0x4
 1012 008a 18       		.byte	0x18
 1013 008b 13       		.byte	0x13
 1014 008c 34000000 		.4byte	0x34
 1015 0090 0A       		.uleb128 0xa
 1016 0091 84000000 		.4byte	0x84
 1017 0095 0D       		.uleb128 0xd
 1018 0096 A6040000 		.4byte	.LASF12
 1019 009a 04       		.byte	0x4
 1020 009b 30       		.byte	0x30
 1021 009c 14       		.byte	0x14
 1022 009d 55000000 		.4byte	0x55
 1023 00a1 0A       		.uleb128 0xa
 1024 00a2 95000000 		.4byte	0x95
 1025 00a6 0E       		.uleb128 0xe
 1026 00a7 A1000000 		.4byte	0xa1
ARM GAS  C:\Users\DEVELO~1\AppData\Local\Temp\cc677bLb.s 			page 19


 1027 00ab 1B       		.uleb128 0x1b
 1028 00ac AC02     		.2byte	0x2ac
 1029 00ae 05       		.byte	0x5
 1030 00af C701     		.2byte	0x1c7
 1031 00b1 09       		.byte	0x9
 1032 00b2 5B030000 		.4byte	0x35b
 1033 00b6 01       		.uleb128 0x1
 1034 00b7 43010000 		.4byte	.LASF13
 1035 00bb 05       		.byte	0x5
 1036 00bc C901     		.2byte	0x1c9
 1037 00be 12       		.byte	0x12
 1038 00bf A6000000 		.4byte	0xa6
 1039 00c3 00       		.byte	0
 1040 00c4 01       		.uleb128 0x1
 1041 00c5 6E010000 		.4byte	.LASF14
 1042 00c9 05       		.byte	0x5
 1043 00ca CA01     		.2byte	0x1ca
 1044 00cc 12       		.byte	0x12
 1045 00cd A1000000 		.4byte	0xa1
 1046 00d1 04       		.byte	0x4
 1047 00d2 01       		.uleb128 0x1
 1048 00d3 97020000 		.4byte	.LASF15
 1049 00d7 05       		.byte	0x5
 1050 00d8 CB01     		.2byte	0x1cb
 1051 00da 12       		.byte	0x12
 1052 00db A1000000 		.4byte	0xa1
 1053 00df 08       		.byte	0x8
 1054 00e0 01       		.uleb128 0x1
 1055 00e1 F5020000 		.4byte	.LASF16
 1056 00e5 05       		.byte	0x5
 1057 00e6 CC01     		.2byte	0x1cc
 1058 00e8 12       		.byte	0x12
 1059 00e9 A1000000 		.4byte	0xa1
 1060 00ed 0C       		.byte	0xc
 1061 00ee 06       		.uleb128 0x6
 1062 00ef 53435200 		.ascii	"SCR\000"
 1063 00f3 05       		.byte	0x5
 1064 00f4 CD01     		.2byte	0x1cd
 1065 00f6 12       		.byte	0x12
 1066 00f7 A1000000 		.4byte	0xa1
 1067 00fb 10       		.byte	0x10
 1068 00fc 06       		.uleb128 0x6
 1069 00fd 43435200 		.ascii	"CCR\000"
 1070 0101 05       		.byte	0x5
 1071 0102 CE01     		.2byte	0x1ce
 1072 0104 12       		.byte	0x12
 1073 0105 A1000000 		.4byte	0xa1
 1074 0109 14       		.byte	0x14
 1075 010a 01       		.uleb128 0x1
 1076 010b 08000000 		.4byte	.LASF17
 1077 010f 05       		.byte	0x5
 1078 0110 CF01     		.2byte	0x1cf
 1079 0112 12       		.byte	0x12
 1080 0113 6B030000 		.4byte	0x36b
 1081 0117 18       		.byte	0x18
 1082 0118 01       		.uleb128 0x1
 1083 0119 33040000 		.4byte	.LASF18
ARM GAS  C:\Users\DEVELO~1\AppData\Local\Temp\cc677bLb.s 			page 20


 1084 011d 05       		.byte	0x5
 1085 011e D001     		.2byte	0x1d0
 1086 0120 12       		.byte	0x12
 1087 0121 A1000000 		.4byte	0xa1
 1088 0125 24       		.byte	0x24
 1089 0126 01       		.uleb128 0x1
 1090 0127 67030000 		.4byte	.LASF19
 1091 012b 05       		.byte	0x5
 1092 012c D101     		.2byte	0x1d1
 1093 012e 12       		.byte	0x12
 1094 012f A1000000 		.4byte	0xa1
 1095 0133 28       		.byte	0x28
 1096 0134 01       		.uleb128 0x1
 1097 0135 07060000 		.4byte	.LASF20
 1098 0139 05       		.byte	0x5
 1099 013a D201     		.2byte	0x1d2
 1100 013c 12       		.byte	0x12
 1101 013d A1000000 		.4byte	0xa1
 1102 0141 2C       		.byte	0x2c
 1103 0142 01       		.uleb128 0x1
 1104 0143 FB020000 		.4byte	.LASF21
 1105 0147 05       		.byte	0x5
 1106 0148 D301     		.2byte	0x1d3
 1107 014a 12       		.byte	0x12
 1108 014b A1000000 		.4byte	0xa1
 1109 014f 30       		.byte	0x30
 1110 0150 01       		.uleb128 0x1
 1111 0151 07030000 		.4byte	.LASF22
 1112 0155 05       		.byte	0x5
 1113 0156 D401     		.2byte	0x1d4
 1114 0158 12       		.byte	0x12
 1115 0159 A1000000 		.4byte	0xa1
 1116 015d 34       		.byte	0x34
 1117 015e 01       		.uleb128 0x1
 1118 015f 04020000 		.4byte	.LASF23
 1119 0163 05       		.byte	0x5
 1120 0164 D501     		.2byte	0x1d5
 1121 0166 12       		.byte	0x12
 1122 0167 A1000000 		.4byte	0xa1
 1123 016b 38       		.byte	0x38
 1124 016c 01       		.uleb128 0x1
 1125 016d 09020000 		.4byte	.LASF24
 1126 0171 05       		.byte	0x5
 1127 0172 D601     		.2byte	0x1d6
 1128 0174 12       		.byte	0x12
 1129 0175 A1000000 		.4byte	0xa1
 1130 0179 3C       		.byte	0x3c
 1131 017a 01       		.uleb128 0x1
 1132 017b 67010000 		.4byte	.LASF25
 1133 017f 05       		.byte	0x5
 1134 0180 D701     		.2byte	0x1d7
 1135 0182 12       		.byte	0x12
 1136 0183 85030000 		.4byte	0x385
 1137 0187 40       		.byte	0x40
 1138 0188 01       		.uleb128 0x1
 1139 0189 40020000 		.4byte	.LASF26
 1140 018d 05       		.byte	0x5
ARM GAS  C:\Users\DEVELO~1\AppData\Local\Temp\cc677bLb.s 			page 21


 1141 018e D801     		.2byte	0x1d8
 1142 0190 12       		.byte	0x12
 1143 0191 A6000000 		.4byte	0xa6
 1144 0195 48       		.byte	0x48
 1145 0196 01       		.uleb128 0x1
 1146 0197 6C030000 		.4byte	.LASF27
 1147 019b 05       		.byte	0x5
 1148 019c D901     		.2byte	0x1d9
 1149 019e 12       		.byte	0x12
 1150 019f A6000000 		.4byte	0xa6
 1151 01a3 4C       		.byte	0x4c
 1152 01a4 01       		.uleb128 0x1
 1153 01a5 63040000 		.4byte	.LASF28
 1154 01a9 05       		.byte	0x5
 1155 01aa DA01     		.2byte	0x1da
 1156 01ac 12       		.byte	0x12
 1157 01ad 9F030000 		.4byte	0x39f
 1158 01b1 50       		.byte	0x50
 1159 01b2 01       		.uleb128 0x1
 1160 01b3 BF050000 		.4byte	.LASF29
 1161 01b7 05       		.byte	0x5
 1162 01b8 DB01     		.2byte	0x1db
 1163 01ba 12       		.byte	0x12
 1164 01bb B9030000 		.4byte	0x3b9
 1165 01bf 60       		.byte	0x60
 1166 01c0 01       		.uleb128 0x1
 1167 01c1 BE030000 		.4byte	.LASF30
 1168 01c5 05       		.byte	0x5
 1169 01c6 DC01     		.2byte	0x1dc
 1170 01c8 12       		.byte	0x12
 1171 01c9 BE030000 		.4byte	0x3be
 1172 01cd 74       		.byte	0x74
 1173 01ce 01       		.uleb128 0x1
 1174 01cf 3D010000 		.4byte	.LASF31
 1175 01d3 05       		.byte	0x5
 1176 01d4 DD01     		.2byte	0x1dd
 1177 01d6 12       		.byte	0x12
 1178 01d7 A6000000 		.4byte	0xa6
 1179 01db 78       		.byte	0x78
 1180 01dc 06       		.uleb128 0x6
 1181 01dd 43545200 		.ascii	"CTR\000"
 1182 01e1 05       		.byte	0x5
 1183 01e2 DE01     		.2byte	0x1de
 1184 01e4 12       		.byte	0x12
 1185 01e5 A6000000 		.4byte	0xa6
 1186 01e9 7C       		.byte	0x7c
 1187 01ea 01       		.uleb128 0x1
 1188 01eb 4E030000 		.4byte	.LASF32
 1189 01ef 05       		.byte	0x5
 1190 01f0 DF01     		.2byte	0x1df
 1191 01f2 12       		.byte	0x12
 1192 01f3 A6000000 		.4byte	0xa6
 1193 01f7 80       		.byte	0x80
 1194 01f8 01       		.uleb128 0x1
 1195 01f9 54020000 		.4byte	.LASF33
 1196 01fd 05       		.byte	0x5
 1197 01fe E001     		.2byte	0x1e0
ARM GAS  C:\Users\DEVELO~1\AppData\Local\Temp\cc677bLb.s 			page 22


 1198 0200 12       		.byte	0x12
 1199 0201 A1000000 		.4byte	0xa1
 1200 0205 84       		.byte	0x84
 1201 0206 01       		.uleb128 0x1
 1202 0207 01060000 		.4byte	.LASF34
 1203 020b 05       		.byte	0x5
 1204 020c E101     		.2byte	0x1e1
 1205 020e 12       		.byte	0x12
 1206 020f A1000000 		.4byte	0xa1
 1207 0213 88       		.byte	0x88
 1208 0214 01       		.uleb128 0x1
 1209 0215 78040000 		.4byte	.LASF35
 1210 0219 05       		.byte	0x5
 1211 021a E201     		.2byte	0x1e2
 1212 021c 12       		.byte	0x12
 1213 021d CE030000 		.4byte	0x3ce
 1214 0221 8C       		.byte	0x8c
 1215 0222 02       		.uleb128 0x2
 1216 0223 64000000 		.4byte	.LASF36
 1217 0227 E301     		.2byte	0x1e3
 1218 0229 A1000000 		.4byte	0xa1
 1219 022d 0002     		.2byte	0x200
 1220 022f 02       		.uleb128 0x2
 1221 0230 5F050000 		.4byte	.LASF37
 1222 0234 E401     		.2byte	0x1e4
 1223 0236 DE030000 		.4byte	0x3de
 1224 023a 0402     		.2byte	0x204
 1225 023c 02       		.uleb128 0x2
 1226 023d AC030000 		.4byte	.LASF38
 1227 0241 E501     		.2byte	0x1e5
 1228 0243 A6000000 		.4byte	0xa6
 1229 0247 4002     		.2byte	0x240
 1230 0249 02       		.uleb128 0x2
 1231 024a B2030000 		.4byte	.LASF39
 1232 024e E601     		.2byte	0x1e6
 1233 0250 A6000000 		.4byte	0xa6
 1234 0254 4402     		.2byte	0x244
 1235 0256 02       		.uleb128 0x2
 1236 0257 B8030000 		.4byte	.LASF40
 1237 025b E701     		.2byte	0x1e7
 1238 025d A6000000 		.4byte	0xa6
 1239 0261 4802     		.2byte	0x248
 1240 0263 02       		.uleb128 0x2
 1241 0264 9C040000 		.4byte	.LASF41
 1242 0268 E801     		.2byte	0x1e8
 1243 026a BE030000 		.4byte	0x3be
 1244 026e 4C02     		.2byte	0x24c
 1245 0270 02       		.uleb128 0x2
 1246 0271 FC010000 		.4byte	.LASF42
 1247 0275 E901     		.2byte	0x1e9
 1248 0277 A1000000 		.4byte	0xa1
 1249 027b 5002     		.2byte	0x250
 1250 027d 02       		.uleb128 0x2
 1251 027e EE030000 		.4byte	.LASF43
 1252 0282 EA01     		.2byte	0x1ea
 1253 0284 BE030000 		.4byte	0x3be
 1254 0288 5402     		.2byte	0x254
ARM GAS  C:\Users\DEVELO~1\AppData\Local\Temp\cc677bLb.s 			page 23


 1255 028a 02       		.uleb128 0x2
 1256 028b 6A040000 		.4byte	.LASF44
 1257 028f EB01     		.2byte	0x1eb
 1258 0291 A1000000 		.4byte	0xa1
 1259 0295 5802     		.2byte	0x258
 1260 0297 02       		.uleb128 0x2
 1261 0298 31050000 		.4byte	.LASF45
 1262 029c EC01     		.2byte	0x1ec
 1263 029e A1000000 		.4byte	0xa1
 1264 02a2 5C02     		.2byte	0x25c
 1265 02a4 02       		.uleb128 0x2
 1266 02a5 72040000 		.4byte	.LASF46
 1267 02a9 ED01     		.2byte	0x1ed
 1268 02ab A1000000 		.4byte	0xa1
 1269 02af 6002     		.2byte	0x260
 1270 02b1 02       		.uleb128 0x2
 1271 02b2 70020000 		.4byte	.LASF47
 1272 02b6 EE01     		.2byte	0x1ee
 1273 02b8 A1000000 		.4byte	0xa1
 1274 02bc 6402     		.2byte	0x264
 1275 02be 02       		.uleb128 0x2
 1276 02bf 47020000 		.4byte	.LASF48
 1277 02c3 EF01     		.2byte	0x1ef
 1278 02c5 A1000000 		.4byte	0xa1
 1279 02c9 6802     		.2byte	0x268
 1280 02cb 02       		.uleb128 0x2
 1281 02cc 18050000 		.4byte	.LASF49
 1282 02d0 F001     		.2byte	0x1f0
 1283 02d2 A1000000 		.4byte	0xa1
 1284 02d6 6C02     		.2byte	0x26c
 1285 02d8 02       		.uleb128 0x2
 1286 02d9 39040000 		.4byte	.LASF50
 1287 02dd F101     		.2byte	0x1f1
 1288 02df A1000000 		.4byte	0xa1
 1289 02e3 7002     		.2byte	0x270
 1290 02e5 02       		.uleb128 0x2
 1291 02e6 78020000 		.4byte	.LASF51
 1292 02ea F201     		.2byte	0x1f2
 1293 02ec A1000000 		.4byte	0xa1
 1294 02f0 7402     		.2byte	0x274
 1295 02f2 02       		.uleb128 0x2
 1296 02f3 F8030000 		.4byte	.LASF52
 1297 02f7 F301     		.2byte	0x1f3
 1298 02f9 EE030000 		.4byte	0x3ee
 1299 02fd 7802     		.2byte	0x278
 1300 02ff 02       		.uleb128 0x2
 1301 0300 00030000 		.4byte	.LASF53
 1302 0304 F401     		.2byte	0x1f4
 1303 0306 A1000000 		.4byte	0xa1
 1304 030a 9002     		.2byte	0x290
 1305 030c 02       		.uleb128 0x2
 1306 030d AD010000 		.4byte	.LASF54
 1307 0311 F501     		.2byte	0x1f5
 1308 0313 A1000000 		.4byte	0xa1
 1309 0317 9402     		.2byte	0x294
 1310 0319 02       		.uleb128 0x2
 1311 031a 8D030000 		.4byte	.LASF55
ARM GAS  C:\Users\DEVELO~1\AppData\Local\Temp\cc677bLb.s 			page 24


 1312 031e F601     		.2byte	0x1f6
 1313 0320 A1000000 		.4byte	0xa1
 1314 0324 9802     		.2byte	0x298
 1315 0326 02       		.uleb128 0x2
 1316 0327 4F020000 		.4byte	.LASF56
 1317 032b F701     		.2byte	0x1f7
 1318 032d A1000000 		.4byte	0xa1
 1319 0331 9C02     		.2byte	0x29c
 1320 0333 02       		.uleb128 0x2
 1321 0334 15000000 		.4byte	.LASF57
 1322 0338 F801     		.2byte	0x1f8
 1323 033a A1000000 		.4byte	0xa1
 1324 033e A002     		.2byte	0x2a0
 1325 0340 02       		.uleb128 0x2
 1326 0341 02040000 		.4byte	.LASF58
 1327 0345 F901     		.2byte	0x1f9
 1328 0347 BE030000 		.4byte	0x3be
 1329 034b A402     		.2byte	0x2a4
 1330 034d 02       		.uleb128 0x2
 1331 034e 18030000 		.4byte	.LASF59
 1332 0352 FA01     		.2byte	0x1fa
 1333 0354 A1000000 		.4byte	0xa1
 1334 0358 A802     		.2byte	0x2a8
 1335 035a 00       		.byte	0
 1336 035b 04       		.uleb128 0x4
 1337 035c 90000000 		.4byte	0x90
 1338 0360 6B030000 		.4byte	0x36b
 1339 0364 05       		.uleb128 0x5
 1340 0365 7D000000 		.4byte	0x7d
 1341 0369 0B       		.byte	0xb
 1342 036a 00       		.byte	0
 1343 036b 0A       		.uleb128 0xa
 1344 036c 5B030000 		.4byte	0x35b
 1345 0370 04       		.uleb128 0x4
 1346 0371 A6000000 		.4byte	0xa6
 1347 0375 80030000 		.4byte	0x380
 1348 0379 05       		.uleb128 0x5
 1349 037a 7D000000 		.4byte	0x7d
 1350 037e 01       		.byte	0x1
 1351 037f 00       		.byte	0
 1352 0380 0E       		.uleb128 0xe
 1353 0381 70030000 		.4byte	0x370
 1354 0385 0A       		.uleb128 0xa
 1355 0386 80030000 		.4byte	0x380
 1356 038a 04       		.uleb128 0x4
 1357 038b A6000000 		.4byte	0xa6
 1358 038f 9A030000 		.4byte	0x39a
 1359 0393 05       		.uleb128 0x5
 1360 0394 7D000000 		.4byte	0x7d
 1361 0398 03       		.byte	0x3
 1362 0399 00       		.byte	0
 1363 039a 0E       		.uleb128 0xe
 1364 039b 8A030000 		.4byte	0x38a
 1365 039f 0A       		.uleb128 0xa
 1366 03a0 9A030000 		.4byte	0x39a
 1367 03a4 04       		.uleb128 0x4
 1368 03a5 A6000000 		.4byte	0xa6
ARM GAS  C:\Users\DEVELO~1\AppData\Local\Temp\cc677bLb.s 			page 25


 1369 03a9 B4030000 		.4byte	0x3b4
 1370 03ad 05       		.uleb128 0x5
 1371 03ae 7D000000 		.4byte	0x7d
 1372 03b2 04       		.byte	0x4
 1373 03b3 00       		.byte	0
 1374 03b4 0E       		.uleb128 0xe
 1375 03b5 A4030000 		.4byte	0x3a4
 1376 03b9 0A       		.uleb128 0xa
 1377 03ba B4030000 		.4byte	0x3b4
 1378 03be 04       		.uleb128 0x4
 1379 03bf 95000000 		.4byte	0x95
 1380 03c3 CE030000 		.4byte	0x3ce
 1381 03c7 05       		.uleb128 0x5
 1382 03c8 7D000000 		.4byte	0x7d
 1383 03cc 00       		.byte	0
 1384 03cd 00       		.byte	0
 1385 03ce 04       		.uleb128 0x4
 1386 03cf 95000000 		.4byte	0x95
 1387 03d3 DE030000 		.4byte	0x3de
 1388 03d7 05       		.uleb128 0x5
 1389 03d8 7D000000 		.4byte	0x7d
 1390 03dc 5C       		.byte	0x5c
 1391 03dd 00       		.byte	0
 1392 03de 04       		.uleb128 0x4
 1393 03df 95000000 		.4byte	0x95
 1394 03e3 EE030000 		.4byte	0x3ee
 1395 03e7 05       		.uleb128 0x5
 1396 03e8 7D000000 		.4byte	0x7d
 1397 03ec 0E       		.byte	0xe
 1398 03ed 00       		.byte	0
 1399 03ee 04       		.uleb128 0x4
 1400 03ef 95000000 		.4byte	0x95
 1401 03f3 FE030000 		.4byte	0x3fe
 1402 03f7 05       		.uleb128 0x5
 1403 03f8 7D000000 		.4byte	0x7d
 1404 03fc 05       		.byte	0x5
 1405 03fd 00       		.byte	0
 1406 03fe 12       		.uleb128 0x12
 1407 03ff 37020000 		.4byte	.LASF60
 1408 0403 05       		.byte	0x5
 1409 0404 FB01     		.2byte	0x1fb
 1410 0406 03       		.byte	0x3
 1411 0407 AB000000 		.4byte	0xab
 1412 040b 04       		.uleb128 0x4
 1413 040c 95000000 		.4byte	0x95
 1414 0410 1B040000 		.4byte	0x41b
 1415 0414 05       		.uleb128 0x5
 1416 0415 7D000000 		.4byte	0x7d
 1417 0419 01       		.byte	0x1
 1418 041a 00       		.byte	0
 1419 041b 04       		.uleb128 0x4
 1420 041c 95000000 		.4byte	0x95
 1421 0420 2B040000 		.4byte	0x42b
 1422 0424 05       		.uleb128 0x5
 1423 0425 7D000000 		.4byte	0x7d
 1424 0429 09       		.byte	0x9
 1425 042a 00       		.byte	0
ARM GAS  C:\Users\DEVELO~1\AppData\Local\Temp\cc677bLb.s 			page 26


 1426 042b 14       		.uleb128 0x14
 1427 042c AC       		.byte	0xac
 1428 042d 5203     		.2byte	0x352
 1429 042f F4050000 		.4byte	0x5f4
 1430 0433 01       		.uleb128 0x1
 1431 0434 DC030000 		.4byte	.LASF61
 1432 0438 06       		.byte	0x6
 1433 0439 5403     		.2byte	0x354
 1434 043b 0F       		.byte	0xf
 1435 043c A1000000 		.4byte	0xa1
 1436 0440 00       		.byte	0
 1437 0441 01       		.uleb128 0x1
 1438 0442 09010000 		.4byte	.LASF62
 1439 0446 06       		.byte	0x6
 1440 0447 5503     		.2byte	0x355
 1441 0449 0F       		.byte	0xf
 1442 044a A1000000 		.4byte	0xa1
 1443 044e 04       		.byte	0x4
 1444 044f 01       		.uleb128 0x1
 1445 0450 52010000 		.4byte	.LASF63
 1446 0454 06       		.byte	0x6
 1447 0455 5603     		.2byte	0x356
 1448 0457 0F       		.byte	0xf
 1449 0458 A1000000 		.4byte	0xa1
 1450 045c 08       		.byte	0x8
 1451 045d 01       		.uleb128 0x1
 1452 045e DF050000 		.4byte	.LASF64
 1453 0462 06       		.byte	0x6
 1454 0463 5703     		.2byte	0x357
 1455 0465 0F       		.byte	0xf
 1456 0466 A1000000 		.4byte	0xa1
 1457 046a 0C       		.byte	0xc
 1458 046b 01       		.uleb128 0x1
 1459 046c CE040000 		.4byte	.LASF65
 1460 0470 06       		.byte	0x6
 1461 0471 5803     		.2byte	0x358
 1462 0473 0F       		.byte	0xf
 1463 0474 A1000000 		.4byte	0xa1
 1464 0478 10       		.byte	0x10
 1465 0479 01       		.uleb128 0x1
 1466 047a 11060000 		.4byte	.LASF66
 1467 047e 06       		.byte	0x6
 1468 047f 5903     		.2byte	0x359
 1469 0481 0F       		.byte	0xf
 1470 0482 A1000000 		.4byte	0xa1
 1471 0486 14       		.byte	0x14
 1472 0487 01       		.uleb128 0x1
 1473 0488 C8030000 		.4byte	.LASF67
 1474 048c 06       		.byte	0x6
 1475 048d 5A03     		.2byte	0x35a
 1476 048f 0F       		.byte	0xf
 1477 0490 0B040000 		.4byte	0x40b
 1478 0494 18       		.byte	0x18
 1479 0495 01       		.uleb128 0x1
 1480 0496 E2030000 		.4byte	.LASF68
 1481 049a 06       		.byte	0x6
 1482 049b 5B03     		.2byte	0x35b
ARM GAS  C:\Users\DEVELO~1\AppData\Local\Temp\cc677bLb.s 			page 27


 1483 049d 0F       		.byte	0xf
 1484 049e A1000000 		.4byte	0xa1
 1485 04a2 20       		.byte	0x20
 1486 04a3 01       		.uleb128 0x1
 1487 04a4 0F010000 		.4byte	.LASF69
 1488 04a8 06       		.byte	0x6
 1489 04a9 5C03     		.2byte	0x35c
 1490 04ab 0F       		.byte	0xf
 1491 04ac A1000000 		.4byte	0xa1
 1492 04b0 24       		.byte	0x24
 1493 04b1 01       		.uleb128 0x1
 1494 04b2 59010000 		.4byte	.LASF70
 1495 04b6 06       		.byte	0x6
 1496 04b7 5D03     		.2byte	0x35d
 1497 04b9 0F       		.byte	0xf
 1498 04ba A1000000 		.4byte	0xa1
 1499 04be 28       		.byte	0x28
 1500 04bf 01       		.uleb128 0x1
 1501 04c0 E6050000 		.4byte	.LASF71
 1502 04c4 06       		.byte	0x6
 1503 04c5 5E03     		.2byte	0x35e
 1504 04c7 0F       		.byte	0xf
 1505 04c8 A1000000 		.4byte	0xa1
 1506 04cc 2C       		.byte	0x2c
 1507 04cd 01       		.uleb128 0x1
 1508 04ce A5050000 		.4byte	.LASF72
 1509 04d2 06       		.byte	0x6
 1510 04d3 5F03     		.2byte	0x35f
 1511 04d5 0F       		.byte	0xf
 1512 04d6 A1000000 		.4byte	0xa1
 1513 04da 30       		.byte	0x30
 1514 04db 01       		.uleb128 0x1
 1515 04dc 9D050000 		.4byte	.LASF73
 1516 04e0 06       		.byte	0x6
 1517 04e1 6003     		.2byte	0x360
 1518 04e3 0F       		.byte	0xf
 1519 04e4 A1000000 		.4byte	0xa1
 1520 04e8 34       		.byte	0x34
 1521 04e9 01       		.uleb128 0x1
 1522 04ea D2030000 		.4byte	.LASF74
 1523 04ee 06       		.byte	0x6
 1524 04ef 6103     		.2byte	0x361
 1525 04f1 0F       		.byte	0xf
 1526 04f2 0B040000 		.4byte	0x40b
 1527 04f6 38       		.byte	0x38
 1528 04f7 01       		.uleb128 0x1
 1529 04f8 E8030000 		.4byte	.LASF75
 1530 04fc 06       		.byte	0x6
 1531 04fd 6203     		.2byte	0x362
 1532 04ff 0F       		.byte	0xf
 1533 0500 A1000000 		.4byte	0xa1
 1534 0504 40       		.byte	0x40
 1535 0505 01       		.uleb128 0x1
 1536 0506 15010000 		.4byte	.LASF76
 1537 050a 06       		.byte	0x6
 1538 050b 6303     		.2byte	0x363
 1539 050d 0F       		.byte	0xf
ARM GAS  C:\Users\DEVELO~1\AppData\Local\Temp\cc677bLb.s 			page 28


 1540 050e A1000000 		.4byte	0xa1
 1541 0512 44       		.byte	0x44
 1542 0513 01       		.uleb128 0x1
 1543 0514 60010000 		.4byte	.LASF77
 1544 0518 06       		.byte	0x6
 1545 0519 6403     		.2byte	0x364
 1546 051b 0F       		.byte	0xf
 1547 051c A1000000 		.4byte	0xa1
 1548 0520 48       		.byte	0x48
 1549 0521 01       		.uleb128 0x1
 1550 0522 ED050000 		.4byte	.LASF78
 1551 0526 06       		.byte	0x6
 1552 0527 6503     		.2byte	0x365
 1553 0529 0F       		.byte	0xf
 1554 052a A1000000 		.4byte	0xa1
 1555 052e 4C       		.byte	0x4c
 1556 052f 01       		.uleb128 0x1
 1557 0530 0D000000 		.4byte	.LASF79
 1558 0534 06       		.byte	0x6
 1559 0535 6603     		.2byte	0x366
 1560 0537 0F       		.byte	0xf
 1561 0538 A1000000 		.4byte	0xa1
 1562 053c 50       		.byte	0x50
 1563 053d 01       		.uleb128 0x1
 1564 053e 00000000 		.4byte	.LASF80
 1565 0542 06       		.byte	0x6
 1566 0543 6703     		.2byte	0x367
 1567 0545 0F       		.byte	0xf
 1568 0546 A1000000 		.4byte	0xa1
 1569 054a 54       		.byte	0x54
 1570 054b 01       		.uleb128 0x1
 1571 054c 78040000 		.4byte	.LASF35
 1572 0550 06       		.byte	0x6
 1573 0551 6803     		.2byte	0x368
 1574 0553 0F       		.byte	0xf
 1575 0554 1B040000 		.4byte	0x41b
 1576 0558 58       		.byte	0x58
 1577 0559 01       		.uleb128 0x1
 1578 055a AF020000 		.4byte	.LASF81
 1579 055e 06       		.byte	0x6
 1580 055f 6903     		.2byte	0x369
 1581 0561 0F       		.byte	0xf
 1582 0562 A1000000 		.4byte	0xa1
 1583 0566 80       		.byte	0x80
 1584 0567 01       		.uleb128 0x1
 1585 0568 69050000 		.4byte	.LASF82
 1586 056c 06       		.byte	0x6
 1587 056d 6A03     		.2byte	0x36a
 1588 056f 0F       		.byte	0xf
 1589 0570 A1000000 		.4byte	0xa1
 1590 0574 84       		.byte	0x84
 1591 0575 06       		.uleb128 0x6
 1592 0576 50523100 		.ascii	"PR1\000"
 1593 057a 06       		.byte	0x6
 1594 057b 6B03     		.2byte	0x36b
 1595 057d 0F       		.byte	0xf
 1596 057e A1000000 		.4byte	0xa1
ARM GAS  C:\Users\DEVELO~1\AppData\Local\Temp\cc677bLb.s 			page 29


 1597 0582 88       		.byte	0x88
 1598 0583 01       		.uleb128 0x1
 1599 0584 5F050000 		.4byte	.LASF37
 1600 0588 06       		.byte	0x6
 1601 0589 6C03     		.2byte	0x36c
 1602 058b 0F       		.byte	0xf
 1603 058c 95000000 		.4byte	0x95
 1604 0590 8C       		.byte	0x8c
 1605 0591 01       		.uleb128 0x1
 1606 0592 B4020000 		.4byte	.LASF83
 1607 0596 06       		.byte	0x6
 1608 0597 6D03     		.2byte	0x36d
 1609 0599 0F       		.byte	0xf
 1610 059a A1000000 		.4byte	0xa1
 1611 059e 90       		.byte	0x90
 1612 059f 01       		.uleb128 0x1
 1613 05a0 6E050000 		.4byte	.LASF84
 1614 05a4 06       		.byte	0x6
 1615 05a5 6E03     		.2byte	0x36e
 1616 05a7 0F       		.byte	0xf
 1617 05a8 A1000000 		.4byte	0xa1
 1618 05ac 94       		.byte	0x94
 1619 05ad 06       		.uleb128 0x6
 1620 05ae 50523200 		.ascii	"PR2\000"
 1621 05b2 06       		.byte	0x6
 1622 05b3 6F03     		.2byte	0x36f
 1623 05b5 0F       		.byte	0xf
 1624 05b6 A1000000 		.4byte	0xa1
 1625 05ba 98       		.byte	0x98
 1626 05bb 01       		.uleb128 0x1
 1627 05bc 9C040000 		.4byte	.LASF41
 1628 05c0 06       		.byte	0x6
 1629 05c1 7003     		.2byte	0x370
 1630 05c3 0F       		.byte	0xf
 1631 05c4 95000000 		.4byte	0x95
 1632 05c8 9C       		.byte	0x9c
 1633 05c9 01       		.uleb128 0x1
 1634 05ca B9020000 		.4byte	.LASF85
 1635 05ce 06       		.byte	0x6
 1636 05cf 7103     		.2byte	0x371
 1637 05d1 0F       		.byte	0xf
 1638 05d2 A1000000 		.4byte	0xa1
 1639 05d6 A0       		.byte	0xa0
 1640 05d7 01       		.uleb128 0x1
 1641 05d8 73050000 		.4byte	.LASF86
 1642 05dc 06       		.byte	0x6
 1643 05dd 7203     		.2byte	0x372
 1644 05df 0F       		.byte	0xf
 1645 05e0 A1000000 		.4byte	0xa1
 1646 05e4 A4       		.byte	0xa4
 1647 05e5 06       		.uleb128 0x6
 1648 05e6 50523300 		.ascii	"PR3\000"
 1649 05ea 06       		.byte	0x6
 1650 05eb 7303     		.2byte	0x373
 1651 05ed 0F       		.byte	0xf
 1652 05ee A1000000 		.4byte	0xa1
 1653 05f2 A8       		.byte	0xa8
ARM GAS  C:\Users\DEVELO~1\AppData\Local\Temp\cc677bLb.s 			page 30


 1654 05f3 00       		.byte	0
 1655 05f4 12       		.uleb128 0x12
 1656 05f5 F4050000 		.4byte	.LASF87
 1657 05f9 06       		.byte	0x6
 1658 05fa 7403     		.2byte	0x374
 1659 05fc 02       		.byte	0x2
 1660 05fd 2B040000 		.4byte	0x42b
 1661 0601 14       		.uleb128 0x14
 1662 0602 2C       		.byte	0x2c
 1663 0603 BB04     		.2byte	0x4bb
 1664 0605 A4060000 		.4byte	0x6a4
 1665 0609 06       		.uleb128 0x6
 1666 060a 43523100 		.ascii	"CR1\000"
 1667 060e 06       		.byte	0x6
 1668 060f BD04     		.2byte	0x4bd
 1669 0611 11       		.byte	0x11
 1670 0612 A1000000 		.4byte	0xa1
 1671 0616 00       		.byte	0
 1672 0617 01       		.uleb128 0x1
 1673 0618 0C060000 		.4byte	.LASF88
 1674 061c 06       		.byte	0x6
 1675 061d BE04     		.2byte	0x4be
 1676 061f 11       		.byte	0x11
 1677 0620 A1000000 		.4byte	0xa1
 1678 0624 04       		.byte	0x4
 1679 0625 06       		.uleb128 0x6
 1680 0626 43523200 		.ascii	"CR2\000"
 1681 062a 06       		.byte	0x6
 1682 062b BF04     		.2byte	0x4bf
 1683 062d 11       		.byte	0x11
 1684 062e A1000000 		.4byte	0xa1
 1685 0632 08       		.byte	0x8
 1686 0633 06       		.uleb128 0x6
 1687 0634 43523300 		.ascii	"CR3\000"
 1688 0638 06       		.byte	0x6
 1689 0639 C004     		.2byte	0x4c0
 1690 063b 11       		.byte	0x11
 1691 063c A1000000 		.4byte	0xa1
 1692 0640 0C       		.byte	0xc
 1693 0641 01       		.uleb128 0x1
 1694 0642 7F020000 		.4byte	.LASF89
 1695 0646 06       		.byte	0x6
 1696 0647 C104     		.2byte	0x4c1
 1697 0649 11       		.byte	0x11
 1698 064a A1000000 		.4byte	0xa1
 1699 064e 10       		.byte	0x10
 1700 064f 01       		.uleb128 0x1
 1701 0650 BE030000 		.4byte	.LASF30
 1702 0654 06       		.byte	0x6
 1703 0655 C204     		.2byte	0x4c2
 1704 0657 11       		.byte	0x11
 1705 0658 95000000 		.4byte	0x95
 1706 065c 14       		.byte	0x14
 1707 065d 01       		.uleb128 0x1
 1708 065e AF040000 		.4byte	.LASF90
 1709 0662 06       		.byte	0x6
 1710 0663 C304     		.2byte	0x4c3
ARM GAS  C:\Users\DEVELO~1\AppData\Local\Temp\cc677bLb.s 			page 31


 1711 0665 11       		.byte	0x11
 1712 0666 A1000000 		.4byte	0xa1
 1713 066a 18       		.byte	0x18
 1714 066b 01       		.uleb128 0x1
 1715 066c C8030000 		.4byte	.LASF67
 1716 0670 06       		.byte	0x6
 1717 0671 C404     		.2byte	0x4c4
 1718 0673 11       		.byte	0x11
 1719 0674 95000000 		.4byte	0x95
 1720 0678 1C       		.byte	0x1c
 1721 0679 01       		.uleb128 0x1
 1722 067a 7F010000 		.4byte	.LASF91
 1723 067e 06       		.byte	0x6
 1724 067f C504     		.2byte	0x4c5
 1725 0681 11       		.byte	0x11
 1726 0682 A1000000 		.4byte	0xa1
 1727 0686 20       		.byte	0x20
 1728 0687 01       		.uleb128 0x1
 1729 0688 73030000 		.4byte	.LASF92
 1730 068c 06       		.byte	0x6
 1731 068d C604     		.2byte	0x4c6
 1732 068f 11       		.byte	0x11
 1733 0690 A1000000 		.4byte	0xa1
 1734 0694 24       		.byte	0x24
 1735 0695 01       		.uleb128 0x1
 1736 0696 68020000 		.4byte	.LASF93
 1737 069a 06       		.byte	0x6
 1738 069b C704     		.2byte	0x4c7
 1739 069d 11       		.byte	0x11
 1740 069e A1000000 		.4byte	0xa1
 1741 06a2 28       		.byte	0x28
 1742 06a3 00       		.byte	0
 1743 06a4 12       		.uleb128 0x12
 1744 06a5 98010000 		.4byte	.LASF94
 1745 06a9 06       		.byte	0x6
 1746 06aa C804     		.2byte	0x4c8
 1747 06ac 03       		.byte	0x3
 1748 06ad 01060000 		.4byte	0x601
 1749 06b1 03       		.uleb128 0x3
 1750 06b2 08       		.byte	0x8
 1751 06b3 04       		.byte	0x4
 1752 06b4 D6040000 		.4byte	.LASF95
 1753 06b8 03       		.uleb128 0x3
 1754 06b9 01       		.byte	0x1
 1755 06ba 08       		.byte	0x8
 1756 06bb E2040000 		.4byte	.LASF96
 1757 06bf 03       		.uleb128 0x3
 1758 06c0 04       		.byte	0x4
 1759 06c1 04       		.byte	0x4
 1760 06c2 94030000 		.4byte	.LASF97
 1761 06c6 03       		.uleb128 0x3
 1762 06c7 08       		.byte	0x8
 1763 06c8 04       		.byte	0x4
 1764 06c9 DB010000 		.4byte	.LASF98
 1765 06cd 1C       		.uleb128 0x1c
 1766 06ce 08       		.byte	0x8
 1767 06cf 07       		.byte	0x7
ARM GAS  C:\Users\DEVELO~1\AppData\Local\Temp\cc677bLb.s 			page 32


 1768 06d0 2F       		.byte	0x2f
 1769 06d1 09       		.byte	0x9
 1770 06d2 ED060000 		.4byte	0x6ed
 1771 06d6 15       		.uleb128 0x15
 1772 06d7 49010000 		.4byte	.LASF99
 1773 06db 31       		.byte	0x31
 1774 06dc 95000000 		.4byte	0x95
 1775 06e0 00       		.byte	0
 1776 06e1 15       		.uleb128 0x15
 1777 06e2 19020000 		.4byte	.LASF100
 1778 06e6 36       		.byte	0x36
 1779 06e7 95000000 		.4byte	0x95
 1780 06eb 04       		.byte	0x4
 1781 06ec 00       		.byte	0
 1782 06ed 0D       		.uleb128 0xd
 1783 06ee BF040000 		.4byte	.LASF101
 1784 06f2 07       		.byte	0x7
 1785 06f3 3A       		.byte	0x3a
 1786 06f4 02       		.byte	0x2
 1787 06f5 CD060000 		.4byte	0x6cd
 1788 06f9 0E       		.uleb128 0xe
 1789 06fa ED060000 		.4byte	0x6ed
 1790 06fe 0B       		.uleb128 0xb
 1791 06ff 7A030000 		.4byte	.LASF112
 1792 0703 76000000 		.4byte	0x76
 1793 0707 0D070000 		.4byte	0x70d
 1794 070b 0C       		.uleb128 0xc
 1795 070c 00       		.byte	0
 1796 070d 07       		.uleb128 0x7
 1797 070e 24030000 		.4byte	.LASF102
 1798 0712 5503     		.2byte	0x355
 1799 0714 0D       		.byte	0xd
 1800 0715 00000000 		.4byte	.LFB157
 1801 0719 02000000 		.4byte	.LFE157-.LFB157
 1802 071d 01       		.uleb128 0x1
 1803 071e 9C       		.byte	0x9c
 1804 071f 08       		.uleb128 0x8
 1805 0720 39050000 		.4byte	.LASF107
 1806 0724 2803     		.2byte	0x328
 1807 0726 00000000 		.4byte	.LFB156
 1808 072a 22000000 		.4byte	.LFE156-.LFB156
 1809 072e 01       		.uleb128 0x1
 1810 072f 9C       		.byte	0x9c
 1811 0730 3E070000 		.4byte	0x73e
 1812 0734 0F       		.uleb128 0xf
 1813 0735 20000000 		.4byte	.LVL28
 1814 0739 0D070000 		.4byte	0x70d
 1815 073d 00       		.byte	0
 1816 073e 07       		.uleb128 0x7
 1817 073f 0C040000 		.4byte	.LASF103
 1818 0743 0B03     		.2byte	0x30b
 1819 0745 06       		.byte	0x6
 1820 0746 00000000 		.4byte	.LFB155
 1821 074a 10000000 		.4byte	.LFE155-.LFB155
 1822 074e 01       		.uleb128 0x1
 1823 074f 9C       		.byte	0x9c
 1824 0750 07       		.uleb128 0x7
ARM GAS  C:\Users\DEVELO~1\AppData\Local\Temp\cc677bLb.s 			page 33


 1825 0751 E7040000 		.4byte	.LASF104
 1826 0755 FF02     		.2byte	0x2ff
 1827 0757 06       		.byte	0x6
 1828 0758 00000000 		.4byte	.LFB154
 1829 075c 10000000 		.4byte	.LFE154-.LFB154
 1830 0760 01       		.uleb128 0x1
 1831 0761 9C       		.byte	0x9c
 1832 0762 07       		.uleb128 0x7
 1833 0763 78050000 		.4byte	.LASF105
 1834 0767 F202     		.2byte	0x2f2
 1835 0769 06       		.byte	0x6
 1836 076a 00000000 		.4byte	.LFB153
 1837 076e 10000000 		.4byte	.LFE153-.LFB153
 1838 0772 01       		.uleb128 0x1
 1839 0773 9C       		.byte	0x9c
 1840 0774 07       		.uleb128 0x7
 1841 0775 82040000 		.4byte	.LASF106
 1842 0779 E502     		.2byte	0x2e5
 1843 077b 06       		.byte	0x6
 1844 077c 00000000 		.4byte	.LFB152
 1845 0780 10000000 		.4byte	.LFE152-.LFB152
 1846 0784 01       		.uleb128 0x1
 1847 0785 9C       		.byte	0x9c
 1848 0786 08       		.uleb128 0x8
 1849 0787 B4010000 		.4byte	.LASF108
 1850 078b B102     		.2byte	0x2b1
 1851 078d 00000000 		.4byte	.LFB151
 1852 0791 30000000 		.4byte	.LFE151-.LFB151
 1853 0795 01       		.uleb128 0x1
 1854 0796 9C       		.byte	0x9c
 1855 0797 C4070000 		.4byte	0x7c4
 1856 079b 10       		.uleb128 0x10
 1857 079c 8A0A0000 		.4byte	0xa8a
 1858 07a0 1C000000 		.4byte	.LBI14
 1859 07a4 01       		.byte	.LVU124
 1860 07a5 1C000000 		.4byte	.LBB14
 1861 07a9 04000000 		.4byte	.LBE14-.LBB14
 1862 07ad D002     		.2byte	0x2d0
 1863 07af 10       		.uleb128 0x10
 1864 07b0 910A0000 		.4byte	0xa91
 1865 07b4 20000000 		.4byte	.LBI16
 1866 07b8 01       		.byte	.LVU127
 1867 07b9 20000000 		.4byte	.LBB16
 1868 07bd 04000000 		.4byte	.LBE16-.LBB16
 1869 07c1 D102     		.2byte	0x2d1
 1870 07c3 00       		.byte	0
 1871 07c4 08       		.uleb128 0x8
 1872 07c5 38030000 		.4byte	.LASF109
 1873 07c9 6A02     		.2byte	0x26a
 1874 07cb 00000000 		.4byte	.LFB150
 1875 07cf 6C000000 		.4byte	.LFE150-.LFB150
 1876 07d3 01       		.uleb128 0x1
 1877 07d4 9C       		.byte	0x9c
 1878 07d5 A5080000 		.4byte	0x8a5
 1879 07d9 09       		.uleb128 0x9
 1880 07da 93050000 		.4byte	.LASF110
 1881 07de 6A02     		.2byte	0x26a
ARM GAS  C:\Users\DEVELO~1\AppData\Local\Temp\cc677bLb.s 			page 34


 1882 07e0 26       		.byte	0x26
 1883 07e1 95000000 		.4byte	0x95
 1884 07e5 10000000 		.4byte	.LLST5
 1885 07e9 0C000000 		.4byte	.LVUS5
 1886 07ed 09       		.uleb128 0x9
 1887 07ee B5050000 		.4byte	.LASF111
 1888 07f2 6A02     		.2byte	0x26a
 1889 07f4 39       		.byte	0x39
 1890 07f5 84000000 		.4byte	0x84
 1891 07f9 24000000 		.4byte	.LLST6
 1892 07fd 20000000 		.4byte	.LVUS6
 1893 0801 0B       		.uleb128 0xb
 1894 0802 7A030000 		.4byte	.LASF112
 1895 0806 76000000 		.4byte	0x76
 1896 080a 10080000 		.4byte	0x810
 1897 080e 0C       		.uleb128 0xc
 1898 080f 00       		.byte	0
 1899 0810 10       		.uleb128 0x10
 1900 0811 8A0A0000 		.4byte	0xa8a
 1901 0815 46000000 		.4byte	.LBI10
 1902 0819 01       		.byte	.LVU106
 1903 081a 46000000 		.4byte	.LBB10
 1904 081e 04000000 		.4byte	.LBE10-.LBB10
 1905 0822 8E02     		.2byte	0x28e
 1906 0824 10       		.uleb128 0x10
 1907 0825 910A0000 		.4byte	0xa91
 1908 0829 4A000000 		.4byte	.LBI12
 1909 082d 01       		.byte	.LVU109
 1910 082e 4A000000 		.4byte	.LBB12
 1911 0832 04000000 		.4byte	.LBE12-.LBB12
 1912 0836 8F02     		.2byte	0x28f
 1913 0838 16       		.uleb128 0x16
 1914 0839 12000000 		.4byte	.LVL25
 1915 083d FE060000 		.4byte	0x6fe
 1916 0841 70080000 		.4byte	0x870
 1917 0845 11       		.uleb128 0x11
 1918 0846 01       		.uleb128 0x1
 1919 0847 50       		.byte	0x50
 1920 0848 26       		.uleb128 0x26
 1921 0849 31       		.byte	0x31
 1922 084a 30       		.byte	0x30
 1923 084b 75       		.byte	0x75
 1924 084c 00       		.sleb128 0
 1925 084d 75       		.byte	0x75
 1926 084e 00       		.sleb128 0
 1927 084f 40       		.byte	0x40
 1928 0850 4B       		.byte	0x4b
 1929 0851 24       		.byte	0x24
 1930 0852 22       		.byte	0x22
 1931 0853 0C       		.byte	0xc
 1932 0854 01000080 		.4byte	0x80000001
 1933 0858 2B       		.byte	0x2b
 1934 0859 28       		.byte	0x28
 1935 085a 0100     		.2byte	0x1
 1936 085c 16       		.byte	0x16
 1937 085d 13       		.byte	0x13
 1938 085e 75       		.byte	0x75
ARM GAS  C:\Users\DEVELO~1\AppData\Local\Temp\cc677bLb.s 			page 35


 1939 085f 00       		.sleb128 0
 1940 0860 40       		.byte	0x40
 1941 0861 4B       		.byte	0x4b
 1942 0862 24       		.byte	0x24
 1943 0863 22       		.byte	0x22
 1944 0864 0C       		.byte	0xc
 1945 0865 01000080 		.4byte	0x80000001
 1946 0869 2C       		.byte	0x2c
 1947 086a 28       		.byte	0x28
 1948 086b 0100     		.2byte	0x1
 1949 086d 16       		.byte	0x16
 1950 086e 13       		.byte	0x13
 1951 086f 00       		.byte	0
 1952 0870 17       		.uleb128 0x17
 1953 0871 20000000 		.4byte	.LVL26
 1954 0875 FE060000 		.4byte	0x6fe
 1955 0879 11       		.uleb128 0x11
 1956 087a 01       		.uleb128 0x1
 1957 087b 50       		.byte	0x50
 1958 087c 26       		.uleb128 0x26
 1959 087d 31       		.byte	0x31
 1960 087e 30       		.byte	0x30
 1961 087f 74       		.byte	0x74
 1962 0880 7F       		.sleb128 -1
 1963 0881 74       		.byte	0x74
 1964 0882 7F       		.sleb128 -1
 1965 0883 40       		.byte	0x40
 1966 0884 4B       		.byte	0x4b
 1967 0885 24       		.byte	0x24
 1968 0886 22       		.byte	0x22
 1969 0887 0C       		.byte	0xc
 1970 0888 01000080 		.4byte	0x80000001
 1971 088c 2B       		.byte	0x2b
 1972 088d 28       		.byte	0x28
 1973 088e 0100     		.2byte	0x1
 1974 0890 16       		.byte	0x16
 1975 0891 13       		.byte	0x13
 1976 0892 74       		.byte	0x74
 1977 0893 7F       		.sleb128 -1
 1978 0894 40       		.byte	0x40
 1979 0895 4B       		.byte	0x4b
 1980 0896 24       		.byte	0x24
 1981 0897 22       		.byte	0x22
 1982 0898 0C       		.byte	0xc
 1983 0899 01000080 		.4byte	0x80000001
 1984 089d 2C       		.byte	0x2c
 1985 089e 28       		.byte	0x28
 1986 089f 0100     		.2byte	0x1
 1987 08a1 16       		.byte	0x16
 1988 08a2 13       		.byte	0x13
 1989 08a3 00       		.byte	0
 1990 08a4 00       		.byte	0
 1991 08a5 08       		.uleb128 0x8
 1992 08a6 42040000 		.4byte	.LASF113
 1993 08aa 3402     		.2byte	0x234
 1994 08ac 00000000 		.4byte	.LFB149
 1995 08b0 38000000 		.4byte	.LFE149-.LFB149
ARM GAS  C:\Users\DEVELO~1\AppData\Local\Temp\cc677bLb.s 			page 36


 1996 08b4 01       		.uleb128 0x1
 1997 08b5 9C       		.byte	0x9c
 1998 08b6 61090000 		.4byte	0x961
 1999 08ba 09       		.uleb128 0x9
 2000 08bb 93050000 		.4byte	.LASF110
 2001 08bf 3402     		.2byte	0x234
 2002 08c1 27       		.byte	0x27
 2003 08c2 95000000 		.4byte	0x95
 2004 08c6 3B000000 		.4byte	.LLST3
 2005 08ca 37000000 		.4byte	.LVUS3
 2006 08ce 09       		.uleb128 0x9
 2007 08cf 0D030000 		.4byte	.LASF114
 2008 08d3 3402     		.2byte	0x234
 2009 08d5 3A       		.byte	0x3a
 2010 08d6 84000000 		.4byte	0x84
 2011 08da 52000000 		.4byte	.LLST4
 2012 08de 4E000000 		.4byte	.LVUS4
 2013 08e2 0B       		.uleb128 0xb
 2014 08e3 7A030000 		.4byte	.LASF112
 2015 08e7 76000000 		.4byte	0x76
 2016 08eb F1080000 		.4byte	0x8f1
 2017 08ef 0C       		.uleb128 0xc
 2018 08f0 00       		.byte	0
 2019 08f1 16       		.uleb128 0x16
 2020 08f2 10000000 		.4byte	.LVL21
 2021 08f6 FE060000 		.4byte	0x6fe
 2022 08fa 2C090000 		.4byte	0x92c
 2023 08fe 11       		.uleb128 0x11
 2024 08ff 01       		.uleb128 0x1
 2025 0900 50       		.byte	0x50
 2026 0901 29       		.uleb128 0x29
 2027 0902 31       		.byte	0x31
 2028 0903 30       		.byte	0x30
 2029 0904 A3       		.byte	0xa3
 2030 0905 01       		.uleb128 0x1
 2031 0906 50       		.byte	0x50
 2032 0907 A3       		.byte	0xa3
 2033 0908 01       		.uleb128 0x1
 2034 0909 50       		.byte	0x50
 2035 090a 40       		.byte	0x40
 2036 090b 4B       		.byte	0x4b
 2037 090c 24       		.byte	0x24
 2038 090d 22       		.byte	0x22
 2039 090e 0C       		.byte	0xc
 2040 090f 01000080 		.4byte	0x80000001
 2041 0913 2B       		.byte	0x2b
 2042 0914 28       		.byte	0x28
 2043 0915 0100     		.2byte	0x1
 2044 0917 16       		.byte	0x16
 2045 0918 13       		.byte	0x13
 2046 0919 A3       		.byte	0xa3
 2047 091a 01       		.uleb128 0x1
 2048 091b 50       		.byte	0x50
 2049 091c 40       		.byte	0x40
 2050 091d 4B       		.byte	0x4b
 2051 091e 24       		.byte	0x24
 2052 091f 22       		.byte	0x22
ARM GAS  C:\Users\DEVELO~1\AppData\Local\Temp\cc677bLb.s 			page 37


 2053 0920 0C       		.byte	0xc
 2054 0921 01000080 		.4byte	0x80000001
 2055 0925 2C       		.byte	0x2c
 2056 0926 28       		.byte	0x28
 2057 0927 0100     		.2byte	0x1
 2058 0929 16       		.byte	0x16
 2059 092a 13       		.byte	0x13
 2060 092b 00       		.byte	0
 2061 092c 17       		.uleb128 0x17
 2062 092d 1E000000 		.4byte	.LVL22
 2063 0931 FE060000 		.4byte	0x6fe
 2064 0935 11       		.uleb128 0x11
 2065 0936 01       		.uleb128 0x1
 2066 0937 50       		.byte	0x50
 2067 0938 26       		.uleb128 0x26
 2068 0939 31       		.byte	0x31
 2069 093a 30       		.byte	0x30
 2070 093b 74       		.byte	0x74
 2071 093c 7F       		.sleb128 -1
 2072 093d 74       		.byte	0x74
 2073 093e 7F       		.sleb128 -1
 2074 093f 40       		.byte	0x40
 2075 0940 4B       		.byte	0x4b
 2076 0941 24       		.byte	0x24
 2077 0942 22       		.byte	0x22
 2078 0943 0C       		.byte	0xc
 2079 0944 01000080 		.4byte	0x80000001
 2080 0948 2B       		.byte	0x2b
 2081 0949 28       		.byte	0x28
 2082 094a 0100     		.2byte	0x1
 2083 094c 16       		.byte	0x16
 2084 094d 13       		.byte	0x13
 2085 094e 74       		.byte	0x74
 2086 094f 7F       		.sleb128 -1
 2087 0950 40       		.byte	0x40
 2088 0951 4B       		.byte	0x4b
 2089 0952 24       		.byte	0x24
 2090 0953 22       		.byte	0x22
 2091 0954 0C       		.byte	0xc
 2092 0955 01000080 		.4byte	0x80000001
 2093 0959 2C       		.byte	0x2c
 2094 095a 28       		.byte	0x28
 2095 095b 0100     		.2byte	0x1
 2096 095d 16       		.byte	0x16
 2097 095e 13       		.byte	0x13
 2098 095f 00       		.byte	0
 2099 0960 00       		.byte	0
 2100 0961 08       		.uleb128 0x8
 2101 0962 1E020000 		.4byte	.LASF115
 2102 0966 1802     		.2byte	0x218
 2103 0968 00000000 		.4byte	.LFB148
 2104 096c 68000000 		.4byte	.LFE148-.LFB148
 2105 0970 01       		.uleb128 0x1
 2106 0971 9C       		.byte	0x9c
 2107 0972 A3090000 		.4byte	0x9a3
 2108 0976 09       		.uleb128 0x9
 2109 0977 1B010000 		.4byte	.LASF116
ARM GAS  C:\Users\DEVELO~1\AppData\Local\Temp\cc677bLb.s 			page 38


 2110 097b 1802     		.2byte	0x218
 2111 097d 29       		.byte	0x29
 2112 097e 95000000 		.4byte	0x95
 2113 0982 71000000 		.4byte	.LLST2
 2114 0986 65000000 		.4byte	.LVUS2
 2115 098a 0B       		.uleb128 0xb
 2116 098b 7A030000 		.4byte	.LASF112
 2117 098f 76000000 		.4byte	0x76
 2118 0993 99090000 		.4byte	0x999
 2119 0997 0C       		.uleb128 0xc
 2120 0998 00       		.byte	0
 2121 0999 0F       		.uleb128 0xf
 2122 099a 28000000 		.4byte	.LVL14
 2123 099e FE060000 		.4byte	0x6fe
 2124 09a2 00       		.byte	0
 2125 09a3 08       		.uleb128 0x8
 2126 09a4 C7050000 		.4byte	.LASF117
 2127 09a8 FB01     		.2byte	0x1fb
 2128 09aa 00000000 		.4byte	.LFB147
 2129 09ae 68000000 		.4byte	.LFE147-.LFB147
 2130 09b2 01       		.uleb128 0x1
 2131 09b3 9C       		.byte	0x9c
 2132 09b4 E5090000 		.4byte	0x9e5
 2133 09b8 09       		.uleb128 0x9
 2134 09b9 9A030000 		.4byte	.LASF118
 2135 09bd FB01     		.2byte	0x1fb
 2136 09bf 28       		.byte	0x28
 2137 09c0 95000000 		.4byte	0x95
 2138 09c4 A2000000 		.4byte	.LLST1
 2139 09c8 98000000 		.4byte	.LVUS1
 2140 09cc 0B       		.uleb128 0xb
 2141 09cd 7A030000 		.4byte	.LASF112
 2142 09d1 76000000 		.4byte	0x76
 2143 09d5 DB090000 		.4byte	0x9db
 2144 09d9 0C       		.uleb128 0xc
 2145 09da 00       		.byte	0
 2146 09db 0F       		.uleb128 0xf
 2147 09dc 28000000 		.4byte	.LVL8
 2148 09e0 FE060000 		.4byte	0x6fe
 2149 09e4 00       		.byte	0
 2150 09e5 07       		.uleb128 0x7
 2151 09e6 1E050000 		.4byte	.LASF119
 2152 09ea E001     		.2byte	0x1e0
 2153 09ec 06       		.byte	0x6
 2154 09ed 00000000 		.4byte	.LFB146
 2155 09f1 10000000 		.4byte	.LFE146-.LFB146
 2156 09f5 01       		.uleb128 0x1
 2157 09f6 9C       		.byte	0x9c
 2158 09f7 07       		.uleb128 0x7
 2159 09f8 55030000 		.4byte	.LASF120
 2160 09fc D601     		.2byte	0x1d6
 2161 09fe 06       		.byte	0x6
 2162 09ff 00000000 		.4byte	.LFB145
 2163 0a03 10000000 		.4byte	.LFE145-.LFB145
 2164 0a07 01       		.uleb128 0x1
 2165 0a08 9C       		.byte	0x9c
 2166 0a09 08       		.uleb128 0x8
ARM GAS  C:\Users\DEVELO~1\AppData\Local\Temp\cc677bLb.s 			page 39


 2167 0a0a 85020000 		.4byte	.LASF121
 2168 0a0e 9F01     		.2byte	0x19f
 2169 0a10 00000000 		.4byte	.LFB144
 2170 0a14 CC000000 		.4byte	.LFE144-.LFB144
 2171 0a18 01       		.uleb128 0x1
 2172 0a19 9C       		.byte	0x9c
 2173 0a1a 540A0000 		.4byte	0xa54
 2174 0a1e 09       		.uleb128 0x9
 2175 0a1f B4040000 		.4byte	.LASF122
 2176 0a23 9F01     		.2byte	0x19f
 2177 0a25 2F       		.byte	0x2f
 2178 0a26 540A0000 		.4byte	0xa54
 2179 0a2a C9000000 		.4byte	.LLST0
 2180 0a2e C1000000 		.4byte	.LVUS0
 2181 0a32 0B       		.uleb128 0xb
 2182 0a33 7A030000 		.4byte	.LASF112
 2183 0a37 76000000 		.4byte	0x76
 2184 0a3b 410A0000 		.4byte	0xa41
 2185 0a3f 0C       		.uleb128 0xc
 2186 0a40 00       		.byte	0
 2187 0a41 0F       		.uleb128 0xf
 2188 0a42 1E000000 		.4byte	.LVL2
 2189 0a46 FE060000 		.4byte	0x6fe
 2190 0a4a 0F       		.uleb128 0xf
 2191 0a4b 42000000 		.4byte	.LVL3
 2192 0a4f FE060000 		.4byte	0x6fe
 2193 0a53 00       		.byte	0
 2194 0a54 1D       		.uleb128 0x1d
 2195 0a55 04       		.byte	0x4
 2196 0a56 F9060000 		.4byte	0x6f9
 2197 0a5a 13       		.uleb128 0x13
 2198 0a5b E2010000 		.4byte	.LASF123
 2199 0a5f F9       		.byte	0xf9
 2200 0a60 00000000 		.4byte	.LFB143
 2201 0a64 10000000 		.4byte	.LFE143-.LFB143
 2202 0a68 01       		.uleb128 0x1
 2203 0a69 9C       		.byte	0x9c
 2204 0a6a 13       		.uleb128 0x13
 2205 0a6b FF040000 		.4byte	.LASF124
 2206 0a6f EC       		.byte	0xec
 2207 0a70 00000000 		.4byte	.LFB142
 2208 0a74 10000000 		.4byte	.LFE142-.LFB142
 2209 0a78 01       		.uleb128 0x1
 2210 0a79 9C       		.byte	0x9c
 2211 0a7a 13       		.uleb128 0x13
 2212 0a7b 50050000 		.4byte	.LASF125
 2213 0a7f E1       		.byte	0xe1
 2214 0a80 00000000 		.4byte	.LFB141
 2215 0a84 02000000 		.4byte	.LFE141-.LFB141
 2216 0a88 01       		.uleb128 0x1
 2217 0a89 9C       		.byte	0x9c
 2218 0a8a 18       		.uleb128 0x18
 2219 0a8b 1E030000 		.4byte	.LASF126
 2220 0a8f 6D03     		.2byte	0x36d
 2221 0a91 18       		.uleb128 0x18
 2222 0a92 87030000 		.4byte	.LASF127
 2223 0a96 6203     		.2byte	0x362
ARM GAS  C:\Users\DEVELO~1\AppData\Local\Temp\cc677bLb.s 			page 40


 2224 0a98 00       		.byte	0
 2225              		.section	.debug_abbrev,"",%progbits
 2226              	.Ldebug_abbrev0:
 2227 0000 01       		.uleb128 0x1
 2228 0001 0D       		.uleb128 0xd
 2229 0002 00       		.byte	0
 2230 0003 03       		.uleb128 0x3
 2231 0004 0E       		.uleb128 0xe
 2232 0005 3A       		.uleb128 0x3a
 2233 0006 0B       		.uleb128 0xb
 2234 0007 3B       		.uleb128 0x3b
 2235 0008 05       		.uleb128 0x5
 2236 0009 39       		.uleb128 0x39
 2237 000a 0B       		.uleb128 0xb
 2238 000b 49       		.uleb128 0x49
 2239 000c 13       		.uleb128 0x13
 2240 000d 38       		.uleb128 0x38
 2241 000e 0B       		.uleb128 0xb
 2242 000f 00       		.byte	0
 2243 0010 00       		.byte	0
 2244 0011 02       		.uleb128 0x2
 2245 0012 0D       		.uleb128 0xd
 2246 0013 00       		.byte	0
 2247 0014 03       		.uleb128 0x3
 2248 0015 0E       		.uleb128 0xe
 2249 0016 3A       		.uleb128 0x3a
 2250 0017 21       		.uleb128 0x21
 2251 0018 05       		.sleb128 5
 2252 0019 3B       		.uleb128 0x3b
 2253 001a 05       		.uleb128 0x5
 2254 001b 39       		.uleb128 0x39
 2255 001c 21       		.uleb128 0x21
 2256 001d 12       		.sleb128 18
 2257 001e 49       		.uleb128 0x49
 2258 001f 13       		.uleb128 0x13
 2259 0020 38       		.uleb128 0x38
 2260 0021 05       		.uleb128 0x5
 2261 0022 00       		.byte	0
 2262 0023 00       		.byte	0
 2263 0024 03       		.uleb128 0x3
 2264 0025 24       		.uleb128 0x24
 2265 0026 00       		.byte	0
 2266 0027 0B       		.uleb128 0xb
 2267 0028 0B       		.uleb128 0xb
 2268 0029 3E       		.uleb128 0x3e
 2269 002a 0B       		.uleb128 0xb
 2270 002b 03       		.uleb128 0x3
 2271 002c 0E       		.uleb128 0xe
 2272 002d 00       		.byte	0
 2273 002e 00       		.byte	0
 2274 002f 04       		.uleb128 0x4
 2275 0030 01       		.uleb128 0x1
 2276 0031 01       		.byte	0x1
 2277 0032 49       		.uleb128 0x49
 2278 0033 13       		.uleb128 0x13
 2279 0034 01       		.uleb128 0x1
 2280 0035 13       		.uleb128 0x13
ARM GAS  C:\Users\DEVELO~1\AppData\Local\Temp\cc677bLb.s 			page 41


 2281 0036 00       		.byte	0
 2282 0037 00       		.byte	0
 2283 0038 05       		.uleb128 0x5
 2284 0039 21       		.uleb128 0x21
 2285 003a 00       		.byte	0
 2286 003b 49       		.uleb128 0x49
 2287 003c 13       		.uleb128 0x13
 2288 003d 2F       		.uleb128 0x2f
 2289 003e 0B       		.uleb128 0xb
 2290 003f 00       		.byte	0
 2291 0040 00       		.byte	0
 2292 0041 06       		.uleb128 0x6
 2293 0042 0D       		.uleb128 0xd
 2294 0043 00       		.byte	0
 2295 0044 03       		.uleb128 0x3
 2296 0045 08       		.uleb128 0x8
 2297 0046 3A       		.uleb128 0x3a
 2298 0047 0B       		.uleb128 0xb
 2299 0048 3B       		.uleb128 0x3b
 2300 0049 05       		.uleb128 0x5
 2301 004a 39       		.uleb128 0x39
 2302 004b 0B       		.uleb128 0xb
 2303 004c 49       		.uleb128 0x49
 2304 004d 13       		.uleb128 0x13
 2305 004e 38       		.uleb128 0x38
 2306 004f 0B       		.uleb128 0xb
 2307 0050 00       		.byte	0
 2308 0051 00       		.byte	0
 2309 0052 07       		.uleb128 0x7
 2310 0053 2E       		.uleb128 0x2e
 2311 0054 00       		.byte	0
 2312 0055 3F       		.uleb128 0x3f
 2313 0056 19       		.uleb128 0x19
 2314 0057 03       		.uleb128 0x3
 2315 0058 0E       		.uleb128 0xe
 2316 0059 3A       		.uleb128 0x3a
 2317 005a 21       		.uleb128 0x21
 2318 005b 01       		.sleb128 1
 2319 005c 3B       		.uleb128 0x3b
 2320 005d 05       		.uleb128 0x5
 2321 005e 39       		.uleb128 0x39
 2322 005f 0B       		.uleb128 0xb
 2323 0060 27       		.uleb128 0x27
 2324 0061 19       		.uleb128 0x19
 2325 0062 11       		.uleb128 0x11
 2326 0063 01       		.uleb128 0x1
 2327 0064 12       		.uleb128 0x12
 2328 0065 06       		.uleb128 0x6
 2329 0066 40       		.uleb128 0x40
 2330 0067 18       		.uleb128 0x18
 2331 0068 7A       		.uleb128 0x7a
 2332 0069 19       		.uleb128 0x19
 2333 006a 00       		.byte	0
 2334 006b 00       		.byte	0
 2335 006c 08       		.uleb128 0x8
 2336 006d 2E       		.uleb128 0x2e
 2337 006e 01       		.byte	0x1
ARM GAS  C:\Users\DEVELO~1\AppData\Local\Temp\cc677bLb.s 			page 42


 2338 006f 3F       		.uleb128 0x3f
 2339 0070 19       		.uleb128 0x19
 2340 0071 03       		.uleb128 0x3
 2341 0072 0E       		.uleb128 0xe
 2342 0073 3A       		.uleb128 0x3a
 2343 0074 21       		.uleb128 0x21
 2344 0075 01       		.sleb128 1
 2345 0076 3B       		.uleb128 0x3b
 2346 0077 05       		.uleb128 0x5
 2347 0078 39       		.uleb128 0x39
 2348 0079 21       		.uleb128 0x21
 2349 007a 06       		.sleb128 6
 2350 007b 27       		.uleb128 0x27
 2351 007c 19       		.uleb128 0x19
 2352 007d 11       		.uleb128 0x11
 2353 007e 01       		.uleb128 0x1
 2354 007f 12       		.uleb128 0x12
 2355 0080 06       		.uleb128 0x6
 2356 0081 40       		.uleb128 0x40
 2357 0082 18       		.uleb128 0x18
 2358 0083 7A       		.uleb128 0x7a
 2359 0084 19       		.uleb128 0x19
 2360 0085 01       		.uleb128 0x1
 2361 0086 13       		.uleb128 0x13
 2362 0087 00       		.byte	0
 2363 0088 00       		.byte	0
 2364 0089 09       		.uleb128 0x9
 2365 008a 05       		.uleb128 0x5
 2366 008b 00       		.byte	0
 2367 008c 03       		.uleb128 0x3
 2368 008d 0E       		.uleb128 0xe
 2369 008e 3A       		.uleb128 0x3a
 2370 008f 21       		.uleb128 0x21
 2371 0090 01       		.sleb128 1
 2372 0091 3B       		.uleb128 0x3b
 2373 0092 05       		.uleb128 0x5
 2374 0093 39       		.uleb128 0x39
 2375 0094 0B       		.uleb128 0xb
 2376 0095 49       		.uleb128 0x49
 2377 0096 13       		.uleb128 0x13
 2378 0097 02       		.uleb128 0x2
 2379 0098 17       		.uleb128 0x17
 2380 0099 B742     		.uleb128 0x2137
 2381 009b 17       		.uleb128 0x17
 2382 009c 00       		.byte	0
 2383 009d 00       		.byte	0
 2384 009e 0A       		.uleb128 0xa
 2385 009f 35       		.uleb128 0x35
 2386 00a0 00       		.byte	0
 2387 00a1 49       		.uleb128 0x49
 2388 00a2 13       		.uleb128 0x13
 2389 00a3 00       		.byte	0
 2390 00a4 00       		.byte	0
 2391 00a5 0B       		.uleb128 0xb
 2392 00a6 2E       		.uleb128 0x2e
 2393 00a7 01       		.byte	0x1
 2394 00a8 3F       		.uleb128 0x3f
ARM GAS  C:\Users\DEVELO~1\AppData\Local\Temp\cc677bLb.s 			page 43


 2395 00a9 19       		.uleb128 0x19
 2396 00aa 03       		.uleb128 0x3
 2397 00ab 0E       		.uleb128 0xe
 2398 00ac 3A       		.uleb128 0x3a
 2399 00ad 21       		.uleb128 0x21
 2400 00ae 01       		.sleb128 1
 2401 00af 3B       		.uleb128 0x3b
 2402 00b0 21       		.uleb128 0x21
 2403 00b1 A803     		.sleb128 424
 2404 00b3 39       		.uleb128 0x39
 2405 00b4 21       		.uleb128 0x21
 2406 00b5 03       		.sleb128 3
 2407 00b6 49       		.uleb128 0x49
 2408 00b7 13       		.uleb128 0x13
 2409 00b8 3C       		.uleb128 0x3c
 2410 00b9 19       		.uleb128 0x19
 2411 00ba 01       		.uleb128 0x1
 2412 00bb 13       		.uleb128 0x13
 2413 00bc 00       		.byte	0
 2414 00bd 00       		.byte	0
 2415 00be 0C       		.uleb128 0xc
 2416 00bf 18       		.uleb128 0x18
 2417 00c0 00       		.byte	0
 2418 00c1 00       		.byte	0
 2419 00c2 00       		.byte	0
 2420 00c3 0D       		.uleb128 0xd
 2421 00c4 16       		.uleb128 0x16
 2422 00c5 00       		.byte	0
 2423 00c6 03       		.uleb128 0x3
 2424 00c7 0E       		.uleb128 0xe
 2425 00c8 3A       		.uleb128 0x3a
 2426 00c9 0B       		.uleb128 0xb
 2427 00ca 3B       		.uleb128 0x3b
 2428 00cb 0B       		.uleb128 0xb
 2429 00cc 39       		.uleb128 0x39
 2430 00cd 0B       		.uleb128 0xb
 2431 00ce 49       		.uleb128 0x49
 2432 00cf 13       		.uleb128 0x13
 2433 00d0 00       		.byte	0
 2434 00d1 00       		.byte	0
 2435 00d2 0E       		.uleb128 0xe
 2436 00d3 26       		.uleb128 0x26
 2437 00d4 00       		.byte	0
 2438 00d5 49       		.uleb128 0x49
 2439 00d6 13       		.uleb128 0x13
 2440 00d7 00       		.byte	0
 2441 00d8 00       		.byte	0
 2442 00d9 0F       		.uleb128 0xf
 2443 00da 48       		.uleb128 0x48
 2444 00db 00       		.byte	0
 2445 00dc 7D       		.uleb128 0x7d
 2446 00dd 01       		.uleb128 0x1
 2447 00de 7F       		.uleb128 0x7f
 2448 00df 13       		.uleb128 0x13
 2449 00e0 00       		.byte	0
 2450 00e1 00       		.byte	0
 2451 00e2 10       		.uleb128 0x10
ARM GAS  C:\Users\DEVELO~1\AppData\Local\Temp\cc677bLb.s 			page 44


 2452 00e3 1D       		.uleb128 0x1d
 2453 00e4 00       		.byte	0
 2454 00e5 31       		.uleb128 0x31
 2455 00e6 13       		.uleb128 0x13
 2456 00e7 52       		.uleb128 0x52
 2457 00e8 01       		.uleb128 0x1
 2458 00e9 B842     		.uleb128 0x2138
 2459 00eb 0B       		.uleb128 0xb
 2460 00ec 11       		.uleb128 0x11
 2461 00ed 01       		.uleb128 0x1
 2462 00ee 12       		.uleb128 0x12
 2463 00ef 06       		.uleb128 0x6
 2464 00f0 58       		.uleb128 0x58
 2465 00f1 21       		.uleb128 0x21
 2466 00f2 01       		.sleb128 1
 2467 00f3 59       		.uleb128 0x59
 2468 00f4 05       		.uleb128 0x5
 2469 00f5 57       		.uleb128 0x57
 2470 00f6 21       		.uleb128 0x21
 2471 00f7 03       		.sleb128 3
 2472 00f8 00       		.byte	0
 2473 00f9 00       		.byte	0
 2474 00fa 11       		.uleb128 0x11
 2475 00fb 49       		.uleb128 0x49
 2476 00fc 00       		.byte	0
 2477 00fd 02       		.uleb128 0x2
 2478 00fe 18       		.uleb128 0x18
 2479 00ff 7E       		.uleb128 0x7e
 2480 0100 18       		.uleb128 0x18
 2481 0101 00       		.byte	0
 2482 0102 00       		.byte	0
 2483 0103 12       		.uleb128 0x12
 2484 0104 16       		.uleb128 0x16
 2485 0105 00       		.byte	0
 2486 0106 03       		.uleb128 0x3
 2487 0107 0E       		.uleb128 0xe
 2488 0108 3A       		.uleb128 0x3a
 2489 0109 0B       		.uleb128 0xb
 2490 010a 3B       		.uleb128 0x3b
 2491 010b 05       		.uleb128 0x5
 2492 010c 39       		.uleb128 0x39
 2493 010d 0B       		.uleb128 0xb
 2494 010e 49       		.uleb128 0x49
 2495 010f 13       		.uleb128 0x13
 2496 0110 00       		.byte	0
 2497 0111 00       		.byte	0
 2498 0112 13       		.uleb128 0x13
 2499 0113 2E       		.uleb128 0x2e
 2500 0114 00       		.byte	0
 2501 0115 3F       		.uleb128 0x3f
 2502 0116 19       		.uleb128 0x19
 2503 0117 03       		.uleb128 0x3
 2504 0118 0E       		.uleb128 0xe
 2505 0119 3A       		.uleb128 0x3a
 2506 011a 21       		.uleb128 0x21
 2507 011b 01       		.sleb128 1
 2508 011c 3B       		.uleb128 0x3b
ARM GAS  C:\Users\DEVELO~1\AppData\Local\Temp\cc677bLb.s 			page 45


 2509 011d 0B       		.uleb128 0xb
 2510 011e 39       		.uleb128 0x39
 2511 011f 21       		.uleb128 0x21
 2512 0120 06       		.sleb128 6
 2513 0121 27       		.uleb128 0x27
 2514 0122 19       		.uleb128 0x19
 2515 0123 11       		.uleb128 0x11
 2516 0124 01       		.uleb128 0x1
 2517 0125 12       		.uleb128 0x12
 2518 0126 06       		.uleb128 0x6
 2519 0127 40       		.uleb128 0x40
 2520 0128 18       		.uleb128 0x18
 2521 0129 7A       		.uleb128 0x7a
 2522 012a 19       		.uleb128 0x19
 2523 012b 00       		.byte	0
 2524 012c 00       		.byte	0
 2525 012d 14       		.uleb128 0x14
 2526 012e 13       		.uleb128 0x13
 2527 012f 01       		.byte	0x1
 2528 0130 0B       		.uleb128 0xb
 2529 0131 0B       		.uleb128 0xb
 2530 0132 3A       		.uleb128 0x3a
 2531 0133 21       		.uleb128 0x21
 2532 0134 06       		.sleb128 6
 2533 0135 3B       		.uleb128 0x3b
 2534 0136 05       		.uleb128 0x5
 2535 0137 39       		.uleb128 0x39
 2536 0138 21       		.uleb128 0x21
 2537 0139 09       		.sleb128 9
 2538 013a 01       		.uleb128 0x1
 2539 013b 13       		.uleb128 0x13
 2540 013c 00       		.byte	0
 2541 013d 00       		.byte	0
 2542 013e 15       		.uleb128 0x15
 2543 013f 0D       		.uleb128 0xd
 2544 0140 00       		.byte	0
 2545 0141 03       		.uleb128 0x3
 2546 0142 0E       		.uleb128 0xe
 2547 0143 3A       		.uleb128 0x3a
 2548 0144 21       		.uleb128 0x21
 2549 0145 07       		.sleb128 7
 2550 0146 3B       		.uleb128 0x3b
 2551 0147 0B       		.uleb128 0xb
 2552 0148 39       		.uleb128 0x39
 2553 0149 21       		.uleb128 0x21
 2554 014a 0C       		.sleb128 12
 2555 014b 49       		.uleb128 0x49
 2556 014c 13       		.uleb128 0x13
 2557 014d 38       		.uleb128 0x38
 2558 014e 0B       		.uleb128 0xb
 2559 014f 00       		.byte	0
 2560 0150 00       		.byte	0
 2561 0151 16       		.uleb128 0x16
 2562 0152 48       		.uleb128 0x48
 2563 0153 01       		.byte	0x1
 2564 0154 7D       		.uleb128 0x7d
 2565 0155 01       		.uleb128 0x1
ARM GAS  C:\Users\DEVELO~1\AppData\Local\Temp\cc677bLb.s 			page 46


 2566 0156 7F       		.uleb128 0x7f
 2567 0157 13       		.uleb128 0x13
 2568 0158 01       		.uleb128 0x1
 2569 0159 13       		.uleb128 0x13
 2570 015a 00       		.byte	0
 2571 015b 00       		.byte	0
 2572 015c 17       		.uleb128 0x17
 2573 015d 48       		.uleb128 0x48
 2574 015e 01       		.byte	0x1
 2575 015f 7D       		.uleb128 0x7d
 2576 0160 01       		.uleb128 0x1
 2577 0161 7F       		.uleb128 0x7f
 2578 0162 13       		.uleb128 0x13
 2579 0163 00       		.byte	0
 2580 0164 00       		.byte	0
 2581 0165 18       		.uleb128 0x18
 2582 0166 2E       		.uleb128 0x2e
 2583 0167 00       		.byte	0
 2584 0168 03       		.uleb128 0x3
 2585 0169 0E       		.uleb128 0xe
 2586 016a 3A       		.uleb128 0x3a
 2587 016b 21       		.uleb128 0x21
 2588 016c 02       		.sleb128 2
 2589 016d 3B       		.uleb128 0x3b
 2590 016e 05       		.uleb128 0x5
 2591 016f 39       		.uleb128 0x39
 2592 0170 21       		.uleb128 0x21
 2593 0171 1B       		.sleb128 27
 2594 0172 27       		.uleb128 0x27
 2595 0173 19       		.uleb128 0x19
 2596 0174 20       		.uleb128 0x20
 2597 0175 21       		.uleb128 0x21
 2598 0176 03       		.sleb128 3
 2599 0177 00       		.byte	0
 2600 0178 00       		.byte	0
 2601 0179 19       		.uleb128 0x19
 2602 017a 11       		.uleb128 0x11
 2603 017b 01       		.byte	0x1
 2604 017c 25       		.uleb128 0x25
 2605 017d 0E       		.uleb128 0xe
 2606 017e 13       		.uleb128 0x13
 2607 017f 0B       		.uleb128 0xb
 2608 0180 03       		.uleb128 0x3
 2609 0181 0E       		.uleb128 0xe
 2610 0182 1B       		.uleb128 0x1b
 2611 0183 0E       		.uleb128 0xe
 2612 0184 55       		.uleb128 0x55
 2613 0185 17       		.uleb128 0x17
 2614 0186 11       		.uleb128 0x11
 2615 0187 01       		.uleb128 0x1
 2616 0188 10       		.uleb128 0x10
 2617 0189 17       		.uleb128 0x17
 2618 018a 00       		.byte	0
 2619 018b 00       		.byte	0
 2620 018c 1A       		.uleb128 0x1a
 2621 018d 24       		.uleb128 0x24
 2622 018e 00       		.byte	0
ARM GAS  C:\Users\DEVELO~1\AppData\Local\Temp\cc677bLb.s 			page 47


 2623 018f 0B       		.uleb128 0xb
 2624 0190 0B       		.uleb128 0xb
 2625 0191 3E       		.uleb128 0x3e
 2626 0192 0B       		.uleb128 0xb
 2627 0193 03       		.uleb128 0x3
 2628 0194 08       		.uleb128 0x8
 2629 0195 00       		.byte	0
 2630 0196 00       		.byte	0
 2631 0197 1B       		.uleb128 0x1b
 2632 0198 13       		.uleb128 0x13
 2633 0199 01       		.byte	0x1
 2634 019a 0B       		.uleb128 0xb
 2635 019b 05       		.uleb128 0x5
 2636 019c 3A       		.uleb128 0x3a
 2637 019d 0B       		.uleb128 0xb
 2638 019e 3B       		.uleb128 0x3b
 2639 019f 05       		.uleb128 0x5
 2640 01a0 39       		.uleb128 0x39
 2641 01a1 0B       		.uleb128 0xb
 2642 01a2 01       		.uleb128 0x1
 2643 01a3 13       		.uleb128 0x13
 2644 01a4 00       		.byte	0
 2645 01a5 00       		.byte	0
 2646 01a6 1C       		.uleb128 0x1c
 2647 01a7 13       		.uleb128 0x13
 2648 01a8 01       		.byte	0x1
 2649 01a9 0B       		.uleb128 0xb
 2650 01aa 0B       		.uleb128 0xb
 2651 01ab 3A       		.uleb128 0x3a
 2652 01ac 0B       		.uleb128 0xb
 2653 01ad 3B       		.uleb128 0x3b
 2654 01ae 0B       		.uleb128 0xb
 2655 01af 39       		.uleb128 0x39
 2656 01b0 0B       		.uleb128 0xb
 2657 01b1 01       		.uleb128 0x1
 2658 01b2 13       		.uleb128 0x13
 2659 01b3 00       		.byte	0
 2660 01b4 00       		.byte	0
 2661 01b5 1D       		.uleb128 0x1d
 2662 01b6 0F       		.uleb128 0xf
 2663 01b7 00       		.byte	0
 2664 01b8 0B       		.uleb128 0xb
 2665 01b9 0B       		.uleb128 0xb
 2666 01ba 49       		.uleb128 0x49
 2667 01bb 13       		.uleb128 0x13
 2668 01bc 00       		.byte	0
 2669 01bd 00       		.byte	0
 2670 01be 00       		.byte	0
 2671              		.section	.debug_loclists,"",%progbits
 2672 0000 E7000000 		.4byte	.Ldebug_loc3-.Ldebug_loc2
 2673              	.Ldebug_loc2:
 2674 0004 0500     		.2byte	0x5
 2675 0006 04       		.byte	0x4
 2676 0007 00       		.byte	0
 2677 0008 00000000 		.4byte	0
 2678              	.Ldebug_loc0:
 2679              	.LVUS5:
ARM GAS  C:\Users\DEVELO~1\AppData\Local\Temp\cc677bLb.s 			page 48


 2680 000c 00       		.uleb128 0
 2681 000d 00       		.uleb128 .LVU97
 2682 000e 00       		.uleb128 .LVU97
 2683 000f 00       		.uleb128 0
 2684              	.LLST5:
 2685 0010 06       		.byte	0x6
 2686 0011 00000000 		.4byte	.LVL23
 2687 0015 04       		.byte	0x4
 2688 0016 00       		.uleb128 .LVL23-.LVL23
 2689 0017 0C       		.uleb128 .LVL24-.LVL23
 2690 0018 01       		.uleb128 0x1
 2691 0019 50       		.byte	0x50
 2692 001a 04       		.byte	0x4
 2693 001b 0C       		.uleb128 .LVL24-.LVL23
 2694 001c 6C       		.uleb128 .LFE150-.LVL23
 2695 001d 01       		.uleb128 0x1
 2696 001e 55       		.byte	0x55
 2697 001f 00       		.byte	0
 2698              	.LVUS6:
 2699 0020 00       		.uleb128 0
 2700 0021 00       		.uleb128 .LVU98
 2701 0022 00       		.uleb128 .LVU98
 2702 0023 00       		.uleb128 0
 2703              	.LLST6:
 2704 0024 06       		.byte	0x6
 2705 0025 00000000 		.4byte	.LVL23
 2706 0029 04       		.byte	0x4
 2707 002a 00       		.uleb128 .LVL23-.LVL23
 2708 002b 11       		.uleb128 .LVL25-1-.LVL23
 2709 002c 01       		.uleb128 0x1
 2710 002d 51       		.byte	0x51
 2711 002e 04       		.byte	0x4
 2712 002f 11       		.uleb128 .LVL25-1-.LVL23
 2713 0030 6C       		.uleb128 .LFE150-.LVL23
 2714 0031 04       		.uleb128 0x4
 2715 0032 A3       		.byte	0xa3
 2716 0033 01       		.uleb128 0x1
 2717 0034 51       		.byte	0x51
 2718 0035 9F       		.byte	0x9f
 2719 0036 00       		.byte	0
 2720              	.LVUS3:
 2721 0037 00       		.uleb128 0
 2722 0038 00       		.uleb128 .LVU80
 2723 0039 00       		.uleb128 .LVU80
 2724 003a 00       		.uleb128 0
 2725              	.LLST3:
 2726 003b 06       		.byte	0x6
 2727 003c 00000000 		.4byte	.LVL19
 2728 0040 04       		.byte	0x4
 2729 0041 00       		.uleb128 .LVL19-.LVL19
 2730 0042 0A       		.uleb128 .LVL20-.LVL19
 2731 0043 01       		.uleb128 0x1
 2732 0044 50       		.byte	0x50
 2733 0045 04       		.byte	0x4
 2734 0046 0A       		.uleb128 .LVL20-.LVL19
 2735 0047 38       		.uleb128 .LFE149-.LVL19
 2736 0048 04       		.uleb128 0x4
ARM GAS  C:\Users\DEVELO~1\AppData\Local\Temp\cc677bLb.s 			page 49


 2737 0049 A3       		.byte	0xa3
 2738 004a 01       		.uleb128 0x1
 2739 004b 50       		.byte	0x50
 2740 004c 9F       		.byte	0x9f
 2741 004d 00       		.byte	0
 2742              	.LVUS4:
 2743 004e 00       		.uleb128 0
 2744 004f 00       		.uleb128 .LVU81
 2745 0050 00       		.uleb128 .LVU81
 2746 0051 00       		.uleb128 0
 2747              	.LLST4:
 2748 0052 06       		.byte	0x6
 2749 0053 00000000 		.4byte	.LVL19
 2750 0057 04       		.byte	0x4
 2751 0058 00       		.uleb128 .LVL19-.LVL19
 2752 0059 0F       		.uleb128 .LVL21-1-.LVL19
 2753 005a 01       		.uleb128 0x1
 2754 005b 51       		.byte	0x51
 2755 005c 04       		.byte	0x4
 2756 005d 0F       		.uleb128 .LVL21-1-.LVL19
 2757 005e 38       		.uleb128 .LFE149-.LVL19
 2758 005f 04       		.uleb128 0x4
 2759 0060 A3       		.byte	0xa3
 2760 0061 01       		.uleb128 0x1
 2761 0062 51       		.byte	0x51
 2762 0063 9F       		.byte	0x9f
 2763 0064 00       		.byte	0
 2764              	.LVUS2:
 2765 0065 00       		.uleb128 0
 2766 0066 00       		.uleb128 .LVU66
 2767 0067 00       		.uleb128 .LVU66
 2768 0068 00       		.uleb128 .LVU69
 2769 0069 00       		.uleb128 .LVU69
 2770 006a 00       		.uleb128 .LVU71
 2771 006b 00       		.uleb128 .LVU71
 2772 006c 00       		.uleb128 .LVU73
 2773 006d 00       		.uleb128 .LVU73
 2774 006e 00       		.uleb128 .LVU74
 2775 006f 00       		.uleb128 .LVU74
 2776 0070 00       		.uleb128 0
 2777              	.LLST2:
 2778 0071 06       		.byte	0x6
 2779 0072 00000000 		.4byte	.LVL12
 2780 0076 04       		.byte	0x4
 2781 0077 00       		.uleb128 .LVL12-.LVL12
 2782 0078 14       		.uleb128 .LVL13-.LVL12
 2783 0079 01       		.uleb128 0x1
 2784 007a 50       		.byte	0x50
 2785 007b 04       		.byte	0x4
 2786 007c 14       		.uleb128 .LVL13-.LVL12
 2787 007d 2E       		.uleb128 .LVL15-.LVL12
 2788 007e 01       		.uleb128 0x1
 2789 007f 54       		.byte	0x54
 2790 0080 04       		.byte	0x4
 2791 0081 2E       		.uleb128 .LVL15-.LVL12
 2792 0082 38       		.uleb128 .LVL16-.LVL12
 2793 0083 04       		.uleb128 0x4
ARM GAS  C:\Users\DEVELO~1\AppData\Local\Temp\cc677bLb.s 			page 50


 2794 0084 A3       		.byte	0xa3
 2795 0085 01       		.uleb128 0x1
 2796 0086 50       		.byte	0x50
 2797 0087 9F       		.byte	0x9f
 2798 0088 04       		.byte	0x4
 2799 0089 38       		.uleb128 .LVL16-.LVL12
 2800 008a 4A       		.uleb128 .LVL17-.LVL12
 2801 008b 01       		.uleb128 0x1
 2802 008c 50       		.byte	0x50
 2803 008d 04       		.byte	0x4
 2804 008e 4A       		.uleb128 .LVL17-.LVL12
 2805 008f 4C       		.uleb128 .LVL18-.LVL12
 2806 0090 01       		.uleb128 0x1
 2807 0091 54       		.byte	0x54
 2808 0092 04       		.byte	0x4
 2809 0093 4C       		.uleb128 .LVL18-.LVL12
 2810 0094 68       		.uleb128 .LFE148-.LVL12
 2811 0095 01       		.uleb128 0x1
 2812 0096 50       		.byte	0x50
 2813 0097 00       		.byte	0
 2814              	.LVUS1:
 2815 0098 00       		.uleb128 0
 2816 0099 00       		.uleb128 .LVU53
 2817 009a 00       		.uleb128 .LVU53
 2818 009b 00       		.uleb128 .LVU57
 2819 009c 00       		.uleb128 .LVU57
 2820 009d 00       		.uleb128 .LVU59
 2821 009e 00       		.uleb128 .LVU59
 2822 009f 00       		.uleb128 .LVU60
 2823 00a0 00       		.uleb128 .LVU60
 2824 00a1 00       		.uleb128 0
 2825              	.LLST1:
 2826 00a2 06       		.byte	0x6
 2827 00a3 00000000 		.4byte	.LVL6
 2828 00a7 04       		.byte	0x4
 2829 00a8 00       		.uleb128 .LVL6-.LVL6
 2830 00a9 14       		.uleb128 .LVL7-.LVL6
 2831 00aa 01       		.uleb128 0x1
 2832 00ab 50       		.byte	0x50
 2833 00ac 04       		.byte	0x4
 2834 00ad 14       		.uleb128 .LVL7-.LVL6
 2835 00ae 36       		.uleb128 .LVL9-.LVL6
 2836 00af 01       		.uleb128 0x1
 2837 00b0 54       		.byte	0x54
 2838 00b1 04       		.byte	0x4
 2839 00b2 36       		.uleb128 .LVL9-.LVL6
 2840 00b3 48       		.uleb128 .LVL10-.LVL6
 2841 00b4 01       		.uleb128 0x1
 2842 00b5 50       		.byte	0x50
 2843 00b6 04       		.byte	0x4
 2844 00b7 48       		.uleb128 .LVL10-.LVL6
 2845 00b8 4A       		.uleb128 .LVL11-.LVL6
 2846 00b9 01       		.uleb128 0x1
 2847 00ba 54       		.byte	0x54
 2848 00bb 04       		.byte	0x4
 2849 00bc 4A       		.uleb128 .LVL11-.LVL6
 2850 00bd 68       		.uleb128 .LFE147-.LVL6
ARM GAS  C:\Users\DEVELO~1\AppData\Local\Temp\cc677bLb.s 			page 51


 2851 00be 01       		.uleb128 0x1
 2852 00bf 50       		.byte	0x50
 2853 00c0 00       		.byte	0
 2854              	.LVUS0:
 2855 00c1 00       		.uleb128 0
 2856 00c2 00       		.uleb128 .LVU14
 2857 00c3 00       		.uleb128 .LVU14
 2858 00c4 00       		.uleb128 .LVU29
 2859 00c5 00       		.uleb128 .LVU29
 2860 00c6 00       		.uleb128 .LVU41
 2861 00c7 00       		.uleb128 .LVU41
 2862 00c8 00       		.uleb128 0
 2863              	.LLST0:
 2864 00c9 06       		.byte	0x6
 2865 00ca 00000000 		.4byte	.LVL0
 2866 00ce 04       		.byte	0x4
 2867 00cf 00       		.uleb128 .LVL0-.LVL0
 2868 00d0 0A       		.uleb128 .LVL1-.LVL0
 2869 00d1 01       		.uleb128 0x1
 2870 00d2 50       		.byte	0x50
 2871 00d3 04       		.byte	0x4
 2872 00d4 0A       		.uleb128 .LVL1-.LVL0
 2873 00d5 8001     		.uleb128 .LVL4-.LVL0
 2874 00d7 01       		.uleb128 0x1
 2875 00d8 54       		.byte	0x54
 2876 00d9 04       		.byte	0x4
 2877 00da 8001     		.uleb128 .LVL4-.LVL0
 2878 00dc C401     		.uleb128 .LVL5-.LVL0
 2879 00de 04       		.uleb128 0x4
 2880 00df A3       		.byte	0xa3
 2881 00e0 01       		.uleb128 0x1
 2882 00e1 50       		.byte	0x50
 2883 00e2 9F       		.byte	0x9f
 2884 00e3 04       		.byte	0x4
 2885 00e4 C401     		.uleb128 .LVL5-.LVL0
 2886 00e6 CC01     		.uleb128 .LFE144-.LVL0
 2887 00e8 01       		.uleb128 0x1
 2888 00e9 50       		.byte	0x50
 2889 00ea 00       		.byte	0
 2890              	.Ldebug_loc3:
 2891              		.section	.debug_aranges,"",%progbits
 2892 0000 9C000000 		.4byte	0x9c
 2893 0004 0200     		.2byte	0x2
 2894 0006 00000000 		.4byte	.Ldebug_info0
 2895 000a 04       		.byte	0x4
 2896 000b 00       		.byte	0
 2897 000c 0000     		.2byte	0
 2898 000e 0000     		.2byte	0
 2899 0010 00000000 		.4byte	.LFB141
 2900 0014 02000000 		.4byte	.LFE141-.LFB141
 2901 0018 00000000 		.4byte	.LFB142
 2902 001c 10000000 		.4byte	.LFE142-.LFB142
 2903 0020 00000000 		.4byte	.LFB143
 2904 0024 10000000 		.4byte	.LFE143-.LFB143
 2905 0028 00000000 		.4byte	.LFB144
 2906 002c CC000000 		.4byte	.LFE144-.LFB144
 2907 0030 00000000 		.4byte	.LFB145
ARM GAS  C:\Users\DEVELO~1\AppData\Local\Temp\cc677bLb.s 			page 52


 2908 0034 10000000 		.4byte	.LFE145-.LFB145
 2909 0038 00000000 		.4byte	.LFB146
 2910 003c 10000000 		.4byte	.LFE146-.LFB146
 2911 0040 00000000 		.4byte	.LFB147
 2912 0044 68000000 		.4byte	.LFE147-.LFB147
 2913 0048 00000000 		.4byte	.LFB148
 2914 004c 68000000 		.4byte	.LFE148-.LFB148
 2915 0050 00000000 		.4byte	.LFB149
 2916 0054 38000000 		.4byte	.LFE149-.LFB149
 2917 0058 00000000 		.4byte	.LFB150
 2918 005c 6C000000 		.4byte	.LFE150-.LFB150
 2919 0060 00000000 		.4byte	.LFB151
 2920 0064 30000000 		.4byte	.LFE151-.LFB151
 2921 0068 00000000 		.4byte	.LFB152
 2922 006c 10000000 		.4byte	.LFE152-.LFB152
 2923 0070 00000000 		.4byte	.LFB153
 2924 0074 10000000 		.4byte	.LFE153-.LFB153
 2925 0078 00000000 		.4byte	.LFB154
 2926 007c 10000000 		.4byte	.LFE154-.LFB154
 2927 0080 00000000 		.4byte	.LFB155
 2928 0084 10000000 		.4byte	.LFE155-.LFB155
 2929 0088 00000000 		.4byte	.LFB157
 2930 008c 02000000 		.4byte	.LFE157-.LFB157
 2931 0090 00000000 		.4byte	.LFB156
 2932 0094 22000000 		.4byte	.LFE156-.LFB156
 2933 0098 00000000 		.4byte	0
 2934 009c 00000000 		.4byte	0
 2935              		.section	.debug_rnglists,"",%progbits
 2936              	.Ldebug_ranges0:
 2937 0000 70000000 		.4byte	.Ldebug_ranges3-.Ldebug_ranges2
 2938              	.Ldebug_ranges2:
 2939 0004 0500     		.2byte	0x5
 2940 0006 04       		.byte	0x4
 2941 0007 00       		.byte	0
 2942 0008 00000000 		.4byte	0
 2943              	.LLRL7:
 2944 000c 07       		.byte	0x7
 2945 000d 00000000 		.4byte	.LFB141
 2946 0011 02       		.uleb128 .LFE141-.LFB141
 2947 0012 07       		.byte	0x7
 2948 0013 00000000 		.4byte	.LFB142
 2949 0017 10       		.uleb128 .LFE142-.LFB142
 2950 0018 07       		.byte	0x7
 2951 0019 00000000 		.4byte	.LFB143
 2952 001d 10       		.uleb128 .LFE143-.LFB143
 2953 001e 07       		.byte	0x7
 2954 001f 00000000 		.4byte	.LFB144
 2955 0023 CC01     		.uleb128 .LFE144-.LFB144
 2956 0025 07       		.byte	0x7
 2957 0026 00000000 		.4byte	.LFB145
 2958 002a 10       		.uleb128 .LFE145-.LFB145
 2959 002b 07       		.byte	0x7
 2960 002c 00000000 		.4byte	.LFB146
 2961 0030 10       		.uleb128 .LFE146-.LFB146
 2962 0031 07       		.byte	0x7
 2963 0032 00000000 		.4byte	.LFB147
 2964 0036 68       		.uleb128 .LFE147-.LFB147
ARM GAS  C:\Users\DEVELO~1\AppData\Local\Temp\cc677bLb.s 			page 53


 2965 0037 07       		.byte	0x7
 2966 0038 00000000 		.4byte	.LFB148
 2967 003c 68       		.uleb128 .LFE148-.LFB148
 2968 003d 07       		.byte	0x7
 2969 003e 00000000 		.4byte	.LFB149
 2970 0042 38       		.uleb128 .LFE149-.LFB149
 2971 0043 07       		.byte	0x7
 2972 0044 00000000 		.4byte	.LFB150
 2973 0048 6C       		.uleb128 .LFE150-.LFB150
 2974 0049 07       		.byte	0x7
 2975 004a 00000000 		.4byte	.LFB151
 2976 004e 30       		.uleb128 .LFE151-.LFB151
 2977 004f 07       		.byte	0x7
 2978 0050 00000000 		.4byte	.LFB152
 2979 0054 10       		.uleb128 .LFE152-.LFB152
 2980 0055 07       		.byte	0x7
 2981 0056 00000000 		.4byte	.LFB153
 2982 005a 10       		.uleb128 .LFE153-.LFB153
 2983 005b 07       		.byte	0x7
 2984 005c 00000000 		.4byte	.LFB154
 2985 0060 10       		.uleb128 .LFE154-.LFB154
 2986 0061 07       		.byte	0x7
 2987 0062 00000000 		.4byte	.LFB155
 2988 0066 10       		.uleb128 .LFE155-.LFB155
 2989 0067 07       		.byte	0x7
 2990 0068 00000000 		.4byte	.LFB157
 2991 006c 02       		.uleb128 .LFE157-.LFB157
 2992 006d 07       		.byte	0x7
 2993 006e 00000000 		.4byte	.LFB156
 2994 0072 22       		.uleb128 .LFE156-.LFB156
 2995 0073 00       		.byte	0
 2996              	.Ldebug_ranges3:
 2997              		.section	.debug_line,"",%progbits
 2998              	.Ldebug_line0:
 2999 0000 FB040000 		.section	.debug_str,"MS",%progbits,1
 2999      0300D201 
 2999      00000201 
 2999      FB0E0D00 
 2999      01010101 
 3000              	.LASF80:
 3001 0000 44335043 		.ascii	"D3PCR3H\000"
 3001      52334800 
 3002              	.LASF17:
 3003 0008 53485052 		.ascii	"SHPR\000"
 3003      00
 3004              	.LASF79:
 3005 000d 44335043 		.ascii	"D3PCR3L\000"
 3005      52334C00 
 3006              	.LASF57:
 3007 0015 41484253 		.ascii	"AHBSCR\000"
 3007      435200
 3008              	.LASF130:
 3009 001c 433A5C43 		.ascii	"C:\\ChibiStudio\\ChibiOS-master\\demos\\STM32\\CUST"
 3009      68696269 
 3009      53747564 
 3009      696F5C43 
 3009      68696269 
ARM GAS  C:\Users\DEVELO~1\AppData\Local\Temp\cc677bLb.s 			page 54


 3010 004a 4F4D5F48 		.ascii	"OM_H743IIT6_maj\000"
 3010      37343349 
 3010      4954365F 
 3010      6D616A00 
 3011              	.LASF5:
 3012 005a 5F5F7569 		.ascii	"__uint8_t\000"
 3012      6E74385F 
 3012      7400
 3013              	.LASF36:
 3014 0064 53544952 		.ascii	"STIR\000"
 3014      00
 3015              	.LASF128:
 3016 0069 474E5520 		.ascii	"GNU C17 11.3.1 20220712 -mcpu=cortex-m7 -mthumb -mf"
 3016      43313720 
 3016      31312E33 
 3016      2E312032 
 3016      30323230 
 3017 009c 6C6F6174 		.ascii	"loat-abi=hard -mfpu=fpv5-d16 -march=armv7e-m+fp.dp "
 3017      2D616269 
 3017      3D686172 
 3017      64202D6D 
 3017      6670753D 
 3018 00cf 2D676764 		.ascii	"-ggdb -O2 -ffunction-sections -fdata-sections -fno-"
 3018      62202D4F 
 3018      32202D66 
 3018      66756E63 
 3018      74696F6E 
 3019 0102 636F6D6D 		.ascii	"common\000"
 3019      6F6E00
 3020              	.LASF62:
 3021 0109 46545352 		.ascii	"FTSR1\000"
 3021      3100
 3022              	.LASF69:
 3023 010f 46545352 		.ascii	"FTSR2\000"
 3023      3200
 3024              	.LASF76:
 3025 0115 46545352 		.ascii	"FTSR3\000"
 3025      3300
 3026              	.LASF116:
 3027 011b 57616B65 		.ascii	"WakeUpPinx\000"
 3027      55705069 
 3027      6E7800
 3028              	.LASF9:
 3029 0126 6C6F6E67 		.ascii	"long long unsigned int\000"
 3029      206C6F6E 
 3029      6720756E 
 3029      7369676E 
 3029      65642069 
 3030              	.LASF31:
 3031 013d 434C4944 		.ascii	"CLIDR\000"
 3031      5200
 3032              	.LASF13:
 3033 0143 43505549 		.ascii	"CPUID\000"
 3033      4400
 3034              	.LASF99:
 3035 0149 5056444C 		.ascii	"PVDLevel\000"
 3035      6576656C 
ARM GAS  C:\Users\DEVELO~1\AppData\Local\Temp\cc677bLb.s 			page 55


 3035      00
 3036              	.LASF63:
 3037 0152 53574945 		.ascii	"SWIER1\000"
 3037      523100
 3038              	.LASF70:
 3039 0159 53574945 		.ascii	"SWIER2\000"
 3039      523200
 3040              	.LASF77:
 3041 0160 53574945 		.ascii	"SWIER3\000"
 3041      523300
 3042              	.LASF25:
 3043 0167 49445F50 		.ascii	"ID_PFR\000"
 3043      465200
 3044              	.LASF14:
 3045 016e 49435352 		.ascii	"ICSR\000"
 3045      00
 3046              	.LASF1:
 3047 0173 7369676E 		.ascii	"signed char\000"
 3047      65642063 
 3047      68617200 
 3048              	.LASF91:
 3049 017f 574B5550 		.ascii	"WKUPCR\000"
 3049      435200
 3050              	.LASF7:
 3051 0186 6C6F6E67 		.ascii	"long unsigned int\000"
 3051      20756E73 
 3051      69676E65 
 3051      6420696E 
 3051      7400
 3052              	.LASF94:
 3053 0198 5057525F 		.ascii	"PWR_TypeDef\000"
 3053      54797065 
 3053      44656600 
 3054              	.LASF4:
 3055 01a4 6C6F6E67 		.ascii	"long int\000"
 3055      20696E74 
 3055      00
 3056              	.LASF54:
 3057 01ad 4454434D 		.ascii	"DTCMCR\000"
 3057      435200
 3058              	.LASF108:
 3059 01b4 48414C5F 		.ascii	"HAL_PWR_EnterSTANDBYMode\000"
 3059      5057525F 
 3059      456E7465 
 3059      72535441 
 3059      4E444259 
 3060              	.LASF8:
 3061 01cd 6C6F6E67 		.ascii	"long long int\000"
 3061      206C6F6E 
 3061      6720696E 
 3061      7400
 3062              	.LASF98:
 3063 01db 646F7562 		.ascii	"double\000"
 3063      6C6500
 3064              	.LASF123:
 3065 01e2 48414C5F 		.ascii	"HAL_PWR_DisableBkUpAccess\000"
 3065      5057525F 
ARM GAS  C:\Users\DEVELO~1\AppData\Local\Temp\cc677bLb.s 			page 56


 3065      44697361 
 3065      626C6542 
 3065      6B557041 
 3066              	.LASF42:
 3067 01fc 49434941 		.ascii	"ICIALLU\000"
 3067      4C4C5500 
 3068              	.LASF23:
 3069 0204 42464152 		.ascii	"BFAR\000"
 3069      00
 3070              	.LASF24:
 3071 0209 41465352 		.ascii	"AFSR\000"
 3071      00
 3072              	.LASF6:
 3073 020e 5F5F7569 		.ascii	"__uint32_t\000"
 3073      6E743332 
 3073      5F7400
 3074              	.LASF100:
 3075 0219 4D6F6465 		.ascii	"Mode\000"
 3075      00
 3076              	.LASF115:
 3077 021e 48414C5F 		.ascii	"HAL_PWR_DisableWakeUpPin\000"
 3077      5057525F 
 3077      44697361 
 3077      626C6557 
 3077      616B6555 
 3078              	.LASF60:
 3079 0237 5343425F 		.ascii	"SCB_Type\000"
 3079      54797065 
 3079      00
 3080              	.LASF26:
 3081 0240 49445F44 		.ascii	"ID_DFR\000"
 3081      465200
 3082              	.LASF48:
 3083 0247 4443434D 		.ascii	"DCCMVAC\000"
 3083      56414300 
 3084              	.LASF56:
 3085 024f 43414352 		.ascii	"CACR\000"
 3085      00
 3086              	.LASF33:
 3087 0254 43535345 		.ascii	"CSSELR\000"
 3087      4C5200
 3088              	.LASF10:
 3089 025b 756E7369 		.ascii	"unsigned int\000"
 3089      676E6564 
 3089      20696E74 
 3089      00
 3090              	.LASF93:
 3091 0268 574B5550 		.ascii	"WKUPEPR\000"
 3091      45505200 
 3092              	.LASF47:
 3093 0270 4443434D 		.ascii	"DCCMVAU\000"
 3093      56415500 
 3094              	.LASF51:
 3095 0278 44434349 		.ascii	"DCCISW\000"
 3095      535700
 3096              	.LASF89:
 3097 027f 43505543 		.ascii	"CPUCR\000"
ARM GAS  C:\Users\DEVELO~1\AppData\Local\Temp\cc677bLb.s 			page 57


 3097      5200
 3098              	.LASF121:
 3099 0285 48414C5F 		.ascii	"HAL_PWR_ConfigPVD\000"
 3099      5057525F 
 3099      436F6E66 
 3099      69675056 
 3099      4400
 3100              	.LASF15:
 3101 0297 56544F52 		.ascii	"VTOR\000"
 3101      00
 3102              	.LASF3:
 3103 029c 73686F72 		.ascii	"short unsigned int\000"
 3103      7420756E 
 3103      7369676E 
 3103      65642069 
 3103      6E7400
 3104              	.LASF81:
 3105 02af 494D5231 		.ascii	"IMR1\000"
 3105      00
 3106              	.LASF83:
 3107 02b4 494D5232 		.ascii	"IMR2\000"
 3107      00
 3108              	.LASF85:
 3109 02b9 494D5233 		.ascii	"IMR3\000"
 3109      00
 3110              	.LASF129:
 3111 02be 2E2F6472 		.ascii	"./drivers/stm32h7xx-hal-driver/Src/stm32h7xx_hal_pw"
 3111      69766572 
 3111      732F7374 
 3111      6D333268 
 3111      3778782D 
 3112 02f1 722E6300 		.ascii	"r.c\000"
 3113              	.LASF16:
 3114 02f5 41495243 		.ascii	"AIRCR\000"
 3114      5200
 3115              	.LASF21:
 3116 02fb 44465352 		.ascii	"DFSR\000"
 3116      00
 3117              	.LASF53:
 3118 0300 4954434D 		.ascii	"ITCMCR\000"
 3118      435200
 3119              	.LASF22:
 3120 0307 4D4D4641 		.ascii	"MMFAR\000"
 3120      5200
 3121              	.LASF114:
 3122 030d 534C4545 		.ascii	"SLEEPEntry\000"
 3122      50456E74 
 3122      727900
 3123              	.LASF59:
 3124 0318 41424653 		.ascii	"ABFSR\000"
 3124      5200
 3125              	.LASF126:
 3126 031e 5F5F4453 		.ascii	"__DSB\000"
 3126      4200
 3127              	.LASF102:
 3128 0324 48414C5F 		.ascii	"HAL_PWR_PVDCallback\000"
 3128      5057525F 
ARM GAS  C:\Users\DEVELO~1\AppData\Local\Temp\cc677bLb.s 			page 58


 3128      50564443 
 3128      616C6C62 
 3128      61636B00 
 3129              	.LASF109:
 3130 0338 48414C5F 		.ascii	"HAL_PWR_EnterSTOPMode\000"
 3130      5057525F 
 3130      456E7465 
 3130      7253544F 
 3130      504D6F64 
 3131              	.LASF32:
 3132 034e 43435349 		.ascii	"CCSIDR\000"
 3132      445200
 3133              	.LASF120:
 3134 0355 48414C5F 		.ascii	"HAL_PWR_EnablePVD\000"
 3134      5057525F 
 3134      456E6162 
 3134      6C655056 
 3134      4400
 3135              	.LASF19:
 3136 0367 43465352 		.ascii	"CFSR\000"
 3136      00
 3137              	.LASF27:
 3138 036c 49445F41 		.ascii	"ID_AFR\000"
 3138      465200
 3139              	.LASF92:
 3140 0373 574B5550 		.ascii	"WKUPFR\000"
 3140      465200
 3141              	.LASF112:
 3142 037a 61737365 		.ascii	"assert_param\000"
 3142      72745F70 
 3142      6172616D 
 3142      00
 3143              	.LASF127:
 3144 0387 5F5F4953 		.ascii	"__ISB\000"
 3144      4200
 3145              	.LASF55:
 3146 038d 41484250 		.ascii	"AHBPCR\000"
 3146      435200
 3147              	.LASF97:
 3148 0394 666C6F61 		.ascii	"float\000"
 3148      7400
 3149              	.LASF118:
 3150 039a 57616B65 		.ascii	"WakeUpPinPolarity\000"
 3150      55705069 
 3150      6E506F6C 
 3150      61726974 
 3150      7900
 3151              	.LASF38:
 3152 03ac 4D564652 		.ascii	"MVFR0\000"
 3152      3000
 3153              	.LASF39:
 3154 03b2 4D564652 		.ascii	"MVFR1\000"
 3154      3100
 3155              	.LASF40:
 3156 03b8 4D564652 		.ascii	"MVFR2\000"
 3156      3200
 3157              	.LASF30:
ARM GAS  C:\Users\DEVELO~1\AppData\Local\Temp\cc677bLb.s 			page 59


 3158 03be 52455345 		.ascii	"RESERVED0\000"
 3158      52564544 
 3158      3000
 3159              	.LASF67:
 3160 03c8 52455345 		.ascii	"RESERVED1\000"
 3160      52564544 
 3160      3100
 3161              	.LASF74:
 3162 03d2 52455345 		.ascii	"RESERVED2\000"
 3162      52564544 
 3162      3200
 3163              	.LASF61:
 3164 03dc 52545352 		.ascii	"RTSR1\000"
 3164      3100
 3165              	.LASF68:
 3166 03e2 52545352 		.ascii	"RTSR2\000"
 3166      3200
 3167              	.LASF75:
 3168 03e8 52545352 		.ascii	"RTSR3\000"
 3168      3300
 3169              	.LASF43:
 3170 03ee 52455345 		.ascii	"RESERVED6\000"
 3170      52564544 
 3170      3600
 3171              	.LASF52:
 3172 03f8 52455345 		.ascii	"RESERVED7\000"
 3172      52564544 
 3172      3700
 3173              	.LASF58:
 3174 0402 52455345 		.ascii	"RESERVED8\000"
 3174      52564544 
 3174      3800
 3175              	.LASF103:
 3176 040c 48414C5F 		.ascii	"HAL_PWR_DisableSEVOnPend\000"
 3176      5057525F 
 3176      44697361 
 3176      626C6553 
 3176      45564F6E 
 3177              	.LASF2:
 3178 0425 756E7369 		.ascii	"unsigned char\000"
 3178      676E6564 
 3178      20636861 
 3178      7200
 3179              	.LASF18:
 3180 0433 53484353 		.ascii	"SHCSR\000"
 3180      5200
 3181              	.LASF50:
 3182 0439 44434349 		.ascii	"DCCIMVAC\000"
 3182      4D564143 
 3182      00
 3183              	.LASF113:
 3184 0442 48414C5F 		.ascii	"HAL_PWR_EnterSLEEPMode\000"
 3184      5057525F 
 3184      456E7465 
 3184      72534C45 
 3184      45504D6F 
 3185              	.LASF0:
ARM GAS  C:\Users\DEVELO~1\AppData\Local\Temp\cc677bLb.s 			page 60


 3186 0459 73686F72 		.ascii	"short int\000"
 3186      7420696E 
 3186      7400
 3187              	.LASF28:
 3188 0463 49445F4D 		.ascii	"ID_MFR\000"
 3188      465200
 3189              	.LASF44:
 3190 046a 4943494D 		.ascii	"ICIMVAU\000"
 3190      56415500 
 3191              	.LASF46:
 3192 0472 44434953 		.ascii	"DCISW\000"
 3192      5700
 3193              	.LASF35:
 3194 0478 52455345 		.ascii	"RESERVED3\000"
 3194      52564544 
 3194      3300
 3195              	.LASF106:
 3196 0482 48414C5F 		.ascii	"HAL_PWR_EnableSleepOnExit\000"
 3196      5057525F 
 3196      456E6162 
 3196      6C65536C 
 3196      6565704F 
 3197              	.LASF41:
 3198 049c 52455345 		.ascii	"RESERVED5\000"
 3198      52564544 
 3198      3500
 3199              	.LASF12:
 3200 04a6 75696E74 		.ascii	"uint32_t\000"
 3200      33325F74 
 3200      00
 3201              	.LASF90:
 3202 04af 44334352 		.ascii	"D3CR\000"
 3202      00
 3203              	.LASF122:
 3204 04b4 73436F6E 		.ascii	"sConfigPVD\000"
 3204      66696750 
 3204      564400
 3205              	.LASF101:
 3206 04bf 5057525F 		.ascii	"PWR_PVDTypeDef\000"
 3206      50564454 
 3206      79706544 
 3206      656600
 3207              	.LASF65:
 3208 04ce 44335043 		.ascii	"D3PCR1L\000"
 3208      52314C00 
 3209              	.LASF95:
 3210 04d6 6C6F6E67 		.ascii	"long double\000"
 3210      20646F75 
 3210      626C6500 
 3211              	.LASF96:
 3212 04e2 63686172 		.ascii	"char\000"
 3212      00
 3213              	.LASF104:
 3214 04e7 48414C5F 		.ascii	"HAL_PWR_EnableSEVOnPend\000"
 3214      5057525F 
 3214      456E6162 
 3214      6C655345 
ARM GAS  C:\Users\DEVELO~1\AppData\Local\Temp\cc677bLb.s 			page 61


 3214      564F6E50 
 3215              	.LASF124:
 3216 04ff 48414C5F 		.ascii	"HAL_PWR_EnableBkUpAccess\000"
 3216      5057525F 
 3216      456E6162 
 3216      6C65426B 
 3216      55704163 
 3217              	.LASF49:
 3218 0518 44434353 		.ascii	"DCCSW\000"
 3218      5700
 3219              	.LASF119:
 3220 051e 48414C5F 		.ascii	"HAL_PWR_DisablePVD\000"
 3220      5057525F 
 3220      44697361 
 3220      626C6550 
 3220      564400
 3221              	.LASF45:
 3222 0531 4443494D 		.ascii	"DCIMVAC\000"
 3222      56414300 
 3223              	.LASF107:
 3224 0539 48414C5F 		.ascii	"HAL_PWR_PVD_IRQHandler\000"
 3224      5057525F 
 3224      5056445F 
 3224      49525148 
 3224      616E646C 
 3225              	.LASF125:
 3226 0550 48414C5F 		.ascii	"HAL_PWR_DeInit\000"
 3226      5057525F 
 3226      4465496E 
 3226      697400
 3227              	.LASF37:
 3228 055f 52455345 		.ascii	"RESERVED4\000"
 3228      52564544 
 3228      3400
 3229              	.LASF82:
 3230 0569 454D5231 		.ascii	"EMR1\000"
 3230      00
 3231              	.LASF84:
 3232 056e 454D5232 		.ascii	"EMR2\000"
 3232      00
 3233              	.LASF86:
 3234 0573 454D5233 		.ascii	"EMR3\000"
 3234      00
 3235              	.LASF105:
 3236 0578 48414C5F 		.ascii	"HAL_PWR_DisableSleepOnExit\000"
 3236      5057525F 
 3236      44697361 
 3236      626C6553 
 3236      6C656570 
 3237              	.LASF110:
 3238 0593 52656775 		.ascii	"Regulator\000"
 3238      6C61746F 
 3238      7200
 3239              	.LASF73:
 3240 059d 44335043 		.ascii	"D3PCR2H\000"
 3240      52324800 
 3241              	.LASF72:
ARM GAS  C:\Users\DEVELO~1\AppData\Local\Temp\cc677bLb.s 			page 62


 3242 05a5 44335043 		.ascii	"D3PCR2L\000"
 3242      52324C00 
 3243              	.LASF11:
 3244 05ad 75696E74 		.ascii	"uint8_t\000"
 3244      385F7400 
 3245              	.LASF111:
 3246 05b5 53544F50 		.ascii	"STOPEntry\000"
 3246      456E7472 
 3246      7900
 3247              	.LASF29:
 3248 05bf 49445F49 		.ascii	"ID_ISAR\000"
 3248      53415200 
 3249              	.LASF117:
 3250 05c7 48414C5F 		.ascii	"HAL_PWR_EnableWakeUpPin\000"
 3250      5057525F 
 3250      456E6162 
 3250      6C655761 
 3250      6B655570 
 3251              	.LASF64:
 3252 05df 4433504D 		.ascii	"D3PMR1\000"
 3252      523100
 3253              	.LASF71:
 3254 05e6 4433504D 		.ascii	"D3PMR2\000"
 3254      523200
 3255              	.LASF78:
 3256 05ed 4433504D 		.ascii	"D3PMR3\000"
 3256      523300
 3257              	.LASF87:
 3258 05f4 45585449 		.ascii	"EXTI_TypeDef\000"
 3258      5F547970 
 3258      65446566 
 3258      00
 3259              	.LASF34:
 3260 0601 43504143 		.ascii	"CPACR\000"
 3260      5200
 3261              	.LASF20:
 3262 0607 48465352 		.ascii	"HFSR\000"
 3262      00
 3263              	.LASF88:
 3264 060c 43535231 		.ascii	"CSR1\000"
 3264      00
 3265              	.LASF66:
 3266 0611 44335043 		.ascii	"D3PCR1H\000"
 3266      52314800 
 3267              		.ident	"GCC: (Arm GNU Toolchain 11.3.Rel1) 11.3.1 20220712"
ARM GAS  C:\Users\DEVELO~1\AppData\Local\Temp\cc677bLb.s 			page 63


DEFINED SYMBOLS
                            *ABS*:00000000 stm32h7xx_hal_pwr.c
C:\Users\DEVELO~1\AppData\Local\Temp\cc677bLb.s:19     .text.HAL_PWR_DeInit:00000000 $t
C:\Users\DEVELO~1\AppData\Local\Temp\cc677bLb.s:26     .text.HAL_PWR_DeInit:00000000 HAL_PWR_DeInit
C:\Users\DEVELO~1\AppData\Local\Temp\cc677bLb.s:40     .text.HAL_PWR_EnableBkUpAccess:00000000 $t
C:\Users\DEVELO~1\AppData\Local\Temp\cc677bLb.s:47     .text.HAL_PWR_EnableBkUpAccess:00000000 HAL_PWR_EnableBkUpAccess
C:\Users\DEVELO~1\AppData\Local\Temp\cc677bLb.s:64     .text.HAL_PWR_EnableBkUpAccess:0000000c $d
C:\Users\DEVELO~1\AppData\Local\Temp\cc677bLb.s:69     .text.HAL_PWR_DisableBkUpAccess:00000000 $t
C:\Users\DEVELO~1\AppData\Local\Temp\cc677bLb.s:76     .text.HAL_PWR_DisableBkUpAccess:00000000 HAL_PWR_DisableBkUpAccess
C:\Users\DEVELO~1\AppData\Local\Temp\cc677bLb.s:93     .text.HAL_PWR_DisableBkUpAccess:0000000c $d
C:\Users\DEVELO~1\AppData\Local\Temp\cc677bLb.s:98     .text.HAL_PWR_ConfigPVD:00000000 $t
C:\Users\DEVELO~1\AppData\Local\Temp\cc677bLb.s:105    .text.HAL_PWR_ConfigPVD:00000000 HAL_PWR_ConfigPVD
C:\Users\DEVELO~1\AppData\Local\Temp\cc677bLb.s:236    .text.HAL_PWR_ConfigPVD:000000c8 $d
C:\Users\DEVELO~1\AppData\Local\Temp\cc677bLb.s:241    .text.HAL_PWR_EnablePVD:00000000 $t
C:\Users\DEVELO~1\AppData\Local\Temp\cc677bLb.s:248    .text.HAL_PWR_EnablePVD:00000000 HAL_PWR_EnablePVD
C:\Users\DEVELO~1\AppData\Local\Temp\cc677bLb.s:265    .text.HAL_PWR_EnablePVD:0000000c $d
C:\Users\DEVELO~1\AppData\Local\Temp\cc677bLb.s:270    .text.HAL_PWR_DisablePVD:00000000 $t
C:\Users\DEVELO~1\AppData\Local\Temp\cc677bLb.s:277    .text.HAL_PWR_DisablePVD:00000000 HAL_PWR_DisablePVD
C:\Users\DEVELO~1\AppData\Local\Temp\cc677bLb.s:294    .text.HAL_PWR_DisablePVD:0000000c $d
C:\Users\DEVELO~1\AppData\Local\Temp\cc677bLb.s:299    .text.HAL_PWR_EnableWakeUpPin:00000000 $t
C:\Users\DEVELO~1\AppData\Local\Temp\cc677bLb.s:306    .text.HAL_PWR_EnableWakeUpPin:00000000 HAL_PWR_EnableWakeUpPin
C:\Users\DEVELO~1\AppData\Local\Temp\cc677bLb.s:380    .text.HAL_PWR_EnableWakeUpPin:0000005c $d
C:\Users\DEVELO~1\AppData\Local\Temp\cc677bLb.s:387    .text.HAL_PWR_DisableWakeUpPin:00000000 $t
C:\Users\DEVELO~1\AppData\Local\Temp\cc677bLb.s:394    .text.HAL_PWR_DisableWakeUpPin:00000000 HAL_PWR_DisableWakeUpPin
C:\Users\DEVELO~1\AppData\Local\Temp\cc677bLb.s:469    .text.HAL_PWR_DisableWakeUpPin:00000060 $d
C:\Users\DEVELO~1\AppData\Local\Temp\cc677bLb.s:475    .text.HAL_PWR_EnterSLEEPMode:00000000 $t
C:\Users\DEVELO~1\AppData\Local\Temp\cc677bLb.s:482    .text.HAL_PWR_EnterSLEEPMode:00000000 HAL_PWR_EnterSLEEPMode
C:\Users\DEVELO~1\AppData\Local\Temp\cc677bLb.s:548    .text.HAL_PWR_EnterSLEEPMode:00000034 $d
C:\Users\DEVELO~1\AppData\Local\Temp\cc677bLb.s:553    .text.HAL_PWR_EnterSTOPMode:00000000 $t
C:\Users\DEVELO~1\AppData\Local\Temp\cc677bLb.s:560    .text.HAL_PWR_EnterSTOPMode:00000000 HAL_PWR_EnterSTOPMode
C:\Users\DEVELO~1\AppData\Local\Temp\cc677bLb.s:677    .text.HAL_PWR_EnterSTOPMode:00000064 $d
C:\Users\DEVELO~1\AppData\Local\Temp\cc677bLb.s:683    .text.HAL_PWR_EnterSTANDBYMode:00000000 $t
C:\Users\DEVELO~1\AppData\Local\Temp\cc677bLb.s:690    .text.HAL_PWR_EnterSTANDBYMode:00000000 HAL_PWR_EnterSTANDBYMode
C:\Users\DEVELO~1\AppData\Local\Temp\cc677bLb.s:753    .text.HAL_PWR_EnterSTANDBYMode:00000028 $d
C:\Users\DEVELO~1\AppData\Local\Temp\cc677bLb.s:759    .text.HAL_PWR_EnableSleepOnExit:00000000 $t
C:\Users\DEVELO~1\AppData\Local\Temp\cc677bLb.s:766    .text.HAL_PWR_EnableSleepOnExit:00000000 HAL_PWR_EnableSleepOnExit
C:\Users\DEVELO~1\AppData\Local\Temp\cc677bLb.s:783    .text.HAL_PWR_EnableSleepOnExit:0000000c $d
C:\Users\DEVELO~1\AppData\Local\Temp\cc677bLb.s:788    .text.HAL_PWR_DisableSleepOnExit:00000000 $t
C:\Users\DEVELO~1\AppData\Local\Temp\cc677bLb.s:795    .text.HAL_PWR_DisableSleepOnExit:00000000 HAL_PWR_DisableSleepOnExit
C:\Users\DEVELO~1\AppData\Local\Temp\cc677bLb.s:812    .text.HAL_PWR_DisableSleepOnExit:0000000c $d
C:\Users\DEVELO~1\AppData\Local\Temp\cc677bLb.s:817    .text.HAL_PWR_EnableSEVOnPend:00000000 $t
C:\Users\DEVELO~1\AppData\Local\Temp\cc677bLb.s:824    .text.HAL_PWR_EnableSEVOnPend:00000000 HAL_PWR_EnableSEVOnPend
C:\Users\DEVELO~1\AppData\Local\Temp\cc677bLb.s:841    .text.HAL_PWR_EnableSEVOnPend:0000000c $d
C:\Users\DEVELO~1\AppData\Local\Temp\cc677bLb.s:846    .text.HAL_PWR_DisableSEVOnPend:00000000 $t
C:\Users\DEVELO~1\AppData\Local\Temp\cc677bLb.s:853    .text.HAL_PWR_DisableSEVOnPend:00000000 HAL_PWR_DisableSEVOnPend
C:\Users\DEVELO~1\AppData\Local\Temp\cc677bLb.s:870    .text.HAL_PWR_DisableSEVOnPend:0000000c $d
C:\Users\DEVELO~1\AppData\Local\Temp\cc677bLb.s:875    .text.HAL_PWR_PVDCallback:00000000 $t
C:\Users\DEVELO~1\AppData\Local\Temp\cc677bLb.s:882    .text.HAL_PWR_PVDCallback:00000000 HAL_PWR_PVDCallback
C:\Users\DEVELO~1\AppData\Local\Temp\cc677bLb.s:895    .text.HAL_PWR_PVD_IRQHandler:00000000 $t
C:\Users\DEVELO~1\AppData\Local\Temp\cc677bLb.s:902    .text.HAL_PWR_PVD_IRQHandler:00000000 HAL_PWR_PVD_IRQHandler

UNDEFINED SYMBOLS
assert_param
