ARM GAS  C:\Users\DEVELO~1\AppData\Local\Temp\ccvx4bVJ.s 			page 1


   1              		.cpu cortex-m7
   2              		.arch armv7e-m
   3              		.fpu fpv5-d16
   4              		.eabi_attribute 28, 1
   5              		.eabi_attribute 20, 1
   6              		.eabi_attribute 21, 1
   7              		.eabi_attribute 23, 3
   8              		.eabi_attribute 24, 1
   9              		.eabi_attribute 25, 1
  10              		.eabi_attribute 26, 1
  11              		.eabi_attribute 30, 2
  12              		.eabi_attribute 34, 1
  13              		.eabi_attribute 18, 4
  14              		.file	"stm32_bdma.c"
  15              		.text
  16              	.Ltext0:
  17              		.cfi_sections	.debug_frame
  18              		.section	.text.Vector244,"ax",%progbits
  19              		.align	1
  20              		.p2align 2,,3
  21              		.global	Vector244
  22              		.syntax unified
  23              		.thumb
  24              		.thumb_func
  25              		.type	Vector244, %function
  26              	Vector244:
  27              	.LFB448:
  28              		.file 1 "./docs/ChibiOS/os/hal/ports/STM32/LLD/BDMAv1/stm32_bdma.c"
  29              		.loc 1 117 43 view -0
  30              		.cfi_startproc
  31              		@ args = 0, pretend = 0, frame = 0
  32              		@ frame_needed = 0, uses_anonymous_args = 0
  33              		.loc 1 118 3 view .LVU1
  34              		.loc 1 120 3 view .LVU2
  35              		.loc 1 120 3 view .LVU3
  36              		.loc 1 120 3 view .LVU4
  37              		.loc 1 120 3 view .LVU5
  38              		.loc 1 120 3 view .LVU6
  39 0000 0A48     		ldr	r0, .L8
  40              		.loc 1 117 43 is_stmt 0 view .LVU7
  41 0002 08B5     		push	{r3, lr}
  42              		.cfi_def_cfa_offset 8
  43              		.cfi_offset 3, -8
  44              		.cfi_offset 14, -4
  45              		.loc 1 120 3 view .LVU8
  46 0004 FFF7FEFF 		bl	__trace_isr_enter
  47              	.LVL0:
  48              		.loc 1 120 22 is_stmt 1 view .LVU9
  49              		.loc 1 122 3 view .LVU10
  50              		.loc 1 122 16 is_stmt 0 view .LVU11
  51 0008 094B     		ldr	r3, .L8+4
  52              		.loc 1 124 22 view .LVU12
  53 000a 0A48     		ldr	r0, .L8+8
  54              		.loc 1 122 16 view .LVU13
  55 000c 1968     		ldr	r1, [r3]
  56              		.loc 1 124 22 view .LVU14
  57 000e 4268     		ldr	r2, [r0, #4]
ARM GAS  C:\Users\DEVELO~1\AppData\Local\Temp\ccvx4bVJ.s 			page 2


  58              		.loc 1 122 9 view .LVU15
  59 0010 01F00E01 		and	r1, r1, #14
  60              	.LVL1:
  61              		.loc 1 123 3 is_stmt 1 view .LVU16
  62              		.loc 1 123 14 is_stmt 0 view .LVU17
  63 0014 5960     		str	r1, [r3, #4]
  64              		.loc 1 124 3 is_stmt 1 view .LVU18
  65              		.loc 1 124 6 is_stmt 0 view .LVU19
  66 0016 0AB1     		cbz	r2, .L2
  67              		.loc 1 125 5 is_stmt 1 view .LVU20
  68 0018 8068     		ldr	r0, [r0, #8]
  69 001a 9047     		blx	r2
  70              	.LVL2:
  71              	.L2:
  72              		.loc 1 127 3 view .LVU21
  73              		.loc 1 127 3 view .LVU22
  74 001c 0348     		ldr	r0, .L8
  75 001e FFF7FEFF 		bl	__trace_isr_leave
  76              	.LVL3:
  77              		.loc 1 127 3 view .LVU23
  78              		.loc 1 127 3 view .LVU24
  79              		.loc 1 127 3 view .LVU25
  80              		.loc 1 128 1 is_stmt 0 view .LVU26
  81 0022 BDE80840 		pop	{r3, lr}
  82              		.cfi_restore 14
  83              		.cfi_restore 3
  84              		.cfi_def_cfa_offset 0
  85              		.loc 1 127 3 view .LVU27
  86 0026 FFF7FEBF 		b	__port_irq_epilogue
  87              	.LVL4:
  88              	.L9:
  89 002a 00BF     		.align	2
  90              	.L8:
  91 002c 00000000 		.word	.LANCHOR0
  92 0030 00540258 		.word	1476547584
  93 0034 00000000 		.word	.LANCHOR1
  94              		.cfi_endproc
  95              	.LFE448:
  96              		.size	Vector244, .-Vector244
  97              		.section	.text.Vector248,"ax",%progbits
  98              		.align	1
  99              		.p2align 2,,3
 100              		.global	Vector248
 101              		.syntax unified
 102              		.thumb
 103              		.thumb_func
 104              		.type	Vector248, %function
 105              	Vector248:
 106              	.LFB449:
 107              		.loc 1 135 43 is_stmt 1 view -0
 108              		.cfi_startproc
 109              		@ args = 0, pretend = 0, frame = 0
 110              		@ frame_needed = 0, uses_anonymous_args = 0
 111              		.loc 1 136 3 view .LVU29
 112              		.loc 1 138 3 view .LVU30
 113              		.loc 1 138 3 view .LVU31
 114              		.loc 1 138 3 view .LVU32
ARM GAS  C:\Users\DEVELO~1\AppData\Local\Temp\ccvx4bVJ.s 			page 3


 115              		.loc 1 138 3 view .LVU33
 116              		.loc 1 138 3 view .LVU34
 117 0000 0B48     		ldr	r0, .L16
 118              		.loc 1 135 43 is_stmt 0 view .LVU35
 119 0002 10B5     		push	{r4, lr}
 120              		.cfi_def_cfa_offset 8
 121              		.cfi_offset 4, -8
 122              		.cfi_offset 14, -4
 123              		.loc 1 138 3 view .LVU36
 124 0004 FFF7FEFF 		bl	__trace_isr_enter
 125              	.LVL5:
 126              		.loc 1 138 22 is_stmt 1 view .LVU37
 127              		.loc 1 140 3 view .LVU38
 128              		.loc 1 140 16 is_stmt 0 view .LVU39
 129 0008 0A4B     		ldr	r3, .L16+4
 130              		.loc 1 142 22 view .LVU40
 131 000a 0B48     		ldr	r0, .L16+8
 132              		.loc 1 140 16 view .LVU41
 133 000c 1968     		ldr	r1, [r3]
 134              		.loc 1 142 22 view .LVU42
 135 000e C268     		ldr	r2, [r0, #12]
 136              		.loc 1 140 22 view .LVU43
 137 0010 0909     		lsrs	r1, r1, #4
 138              		.loc 1 140 9 view .LVU44
 139 0012 01F00E01 		and	r1, r1, #14
 140              	.LVL6:
 141              		.loc 1 141 3 is_stmt 1 view .LVU45
 142              		.loc 1 141 22 is_stmt 0 view .LVU46
 143 0016 0C01     		lsls	r4, r1, #4
 144              		.loc 1 141 14 view .LVU47
 145 0018 5C60     		str	r4, [r3, #4]
 146              		.loc 1 142 3 is_stmt 1 view .LVU48
 147              		.loc 1 142 6 is_stmt 0 view .LVU49
 148 001a 0AB1     		cbz	r2, .L11
 149              		.loc 1 143 5 is_stmt 1 view .LVU50
 150 001c 0069     		ldr	r0, [r0, #16]
 151 001e 9047     		blx	r2
 152              	.LVL7:
 153              	.L11:
 154              		.loc 1 145 3 view .LVU51
 155              		.loc 1 145 3 view .LVU52
 156 0020 0348     		ldr	r0, .L16
 157 0022 FFF7FEFF 		bl	__trace_isr_leave
 158              	.LVL8:
 159              		.loc 1 145 3 view .LVU53
 160              		.loc 1 145 3 view .LVU54
 161              		.loc 1 145 3 view .LVU55
 162              		.loc 1 146 1 is_stmt 0 view .LVU56
 163 0026 BDE81040 		pop	{r4, lr}
 164              		.cfi_restore 14
 165              		.cfi_restore 4
 166              		.cfi_def_cfa_offset 0
 167              		.loc 1 145 3 view .LVU57
 168 002a FFF7FEBF 		b	__port_irq_epilogue
 169              	.LVL9:
 170              	.L17:
 171 002e 00BF     		.align	2
ARM GAS  C:\Users\DEVELO~1\AppData\Local\Temp\ccvx4bVJ.s 			page 4


 172              	.L16:
 173 0030 00000000 		.word	.LANCHOR2
 174 0034 00540258 		.word	1476547584
 175 0038 00000000 		.word	.LANCHOR1
 176              		.cfi_endproc
 177              	.LFE449:
 178              		.size	Vector248, .-Vector248
 179              		.section	.text.Vector24C,"ax",%progbits
 180              		.align	1
 181              		.p2align 2,,3
 182              		.global	Vector24C
 183              		.syntax unified
 184              		.thumb
 185              		.thumb_func
 186              		.type	Vector24C, %function
 187              	Vector24C:
 188              	.LFB450:
 189              		.loc 1 153 43 is_stmt 1 view -0
 190              		.cfi_startproc
 191              		@ args = 0, pretend = 0, frame = 0
 192              		@ frame_needed = 0, uses_anonymous_args = 0
 193              		.loc 1 154 3 view .LVU59
 194              		.loc 1 156 3 view .LVU60
 195              		.loc 1 156 3 view .LVU61
 196              		.loc 1 156 3 view .LVU62
 197              		.loc 1 156 3 view .LVU63
 198              		.loc 1 156 3 view .LVU64
 199 0000 0B48     		ldr	r0, .L24
 200              		.loc 1 153 43 is_stmt 0 view .LVU65
 201 0002 10B5     		push	{r4, lr}
 202              		.cfi_def_cfa_offset 8
 203              		.cfi_offset 4, -8
 204              		.cfi_offset 14, -4
 205              		.loc 1 156 3 view .LVU66
 206 0004 FFF7FEFF 		bl	__trace_isr_enter
 207              	.LVL10:
 208              		.loc 1 156 22 is_stmt 1 view .LVU67
 209              		.loc 1 158 3 view .LVU68
 210              		.loc 1 158 16 is_stmt 0 view .LVU69
 211 0008 0A4B     		ldr	r3, .L24+4
 212              		.loc 1 160 22 view .LVU70
 213 000a 0B48     		ldr	r0, .L24+8
 214              		.loc 1 158 16 view .LVU71
 215 000c 1968     		ldr	r1, [r3]
 216              		.loc 1 160 22 view .LVU72
 217 000e 4269     		ldr	r2, [r0, #20]
 218              		.loc 1 158 22 view .LVU73
 219 0010 090A     		lsrs	r1, r1, #8
 220              		.loc 1 158 9 view .LVU74
 221 0012 01F00E01 		and	r1, r1, #14
 222              	.LVL11:
 223              		.loc 1 159 3 is_stmt 1 view .LVU75
 224              		.loc 1 159 22 is_stmt 0 view .LVU76
 225 0016 0C02     		lsls	r4, r1, #8
 226              		.loc 1 159 14 view .LVU77
 227 0018 5C60     		str	r4, [r3, #4]
 228              		.loc 1 160 3 is_stmt 1 view .LVU78
ARM GAS  C:\Users\DEVELO~1\AppData\Local\Temp\ccvx4bVJ.s 			page 5


 229              		.loc 1 160 6 is_stmt 0 view .LVU79
 230 001a 0AB1     		cbz	r2, .L19
 231              		.loc 1 161 5 is_stmt 1 view .LVU80
 232 001c 8069     		ldr	r0, [r0, #24]
 233 001e 9047     		blx	r2
 234              	.LVL12:
 235              	.L19:
 236              		.loc 1 163 3 view .LVU81
 237              		.loc 1 163 3 view .LVU82
 238 0020 0348     		ldr	r0, .L24
 239 0022 FFF7FEFF 		bl	__trace_isr_leave
 240              	.LVL13:
 241              		.loc 1 163 3 view .LVU83
 242              		.loc 1 163 3 view .LVU84
 243              		.loc 1 163 3 view .LVU85
 244              		.loc 1 164 1 is_stmt 0 view .LVU86
 245 0026 BDE81040 		pop	{r4, lr}
 246              		.cfi_restore 14
 247              		.cfi_restore 4
 248              		.cfi_def_cfa_offset 0
 249              		.loc 1 163 3 view .LVU87
 250 002a FFF7FEBF 		b	__port_irq_epilogue
 251              	.LVL14:
 252              	.L25:
 253 002e 00BF     		.align	2
 254              	.L24:
 255 0030 00000000 		.word	.LANCHOR3
 256 0034 00540258 		.word	1476547584
 257 0038 00000000 		.word	.LANCHOR1
 258              		.cfi_endproc
 259              	.LFE450:
 260              		.size	Vector24C, .-Vector24C
 261              		.section	.text.Vector250,"ax",%progbits
 262              		.align	1
 263              		.p2align 2,,3
 264              		.global	Vector250
 265              		.syntax unified
 266              		.thumb
 267              		.thumb_func
 268              		.type	Vector250, %function
 269              	Vector250:
 270              	.LFB451:
 271              		.loc 1 171 43 is_stmt 1 view -0
 272              		.cfi_startproc
 273              		@ args = 0, pretend = 0, frame = 0
 274              		@ frame_needed = 0, uses_anonymous_args = 0
 275              		.loc 1 172 3 view .LVU89
 276              		.loc 1 174 3 view .LVU90
 277              		.loc 1 174 3 view .LVU91
 278              		.loc 1 174 3 view .LVU92
 279              		.loc 1 174 3 view .LVU93
 280              		.loc 1 174 3 view .LVU94
 281 0000 0B48     		ldr	r0, .L32
 282              		.loc 1 171 43 is_stmt 0 view .LVU95
 283 0002 10B5     		push	{r4, lr}
 284              		.cfi_def_cfa_offset 8
 285              		.cfi_offset 4, -8
ARM GAS  C:\Users\DEVELO~1\AppData\Local\Temp\ccvx4bVJ.s 			page 6


 286              		.cfi_offset 14, -4
 287              		.loc 1 174 3 view .LVU96
 288 0004 FFF7FEFF 		bl	__trace_isr_enter
 289              	.LVL15:
 290              		.loc 1 174 22 is_stmt 1 view .LVU97
 291              		.loc 1 176 3 view .LVU98
 292              		.loc 1 176 16 is_stmt 0 view .LVU99
 293 0008 0A4B     		ldr	r3, .L32+4
 294              		.loc 1 178 22 view .LVU100
 295 000a 0B48     		ldr	r0, .L32+8
 296              		.loc 1 176 16 view .LVU101
 297 000c 1968     		ldr	r1, [r3]
 298              		.loc 1 178 22 view .LVU102
 299 000e C269     		ldr	r2, [r0, #28]
 300              		.loc 1 176 22 view .LVU103
 301 0010 090B     		lsrs	r1, r1, #12
 302              		.loc 1 176 9 view .LVU104
 303 0012 01F00E01 		and	r1, r1, #14
 304              	.LVL16:
 305              		.loc 1 177 3 is_stmt 1 view .LVU105
 306              		.loc 1 177 22 is_stmt 0 view .LVU106
 307 0016 0C03     		lsls	r4, r1, #12
 308              		.loc 1 177 14 view .LVU107
 309 0018 5C60     		str	r4, [r3, #4]
 310              		.loc 1 178 3 is_stmt 1 view .LVU108
 311              		.loc 1 178 6 is_stmt 0 view .LVU109
 312 001a 0AB1     		cbz	r2, .L27
 313              		.loc 1 179 5 is_stmt 1 view .LVU110
 314 001c 006A     		ldr	r0, [r0, #32]
 315 001e 9047     		blx	r2
 316              	.LVL17:
 317              	.L27:
 318              		.loc 1 181 3 view .LVU111
 319              		.loc 1 181 3 view .LVU112
 320 0020 0348     		ldr	r0, .L32
 321 0022 FFF7FEFF 		bl	__trace_isr_leave
 322              	.LVL18:
 323              		.loc 1 181 3 view .LVU113
 324              		.loc 1 181 3 view .LVU114
 325              		.loc 1 181 3 view .LVU115
 326              		.loc 1 182 1 is_stmt 0 view .LVU116
 327 0026 BDE81040 		pop	{r4, lr}
 328              		.cfi_restore 14
 329              		.cfi_restore 4
 330              		.cfi_def_cfa_offset 0
 331              		.loc 1 181 3 view .LVU117
 332 002a FFF7FEBF 		b	__port_irq_epilogue
 333              	.LVL19:
 334              	.L33:
 335 002e 00BF     		.align	2
 336              	.L32:
 337 0030 00000000 		.word	.LANCHOR4
 338 0034 00540258 		.word	1476547584
 339 0038 00000000 		.word	.LANCHOR1
 340              		.cfi_endproc
 341              	.LFE451:
 342              		.size	Vector250, .-Vector250
ARM GAS  C:\Users\DEVELO~1\AppData\Local\Temp\ccvx4bVJ.s 			page 7


 343              		.section	.text.Vector254,"ax",%progbits
 344              		.align	1
 345              		.p2align 2,,3
 346              		.global	Vector254
 347              		.syntax unified
 348              		.thumb
 349              		.thumb_func
 350              		.type	Vector254, %function
 351              	Vector254:
 352              	.LFB452:
 353              		.loc 1 189 43 is_stmt 1 view -0
 354              		.cfi_startproc
 355              		@ args = 0, pretend = 0, frame = 0
 356              		@ frame_needed = 0, uses_anonymous_args = 0
 357              		.loc 1 190 3 view .LVU119
 358              		.loc 1 192 3 view .LVU120
 359              		.loc 1 192 3 view .LVU121
 360              		.loc 1 192 3 view .LVU122
 361              		.loc 1 192 3 view .LVU123
 362              		.loc 1 192 3 view .LVU124
 363 0000 0B48     		ldr	r0, .L40
 364              		.loc 1 189 43 is_stmt 0 view .LVU125
 365 0002 10B5     		push	{r4, lr}
 366              		.cfi_def_cfa_offset 8
 367              		.cfi_offset 4, -8
 368              		.cfi_offset 14, -4
 369              		.loc 1 192 3 view .LVU126
 370 0004 FFF7FEFF 		bl	__trace_isr_enter
 371              	.LVL20:
 372              		.loc 1 192 22 is_stmt 1 view .LVU127
 373              		.loc 1 194 3 view .LVU128
 374              		.loc 1 194 16 is_stmt 0 view .LVU129
 375 0008 0A4B     		ldr	r3, .L40+4
 376              		.loc 1 196 22 view .LVU130
 377 000a 0B48     		ldr	r0, .L40+8
 378              		.loc 1 194 16 view .LVU131
 379 000c 1968     		ldr	r1, [r3]
 380              		.loc 1 196 22 view .LVU132
 381 000e 426A     		ldr	r2, [r0, #36]
 382              		.loc 1 194 22 view .LVU133
 383 0010 090C     		lsrs	r1, r1, #16
 384              		.loc 1 194 9 view .LVU134
 385 0012 01F00E01 		and	r1, r1, #14
 386              	.LVL21:
 387              		.loc 1 195 3 is_stmt 1 view .LVU135
 388              		.loc 1 195 22 is_stmt 0 view .LVU136
 389 0016 0C04     		lsls	r4, r1, #16
 390              		.loc 1 195 14 view .LVU137
 391 0018 5C60     		str	r4, [r3, #4]
 392              		.loc 1 196 3 is_stmt 1 view .LVU138
 393              		.loc 1 196 6 is_stmt 0 view .LVU139
 394 001a 0AB1     		cbz	r2, .L35
 395              		.loc 1 197 5 is_stmt 1 view .LVU140
 396 001c 806A     		ldr	r0, [r0, #40]
 397 001e 9047     		blx	r2
 398              	.LVL22:
 399              	.L35:
ARM GAS  C:\Users\DEVELO~1\AppData\Local\Temp\ccvx4bVJ.s 			page 8


 400              		.loc 1 199 3 view .LVU141
 401              		.loc 1 199 3 view .LVU142
 402 0020 0348     		ldr	r0, .L40
 403 0022 FFF7FEFF 		bl	__trace_isr_leave
 404              	.LVL23:
 405              		.loc 1 199 3 view .LVU143
 406              		.loc 1 199 3 view .LVU144
 407              		.loc 1 199 3 view .LVU145
 408              		.loc 1 200 1 is_stmt 0 view .LVU146
 409 0026 BDE81040 		pop	{r4, lr}
 410              		.cfi_restore 14
 411              		.cfi_restore 4
 412              		.cfi_def_cfa_offset 0
 413              		.loc 1 199 3 view .LVU147
 414 002a FFF7FEBF 		b	__port_irq_epilogue
 415              	.LVL24:
 416              	.L41:
 417 002e 00BF     		.align	2
 418              	.L40:
 419 0030 00000000 		.word	.LANCHOR5
 420 0034 00540258 		.word	1476547584
 421 0038 00000000 		.word	.LANCHOR1
 422              		.cfi_endproc
 423              	.LFE452:
 424              		.size	Vector254, .-Vector254
 425              		.section	.text.Vector258,"ax",%progbits
 426              		.align	1
 427              		.p2align 2,,3
 428              		.global	Vector258
 429              		.syntax unified
 430              		.thumb
 431              		.thumb_func
 432              		.type	Vector258, %function
 433              	Vector258:
 434              	.LFB453:
 435              		.loc 1 207 43 is_stmt 1 view -0
 436              		.cfi_startproc
 437              		@ args = 0, pretend = 0, frame = 0
 438              		@ frame_needed = 0, uses_anonymous_args = 0
 439              		.loc 1 208 3 view .LVU149
 440              		.loc 1 210 3 view .LVU150
 441              		.loc 1 210 3 view .LVU151
 442              		.loc 1 210 3 view .LVU152
 443              		.loc 1 210 3 view .LVU153
 444              		.loc 1 210 3 view .LVU154
 445 0000 0B48     		ldr	r0, .L48
 446              		.loc 1 207 43 is_stmt 0 view .LVU155
 447 0002 10B5     		push	{r4, lr}
 448              		.cfi_def_cfa_offset 8
 449              		.cfi_offset 4, -8
 450              		.cfi_offset 14, -4
 451              		.loc 1 210 3 view .LVU156
 452 0004 FFF7FEFF 		bl	__trace_isr_enter
 453              	.LVL25:
 454              		.loc 1 210 22 is_stmt 1 view .LVU157
 455              		.loc 1 212 3 view .LVU158
 456              		.loc 1 212 16 is_stmt 0 view .LVU159
ARM GAS  C:\Users\DEVELO~1\AppData\Local\Temp\ccvx4bVJ.s 			page 9


 457 0008 0A4B     		ldr	r3, .L48+4
 458              		.loc 1 214 22 view .LVU160
 459 000a 0B48     		ldr	r0, .L48+8
 460              		.loc 1 212 16 view .LVU161
 461 000c 1968     		ldr	r1, [r3]
 462              		.loc 1 214 22 view .LVU162
 463 000e C26A     		ldr	r2, [r0, #44]
 464              		.loc 1 212 22 view .LVU163
 465 0010 090D     		lsrs	r1, r1, #20
 466              		.loc 1 212 9 view .LVU164
 467 0012 01F00E01 		and	r1, r1, #14
 468              	.LVL26:
 469              		.loc 1 213 3 is_stmt 1 view .LVU165
 470              		.loc 1 213 22 is_stmt 0 view .LVU166
 471 0016 0C05     		lsls	r4, r1, #20
 472              		.loc 1 213 14 view .LVU167
 473 0018 5C60     		str	r4, [r3, #4]
 474              		.loc 1 214 3 is_stmt 1 view .LVU168
 475              		.loc 1 214 6 is_stmt 0 view .LVU169
 476 001a 0AB1     		cbz	r2, .L43
 477              		.loc 1 215 5 is_stmt 1 view .LVU170
 478 001c 006B     		ldr	r0, [r0, #48]
 479 001e 9047     		blx	r2
 480              	.LVL27:
 481              	.L43:
 482              		.loc 1 217 3 view .LVU171
 483              		.loc 1 217 3 view .LVU172
 484 0020 0348     		ldr	r0, .L48
 485 0022 FFF7FEFF 		bl	__trace_isr_leave
 486              	.LVL28:
 487              		.loc 1 217 3 view .LVU173
 488              		.loc 1 217 3 view .LVU174
 489              		.loc 1 217 3 view .LVU175
 490              		.loc 1 218 1 is_stmt 0 view .LVU176
 491 0026 BDE81040 		pop	{r4, lr}
 492              		.cfi_restore 14
 493              		.cfi_restore 4
 494              		.cfi_def_cfa_offset 0
 495              		.loc 1 217 3 view .LVU177
 496 002a FFF7FEBF 		b	__port_irq_epilogue
 497              	.LVL29:
 498              	.L49:
 499 002e 00BF     		.align	2
 500              	.L48:
 501 0030 00000000 		.word	.LANCHOR6
 502 0034 00540258 		.word	1476547584
 503 0038 00000000 		.word	.LANCHOR1
 504              		.cfi_endproc
 505              	.LFE453:
 506              		.size	Vector258, .-Vector258
 507              		.section	.text.Vector25C,"ax",%progbits
 508              		.align	1
 509              		.p2align 2,,3
 510              		.global	Vector25C
 511              		.syntax unified
 512              		.thumb
 513              		.thumb_func
ARM GAS  C:\Users\DEVELO~1\AppData\Local\Temp\ccvx4bVJ.s 			page 10


 514              		.type	Vector25C, %function
 515              	Vector25C:
 516              	.LFB454:
 517              		.loc 1 225 43 is_stmt 1 view -0
 518              		.cfi_startproc
 519              		@ args = 0, pretend = 0, frame = 0
 520              		@ frame_needed = 0, uses_anonymous_args = 0
 521              		.loc 1 226 3 view .LVU179
 522              		.loc 1 228 3 view .LVU180
 523              		.loc 1 228 3 view .LVU181
 524              		.loc 1 228 3 view .LVU182
 525              		.loc 1 228 3 view .LVU183
 526              		.loc 1 228 3 view .LVU184
 527 0000 0B48     		ldr	r0, .L56
 528              		.loc 1 225 43 is_stmt 0 view .LVU185
 529 0002 10B5     		push	{r4, lr}
 530              		.cfi_def_cfa_offset 8
 531              		.cfi_offset 4, -8
 532              		.cfi_offset 14, -4
 533              		.loc 1 228 3 view .LVU186
 534 0004 FFF7FEFF 		bl	__trace_isr_enter
 535              	.LVL30:
 536              		.loc 1 228 22 is_stmt 1 view .LVU187
 537              		.loc 1 230 3 view .LVU188
 538              		.loc 1 230 16 is_stmt 0 view .LVU189
 539 0008 0A4B     		ldr	r3, .L56+4
 540              		.loc 1 232 22 view .LVU190
 541 000a 0B48     		ldr	r0, .L56+8
 542              		.loc 1 230 16 view .LVU191
 543 000c 1968     		ldr	r1, [r3]
 544              		.loc 1 232 22 view .LVU192
 545 000e 426B     		ldr	r2, [r0, #52]
 546              		.loc 1 230 22 view .LVU193
 547 0010 090E     		lsrs	r1, r1, #24
 548              		.loc 1 230 9 view .LVU194
 549 0012 01F00E01 		and	r1, r1, #14
 550              	.LVL31:
 551              		.loc 1 231 3 is_stmt 1 view .LVU195
 552              		.loc 1 231 22 is_stmt 0 view .LVU196
 553 0016 0C06     		lsls	r4, r1, #24
 554              		.loc 1 231 14 view .LVU197
 555 0018 5C60     		str	r4, [r3, #4]
 556              		.loc 1 232 3 is_stmt 1 view .LVU198
 557              		.loc 1 232 6 is_stmt 0 view .LVU199
 558 001a 0AB1     		cbz	r2, .L51
 559              		.loc 1 233 5 is_stmt 1 view .LVU200
 560 001c 806B     		ldr	r0, [r0, #56]
 561 001e 9047     		blx	r2
 562              	.LVL32:
 563              	.L51:
 564              		.loc 1 235 3 view .LVU201
 565              		.loc 1 235 3 view .LVU202
 566 0020 0348     		ldr	r0, .L56
 567 0022 FFF7FEFF 		bl	__trace_isr_leave
 568              	.LVL33:
 569              		.loc 1 235 3 view .LVU203
 570              		.loc 1 235 3 view .LVU204
ARM GAS  C:\Users\DEVELO~1\AppData\Local\Temp\ccvx4bVJ.s 			page 11


 571              		.loc 1 235 3 view .LVU205
 572              		.loc 1 236 1 is_stmt 0 view .LVU206
 573 0026 BDE81040 		pop	{r4, lr}
 574              		.cfi_restore 14
 575              		.cfi_restore 4
 576              		.cfi_def_cfa_offset 0
 577              		.loc 1 235 3 view .LVU207
 578 002a FFF7FEBF 		b	__port_irq_epilogue
 579              	.LVL34:
 580              	.L57:
 581 002e 00BF     		.align	2
 582              	.L56:
 583 0030 00000000 		.word	.LANCHOR7
 584 0034 00540258 		.word	1476547584
 585 0038 00000000 		.word	.LANCHOR1
 586              		.cfi_endproc
 587              	.LFE454:
 588              		.size	Vector25C, .-Vector25C
 589              		.section	.text.Vector260,"ax",%progbits
 590              		.align	1
 591              		.p2align 2,,3
 592              		.global	Vector260
 593              		.syntax unified
 594              		.thumb
 595              		.thumb_func
 596              		.type	Vector260, %function
 597              	Vector260:
 598              	.LFB455:
 599              		.loc 1 243 43 is_stmt 1 view -0
 600              		.cfi_startproc
 601              		@ args = 0, pretend = 0, frame = 0
 602              		@ frame_needed = 0, uses_anonymous_args = 0
 603              		.loc 1 244 3 view .LVU209
 604              		.loc 1 246 3 view .LVU210
 605              		.loc 1 246 3 view .LVU211
 606              		.loc 1 246 3 view .LVU212
 607              		.loc 1 246 3 view .LVU213
 608              		.loc 1 246 3 view .LVU214
 609 0000 0B48     		ldr	r0, .L64
 610              		.loc 1 243 43 is_stmt 0 view .LVU215
 611 0002 10B5     		push	{r4, lr}
 612              		.cfi_def_cfa_offset 8
 613              		.cfi_offset 4, -8
 614              		.cfi_offset 14, -4
 615              		.loc 1 246 3 view .LVU216
 616 0004 FFF7FEFF 		bl	__trace_isr_enter
 617              	.LVL35:
 618              		.loc 1 246 22 is_stmt 1 view .LVU217
 619              		.loc 1 248 3 view .LVU218
 620              		.loc 1 248 16 is_stmt 0 view .LVU219
 621 0008 0A4B     		ldr	r3, .L64+4
 622              		.loc 1 250 22 view .LVU220
 623 000a 0B48     		ldr	r0, .L64+8
 624              		.loc 1 248 16 view .LVU221
 625 000c 1968     		ldr	r1, [r3]
 626              		.loc 1 250 22 view .LVU222
 627 000e C26B     		ldr	r2, [r0, #60]
ARM GAS  C:\Users\DEVELO~1\AppData\Local\Temp\ccvx4bVJ.s 			page 12


 628              		.loc 1 248 22 view .LVU223
 629 0010 090F     		lsrs	r1, r1, #28
 630              		.loc 1 248 9 view .LVU224
 631 0012 01F00E01 		and	r1, r1, #14
 632              	.LVL36:
 633              		.loc 1 249 3 is_stmt 1 view .LVU225
 634              		.loc 1 249 22 is_stmt 0 view .LVU226
 635 0016 0C07     		lsls	r4, r1, #28
 636              		.loc 1 249 14 view .LVU227
 637 0018 5C60     		str	r4, [r3, #4]
 638              		.loc 1 250 3 is_stmt 1 view .LVU228
 639              		.loc 1 250 6 is_stmt 0 view .LVU229
 640 001a 0AB1     		cbz	r2, .L59
 641              		.loc 1 251 5 is_stmt 1 view .LVU230
 642 001c 006C     		ldr	r0, [r0, #64]
 643 001e 9047     		blx	r2
 644              	.LVL37:
 645              	.L59:
 646              		.loc 1 253 3 view .LVU231
 647              		.loc 1 253 3 view .LVU232
 648 0020 0348     		ldr	r0, .L64
 649 0022 FFF7FEFF 		bl	__trace_isr_leave
 650              	.LVL38:
 651              		.loc 1 253 3 view .LVU233
 652              		.loc 1 253 3 view .LVU234
 653              		.loc 1 253 3 view .LVU235
 654              		.loc 1 254 1 is_stmt 0 view .LVU236
 655 0026 BDE81040 		pop	{r4, lr}
 656              		.cfi_restore 14
 657              		.cfi_restore 4
 658              		.cfi_def_cfa_offset 0
 659              		.loc 1 253 3 view .LVU237
 660 002a FFF7FEBF 		b	__port_irq_epilogue
 661              	.LVL39:
 662              	.L65:
 663 002e 00BF     		.align	2
 664              	.L64:
 665 0030 00000000 		.word	.LANCHOR8
 666 0034 00540258 		.word	1476547584
 667 0038 00000000 		.word	.LANCHOR1
 668              		.cfi_endproc
 669              	.LFE455:
 670              		.size	Vector260, .-Vector260
 671              		.section	.text.bdmaInit,"ax",%progbits
 672              		.align	1
 673              		.p2align 2,,3
 674              		.global	bdmaInit
 675              		.syntax unified
 676              		.thumb
 677              		.thumb_func
 678              		.type	bdmaInit, %function
 679              	bdmaInit:
 680              	.LFB456:
 681              		.loc 1 265 21 is_stmt 1 view -0
 682              		.cfi_startproc
 683              		@ args = 0, pretend = 0, frame = 0
 684              		@ frame_needed = 0, uses_anonymous_args = 0
ARM GAS  C:\Users\DEVELO~1\AppData\Local\Temp\ccvx4bVJ.s 			page 13


 685              		@ link register save eliminated.
 686              		.loc 1 266 3 view .LVU239
 687              		.loc 1 268 3 view .LVU240
 688              		.loc 1 268 23 is_stmt 0 view .LVU241
 689 0000 0B48     		ldr	r0, .L71
 690 0002 0022     		movs	r2, #0
 691 0004 0B4B     		ldr	r3, .L71+4
 692 0006 0146     		mov	r1, r0
 693 0008 0260     		str	r2, [r0]
 694              		.loc 1 269 3 is_stmt 1 view .LVU242
 695              	.LVL40:
 696              		.loc 1 269 17 view .LVU243
 697 000a 03F1A00C 		add	ip, r3, #160
 698              		.loc 1 268 23 is_stmt 0 view .LVU244
 699 000e 0A48     		ldr	r0, .L71+8
 700 0010 01E0     		b	.L68
 701              	.LVL41:
 702              	.L70:
 703              		.loc 1 270 27 view .LVU245
 704 0012 53F8140C 		ldr	r0, [r3, #-20]
 705              	.L68:
 706              		.loc 1 270 5 is_stmt 1 discriminator 3 view .LVU246
 707              		.loc 1 269 17 is_stmt 0 discriminator 3 view .LVU247
 708 0016 1433     		adds	r3, r3, #20
 709              		.loc 1 270 41 discriminator 3 view .LVU248
 710 0018 0260     		str	r2, [r0]
 711              		.loc 1 271 5 is_stmt 1 discriminator 3 view .LVU249
 712              		.loc 1 271 27 is_stmt 0 discriminator 3 view .LVU250
 713 001a 4A60     		str	r2, [r1, #4]
 714              		.loc 1 272 5 is_stmt 1 discriminator 3 view .LVU251
 715              		.loc 1 269 17 is_stmt 0 discriminator 3 view .LVU252
 716 001c 6345     		cmp	r3, ip
 717              		.loc 1 272 27 discriminator 3 view .LVU253
 718 001e 41F8082F 		str	r2, [r1, #8]!
 719              		.loc 1 269 40 is_stmt 1 discriminator 3 view .LVU254
 720              		.loc 1 269 17 discriminator 3 view .LVU255
 721 0022 F6D1     		bne	.L70
 722              		.loc 1 274 3 view .LVU256
 723              		.loc 1 274 14 is_stmt 0 view .LVU257
 724 0024 054B     		ldr	r3, .L71+12
 725 0026 4FF0FF32 		mov	r2, #-1
 726 002a 5A60     		str	r2, [r3, #4]
 727              		.loc 1 275 1 view .LVU258
 728 002c 7047     		bx	lr
 729              	.L72:
 730 002e 00BF     		.align	2
 731              	.L71:
 732 0030 00000000 		.word	.LANCHOR1
 733 0034 18000000 		.word	.LANCHOR9+24
 734 0038 08540258 		.word	1476547592
 735 003c 00540258 		.word	1476547584
 736              		.cfi_endproc
 737              	.LFE456:
 738              		.size	bdmaInit, .-bdmaInit
 739              		.section	.text.bdmaStreamAllocI,"ax",%progbits
 740              		.align	1
 741              		.p2align 2,,3
ARM GAS  C:\Users\DEVELO~1\AppData\Local\Temp\ccvx4bVJ.s 			page 14


 742              		.global	bdmaStreamAllocI
 743              		.syntax unified
 744              		.thumb
 745              		.thumb_func
 746              		.type	bdmaStreamAllocI, %function
 747              	bdmaStreamAllocI:
 748              	.LVL42:
 749              	.LFB457:
 750              		.loc 1 298 58 is_stmt 1 view -0
 751              		.cfi_startproc
 752              		@ args = 0, pretend = 0, frame = 0
 753              		@ frame_needed = 0, uses_anonymous_args = 0
 754              		.loc 1 299 3 view .LVU260
 755              		.loc 1 301 23 view .LVU261
 756              		.loc 1 303 3 view .LVU262
 757              		.loc 1 303 6 is_stmt 0 view .LVU263
 758 0000 0728     		cmp	r0, #7
 759              		.loc 1 298 58 view .LVU264
 760 0002 F8B5     		push	{r3, r4, r5, r6, r7, lr}
 761              		.cfi_def_cfa_offset 24
 762              		.cfi_offset 3, -24
 763              		.cfi_offset 4, -20
 764              		.cfi_offset 5, -16
 765              		.cfi_offset 6, -12
 766              		.cfi_offset 7, -8
 767              		.cfi_offset 14, -4
 768              		.loc 1 298 58 view .LVU265
 769 0004 0446     		mov	r4, r0
 770              		.loc 1 303 6 view .LVU266
 771 0006 06D9     		bls	.L74
 772              		.loc 1 307 8 is_stmt 1 view .LVU267
 773              		.loc 1 307 11 is_stmt 0 view .LVU268
 774 0008 0828     		cmp	r0, #8
 775 000a 15D1     		bne	.L90
 776 000c 0120     		movs	r0, #1
 777              	.LVL43:
 778              		.loc 1 309 13 view .LVU269
 779 000e 4FF0070C 		mov	ip, #7
 780              		.loc 1 308 13 view .LVU270
 781 0012 0024     		movs	r4, #0
 782              	.LVL44:
 783              		.loc 1 308 13 view .LVU271
 784 0014 02E0     		b	.L75
 785              	.LVL45:
 786              	.L74:
 787              	.LBB58:
 788              		.loc 1 317 14 view .LVU272
 789 0016 0120     		movs	r0, #1
 790              	.LVL46:
 791              		.loc 1 317 14 view .LVU273
 792 0018 A446     		mov	ip, r4
 793 001a A040     		lsls	r0, r0, r4
 794              	.LVL47:
 795              	.L75:
 796              		.loc 1 317 14 view .LVU274
 797              	.LBE58:
 798              		.loc 1 316 3 is_stmt 1 view .LVU275
ARM GAS  C:\Users\DEVELO~1\AppData\Local\Temp\ccvx4bVJ.s 			page 15


 799              		.loc 1 316 23 view .LVU276
 800              	.LBB66:
 801              		.loc 1 317 5 view .LVU277
 802              		.loc 1 318 5 view .LVU278
 803              		.loc 1 318 14 is_stmt 0 view .LVU279
 804 001c 204E     		ldr	r6, .L91
 805 001e 3568     		ldr	r5, [r6]
 806              		.loc 1 318 8 view .LVU280
 807 0020 0542     		tst	r5, r0
 808 0022 0CD0     		beq	.L80
 809              		.loc 1 317 14 view .LVU281
 810 0024 4FF0010E 		mov	lr, #1
 811 0028 01E0     		b	.L77
 812              	.LVL48:
 813              	.L79:
 814              		.loc 1 318 8 view .LVU282
 815 002a 0542     		tst	r5, r0
 816 002c 07D0     		beq	.L80
 817              	.LVL49:
 818              	.L77:
 819              		.loc 1 318 8 view .LVU283
 820              	.LBE66:
 821              		.loc 1 316 34 is_stmt 1 discriminator 2 view .LVU284
 822 002e 0134     		adds	r4, r4, #1
 823              	.LVL50:
 824              	.LBB67:
 825              		.loc 1 317 5 discriminator 2 view .LVU285
 826              		.loc 1 317 5 is_stmt 0 discriminator 2 view .LVU286
 827              	.LBE67:
 828              		.loc 1 316 23 is_stmt 1 discriminator 2 view .LVU287
 829 0030 A445     		cmp	ip, r4
 830              	.LBB68:
 831              		.loc 1 317 14 is_stmt 0 discriminator 2 view .LVU288
 832 0032 0EFA04F0 		lsl	r0, lr, r4
 833              	.LVL51:
 834              		.loc 1 318 5 is_stmt 1 discriminator 2 view .LVU289
 835              	.LBE68:
 836              		.loc 1 316 23 is_stmt 0 discriminator 2 view .LVU290
 837 0036 F8D2     		bcs	.L79
 838              	.LVL52:
 839              	.L90:
 840              		.loc 1 313 12 view .LVU291
 841 0038 0025     		movs	r5, #0
 842              		.loc 1 353 1 view .LVU292
 843 003a 2846     		mov	r0, r5
 844 003c F8BD     		pop	{r3, r4, r5, r6, r7, pc}
 845              	.LVL53:
 846              	.L80:
 847              	.LBB69:
 848              	.LBB59:
 849              		.loc 1 319 7 is_stmt 1 view .LVU293
 850              		.loc 1 324 28 is_stmt 0 view .LVU294
 851 003e 0543     		orrs	r5, r5, r0
 852              		.loc 1 319 34 view .LVU295
 853 0040 184F     		ldr	r7, .L91+4
 854              		.loc 1 324 28 view .LVU296
 855 0042 3560     		str	r5, [r6]
ARM GAS  C:\Users\DEVELO~1\AppData\Local\Temp\ccvx4bVJ.s 			page 16


 856              		.loc 1 322 29 view .LVU297
 857 0044 06EBC406 		add	r6, r6, r4, lsl #3
 858              		.loc 1 319 34 view .LVU298
 859 0048 04EB8405 		add	r5, r4, r4, lsl #2
 860              		.loc 1 322 29 view .LVU299
 861 004c C6E90123 		strd	r2, r3, [r6, #4]
 862              	.LBB60:
 863              	.LBB61:
 864              		.file 2 "./docs/ChibiOS/os/hal/ports/STM32/STM32H7xx/stm32_rcc.h"
 865              		.loc 2 857 19 view .LVU300
 866 0050 154B     		ldr	r3, .L91+8
 867              	.LVL54:
 868              		.loc 2 857 19 view .LVU301
 869              	.LBE61:
 870              	.LBE60:
 871              		.loc 1 319 34 view .LVU302
 872 0052 A600     		lsls	r6, r4, #2
 873              	.LVL55:
 874              		.loc 1 319 34 view .LVU303
 875 0054 07EB8505 		add	r5, r7, r5, lsl #2
 876              	.LVL56:
 877              		.loc 1 322 7 is_stmt 1 view .LVU304
 878              		.loc 1 323 7 view .LVU305
 879              		.loc 1 324 7 view .LVU306
 880              		.loc 1 327 7 view .LVU307
 881              		.loc 1 328 9 view .LVU308
 882              	.LBB64:
 883              	.LBI60:
 884              		.loc 2 853 22 view .LVU309
 885              	.LBB62:
 886              		.loc 2 857 3 view .LVU310
 887              		.loc 2 858 3 view .LVU311
 888              		.loc 2 859 5 view .LVU312
 889              		.loc 2 864 3 view .LVU313
 890              		.loc 2 864 3 is_stmt 0 view .LVU314
 891              	.LBE62:
 892              	.LBE64:
 893              		.loc 1 340 7 is_stmt 1 view .LVU315
 894              	.LBB65:
 895              	.LBB63:
 896              		.loc 2 857 19 is_stmt 0 view .LVU316
 897 0058 D3F8E000 		ldr	r0, [r3, #224]
 898 005c 40F40010 		orr	r0, r0, #2097152
 899 0060 C3F8E000 		str	r0, [r3, #224]
 900              		.loc 2 859 23 view .LVU317
 901 0064 D3F80801 		ldr	r0, [r3, #264]
 902 0068 40F40010 		orr	r0, r0, #2097152
 903 006c C3F80801 		str	r0, [r3, #264]
 904              		.loc 2 864 3 view .LVU318
 905 0070 D3F80831 		ldr	r3, [r3, #264]
 906              	.LBE63:
 907              	.LBE65:
 908              		.loc 1 340 10 view .LVU319
 909 0074 12B1     		cbz	r2, .L78
 910              		.loc 1 341 9 is_stmt 1 view .LVU320
 911 0076 687C     		ldrb	r0, [r5, #17]	@ zero_extendqisi2
 912 0078 FFF7FEFF 		bl	nvicEnableVector
ARM GAS  C:\Users\DEVELO~1\AppData\Local\Temp\ccvx4bVJ.s 			page 17


 913              	.LVL57:
 914              	.L78:
 915              		.loc 1 345 7 view .LVU321
 916 007c 3319     		adds	r3, r6, r4
 917 007e 0E22     		movs	r2, #14
 918              		.loc 1 346 25 is_stmt 0 view .LVU322
 919 0080 0020     		movs	r0, #0
 920              		.loc 1 345 7 view .LVU323
 921 0082 07EB8301 		add	r1, r7, r3, lsl #2
 922 0086 57F82340 		ldr	r4, [r7, r3, lsl #2]
 923              	.LVL58:
 924              		.loc 1 345 7 view .LVU324
 925 008a 4B68     		ldr	r3, [r1, #4]
 926 008c 097A     		ldrb	r1, [r1, #8]	@ zero_extendqisi2
 927 008e 8A40     		lsls	r2, r2, r1
 928 0090 1968     		ldr	r1, [r3]
 929 0092 21F00F01 		bic	r1, r1, #15
 930 0096 1960     		str	r1, [r3]
 931              		.loc 1 345 7 is_stmt 1 view .LVU325
 932 0098 6260     		str	r2, [r4, #4]
 933              		.loc 1 345 7 view .LVU326
 934              		.loc 1 345 29 view .LVU327
 935              		.loc 1 346 7 view .LVU328
 936              		.loc 1 346 25 is_stmt 0 view .LVU329
 937 009a 1860     		str	r0, [r3]
 938              		.loc 1 348 7 is_stmt 1 view .LVU330
 939              	.LBE59:
 940              	.LBE69:
 941              		.loc 1 353 1 is_stmt 0 view .LVU331
 942 009c 2846     		mov	r0, r5
 943 009e F8BD     		pop	{r3, r4, r5, r6, r7, pc}
 944              	.LVL59:
 945              	.L92:
 946              		.loc 1 353 1 view .LVU332
 947              		.align	2
 948              	.L91:
 949 00a0 00000000 		.word	.LANCHOR1
 950 00a4 00000000 		.word	.LANCHOR9
 951 00a8 00440258 		.word	1476543488
 952              		.cfi_endproc
 953              	.LFE457:
 954              		.size	bdmaStreamAllocI, .-bdmaStreamAllocI
 955              		.section	.text.bdmaStreamAlloc,"ax",%progbits
 956              		.align	1
 957              		.p2align 2,,3
 958              		.global	bdmaStreamAlloc
 959              		.syntax unified
 960              		.thumb
 961              		.thumb_func
 962              		.type	bdmaStreamAlloc, %function
 963              	bdmaStreamAlloc:
 964              	.LVL60:
 965              	.LFB458:
 966              		.loc 1 376 57 is_stmt 1 view -0
 967              		.cfi_startproc
 968              		@ args = 0, pretend = 0, frame = 0
 969              		@ frame_needed = 0, uses_anonymous_args = 0
ARM GAS  C:\Users\DEVELO~1\AppData\Local\Temp\ccvx4bVJ.s 			page 18


 970              		.loc 1 377 3 view .LVU334
 971              		.loc 1 379 3 view .LVU335
 972              	.LBB70:
 973              	.LBI70:
 974              		.file 3 "./docs/ChibiOS/os/hal/osal/rt-nil/osal.h"
 975              		.loc 3 573 20 view .LVU336
 976              		.loc 3 575 3 view .LVU337
 977              	.LBB71:
 978              	.LBI71:
 979              		.file 4 "./docs/ChibiOS/os/rt/include/chsys.h"
 980              		.loc 4 372 20 view .LVU338
 981              		.loc 4 374 3 view .LVU339
 982              	.LBB72:
 983              	.LBI72:
 984              		.file 5 "./docs/ChibiOS/os/common/ports/ARMv7-M/chcore.h"
 985              		.loc 5 840 27 view .LVU340
 986              		.loc 5 848 3 view .LVU341
 987              	.LBB73:
 988              	.LBI73:
 989              		.file 6 "./docs/ChibiOS/os/common/ext/ARM/CMSIS/Core/Include/cmsis_gcc.h"
 990              		.loc 6 491 27 view .LVU342
 991              	.LBB74:
 992              		.loc 6 493 3 view .LVU343
 993              	.LBE74:
 994              	.LBE73:
 995              	.LBE72:
 996              	.LBE71:
 997              	.LBE70:
 998              		.loc 1 376 57 is_stmt 0 view .LVU344
 999 0000 08B5     		push	{r3, lr}
 1000              		.cfi_def_cfa_offset 8
 1001              		.cfi_offset 3, -8
 1002              		.cfi_offset 14, -4
 1003              	.LBB79:
 1004              	.LBB78:
 1005              	.LBB77:
 1006              	.LBB76:
 1007              	.LBB75:
 1008              		.loc 6 493 3 view .LVU345
 1009 0002 4FF0300C 		mov	ip, #48
 1010              		.syntax unified
 1011              	@ 493 "./docs/ChibiOS/os/common/ext/ARM/CMSIS/Core/Include/cmsis_gcc.h" 1
 1012 0006 8CF31188 		MSR basepri, ip
 1013              	@ 0 "" 2
 1014              	.LVL61:
 1015              		.loc 6 493 3 view .LVU346
 1016              		.thumb
 1017              		.syntax unified
 1018              	.LBE75:
 1019              	.LBE76:
 1020              	.LBE77:
 1021              		.loc 4 375 35 is_stmt 1 view .LVU347
 1022              		.loc 4 376 21 view .LVU348
 1023              	.LBE78:
 1024              	.LBE79:
 1025              		.loc 1 380 3 view .LVU349
 1026              		.loc 1 380 9 is_stmt 0 view .LVU350
ARM GAS  C:\Users\DEVELO~1\AppData\Local\Temp\ccvx4bVJ.s 			page 19


 1027 000a FFF7FEFF 		bl	bdmaStreamAllocI
 1028              	.LVL62:
 1029              		.loc 1 381 3 is_stmt 1 view .LVU351
 1030              	.LBB80:
 1031              	.LBI80:
 1032              		.loc 3 584 20 view .LVU352
 1033              		.loc 3 586 3 view .LVU353
 1034              	.LBB81:
 1035              	.LBI81:
 1036              		.loc 4 386 20 view .LVU354
 1037              	.LBB82:
 1038              		.loc 4 388 23 view .LVU355
 1039              		.loc 4 389 34 view .LVU356
 1040              		.loc 4 395 3 view .LVU357
 1041              		.loc 4 395 3 view .LVU358
 1042              		.loc 4 395 3 view .LVU359
 1043              		.loc 4 399 3 view .LVU360
 1044              	.LBB83:
 1045              	.LBI83:
 1046              		.loc 5 864 27 view .LVU361
 1047              		.loc 5 867 3 view .LVU362
 1048              	.LBB84:
 1049              	.LBI84:
 1050              		.loc 6 491 27 view .LVU363
 1051              	.LBB85:
 1052              		.loc 6 493 3 view .LVU364
 1053 000e 0023     		movs	r3, #0
 1054              		.syntax unified
 1055              	@ 493 "./docs/ChibiOS/os/common/ext/ARM/CMSIS/Core/Include/cmsis_gcc.h" 1
 1056 0010 83F31188 		MSR basepri, r3
 1057              	@ 0 "" 2
 1058              	.LVL63:
 1059              		.loc 6 493 3 is_stmt 0 view .LVU365
 1060              		.thumb
 1061              		.syntax unified
 1062              	.LBE85:
 1063              	.LBE84:
 1064              	.LBE83:
 1065              	.LBE82:
 1066              	.LBE81:
 1067              	.LBE80:
 1068              		.loc 1 383 3 is_stmt 1 view .LVU366
 1069              		.loc 1 384 1 is_stmt 0 view .LVU367
 1070 0014 08BD     		pop	{r3, pc}
 1071              		.cfi_endproc
 1072              	.LFE458:
 1073              		.size	bdmaStreamAlloc, .-bdmaStreamAlloc
 1074 0016 00BF     		.section	.text.bdmaStreamFreeI,"ax",%progbits
 1075              		.align	1
 1076              		.p2align 2,,3
 1077              		.global	bdmaStreamFreeI
 1078              		.syntax unified
 1079              		.thumb
 1080              		.thumb_func
 1081              		.type	bdmaStreamFreeI, %function
 1082              	bdmaStreamFreeI:
 1083              	.LVL64:
ARM GAS  C:\Users\DEVELO~1\AppData\Local\Temp\ccvx4bVJ.s 			page 20


 1084              	.LFB459:
 1085              		.loc 1 396 54 is_stmt 1 view -0
 1086              		.cfi_startproc
 1087              		@ args = 0, pretend = 0, frame = 0
 1088              		@ frame_needed = 0, uses_anonymous_args = 0
 1089              		.loc 1 398 3 view .LVU369
 1090              		.loc 1 398 3 view .LVU370
 1091              		.loc 1 398 3 view .LVU371
 1092              		.loc 1 401 3 view .LVU372
 1093              		.loc 1 401 3 view .LVU373
 1094              		.loc 1 401 3 view .LVU374
 1095              		.loc 1 405 3 view .LVU375
 1096              		.loc 1 396 54 is_stmt 0 view .LVU376
 1097 0000 10B5     		push	{r4, lr}
 1098              		.cfi_def_cfa_offset 8
 1099              		.cfi_offset 4, -8
 1100              		.cfi_offset 14, -4
 1101              		.loc 1 396 54 view .LVU377
 1102 0002 0446     		mov	r4, r0
 1103              		.loc 1 405 3 view .LVU378
 1104 0004 407C     		ldrb	r0, [r0, #17]	@ zero_extendqisi2
 1105              	.LVL65:
 1106              		.loc 1 405 3 view .LVU379
 1107 0006 FFF7FEFF 		bl	nvicDisableVector
 1108              	.LVL66:
 1109              		.loc 1 408 3 is_stmt 1 view .LVU380
 1110              		.loc 1 408 23 is_stmt 0 view .LVU381
 1111 000a 0F49     		ldr	r1, .L98
 1112              		.loc 1 408 37 view .LVU382
 1113 000c 237C     		ldrb	r3, [r4, #16]	@ zero_extendqisi2
 1114              		.loc 1 408 31 view .LVU383
 1115 000e 0120     		movs	r0, #1
 1116              		.loc 1 408 23 view .LVU384
 1117 0010 0A68     		ldr	r2, [r1]
 1118              		.loc 1 411 38 view .LVU385
 1119 0012 0024     		movs	r4, #0
 1120              	.LVL67:
 1121              		.loc 1 408 31 view .LVU386
 1122 0014 9840     		lsls	r0, r0, r3
 1123              		.loc 1 411 38 view .LVU387
 1124 0016 01EBC303 		add	r3, r1, r3, lsl #3
 1125              		.loc 1 408 23 view .LVU388
 1126 001a 22EA0002 		bic	r2, r2, r0
 1127              		.loc 1 412 38 view .LVU389
 1128 001e C3E90144 		strd	r4, r4, [r3, #4]
 1129              		.loc 1 415 28 view .LVU390
 1130 0022 D3B2     		uxtb	r3, r2
 1131              		.loc 1 408 23 view .LVU391
 1132 0024 0A60     		str	r2, [r1]
 1133              		.loc 1 411 3 is_stmt 1 view .LVU392
 1134              		.loc 1 412 3 view .LVU393
 1135              		.loc 1 415 3 view .LVU394
 1136              		.loc 1 415 6 is_stmt 0 view .LVU395
 1137 0026 73B9     		cbnz	r3, .L95
 1138              	.LBB90:
 1139              	.LBI90:
 1140              		.loc 1 396 6 is_stmt 1 view .LVU396
ARM GAS  C:\Users\DEVELO~1\AppData\Local\Temp\ccvx4bVJ.s 			page 21


 1141              	.LVL68:
 1142              	.LBB91:
 1143              		.loc 1 416 5 view .LVU397
 1144              	.LBB92:
 1145              	.LBI92:
 1146              		.loc 2 885 22 view .LVU398
 1147              	.LBB93:
 1148              		.loc 2 895 3 view .LVU399
 1149              		.loc 2 895 19 is_stmt 0 view .LVU400
 1150 0028 084B     		ldr	r3, .L98+4
 1151 002a D3F8E020 		ldr	r2, [r3, #224]
 1152 002e 22F40012 		bic	r2, r2, #2097152
 1153 0032 C3F8E020 		str	r2, [r3, #224]
 1154              		.loc 2 896 3 is_stmt 1 view .LVU401
 1155              		.loc 2 896 21 is_stmt 0 view .LVU402
 1156 0036 D3F80821 		ldr	r2, [r3, #264]
 1157 003a 22F40012 		bic	r2, r2, #2097152
 1158 003e C3F80821 		str	r2, [r3, #264]
 1159              		.loc 2 897 3 is_stmt 1 view .LVU403
 1160 0042 D3F80831 		ldr	r3, [r3, #264]
 1161              	.LVL69:
 1162              	.L95:
 1163              		.loc 2 897 3 is_stmt 0 view .LVU404
 1164              	.LBE93:
 1165              	.LBE92:
 1166              	.LBE91:
 1167              	.LBE90:
 1168              		.loc 1 418 1 view .LVU405
 1169 0046 10BD     		pop	{r4, pc}
 1170              	.L99:
 1171              		.align	2
 1172              	.L98:
 1173 0048 00000000 		.word	.LANCHOR1
 1174 004c 00440258 		.word	1476543488
 1175              		.cfi_endproc
 1176              	.LFE459:
 1177              		.size	bdmaStreamFreeI, .-bdmaStreamFreeI
 1178              		.section	.text.bdmaStreamFree,"ax",%progbits
 1179              		.align	1
 1180              		.p2align 2,,3
 1181              		.global	bdmaStreamFree
 1182              		.syntax unified
 1183              		.thumb
 1184              		.thumb_func
 1185              		.type	bdmaStreamFree, %function
 1186              	bdmaStreamFree:
 1187              	.LVL70:
 1188              	.LFB460:
 1189              		.loc 1 430 53 is_stmt 1 view -0
 1190              		.cfi_startproc
 1191              		@ args = 0, pretend = 0, frame = 0
 1192              		@ frame_needed = 0, uses_anonymous_args = 0
 1193              		.loc 1 432 3 view .LVU407
 1194              	.LBB111:
 1195              	.LBI111:
 1196              		.loc 3 573 20 view .LVU408
 1197              		.loc 3 575 3 view .LVU409
ARM GAS  C:\Users\DEVELO~1\AppData\Local\Temp\ccvx4bVJ.s 			page 22


 1198              	.LBB112:
 1199              	.LBI112:
 1200              		.loc 4 372 20 view .LVU410
 1201              		.loc 4 374 3 view .LVU411
 1202              	.LBB113:
 1203              	.LBI113:
 1204              		.loc 5 840 27 view .LVU412
 1205              		.loc 5 848 3 view .LVU413
 1206              	.LBB114:
 1207              	.LBI114:
 1208              		.loc 6 491 27 view .LVU414
 1209              	.LBB115:
 1210              		.loc 6 493 3 view .LVU415
 1211              	.LBE115:
 1212              	.LBE114:
 1213              	.LBE113:
 1214              	.LBE112:
 1215              	.LBE111:
 1216              		.loc 1 430 53 is_stmt 0 view .LVU416
 1217 0000 10B5     		push	{r4, lr}
 1218              		.cfi_def_cfa_offset 8
 1219              		.cfi_offset 4, -8
 1220              		.cfi_offset 14, -4
 1221              	.LBB124:
 1222              	.LBB122:
 1223              	.LBB120:
 1224              	.LBB118:
 1225              	.LBB116:
 1226              		.loc 6 493 3 view .LVU417
 1227 0002 3023     		movs	r3, #48
 1228              	.LBE116:
 1229              	.LBE118:
 1230              	.LBE120:
 1231              	.LBE122:
 1232              	.LBE124:
 1233              		.loc 1 430 53 view .LVU418
 1234 0004 0446     		mov	r4, r0
 1235              	.LBB125:
 1236              	.LBB123:
 1237              	.LBB121:
 1238              	.LBB119:
 1239              	.LBB117:
 1240              		.loc 6 493 3 view .LVU419
 1241              		.syntax unified
 1242              	@ 493 "./docs/ChibiOS/os/common/ext/ARM/CMSIS/Core/Include/cmsis_gcc.h" 1
 1243 0006 83F31188 		MSR basepri, r3
 1244              	@ 0 "" 2
 1245              	.LVL71:
 1246              		.loc 6 493 3 view .LVU420
 1247              		.thumb
 1248              		.syntax unified
 1249              	.LBE117:
 1250              	.LBE119:
 1251              	.LBE121:
 1252              		.loc 4 375 35 is_stmt 1 view .LVU421
 1253              		.loc 4 376 21 view .LVU422
 1254              	.LBE123:
ARM GAS  C:\Users\DEVELO~1\AppData\Local\Temp\ccvx4bVJ.s 			page 23


 1255              	.LBE125:
 1256              		.loc 1 433 3 view .LVU423
 1257              	.LBB126:
 1258              	.LBI126:
 1259              		.loc 1 396 6 view .LVU424
 1260              	.LBB127:
 1261              		.loc 1 398 3 view .LVU425
 1262              		.loc 1 398 3 view .LVU426
 1263              		.loc 1 398 3 view .LVU427
 1264              		.loc 1 401 3 view .LVU428
 1265              		.loc 1 401 3 view .LVU429
 1266              		.loc 1 401 3 view .LVU430
 1267              		.loc 1 405 3 view .LVU431
 1268 000a 407C     		ldrb	r0, [r0, #17]	@ zero_extendqisi2
 1269              	.LVL72:
 1270              		.loc 1 405 3 is_stmt 0 view .LVU432
 1271 000c FFF7FEFF 		bl	nvicDisableVector
 1272              	.LVL73:
 1273              		.loc 1 408 3 is_stmt 1 view .LVU433
 1274              		.loc 1 408 37 is_stmt 0 view .LVU434
 1275 0010 237C     		ldrb	r3, [r4, #16]	@ zero_extendqisi2
 1276              		.loc 1 408 23 view .LVU435
 1277 0012 1049     		ldr	r1, .L103
 1278              		.loc 1 408 31 view .LVU436
 1279 0014 0120     		movs	r0, #1
 1280              		.loc 1 411 38 view .LVU437
 1281 0016 0024     		movs	r4, #0
 1282              	.LVL74:
 1283              		.loc 1 408 23 view .LVU438
 1284 0018 0A68     		ldr	r2, [r1]
 1285              		.loc 1 408 31 view .LVU439
 1286 001a 9840     		lsls	r0, r0, r3
 1287              		.loc 1 411 38 view .LVU440
 1288 001c 01EBC303 		add	r3, r1, r3, lsl #3
 1289              		.loc 1 408 23 view .LVU441
 1290 0020 22EA0002 		bic	r2, r2, r0
 1291              		.loc 1 412 38 view .LVU442
 1292 0024 C3E90144 		strd	r4, r4, [r3, #4]
 1293              		.loc 1 415 28 view .LVU443
 1294 0028 D3B2     		uxtb	r3, r2
 1295              		.loc 1 408 23 view .LVU444
 1296 002a 0A60     		str	r2, [r1]
 1297              		.loc 1 411 3 is_stmt 1 view .LVU445
 1298              		.loc 1 412 3 view .LVU446
 1299              		.loc 1 415 3 view .LVU447
 1300              		.loc 1 415 6 is_stmt 0 view .LVU448
 1301 002c 73B9     		cbnz	r3, .L101
 1302              	.LBB128:
 1303              	.LBI128:
 1304              		.loc 1 396 6 is_stmt 1 view .LVU449
 1305              	.LVL75:
 1306              	.LBB129:
 1307              		.loc 1 416 5 view .LVU450
 1308              	.LBB130:
 1309              	.LBI130:
 1310              		.loc 2 885 22 view .LVU451
 1311              	.LBB131:
ARM GAS  C:\Users\DEVELO~1\AppData\Local\Temp\ccvx4bVJ.s 			page 24


 1312              		.loc 2 895 3 view .LVU452
 1313              		.loc 2 895 19 is_stmt 0 view .LVU453
 1314 002e 0A4B     		ldr	r3, .L103+4
 1315 0030 D3F8E020 		ldr	r2, [r3, #224]
 1316 0034 22F40012 		bic	r2, r2, #2097152
 1317 0038 C3F8E020 		str	r2, [r3, #224]
 1318              		.loc 2 896 3 is_stmt 1 view .LVU454
 1319              		.loc 2 896 21 is_stmt 0 view .LVU455
 1320 003c D3F80821 		ldr	r2, [r3, #264]
 1321 0040 22F40012 		bic	r2, r2, #2097152
 1322 0044 C3F80821 		str	r2, [r3, #264]
 1323              		.loc 2 897 3 is_stmt 1 view .LVU456
 1324 0048 D3F80831 		ldr	r3, [r3, #264]
 1325              	.LVL76:
 1326              	.L101:
 1327              		.loc 2 897 3 is_stmt 0 view .LVU457
 1328              	.LBE131:
 1329              	.LBE130:
 1330              	.LBE129:
 1331              	.LBE128:
 1332              	.LBE127:
 1333              	.LBE126:
 1334              		.loc 1 434 3 is_stmt 1 view .LVU458
 1335              	.LBB132:
 1336              	.LBI132:
 1337              		.loc 3 584 20 view .LVU459
 1338              		.loc 3 586 3 view .LVU460
 1339              	.LBB133:
 1340              	.LBI133:
 1341              		.loc 4 386 20 view .LVU461
 1342              	.LBB134:
 1343              		.loc 4 388 23 view .LVU462
 1344              		.loc 4 389 34 view .LVU463
 1345              		.loc 4 395 3 view .LVU464
 1346              		.loc 4 395 3 view .LVU465
 1347              		.loc 4 395 3 view .LVU466
 1348              		.loc 4 399 3 view .LVU467
 1349              	.LBB135:
 1350              	.LBI135:
 1351              		.loc 5 864 27 view .LVU468
 1352              		.loc 5 867 3 view .LVU469
 1353              	.LBB136:
 1354              	.LBI136:
 1355              		.loc 6 491 27 view .LVU470
 1356              	.LBB137:
 1357              		.loc 6 493 3 view .LVU471
 1358 004c 0023     		movs	r3, #0
 1359              		.syntax unified
 1360              	@ 493 "./docs/ChibiOS/os/common/ext/ARM/CMSIS/Core/Include/cmsis_gcc.h" 1
 1361 004e 83F31188 		MSR basepri, r3
 1362              	@ 0 "" 2
 1363              	.LVL77:
 1364              		.loc 6 493 3 is_stmt 0 view .LVU472
 1365              		.thumb
 1366              		.syntax unified
 1367              	.LBE137:
 1368              	.LBE136:
ARM GAS  C:\Users\DEVELO~1\AppData\Local\Temp\ccvx4bVJ.s 			page 25


 1369              	.LBE135:
 1370              	.LBE134:
 1371              	.LBE133:
 1372              	.LBE132:
 1373              		.loc 1 435 1 view .LVU473
 1374 0052 10BD     		pop	{r4, pc}
 1375              	.L104:
 1376              		.align	2
 1377              	.L103:
 1378 0054 00000000 		.word	.LANCHOR1
 1379 0058 00440258 		.word	1476543488
 1380              		.cfi_endproc
 1381              	.LFE460:
 1382              		.size	bdmaStreamFree, .-bdmaStreamFree
 1383              		.section	.text.bdmaSetRequestSource,"ax",%progbits
 1384              		.align	1
 1385              		.p2align 2,,3
 1386              		.global	bdmaSetRequestSource
 1387              		.syntax unified
 1388              		.thumb
 1389              		.thumb_func
 1390              		.type	bdmaSetRequestSource, %function
 1391              	bdmaSetRequestSource:
 1392              	.LVL78:
 1393              	.LFB461:
 1394              		.loc 1 446 73 is_stmt 1 view -0
 1395              		.cfi_startproc
 1396              		@ args = 0, pretend = 0, frame = 0
 1397              		@ frame_needed = 0, uses_anonymous_args = 0
 1398              		@ link register save eliminated.
 1399              		.loc 1 448 3 view .LVU475
 1400              		.loc 1 448 3 view .LVU476
 1401              		.loc 1 448 3 view .LVU477
 1402              		.loc 1 450 3 view .LVU478
 1403              		.loc 1 450 6 is_stmt 0 view .LVU479
 1404 0000 C368     		ldr	r3, [r0, #12]
 1405              		.loc 1 450 17 view .LVU480
 1406 0002 1960     		str	r1, [r3]
 1407              		.loc 1 451 1 view .LVU481
 1408 0004 7047     		bx	lr
 1409              		.cfi_endproc
 1410              	.LFE461:
 1411              		.size	bdmaSetRequestSource, .-bdmaSetRequestSource
 1412              		.global	_stm32_bdma_streams
 1413 0006 00BF     		.section	.bss.bdma,"aw",%nobits
 1414              		.align	2
 1415              		.set	.LANCHOR1,. + 0
 1416              		.type	bdma, %object
 1417              		.size	bdma, 68
 1418              	bdma:
 1419 0000 00000000 		.space	68
 1419      00000000 
 1419      00000000 
 1419      00000000 
 1419      00000000 
 1420              		.section	.rodata.__func__.0,"a"
 1421              		.align	2
ARM GAS  C:\Users\DEVELO~1\AppData\Local\Temp\ccvx4bVJ.s 			page 26


 1422              		.set	.LANCHOR8,. + 0
 1423              		.type	__func__.0, %object
 1424              		.size	__func__.0, 10
 1425              	__func__.0:
 1426 0000 56656374 		.ascii	"Vector260\000"
 1426      6F723236 
 1426      3000
 1427              		.section	.rodata.__func__.1,"a"
 1428              		.align	2
 1429              		.set	.LANCHOR7,. + 0
 1430              		.type	__func__.1, %object
 1431              		.size	__func__.1, 10
 1432              	__func__.1:
 1433 0000 56656374 		.ascii	"Vector25C\000"
 1433      6F723235 
 1433      4300
 1434              		.section	.rodata.__func__.2,"a"
 1435              		.align	2
 1436              		.set	.LANCHOR6,. + 0
 1437              		.type	__func__.2, %object
 1438              		.size	__func__.2, 10
 1439              	__func__.2:
 1440 0000 56656374 		.ascii	"Vector258\000"
 1440      6F723235 
 1440      3800
 1441              		.section	.rodata.__func__.3,"a"
 1442              		.align	2
 1443              		.set	.LANCHOR5,. + 0
 1444              		.type	__func__.3, %object
 1445              		.size	__func__.3, 10
 1446              	__func__.3:
 1447 0000 56656374 		.ascii	"Vector254\000"
 1447      6F723235 
 1447      3400
 1448              		.section	.rodata.__func__.4,"a"
 1449              		.align	2
 1450              		.set	.LANCHOR4,. + 0
 1451              		.type	__func__.4, %object
 1452              		.size	__func__.4, 10
 1453              	__func__.4:
 1454 0000 56656374 		.ascii	"Vector250\000"
 1454      6F723235 
 1454      3000
 1455              		.section	.rodata.__func__.5,"a"
 1456              		.align	2
 1457              		.set	.LANCHOR3,. + 0
 1458              		.type	__func__.5, %object
 1459              		.size	__func__.5, 10
 1460              	__func__.5:
 1461 0000 56656374 		.ascii	"Vector24C\000"
 1461      6F723234 
 1461      4300
 1462              		.section	.rodata.__func__.6,"a"
 1463              		.align	2
 1464              		.set	.LANCHOR2,. + 0
 1465              		.type	__func__.6, %object
 1466              		.size	__func__.6, 10
ARM GAS  C:\Users\DEVELO~1\AppData\Local\Temp\ccvx4bVJ.s 			page 27


 1467              	__func__.6:
 1468 0000 56656374 		.ascii	"Vector248\000"
 1468      6F723234 
 1468      3800
 1469              		.section	.rodata.__func__.7,"a"
 1470              		.align	2
 1471              		.set	.LANCHOR0,. + 0
 1472              		.type	__func__.7, %object
 1473              		.size	__func__.7, 10
 1474              	__func__.7:
 1475 0000 56656374 		.ascii	"Vector244\000"
 1475      6F723234 
 1475      3400
 1476              		.section	.rodata._stm32_bdma_streams,"a"
 1477              		.align	2
 1478              		.set	.LANCHOR9,. + 0
 1479              		.type	_stm32_bdma_streams, %object
 1480              		.size	_stm32_bdma_streams, 160
 1481              	_stm32_bdma_streams:
 1482 0000 00540258 		.word	1476547584
 1483 0004 08540258 		.word	1476547592
 1484 0008 00       		.byte	0
 1485 0009 000000   		.space	3
 1486 000c 00580258 		.word	1476548608
 1487 0010 00       		.byte	0
 1488 0011 81       		.byte	-127
 1489 0012 0000     		.space	2
 1490 0014 00540258 		.word	1476547584
 1491 0018 1C540258 		.word	1476547612
 1492 001c 04       		.byte	4
 1493 001d 000000   		.space	3
 1494 0020 04580258 		.word	1476548612
 1495 0024 01       		.byte	1
 1496 0025 82       		.byte	-126
 1497 0026 0000     		.space	2
 1498 0028 00540258 		.word	1476547584
 1499 002c 30540258 		.word	1476547632
 1500 0030 08       		.byte	8
 1501 0031 000000   		.space	3
 1502 0034 08580258 		.word	1476548616
 1503 0038 02       		.byte	2
 1504 0039 83       		.byte	-125
 1505 003a 0000     		.space	2
 1506 003c 00540258 		.word	1476547584
 1507 0040 44540258 		.word	1476547652
 1508 0044 0C       		.byte	12
 1509 0045 000000   		.space	3
 1510 0048 0C580258 		.word	1476548620
 1511 004c 03       		.byte	3
 1512 004d 84       		.byte	-124
 1513 004e 0000     		.space	2
 1514 0050 00540258 		.word	1476547584
 1515 0054 58540258 		.word	1476547672
 1516 0058 10       		.byte	16
 1517 0059 000000   		.space	3
 1518 005c 10580258 		.word	1476548624
 1519 0060 04       		.byte	4
ARM GAS  C:\Users\DEVELO~1\AppData\Local\Temp\ccvx4bVJ.s 			page 28


 1520 0061 85       		.byte	-123
 1521 0062 0000     		.space	2
 1522 0064 00540258 		.word	1476547584
 1523 0068 6C540258 		.word	1476547692
 1524 006c 14       		.byte	20
 1525 006d 000000   		.space	3
 1526 0070 14580258 		.word	1476548628
 1527 0074 05       		.byte	5
 1528 0075 86       		.byte	-122
 1529 0076 0000     		.space	2
 1530 0078 00540258 		.word	1476547584
 1531 007c 80540258 		.word	1476547712
 1532 0080 18       		.byte	24
 1533 0081 000000   		.space	3
 1534 0084 18580258 		.word	1476548632
 1535 0088 06       		.byte	6
 1536 0089 87       		.byte	-121
 1537 008a 0000     		.space	2
 1538 008c 00540258 		.word	1476547584
 1539 0090 94540258 		.word	1476547732
 1540 0094 1C       		.byte	28
 1541 0095 000000   		.space	3
 1542 0098 1C580258 		.word	1476548636
 1543 009c 07       		.byte	7
 1544 009d 88       		.byte	-120
 1545 009e 0000     		.space	2
 1546              		.text
 1547              	.Letext0:
 1548              		.file 7 "c:\\chibistudio\\tools\\gnu tools arm embedded\\11.3 2022.08\\lib\\gcc\\arm-none-eabi\\11
 1549              		.file 8 "c:\\chibistudio\\tools\\gnu tools arm embedded\\11.3 2022.08\\arm-none-eabi\\include\\mac
 1550              		.file 9 "c:\\chibistudio\\tools\\gnu tools arm embedded\\11.3 2022.08\\arm-none-eabi\\include\\sys
 1551              		.file 10 "./docs/ChibiOS/os/common/ext/ST/STM32H7xx/stm32h743xx.h"
 1552              		.file 11 "./docs/ChibiOS/os/hal/ports/STM32/LLD/BDMAv1/stm32_bdma.h"
 1553              		.file 12 "./docs/ChibiOS/os/hal/ports/common/ARMCMx/nvic.h"
 1554              		.file 13 "./docs/ChibiOS/os/rt/include/chtrace.h"