ARM GAS  C:\Users\DEVELO~1\AppData\Local\Temp\cc677bLb.s 			page 1


   1              		.cpu cortex-m7
   2              		.arch armv7e-m
   3              		.fpu fpv5-d16
   4              		.eabi_attribute 28, 1
   5              		.eabi_attribute 20, 1
   6              		.eabi_attribute 21, 1
   7              		.eabi_attribute 23, 3
   8              		.eabi_attribute 24, 1
   9              		.eabi_attribute 25, 1
  10              		.eabi_attribute 26, 1
  11              		.eabi_attribute 30, 2
  12              		.eabi_attribute 34, 1
  13              		.eabi_attribute 18, 4
  14              		.file	"stm32h7xx_hal_pwr.c"
  15              		.text
  16              	.Ltext0:
  17              		.cfi_sections	.debug_frame
  18              		.section	.text.HAL_PWR_DeInit,"ax",%progbits
  19              		.align	1
  20              		.p2align 2,,3
  21              		.global	HAL_PWR_DeInit
  22              		.syntax unified
  23              		.thumb
  24              		.thumb_func
  25              		.type	HAL_PWR_DeInit, %function
  26              	HAL_PWR_DeInit:
  27              	.LFB141:
  28              		.file 1 "./drivers/stm32h7xx-hal-driver/Src/stm32h7xx_hal_pwr.c"
  29              		.loc 1 226 1 view -0
  30              		.cfi_startproc
  31              		@ args = 0, pretend = 0, frame = 0
  32              		@ frame_needed = 0, uses_anonymous_args = 0
  33              		@ link register save eliminated.
  34              		.loc 1 227 1 view .LVU1
  35 0000 7047     		bx	lr
  36              		.cfi_endproc
  37              	.LFE141:
  38              		.size	HAL_PWR_DeInit, .-HAL_PWR_DeInit
  39 0002 00BF     		.section	.text.HAL_PWR_EnableBkUpAccess,"ax",%progbits
  40              		.align	1
  41              		.p2align 2,,3
  42              		.global	HAL_PWR_EnableBkUpAccess
  43              		.syntax unified
  44              		.thumb
  45              		.thumb_func
  46              		.type	HAL_PWR_EnableBkUpAccess, %function
  47              	HAL_PWR_EnableBkUpAccess:
  48              	.LFB142:
  49              		.loc 1 237 1 view -0
  50              		.cfi_startproc
  51              		@ args = 0, pretend = 0, frame = 0
  52              		@ frame_needed = 0, uses_anonymous_args = 0
  53              		@ link register save eliminated.
  54              		.loc 1 239 3 view .LVU3
  55 0000 024A     		ldr	r2, .L4
  56 0002 1368     		ldr	r3, [r2]
  57 0004 43F48073 		orr	r3, r3, #256
ARM GAS  C:\Users\DEVELO~1\AppData\Local\Temp\cc677bLb.s 			page 2


  58 0008 1360     		str	r3, [r2]
  59              		.loc 1 240 1 is_stmt 0 view .LVU4
  60 000a 7047     		bx	lr
  61              	.L5:
  62              		.align	2
  63              	.L4:
  64 000c 00480258 		.word	1476544512
  65              		.cfi_endproc
  66              	.LFE142:
  67              		.size	HAL_PWR_EnableBkUpAccess, .-HAL_PWR_EnableBkUpAccess
  68              		.section	.text.HAL_PWR_DisableBkUpAccess,"ax",%progbits
  69              		.align	1
  70              		.p2align 2,,3
  71              		.global	HAL_PWR_DisableBkUpAccess
  72              		.syntax unified
  73              		.thumb
  74              		.thumb_func
  75              		.type	HAL_PWR_DisableBkUpAccess, %function
  76              	HAL_PWR_DisableBkUpAccess:
  77              	.LFB143:
  78              		.loc 1 250 1 is_stmt 1 view -0
  79              		.cfi_startproc
  80              		@ args = 0, pretend = 0, frame = 0
  81              		@ frame_needed = 0, uses_anonymous_args = 0
  82              		@ link register save eliminated.
  83              		.loc 1 252 3 view .LVU6
  84 0000 024A     		ldr	r2, .L7
  85 0002 1368     		ldr	r3, [r2]
  86 0004 23F48073 		bic	r3, r3, #256
  87 0008 1360     		str	r3, [r2]
  88              		.loc 1 253 1 is_stmt 0 view .LVU7
  89 000a 7047     		bx	lr
  90              	.L8:
  91              		.align	2
  92              	.L7:
  93 000c 00480258 		.word	1476544512
  94              		.cfi_endproc
  95              	.LFE143:
  96              		.size	HAL_PWR_DisableBkUpAccess, .-HAL_PWR_DisableBkUpAccess
  97              		.section	.text.HAL_PWR_ConfigPVD,"ax",%progbits
  98              		.align	1
  99              		.p2align 2,,3
 100              		.global	HAL_PWR_ConfigPVD
 101              		.syntax unified
 102              		.thumb
 103              		.thumb_func
 104              		.type	HAL_PWR_ConfigPVD, %function
 105              	HAL_PWR_ConfigPVD:
 106              	.LVL0:
 107              	.LFB144:
 108              		.loc 1 416 1 is_stmt 1 view -0
 109              		.cfi_startproc
 110              		@ args = 0, pretend = 0, frame = 0
 111              		@ frame_needed = 0, uses_anonymous_args = 0
 112              		.loc 1 418 3 view .LVU9
 113              		.loc 1 418 6 is_stmt 0 view .LVU10
 114 0000 0028     		cmp	r0, #0
ARM GAS  C:\Users\DEVELO~1\AppData\Local\Temp\cc677bLb.s 			page 3


 115 0002 5FD0     		beq	.L29
 116              		.loc 1 424 3 is_stmt 1 view .LVU11
 117              		.loc 1 416 1 is_stmt 0 view .LVU12
 118 0004 10B5     		push	{r4, lr}
 119              		.cfi_def_cfa_offset 8
 120              		.cfi_offset 4, -8
 121              		.cfi_offset 14, -4
 122 0006 0446     		mov	r4, r0
 123              		.loc 1 424 17 view .LVU13
 124 0008 0068     		ldr	r0, [r0]
 125              	.LVL1:
 126              		.loc 1 424 17 view .LVU14
 127 000a 20F06000 		bic	r0, r0, #96
 128              		.loc 1 424 3 view .LVU15
 129 000e 0028     		cmp	r0, #0
 130 0010 18BF     		it	ne
 131 0012 8028     		cmpne	r0, #128
 132 0014 0CBF     		ite	eq
 133 0016 0120     		moveq	r0, #1
 134 0018 0020     		movne	r0, #0
 135 001a FFF7FEFF 		bl	assert_param
 136              	.LVL2:
 137              		.loc 1 425 3 is_stmt 1 view .LVU16
 138              		.loc 1 425 17 is_stmt 0 view .LVU17
 139 001e 6368     		ldr	r3, [r4, #4]
 140 0020 6FF40032 		mvn	r2, #131072
 141 0024 A3F10110 		sub	r0, r3, #65537
 142 0028 1A44     		add	r2, r2, r3
 143              		.loc 1 425 3 view .LVU18
 144 002a 022A     		cmp	r2, #2
 145 002c 88BF     		it	hi
 146 002e 0228     		cmphi	r0, #2
 147 0030 94BF     		ite	ls
 148 0032 0120     		movls	r0, #1
 149 0034 0020     		movhi	r0, #0
 150 0036 002B     		cmp	r3, #0
 151 0038 08BF     		it	eq
 152 003a 40F00100 		orreq	r0, r0, #1
 153 003e FFF7FEFF 		bl	assert_param
 154              	.LVL3:
 155              		.loc 1 428 3 is_stmt 1 view .LVU19
 156 0042 2149     		ldr	r1, .L32
 157 0044 2068     		ldr	r0, [r4]
 158              		.loc 1 432 3 is_stmt 0 view .LVU20
 159 0046 4FF0B043 		mov	r3, #1476395008
 160              		.loc 1 428 3 view .LVU21
 161 004a 0A68     		ldr	r2, [r1]
 162 004c 22F0E002 		bic	r2, r2, #224
 163 0050 0243     		orrs	r2, r2, r0
 164 0052 0A60     		str	r2, [r1]
 165              		.loc 1 432 3 is_stmt 1 view .LVU22
 166 0054 D3F88420 		ldr	r2, [r3, #132]
 167 0058 22F48032 		bic	r2, r2, #65536
 168 005c C3F88420 		str	r2, [r3, #132]
 169              		.loc 1 433 3 view .LVU23
 170 0060 D3F88020 		ldr	r2, [r3, #128]
 171 0064 22F48032 		bic	r2, r2, #65536
ARM GAS  C:\Users\DEVELO~1\AppData\Local\Temp\cc677bLb.s 			page 4


 172 0068 C3F88020 		str	r2, [r3, #128]
 173              		.loc 1 436 3 view .LVU24
 174 006c 1A68     		ldr	r2, [r3]
 175 006e 22F48032 		bic	r2, r2, #65536
 176 0072 1A60     		str	r2, [r3]
 177              		.loc 1 437 3 view .LVU25
 178 0074 5A68     		ldr	r2, [r3, #4]
 179 0076 22F48032 		bic	r2, r2, #65536
 180 007a 5A60     		str	r2, [r3, #4]
 181              		.loc 1 441 3 view .LVU26
 182              		.loc 1 441 18 is_stmt 0 view .LVU27
 183 007c 6268     		ldr	r2, [r4, #4]
 184              		.loc 1 441 6 view .LVU28
 185 007e D403     		lsls	r4, r2, #15
 186              	.LVL4:
 187              		.loc 1 441 6 view .LVU29
 188 0080 05D5     		bpl	.L12
 189              		.loc 1 443 5 is_stmt 1 view .LVU30
 190 0082 D3F88010 		ldr	r1, [r3, #128]
 191 0086 41F48031 		orr	r1, r1, #65536
 192 008a C3F88010 		str	r1, [r3, #128]
 193              	.L12:
 194              		.loc 1 447 3 view .LVU31
 195              		.loc 1 447 6 is_stmt 0 view .LVU32
 196 008e 9003     		lsls	r0, r2, #14
 197 0090 07D5     		bpl	.L13
 198              		.loc 1 449 5 is_stmt 1 view .LVU33
 199 0092 4FF0B041 		mov	r1, #1476395008
 200 0096 D1F88430 		ldr	r3, [r1, #132]
 201 009a 43F48033 		orr	r3, r3, #65536
 202 009e C1F88430 		str	r3, [r1, #132]
 203              	.L13:
 204              		.loc 1 454 3 view .LVU34
 205              		.loc 1 454 6 is_stmt 0 view .LVU35
 206 00a2 D107     		lsls	r1, r2, #31
 207 00a4 05D5     		bpl	.L14
 208              		.loc 1 456 5 is_stmt 1 view .LVU36
 209 00a6 4FF0B041 		mov	r1, #1476395008
 210 00aa 0B68     		ldr	r3, [r1]
 211 00ac 43F48033 		orr	r3, r3, #65536
 212 00b0 0B60     		str	r3, [r1]
 213              	.L14:
 214              		.loc 1 460 3 view .LVU37
 215              		.loc 1 460 6 is_stmt 0 view .LVU38
 216 00b2 9307     		lsls	r3, r2, #30
 217 00b4 05D5     		bpl	.L9
 218              		.loc 1 462 5 is_stmt 1 view .LVU39
 219 00b6 4FF0B042 		mov	r2, #1476395008
 220 00ba 5368     		ldr	r3, [r2, #4]
 221 00bc 43F48033 		orr	r3, r3, #65536
 222 00c0 5360     		str	r3, [r2, #4]
 223              	.L9:
 224              		.loc 1 464 1 is_stmt 0 view .LVU40
 225 00c2 10BD     		pop	{r4, pc}
 226              	.LVL5:
 227              	.L29:
 228              		.cfi_def_cfa_offset 0
ARM GAS  C:\Users\DEVELO~1\AppData\Local\Temp\cc677bLb.s 			page 5


 229              		.cfi_restore 4
 230              		.cfi_restore 14
 231              		.loc 1 464 1 view .LVU41
 232 00c4 7047     		bx	lr
 233              	.L33:
 234 00c6 00BF     		.align	2
 235              	.L32:
 236 00c8 00480258 		.word	1476544512
 237              		.cfi_endproc
 238              	.LFE144:
 239              		.size	HAL_PWR_ConfigPVD, .-HAL_PWR_ConfigPVD
 240              		.section	.text.HAL_PWR_EnablePVD,"ax",%progbits
 241              		.align	1
 242              		.p2align 2,,3
 243              		.global	HAL_PWR_EnablePVD
 244              		.syntax unified
 245              		.thumb
 246              		.thumb_func
 247              		.type	HAL_PWR_EnablePVD, %function
 248              	HAL_PWR_EnablePVD:
 249              	.LFB145:
 250              		.loc 1 471 1 is_stmt 1 view -0
 251              		.cfi_startproc
 252              		@ args = 0, pretend = 0, frame = 0
 253              		@ frame_needed = 0, uses_anonymous_args = 0
 254              		@ link register save eliminated.
 255              		.loc 1 473 3 view .LVU43
 256 0000 024A     		ldr	r2, .L35
 257 0002 1368     		ldr	r3, [r2]
 258 0004 43F01003 		orr	r3, r3, #16
 259 0008 1360     		str	r3, [r2]
 260              		.loc 1 474 1 is_stmt 0 view .LVU44
 261 000a 7047     		bx	lr
 262              	.L36:
 263              		.align	2
 264              	.L35:
 265 000c 00480258 		.word	1476544512
 266              		.cfi_endproc
 267              	.LFE145:
 268              		.size	HAL_PWR_EnablePVD, .-HAL_PWR_EnablePVD
 269              		.section	.text.HAL_PWR_DisablePVD,"ax",%progbits
 270              		.align	1
 271              		.p2align 2,,3
 272              		.global	HAL_PWR_DisablePVD
 273              		.syntax unified
 274              		.thumb
 275              		.thumb_func
 276              		.type	HAL_PWR_DisablePVD, %function
 277              	HAL_PWR_DisablePVD:
 278              	.LFB146:
 279              		.loc 1 481 1 is_stmt 1 view -0
 280              		.cfi_startproc
 281              		@ args = 0, pretend = 0, frame = 0
 282              		@ frame_needed = 0, uses_anonymous_args = 0
 283              		@ link register save eliminated.
 284              		.loc 1 483 3 view .LVU46
 285 0000 024A     		ldr	r2, .L38
ARM GAS  C:\Users\DEVELO~1\AppData\Local\Temp\cc677bLb.s 			page 6


 286 0002 1368     		ldr	r3, [r2]
 287 0004 23F01003 		bic	r3, r3, #16
 288 0008 1360     		str	r3, [r2]
 289              		.loc 1 484 1 is_stmt 0 view .LVU47
 290 000a 7047     		bx	lr
 291              	.L39:
 292              		.align	2
 293              	.L38:
 294 000c 00480258 		.word	1476544512
 295              		.cfi_endproc
 296              	.LFE146:
 297              		.size	HAL_PWR_DisablePVD, .-HAL_PWR_DisablePVD
 298              		.section	.text.HAL_PWR_EnableWakeUpPin,"ax",%progbits
 299              		.align	1
 300              		.p2align 2,,3
 301              		.global	HAL_PWR_EnableWakeUpPin
 302              		.syntax unified
 303              		.thumb
 304              		.thumb_func
 305              		.type	HAL_PWR_EnableWakeUpPin, %function
 306              	HAL_PWR_EnableWakeUpPin:
 307              	.LVL6:
 308              	.LFB147:
 309              		.loc 1 508 1 is_stmt 1 view -0
 310              		.cfi_startproc
 311              		@ args = 0, pretend = 0, frame = 0
 312              		@ frame_needed = 0, uses_anonymous_args = 0
 313              		.loc 1 510 3 view .LVU49
 314 0000 1028     		cmp	r0, #16
 315              		.loc 1 508 1 is_stmt 0 view .LVU50
 316 0002 10B5     		push	{r4, lr}
 317              		.cfi_def_cfa_offset 8
 318              		.cfi_offset 4, -8
 319              		.cfi_offset 14, -4
 320              		.loc 1 508 1 view .LVU51
 321 0004 0446     		mov	r4, r0
 322 0006 16D8     		bhi	.L41
 323 0008 144B     		ldr	r3, .L49
 324 000a C340     		lsrs	r3, r3, r0
 325 000c DB07     		lsls	r3, r3, #31
 326 000e 1AD4     		bmi	.L46
 327              	.L43:
 328              		.loc 1 510 17 discriminator 14 view .LVU52
 329 0010 40F60800 		movw	r0, #2056
 330              	.LVL7:
 331              		.loc 1 510 17 discriminator 14 view .LVU53
 332 0014 41F21003 		movw	r3, #4112
 333 0018 9C42     		cmp	r4, r3
 334 001a 18BF     		it	ne
 335 001c 8442     		cmpne	r4, r0
 336 001e 0CBF     		ite	eq
 337 0020 0120     		moveq	r0, #1
 338 0022 0020     		movne	r0, #0
 339              	.L42:
 340              		.loc 1 510 3 discriminator 20 view .LVU54
 341 0024 FFF7FEFF 		bl	assert_param
 342              	.LVL8:
ARM GAS  C:\Users\DEVELO~1\AppData\Local\Temp\cc677bLb.s 			page 7


 343              		.loc 1 516 3 is_stmt 1 discriminator 20 view .LVU55
 344 0028 0D4A     		ldr	r2, .L49+4
 345 002a 0E4B     		ldr	r3, .L49+8
 346 002c 916A     		ldr	r1, [r2, #40]
 347 002e 0B40     		ands	r3, r3, r1
 348 0030 2343     		orrs	r3, r3, r4
 349 0032 9362     		str	r3, [r2, #40]
 350              		.loc 1 517 1 is_stmt 0 discriminator 20 view .LVU56
 351 0034 10BD     		pop	{r4, pc}
 352              	.LVL9:
 353              	.L41:
 354              		.loc 1 510 17 discriminator 10 view .LVU57
 355 0036 20F40053 		bic	r3, r0, #8192
 356 003a 202B     		cmp	r3, #32
 357 003c 03D0     		beq	.L46
 358 003e 40F20113 		movw	r3, #257
 359 0042 9842     		cmp	r0, r3
 360 0044 01D1     		bne	.L48
 361              	.L46:
 362              		.loc 1 510 3 view .LVU58
 363 0046 0120     		movs	r0, #1
 364              	.LVL10:
 365              		.loc 1 510 3 view .LVU59
 366 0048 ECE7     		b	.L42
 367              	.LVL11:
 368              	.L48:
 369              		.loc 1 510 17 discriminator 12 view .LVU60
 370 004a 40F20223 		movw	r3, #514
 371 004e 9842     		cmp	r0, r3
 372 0050 F9D0     		beq	.L46
 373 0052 40F20443 		movw	r3, #1028
 374 0056 9842     		cmp	r0, r3
 375 0058 F5D0     		beq	.L46
 376 005a D9E7     		b	.L43
 377              	.L50:
 378              		.align	2
 379              	.L49:
 380 005c 16010100 		.word	65814
 381 0060 00480258 		.word	1476544512
 382 0064 C0C000F0 		.word	-268386112
 383              		.cfi_endproc
 384              	.LFE147:
 385              		.size	HAL_PWR_EnableWakeUpPin, .-HAL_PWR_EnableWakeUpPin
 386              		.section	.text.HAL_PWR_DisableWakeUpPin,"ax",%progbits
 387              		.align	1
 388              		.p2align 2,,3
 389              		.global	HAL_PWR_DisableWakeUpPin
 390              		.syntax unified
 391              		.thumb
 392              		.thumb_func
 393              		.type	HAL_PWR_DisableWakeUpPin, %function
 394              	HAL_PWR_DisableWakeUpPin:
 395              	.LVL12:
 396              	.LFB148:
 397              		.loc 1 537 1 is_stmt 1 view -0
 398              		.cfi_startproc
 399              		@ args = 0, pretend = 0, frame = 0
ARM GAS  C:\Users\DEVELO~1\AppData\Local\Temp\cc677bLb.s 			page 8


 400              		@ frame_needed = 0, uses_anonymous_args = 0
 401              		.loc 1 539 3 view .LVU62
 402 0000 1028     		cmp	r0, #16
 403              		.loc 1 537 1 is_stmt 0 view .LVU63
 404 0002 10B5     		push	{r4, lr}
 405              		.cfi_def_cfa_offset 8
 406              		.cfi_offset 4, -8
 407              		.cfi_offset 14, -4
 408              		.loc 1 537 1 view .LVU64
 409 0004 0446     		mov	r4, r0
 410 0006 17D8     		bhi	.L52
 411 0008 154B     		ldr	r3, .L60
 412 000a C340     		lsrs	r3, r3, r0
 413 000c DB07     		lsls	r3, r3, #31
 414 000e 1BD4     		bmi	.L57
 415              	.L54:
 416              		.loc 1 539 17 discriminator 14 view .LVU65
 417 0010 40F60800 		movw	r0, #2056
 418              	.LVL13:
 419              		.loc 1 539 17 discriminator 14 view .LVU66
 420 0014 41F21003 		movw	r3, #4112
 421 0018 9C42     		cmp	r4, r3
 422 001a 18BF     		it	ne
 423 001c 8442     		cmpne	r4, r0
 424 001e 0CBF     		ite	eq
 425 0020 0120     		moveq	r0, #1
 426 0022 0020     		movne	r0, #0
 427              	.L53:
 428              		.loc 1 539 3 discriminator 20 view .LVU67
 429 0024 FFF7FEFF 		bl	assert_param
 430              	.LVL14:
 431              		.loc 1 542 3 is_stmt 1 discriminator 20 view .LVU68
 432 0028 0E4A     		ldr	r2, .L60+4
 433 002a 04F03F04 		and	r4, r4, #63
 434              	.LVL15:
 435              		.loc 1 542 3 is_stmt 0 discriminator 20 view .LVU69
 436 002e 936A     		ldr	r3, [r2, #40]
 437 0030 23EA0403 		bic	r3, r3, r4
 438 0034 9362     		str	r3, [r2, #40]
 439              		.loc 1 543 1 discriminator 20 view .LVU70
 440 0036 10BD     		pop	{r4, pc}
 441              	.LVL16:
 442              	.L52:
 443              		.loc 1 539 17 discriminator 10 view .LVU71
 444 0038 20F40053 		bic	r3, r0, #8192
 445 003c 202B     		cmp	r3, #32
 446 003e 03D0     		beq	.L57
 447 0040 40F20113 		movw	r3, #257
 448 0044 9842     		cmp	r0, r3
 449 0046 01D1     		bne	.L59
 450              	.L57:
 451              		.loc 1 539 3 view .LVU72
 452 0048 0120     		movs	r0, #1
 453              	.LVL17:
 454              		.loc 1 539 3 view .LVU73
 455 004a EBE7     		b	.L53
 456              	.LVL18:
ARM GAS  C:\Users\DEVELO~1\AppData\Local\Temp\cc677bLb.s 			page 9


 457              	.L59:
 458              		.loc 1 539 17 discriminator 12 view .LVU74
 459 004c 40F20223 		movw	r3, #514
 460 0050 9842     		cmp	r0, r3
 461 0052 F9D0     		beq	.L57
 462 0054 40F20443 		movw	r3, #1028
 463 0058 9842     		cmp	r0, r3
 464 005a F5D0     		beq	.L57
 465 005c D8E7     		b	.L54
 466              	.L61:
 467 005e 00BF     		.align	2
 468              	.L60:
 469 0060 16010100 		.word	65814
 470 0064 00480258 		.word	1476544512
 471              		.cfi_endproc
 472              	.LFE148:
 473              		.size	HAL_PWR_DisableWakeUpPin, .-HAL_PWR_DisableWakeUpPin
 474              		.section	.text.HAL_PWR_EnterSLEEPMode,"ax",%progbits
 475              		.align	1
 476              		.p2align 2,,3
 477              		.global	HAL_PWR_EnterSLEEPMode
 478              		.syntax unified
 479              		.thumb
 480              		.thumb_func
 481              		.type	HAL_PWR_EnterSLEEPMode, %function
 482              	HAL_PWR_EnterSLEEPMode:
 483              	.LVL19:
 484              	.LFB149:
 485              		.loc 1 565 1 is_stmt 1 view -0
 486              		.cfi_startproc
 487              		@ args = 0, pretend = 0, frame = 0
 488              		@ frame_needed = 0, uses_anonymous_args = 0
 489              		.loc 1 567 3 view .LVU76
 490 0000 0128     		cmp	r0, #1
 491              		.loc 1 565 1 is_stmt 0 view .LVU77
 492 0002 10B5     		push	{r4, lr}
 493              		.cfi_def_cfa_offset 8
 494              		.cfi_offset 4, -8
 495              		.cfi_offset 14, -4
 496              		.loc 1 565 1 view .LVU78
 497 0004 0C46     		mov	r4, r1
 498              		.loc 1 567 3 view .LVU79
 499 0006 8CBF     		ite	hi
 500 0008 0020     		movhi	r0, #0
 501              	.LVL20:
 502              		.loc 1 567 3 view .LVU80
 503 000a 0120     		movls	r0, #1
 504 000c FFF7FEFF 		bl	assert_param
 505              	.LVL21:
 506              		.loc 1 568 3 is_stmt 1 view .LVU81
 507 0010 601E     		subs	r0, r4, #1
 508 0012 0128     		cmp	r0, #1
 509 0014 8CBF     		ite	hi
 510 0016 0020     		movhi	r0, #0
 511 0018 0120     		movls	r0, #1
 512 001a FFF7FEFF 		bl	assert_param
 513              	.LVL22:
ARM GAS  C:\Users\DEVELO~1\AppData\Local\Temp\cc677bLb.s 			page 10


 514              		.loc 1 571 3 view .LVU82
 515              		.loc 1 574 3 view .LVU83
 516 001e 054A     		ldr	r2, .L67
 517              		.loc 1 577 6 is_stmt 0 view .LVU84
 518 0020 012C     		cmp	r4, #1
 519              		.loc 1 574 3 view .LVU85
 520 0022 1369     		ldr	r3, [r2, #16]
 521 0024 23F00403 		bic	r3, r3, #4
 522 0028 1361     		str	r3, [r2, #16]
 523              		.loc 1 577 3 is_stmt 1 view .LVU86
 524              		.loc 1 577 6 is_stmt 0 view .LVU87
 525 002a 01D0     		beq	.L66
 526              		.loc 1 585 5 is_stmt 1 view .LVU88
 527              		.syntax unified
 528              	@ 585 "./drivers/stm32h7xx-hal-driver/Src/stm32h7xx_hal_pwr.c" 1
 529 002c 20BF     		wfe
 530              	@ 0 "" 2
 531              		.loc 1 587 1 is_stmt 0 view .LVU89
 532              		.thumb
 533              		.syntax unified
 534 002e 10BD     		pop	{r4, pc}
 535              	.L66:
 536              		.loc 1 580 5 is_stmt 1 view .LVU90
 537              		.syntax unified
 538              	@ 580 "./drivers/stm32h7xx-hal-driver/Src/stm32h7xx_hal_pwr.c" 1
 539 0030 30BF     		wfi
 540              	@ 0 "" 2
 541              		.loc 1 587 1 is_stmt 0 view .LVU91
 542              		.thumb
 543              		.syntax unified
 544 0032 10BD     		pop	{r4, pc}
 545              	.L68:
 546              		.align	2
 547              	.L67:
 548 0034 00ED00E0 		.word	-536810240
 549              		.cfi_endproc
 550              	.LFE149:
 551              		.size	HAL_PWR_EnterSLEEPMode, .-HAL_PWR_EnterSLEEPMode
 552              		.section	.text.HAL_PWR_EnterSTOPMode,"ax",%progbits
 553              		.align	1
 554              		.p2align 2,,3
 555              		.global	HAL_PWR_EnterSTOPMode
 556              		.syntax unified
 557              		.thumb
 558              		.thumb_func
 559              		.type	HAL_PWR_EnterSTOPMode, %function
 560              	HAL_PWR_EnterSTOPMode:
 561              	.LVL23:
 562              	.LFB150:
 563              		.loc 1 619 1 is_stmt 1 view -0
 564              		.cfi_startproc
 565              		@ args = 0, pretend = 0, frame = 0
 566              		@ frame_needed = 0, uses_anonymous_args = 0
 567              		.loc 1 621 3 view .LVU93
 568 0000 0128     		cmp	r0, #1
 569              		.loc 1 619 1 is_stmt 0 view .LVU94
 570 0002 38B5     		push	{r3, r4, r5, lr}
ARM GAS  C:\Users\DEVELO~1\AppData\Local\Temp\cc677bLb.s 			page 11


 571              		.cfi_def_cfa_offset 16
 572              		.cfi_offset 3, -16
 573              		.cfi_offset 4, -12
 574              		.cfi_offset 5, -8
 575              		.cfi_offset 14, -4
 576              		.loc 1 619 1 view .LVU95
 577 0004 0C46     		mov	r4, r1
 578 0006 0546     		mov	r5, r0
 579              		.loc 1 621 3 view .LVU96
 580 0008 8CBF     		ite	hi
 581 000a 0020     		movhi	r0, #0
 582              	.LVL24:
 583              		.loc 1 621 3 view .LVU97
 584 000c 0120     		movls	r0, #1
 585 000e FFF7FEFF 		bl	assert_param
 586              	.LVL25:
 587              		.loc 1 622 3 is_stmt 1 view .LVU98
 588 0012 601E     		subs	r0, r4, #1
 589 0014 0128     		cmp	r0, #1
 590 0016 8CBF     		ite	hi
 591 0018 0020     		movhi	r0, #0
 592 001a 0120     		movls	r0, #1
 593 001c FFF7FEFF 		bl	assert_param
 594              	.LVL26:
 595              		.loc 1 625 3 view .LVU99
 596 0020 104B     		ldr	r3, .L74
 597              		.loc 1 651 3 is_stmt 0 view .LVU100
 598 0022 1149     		ldr	r1, .L74+4
 599              		.loc 1 625 3 view .LVU101
 600 0024 1A68     		ldr	r2, [r3]
 601 0026 22F00102 		bic	r2, r2, #1
 602 002a 2A43     		orrs	r2, r2, r5
 603 002c 1A60     		str	r2, [r3]
 604              		.loc 1 642 3 is_stmt 1 view .LVU102
 605 002e 1A69     		ldr	r2, [r3, #16]
 606 0030 22F00502 		bic	r2, r2, #5
 607 0034 1A61     		str	r2, [r3, #16]
 608              		.loc 1 646 3 view .LVU103
 609 0036 1A69     		ldr	r2, [r3, #16]
 610 0038 22F00202 		bic	r2, r2, #2
 611 003c 1A61     		str	r2, [r3, #16]
 612              		.loc 1 651 3 view .LVU104
 613 003e 0B69     		ldr	r3, [r1, #16]
 614 0040 43F00403 		orr	r3, r3, #4
 615 0044 0B61     		str	r3, [r1, #16]
 616              		.loc 1 654 3 view .LVU105
 617              	.LBB10:
 618              	.LBI10:
 619              		.file 2 "../../../os/common/ext/ARM/CMSIS/Core/Include/cmsis_gcc.h"
 620              		.loc 2 877 27 view .LVU106
 621              	.LBB11:
 622              		.loc 2 879 3 view .LVU107
 623              		.syntax unified
 624              	@ 879 "../../../os/common/ext/ARM/CMSIS/Core/Include/cmsis_gcc.h" 1
 625 0046 BFF34F8F 		dsb 0xF
 626              	@ 0 "" 2
 627              		.thumb
ARM GAS  C:\Users\DEVELO~1\AppData\Local\Temp\cc677bLb.s 			page 12


 628              		.syntax unified
 629              	.LBE11:
 630              	.LBE10:
 631              		.loc 1 655 3 view .LVU108
 632              	.LBB12:
 633              	.LBI12:
 634              		.loc 2 866 27 view .LVU109
 635              	.LBB13:
 636              		.loc 2 868 3 view .LVU110
 637              		.syntax unified
 638              	@ 868 "../../../os/common/ext/ARM/CMSIS/Core/Include/cmsis_gcc.h" 1
 639 004a BFF36F8F 		isb 0xF
 640              	@ 0 "" 2
 641              		.thumb
 642              		.syntax unified
 643              	.LBE13:
 644              	.LBE12:
 645              		.loc 1 658 3 view .LVU111
 646              		.loc 1 658 6 is_stmt 0 view .LVU112
 647 004e 012C     		cmp	r4, #1
 648 0050 06D0     		beq	.L73
 649              		.loc 1 666 5 is_stmt 1 view .LVU113
 650              		.syntax unified
 651              	@ 666 "./drivers/stm32h7xx-hal-driver/Src/stm32h7xx_hal_pwr.c" 1
 652 0052 20BF     		wfe
 653              	@ 0 "" 2
 654              		.thumb
 655              		.syntax unified
 656              	.L71:
 657              		.loc 1 670 3 view .LVU114
 658 0054 044A     		ldr	r2, .L74+4
 659 0056 1369     		ldr	r3, [r2, #16]
 660 0058 23F00403 		bic	r3, r3, #4
 661 005c 1361     		str	r3, [r2, #16]
 662              		.loc 1 671 1 is_stmt 0 view .LVU115
 663 005e 38BD     		pop	{r3, r4, r5, pc}
 664              	.LVL27:
 665              	.L73:
 666              		.loc 1 661 5 is_stmt 1 view .LVU116
 667              		.syntax unified
 668              	@ 661 "./drivers/stm32h7xx-hal-driver/Src/stm32h7xx_hal_pwr.c" 1
 669 0060 30BF     		wfi
 670              	@ 0 "" 2
 671              		.thumb
 672              		.syntax unified
 673 0062 F7E7     		b	.L71
 674              	.L75:
 675              		.align	2
 676              	.L74:
 677 0064 00480258 		.word	1476544512
 678 0068 00ED00E0 		.word	-536810240
 679              		.cfi_endproc
 680              	.LFE150:
 681              		.size	HAL_PWR_EnterSTOPMode, .-HAL_PWR_EnterSTOPMode
 682              		.section	.text.HAL_PWR_EnterSTANDBYMode,"ax",%progbits
 683              		.align	1
 684              		.p2align 2,,3
ARM GAS  C:\Users\DEVELO~1\AppData\Local\Temp\cc677bLb.s 			page 13


 685              		.global	HAL_PWR_EnterSTANDBYMode
 686              		.syntax unified
 687              		.thumb
 688              		.thumb_func
 689              		.type	HAL_PWR_EnterSTANDBYMode, %function
 690              	HAL_PWR_EnterSTANDBYMode:
 691              	.LFB151:
 692              		.loc 1 690 1 view -0
 693              		.cfi_startproc
 694              		@ args = 0, pretend = 0, frame = 0
 695              		@ frame_needed = 0, uses_anonymous_args = 0
 696              		@ link register save eliminated.
 697              		.loc 1 708 3 view .LVU118
 698 0000 094B     		ldr	r3, .L77
 699              		.loc 1 717 3 is_stmt 0 view .LVU119
 700 0002 0A49     		ldr	r1, .L77+4
 701              		.loc 1 708 3 view .LVU120
 702 0004 1A69     		ldr	r2, [r3, #16]
 703 0006 42F00502 		orr	r2, r2, #5
 704 000a 1A61     		str	r2, [r3, #16]
 705              		.loc 1 712 3 is_stmt 1 view .LVU121
 706 000c 1A69     		ldr	r2, [r3, #16]
 707 000e 42F00202 		orr	r2, r2, #2
 708 0012 1A61     		str	r2, [r3, #16]
 709              		.loc 1 717 3 view .LVU122
 710 0014 0B69     		ldr	r3, [r1, #16]
 711 0016 43F00403 		orr	r3, r3, #4
 712 001a 0B61     		str	r3, [r1, #16]
 713              		.loc 1 720 3 view .LVU123
 714              	.LBB14:
 715              	.LBI14:
 716              		.loc 2 877 27 view .LVU124
 717              	.LBB15:
 718              		.loc 2 879 3 view .LVU125
 719              		.syntax unified
 720              	@ 879 "../../../os/common/ext/ARM/CMSIS/Core/Include/cmsis_gcc.h" 1
 721 001c BFF34F8F 		dsb 0xF
 722              	@ 0 "" 2
 723              		.thumb
 724              		.syntax unified
 725              	.LBE15:
 726              	.LBE14:
 727              		.loc 1 721 3 view .LVU126
 728              	.LBB16:
 729              	.LBI16:
 730              		.loc 2 866 27 view .LVU127
 731              	.LBB17:
 732              		.loc 2 868 3 view .LVU128
 733              		.syntax unified
 734              	@ 868 "../../../os/common/ext/ARM/CMSIS/Core/Include/cmsis_gcc.h" 1
 735 0020 BFF36F8F 		isb 0xF
 736              	@ 0 "" 2
 737              		.thumb
 738              		.syntax unified
 739              	.LBE17:
 740              	.LBE16:
 741              		.loc 1 729 3 view .LVU129
ARM GAS  C:\Users\DEVELO~1\AppData\Local\Temp\cc677bLb.s 			page 14


 742              		.syntax unified
 743              	@ 729 "./drivers/stm32h7xx-hal-driver/Src/stm32h7xx_hal_pwr.c" 1
 744 0024 30BF     		wfi
 745              	@ 0 "" 2
 746              		.loc 1 730 1 is_stmt 0 view .LVU130
 747              		.thumb
 748              		.syntax unified
 749 0026 7047     		bx	lr
 750              	.L78:
 751              		.align	2
 752              	.L77:
 753 0028 00480258 		.word	1476544512
 754 002c 00ED00E0 		.word	-536810240
 755              		.cfi_endproc
 756              	.LFE151:
 757              		.size	HAL_PWR_EnterSTANDBYMode, .-HAL_PWR_EnterSTANDBYMode
 758              		.section	.text.HAL_PWR_EnableSleepOnExit,"ax",%progbits
 759              		.align	1
 760              		.p2align 2,,3
 761              		.global	HAL_PWR_EnableSleepOnExit
 762              		.syntax unified
 763              		.thumb
 764              		.thumb_func
 765              		.type	HAL_PWR_EnableSleepOnExit, %function
 766              	HAL_PWR_EnableSleepOnExit:
 767              	.LFB152:
 768              		.loc 1 742 1 is_stmt 1 view -0
 769              		.cfi_startproc
 770              		@ args = 0, pretend = 0, frame = 0
 771              		@ frame_needed = 0, uses_anonymous_args = 0
 772              		@ link register save eliminated.
 773              		.loc 1 744 3 view .LVU132
 774 0000 024A     		ldr	r2, .L80
 775 0002 1369     		ldr	r3, [r2, #16]
 776 0004 43F00203 		orr	r3, r3, #2
 777 0008 1361     		str	r3, [r2, #16]
 778              		.loc 1 745 1 is_stmt 0 view .LVU133
 779 000a 7047     		bx	lr
 780              	.L81:
 781              		.align	2
 782              	.L80:
 783 000c 00ED00E0 		.word	-536810240
 784              		.cfi_endproc
 785              	.LFE152:
 786              		.size	HAL_PWR_EnableSleepOnExit, .-HAL_PWR_EnableSleepOnExit
 787              		.section	.text.HAL_PWR_DisableSleepOnExit,"ax",%progbits
 788              		.align	1
 789              		.p2align 2,,3
 790              		.global	HAL_PWR_DisableSleepOnExit
 791              		.syntax unified
 792              		.thumb
 793              		.thumb_func
 794              		.type	HAL_PWR_DisableSleepOnExit, %function
 795              	HAL_PWR_DisableSleepOnExit:
 796              	.LFB153:
 797              		.loc 1 755 1 is_stmt 1 view -0
 798              		.cfi_startproc
ARM GAS  C:\Users\DEVELO~1\AppData\Local\Temp\cc677bLb.s 			page 15


 799              		@ args = 0, pretend = 0, frame = 0
 800              		@ frame_needed = 0, uses_anonymous_args = 0
 801              		@ link register save eliminated.
 802              		.loc 1 757 3 view .LVU135
 803 0000 024A     		ldr	r2, .L83
 804 0002 1369     		ldr	r3, [r2, #16]
 805 0004 23F00203 		bic	r3, r3, #2
 806 0008 1361     		str	r3, [r2, #16]
 807              		.loc 1 758 1 is_stmt 0 view .LVU136
 808 000a 7047     		bx	lr
 809              	.L84:
 810              		.align	2
 811              	.L83:
 812 000c 00ED00E0 		.word	-536810240
 813              		.cfi_endproc
 814              	.LFE153:
 815              		.size	HAL_PWR_DisableSleepOnExit, .-HAL_PWR_DisableSleepOnExit
 816              		.section	.text.HAL_PWR_EnableSEVOnPend,"ax",%progbits
 817              		.align	1
 818              		.p2align 2,,3
 819              		.global	HAL_PWR_EnableSEVOnPend
 820              		.syntax unified
 821              		.thumb
 822              		.thumb_func
 823              		.type	HAL_PWR_EnableSEVOnPend, %function
 824              	HAL_PWR_EnableSEVOnPend:
 825              	.LFB154:
 826              		.loc 1 768 1 is_stmt 1 view -0
 827              		.cfi_startproc
 828              		@ args = 0, pretend = 0, frame = 0
 829              		@ frame_needed = 0, uses_anonymous_args = 0
 830              		@ link register save eliminated.
 831              		.loc 1 770 3 view .LVU138
 832 0000 024A     		ldr	r2, .L86
 833 0002 1369     		ldr	r3, [r2, #16]
 834 0004 43F01003 		orr	r3, r3, #16
 835 0008 1361     		str	r3, [r2, #16]
 836              		.loc 1 771 1 is_stmt 0 view .LVU139
 837 000a 7047     		bx	lr
 838              	.L87:
 839              		.align	2
 840              	.L86:
 841 000c 00ED00E0 		.word	-536810240
 842              		.cfi_endproc
 843              	.LFE154:
 844              		.size	HAL_PWR_EnableSEVOnPend, .-HAL_PWR_EnableSEVOnPend
 845              		.section	.text.HAL_PWR_DisableSEVOnPend,"ax",%progbits
 846              		.align	1
 847              		.p2align 2,,3
 848              		.global	HAL_PWR_DisableSEVOnPend
 849              		.syntax unified
 850              		.thumb
 851              		.thumb_func
 852              		.type	HAL_PWR_DisableSEVOnPend, %function
 853              	HAL_PWR_DisableSEVOnPend:
 854              	.LFB155:
 855              		.loc 1 780 1 is_stmt 1 view -0
ARM GAS  C:\Users\DEVELO~1\AppData\Local\Temp\cc677bLb.s 			page 16


 856              		.cfi_startproc
 857              		@ args = 0, pretend = 0, frame = 0
 858              		@ frame_needed = 0, uses_anonymous_args = 0
 859              		@ link register save eliminated.
 860              		.loc 1 782 3 view .LVU141
 861 0000 024A     		ldr	r2, .L89
 862 0002 1369     		ldr	r3, [r2, #16]
 863 0004 23F01003 		bic	r3, r3, #16
 864 0008 1361     		str	r3, [r2, #16]
 865              		.loc 1 783 1 is_stmt 0 view .LVU142
 866 000a 7047     		bx	lr
 867              	.L90:
 868              		.align	2
 869              	.L89:
 870 000c 00ED00E0 		.word	-536810240
 871              		.cfi_endproc
 872              	.LFE155:
 873              		.size	HAL_PWR_DisableSEVOnPend, .-HAL_PWR_DisableSEVOnPend
 874              		.section	.text.HAL_PWR_PVDCallback,"ax",%progbits
 875              		.align	1
 876              		.p2align 2,,3
 877              		.weak	HAL_PWR_PVDCallback
 878              		.syntax unified
 879              		.thumb
 880              		.thumb_func
 881              		.type	HAL_PWR_PVDCallback, %function
 882              	HAL_PWR_PVDCallback:
 883              	.LFB157:
 884              		.loc 1 854 1 is_stmt 1 view -0
 885              		.cfi_startproc
 886              		@ args = 0, pretend = 0, frame = 0
 887              		@ frame_needed = 0, uses_anonymous_args = 0
 888              		@ link register save eliminated.
 889              		.loc 1 858 1 view .LVU144
 890 0000 7047     		bx	lr
 891              		.cfi_endproc
 892              	.LFE157:
 893              		.size	HAL_PWR_PVDCallback, .-HAL_PWR_PVDCallback
 894 0002 00BF     		.section	.text.HAL_PWR_PVD_IRQHandler,"ax",%progbits
 895              		.align	1
 896              		.p2align 2,,3
 897              		.global	HAL_PWR_PVD_IRQHandler
 898              		.syntax unified
 899              		.thumb
 900              		.thumb_func
 901              		.type	HAL_PWR_PVD_IRQHandler, %function
 902              	HAL_PWR_PVD_IRQHandler:
 903              	.LFB156:
 904              		.loc 1 809 1 view -0
 905              		.cfi_startproc
 906              		@ args = 0, pretend = 0, frame = 0
 907              		@ frame_needed = 0, uses_anonymous_args = 0
 908              		.loc 1 838 3 view .LVU146
 909              		.loc 1 809 1 is_stmt 0 view .LVU147
 910 0000 08B5     		push	{r3, lr}
 911              		.cfi_def_cfa_offset 8
 912              		.cfi_offset 3, -8
ARM GAS  C:\Users\DEVELO~1\AppData\Local\Temp\cc677bLb.s 			page 17


 913              		.cfi_offset 14, -4
 914              		.loc 1 838 7 view .LVU148
 915 0002 4FF0B043 		mov	r3, #1476395008
 916 0006 D3F88820 		ldr	r2, [r3, #136]
 917              		.loc 1 838 6 view .LVU149
 918 000a D203     		lsls	r2, r2, #15
 919 000c 00D4     		bmi	.L98
 920              		.loc 1 847 1 view .LVU150
 921 000e 08BD     		pop	{r3, pc}
 922              	.L98:
 923              		.loc 1 841 5 is_stmt 1 view .LVU151
 924 0010 D3F88820 		ldr	r2, [r3, #136]
 925 0014 42F48032 		orr	r2, r2, #65536
 926 0018 C3F88820 		str	r2, [r3, #136]
 927              		.loc 1 844 5 view .LVU152
 928 001c FFF7FEFF 		bl	HAL_PWR_PVDCallback
 929              	.LVL28:
 930              		.loc 1 847 1 is_stmt 0 view .LVU153
 931 0020 08BD     		pop	{r3, pc}
 932              		.cfi_endproc
 933              	.LFE156:
 934              		.size	HAL_PWR_PVD_IRQHandler, .-HAL_PWR_PVD_IRQHandler
 935 0022 00BF     		.text
 936              	.Letext0:
 937              		.file 3 "c:\\chibistudio\\tools\\gnu tools arm embedded\\11.3 2022.08\\arm-none-eabi\\include\\mac
 938              		.file 4 "c:\\chibistudio\\tools\\gnu tools arm embedded\\11.3 2022.08\\arm-none-eabi\\include\\sys
 939              		.file 5 "../../../os/common/ext/ARM/CMSIS/Core/Include/core_cm7.h"
 940              		.file 6 "../../../os/common/ext/ST/STM32H7xx/stm32h743xx.h"
 941              		.file 7 "./drivers/stm32h7xx-hal-driver/Inc/stm32h7xx_hal_pwr.h"