ARM GAS  C:\Users\DEVELO~1\AppData\Local\Temp\cc1koBA1.s 			page 1


   1              		.cpu cortex-m7
   2              		.arch armv7e-m
   3              		.fpu fpv5-d16
   4              		.eabi_attribute 28, 1
   5              		.eabi_attribute 20, 1
   6              		.eabi_attribute 21, 1
   7              		.eabi_attribute 23, 3
   8              		.eabi_attribute 24, 1
   9              		.eabi_attribute 25, 1
  10              		.eabi_attribute 26, 1
  11              		.eabi_attribute 30, 2
  12              		.eabi_attribute 34, 1
  13              		.eabi_attribute 18, 4
  14              		.file	"stm32h7xx_hal_flash.c"
  15              		.text
  16              	.Ltext0:
  17              		.cfi_sections	.debug_frame
  18              		.section	.text.HAL_FLASH_EndOfOperationCallback,"ax",%progbits
  19              		.align	1
  20              		.p2align 2,,3
  21              		.weak	HAL_FLASH_EndOfOperationCallback
  22              		.syntax unified
  23              		.thumb
  24              		.thumb_func
  25              		.type	HAL_FLASH_EndOfOperationCallback, %function
  26              	HAL_FLASH_EndOfOperationCallback:
  27              	.LVL0:
  28              	.LFB144:
  29              		.file 1 "./drivers/stm32h7xx-hal-driver/Src/stm32h7xx_hal_flash.c"
  30              		.loc 1 811 1 view -0
  31              		.cfi_startproc
  32              		@ args = 0, pretend = 0, frame = 0
  33              		@ frame_needed = 0, uses_anonymous_args = 0
  34              		@ link register save eliminated.
  35              		.loc 1 813 3 view .LVU1
  36              		.loc 1 818 1 is_stmt 0 view .LVU2
  37 0000 7047     		bx	lr
  38              		.cfi_endproc
  39              	.LFE144:
  40              		.size	HAL_FLASH_EndOfOperationCallback, .-HAL_FLASH_EndOfOperationCallback
  41 0002 00BF     		.section	.text.HAL_FLASH_OperationErrorCallback,"ax",%progbits
  42              		.align	1
  43              		.p2align 2,,3
  44              		.weak	HAL_FLASH_OperationErrorCallback
  45              		.syntax unified
  46              		.thumb
  47              		.thumb_func
  48              		.type	HAL_FLASH_OperationErrorCallback, %function
  49              	HAL_FLASH_OperationErrorCallback:
  50              	.LFB157:
  51              		.cfi_startproc
  52              		@ args = 0, pretend = 0, frame = 0
  53              		@ frame_needed = 0, uses_anonymous_args = 0
  54              		@ link register save eliminated.
  55 0000 7047     		bx	lr
  56              		.cfi_endproc
  57              	.LFE157:
ARM GAS  C:\Users\DEVELO~1\AppData\Local\Temp\cc1koBA1.s 			page 2


  58              		.size	HAL_FLASH_OperationErrorCallback, .-HAL_FLASH_OperationErrorCallback
  59 0002 00BF     		.section	.text.HAL_FLASH_IRQHandler,"ax",%progbits
  60              		.align	1
  61              		.p2align 2,,3
  62              		.global	HAL_FLASH_IRQHandler
  63              		.syntax unified
  64              		.thumb
  65              		.thumb_func
  66              		.type	HAL_FLASH_IRQHandler, %function
  67              	HAL_FLASH_IRQHandler:
  68              	.LFB143:
  69              		.loc 1 476 1 is_stmt 1 view -0
  70              		.cfi_startproc
  71              		@ args = 0, pretend = 0, frame = 0
  72              		@ frame_needed = 0, uses_anonymous_args = 0
  73              		.loc 1 477 3 view .LVU4
  74              		.loc 1 478 3 view .LVU5
  75              		.loc 1 479 3 view .LVU6
  76              		.loc 1 482 3 view .LVU7
  77              		.loc 1 476 1 is_stmt 0 view .LVU8
  78 0000 70B5     		push	{r4, r5, r6, lr}
  79              		.cfi_def_cfa_offset 16
  80              		.cfi_offset 4, -16
  81              		.cfi_offset 5, -12
  82              		.cfi_offset 6, -8
  83              		.cfi_offset 14, -4
  84              		.loc 1 482 6 view .LVU9
  85 0002 744D     		ldr	r5, .L48
  86              		.loc 1 484 14 view .LVU10
  87 0004 744C     		ldr	r4, .L48+4
  88              		.loc 1 482 6 view .LVU11
  89 0006 2B69     		ldr	r3, [r5, #16]
  90              		.loc 1 482 5 view .LVU12
  91 0008 DA03     		lsls	r2, r3, #15
  92 000a 13D5     		bpl	.L6
  93              		.loc 1 484 5 is_stmt 1 view .LVU13
  94              		.loc 1 484 14 is_stmt 0 view .LVU14
  95 000c 2378     		ldrb	r3, [r4]	@ zero_extendqisi2
  96              		.loc 1 484 7 view .LVU15
  97 000e 012B     		cmp	r3, #1
  98              		.loc 1 484 14 view .LVU16
  99 0010 DEB2     		uxtb	r6, r3
 100              		.loc 1 484 7 view .LVU17
 101 0012 00F08E80 		beq	.L40
 102              		.loc 1 519 7 is_stmt 1 view .LVU18
 103              		.loc 1 519 17 is_stmt 0 view .LVU19
 104 0016 2378     		ldrb	r3, [r4]	@ zero_extendqisi2
 105              		.loc 1 521 9 view .LVU20
 106 0018 022B     		cmp	r3, #2
 107              		.loc 1 519 17 view .LVU21
 108 001a DDB2     		uxtb	r5, r3
 109              	.LVL1:
 110              		.loc 1 521 7 is_stmt 1 view .LVU22
 111              		.loc 1 521 9 is_stmt 0 view .LVU23
 112 001c 00F0B680 		beq	.L29
 113 0020 072D     		cmp	r5, #7
 114 0022 00F0B380 		beq	.L29
ARM GAS  C:\Users\DEVELO~1\AppData\Local\Temp\cc1koBA1.s 			page 3


 115              		.loc 1 527 12 is_stmt 1 view .LVU24
 116              		.loc 1 527 14 is_stmt 0 view .LVU25
 117 0026 032D     		cmp	r5, #3
 118 0028 00F09980 		beq	.L41
 119              		.loc 1 536 7 is_stmt 1 view .LVU26
 120              		.loc 1 538 7 view .LVU27
 121              		.loc 1 538 9 is_stmt 0 view .LVU28
 122 002c 043D     		subs	r5, r5, #4
 123              	.LVL2:
 124              		.loc 1 538 9 view .LVU29
 125 002e 022D     		cmp	r5, #2
 126 0030 00F29880 		bhi	.L12
 127              	.LVL3:
 128              	.L6:
 129              		.loc 1 551 3 is_stmt 1 view .LVU30
 130              		.loc 1 551 6 is_stmt 0 view .LVU31
 131 0034 674D     		ldr	r5, .L48
 132 0036 D5F81031 		ldr	r3, [r5, #272]
 133              		.loc 1 551 5 view .LVU32
 134 003a DB03     		lsls	r3, r3, #15
 135 003c 10D5     		bpl	.L14
 136              		.loc 1 553 5 is_stmt 1 view .LVU33
 137              		.loc 1 553 14 is_stmt 0 view .LVU34
 138 003e 2378     		ldrb	r3, [r4]	@ zero_extendqisi2
 139              		.loc 1 553 7 view .LVU35
 140 0040 042B     		cmp	r3, #4
 141 0042 57D0     		beq	.L42
 142              		.loc 1 588 7 is_stmt 1 view .LVU36
 143              		.loc 1 588 17 is_stmt 0 view .LVU37
 144 0044 2378     		ldrb	r3, [r4]	@ zero_extendqisi2
 145              		.loc 1 590 9 view .LVU38
 146 0046 03F0FD02 		and	r2, r3, #253
 147              		.loc 1 588 17 view .LVU39
 148 004a DBB2     		uxtb	r3, r3
 149              	.LVL4:
 150              		.loc 1 590 7 is_stmt 1 view .LVU40
 151              		.loc 1 590 9 is_stmt 0 view .LVU41
 152 004c 052A     		cmp	r2, #5
 153 004e 00F09280 		beq	.L43
 154              		.loc 1 596 12 is_stmt 1 view .LVU42
 155              		.loc 1 596 14 is_stmt 0 view .LVU43
 156 0052 062B     		cmp	r3, #6
 157 0054 00F0B980 		beq	.L44
 158              		.loc 1 605 7 is_stmt 1 view .LVU44
 159              		.loc 1 607 7 view .LVU45
 160              		.loc 1 607 9 is_stmt 0 view .LVU46
 161 0058 013B     		subs	r3, r3, #1
 162              	.LVL5:
 163              		.loc 1 607 9 view .LVU47
 164 005a 022B     		cmp	r3, #2
 165 005c 00F28E80 		bhi	.L18
 166              	.LVL6:
 167              	.L14:
 168              		.loc 1 621 3 is_stmt 1 view .LVU48
 169              		.loc 1 621 20 is_stmt 0 view .LVU49
 170 0060 5C4A     		ldr	r2, .L48
 171 0062 1369     		ldr	r3, [r2, #16]
ARM GAS  C:\Users\DEVELO~1\AppData\Local\Temp\cc1koBA1.s 			page 4


 172              	.LVL7:
 173              		.loc 1 628 3 is_stmt 1 view .LVU50
 174              		.loc 1 628 5 is_stmt 0 view .LVU51
 175 0064 13F4DC03 		ands	r3, r3, #7208960
 176              	.LVL8:
 177              		.loc 1 628 5 view .LVU52
 178 0068 10D0     		beq	.L20
 179              		.loc 1 631 5 is_stmt 1 view .LVU53
 180              		.loc 1 631 22 is_stmt 0 view .LVU54
 181 006a A169     		ldr	r1, [r4, #24]
 182 006c 1943     		orrs	r1, r1, r3
 183 006e A161     		str	r1, [r4, #24]
 184              		.loc 1 634 5 is_stmt 1 view .LVU55
 185 0070 5361     		str	r3, [r2, #20]
 186              		.loc 1 636 5 view .LVU56
 187              		.loc 1 636 15 is_stmt 0 view .LVU57
 188 0072 2378     		ldrb	r3, [r4]	@ zero_extendqisi2
 189              	.LVL9:
 190              		.loc 1 638 7 view .LVU58
 191 0074 012B     		cmp	r3, #1
 192              		.loc 1 636 15 view .LVU59
 193 0076 DAB2     		uxtb	r2, r3
 194              	.LVL10:
 195              		.loc 1 638 5 is_stmt 1 view .LVU60
 196              		.loc 1 638 7 is_stmt 0 view .LVU61
 197 0078 33D0     		beq	.L45
 198              		.loc 1 644 10 is_stmt 1 view .LVU62
 199              		.loc 1 644 12 is_stmt 0 view .LVU63
 200 007a 022A     		cmp	r2, #2
 201 007c 79D0     		beq	.L27
 202 007e 072A     		cmp	r2, #7
 203 0080 77D0     		beq	.L27
 204              		.loc 1 652 7 is_stmt 1 view .LVU64
 205              		.loc 1 656 29 is_stmt 0 view .LVU65
 206 0082 0023     		movs	r3, #0
 207              		.loc 1 652 12 view .LVU66
 208 0084 2069     		ldr	r0, [r4, #16]
 209              	.LVL11:
 210              		.loc 1 656 5 is_stmt 1 view .LVU67
 211              		.loc 1 656 29 is_stmt 0 view .LVU68
 212 0086 2370     		strb	r3, [r4]
 213              	.LVL12:
 214              		.loc 1 659 5 is_stmt 1 view .LVU69
 215 0088 FFF7FEFF 		bl	HAL_FLASH_OperationErrorCallback
 216              	.LVL13:
 217              	.L20:
 218              		.loc 1 697 3 view .LVU70
 219              		.loc 1 697 20 is_stmt 0 view .LVU71
 220 008c 5149     		ldr	r1, .L48
 221 008e D1F81031 		ldr	r3, [r1, #272]
 222              	.LVL14:
 223              		.loc 1 704 3 is_stmt 1 view .LVU72
 224              		.loc 1 704 5 is_stmt 0 view .LVU73
 225 0092 13F4DC03 		ands	r3, r3, #7208960
 226              	.LVL15:
 227              		.loc 1 704 5 view .LVU74
 228 0096 13D0     		beq	.L23
ARM GAS  C:\Users\DEVELO~1\AppData\Local\Temp\cc1koBA1.s 			page 5


 229              		.loc 1 707 5 is_stmt 1 view .LVU75
 230              		.loc 1 707 22 is_stmt 0 view .LVU76
 231 0098 A269     		ldr	r2, [r4, #24]
 232 009a 1A43     		orrs	r2, r2, r3
 233 009c 42F00042 		orr	r2, r2, #-2147483648
 234 00a0 A261     		str	r2, [r4, #24]
 235              		.loc 1 710 5 is_stmt 1 view .LVU77
 236 00a2 C1F81431 		str	r3, [r1, #276]
 237              		.loc 1 712 5 view .LVU78
 238              		.loc 1 712 15 is_stmt 0 view .LVU79
 239 00a6 2378     		ldrb	r3, [r4]	@ zero_extendqisi2
 240              	.LVL16:
 241              		.loc 1 714 7 view .LVU80
 242 00a8 042B     		cmp	r3, #4
 243              		.loc 1 712 15 view .LVU81
 244 00aa DAB2     		uxtb	r2, r3
 245              	.LVL17:
 246              		.loc 1 714 5 is_stmt 1 view .LVU82
 247              		.loc 1 714 7 is_stmt 0 view .LVU83
 248 00ac 38D0     		beq	.L46
 249              		.loc 1 720 10 is_stmt 1 view .LVU84
 250              		.loc 1 720 12 is_stmt 0 view .LVU85
 251 00ae 02F0FD02 		and	r2, r2, #253
 252              	.LVL18:
 253              		.loc 1 720 12 view .LVU86
 254 00b2 052A     		cmp	r2, #5
 255 00b4 51D1     		bne	.L47
 256              		.loc 1 732 29 view .LVU87
 257 00b6 0023     		movs	r3, #0
 258              	.LVL19:
 259              		.loc 1 723 12 view .LVU88
 260 00b8 0220     		movs	r0, #2
 261              	.LVL20:
 262              		.loc 1 732 5 is_stmt 1 view .LVU89
 263              		.loc 1 732 29 is_stmt 0 view .LVU90
 264 00ba 2370     		strb	r3, [r4]
 265              	.LVL21:
 266              		.loc 1 735 5 is_stmt 1 view .LVU91
 267 00bc FFF7FEFF 		bl	HAL_FLASH_OperationErrorCallback
 268              	.LVL22:
 269              	.L23:
 270              		.loc 1 772 3 view .LVU92
 271              		.loc 1 772 12 is_stmt 0 view .LVU93
 272 00c0 2378     		ldrb	r3, [r4]	@ zero_extendqisi2
 273              		.loc 1 772 5 view .LVU94
 274 00c2 03F0FF01 		and	r1, r3, #255
 275 00c6 5BB9     		cbnz	r3, .L4
 276              		.loc 1 776 5 is_stmt 1 view .LVU95
 277 00c8 424B     		ldr	r3, .L48
 278 00ca DA68     		ldr	r2, [r3, #12]
 279 00cc 22F4DE02 		bic	r2, r2, #7274496
 280 00d0 DA60     		str	r2, [r3, #12]
 281              		.loc 1 781 5 view .LVU96
 282 00d2 D3F80C21 		ldr	r2, [r3, #268]
 283 00d6 22F4DE02 		bic	r2, r2, #7274496
 284 00da C3F80C21 		str	r2, [r3, #268]
 285              		.loc 1 797 5 view .LVU97
ARM GAS  C:\Users\DEVELO~1\AppData\Local\Temp\cc1koBA1.s 			page 6


 286              		.loc 1 797 5 view .LVU98
 287 00de 2175     		strb	r1, [r4, #20]
 288              		.loc 1 797 5 view .LVU99
 289              	.L4:
 290              		.loc 1 799 1 is_stmt 0 view .LVU100
 291 00e0 70BD     		pop	{r4, r5, r6, pc}
 292              	.LVL23:
 293              	.L45:
 294              		.loc 1 641 7 is_stmt 1 view .LVU101
 295              		.loc 1 642 21 is_stmt 0 view .LVU102
 296 00e2 4FF0FF33 		mov	r3, #-1
 297              		.loc 1 641 12 view .LVU103
 298 00e6 E068     		ldr	r0, [r4, #12]
 299              	.LVL24:
 300              		.loc 1 642 7 is_stmt 1 view .LVU104
 301              		.loc 1 642 21 is_stmt 0 view .LVU105
 302 00e8 E360     		str	r3, [r4, #12]
 303              	.LVL25:
 304              	.L22:
 305              		.loc 1 656 5 is_stmt 1 view .LVU106
 306              		.loc 1 656 29 is_stmt 0 view .LVU107
 307 00ea 0023     		movs	r3, #0
 308 00ec 2370     		strb	r3, [r4]
 309              		.loc 1 659 5 is_stmt 1 view .LVU108
 310 00ee FFF7FEFF 		bl	HAL_FLASH_OperationErrorCallback
 311              	.LVL26:
 312              		.loc 1 659 5 is_stmt 0 view .LVU109
 313 00f2 CBE7     		b	.L20
 314              	.L42:
 315              		.loc 1 556 7 is_stmt 1 view .LVU110
 316              		.loc 1 556 13 is_stmt 0 view .LVU111
 317 00f4 6368     		ldr	r3, [r4, #4]
 318              		.loc 1 556 30 view .LVU112
 319 00f6 013B     		subs	r3, r3, #1
 320 00f8 6360     		str	r3, [r4, #4]
 321              		.loc 1 559 7 is_stmt 1 view .LVU113
 322              		.loc 1 559 16 is_stmt 0 view .LVU114
 323 00fa 6368     		ldr	r3, [r4, #4]
 324              		.loc 1 559 9 view .LVU115
 325 00fc 002B     		cmp	r3, #0
 326 00fe 58D0     		beq	.L16
 327              		.loc 1 562 9 is_stmt 1 view .LVU116
 328              		.loc 1 562 48 is_stmt 0 view .LVU117
 329 0100 E068     		ldr	r0, [r4, #12]
 330              		.loc 1 562 9 view .LVU118
 331 0102 FFF7FEFF 		bl	HAL_FLASH_EndOfOperationCallback
 332              	.LVL27:
 333              		.loc 1 565 9 is_stmt 1 view .LVU119
 334 0106 4FF48033 		mov	r3, #65536
 335              		.loc 1 570 9 is_stmt 0 view .LVU120
 336 010a 0221     		movs	r1, #2
 337              		.loc 1 565 9 view .LVU121
 338 010c C5F81431 		str	r3, [r5, #276]
 339              		.loc 1 568 9 is_stmt 1 view .LVU122
 340              		.loc 1 568 15 is_stmt 0 view .LVU123
 341 0110 E368     		ldr	r3, [r4, #12]
 342              		.loc 1 568 22 view .LVU124
ARM GAS  C:\Users\DEVELO~1\AppData\Local\Temp\cc1koBA1.s 			page 7


 343 0112 0133     		adds	r3, r3, #1
 344 0114 E360     		str	r3, [r4, #12]
 345              		.loc 1 569 9 is_stmt 1 view .LVU125
 346              		.loc 1 569 14 is_stmt 0 view .LVU126
 347 0116 E068     		ldr	r0, [r4, #12]
 348              	.LVL28:
 349              		.loc 1 570 9 is_stmt 1 view .LVU127
 350              		.loc 1 570 54 is_stmt 0 view .LVU128
 351 0118 A268     		ldr	r2, [r4, #8]
 352              		.loc 1 570 9 view .LVU129
 353 011a FFF7FEFF 		bl	FLASH_Erase_Sector
 354              	.LVL29:
 355              		.loc 1 570 9 view .LVU130
 356 011e 9FE7     		b	.L14
 357              	.LVL30:
 358              	.L46:
 359              		.loc 1 717 7 is_stmt 1 view .LVU131
 360              		.loc 1 718 21 is_stmt 0 view .LVU132
 361 0120 4FF0FF33 		mov	r3, #-1
 362              		.loc 1 717 12 view .LVU133
 363 0124 E068     		ldr	r0, [r4, #12]
 364              	.LVL31:
 365              		.loc 1 718 7 is_stmt 1 view .LVU134
 366              		.loc 1 718 21 is_stmt 0 view .LVU135
 367 0126 E360     		str	r3, [r4, #12]
 368              	.LVL32:
 369              	.L25:
 370              		.loc 1 732 5 is_stmt 1 view .LVU136
 371              		.loc 1 732 29 is_stmt 0 view .LVU137
 372 0128 0023     		movs	r3, #0
 373 012a 2370     		strb	r3, [r4]
 374              	.LVL33:
 375              		.loc 1 735 5 is_stmt 1 view .LVU138
 376 012c FFF7FEFF 		bl	HAL_FLASH_OperationErrorCallback
 377              	.LVL34:
 378              		.loc 1 735 5 is_stmt 0 view .LVU139
 379 0130 C6E7     		b	.L23
 380              	.L40:
 381              		.loc 1 487 7 is_stmt 1 view .LVU140
 382              		.loc 1 487 13 is_stmt 0 view .LVU141
 383 0132 6368     		ldr	r3, [r4, #4]
 384              		.loc 1 487 30 view .LVU142
 385 0134 013B     		subs	r3, r3, #1
 386 0136 6360     		str	r3, [r4, #4]
 387              		.loc 1 490 7 is_stmt 1 view .LVU143
 388              		.loc 1 490 16 is_stmt 0 view .LVU144
 389 0138 6368     		ldr	r3, [r4, #4]
 390              		.loc 1 490 9 view .LVU145
 391 013a 7BB3     		cbz	r3, .L8
 392              		.loc 1 493 9 is_stmt 1 view .LVU146
 393              		.loc 1 493 48 is_stmt 0 view .LVU147
 394 013c E068     		ldr	r0, [r4, #12]
 395              		.loc 1 493 9 view .LVU148
 396 013e FFF7FEFF 		bl	HAL_FLASH_EndOfOperationCallback
 397              	.LVL35:
 398              		.loc 1 496 9 is_stmt 1 view .LVU149
 399 0142 4FF48033 		mov	r3, #65536
ARM GAS  C:\Users\DEVELO~1\AppData\Local\Temp\cc1koBA1.s 			page 8


 400              		.loc 1 501 9 is_stmt 0 view .LVU150
 401 0146 3146     		mov	r1, r6
 402              		.loc 1 496 9 view .LVU151
 403 0148 6B61     		str	r3, [r5, #20]
 404              		.loc 1 499 9 is_stmt 1 view .LVU152
 405              		.loc 1 499 15 is_stmt 0 view .LVU153
 406 014a E368     		ldr	r3, [r4, #12]
 407              		.loc 1 499 22 view .LVU154
 408 014c 0133     		adds	r3, r3, #1
 409 014e E360     		str	r3, [r4, #12]
 410              		.loc 1 500 9 is_stmt 1 view .LVU155
 411              		.loc 1 500 14 is_stmt 0 view .LVU156
 412 0150 E068     		ldr	r0, [r4, #12]
 413              	.LVL36:
 414              		.loc 1 501 9 is_stmt 1 view .LVU157
 415              		.loc 1 501 54 is_stmt 0 view .LVU158
 416 0152 A268     		ldr	r2, [r4, #8]
 417              		.loc 1 501 9 view .LVU159
 418 0154 FFF7FEFF 		bl	FLASH_Erase_Sector
 419              	.LVL37:
 420              		.loc 1 501 9 view .LVU160
 421 0158 6CE7     		b	.L6
 422              	.LVL38:
 423              	.L47:
 424              		.loc 1 728 7 is_stmt 1 view .LVU161
 425              		.loc 1 728 12 is_stmt 0 view .LVU162
 426 015a 2069     		ldr	r0, [r4, #16]
 427              	.LVL39:
 428              		.loc 1 728 12 view .LVU163
 429 015c E4E7     		b	.L25
 430              	.LVL40:
 431              	.L41:
 432              		.loc 1 531 9 is_stmt 1 view .LVU164
 433              		.loc 1 531 48 is_stmt 0 view .LVU165
 434 015e 2069     		ldr	r0, [r4, #16]
 435              		.loc 1 531 9 view .LVU166
 436 0160 FFF7FEFF 		bl	HAL_FLASH_EndOfOperationCallback
 437              	.LVL41:
 438              		.loc 1 536 7 is_stmt 1 view .LVU167
 439              		.loc 1 538 7 view .LVU168
 440              	.L12:
 441              		.loc 1 542 9 view .LVU169
 442              		.loc 1 542 33 is_stmt 0 view .LVU170
 443 0164 0021     		movs	r1, #0
 444              		.loc 1 544 9 view .LVU171
 445 0166 1B4B     		ldr	r3, .L48
 446 0168 4FF48032 		mov	r2, #65536
 447              		.loc 1 542 33 view .LVU172
 448 016c 2170     		strb	r1, [r4]
 449              		.loc 1 544 9 is_stmt 1 view .LVU173
 450 016e 5A61     		str	r2, [r3, #20]
 451 0170 60E7     		b	.L6
 452              	.LVL42:
 453              	.L27:
 454              		.loc 1 647 12 is_stmt 0 view .LVU174
 455 0172 0120     		movs	r0, #1
 456 0174 B9E7     		b	.L22
ARM GAS  C:\Users\DEVELO~1\AppData\Local\Temp\cc1koBA1.s 			page 9


 457              	.LVL43:
 458              	.L43:
 459              		.loc 1 594 9 is_stmt 1 view .LVU175
 460 0176 0220     		movs	r0, #2
 461 0178 FFF7FEFF 		bl	HAL_FLASH_EndOfOperationCallback
 462              	.LVL44:
 463              		.loc 1 605 7 view .LVU176
 464              		.loc 1 607 7 view .LVU177
 465              	.L18:
 466              		.loc 1 611 9 view .LVU178
 467              		.loc 1 611 33 is_stmt 0 view .LVU179
 468 017c 0021     		movs	r1, #0
 469              		.loc 1 613 9 view .LVU180
 470 017e 154B     		ldr	r3, .L48
 471 0180 4FF48032 		mov	r2, #65536
 472              		.loc 1 611 33 view .LVU181
 473 0184 2170     		strb	r1, [r4]
 474              		.loc 1 613 9 is_stmt 1 view .LVU182
 475 0186 C3F81421 		str	r2, [r3, #276]
 476 018a 69E7     		b	.L14
 477              	.LVL45:
 478              	.L29:
 479              		.loc 1 525 9 view .LVU183
 480              		.loc 1 538 9 is_stmt 0 view .LVU184
 481 018c 043D     		subs	r5, r5, #4
 482              	.LVL46:
 483              		.loc 1 525 9 view .LVU185
 484 018e 0120     		movs	r0, #1
 485 0190 FFF7FEFF 		bl	HAL_FLASH_EndOfOperationCallback
 486              	.LVL47:
 487              		.loc 1 536 7 is_stmt 1 view .LVU186
 488              		.loc 1 538 7 view .LVU187
 489              		.loc 1 538 9 is_stmt 0 view .LVU188
 490 0194 022D     		cmp	r5, #2
 491 0196 7FF64DAF 		bls	.L6
 492 019a E3E7     		b	.L12
 493              	.LVL48:
 494              	.L8:
 495              		.loc 1 507 9 is_stmt 1 view .LVU189
 496              		.loc 1 507 23 is_stmt 0 view .LVU190
 497 019c 4FF0FF32 		mov	r2, #-1
 498 01a0 E260     		str	r2, [r4, #12]
 499              		.loc 1 508 9 is_stmt 1 view .LVU191
 500              		.loc 1 508 33 is_stmt 0 view .LVU192
 501 01a2 2370     		strb	r3, [r4]
 502              		.loc 1 511 9 is_stmt 1 view .LVU193
 503              		.loc 1 511 48 is_stmt 0 view .LVU194
 504 01a4 E068     		ldr	r0, [r4, #12]
 505              		.loc 1 511 9 view .LVU195
 506 01a6 FFF7FEFF 		bl	HAL_FLASH_EndOfOperationCallback
 507              	.LVL49:
 508              		.loc 1 514 9 is_stmt 1 view .LVU196
 509 01aa 4FF48033 		mov	r3, #65536
 510 01ae 6B61     		str	r3, [r5, #20]
 511 01b0 40E7     		b	.L6
 512              	.L16:
 513              		.loc 1 576 9 view .LVU197
ARM GAS  C:\Users\DEVELO~1\AppData\Local\Temp\cc1koBA1.s 			page 10


 514              		.loc 1 576 23 is_stmt 0 view .LVU198
 515 01b2 4FF0FF32 		mov	r2, #-1
 516 01b6 E260     		str	r2, [r4, #12]
 517              		.loc 1 577 9 is_stmt 1 view .LVU199
 518              		.loc 1 577 33 is_stmt 0 view .LVU200
 519 01b8 2370     		strb	r3, [r4]
 520              		.loc 1 580 9 is_stmt 1 view .LVU201
 521              		.loc 1 580 48 is_stmt 0 view .LVU202
 522 01ba E068     		ldr	r0, [r4, #12]
 523              		.loc 1 580 9 view .LVU203
 524 01bc FFF7FEFF 		bl	HAL_FLASH_EndOfOperationCallback
 525              	.LVL50:
 526              		.loc 1 583 9 is_stmt 1 view .LVU204
 527 01c0 4FF48033 		mov	r3, #65536
 528 01c4 C5F81431 		str	r3, [r5, #276]
 529 01c8 4AE7     		b	.L14
 530              	.LVL51:
 531              	.L44:
 532              		.loc 1 600 9 view .LVU205
 533              		.loc 1 600 48 is_stmt 0 view .LVU206
 534 01ca 2069     		ldr	r0, [r4, #16]
 535              		.loc 1 600 9 view .LVU207
 536 01cc FFF7FEFF 		bl	HAL_FLASH_EndOfOperationCallback
 537              	.LVL52:
 538              		.loc 1 605 7 is_stmt 1 view .LVU208
 539              		.loc 1 607 7 view .LVU209
 540 01d0 D4E7     		b	.L18
 541              	.L49:
 542 01d2 00BF     		.align	2
 543              	.L48:
 544 01d4 00200052 		.word	1375739904
 545 01d8 00000000 		.word	.LANCHOR0
 546              		.cfi_endproc
 547              	.LFE143:
 548              		.size	HAL_FLASH_IRQHandler, .-HAL_FLASH_IRQHandler
 549              		.section	.text.HAL_FLASH_Unlock,"ax",%progbits
 550              		.align	1
 551              		.p2align 2,,3
 552              		.global	HAL_FLASH_Unlock
 553              		.syntax unified
 554              		.thumb
 555              		.thumb_func
 556              		.type	HAL_FLASH_Unlock, %function
 557              	HAL_FLASH_Unlock:
 558              	.LFB146:
 559              		.loc 1 862 1 view -0
 560              		.cfi_startproc
 561              		@ args = 0, pretend = 0, frame = 0
 562              		@ frame_needed = 0, uses_anonymous_args = 0
 563              		@ link register save eliminated.
 564              		.loc 1 863 3 view .LVU211
 565              		.loc 1 863 6 is_stmt 0 view .LVU212
 566 0000 0F4B     		ldr	r3, .L58
 567 0002 DA68     		ldr	r2, [r3, #12]
 568              		.loc 1 863 5 view .LVU213
 569 0004 D207     		lsls	r2, r2, #31
 570 0006 06D5     		bpl	.L54
ARM GAS  C:\Users\DEVELO~1\AppData\Local\Temp\cc1koBA1.s 			page 11


 571              		.loc 1 866 5 is_stmt 1 view .LVU214
 572 0008 0E49     		ldr	r1, .L58+4
 573              		.loc 1 867 5 is_stmt 0 view .LVU215
 574 000a 0F4A     		ldr	r2, .L58+8
 575              		.loc 1 866 5 view .LVU216
 576 000c 5960     		str	r1, [r3, #4]
 577              		.loc 1 867 5 is_stmt 1 view .LVU217
 578 000e 5A60     		str	r2, [r3, #4]
 579              		.loc 1 870 5 view .LVU218
 580              		.loc 1 870 9 is_stmt 0 view .LVU219
 581 0010 DB68     		ldr	r3, [r3, #12]
 582              		.loc 1 870 8 view .LVU220
 583 0012 DB07     		lsls	r3, r3, #31
 584 0014 11D4     		bmi	.L56
 585              	.L54:
 586              		.loc 1 877 3 is_stmt 1 view .LVU221
 587              		.loc 1 877 6 is_stmt 0 view .LVU222
 588 0016 0A4B     		ldr	r3, .L58
 589 0018 D3F80C01 		ldr	r0, [r3, #268]
 590              		.loc 1 877 5 view .LVU223
 591 001c 10F00100 		ands	r0, r0, #1
 592 0020 0AD0     		beq	.L57
 593              		.loc 1 880 5 is_stmt 1 view .LVU224
 594 0022 0849     		ldr	r1, .L58+4
 595              		.loc 1 881 5 is_stmt 0 view .LVU225
 596 0024 084A     		ldr	r2, .L58+8
 597              		.loc 1 880 5 view .LVU226
 598 0026 C3F80411 		str	r1, [r3, #260]
 599              		.loc 1 881 5 is_stmt 1 view .LVU227
 600 002a C3F80421 		str	r2, [r3, #260]
 601              		.loc 1 884 5 view .LVU228
 602              		.loc 1 884 9 is_stmt 0 view .LVU229
 603 002e D3F80C01 		ldr	r0, [r3, #268]
 604              		.loc 1 884 8 view .LVU230
 605 0032 00F00100 		and	r0, r0, #1
 606 0036 7047     		bx	lr
 607              	.L57:
 608 0038 7047     		bx	lr
 609              	.L56:
 610              		.loc 1 872 14 view .LVU231
 611 003a 0120     		movs	r0, #1
 612              		.loc 1 892 1 view .LVU232
 613 003c 7047     		bx	lr
 614              	.L59:
 615 003e 00BF     		.align	2
 616              	.L58:
 617 0040 00200052 		.word	1375739904
 618 0044 23016745 		.word	1164378403
 619 0048 AB89EFCD 		.word	-839939669
 620              		.cfi_endproc
 621              	.LFE146:
 622              		.size	HAL_FLASH_Unlock, .-HAL_FLASH_Unlock
 623              		.section	.text.HAL_FLASH_Lock,"ax",%progbits
 624              		.align	1
 625              		.p2align 2,,3
 626              		.global	HAL_FLASH_Lock
 627              		.syntax unified
ARM GAS  C:\Users\DEVELO~1\AppData\Local\Temp\cc1koBA1.s 			page 12


 628              		.thumb
 629              		.thumb_func
 630              		.type	HAL_FLASH_Lock, %function
 631              	HAL_FLASH_Lock:
 632              	.LFB147:
 633              		.loc 1 899 1 is_stmt 1 view -0
 634              		.cfi_startproc
 635              		@ args = 0, pretend = 0, frame = 0
 636              		@ frame_needed = 0, uses_anonymous_args = 0
 637              		@ link register save eliminated.
 638              		.loc 1 901 3 view .LVU234
 639 0000 0A4B     		ldr	r3, .L63
 640 0002 DA68     		ldr	r2, [r3, #12]
 641 0004 42F00102 		orr	r2, r2, #1
 642 0008 DA60     		str	r2, [r3, #12]
 643              		.loc 1 904 3 view .LVU235
 644              		.loc 1 904 7 is_stmt 0 view .LVU236
 645 000a DA68     		ldr	r2, [r3, #12]
 646              		.loc 1 904 6 view .LVU237
 647 000c D207     		lsls	r2, r2, #31
 648 000e 0BD5     		bpl	.L62
 649              		.loc 1 911 3 is_stmt 1 view .LVU238
 650 0010 D3F80C21 		ldr	r2, [r3, #268]
 651 0014 42F00102 		orr	r2, r2, #1
 652 0018 C3F80C21 		str	r2, [r3, #268]
 653              		.loc 1 914 3 view .LVU239
 654              		.loc 1 914 7 is_stmt 0 view .LVU240
 655 001c D3F80C01 		ldr	r0, [r3, #268]
 656              		.loc 1 914 6 view .LVU241
 657 0020 C043     		mvns	r0, r0
 658 0022 00F00100 		and	r0, r0, #1
 659 0026 7047     		bx	lr
 660              	.L62:
 661              		.loc 1 906 12 view .LVU242
 662 0028 0120     		movs	r0, #1
 663              		.loc 1 921 1 view .LVU243
 664 002a 7047     		bx	lr
 665              	.L64:
 666              		.align	2
 667              	.L63:
 668 002c 00200052 		.word	1375739904
 669              		.cfi_endproc
 670              	.LFE147:
 671              		.size	HAL_FLASH_Lock, .-HAL_FLASH_Lock
 672              		.section	.text.HAL_FLASH_OB_Unlock,"ax",%progbits
 673              		.align	1
 674              		.p2align 2,,3
 675              		.global	HAL_FLASH_OB_Unlock
 676              		.syntax unified
 677              		.thumb
 678              		.thumb_func
 679              		.type	HAL_FLASH_OB_Unlock, %function
 680              	HAL_FLASH_OB_Unlock:
 681              	.LFB148:
 682              		.loc 1 928 1 is_stmt 1 view -0
 683              		.cfi_startproc
 684              		@ args = 0, pretend = 0, frame = 0
ARM GAS  C:\Users\DEVELO~1\AppData\Local\Temp\cc1koBA1.s 			page 13


 685              		@ frame_needed = 0, uses_anonymous_args = 0
 686              		@ link register save eliminated.
 687              		.loc 1 929 3 view .LVU245
 688              		.loc 1 929 6 is_stmt 0 view .LVU246
 689 0000 064B     		ldr	r3, .L68
 690 0002 9869     		ldr	r0, [r3, #24]
 691              		.loc 1 929 5 view .LVU247
 692 0004 10F00100 		ands	r0, r0, #1
 693 0008 06D0     		beq	.L66
 694              		.loc 1 932 5 is_stmt 1 view .LVU248
 695 000a 0549     		ldr	r1, .L68+4
 696              		.loc 1 933 5 is_stmt 0 view .LVU249
 697 000c 054A     		ldr	r2, .L68+8
 698              		.loc 1 932 5 view .LVU250
 699 000e 9960     		str	r1, [r3, #8]
 700              		.loc 1 933 5 is_stmt 1 view .LVU251
 701 0010 9A60     		str	r2, [r3, #8]
 702              		.loc 1 936 5 view .LVU252
 703              		.loc 1 936 9 is_stmt 0 view .LVU253
 704 0012 9869     		ldr	r0, [r3, #24]
 705              		.loc 1 936 8 view .LVU254
 706 0014 00F00100 		and	r0, r0, #1
 707              	.L66:
 708              		.loc 1 943 1 view .LVU255
 709 0018 7047     		bx	lr
 710              	.L69:
 711 001a 00BF     		.align	2
 712              	.L68:
 713 001c 00200052 		.word	1375739904
 714 0020 3B2A1908 		.word	135866939
 715 0024 7F6E5D4C 		.word	1281191551
 716              		.cfi_endproc
 717              	.LFE148:
 718              		.size	HAL_FLASH_OB_Unlock, .-HAL_FLASH_OB_Unlock
 719              		.section	.text.HAL_FLASH_OB_Lock,"ax",%progbits
 720              		.align	1
 721              		.p2align 2,,3
 722              		.global	HAL_FLASH_OB_Lock
 723              		.syntax unified
 724              		.thumb
 725              		.thumb_func
 726              		.type	HAL_FLASH_OB_Lock, %function
 727              	HAL_FLASH_OB_Lock:
 728              	.LFB149:
 729              		.loc 1 950 1 is_stmt 1 view -0
 730              		.cfi_startproc
 731              		@ args = 0, pretend = 0, frame = 0
 732              		@ frame_needed = 0, uses_anonymous_args = 0
 733              		@ link register save eliminated.
 734              		.loc 1 952 3 view .LVU257
 735 0000 044B     		ldr	r3, .L71
 736 0002 9A69     		ldr	r2, [r3, #24]
 737 0004 42F00102 		orr	r2, r2, #1
 738 0008 9A61     		str	r2, [r3, #24]
 739              		.loc 1 955 3 view .LVU258
 740              		.loc 1 955 7 is_stmt 0 view .LVU259
 741 000a 9869     		ldr	r0, [r3, #24]
ARM GAS  C:\Users\DEVELO~1\AppData\Local\Temp\cc1koBA1.s 			page 14


 742              		.loc 1 955 6 view .LVU260
 743 000c C043     		mvns	r0, r0
 744              		.loc 1 961 1 view .LVU261
 745 000e 00F00100 		and	r0, r0, #1
 746 0012 7047     		bx	lr
 747              	.L72:
 748              		.align	2
 749              	.L71:
 750 0014 00200052 		.word	1375739904
 751              		.cfi_endproc
 752              	.LFE149:
 753              		.size	HAL_FLASH_OB_Lock, .-HAL_FLASH_OB_Lock
 754              		.section	.text.HAL_FLASH_GetError,"ax",%progbits
 755              		.align	1
 756              		.p2align 2,,3
 757              		.global	HAL_FLASH_GetError
 758              		.syntax unified
 759              		.thumb
 760              		.thumb_func
 761              		.type	HAL_FLASH_GetError, %function
 762              	HAL_FLASH_GetError:
 763              	.LFB151:
 764              		.loc 1 1046 1 is_stmt 1 view -0
 765              		.cfi_startproc
 766              		@ args = 0, pretend = 0, frame = 0
 767              		@ frame_needed = 0, uses_anonymous_args = 0
 768              		@ link register save eliminated.
 769              		.loc 1 1047 4 view .LVU263
 770              		.loc 1 1047 17 is_stmt 0 view .LVU264
 771 0000 014B     		ldr	r3, .L74
 772 0002 9869     		ldr	r0, [r3, #24]
 773              		.loc 1 1048 1 view .LVU265
 774 0004 7047     		bx	lr
 775              	.L75:
 776 0006 00BF     		.align	2
 777              	.L74:
 778 0008 00000000 		.word	.LANCHOR0
 779              		.cfi_endproc
 780              	.LFE151:
 781              		.size	HAL_FLASH_GetError, .-HAL_FLASH_GetError
 782              		.section	.text.FLASH_WaitForLastOperation,"ax",%progbits
 783              		.align	1
 784              		.p2align 2,,3
 785              		.global	FLASH_WaitForLastOperation
 786              		.syntax unified
 787              		.thumb
 788              		.thumb_func
 789              		.type	FLASH_WaitForLastOperation, %function
 790              	FLASH_WaitForLastOperation:
 791              	.LVL53:
 792              	.LFB152:
 793              		.loc 1 1071 1 is_stmt 1 view -0
 794              		.cfi_startproc
 795              		@ args = 0, pretend = 0, frame = 0
 796              		@ frame_needed = 0, uses_anonymous_args = 0
 797              		.loc 1 1076 3 view .LVU267
 798              		.loc 1 1077 3 view .LVU268
ARM GAS  C:\Users\DEVELO~1\AppData\Local\Temp\cc1koBA1.s 			page 15


 799              		.loc 1 1078 3 view .LVU269
 800              		.loc 1 1071 1 is_stmt 0 view .LVU270
 801 0000 2DE9F041 		push	{r4, r5, r6, r7, r8, lr}
 802              		.cfi_def_cfa_offset 24
 803              		.cfi_offset 4, -24
 804              		.cfi_offset 5, -20
 805              		.cfi_offset 6, -16
 806              		.cfi_offset 7, -12
 807              		.cfi_offset 8, -8
 808              		.cfi_offset 14, -4
 809              		.loc 1 1071 1 view .LVU271
 810 0004 0F46     		mov	r7, r1
 811 0006 0446     		mov	r4, r0
 812              		.loc 1 1078 24 view .LVU272
 813 0008 FFF7FEFF 		bl	HAL_GetTick
 814              	.LVL54:
 815              		.loc 1 1078 24 view .LVU273
 816 000c 8046     		mov	r8, r0
 817              	.LVL55:
 818              		.loc 1 1080 3 is_stmt 1 view .LVU274
 819              		.loc 1 1080 16 is_stmt 0 view .LVU275
 820 000e 7B1E     		subs	r3, r7, #1
 821              		.loc 1 1087 13 view .LVU276
 822 0010 2B4D     		ldr	r5, .L106
 823              		.loc 1 1091 9 view .LVU277
 824 0012 2C4E     		ldr	r6, .L106+4
 825              		.loc 1 1080 3 view .LVU278
 826 0014 012B     		cmp	r3, #1
 827 0016 8CBF     		ite	hi
 828 0018 0020     		movhi	r0, #0
 829              	.LVL56:
 830              		.loc 1 1080 3 view .LVU279
 831 001a 0120     		movls	r0, #1
 832 001c FFF7FEFF 		bl	assert_param
 833              	.LVL57:
 834              		.loc 1 1084 3 is_stmt 1 view .LVU280
 835              		.loc 1 1087 13 is_stmt 0 view .LVU281
 836 0020 022F     		cmp	r7, #2
 837 0022 18BF     		it	ne
 838 0024 0425     		movne	r5, #4
 839              	.LVL58:
 840              		.loc 1 1087 13 view .LVU282
 841 0026 05E0     		b	.L78
 842              	.LVL59:
 843              	.L81:
 844              		.loc 1 1091 9 discriminator 2 view .LVU283
 845 0028 D6F81031 		ldr	r3, [r6, #272]
 846 002c 5B07     		lsls	r3, r3, #29
 847 002e 06D5     		bpl	.L83
 848              	.L82:
 849              		.loc 1 1093 7 view .LVU284
 850 0030 611C     		adds	r1, r4, #1
 851 0032 18D1     		bne	.L102
 852              	.LVL60:
 853              	.L78:
 854              		.loc 1 1093 5 is_stmt 1 view .LVU285
 855              		.loc 1 1091 9 view .LVU286
ARM GAS  C:\Users\DEVELO~1\AppData\Local\Temp\cc1koBA1.s 			page 16


 856 0034 042D     		cmp	r5, #4
 857 0036 F7D1     		bne	.L81
 858              		.loc 1 1091 9 is_stmt 0 discriminator 1 view .LVU287
 859 0038 3369     		ldr	r3, [r6, #16]
 860 003a 5A07     		lsls	r2, r3, #29
 861 003c F8D4     		bmi	.L82
 862              	.L83:
 863              		.loc 1 1103 3 is_stmt 1 view .LVU288
 864              		.loc 1 1103 6 is_stmt 0 view .LVU289
 865 003e 012F     		cmp	r7, #1
 866 0040 26D0     		beq	.L103
 867              		.loc 1 1110 5 is_stmt 1 view .LVU290
 868              		.loc 1 1110 23 is_stmt 0 view .LVU291
 869 0042 204A     		ldr	r2, .L106+4
 870              		.loc 1 1110 60 view .LVU292
 871 0044 2049     		ldr	r1, .L106+8
 872              		.loc 1 1110 23 view .LVU293
 873 0046 D2F81031 		ldr	r3, [r2, #272]
 874              	.LVL61:
 875              		.loc 1 1115 3 is_stmt 1 view .LVU294
 876              		.loc 1 1115 5 is_stmt 0 view .LVU295
 877 004a 0B40     		ands	r3, r3, r1
 878              	.LVL62:
 879              		.loc 1 1115 5 view .LVU296
 880 004c 15D1     		bne	.L104
 881              		.loc 1 1138 5 is_stmt 1 view .LVU297
 882              		.loc 1 1138 9 is_stmt 0 view .LVU298
 883 004e D2F81001 		ldr	r0, [r2, #272]
 884              		.loc 1 1138 8 view .LVU299
 885 0052 10F48030 		ands	r0, r0, #65536
 886 0056 04D0     		beq	.L100
 887              		.loc 1 1141 7 is_stmt 1 view .LVU300
 888 0058 4FF48031 		mov	r1, #65536
 889              		.loc 1 1146 10 is_stmt 0 view .LVU301
 890 005c 1846     		mov	r0, r3
 891              		.loc 1 1141 7 view .LVU302
 892 005e C2F81411 		str	r1, [r2, #276]
 893              	.LVL63:
 894              	.L100:
 895              		.loc 1 1147 1 view .LVU303
 896 0062 BDE8F081 		pop	{r4, r5, r6, r7, r8, pc}
 897              	.LVL64:
 898              	.L102:
 899              		.loc 1 1095 7 is_stmt 1 view .LVU304
 900              		.loc 1 1095 12 is_stmt 0 view .LVU305
 901 0066 FFF7FEFF 		bl	HAL_GetTick
 902              	.LVL65:
 903              		.loc 1 1095 26 view .LVU306
 904 006a A0EB0800 		sub	r0, r0, r8
 905              		.loc 1 1095 50 view .LVU307
 906 006e A042     		cmp	r0, r4
 907 0070 01D8     		bhi	.L90
 908 0072 002C     		cmp	r4, #0
 909 0074 DED1     		bne	.L78
 910              	.L90:
 911              		.loc 1 1097 16 view .LVU308
 912 0076 0320     		movs	r0, #3
ARM GAS  C:\Users\DEVELO~1\AppData\Local\Temp\cc1koBA1.s 			page 17


 913 0078 F3E7     		b	.L100
 914              	.LVL66:
 915              	.L104:
 916              		.loc 1 1118 5 is_stmt 1 view .LVU309
 917              		.loc 1 1118 22 is_stmt 0 view .LVU310
 918 007a 144C     		ldr	r4, .L106+12
 919              	.LVL67:
 920              		.loc 1 1123 12 view .LVU311
 921 007c 0120     		movs	r0, #1
 922              		.loc 1 1118 22 view .LVU312
 923 007e A169     		ldr	r1, [r4, #24]
 924 0080 1943     		orrs	r1, r1, r3
 925 0082 41F00041 		orr	r1, r1, #-2147483648
 926 0086 A161     		str	r1, [r4, #24]
 927              		.loc 1 1121 5 is_stmt 1 view .LVU313
 928 0088 C2F81431 		str	r3, [r2, #276]
 929              		.loc 1 1147 1 is_stmt 0 view .LVU314
 930 008c BDE8F081 		pop	{r4, r5, r6, r7, r8, pc}
 931              	.LVL68:
 932              	.L103:
 933              		.loc 1 1105 5 is_stmt 1 view .LVU315
 934              		.loc 1 1105 22 is_stmt 0 view .LVU316
 935 0090 0C49     		ldr	r1, .L106+4
 936              		.loc 1 1105 15 view .LVU317
 937 0092 0D4A     		ldr	r2, .L106+8
 938              		.loc 1 1105 22 view .LVU318
 939 0094 0B69     		ldr	r3, [r1, #16]
 940              	.LVL69:
 941              		.loc 1 1115 3 is_stmt 1 view .LVU319
 942              		.loc 1 1115 5 is_stmt 0 view .LVU320
 943 0096 1A40     		ands	r2, r3, r2
 944              	.LVL70:
 945              		.loc 1 1115 5 view .LVU321
 946 0098 09D1     		bne	.L105
 947              		.loc 1 1129 5 is_stmt 1 view .LVU322
 948              		.loc 1 1129 9 is_stmt 0 view .LVU323
 949 009a 0869     		ldr	r0, [r1, #16]
 950              		.loc 1 1129 8 view .LVU324
 951 009c 10F48030 		ands	r0, r0, #65536
 952 00a0 DFD0     		beq	.L100
 953              		.loc 1 1132 7 is_stmt 1 view .LVU325
 954 00a2 4FF48033 		mov	r3, #65536
 955              		.loc 1 1146 10 is_stmt 0 view .LVU326
 956 00a6 1046     		mov	r0, r2
 957              		.loc 1 1132 7 view .LVU327
 958 00a8 4B61     		str	r3, [r1, #20]
 959              		.loc 1 1147 1 view .LVU328
 960 00aa BDE8F081 		pop	{r4, r5, r6, r7, r8, pc}
 961              	.LVL71:
 962              	.L105:
 963              		.loc 1 1118 5 is_stmt 1 view .LVU329
 964              		.loc 1 1118 22 is_stmt 0 view .LVU330
 965 00ae 074C     		ldr	r4, .L106+12
 966              	.LVL72:
 967              		.loc 1 1123 12 view .LVU331
 968 00b0 3846     		mov	r0, r7
 969              		.loc 1 1118 22 view .LVU332
ARM GAS  C:\Users\DEVELO~1\AppData\Local\Temp\cc1koBA1.s 			page 18


 970 00b2 A369     		ldr	r3, [r4, #24]
 971 00b4 1343     		orrs	r3, r3, r2
 972 00b6 A361     		str	r3, [r4, #24]
 973              		.loc 1 1121 5 is_stmt 1 view .LVU333
 974 00b8 4A61     		str	r2, [r1, #20]
 975              		.loc 1 1147 1 is_stmt 0 view .LVU334
 976 00ba BDE8F081 		pop	{r4, r5, r6, r7, r8, pc}
 977              	.LVL73:
 978              	.L107:
 979              		.loc 1 1147 1 view .LVU335
 980 00be 00BF     		.align	2
 981              	.L106:
 982 00c0 04000080 		.word	-2147483644
 983 00c4 00200052 		.word	1375739904
 984 00c8 0000EE17 		.word	401473536
 985 00cc 00000000 		.word	.LANCHOR0
 986              		.cfi_endproc
 987              	.LFE152:
 988              		.size	FLASH_WaitForLastOperation, .-FLASH_WaitForLastOperation
 989              		.section	.text.HAL_FLASH_Program,"ax",%progbits
 990              		.align	1
 991              		.p2align 2,,3
 992              		.global	HAL_FLASH_Program
 993              		.syntax unified
 994              		.thumb
 995              		.thumb_func
 996              		.type	HAL_FLASH_Program, %function
 997              	HAL_FLASH_Program:
 998              	.LVL74:
 999              	.LFB141:
 1000              		.loc 1 155 1 is_stmt 1 view -0
 1001              		.cfi_startproc
 1002              		@ args = 0, pretend = 0, frame = 0
 1003              		@ frame_needed = 0, uses_anonymous_args = 0
 1004              		.loc 1 163 3 is_stmt 0 view .LVU337
 1005 0000 A0F10100 		sub	r0, #1
 1006              	.LVL75:
 1007              		.loc 1 155 1 view .LVU338
 1008 0004 2DE9F041 		push	{r4, r5, r6, r7, r8, lr}
 1009              		.cfi_def_cfa_offset 24
 1010              		.cfi_offset 4, -24
 1011              		.cfi_offset 5, -20
 1012              		.cfi_offset 6, -16
 1013              		.cfi_offset 7, -12
 1014              		.cfi_offset 8, -8
 1015              		.cfi_offset 14, -4
 1016              		.loc 1 155 1 view .LVU339
 1017 0008 0D46     		mov	r5, r1
 1018              		.loc 1 156 3 is_stmt 1 view .LVU340
 1019              		.loc 1 157 3 view .LVU341
 1020              	.LVL76:
 1021              		.loc 1 158 3 view .LVU342
 1022              		.loc 1 159 3 view .LVU343
 1023              		.loc 1 160 3 view .LVU344
 1024              		.loc 1 163 3 view .LVU345
 1025 000a B0FA80F0 		clz	r0, r0
 1026              	.LVL77:
ARM GAS  C:\Users\DEVELO~1\AppData\Local\Temp\cc1koBA1.s 			page 19


 1027              		.loc 1 155 1 is_stmt 0 view .LVU346
 1028 000e 1446     		mov	r4, r2
 1029              		.loc 1 167 3 view .LVU347
 1030 0010 334E     		ldr	r6, .L123
 1031              		.loc 1 164 16 view .LVU348
 1032 0012 05F17848 		add	r8, r5, #-134217728
 1033              		.loc 1 163 3 view .LVU349
 1034 0016 4009     		lsrs	r0, r0, #5
 1035 0018 FFF7FEFF 		bl	assert_param
 1036              	.LVL78:
 1037              		.loc 1 164 3 is_stmt 1 view .LVU350
 1038 001c B8F5001F 		cmp	r8, #2097152
 1039 0020 2CBF     		ite	cs
 1040 0022 0020     		movcs	r0, #0
 1041 0024 0120     		movcc	r0, #1
 1042 0026 FFF7FEFF 		bl	assert_param
 1043              	.LVL79:
 1044              		.loc 1 167 3 view .LVU351
 1045              		.loc 1 167 3 view .LVU352
 1046 002a 337D     		ldrb	r3, [r6, #20]	@ zero_extendqisi2
 1047 002c 012B     		cmp	r3, #1
 1048 002e 4ED0     		beq	.L117
 1049              		.loc 1 167 3 discriminator 2 view .LVU353
 1050 0030 0127     		movs	r7, #1
 1051              		.loc 1 172 5 is_stmt 0 discriminator 2 view .LVU354
 1052 0032 B8F5801F 		cmp	r8, #1048576
 1053              		.loc 1 167 3 discriminator 2 view .LVU355
 1054 0036 3775     		strb	r7, [r6, #20]
 1055              		.loc 1 167 3 is_stmt 1 discriminator 2 view .LVU356
 1056              		.loc 1 172 3 discriminator 2 view .LVU357
 1057              		.loc 1 172 5 is_stmt 0 discriminator 2 view .LVU358
 1058 0038 37D3     		bcc	.L121
 1059              		.loc 1 180 8 is_stmt 1 view .LVU359
 1060              		.loc 1 180 11 is_stmt 0 view .LVU360
 1061 003a A5F10163 		sub	r3, r5, #135266304
 1062              		.loc 1 180 10 view .LVU361
 1063 003e B3F5801F 		cmp	r3, #1048576
 1064 0042 41D2     		bcs	.L118
 1065              	.LVL80:
 1066              		.loc 1 191 3 is_stmt 1 view .LVU362
 1067              		.loc 1 191 20 is_stmt 0 view .LVU363
 1068 0044 0023     		movs	r3, #0
 1069              		.loc 1 194 12 view .LVU364
 1070 0046 0221     		movs	r1, #2
 1071 0048 4CF25030 		movw	r0, #50000
 1072              		.loc 1 191 20 view .LVU365
 1073 004c B361     		str	r3, [r6, #24]
 1074              		.loc 1 194 3 is_stmt 1 view .LVU366
 1075              		.loc 1 194 12 is_stmt 0 view .LVU367
 1076 004e FFF7FEFF 		bl	FLASH_WaitForLastOperation
 1077              	.LVL81:
 1078              		.loc 1 196 3 is_stmt 1 view .LVU368
 1079              		.loc 1 196 5 is_stmt 0 view .LVU369
 1080 0052 30BB     		cbnz	r0, .L112
 1081              		.loc 1 199 5 is_stmt 1 view .LVU370
 1082              		.loc 1 217 7 view .LVU371
 1083 0054 234A     		ldr	r2, .L123+4
ARM GAS  C:\Users\DEVELO~1\AppData\Local\Temp\cc1koBA1.s 			page 20


 1084              		.loc 1 182 10 is_stmt 0 view .LVU372
 1085 0056 0227     		movs	r7, #2
 1086              		.loc 1 217 7 view .LVU373
 1087 0058 D2F80C31 		ldr	r3, [r2, #268]
 1088 005c 43F00203 		orr	r3, r3, #2
 1089 0060 C2F80C31 		str	r3, [r2, #268]
 1090              	.LVL82:
 1091              	.L114:
 1092              		.loc 1 158 18 view .LVU374
 1093 0064 2246     		mov	r2, r4
 1094              		.loc 1 234 5 is_stmt 1 view .LVU375
 1095              	.LBB18:
 1096              	.LBI18:
 1097              		.file 2 "../../../os/common/ext/ARM/CMSIS/Core/Include/cmsis_gcc.h"
 1098              		.loc 2 866 27 view .LVU376
 1099              	.LBB19:
 1100              		.loc 2 868 3 view .LVU377
 1101              		.syntax unified
 1102              	@ 868 "../../../os/common/ext/ARM/CMSIS/Core/Include/cmsis_gcc.h" 1
 1103 0066 BFF36F8F 		isb 0xF
 1104              	@ 0 "" 2
 1105              		.thumb
 1106              		.syntax unified
 1107              	.LBE19:
 1108              	.LBE18:
 1109              		.loc 1 235 5 view .LVU378
 1110              	.LBB20:
 1111              	.LBI20:
 1112              		.loc 2 877 27 view .LVU379
 1113              	.LBB21:
 1114              		.loc 2 879 3 view .LVU380
 1115              		.syntax unified
 1116              	@ 879 "../../../os/common/ext/ARM/CMSIS/Core/Include/cmsis_gcc.h" 1
 1117 006a BFF34F8F 		dsb 0xF
 1118              	@ 0 "" 2
 1119              		.thumb
 1120              		.syntax unified
 1121 006e 04F12000 		add	r0, r4, #32
 1122              	.LVL83:
 1123              		.loc 2 879 3 is_stmt 0 view .LVU381
 1124 0072 291B     		subs	r1, r5, r4
 1125              	.LVL84:
 1126              	.L115:
 1127              		.loc 2 879 3 view .LVU382
 1128              	.LBE21:
 1129              	.LBE20:
 1130              		.loc 1 247 7 is_stmt 1 discriminator 1 view .LVU383
 1131              		.loc 1 249 9 discriminator 1 view .LVU384
 1132              		.loc 1 249 22 is_stmt 0 discriminator 1 view .LVU385
 1133 0074 1368     		ldr	r3, [r2]
 1134              		.loc 1 249 20 discriminator 1 view .LVU386
 1135 0076 5350     		str	r3, [r2, r1]
 1136              		.loc 1 250 9 is_stmt 1 discriminator 1 view .LVU387
 1137              	.LVL85:
 1138              		.loc 1 251 9 discriminator 1 view .LVU388
 1139              		.loc 1 251 17 is_stmt 0 discriminator 1 view .LVU389
 1140 0078 0432     		adds	r2, r2, #4
ARM GAS  C:\Users\DEVELO~1\AppData\Local\Temp\cc1koBA1.s 			page 21


 1141              	.LVL86:
 1142              		.loc 1 252 9 is_stmt 1 discriminator 1 view .LVU390
 1143              		.loc 1 253 25 discriminator 1 view .LVU391
 1144 007a 8242     		cmp	r2, r0
 1145 007c FAD1     		bne	.L115
 1146              		.loc 1 256 5 view .LVU392
 1147              	.LBB22:
 1148              	.LBI22:
 1149              		.loc 2 866 27 view .LVU393
 1150              	.LBB23:
 1151              		.loc 2 868 3 view .LVU394
 1152              		.syntax unified
 1153              	@ 868 "../../../os/common/ext/ARM/CMSIS/Core/Include/cmsis_gcc.h" 1
 1154 007e BFF36F8F 		isb 0xF
 1155              	@ 0 "" 2
 1156              		.thumb
 1157              		.syntax unified
 1158              	.LBE23:
 1159              	.LBE22:
 1160              		.loc 1 257 5 view .LVU395
 1161              	.LBB24:
 1162              	.LBI24:
 1163              		.loc 2 877 27 view .LVU396
 1164              	.LBB25:
 1165              		.loc 2 879 3 view .LVU397
 1166              		.syntax unified
 1167              	@ 879 "../../../os/common/ext/ARM/CMSIS/Core/Include/cmsis_gcc.h" 1
 1168 0082 BFF34F8F 		dsb 0xF
 1169              	@ 0 "" 2
 1170              		.thumb
 1171              		.syntax unified
 1172              	.LBE25:
 1173              	.LBE24:
 1174              		.loc 1 260 5 view .LVU398
 1175              		.loc 1 260 14 is_stmt 0 view .LVU399
 1176 0086 4CF25030 		movw	r0, #50000
 1177 008a 3946     		mov	r1, r7
 1178 008c FFF7FEFF 		bl	FLASH_WaitForLastOperation
 1179              	.LVL87:
 1180              		.loc 1 272 7 is_stmt 1 view .LVU400
 1181              		.loc 1 272 9 is_stmt 0 view .LVU401
 1182 0090 012F     		cmp	r7, #1
 1183              		.loc 1 275 9 view .LVU402
 1184 0092 144A     		ldr	r2, .L123+4
 1185              		.loc 1 272 9 view .LVU403
 1186 0094 1ED0     		beq	.L122
 1187              		.loc 1 280 9 is_stmt 1 view .LVU404
 1188 0096 D2F80C31 		ldr	r3, [r2, #268]
 1189 009a 23F00203 		bic	r3, r3, #2
 1190 009e C2F80C31 		str	r3, [r2, #268]
 1191              	.L112:
 1192              		.loc 1 300 3 view .LVU405
 1193              		.loc 1 300 3 view .LVU406
 1194 00a2 0023     		movs	r3, #0
 1195 00a4 3375     		strb	r3, [r6, #20]
 1196              		.loc 1 300 3 view .LVU407
 1197              		.loc 1 302 3 view .LVU408
ARM GAS  C:\Users\DEVELO~1\AppData\Local\Temp\cc1koBA1.s 			page 22


 1198              		.loc 1 303 1 is_stmt 0 view .LVU409
 1199 00a6 BDE8F081 		pop	{r4, r5, r6, r7, r8, pc}
 1200              	.LVL88:
 1201              	.L121:
 1202              		.loc 1 191 3 is_stmt 1 view .LVU410
 1203              		.loc 1 191 20 is_stmt 0 view .LVU411
 1204 00aa 0023     		movs	r3, #0
 1205              		.loc 1 194 12 view .LVU412
 1206 00ac 3946     		mov	r1, r7
 1207 00ae 4CF25030 		movw	r0, #50000
 1208              		.loc 1 191 20 view .LVU413
 1209 00b2 B361     		str	r3, [r6, #24]
 1210              		.loc 1 194 3 is_stmt 1 view .LVU414
 1211              		.loc 1 194 12 is_stmt 0 view .LVU415
 1212 00b4 FFF7FEFF 		bl	FLASH_WaitForLastOperation
 1213              	.LVL89:
 1214              		.loc 1 196 3 is_stmt 1 view .LVU416
 1215              		.loc 1 196 5 is_stmt 0 view .LVU417
 1216 00b8 0028     		cmp	r0, #0
 1217 00ba F2D1     		bne	.L112
 1218              		.loc 1 199 5 is_stmt 1 view .LVU418
 1219              		.loc 1 211 9 view .LVU419
 1220 00bc 094A     		ldr	r2, .L123+4
 1221 00be D368     		ldr	r3, [r2, #12]
 1222 00c0 43F00203 		orr	r3, r3, #2
 1223 00c4 D360     		str	r3, [r2, #12]
 1224 00c6 CDE7     		b	.L114
 1225              	.LVL90:
 1226              	.L118:
 1227              		.loc 1 187 12 is_stmt 0 view .LVU420
 1228 00c8 3846     		mov	r0, r7
 1229              		.loc 1 303 1 view .LVU421
 1230 00ca BDE8F081 		pop	{r4, r5, r6, r7, r8, pc}
 1231              	.LVL91:
 1232              	.L117:
 1233              		.loc 1 167 3 view .LVU422
 1234 00ce 0220     		movs	r0, #2
 1235              		.loc 1 303 1 view .LVU423
 1236 00d0 BDE8F081 		pop	{r4, r5, r6, r7, r8, pc}
 1237              	.LVL92:
 1238              	.L122:
 1239              		.loc 1 275 9 is_stmt 1 view .LVU424
 1240 00d4 D368     		ldr	r3, [r2, #12]
 1241 00d6 23F00203 		bic	r3, r3, #2
 1242 00da D360     		str	r3, [r2, #12]
 1243 00dc E1E7     		b	.L112
 1244              	.L124:
 1245 00de 00BF     		.align	2
 1246              	.L123:
 1247 00e0 00000000 		.word	.LANCHOR0
 1248 00e4 00200052 		.word	1375739904
 1249              		.cfi_endproc
 1250              	.LFE141:
 1251              		.size	HAL_FLASH_Program, .-HAL_FLASH_Program
 1252              		.section	.text.HAL_FLASH_Program_IT,"ax",%progbits
 1253              		.align	1
 1254              		.p2align 2,,3
ARM GAS  C:\Users\DEVELO~1\AppData\Local\Temp\cc1koBA1.s 			page 23


 1255              		.global	HAL_FLASH_Program_IT
 1256              		.syntax unified
 1257              		.thumb
 1258              		.thumb_func
 1259              		.type	HAL_FLASH_Program_IT, %function
 1260              	HAL_FLASH_Program_IT:
 1261              	.LVL93:
 1262              	.LFB142:
 1263              		.loc 1 320 1 view -0
 1264              		.cfi_startproc
 1265              		@ args = 0, pretend = 0, frame = 0
 1266              		@ frame_needed = 0, uses_anonymous_args = 0
 1267              		.loc 1 328 3 is_stmt 0 view .LVU426
 1268 0000 A0F10100 		sub	r0, #1
 1269              	.LVL94:
 1270              		.loc 1 320 1 view .LVU427
 1271 0004 F8B5     		push	{r3, r4, r5, r6, r7, lr}
 1272              		.cfi_def_cfa_offset 24
 1273              		.cfi_offset 3, -24
 1274              		.cfi_offset 4, -20
 1275              		.cfi_offset 5, -16
 1276              		.cfi_offset 6, -12
 1277              		.cfi_offset 7, -8
 1278              		.cfi_offset 14, -4
 1279              		.loc 1 320 1 view .LVU428
 1280 0006 0D46     		mov	r5, r1
 1281              		.loc 1 321 3 is_stmt 1 view .LVU429
 1282              		.loc 1 322 3 view .LVU430
 1283              	.LVL95:
 1284              		.loc 1 323 3 view .LVU431
 1285              		.loc 1 324 3 view .LVU432
 1286              		.loc 1 325 3 view .LVU433
 1287              		.loc 1 328 3 view .LVU434
 1288 0008 B0FA80F0 		clz	r0, r0
 1289              	.LVL96:
 1290              		.loc 1 320 1 is_stmt 0 view .LVU435
 1291 000c 1446     		mov	r4, r2
 1292              		.loc 1 332 3 view .LVU436
 1293 000e 2F4E     		ldr	r6, .L137
 1294              		.loc 1 329 16 view .LVU437
 1295 0010 05F17847 		add	r7, r5, #-134217728
 1296              		.loc 1 328 3 view .LVU438
 1297 0014 4009     		lsrs	r0, r0, #5
 1298 0016 FFF7FEFF 		bl	assert_param
 1299              	.LVL97:
 1300              		.loc 1 329 3 is_stmt 1 view .LVU439
 1301 001a B7F5001F 		cmp	r7, #2097152
 1302 001e 2CBF     		ite	cs
 1303 0020 0020     		movcs	r0, #0
 1304 0022 0120     		movcc	r0, #1
 1305 0024 FFF7FEFF 		bl	assert_param
 1306              	.LVL98:
 1307              		.loc 1 332 3 view .LVU440
 1308              		.loc 1 332 3 view .LVU441
 1309 0028 337D     		ldrb	r3, [r6, #20]	@ zero_extendqisi2
 1310 002a 012B     		cmp	r3, #1
 1311 002c 4BD0     		beq	.L131
ARM GAS  C:\Users\DEVELO~1\AppData\Local\Temp\cc1koBA1.s 			page 24


 1312              		.loc 1 332 3 discriminator 2 view .LVU442
 1313 002e 0121     		movs	r1, #1
 1314              		.loc 1 335 20 is_stmt 0 discriminator 2 view .LVU443
 1315 0030 0023     		movs	r3, #0
 1316              		.loc 1 340 5 discriminator 2 view .LVU444
 1317 0032 B7F5801F 		cmp	r7, #1048576
 1318              		.loc 1 332 3 discriminator 2 view .LVU445
 1319 0036 3175     		strb	r1, [r6, #20]
 1320              		.loc 1 332 3 is_stmt 1 discriminator 2 view .LVU446
 1321              		.loc 1 335 3 discriminator 2 view .LVU447
 1322              		.loc 1 335 20 is_stmt 0 discriminator 2 view .LVU448
 1323 0038 B361     		str	r3, [r6, #24]
 1324              		.loc 1 340 3 is_stmt 1 discriminator 2 view .LVU449
 1325              		.loc 1 340 5 is_stmt 0 discriminator 2 view .LVU450
 1326 003a 2DD3     		bcc	.L135
 1327              		.loc 1 348 8 is_stmt 1 view .LVU451
 1328              		.loc 1 348 11 is_stmt 0 view .LVU452
 1329 003c A5F10163 		sub	r3, r5, #135266304
 1330              		.loc 1 348 10 view .LVU453
 1331 0040 B3F5801F 		cmp	r3, #1048576
 1332 0044 30D2     		bcs	.L132
 1333              	.LVL99:
 1334              		.loc 1 359 3 is_stmt 1 view .LVU454
 1335              		.loc 1 359 12 is_stmt 0 view .LVU455
 1336 0046 0221     		movs	r1, #2
 1337 0048 4CF25030 		movw	r0, #50000
 1338 004c FFF7FEFF 		bl	FLASH_WaitForLastOperation
 1339              	.LVL100:
 1340              		.loc 1 361 3 is_stmt 1 view .LVU456
 1341              		.loc 1 361 6 is_stmt 0 view .LVU457
 1342 0050 38BB     		cbnz	r0, .L128
 1343              		.loc 1 368 5 is_stmt 1 view .LVU458
 1344              		.loc 1 404 7 is_stmt 0 view .LVU459
 1345 0052 1F4B     		ldr	r3, .L137+4
 1346              		.loc 1 401 31 view .LVU460
 1347 0054 0622     		movs	r2, #6
 1348              		.loc 1 368 20 view .LVU461
 1349 0056 3561     		str	r5, [r6, #16]
 1350              		.loc 1 371 5 is_stmt 1 view .LVU462
 1351              		.loc 1 401 7 view .LVU463
 1352              		.loc 1 401 31 is_stmt 0 view .LVU464
 1353 0058 3270     		strb	r2, [r6]
 1354              		.loc 1 404 7 is_stmt 1 view .LVU465
 1355 005a D3F80C21 		ldr	r2, [r3, #268]
 1356 005e 42F00202 		orr	r2, r2, #2
 1357 0062 C3F80C21 		str	r2, [r3, #268]
 1358              		.loc 1 408 7 view .LVU466
 1359 0066 D3F80C21 		ldr	r2, [r3, #268]
 1360 006a 42F4DE02 		orr	r2, r2, #7274496
 1361 006e C3F80C21 		str	r2, [r3, #268]
 1362              	.LVL101:
 1363              	.L129:
 1364              		.loc 1 323 18 is_stmt 0 view .LVU467
 1365 0072 2246     		mov	r2, r4
 1366              		.loc 1 442 5 is_stmt 1 view .LVU468
 1367              	.LBB26:
 1368              	.LBI26:
ARM GAS  C:\Users\DEVELO~1\AppData\Local\Temp\cc1koBA1.s 			page 25


 1369              		.loc 2 866 27 view .LVU469
 1370              	.LBB27:
 1371              		.loc 2 868 3 view .LVU470
 1372              		.syntax unified
 1373              	@ 868 "../../../os/common/ext/ARM/CMSIS/Core/Include/cmsis_gcc.h" 1
 1374 0074 BFF36F8F 		isb 0xF
 1375              	@ 0 "" 2
 1376              		.thumb
 1377              		.syntax unified
 1378              	.LBE27:
 1379              	.LBE26:
 1380              		.loc 1 443 5 view .LVU471
 1381              	.LBB28:
 1382              	.LBI28:
 1383              		.loc 2 877 27 view .LVU472
 1384              	.LBB29:
 1385              		.loc 2 879 3 view .LVU473
 1386              		.syntax unified
 1387              	@ 879 "../../../os/common/ext/ARM/CMSIS/Core/Include/cmsis_gcc.h" 1
 1388 0078 BFF34F8F 		dsb 0xF
 1389              	@ 0 "" 2
 1390              		.thumb
 1391              		.syntax unified
 1392 007c 04F12001 		add	r1, r4, #32
 1393 0080 2D1B     		subs	r5, r5, r4
 1394              	.LVL102:
 1395              	.L130:
 1396              		.loc 2 879 3 is_stmt 0 view .LVU474
 1397              	.LBE29:
 1398              	.LBE28:
 1399              		.loc 1 455 7 is_stmt 1 discriminator 1 view .LVU475
 1400              		.loc 1 457 9 discriminator 1 view .LVU476
 1401              		.loc 1 457 22 is_stmt 0 discriminator 1 view .LVU477
 1402 0082 1368     		ldr	r3, [r2]
 1403              		.loc 1 457 20 discriminator 1 view .LVU478
 1404 0084 5351     		str	r3, [r2, r5]
 1405              		.loc 1 458 9 is_stmt 1 discriminator 1 view .LVU479
 1406              	.LVL103:
 1407              		.loc 1 459 9 discriminator 1 view .LVU480
 1408              		.loc 1 459 17 is_stmt 0 discriminator 1 view .LVU481
 1409 0086 0432     		adds	r2, r2, #4
 1410              	.LVL104:
 1411              		.loc 1 460 9 is_stmt 1 discriminator 1 view .LVU482
 1412              		.loc 1 461 26 discriminator 1 view .LVU483
 1413 0088 9142     		cmp	r1, r2
 1414 008a FAD1     		bne	.L130
 1415              		.loc 1 464 5 view .LVU484
 1416              	.LBB30:
 1417              	.LBI30:
 1418              		.loc 2 866 27 view .LVU485
 1419              	.LBB31:
 1420              		.loc 2 868 3 view .LVU486
 1421              		.syntax unified
 1422              	@ 868 "../../../os/common/ext/ARM/CMSIS/Core/Include/cmsis_gcc.h" 1
 1423 008c BFF36F8F 		isb 0xF
 1424              	@ 0 "" 2
 1425              		.thumb
ARM GAS  C:\Users\DEVELO~1\AppData\Local\Temp\cc1koBA1.s 			page 26


 1426              		.syntax unified
 1427              	.LBE31:
 1428              	.LBE30:
 1429              		.loc 1 465 5 view .LVU487
 1430              	.LBB32:
 1431              	.LBI32:
 1432              		.loc 2 877 27 view .LVU488
 1433              	.LBB33:
 1434              		.loc 2 879 3 view .LVU489
 1435              		.syntax unified
 1436              	@ 879 "../../../os/common/ext/ARM/CMSIS/Core/Include/cmsis_gcc.h" 1
 1437 0090 BFF34F8F 		dsb 0xF
 1438              	@ 0 "" 2
 1439              		.loc 2 880 1 is_stmt 0 view .LVU490
 1440              		.thumb
 1441              		.syntax unified
 1442 0094 0020     		movs	r0, #0
 1443              	.LVL105:
 1444              		.loc 2 880 1 view .LVU491
 1445              	.LBE33:
 1446              	.LBE32:
 1447              		.loc 1 469 1 view .LVU492
 1448 0096 F8BD     		pop	{r3, r4, r5, r6, r7, pc}
 1449              	.LVL106:
 1450              	.L135:
 1451              		.loc 1 359 3 is_stmt 1 view .LVU493
 1452              		.loc 1 359 12 is_stmt 0 view .LVU494
 1453 0098 4CF25030 		movw	r0, #50000
 1454 009c FFF7FEFF 		bl	FLASH_WaitForLastOperation
 1455              	.LVL107:
 1456              		.loc 1 361 3 is_stmt 1 view .LVU495
 1457              		.loc 1 361 6 is_stmt 0 view .LVU496
 1458 00a0 20B1     		cbz	r0, .L136
 1459              	.LVL108:
 1460              	.L128:
 1461              		.loc 1 364 5 is_stmt 1 view .LVU497
 1462              		.loc 1 364 5 view .LVU498
 1463 00a2 0023     		movs	r3, #0
 1464 00a4 3375     		strb	r3, [r6, #20]
 1465              		.loc 1 364 5 view .LVU499
 1466              		.loc 1 469 1 is_stmt 0 view .LVU500
 1467 00a6 F8BD     		pop	{r3, r4, r5, r6, r7, pc}
 1468              	.LVL109:
 1469              	.L132:
 1470              		.loc 1 355 12 view .LVU501
 1471 00a8 0846     		mov	r0, r1
 1472              		.loc 1 469 1 view .LVU502
 1473 00aa F8BD     		pop	{r3, r4, r5, r6, r7, pc}
 1474              	.LVL110:
 1475              	.L136:
 1476              		.loc 1 368 5 is_stmt 1 view .LVU503
 1477              		.loc 1 386 9 is_stmt 0 view .LVU504
 1478 00ac 084B     		ldr	r3, .L137+4
 1479              		.loc 1 374 31 view .LVU505
 1480 00ae 0322     		movs	r2, #3
 1481              		.loc 1 368 20 view .LVU506
 1482 00b0 3561     		str	r5, [r6, #16]
ARM GAS  C:\Users\DEVELO~1\AppData\Local\Temp\cc1koBA1.s 			page 27


 1483              		.loc 1 371 5 is_stmt 1 view .LVU507
 1484              		.loc 1 374 7 view .LVU508
 1485              		.loc 1 374 31 is_stmt 0 view .LVU509
 1486 00b2 3270     		strb	r2, [r6]
 1487              		.loc 1 386 9 is_stmt 1 view .LVU510
 1488 00b4 DA68     		ldr	r2, [r3, #12]
 1489 00b6 42F00202 		orr	r2, r2, #2
 1490 00ba DA60     		str	r2, [r3, #12]
 1491              		.loc 1 391 7 view .LVU511
 1492 00bc DA68     		ldr	r2, [r3, #12]
 1493 00be 42F4DE02 		orr	r2, r2, #7274496
 1494 00c2 DA60     		str	r2, [r3, #12]
 1495 00c4 D5E7     		b	.L129
 1496              	.LVL111:
 1497              	.L131:
 1498              		.loc 1 332 3 is_stmt 0 view .LVU512
 1499 00c6 0220     		movs	r0, #2
 1500              		.loc 1 469 1 view .LVU513
 1501 00c8 F8BD     		pop	{r3, r4, r5, r6, r7, pc}
 1502              	.LVL112:
 1503              	.L138:
 1504              		.loc 1 469 1 view .LVU514
 1505 00ca 00BF     		.align	2
 1506              	.L137:
 1507 00cc 00000000 		.word	.LANCHOR0
 1508 00d0 00200052 		.word	1375739904
 1509              		.cfi_endproc
 1510              	.LFE142:
 1511              		.size	HAL_FLASH_Program_IT, .-HAL_FLASH_Program_IT
 1512              		.section	.text.FLASH_OB_WaitForLastOperation,"ax",%progbits
 1513              		.align	1
 1514              		.p2align 2,,3
 1515              		.global	FLASH_OB_WaitForLastOperation
 1516              		.syntax unified
 1517              		.thumb
 1518              		.thumb_func
 1519              		.type	FLASH_OB_WaitForLastOperation, %function
 1520              	FLASH_OB_WaitForLastOperation:
 1521              	.LVL113:
 1522              	.LFB153:
 1523              		.loc 1 1155 1 is_stmt 1 view -0
 1524              		.cfi_startproc
 1525              		@ args = 0, pretend = 0, frame = 0
 1526              		@ frame_needed = 0, uses_anonymous_args = 0
 1527              		.loc 1 1157 3 view .LVU516
 1528              		.loc 1 1155 1 is_stmt 0 view .LVU517
 1529 0000 70B5     		push	{r4, r5, r6, lr}
 1530              		.cfi_def_cfa_offset 16
 1531              		.cfi_offset 4, -16
 1532              		.cfi_offset 5, -12
 1533              		.cfi_offset 6, -8
 1534              		.cfi_offset 14, -4
 1535              		.loc 1 1155 1 view .LVU518
 1536 0002 0446     		mov	r4, r0
 1537              		.loc 1 1160 9 view .LVU519
 1538 0004 114D     		ldr	r5, .L151
 1539              		.loc 1 1157 24 view .LVU520
ARM GAS  C:\Users\DEVELO~1\AppData\Local\Temp\cc1koBA1.s 			page 28


 1540 0006 FFF7FEFF 		bl	HAL_GetTick
 1541              	.LVL114:
 1542              		.loc 1 1157 24 view .LVU521
 1543 000a 0646     		mov	r6, r0
 1544              	.LVL115:
 1545              		.loc 1 1160 3 is_stmt 1 view .LVU522
 1546              		.loc 1 1160 8 is_stmt 0 view .LVU523
 1547 000c 01E0     		b	.L141
 1548              	.LVL116:
 1549              	.L143:
 1550              		.loc 1 1162 7 view .LVU524
 1551 000e 621C     		adds	r2, r4, #1
 1552 0010 07D1     		bne	.L149
 1553              	.L141:
 1554              		.loc 1 1162 5 is_stmt 1 view .LVU525
 1555              		.loc 1 1160 58 view .LVU526
 1556              		.loc 1 1160 9 is_stmt 0 view .LVU527
 1557 0012 EB69     		ldr	r3, [r5, #28]
 1558              		.loc 1 1160 58 view .LVU528
 1559 0014 DB07     		lsls	r3, r3, #31
 1560 0016 FAD4     		bmi	.L143
 1561              		.loc 1 1172 3 is_stmt 1 view .LVU529
 1562              		.loc 1 1172 6 is_stmt 0 view .LVU530
 1563 0018 E869     		ldr	r0, [r5, #28]
 1564              		.loc 1 1172 5 view .LVU531
 1565 001a 10F08040 		ands	r0, r0, #1073741824
 1566 001e 09D1     		bne	.L150
 1567              		.loc 1 1185 1 view .LVU532
 1568 0020 70BD     		pop	{r4, r5, r6, pc}
 1569              	.LVL117:
 1570              	.L149:
 1571              		.loc 1 1164 7 is_stmt 1 view .LVU533
 1572              		.loc 1 1164 12 is_stmt 0 view .LVU534
 1573 0022 FFF7FEFF 		bl	HAL_GetTick
 1574              	.LVL118:
 1575              		.loc 1 1164 26 view .LVU535
 1576 0026 801B     		subs	r0, r0, r6
 1577              		.loc 1 1164 50 view .LVU536
 1578 0028 A042     		cmp	r0, r4
 1579 002a 01D8     		bhi	.L144
 1580 002c 002C     		cmp	r4, #0
 1581 002e F0D1     		bne	.L141
 1582              	.L144:
 1583              		.loc 1 1166 16 view .LVU537
 1584 0030 0320     		movs	r0, #3
 1585              		.loc 1 1185 1 view .LVU538
 1586 0032 70BD     		pop	{r4, r5, r6, pc}
 1587              	.LVL119:
 1588              	.L150:
 1589              	.LBB36:
 1590              	.LBI36:
 1591              		.loc 1 1154 19 is_stmt 1 view .LVU539
 1592              	.LBB37:
 1593              		.loc 1 1175 5 view .LVU540
 1594              		.loc 1 1175 22 is_stmt 0 view .LVU541
 1595 0034 064A     		ldr	r2, .L151+4
 1596              		.loc 1 1178 19 view .LVU542
ARM GAS  C:\Users\DEVELO~1\AppData\Local\Temp\cc1koBA1.s 			page 29


 1597 0036 0120     		movs	r0, #1
 1598              		.loc 1 1175 22 view .LVU543
 1599 0038 9369     		ldr	r3, [r2, #24]
 1600 003a 43F08043 		orr	r3, r3, #1073741824
 1601 003e 9361     		str	r3, [r2, #24]
 1602              		.loc 1 1178 5 is_stmt 1 view .LVU544
 1603              		.loc 1 1178 19 is_stmt 0 view .LVU545
 1604 0040 6B6A     		ldr	r3, [r5, #36]
 1605 0042 43F08043 		orr	r3, r3, #1073741824
 1606 0046 6B62     		str	r3, [r5, #36]
 1607              		.loc 1 1180 5 is_stmt 1 view .LVU546
 1608              	.LVL120:
 1609              		.loc 1 1180 5 is_stmt 0 view .LVU547
 1610              	.LBE37:
 1611              	.LBE36:
 1612              		.loc 1 1185 1 view .LVU548
 1613 0048 70BD     		pop	{r4, r5, r6, pc}
 1614              	.LVL121:
 1615              	.L152:
 1616              		.loc 1 1185 1 view .LVU549
 1617 004a 00BF     		.align	2
 1618              	.L151:
 1619 004c 00200052 		.word	1375739904
 1620 0050 00000000 		.word	.LANCHOR0
 1621              		.cfi_endproc
 1622              	.LFE153:
 1623              		.size	FLASH_OB_WaitForLastOperation, .-FLASH_OB_WaitForLastOperation
 1624              		.section	.text.FLASH_CRC_WaitForLastOperation,"ax",%progbits
 1625              		.align	1
 1626              		.p2align 2,,3
 1627              		.global	FLASH_CRC_WaitForLastOperation
 1628              		.syntax unified
 1629              		.thumb
 1630              		.thumb_func
 1631              		.type	FLASH_CRC_WaitForLastOperation, %function
 1632              	FLASH_CRC_WaitForLastOperation:
 1633              	.LVL122:
 1634              	.LFB154:
 1635              		.loc 1 1194 1 is_stmt 1 view -0
 1636              		.cfi_startproc
 1637              		@ args = 0, pretend = 0, frame = 0
 1638              		@ frame_needed = 0, uses_anonymous_args = 0
 1639              		.loc 1 1195 3 view .LVU551
 1640              		.loc 1 1196 3 view .LVU552
 1641              		.loc 1 1194 1 is_stmt 0 view .LVU553
 1642 0000 2DE9F041 		push	{r4, r5, r6, r7, r8, lr}
 1643              		.cfi_def_cfa_offset 24
 1644              		.cfi_offset 4, -24
 1645              		.cfi_offset 5, -20
 1646              		.cfi_offset 6, -16
 1647              		.cfi_offset 7, -12
 1648              		.cfi_offset 8, -8
 1649              		.cfi_offset 14, -4
 1650              		.loc 1 1194 1 view .LVU554
 1651 0004 0F46     		mov	r7, r1
 1652 0006 0446     		mov	r4, r0
 1653              		.loc 1 1196 24 view .LVU555
ARM GAS  C:\Users\DEVELO~1\AppData\Local\Temp\cc1koBA1.s 			page 30


 1654 0008 FFF7FEFF 		bl	HAL_GetTick
 1655              	.LVL123:
 1656              		.loc 1 1196 24 view .LVU556
 1657 000c 8046     		mov	r8, r0
 1658              	.LVL124:
 1659              		.loc 1 1198 3 is_stmt 1 view .LVU557
 1660              		.loc 1 1198 16 is_stmt 0 view .LVU558
 1661 000e 7B1E     		subs	r3, r7, #1
 1662              		.loc 1 1207 13 view .LVU559
 1663 0010 224D     		ldr	r5, .L175
 1664              		.loc 1 1211 9 view .LVU560
 1665 0012 234E     		ldr	r6, .L175+4
 1666              		.loc 1 1198 3 view .LVU561
 1667 0014 012B     		cmp	r3, #1
 1668 0016 8CBF     		ite	hi
 1669 0018 0020     		movhi	r0, #0
 1670              	.LVL125:
 1671              		.loc 1 1198 3 view .LVU562
 1672 001a 0120     		movls	r0, #1
 1673 001c FFF7FEFF 		bl	assert_param
 1674              	.LVL126:
 1675              		.loc 1 1201 3 is_stmt 1 view .LVU563
 1676              		.loc 1 1207 13 is_stmt 0 view .LVU564
 1677 0020 012F     		cmp	r7, #1
 1678 0022 08BF     		it	eq
 1679 0024 0825     		moveq	r5, #8
 1680 0026 05E0     		b	.L155
 1681              	.LVL127:
 1682              	.L158:
 1683              		.loc 1 1211 9 discriminator 2 view .LVU565
 1684 0028 D6F81031 		ldr	r3, [r6, #272]
 1685 002c 1B07     		lsls	r3, r3, #28
 1686 002e 06D5     		bpl	.L160
 1687              	.L159:
 1688              		.loc 1 1213 7 view .LVU566
 1689 0030 611C     		adds	r1, r4, #1
 1690 0032 0ED1     		bne	.L172
 1691              	.LVL128:
 1692              	.L155:
 1693              		.loc 1 1213 5 is_stmt 1 view .LVU567
 1694              		.loc 1 1211 9 view .LVU568
 1695 0034 082D     		cmp	r5, #8
 1696 0036 F7D1     		bne	.L158
 1697              		.loc 1 1211 9 is_stmt 0 discriminator 1 view .LVU569
 1698 0038 3369     		ldr	r3, [r6, #16]
 1699 003a 1A07     		lsls	r2, r3, #28
 1700 003c F8D4     		bmi	.L159
 1701              	.L160:
 1702              		.loc 1 1223 3 is_stmt 1 view .LVU570
 1703              		.loc 1 1223 5 is_stmt 0 view .LVU571
 1704 003e 012F     		cmp	r7, #1
 1705              		.loc 1 1225 9 view .LVU572
 1706 0040 174B     		ldr	r3, .L175+4
 1707              		.loc 1 1223 5 view .LVU573
 1708 0042 1CD0     		beq	.L173
 1709              		.loc 1 1239 5 is_stmt 1 view .LVU574
 1710              		.loc 1 1239 9 is_stmt 0 view .LVU575
ARM GAS  C:\Users\DEVELO~1\AppData\Local\Temp\cc1koBA1.s 			page 31


 1711 0044 D3F81001 		ldr	r0, [r3, #272]
 1712              		.loc 1 1239 8 view .LVU576
 1713 0048 10F08050 		ands	r0, r0, #268435456
 1714 004c 0BD1     		bne	.L174
 1715              	.L156:
 1716              		.loc 1 1254 1 view .LVU577
 1717 004e BDE8F081 		pop	{r4, r5, r6, r7, r8, pc}
 1718              	.LVL129:
 1719              	.L172:
 1720              		.loc 1 1215 7 is_stmt 1 view .LVU578
 1721              		.loc 1 1215 12 is_stmt 0 view .LVU579
 1722 0052 FFF7FEFF 		bl	HAL_GetTick
 1723              	.LVL130:
 1724              		.loc 1 1215 26 view .LVU580
 1725 0056 A0EB0800 		sub	r0, r0, r8
 1726              		.loc 1 1215 50 view .LVU581
 1727 005a A042     		cmp	r0, r4
 1728 005c 01D8     		bhi	.L163
 1729 005e 002C     		cmp	r4, #0
 1730 0060 E8D1     		bne	.L155
 1731              	.L163:
 1732              		.loc 1 1217 16 view .LVU582
 1733 0062 0320     		movs	r0, #3
 1734 0064 F3E7     		b	.L156
 1735              	.L174:
 1736              		.loc 1 1242 7 is_stmt 1 view .LVU583
 1737              		.loc 1 1242 24 is_stmt 0 view .LVU584
 1738 0066 0F49     		ldr	r1, .L175+8
 1739              		.loc 1 1245 7 view .LVU585
 1740 0068 4FF08054 		mov	r4, #268435456
 1741              	.LVL131:
 1742              		.loc 1 1247 14 view .LVU586
 1743 006c 0120     		movs	r0, #1
 1744              		.loc 1 1242 24 view .LVU587
 1745 006e 8A69     		ldr	r2, [r1, #24]
 1746 0070 42F01042 		orr	r2, r2, #-1879048192
 1747 0074 8A61     		str	r2, [r1, #24]
 1748              		.loc 1 1245 7 is_stmt 1 view .LVU588
 1749 0076 C3F81441 		str	r4, [r3, #276]
 1750              		.loc 1 1247 7 view .LVU589
 1751              		.loc 1 1254 1 is_stmt 0 view .LVU590
 1752 007a BDE8F081 		pop	{r4, r5, r6, r7, r8, pc}
 1753              	.LVL132:
 1754              	.L173:
 1755              		.loc 1 1225 5 is_stmt 1 view .LVU591
 1756              		.loc 1 1225 9 is_stmt 0 view .LVU592
 1757 007e 1869     		ldr	r0, [r3, #16]
 1758              		.loc 1 1225 8 view .LVU593
 1759 0080 10F08050 		ands	r0, r0, #268435456
 1760 0084 E3D0     		beq	.L156
 1761              		.loc 1 1228 7 is_stmt 1 view .LVU594
 1762              		.loc 1 1228 24 is_stmt 0 view .LVU595
 1763 0086 0749     		ldr	r1, .L175+8
 1764              		.loc 1 1231 7 view .LVU596
 1765 0088 4FF08054 		mov	r4, #268435456
 1766              	.LVL133:
 1767              		.loc 1 1233 14 view .LVU597
ARM GAS  C:\Users\DEVELO~1\AppData\Local\Temp\cc1koBA1.s 			page 32


 1768 008c 3846     		mov	r0, r7
 1769              		.loc 1 1228 24 view .LVU598
 1770 008e 8A69     		ldr	r2, [r1, #24]
 1771 0090 2243     		orrs	r2, r2, r4
 1772 0092 8A61     		str	r2, [r1, #24]
 1773              		.loc 1 1231 7 is_stmt 1 view .LVU599
 1774 0094 5C61     		str	r4, [r3, #20]
 1775              		.loc 1 1233 7 view .LVU600
 1776              		.loc 1 1254 1 is_stmt 0 view .LVU601
 1777 0096 BDE8F081 		pop	{r4, r5, r6, r7, r8, pc}
 1778              	.LVL134:
 1779              	.L176:
 1780              		.loc 1 1254 1 view .LVU602
 1781 009a 00BF     		.align	2
 1782              	.L175:
 1783 009c 08000080 		.word	-2147483640
 1784 00a0 00200052 		.word	1375739904
 1785 00a4 00000000 		.word	.LANCHOR0
 1786              		.cfi_endproc
 1787              	.LFE154:
 1788              		.size	FLASH_CRC_WaitForLastOperation, .-FLASH_CRC_WaitForLastOperation
 1789              		.section	.text.HAL_FLASH_OB_Launch,"ax",%progbits
 1790              		.align	1
 1791              		.p2align 2,,3
 1792              		.global	HAL_FLASH_OB_Launch
 1793              		.syntax unified
 1794              		.thumb
 1795              		.thumb_func
 1796              		.type	HAL_FLASH_OB_Launch, %function
 1797              	HAL_FLASH_OB_Launch:
 1798              	.LFB150:
 1799              		.loc 1 968 1 is_stmt 1 view -0
 1800              		.cfi_startproc
 1801              		@ args = 0, pretend = 0, frame = 0
 1802              		@ frame_needed = 0, uses_anonymous_args = 0
 1803              		.loc 1 969 3 view .LVU604
 1804              		.loc 1 972 3 view .LVU605
 1805              	.LVL135:
 1806              	.LBB40:
 1807              	.LBI40:
 1808              		.loc 1 1193 19 view .LVU606
 1809              	.LBB41:
 1810              		.loc 1 1195 3 view .LVU607
 1811              		.loc 1 1196 3 view .LVU608
 1812              	.LBE41:
 1813              	.LBE40:
 1814              		.loc 1 968 1 is_stmt 0 view .LVU609
 1815 0000 70B5     		push	{r4, r5, r6, lr}
 1816              		.cfi_def_cfa_offset 16
 1817              		.cfi_offset 4, -16
 1818              		.cfi_offset 5, -12
 1819              		.cfi_offset 6, -8
 1820              		.cfi_offset 14, -4
 1821              	.LBB45:
 1822              	.LBB42:
 1823              		.loc 1 1196 24 view .LVU610
 1824 0002 FFF7FEFF 		bl	HAL_GetTick
ARM GAS  C:\Users\DEVELO~1\AppData\Local\Temp\cc1koBA1.s 			page 33


 1825              	.LVL136:
 1826 0006 0446     		mov	r4, r0
 1827              		.loc 1 1198 3 view .LVU611
 1828 0008 0120     		movs	r0, #1
 1829              		.loc 1 1211 9 view .LVU612
 1830 000a 164D     		ldr	r5, .L187
 1831              	.LVL137:
 1832              		.loc 1 1198 3 is_stmt 1 view .LVU613
 1833              		.loc 1 1215 9 is_stmt 0 view .LVU614
 1834 000c 4CF25036 		movw	r6, #50000
 1835              		.loc 1 1198 3 view .LVU615
 1836 0010 FFF7FEFF 		bl	assert_param
 1837              	.LVL138:
 1838              		.loc 1 1201 3 is_stmt 1 view .LVU616
 1839 0014 04E0     		b	.L178
 1840              	.LVL139:
 1841              	.L180:
 1842              		.loc 1 1215 12 is_stmt 0 view .LVU617
 1843 0016 FFF7FEFF 		bl	HAL_GetTick
 1844              	.LVL140:
 1845              		.loc 1 1215 26 view .LVU618
 1846 001a 001B     		subs	r0, r0, r4
 1847              		.loc 1 1215 9 view .LVU619
 1848 001c B042     		cmp	r0, r6
 1849 001e 0BD8     		bhi	.L179
 1850              	.LVL141:
 1851              	.L178:
 1852              		.loc 1 1213 5 is_stmt 1 view .LVU620
 1853              		.loc 1 1215 7 view .LVU621
 1854              		.loc 1 1211 9 view .LVU622
 1855 0020 2B69     		ldr	r3, [r5, #16]
 1856 0022 1A07     		lsls	r2, r3, #28
 1857 0024 F7D4     		bmi	.L180
 1858              		.loc 1 1223 3 view .LVU623
 1859              		.loc 1 1225 5 view .LVU624
 1860              		.loc 1 1225 9 is_stmt 0 view .LVU625
 1861 0026 2B69     		ldr	r3, [r5, #16]
 1862              		.loc 1 1225 8 view .LVU626
 1863 0028 DB00     		lsls	r3, r3, #3
 1864 002a 07D4     		bmi	.L185
 1865              	.LVL142:
 1866              		.loc 1 1225 8 view .LVU627
 1867              	.LBE42:
 1868              	.LBE45:
 1869              		.loc 1 977 8 is_stmt 1 view .LVU628
 1870              		.loc 1 977 12 is_stmt 0 view .LVU629
 1871 002c 0221     		movs	r1, #2
 1872 002e 4CF25030 		movw	r0, #50000
 1873 0032 FFF7FEFF 		bl	FLASH_CRC_WaitForLastOperation
 1874              	.LVL143:
 1875              		.loc 1 977 11 view .LVU630
 1876 0036 50B1     		cbz	r0, .L186
 1877              	.L179:
 1878              		.loc 1 996 3 is_stmt 1 view .LVU631
 1879              		.loc 1 997 1 is_stmt 0 view .LVU632
 1880 0038 0120     		movs	r0, #1
 1881 003a 70BD     		pop	{r4, r5, r6, pc}
ARM GAS  C:\Users\DEVELO~1\AppData\Local\Temp\cc1koBA1.s 			page 34


 1882              	.LVL144:
 1883              	.L185:
 1884              	.LBB46:
 1885              	.LBB43:
 1886              		.loc 1 1228 7 is_stmt 1 view .LVU633
 1887              		.loc 1 1228 24 is_stmt 0 view .LVU634
 1888 003c 0A4A     		ldr	r2, .L187+4
 1889              		.loc 1 1231 7 view .LVU635
 1890 003e 4FF08051 		mov	r1, #268435456
 1891              	.LBE43:
 1892              	.LBE46:
 1893              		.loc 1 997 1 view .LVU636
 1894 0042 0120     		movs	r0, #1
 1895              	.LBB47:
 1896              	.LBB44:
 1897              		.loc 1 1228 24 view .LVU637
 1898 0044 9369     		ldr	r3, [r2, #24]
 1899 0046 0B43     		orrs	r3, r3, r1
 1900 0048 9361     		str	r3, [r2, #24]
 1901              		.loc 1 1231 7 is_stmt 1 view .LVU638
 1902 004a 6961     		str	r1, [r5, #20]
 1903              		.loc 1 1233 7 view .LVU639
 1904              	.LVL145:
 1905              		.loc 1 1233 7 is_stmt 0 view .LVU640
 1906              	.LBE44:
 1907              	.LBE47:
 1908              		.loc 1 996 3 is_stmt 1 view .LVU641
 1909              		.loc 1 997 1 is_stmt 0 view .LVU642
 1910 004c 70BD     		pop	{r4, r5, r6, pc}
 1911              	.L186:
 1912              		.loc 1 984 5 is_stmt 1 view .LVU643
 1913              	.LVL146:
 1914              		.loc 1 987 3 view .LVU644
 1915              		.loc 1 990 5 view .LVU645
 1916 004e AB69     		ldr	r3, [r5, #24]
 1917              		.loc 1 993 14 is_stmt 0 view .LVU646
 1918 0050 4CF25030 		movw	r0, #50000
 1919              		.loc 1 990 5 view .LVU647
 1920 0054 43F00203 		orr	r3, r3, #2
 1921 0058 AB61     		str	r3, [r5, #24]
 1922              		.loc 1 993 5 is_stmt 1 view .LVU648
 1923              		.loc 1 997 1 is_stmt 0 view .LVU649
 1924 005a BDE87040 		pop	{r4, r5, r6, lr}
 1925              		.cfi_restore 14
 1926              		.cfi_restore 6
 1927              		.cfi_restore 5
 1928              		.cfi_restore 4
 1929              		.cfi_def_cfa_offset 0
 1930              		.loc 1 993 14 view .LVU650
 1931 005e FFF7FEBF 		b	FLASH_OB_WaitForLastOperation
 1932              	.LVL147:
 1933              	.L188:
 1934 0062 00BF     		.align	2
 1935              	.L187:
 1936 0064 00200052 		.word	1375739904
 1937 0068 00000000 		.word	.LANCHOR0
 1938              		.cfi_endproc
ARM GAS  C:\Users\DEVELO~1\AppData\Local\Temp\cc1koBA1.s 			page 35


 1939              	.LFE150:
 1940              		.size	HAL_FLASH_OB_Launch, .-HAL_FLASH_OB_Launch
 1941              		.global	pFlash
 1942              		.section	.bss.pFlash,"aw",%nobits
 1943              		.align	2
 1944              		.set	.LANCHOR0,. + 0
 1945              		.type	pFlash, %object
 1946              		.size	pFlash, 28
 1947              	pFlash:
 1948 0000 00000000 		.space	28
 1948      00000000 
 1948      00000000 
 1948      00000000 
 1948      00000000 
 1949              		.text
 1950              	.Letext0:
 1951              		.file 3 "c:\\chibistudio\\tools\\gnu tools arm embedded\\11.3 2022.08\\arm-none-eabi\\include\\mac
 1952              		.file 4 "c:\\chibistudio\\tools\\gnu tools arm embedded\\11.3 2022.08\\arm-none-eabi\\include\\sys
 1953              		.file 5 "../../../os/common/ext/ST/STM32H7xx/stm32h743xx.h"
 1954              		.file 6 "../../../os/common/ext/ST/STM32H7xx/stm32h7xx.h"
 1955              		.file 7 "./drivers/stm32h7xx-hal-driver/Inc/stm32h7xx_hal_def.h"
 1956              		.file 8 "./drivers/stm32h7xx-hal-driver/Inc/stm32h7xx_hal_flash.h"
 1957              		.file 9 "./drivers/stm32h7xx-hal-driver/Inc/stm32h7xx_hal_flash_ex.h"
 1958              		.file 10 "./drivers/stm32h7xx-hal-driver/Inc/stm32h7xx_hal.h"