ARM GAS  C:\Users\DEVELO~1\AppData\Local\Temp\cc83s5mZ.s 			page 1


   1              		.cpu cortex-m7
   2              		.arch armv7e-m
   3              		.fpu fpv5-d16
   4              		.eabi_attribute 28, 1
   5              		.eabi_attribute 20, 1
   6              		.eabi_attribute 21, 1
   7              		.eabi_attribute 23, 3
   8              		.eabi_attribute 24, 1
   9              		.eabi_attribute 25, 1
  10              		.eabi_attribute 26, 1
  11              		.eabi_attribute 30, 2
  12              		.eabi_attribute 34, 1
  13              		.eabi_attribute 18, 4
  14              		.file	"stm32h7xx_hal_cortex.c"
  15              		.text
  16              	.Ltext0:
  17              		.cfi_sections	.debug_frame
  18              		.section	.text.HAL_NVIC_SetPriorityGrouping,"ax",%progbits
  19              		.align	1
  20              		.p2align 2,,3
  21              		.global	HAL_NVIC_SetPriorityGrouping
  22              		.syntax unified
  23              		.thumb
  24              		.thumb_func
  25              		.type	HAL_NVIC_SetPriorityGrouping, %function
  26              	HAL_NVIC_SetPriorityGrouping:
  27              	.LVL0:
  28              	.LFB141:
  29              		.file 1 "./drivers/stm32h7xx-hal-driver/Src/stm32h7xx_hal_cortex.c"
  30              		.loc 1 143 1 view -0
  31              		.cfi_startproc
  32              		@ args = 0, pretend = 0, frame = 0
  33              		@ frame_needed = 0, uses_anonymous_args = 0
  34              		@ link register save eliminated.
  35              		.loc 1 145 3 view .LVU1
  36              		.loc 1 148 3 view .LVU2
  37              	.LBB38:
  38              	.LBB39:
  39              		.file 2 "./docs/ChibiOS/os/common/ext/ARM/CMSIS/Core/Include/core_cm7.h"
  40              		.loc 2 1870 14 is_stmt 0 view .LVU3
  41 0000 0649     		ldr	r1, .L3
  42              	.LVL1:
  43              		.loc 2 1870 14 view .LVU4
  44              	.LBE39:
  45              	.LBI38:
  46              		.loc 2 1865 22 is_stmt 1 view .LVU5
  47              	.LBB40:
  48              		.loc 2 1867 3 view .LVU6
  49              		.loc 2 1868 3 view .LVU7
  50              		.loc 2 1870 3 view .LVU8
  51              		.loc 2 1871 13 is_stmt 0 view .LVU9
  52 0002 4FF6FF0C 		movw	ip, #63743
  53              		.loc 2 1874 35 view .LVU10
  54 0006 0002     		lsls	r0, r0, #8
  55              	.LVL2:
  56              		.loc 2 1872 14 view .LVU11
  57 0008 054B     		ldr	r3, .L3+4
ARM GAS  C:\Users\DEVELO~1\AppData\Local\Temp\cc83s5mZ.s 			page 2


  58              		.loc 2 1870 14 view .LVU12
  59 000a CA68     		ldr	r2, [r1, #12]
  60              	.LVL3:
  61              		.loc 2 1871 3 is_stmt 1 view .LVU13
  62              		.loc 2 1872 3 view .LVU14
  63              		.loc 2 1874 35 is_stmt 0 view .LVU15
  64 000c 00F4E060 		and	r0, r0, #1792
  65              		.loc 2 1871 13 view .LVU16
  66 0010 02EA0C02 		and	r2, r2, ip
  67              	.LVL4:
  68              		.loc 2 1873 62 view .LVU17
  69 0014 1043     		orrs	r0, r0, r2
  70              		.loc 2 1872 14 view .LVU18
  71 0016 0343     		orrs	r3, r3, r0
  72              	.LVL5:
  73              		.loc 2 1875 3 is_stmt 1 view .LVU19
  74              		.loc 2 1875 14 is_stmt 0 view .LVU20
  75 0018 CB60     		str	r3, [r1, #12]
  76              	.LVL6:
  77              		.loc 2 1875 14 view .LVU21
  78              	.LBE40:
  79              	.LBE38:
  80              		.loc 1 149 1 view .LVU22
  81 001a 7047     		bx	lr
  82              	.L4:
  83              		.align	2
  84              	.L3:
  85 001c 00ED00E0 		.word	-536810240
  86 0020 0000FA05 		.word	100270080
  87              		.cfi_endproc
  88              	.LFE141:
  89              		.size	HAL_NVIC_SetPriorityGrouping, .-HAL_NVIC_SetPriorityGrouping
  90              		.section	.text.HAL_NVIC_SetPriority,"ax",%progbits
  91              		.align	1
  92              		.p2align 2,,3
  93              		.global	HAL_NVIC_SetPriority
  94              		.syntax unified
  95              		.thumb
  96              		.thumb_func
  97              		.type	HAL_NVIC_SetPriority, %function
  98              	HAL_NVIC_SetPriority:
  99              	.LVL7:
 100              	.LFB142:
 101              		.loc 1 165 1 is_stmt 1 view -0
 102              		.cfi_startproc
 103              		@ args = 0, pretend = 0, frame = 0
 104              		@ frame_needed = 0, uses_anonymous_args = 0
 105              		.loc 1 166 3 view .LVU24
 106              		.loc 1 169 3 view .LVU25
 107              		.loc 1 170 3 view .LVU26
 108              		.loc 1 172 3 view .LVU27
 109              	.LBB47:
 110              	.LBI47:
 111              		.loc 2 1884 26 view .LVU28
 112              	.LBB48:
 113              		.loc 2 1886 3 view .LVU29
 114              		.loc 2 1886 26 is_stmt 0 view .LVU30
ARM GAS  C:\Users\DEVELO~1\AppData\Local\Temp\cc83s5mZ.s 			page 3


 115 0000 1B4B     		ldr	r3, .L11
 116 0002 DB68     		ldr	r3, [r3, #12]
 117              		.loc 2 1886 11 view .LVU31
 118 0004 C3F30223 		ubfx	r3, r3, #8, #3
 119              	.LVL8:
 120              		.loc 2 1886 11 view .LVU32
 121              	.LBE48:
 122              	.LBE47:
 123              		.loc 1 174 3 is_stmt 1 view .LVU33
 124              	.LBB49:
 125              	.LBI49:
 126              		.loc 2 2071 26 view .LVU34
 127              	.LBB50:
 128              		.loc 2 2073 3 view .LVU35
 129              		.loc 2 2074 3 view .LVU36
 130              		.loc 2 2075 3 view .LVU37
 131              		.loc 2 2077 3 view .LVU38
 132              	.LBE50:
 133              	.LBE49:
 134              		.loc 1 165 1 is_stmt 0 view .LVU39
 135 0008 00B5     		push	{lr}
 136              		.cfi_def_cfa_offset 4
 137              		.cfi_offset 14, -4
 138              	.LBB54:
 139              	.LBB51:
 140              		.loc 2 2077 31 view .LVU40
 141 000a C3F1070E 		rsb	lr, r3, #7
 142              		.loc 2 2078 44 view .LVU41
 143 000e 03F1040C 		add	ip, r3, #4
 144              		.loc 2 2077 23 view .LVU42
 145 0012 BEF1040F 		cmp	lr, #4
 146 0016 28BF     		it	cs
 147 0018 4FF0040E 		movcs	lr, #4
 148              	.LVL9:
 149              		.loc 2 2078 3 is_stmt 1 view .LVU43
 150              		.loc 2 2078 109 is_stmt 0 view .LVU44
 151 001c BCF1060F 		cmp	ip, #6
 152 0020 1AD9     		bls	.L9
 153 0022 033B     		subs	r3, r3, #3
 154              	.LVL10:
 155              		.loc 2 2082 30 view .LVU45
 156 0024 4FF0FF3C 		mov	ip, #-1
 157 0028 0CFA03FC 		lsl	ip, ip, r3
 158 002c 22EA0C02 		bic	r2, r2, ip
 159              	.LVL11:
 160              	.L6:
 161              		.loc 2 2080 3 is_stmt 1 view .LVU46
 162              		.loc 2 2081 30 is_stmt 0 view .LVU47
 163 0030 4FF0FF3C 		mov	ip, #-1
 164              	.LBE51:
 165              	.LBE54:
 166              	.LBB55:
 167              	.LBB56:
 168              		.loc 2 2026 6 view .LVU48
 169 0034 0028     		cmp	r0, #0
 170              	.LBE56:
 171              	.LBE55:
ARM GAS  C:\Users\DEVELO~1\AppData\Local\Temp\cc83s5mZ.s 			page 4


 172              	.LBB59:
 173              	.LBB52:
 174              		.loc 2 2081 30 view .LVU49
 175 0036 0CFA0EFC 		lsl	ip, ip, lr
 176 003a 21EA0C01 		bic	r1, r1, ip
 177              	.LVL12:
 178              		.loc 2 2081 82 view .LVU50
 179 003e 01FA03F1 		lsl	r1, r1, r3
 180              		.loc 2 2081 102 view .LVU51
 181 0042 41EA0201 		orr	r1, r1, r2
 182              	.LVL13:
 183              		.loc 2 2081 102 view .LVU52
 184              	.LBE52:
 185              	.LBE59:
 186              	.LBB60:
 187              	.LBI55:
 188              		.loc 2 2024 22 is_stmt 1 view .LVU53
 189              	.LBB57:
 190              		.loc 2 2026 3 view .LVU54
 191              		.loc 2 2026 6 is_stmt 0 view .LVU55
 192 0046 0ADB     		blt	.L7
 193              		.loc 2 2028 5 is_stmt 1 view .LVU56
 194              		.loc 2 2028 49 is_stmt 0 view .LVU57
 195 0048 0901     		lsls	r1, r1, #4
 196              	.LVL14:
 197              		.loc 2 2028 47 view .LVU58
 198 004a 0A4B     		ldr	r3, .L11+4
 199              	.LVL15:
 200              		.loc 2 2028 49 view .LVU59
 201 004c C9B2     		uxtb	r1, r1
 202              		.loc 2 2028 47 view .LVU60
 203 004e 0344     		add	r3, r3, r0
 204 0050 83F80013 		strb	r1, [r3, #768]
 205              	.LBE57:
 206              	.LBE60:
 207              		.loc 1 175 1 view .LVU61
 208 0054 5DF804FB 		ldr	pc, [sp], #4
 209              	.LVL16:
 210              	.L9:
 211              	.LBB61:
 212              	.LBB53:
 213              		.loc 1 175 1 view .LVU62
 214 0058 0022     		movs	r2, #0
 215              	.LVL17:
 216              		.loc 2 2078 109 view .LVU63
 217 005a 1346     		mov	r3, r2
 218              	.LVL18:
 219              		.loc 2 2078 109 view .LVU64
 220 005c E8E7     		b	.L6
 221              	.LVL19:
 222              	.L7:
 223              		.loc 2 2078 109 view .LVU65
 224              	.LBE53:
 225              	.LBE61:
 226              	.LBB62:
 227              	.LBB58:
 228              		.loc 2 2032 5 is_stmt 1 view .LVU66
ARM GAS  C:\Users\DEVELO~1\AppData\Local\Temp\cc83s5mZ.s 			page 5


 229              		.loc 2 2032 33 is_stmt 0 view .LVU67
 230 005e 00F00F00 		and	r0, r0, #15
 231              	.LVL20:
 232              		.loc 2 2032 49 view .LVU68
 233 0062 0901     		lsls	r1, r1, #4
 234              	.LVL21:
 235              		.loc 2 2032 47 view .LVU69
 236 0064 044B     		ldr	r3, .L11+8
 237              	.LVL22:
 238              		.loc 2 2032 49 view .LVU70
 239 0066 C9B2     		uxtb	r1, r1
 240              		.loc 2 2032 47 view .LVU71
 241 0068 0344     		add	r3, r3, r0
 242 006a 1976     		strb	r1, [r3, #24]
 243              	.LVL23:
 244              		.loc 2 2032 47 view .LVU72
 245              	.LBE58:
 246              	.LBE62:
 247              		.loc 1 175 1 view .LVU73
 248 006c 5DF804FB 		ldr	pc, [sp], #4
 249              	.L12:
 250              		.align	2
 251              	.L11:
 252 0070 00ED00E0 		.word	-536810240
 253 0074 00E100E0 		.word	-536813312
 254 0078 FCEC00E0 		.word	-536810244
 255              		.cfi_endproc
 256              	.LFE142:
 257              		.size	HAL_NVIC_SetPriority, .-HAL_NVIC_SetPriority
 258              		.section	.text.HAL_NVIC_EnableIRQ,"ax",%progbits
 259              		.align	1
 260              		.p2align 2,,3
 261              		.global	HAL_NVIC_EnableIRQ
 262              		.syntax unified
 263              		.thumb
 264              		.thumb_func
 265              		.type	HAL_NVIC_EnableIRQ, %function
 266              	HAL_NVIC_EnableIRQ:
 267              	.LVL24:
 268              	.LFB143:
 269              		.loc 1 187 1 is_stmt 1 view -0
 270              		.cfi_startproc
 271              		@ args = 0, pretend = 0, frame = 0
 272              		@ frame_needed = 0, uses_anonymous_args = 0
 273              		@ link register save eliminated.
 274              		.loc 1 189 3 view .LVU75
 275              		.loc 1 192 3 view .LVU76
 276              	.LBB63:
 277              	.LBI63:
 278              		.loc 2 1896 22 view .LVU77
 279              	.LBB64:
 280              		.loc 2 1898 3 view .LVU78
 281              		.loc 2 1898 6 is_stmt 0 view .LVU79
 282 0000 0028     		cmp	r0, #0
 283              	.LVL25:
 284              		.loc 2 1898 6 view .LVU80
 285 0002 07DB     		blt	.L13
ARM GAS  C:\Users\DEVELO~1\AppData\Local\Temp\cc83s5mZ.s 			page 6


 286              		.loc 2 1900 5 is_stmt 1 view .LVU81
 287              		.loc 2 1900 81 is_stmt 0 view .LVU82
 288 0004 00F01F01 		and	r1, r0, #31
 289              		.loc 2 1900 45 view .LVU83
 290 0008 0123     		movs	r3, #1
 291              		.loc 2 1900 34 view .LVU84
 292 000a 4009     		lsrs	r0, r0, #5
 293              		.loc 2 1900 43 view .LVU85
 294 000c 024A     		ldr	r2, .L15
 295              		.loc 2 1900 45 view .LVU86
 296 000e 8B40     		lsls	r3, r3, r1
 297              		.loc 2 1900 43 view .LVU87
 298 0010 42F82030 		str	r3, [r2, r0, lsl #2]
 299              	.LVL26:
 300              	.L13:
 301              		.loc 2 1900 43 view .LVU88
 302              	.LBE64:
 303              	.LBE63:
 304              		.loc 1 193 1 view .LVU89
 305 0014 7047     		bx	lr
 306              	.L16:
 307 0016 00BF     		.align	2
 308              	.L15:
 309 0018 00E100E0 		.word	-536813312
 310              		.cfi_endproc
 311              	.LFE143:
 312              		.size	HAL_NVIC_EnableIRQ, .-HAL_NVIC_EnableIRQ
 313              		.section	.text.HAL_NVIC_DisableIRQ,"ax",%progbits
 314              		.align	1
 315              		.p2align 2,,3
 316              		.global	HAL_NVIC_DisableIRQ
 317              		.syntax unified
 318              		.thumb
 319              		.thumb_func
 320              		.type	HAL_NVIC_DisableIRQ, %function
 321              	HAL_NVIC_DisableIRQ:
 322              	.LVL27:
 323              	.LFB144:
 324              		.loc 1 203 1 is_stmt 1 view -0
 325              		.cfi_startproc
 326              		@ args = 0, pretend = 0, frame = 0
 327              		@ frame_needed = 0, uses_anonymous_args = 0
 328              		@ link register save eliminated.
 329              		.loc 1 205 3 view .LVU91
 330              		.loc 1 208 3 view .LVU92
 331              	.LBB71:
 332              	.LBI71:
 333              		.loc 2 1932 22 view .LVU93
 334              	.LBB72:
 335              		.loc 2 1934 3 view .LVU94
 336              		.loc 2 1934 6 is_stmt 0 view .LVU95
 337 0000 0028     		cmp	r0, #0
 338              	.LVL28:
 339              		.loc 2 1934 6 view .LVU96
 340 0002 0CDB     		blt	.L17
 341              		.loc 2 1936 5 is_stmt 1 view .LVU97
 342              		.loc 2 1936 34 is_stmt 0 view .LVU98
ARM GAS  C:\Users\DEVELO~1\AppData\Local\Temp\cc83s5mZ.s 			page 7


 343 0004 4309     		lsrs	r3, r0, #5
 344              		.loc 2 1936 45 view .LVU99
 345 0006 0122     		movs	r2, #1
 346              		.loc 2 1936 81 view .LVU100
 347 0008 00F01F00 		and	r0, r0, #31
 348              		.loc 2 1936 43 view .LVU101
 349 000c 0449     		ldr	r1, .L19
 350 000e 2033     		adds	r3, r3, #32
 351              		.loc 2 1936 45 view .LVU102
 352 0010 8240     		lsls	r2, r2, r0
 353              		.loc 2 1936 43 view .LVU103
 354 0012 41F82320 		str	r2, [r1, r3, lsl #2]
 355              		.loc 2 1937 5 is_stmt 1 view .LVU104
 356              	.LBB73:
 357              	.LBI73:
 358              		.file 3 "./docs/ChibiOS/os/common/ext/ARM/CMSIS/Core/Include/cmsis_gcc.h"
 359              		.loc 3 877 27 view .LVU105
 360              	.LBB74:
 361              		.loc 3 879 3 view .LVU106
 362              		.syntax unified
 363              	@ 879 "./docs/ChibiOS/os/common/ext/ARM/CMSIS/Core/Include/cmsis_gcc.h" 1
 364 0016 BFF34F8F 		dsb 0xF
 365              	@ 0 "" 2
 366              		.thumb
 367              		.syntax unified
 368              	.LBE74:
 369              	.LBE73:
 370              		.loc 2 1938 5 view .LVU107
 371              	.LBB75:
 372              	.LBI75:
 373              		.loc 3 866 27 view .LVU108
 374              	.LBB76:
 375              		.loc 3 868 3 view .LVU109
 376              		.syntax unified
 377              	@ 868 "./docs/ChibiOS/os/common/ext/ARM/CMSIS/Core/Include/cmsis_gcc.h" 1
 378 001a BFF36F8F 		isb 0xF
 379              	@ 0 "" 2
 380              	.LVL29:
 381              		.thumb
 382              		.syntax unified
 383              	.L17:
 384              		.loc 3 868 3 is_stmt 0 view .LVU110
 385              	.LBE76:
 386              	.LBE75:
 387              	.LBE72:
 388              	.LBE71:
 389              		.loc 1 209 1 view .LVU111
 390 001e 7047     		bx	lr
 391              	.L20:
 392              		.align	2
 393              	.L19:
 394 0020 00E100E0 		.word	-536813312
 395              		.cfi_endproc
 396              	.LFE144:
 397              		.size	HAL_NVIC_DisableIRQ, .-HAL_NVIC_DisableIRQ
 398              		.section	.text.HAL_NVIC_SystemReset,"ax",%progbits
 399              		.align	1
ARM GAS  C:\Users\DEVELO~1\AppData\Local\Temp\cc83s5mZ.s 			page 8


 400              		.p2align 2,,3
 401              		.global	HAL_NVIC_SystemReset
 402              		.syntax unified
 403              		.thumb
 404              		.thumb_func
 405              		.type	HAL_NVIC_SystemReset, %function
 406              	HAL_NVIC_SystemReset:
 407              	.LFB145:
 408              		.loc 1 216 1 is_stmt 1 view -0
 409              		.cfi_startproc
 410              		@ Volatile: function does not return.
 411              		@ args = 0, pretend = 0, frame = 0
 412              		@ frame_needed = 0, uses_anonymous_args = 0
 413              		@ link register save eliminated.
 414              		.loc 1 218 3 view .LVU113
 415              	.LBB83:
 416              	.LBI83:
 417              		.loc 2 2147 34 view .LVU114
 418              	.LBB84:
 419              		.loc 2 2149 3 view .LVU115
 420              	.LBB85:
 421              	.LBI85:
 422              		.loc 3 877 27 view .LVU116
 423              	.LBB86:
 424              		.loc 3 879 3 view .LVU117
 425              		.syntax unified
 426              	@ 879 "./docs/ChibiOS/os/common/ext/ARM/CMSIS/Core/Include/cmsis_gcc.h" 1
 427 0000 BFF34F8F 		dsb 0xF
 428              	@ 0 "" 2
 429              		.thumb
 430              		.syntax unified
 431              	.LBE86:
 432              	.LBE85:
 433              		.loc 2 2151 3 view .LVU118
 434              		.loc 2 2152 32 is_stmt 0 view .LVU119
 435 0004 0549     		ldr	r1, .L23
 436              		.loc 2 2151 17 view .LVU120
 437 0006 064B     		ldr	r3, .L23+4
 438              		.loc 2 2152 32 view .LVU121
 439 0008 CA68     		ldr	r2, [r1, #12]
 440              		.loc 2 2152 40 view .LVU122
 441 000a 02F4E062 		and	r2, r2, #1792
 442              		.loc 2 2151 17 view .LVU123
 443 000e 1343     		orrs	r3, r3, r2
 444              		.loc 2 2151 15 view .LVU124
 445 0010 CB60     		str	r3, [r1, #12]
 446              		.loc 2 2154 3 is_stmt 1 view .LVU125
 447              	.LBB87:
 448              	.LBI87:
 449              		.loc 3 877 27 view .LVU126
 450              	.LBB88:
 451              		.loc 3 879 3 view .LVU127
 452              		.syntax unified
 453              	@ 879 "./docs/ChibiOS/os/common/ext/ARM/CMSIS/Core/Include/cmsis_gcc.h" 1
 454 0012 BFF34F8F 		dsb 0xF
 455              	@ 0 "" 2
 456              		.thumb
ARM GAS  C:\Users\DEVELO~1\AppData\Local\Temp\cc83s5mZ.s 			page 9


 457              		.syntax unified
 458              	.L22:
 459              	.LBE88:
 460              	.LBE87:
 461              		.loc 2 2156 3 view .LVU128
 462              		.loc 2 2158 5 view .LVU129
 463              		.syntax unified
 464              	@ 2158 "./docs/ChibiOS/os/common/ext/ARM/CMSIS/Core/Include/core_cm7.h" 1
 465 0016 00BF     		nop
 466              	@ 0 "" 2
 467              		.loc 2 2156 3 view .LVU130
 468              		.thumb
 469              		.syntax unified
 470 0018 FDE7     		b	.L22
 471              	.L24:
 472 001a 00BF     		.align	2
 473              	.L23:
 474 001c 00ED00E0 		.word	-536810240
 475 0020 0400FA05 		.word	100270084
 476              	.LBE84:
 477              	.LBE83:
 478              		.cfi_endproc
 479              	.LFE145:
 480              		.size	HAL_NVIC_SystemReset, .-HAL_NVIC_SystemReset
 481              		.section	.text.HAL_SYSTICK_Config,"ax",%progbits
 482              		.align	1
 483              		.p2align 2,,3
 484              		.global	HAL_SYSTICK_Config
 485              		.syntax unified
 486              		.thumb
 487              		.thumb_func
 488              		.type	HAL_SYSTICK_Config, %function
 489              	HAL_SYSTICK_Config:
 490              	.LVL30:
 491              	.LFB146:
 492              		.loc 1 229 1 view -0
 493              		.cfi_startproc
 494              		@ args = 0, pretend = 0, frame = 0
 495              		@ frame_needed = 0, uses_anonymous_args = 0
 496              		@ link register save eliminated.
 497              		.loc 1 230 4 view .LVU132
 498              	.LBB89:
 499              	.LBI89:
 500              		.loc 2 2564 26 view .LVU133
 501              	.LBB90:
 502              		.loc 2 2566 3 view .LVU134
 503              		.loc 2 2566 14 is_stmt 0 view .LVU135
 504 0000 431E     		subs	r3, r0, #1
 505              		.loc 2 2566 6 view .LVU136
 506 0002 B3F1807F 		cmp	r3, #16777216
 507 0006 0CD2     		bcs	.L27
 508              		.loc 2 2571 3 is_stmt 1 view .LVU137
 509              		.loc 2 2571 18 is_stmt 0 view .LVU138
 510 0008 4FF0E022 		mov	r2, #-536813568
 511              		.loc 2 2573 18 view .LVU139
 512 000c 0020     		movs	r0, #0
 513              	.LVL31:
ARM GAS  C:\Users\DEVELO~1\AppData\Local\Temp\cc83s5mZ.s 			page 10


 514              	.LBB91:
 515              	.LBB92:
 516              		.loc 2 2032 47 view .LVU140
 517 000e 0649     		ldr	r1, .L28
 518 0010 4FF0F00C 		mov	ip, #240
 519              	.LBE92:
 520              	.LBE91:
 521              		.loc 2 2571 18 view .LVU141
 522 0014 5361     		str	r3, [r2, #20]
 523              		.loc 2 2572 3 is_stmt 1 view .LVU142
 524              	.LVL32:
 525              	.LBB95:
 526              	.LBI91:
 527              		.loc 2 2024 22 view .LVU143
 528              	.LBB93:
 529              		.loc 2 2026 3 view .LVU144
 530              		.loc 2 2032 5 view .LVU145
 531              	.LBE93:
 532              	.LBE95:
 533              		.loc 2 2574 18 is_stmt 0 view .LVU146
 534 0016 0723     		movs	r3, #7
 535              	.LVL33:
 536              	.LBB96:
 537              	.LBB94:
 538              		.loc 2 2032 47 view .LVU147
 539 0018 81F823C0 		strb	ip, [r1, #35]
 540              	.LVL34:
 541              		.loc 2 2032 47 view .LVU148
 542              	.LBE94:
 543              	.LBE96:
 544              		.loc 2 2573 3 is_stmt 1 view .LVU149
 545              		.loc 2 2573 18 is_stmt 0 view .LVU150
 546 001c 9061     		str	r0, [r2, #24]
 547              		.loc 2 2574 3 is_stmt 1 view .LVU151
 548              		.loc 2 2574 18 is_stmt 0 view .LVU152
 549 001e 1361     		str	r3, [r2, #16]
 550              		.loc 2 2577 3 is_stmt 1 view .LVU153
 551              		.loc 2 2577 10 is_stmt 0 view .LVU154
 552 0020 7047     		bx	lr
 553              	.LVL35:
 554              	.L27:
 555              		.loc 2 2568 12 view .LVU155
 556 0022 0120     		movs	r0, #1
 557              	.LVL36:
 558              		.loc 2 2568 12 view .LVU156
 559              	.LBE90:
 560              	.LBE89:
 561              		.loc 1 231 1 view .LVU157
 562 0024 7047     		bx	lr
 563              	.L29:
 564 0026 00BF     		.align	2
 565              	.L28:
 566 0028 00ED00E0 		.word	-536810240
 567              		.cfi_endproc
 568              	.LFE146:
 569              		.size	HAL_SYSTICK_Config, .-HAL_SYSTICK_Config
 570              		.section	.text.HAL_MPU_Disable,"ax",%progbits
ARM GAS  C:\Users\DEVELO~1\AppData\Local\Temp\cc83s5mZ.s 			page 11


 571              		.align	1
 572              		.p2align 2,,3
 573              		.global	HAL_MPU_Disable
 574              		.syntax unified
 575              		.thumb
 576              		.thumb_func
 577              		.type	HAL_MPU_Disable, %function
 578              	HAL_MPU_Disable:
 579              	.LFB147:
 580              		.loc 1 257 1 is_stmt 1 view -0
 581              		.cfi_startproc
 582              		@ args = 0, pretend = 0, frame = 0
 583              		@ frame_needed = 0, uses_anonymous_args = 0
 584              		@ link register save eliminated.
 585              		.loc 1 259 3 view .LVU159
 586              	.LBB97:
 587              	.LBI97:
 588              		.loc 3 888 27 view .LVU160
 589              	.LBB98:
 590              		.loc 3 890 3 view .LVU161
 591              		.syntax unified
 592              	@ 890 "./docs/ChibiOS/os/common/ext/ARM/CMSIS/Core/Include/cmsis_gcc.h" 1
 593 0000 BFF35F8F 		dmb 0xF
 594              	@ 0 "" 2
 595              		.thumb
 596              		.syntax unified
 597              	.LBE98:
 598              	.LBE97:
 599              		.loc 1 262 3 view .LVU162
 600              		.loc 1 262 14 is_stmt 0 view .LVU163
 601 0004 044B     		ldr	r3, .L31
 602              		.loc 1 265 13 view .LVU164
 603 0006 0021     		movs	r1, #0
 604              		.loc 1 262 14 view .LVU165
 605 0008 5A6A     		ldr	r2, [r3, #36]
 606 000a 22F48032 		bic	r2, r2, #65536
 607 000e 5A62     		str	r2, [r3, #36]
 608              		.loc 1 265 3 is_stmt 1 view .LVU166
 609              		.loc 1 265 13 is_stmt 0 view .LVU167
 610 0010 C3F89410 		str	r1, [r3, #148]
 611              		.loc 1 266 1 view .LVU168
 612 0014 7047     		bx	lr
 613              	.L32:
 614 0016 00BF     		.align	2
 615              	.L31:
 616 0018 00ED00E0 		.word	-536810240
 617              		.cfi_endproc
 618              	.LFE147:
 619              		.size	HAL_MPU_Disable, .-HAL_MPU_Disable
 620              		.section	.text.HAL_MPU_Enable,"ax",%progbits
 621              		.align	1
 622              		.p2align 2,,3
 623              		.global	HAL_MPU_Enable
 624              		.syntax unified
 625              		.thumb
 626              		.thumb_func
 627              		.type	HAL_MPU_Enable, %function
ARM GAS  C:\Users\DEVELO~1\AppData\Local\Temp\cc83s5mZ.s 			page 12


 628              	HAL_MPU_Enable:
 629              	.LVL37:
 630              	.LFB148:
 631              		.loc 1 280 1 is_stmt 1 view -0
 632              		.cfi_startproc
 633              		@ args = 0, pretend = 0, frame = 0
 634              		@ frame_needed = 0, uses_anonymous_args = 0
 635              		@ link register save eliminated.
 636              		.loc 1 282 3 view .LVU170
 637              		.loc 1 282 13 is_stmt 0 view .LVU171
 638 0000 064B     		ldr	r3, .L34
 639              		.loc 1 282 27 view .LVU172
 640 0002 40F00100 		orr	r0, r0, #1
 641              	.LVL38:
 642              		.loc 1 282 13 view .LVU173
 643 0006 C3F89400 		str	r0, [r3, #148]
 644              		.loc 1 285 3 is_stmt 1 view .LVU174
 645              		.loc 1 285 14 is_stmt 0 view .LVU175
 646 000a 5A6A     		ldr	r2, [r3, #36]
 647 000c 42F48032 		orr	r2, r2, #65536
 648 0010 5A62     		str	r2, [r3, #36]
 649              		.loc 1 288 3 is_stmt 1 view .LVU176
 650              	.LBB99:
 651              	.LBI99:
 652              		.loc 3 877 27 view .LVU177
 653              	.LBB100:
 654              		.loc 3 879 3 view .LVU178
 655              		.syntax unified
 656              	@ 879 "./docs/ChibiOS/os/common/ext/ARM/CMSIS/Core/Include/cmsis_gcc.h" 1
 657 0012 BFF34F8F 		dsb 0xF
 658              	@ 0 "" 2
 659              		.thumb
 660              		.syntax unified
 661              	.LBE100:
 662              	.LBE99:
 663              		.loc 1 289 3 view .LVU179
 664              	.LBB101:
 665              	.LBI101:
 666              		.loc 3 866 27 view .LVU180
 667              	.LBB102:
 668              		.loc 3 868 3 view .LVU181
 669              		.syntax unified
 670              	@ 868 "./docs/ChibiOS/os/common/ext/ARM/CMSIS/Core/Include/cmsis_gcc.h" 1
 671 0016 BFF36F8F 		isb 0xF
 672              	@ 0 "" 2
 673              		.thumb
 674              		.syntax unified
 675              	.LBE102:
 676              	.LBE101:
 677              		.loc 1 290 1 is_stmt 0 view .LVU182
 678 001a 7047     		bx	lr
 679              	.L35:
 680              		.align	2
 681              	.L34:
 682 001c 00ED00E0 		.word	-536810240
 683              		.cfi_endproc
 684              	.LFE148:
ARM GAS  C:\Users\DEVELO~1\AppData\Local\Temp\cc83s5mZ.s 			page 13


 685              		.size	HAL_MPU_Enable, .-HAL_MPU_Enable
 686              		.section	.text.HAL_MPU_EnableRegion,"ax",%progbits
 687              		.align	1
 688              		.p2align 2,,3
 689              		.global	HAL_MPU_EnableRegion
 690              		.syntax unified
 691              		.thumb
 692              		.thumb_func
 693              		.type	HAL_MPU_EnableRegion, %function
 694              	HAL_MPU_EnableRegion:
 695              	.LVL39:
 696              	.LFB149:
 697              		.loc 1 297 1 is_stmt 1 view -0
 698              		.cfi_startproc
 699              		@ args = 0, pretend = 0, frame = 0
 700              		@ frame_needed = 0, uses_anonymous_args = 0
 701              		@ link register save eliminated.
 702              		.loc 1 299 3 view .LVU184
 703              		.loc 1 302 3 view .LVU185
 704              		.loc 1 302 12 is_stmt 0 view .LVU186
 705 0000 044B     		ldr	r3, .L37
 706 0002 C3F89800 		str	r0, [r3, #152]
 707              		.loc 1 305 3 is_stmt 1 view .LVU187
 708 0006 D3F8A020 		ldr	r2, [r3, #160]
 709 000a 42F00102 		orr	r2, r2, #1
 710 000e C3F8A020 		str	r2, [r3, #160]
 711              		.loc 1 306 1 is_stmt 0 view .LVU188
 712 0012 7047     		bx	lr
 713              	.L38:
 714              		.align	2
 715              	.L37:
 716 0014 00ED00E0 		.word	-536810240
 717              		.cfi_endproc
 718              	.LFE149:
 719              		.size	HAL_MPU_EnableRegion, .-HAL_MPU_EnableRegion
 720              		.section	.text.HAL_MPU_DisableRegion,"ax",%progbits
 721              		.align	1
 722              		.p2align 2,,3
 723              		.global	HAL_MPU_DisableRegion
 724              		.syntax unified
 725              		.thumb
 726              		.thumb_func
 727              		.type	HAL_MPU_DisableRegion, %function
 728              	HAL_MPU_DisableRegion:
 729              	.LVL40:
 730              	.LFB150:
 731              		.loc 1 313 1 is_stmt 1 view -0
 732              		.cfi_startproc
 733              		@ args = 0, pretend = 0, frame = 0
 734              		@ frame_needed = 0, uses_anonymous_args = 0
 735              		@ link register save eliminated.
 736              		.loc 1 315 3 view .LVU190
 737              		.loc 1 318 3 view .LVU191
 738              		.loc 1 318 12 is_stmt 0 view .LVU192
 739 0000 044B     		ldr	r3, .L40
 740 0002 C3F89800 		str	r0, [r3, #152]
 741              		.loc 1 321 3 is_stmt 1 view .LVU193
ARM GAS  C:\Users\DEVELO~1\AppData\Local\Temp\cc83s5mZ.s 			page 14


 742 0006 D3F8A020 		ldr	r2, [r3, #160]
 743 000a 22F00102 		bic	r2, r2, #1
 744 000e C3F8A020 		str	r2, [r3, #160]
 745              		.loc 1 322 1 is_stmt 0 view .LVU194
 746 0012 7047     		bx	lr
 747              	.L41:
 748              		.align	2
 749              	.L40:
 750 0014 00ED00E0 		.word	-536810240
 751              		.cfi_endproc
 752              	.LFE150:
 753              		.size	HAL_MPU_DisableRegion, .-HAL_MPU_DisableRegion
 754              		.section	.text.HAL_MPU_ConfigRegion,"ax",%progbits
 755              		.align	1
 756              		.p2align 2,,3
 757              		.global	HAL_MPU_ConfigRegion
 758              		.syntax unified
 759              		.thumb
 760              		.thumb_func
 761              		.type	HAL_MPU_ConfigRegion, %function
 762              	HAL_MPU_ConfigRegion:
 763              	.LVL41:
 764              	.LFB151:
 765              		.loc 1 331 1 is_stmt 1 view -0
 766              		.cfi_startproc
 767              		@ args = 0, pretend = 0, frame = 0
 768              		@ frame_needed = 0, uses_anonymous_args = 0
 769              		@ link register save eliminated.
 770              		.loc 1 333 3 view .LVU196
 771              		.loc 1 334 3 view .LVU197
 772              		.loc 1 335 3 view .LVU198
 773              		.loc 1 336 3 view .LVU199
 774              		.loc 1 337 3 view .LVU200
 775              		.loc 1 338 3 view .LVU201
 776              		.loc 1 339 3 view .LVU202
 777              		.loc 1 340 3 view .LVU203
 778              		.loc 1 341 3 view .LVU204
 779              		.loc 1 342 3 view .LVU205
 780              		.loc 1 345 3 view .LVU206
 781              		.loc 1 345 12 is_stmt 0 view .LVU207
 782 0000 164A     		ldr	r2, .L43
 783              		.loc 1 345 22 view .LVU208
 784 0002 4378     		ldrb	r3, [r0, #1]	@ zero_extendqisi2
 785              		.loc 1 345 12 view .LVU209
 786 0004 C2F89830 		str	r3, [r2, #152]
 787              		.loc 1 348 3 is_stmt 1 view .LVU210
 788 0008 D2F8A030 		ldr	r3, [r2, #160]
 789 000c 23F00103 		bic	r3, r3, #1
 790 0010 C2F8A030 		str	r3, [r2, #160]
 791              		.loc 1 351 3 view .LVU211
 792              		.loc 1 351 23 is_stmt 0 view .LVU212
 793 0014 4368     		ldr	r3, [r0, #4]
 794              		.loc 1 351 13 view .LVU213
 795 0016 C2F89C30 		str	r3, [r2, #156]
 796              		.loc 1 352 3 is_stmt 1 view .LVU214
 797              		.loc 1 353 16 is_stmt 0 view .LVU215
 798 001a C37A     		ldrb	r3, [r0, #11]	@ zero_extendqisi2
ARM GAS  C:\Users\DEVELO~1\AppData\Local\Temp\cc83s5mZ.s 			page 15


 799              		.loc 1 352 16 view .LVU216
 800 001c 90F80CC0 		ldrb	ip, [r0, #12]	@ zero_extendqisi2
 801              		.loc 1 353 60 view .LVU217
 802 0020 1B06     		lsls	r3, r3, #24
 803              		.loc 1 360 60 view .LVU218
 804 0022 0178     		ldrb	r1, [r0]	@ zero_extendqisi2
 805              		.loc 1 352 82 view .LVU219
 806 0024 43EA0C73 		orr	r3, r3, ip, lsl #28
 807              		.loc 1 354 16 view .LVU220
 808 0028 90F80AC0 		ldrb	ip, [r0, #10]	@ zero_extendqisi2
 809              		.loc 1 359 82 view .LVU221
 810 002c 0B43     		orrs	r3, r3, r1
 811              		.loc 1 355 16 view .LVU222
 812 002e 417B     		ldrb	r1, [r0, #13]	@ zero_extendqisi2
 813              		.loc 1 359 82 view .LVU223
 814 0030 43EACC43 		orr	r3, r3, ip, lsl #19
 815              		.loc 1 356 16 view .LVU224
 816 0034 90F80EC0 		ldrb	ip, [r0, #14]	@ zero_extendqisi2
 817              		.loc 1 359 82 view .LVU225
 818 0038 43EA8143 		orr	r3, r3, r1, lsl #18
 819              		.loc 1 357 16 view .LVU226
 820 003c C17B     		ldrb	r1, [r0, #15]	@ zero_extendqisi2
 821              		.loc 1 359 82 view .LVU227
 822 003e 43EA4C43 		orr	r3, r3, ip, lsl #17
 823              		.loc 1 358 16 view .LVU228
 824 0042 90F809C0 		ldrb	ip, [r0, #9]	@ zero_extendqisi2
 825              		.loc 1 359 82 view .LVU229
 826 0046 43EA0143 		orr	r3, r3, r1, lsl #16
 827              		.loc 1 359 16 view .LVU230
 828 004a 017A     		ldrb	r1, [r0, #8]	@ zero_extendqisi2
 829              		.loc 1 359 82 view .LVU231
 830 004c 43EA0C23 		orr	r3, r3, ip, lsl #8
 831 0050 43EA4103 		orr	r3, r3, r1, lsl #1
 832              		.loc 1 352 13 view .LVU232
 833 0054 C2F8A030 		str	r3, [r2, #160]
 834              		.loc 1 361 1 view .LVU233
 835 0058 7047     		bx	lr
 836              	.L44:
 837 005a 00BF     		.align	2
 838              	.L43:
 839 005c 00ED00E0 		.word	-536810240
 840              		.cfi_endproc
 841              	.LFE151:
 842              		.size	HAL_MPU_ConfigRegion, .-HAL_MPU_ConfigRegion
 843              		.section	.text.HAL_NVIC_GetPriorityGrouping,"ax",%progbits
 844              		.align	1
 845              		.p2align 2,,3
 846              		.global	HAL_NVIC_GetPriorityGrouping
 847              		.syntax unified
 848              		.thumb
 849              		.thumb_func
 850              		.type	HAL_NVIC_GetPriorityGrouping, %function
 851              	HAL_NVIC_GetPriorityGrouping:
 852              	.LFB152:
 853              		.loc 1 369 1 is_stmt 1 view -0
 854              		.cfi_startproc
 855              		@ args = 0, pretend = 0, frame = 0
ARM GAS  C:\Users\DEVELO~1\AppData\Local\Temp\cc83s5mZ.s 			page 16


 856              		@ frame_needed = 0, uses_anonymous_args = 0
 857              		@ link register save eliminated.
 858              		.loc 1 371 3 view .LVU235
 859              	.LBB103:
 860              	.LBI103:
 861              		.loc 2 1884 26 view .LVU236
 862              	.LBB104:
 863              		.loc 2 1886 3 view .LVU237
 864              		.loc 2 1886 26 is_stmt 0 view .LVU238
 865 0000 024B     		ldr	r3, .L46
 866 0002 D868     		ldr	r0, [r3, #12]
 867              	.LBE104:
 868              	.LBE103:
 869              		.loc 1 372 1 view .LVU239
 870 0004 C0F30220 		ubfx	r0, r0, #8, #3
 871 0008 7047     		bx	lr
 872              	.L47:
 873 000a 00BF     		.align	2
 874              	.L46:
 875 000c 00ED00E0 		.word	-536810240
 876              		.cfi_endproc
 877              	.LFE152:
 878              		.size	HAL_NVIC_GetPriorityGrouping, .-HAL_NVIC_GetPriorityGrouping
 879              		.section	.text.HAL_NVIC_GetPriority,"ax",%progbits
 880              		.align	1
 881              		.p2align 2,,3
 882              		.global	HAL_NVIC_GetPriority
 883              		.syntax unified
 884              		.thumb
 885              		.thumb_func
 886              		.type	HAL_NVIC_GetPriority, %function
 887              	HAL_NVIC_GetPriority:
 888              	.LVL42:
 889              	.LFB153:
 890              		.loc 1 396 1 is_stmt 1 view -0
 891              		.cfi_startproc
 892              		@ args = 0, pretend = 0, frame = 0
 893              		@ frame_needed = 0, uses_anonymous_args = 0
 894              		@ link register save eliminated.
 895              		.loc 1 398 3 view .LVU241
 896              		.loc 1 400 3 view .LVU242
 897              	.LBB109:
 898              	.LBI109:
 899              		.loc 2 2046 26 view .LVU243
 900              	.LBB110:
 901              		.loc 2 2049 3 view .LVU244
 902              		.loc 2 2049 6 is_stmt 0 view .LVU245
 903 0000 0028     		cmp	r0, #0
 904              	.LVL43:
 905              		.loc 2 2049 6 view .LVU246
 906              	.LBE110:
 907              	.LBE109:
 908              		.loc 1 396 1 view .LVU247
 909 0002 10B4     		push	{r4}
 910              		.cfi_def_cfa_offset 4
 911              		.cfi_offset 4, -4
 912              	.LBB113:
ARM GAS  C:\Users\DEVELO~1\AppData\Local\Temp\cc83s5mZ.s 			page 17


 913              	.LBB111:
 914              		.loc 2 2049 6 view .LVU248
 915 0004 22DB     		blt	.L49
 916              		.loc 2 2051 5 is_stmt 1 view .LVU249
 917              		.loc 2 2051 31 is_stmt 0 view .LVU250
 918 0006 144C     		ldr	r4, .L54
 919 0008 205C     		ldrb	r0, [r4, r0]	@ zero_extendqisi2
 920              		.loc 2 2051 65 view .LVU251
 921 000a 0009     		lsrs	r0, r0, #4
 922              	.L50:
 923              	.LVL44:
 924              		.loc 2 2051 65 view .LVU252
 925              	.LBE111:
 926              	.LBE113:
 927              	.LBB114:
 928              	.LBI114:
 929              		.loc 2 2098 22 is_stmt 1 view .LVU253
 930              	.LBB115:
 931              		.loc 2 2100 3 view .LVU254
 932              		.loc 2 2100 12 is_stmt 0 view .LVU255
 933 000c 01F00701 		and	r1, r1, #7
 934              	.LVL45:
 935              		.loc 2 2101 3 is_stmt 1 view .LVU256
 936              		.loc 2 2102 3 view .LVU257
 937              		.loc 2 2104 3 view .LVU258
 938              		.loc 2 2104 31 is_stmt 0 view .LVU259
 939 0010 C1F1070C 		rsb	ip, r1, #7
 940              		.loc 2 2105 44 view .LVU260
 941 0014 0C1D     		adds	r4, r1, #4
 942              		.loc 2 2104 23 view .LVU261
 943 0016 BCF1040F 		cmp	ip, #4
 944 001a 28BF     		it	cs
 945 001c 4FF0040C 		movcs	ip, #4
 946              	.LVL46:
 947              		.loc 2 2105 3 is_stmt 1 view .LVU262
 948              		.loc 2 2105 109 is_stmt 0 view .LVU263
 949 0020 062C     		cmp	r4, #6
 950 0022 11D9     		bls	.L52
 951 0024 0339     		subs	r1, r1, #3
 952              	.LVL47:
 953              		.loc 2 2108 53 view .LVU264
 954 0026 4FF0FF34 		mov	r4, #-1
 955 002a 8C40     		lsls	r4, r4, r1
 956 002c 20EA0404 		bic	r4, r0, r4
 957 0030 C840     		lsrs	r0, r0, r1
 958              	.LVL48:
 959              	.L51:
 960              		.loc 2 2107 3 is_stmt 1 view .LVU265
 961              		.loc 2 2107 53 is_stmt 0 view .LVU266
 962 0032 4FF0FF31 		mov	r1, #-1
 963 0036 01FA0CF1 		lsl	r1, r1, ip
 964 003a 20EA0100 		bic	r0, r0, r1
 965              		.loc 2 2107 21 view .LVU267
 966 003e 1060     		str	r0, [r2]
 967              		.loc 2 2108 3 is_stmt 1 view .LVU268
 968              		.loc 2 2108 21 is_stmt 0 view .LVU269
 969 0040 1C60     		str	r4, [r3]
ARM GAS  C:\Users\DEVELO~1\AppData\Local\Temp\cc83s5mZ.s 			page 18


 970              	.LVL49:
 971              		.loc 2 2108 21 view .LVU270
 972              	.LBE115:
 973              	.LBE114:
 974              		.loc 1 401 1 view .LVU271
 975 0042 5DF8044B 		ldr	r4, [sp], #4
 976              		.cfi_remember_state
 977              		.cfi_restore 4
 978              		.cfi_def_cfa_offset 0
 979 0046 7047     		bx	lr
 980              	.LVL50:
 981              	.L52:
 982              		.cfi_restore_state
 983              	.LBB117:
 984              	.LBB116:
 985              		.loc 1 401 1 view .LVU272
 986 0048 0024     		movs	r4, #0
 987 004a F2E7     		b	.L51
 988              	.LVL51:
 989              	.L49:
 990              		.loc 1 401 1 view .LVU273
 991              	.LBE116:
 992              	.LBE117:
 993              	.LBB118:
 994              	.LBB112:
 995              		.loc 2 2055 5 is_stmt 1 view .LVU274
 996              		.loc 2 2055 51 is_stmt 0 view .LVU275
 997 004c 00F00F00 		and	r0, r0, #15
 998              		.loc 2 2055 32 view .LVU276
 999 0050 024C     		ldr	r4, .L54+4
 1000 0052 205C     		ldrb	r0, [r4, r0]	@ zero_extendqisi2
 1001              		.loc 2 2055 65 view .LVU277
 1002 0054 0009     		lsrs	r0, r0, #4
 1003 0056 D9E7     		b	.L50
 1004              	.L55:
 1005              		.align	2
 1006              	.L54:
 1007 0058 00E400E0 		.word	-536812544
 1008 005c 14ED00E0 		.word	-536810220
 1009              	.LBE112:
 1010              	.LBE118:
 1011              		.cfi_endproc
 1012              	.LFE153:
 1013              		.size	HAL_NVIC_GetPriority, .-HAL_NVIC_GetPriority
 1014              		.section	.text.HAL_NVIC_SetPendingIRQ,"ax",%progbits
 1015              		.align	1
 1016              		.p2align 2,,3
 1017              		.global	HAL_NVIC_SetPendingIRQ
 1018              		.syntax unified
 1019              		.thumb
 1020              		.thumb_func
 1021              		.type	HAL_NVIC_SetPendingIRQ, %function
 1022              	HAL_NVIC_SetPendingIRQ:
 1023              	.LVL52:
 1024              	.LFB154:
 1025              		.loc 1 411 1 is_stmt 1 view -0
 1026              		.cfi_startproc
ARM GAS  C:\Users\DEVELO~1\AppData\Local\Temp\cc83s5mZ.s 			page 19


 1027              		@ args = 0, pretend = 0, frame = 0
 1028              		@ frame_needed = 0, uses_anonymous_args = 0
 1029              		@ link register save eliminated.
 1030              		.loc 1 413 3 view .LVU279
 1031              		.loc 1 416 3 view .LVU280
 1032              	.LBB119:
 1033              	.LBI119:
 1034              		.loc 2 1970 22 view .LVU281
 1035              	.LBB120:
 1036              		.loc 2 1972 3 view .LVU282
 1037              		.loc 2 1972 6 is_stmt 0 view .LVU283
 1038 0000 0028     		cmp	r0, #0
 1039              	.LVL53:
 1040              		.loc 2 1972 6 view .LVU284
 1041 0002 08DB     		blt	.L56
 1042              		.loc 2 1974 5 is_stmt 1 view .LVU285
 1043              		.loc 2 1974 34 is_stmt 0 view .LVU286
 1044 0004 4309     		lsrs	r3, r0, #5
 1045              		.loc 2 1974 45 view .LVU287
 1046 0006 0122     		movs	r2, #1
 1047              		.loc 2 1974 81 view .LVU288
 1048 0008 00F01F00 		and	r0, r0, #31
 1049              		.loc 2 1974 43 view .LVU289
 1050 000c 0249     		ldr	r1, .L58
 1051 000e 4033     		adds	r3, r3, #64
 1052              		.loc 2 1974 45 view .LVU290
 1053 0010 8240     		lsls	r2, r2, r0
 1054              		.loc 2 1974 43 view .LVU291
 1055 0012 41F82320 		str	r2, [r1, r3, lsl #2]
 1056              	.LVL54:
 1057              	.L56:
 1058              		.loc 2 1974 43 view .LVU292
 1059              	.LBE120:
 1060              	.LBE119:
 1061              		.loc 1 417 1 view .LVU293
 1062 0016 7047     		bx	lr
 1063              	.L59:
 1064              		.align	2
 1065              	.L58:
 1066 0018 00E100E0 		.word	-536813312
 1067              		.cfi_endproc
 1068              	.LFE154:
 1069              		.size	HAL_NVIC_SetPendingIRQ, .-HAL_NVIC_SetPendingIRQ
 1070              		.section	.text.HAL_NVIC_GetPendingIRQ,"ax",%progbits
 1071              		.align	1
 1072              		.p2align 2,,3
 1073              		.global	HAL_NVIC_GetPendingIRQ
 1074              		.syntax unified
 1075              		.thumb
 1076              		.thumb_func
 1077              		.type	HAL_NVIC_GetPendingIRQ, %function
 1078              	HAL_NVIC_GetPendingIRQ:
 1079              	.LVL55:
 1080              	.LFB155:
 1081              		.loc 1 429 1 is_stmt 1 view -0
 1082              		.cfi_startproc
 1083              		@ args = 0, pretend = 0, frame = 0
ARM GAS  C:\Users\DEVELO~1\AppData\Local\Temp\cc83s5mZ.s 			page 20


 1084              		@ frame_needed = 0, uses_anonymous_args = 0
 1085              		@ link register save eliminated.
 1086              		.loc 1 431 3 view .LVU295
 1087              		.loc 1 434 3 view .LVU296
 1088              	.LBB121:
 1089              	.LBI121:
 1090              		.loc 2 1951 26 view .LVU297
 1091              	.LBB122:
 1092              		.loc 2 1953 3 view .LVU298
 1093              		.loc 2 1953 6 is_stmt 0 view .LVU299
 1094 0000 0028     		cmp	r0, #0
 1095              	.LVL56:
 1096              		.loc 2 1953 6 view .LVU300
 1097 0002 0BDB     		blt	.L62
 1098              		.loc 2 1955 5 is_stmt 1 view .LVU301
 1099              		.loc 2 1955 54 is_stmt 0 view .LVU302
 1100 0004 4309     		lsrs	r3, r0, #5
 1101              		.loc 2 1955 35 view .LVU303
 1102 0006 064A     		ldr	r2, .L63
 1103              		.loc 2 1955 91 view .LVU304
 1104 0008 00F01F00 		and	r0, r0, #31
 1105              		.loc 2 1955 35 view .LVU305
 1106 000c 4033     		adds	r3, r3, #64
 1107 000e 52F82330 		ldr	r3, [r2, r3, lsl #2]
 1108              		.loc 2 1955 103 view .LVU306
 1109 0012 23FA00F0 		lsr	r0, r3, r0
 1110              		.loc 2 1955 12 view .LVU307
 1111 0016 00F00100 		and	r0, r0, #1
 1112 001a 7047     		bx	lr
 1113              	.L62:
 1114              		.loc 2 1959 11 view .LVU308
 1115 001c 0020     		movs	r0, #0
 1116              	.LVL57:
 1117              		.loc 2 1959 11 view .LVU309
 1118              	.LBE122:
 1119              	.LBE121:
 1120              		.loc 1 435 1 view .LVU310
 1121 001e 7047     		bx	lr
 1122              	.L64:
 1123              		.align	2
 1124              	.L63:
 1125 0020 00E100E0 		.word	-536813312
 1126              		.cfi_endproc
 1127              	.LFE155:
 1128              		.size	HAL_NVIC_GetPendingIRQ, .-HAL_NVIC_GetPendingIRQ
 1129              		.section	.text.HAL_NVIC_ClearPendingIRQ,"ax",%progbits
 1130              		.align	1
 1131              		.p2align 2,,3
 1132              		.global	HAL_NVIC_ClearPendingIRQ
 1133              		.syntax unified
 1134              		.thumb
 1135              		.thumb_func
 1136              		.type	HAL_NVIC_ClearPendingIRQ, %function
 1137              	HAL_NVIC_ClearPendingIRQ:
 1138              	.LVL58:
 1139              	.LFB156:
 1140              		.loc 1 445 1 is_stmt 1 view -0
ARM GAS  C:\Users\DEVELO~1\AppData\Local\Temp\cc83s5mZ.s 			page 21


 1141              		.cfi_startproc
 1142              		@ args = 0, pretend = 0, frame = 0
 1143              		@ frame_needed = 0, uses_anonymous_args = 0
 1144              		@ link register save eliminated.
 1145              		.loc 1 447 3 view .LVU312
 1146              		.loc 1 450 3 view .LVU313
 1147              	.LBB123:
 1148              	.LBI123:
 1149              		.loc 2 1985 22 view .LVU314
 1150              	.LBB124:
 1151              		.loc 2 1987 3 view .LVU315
 1152              		.loc 2 1987 6 is_stmt 0 view .LVU316
 1153 0000 0028     		cmp	r0, #0
 1154              	.LVL59:
 1155              		.loc 2 1987 6 view .LVU317
 1156 0002 08DB     		blt	.L65
 1157              		.loc 2 1989 5 is_stmt 1 view .LVU318
 1158              		.loc 2 1989 34 is_stmt 0 view .LVU319
 1159 0004 4309     		lsrs	r3, r0, #5
 1160              		.loc 2 1989 45 view .LVU320
 1161 0006 0122     		movs	r2, #1
 1162              		.loc 2 1989 81 view .LVU321
 1163 0008 00F01F00 		and	r0, r0, #31
 1164              		.loc 2 1989 43 view .LVU322
 1165 000c 0249     		ldr	r1, .L67
 1166 000e 6033     		adds	r3, r3, #96
 1167              		.loc 2 1989 45 view .LVU323
 1168 0010 8240     		lsls	r2, r2, r0
 1169              		.loc 2 1989 43 view .LVU324
 1170 0012 41F82320 		str	r2, [r1, r3, lsl #2]
 1171              	.LVL60:
 1172              	.L65:
 1173              		.loc 2 1989 43 view .LVU325
 1174              	.LBE124:
 1175              	.LBE123:
 1176              		.loc 1 451 1 view .LVU326
 1177 0016 7047     		bx	lr
 1178              	.L68:
 1179              		.align	2
 1180              	.L67:
 1181 0018 00E100E0 		.word	-536813312
 1182              		.cfi_endproc
 1183              	.LFE156:
 1184              		.size	HAL_NVIC_ClearPendingIRQ, .-HAL_NVIC_ClearPendingIRQ
 1185              		.section	.text.HAL_NVIC_GetActive,"ax",%progbits
 1186              		.align	1
 1187              		.p2align 2,,3
 1188              		.global	HAL_NVIC_GetActive
 1189              		.syntax unified
 1190              		.thumb
 1191              		.thumb_func
 1192              		.type	HAL_NVIC_GetActive, %function
 1193              	HAL_NVIC_GetActive:
 1194              	.LVL61:
 1195              	.LFB157:
 1196              		.loc 1 462 1 is_stmt 1 view -0
 1197              		.cfi_startproc
ARM GAS  C:\Users\DEVELO~1\AppData\Local\Temp\cc83s5mZ.s 			page 22


 1198              		@ args = 0, pretend = 0, frame = 0
 1199              		@ frame_needed = 0, uses_anonymous_args = 0
 1200              		@ link register save eliminated.
 1201              		.loc 1 464 3 view .LVU328
 1202              		.loc 1 467 3 view .LVU329
 1203              	.LBB125:
 1204              	.LBI125:
 1205              		.loc 2 2002 26 view .LVU330
 1206              	.LBB126:
 1207              		.loc 2 2004 3 view .LVU331
 1208              		.loc 2 2004 6 is_stmt 0 view .LVU332
 1209 0000 0028     		cmp	r0, #0
 1210              	.LVL62:
 1211              		.loc 2 2004 6 view .LVU333
 1212 0002 0BDB     		blt	.L71
 1213              		.loc 2 2006 5 is_stmt 1 view .LVU334
 1214              		.loc 2 2006 54 is_stmt 0 view .LVU335
 1215 0004 4309     		lsrs	r3, r0, #5
 1216              		.loc 2 2006 35 view .LVU336
 1217 0006 064A     		ldr	r2, .L72
 1218              		.loc 2 2006 91 view .LVU337
 1219 0008 00F01F00 		and	r0, r0, #31
 1220              		.loc 2 2006 35 view .LVU338
 1221 000c 8033     		adds	r3, r3, #128
 1222 000e 52F82330 		ldr	r3, [r2, r3, lsl #2]
 1223              		.loc 2 2006 103 view .LVU339
 1224 0012 23FA00F0 		lsr	r0, r3, r0
 1225              		.loc 2 2006 12 view .LVU340
 1226 0016 00F00100 		and	r0, r0, #1
 1227 001a 7047     		bx	lr
 1228              	.L71:
 1229              		.loc 2 2010 11 view .LVU341
 1230 001c 0020     		movs	r0, #0
 1231              	.LVL63:
 1232              		.loc 2 2010 11 view .LVU342
 1233              	.LBE126:
 1234              	.LBE125:
 1235              		.loc 1 468 1 view .LVU343
 1236 001e 7047     		bx	lr
 1237              	.L73:
 1238              		.align	2
 1239              	.L72:
 1240 0020 00E100E0 		.word	-536813312
 1241              		.cfi_endproc
 1242              	.LFE157:
 1243              		.size	HAL_NVIC_GetActive, .-HAL_NVIC_GetActive
 1244              		.section	.text.HAL_SYSTICK_CLKSourceConfig,"ax",%progbits
 1245              		.align	1
 1246              		.p2align 2,,3
 1247              		.global	HAL_SYSTICK_CLKSourceConfig
 1248              		.syntax unified
 1249              		.thumb
 1250              		.thumb_func
 1251              		.type	HAL_SYSTICK_CLKSourceConfig, %function
 1252              	HAL_SYSTICK_CLKSourceConfig:
 1253              	.LVL64:
 1254              	.LFB158:
ARM GAS  C:\Users\DEVELO~1\AppData\Local\Temp\cc83s5mZ.s 			page 23


 1255              		.loc 1 479 1 is_stmt 1 view -0
 1256              		.cfi_startproc
 1257              		@ args = 0, pretend = 0, frame = 0
 1258              		@ frame_needed = 0, uses_anonymous_args = 0
 1259              		@ link register save eliminated.
 1260              		.loc 1 481 3 view .LVU345
 1261              		.loc 1 482 3 view .LVU346
 1262              		.loc 1 484 19 is_stmt 0 view .LVU347
 1263 0000 4FF0E022 		mov	r2, #-536813568
 1264              		.loc 1 482 6 view .LVU348
 1265 0004 0428     		cmp	r0, #4
 1266              		.loc 1 484 5 is_stmt 1 view .LVU349
 1267              		.loc 1 484 19 is_stmt 0 view .LVU350
 1268 0006 1369     		ldr	r3, [r2, #16]
 1269 0008 0CBF     		ite	eq
 1270 000a 43F00403 		orreq	r3, r3, #4
 1271              		.loc 1 488 5 is_stmt 1 view .LVU351
 1272              		.loc 1 488 19 is_stmt 0 view .LVU352
 1273 000e 23F00403 		bicne	r3, r3, #4
 1274 0012 1361     		str	r3, [r2, #16]
 1275              		.loc 1 490 1 view .LVU353
 1276 0014 7047     		bx	lr
 1277              		.cfi_endproc
 1278              	.LFE158:
 1279              		.size	HAL_SYSTICK_CLKSourceConfig, .-HAL_SYSTICK_CLKSourceConfig
 1280 0016 00BF     		.section	.text.HAL_SYSTICK_Callback,"ax",%progbits
 1281              		.align	1
 1282              		.p2align 2,,3
 1283              		.weak	HAL_SYSTICK_Callback
 1284              		.syntax unified
 1285              		.thumb
 1286              		.thumb_func
 1287              		.type	HAL_SYSTICK_Callback, %function
 1288              	HAL_SYSTICK_Callback:
 1289              	.LFB160:
 1290              		.loc 1 506 1 is_stmt 1 view -0
 1291              		.cfi_startproc
 1292              		@ args = 0, pretend = 0, frame = 0
 1293              		@ frame_needed = 0, uses_anonymous_args = 0
 1294              		@ link register save eliminated.
 1295              		.loc 1 510 1 view .LVU355
 1296 0000 7047     		bx	lr
 1297              		.cfi_endproc
 1298              	.LFE160:
 1299              		.size	HAL_SYSTICK_Callback, .-HAL_SYSTICK_Callback
 1300 0002 00BF     		.section	.text.HAL_SYSTICK_IRQHandler,"ax",%progbits
 1301              		.align	1
 1302              		.p2align 2,,3
 1303              		.global	HAL_SYSTICK_IRQHandler
 1304              		.syntax unified
 1305              		.thumb
 1306              		.thumb_func
 1307              		.type	HAL_SYSTICK_IRQHandler, %function
 1308              	HAL_SYSTICK_IRQHandler:
 1309              	.LFB159:
 1310              		.loc 1 497 1 view -0
 1311              		.cfi_startproc
ARM GAS  C:\Users\DEVELO~1\AppData\Local\Temp\cc83s5mZ.s 			page 24


 1312              		@ args = 0, pretend = 0, frame = 0
 1313              		@ frame_needed = 0, uses_anonymous_args = 0
 1314              		.loc 1 498 3 view .LVU357
 1315              		.loc 1 497 1 is_stmt 0 view .LVU358
 1316 0000 08B5     		push	{r3, lr}
 1317              		.cfi_def_cfa_offset 8
 1318              		.cfi_offset 3, -8
 1319              		.cfi_offset 14, -4
 1320              		.loc 1 498 3 view .LVU359
 1321 0002 FFF7FEFF 		bl	HAL_SYSTICK_Callback
 1322              	.LVL65:
 1323              		.loc 1 499 1 view .LVU360
 1324 0006 08BD     		pop	{r3, pc}
 1325              		.cfi_endproc
 1326              	.LFE159:
 1327              		.size	HAL_SYSTICK_IRQHandler, .-HAL_SYSTICK_IRQHandler
 1328              		.section	.text.HAL_GetCurrentCPUID,"ax",%progbits
 1329              		.align	1
 1330              		.p2align 2,,3
 1331              		.global	HAL_GetCurrentCPUID
 1332              		.syntax unified
 1333              		.thumb
 1334              		.thumb_func
 1335              		.type	HAL_GetCurrentCPUID, %function
 1336              	HAL_GetCurrentCPUID:
 1337              	.LFB161:
 1338              		.loc 1 537 1 is_stmt 1 view -0
 1339              		.cfi_startproc
 1340              		@ args = 0, pretend = 0, frame = 0
 1341              		@ frame_needed = 0, uses_anonymous_args = 0
 1342              		@ link register save eliminated.
 1343              		.loc 1 538 3 view .LVU362
 1344              		.loc 1 539 1 is_stmt 0 view .LVU363
 1345 0000 0320     		movs	r0, #3
 1346 0002 7047     		bx	lr
 1347              		.cfi_endproc
 1348              	.LFE161:
 1349              		.size	HAL_GetCurrentCPUID, .-HAL_GetCurrentCPUID
 1350              		.text
 1351              	.Letext0:
 1352              		.file 4 "./docs/ChibiOS/os/common/ext/ST/STM32H7xx/stm32h743xx.h"
 1353              		.file 5 "c:\\chibistudio\\tools\\gnu tools arm embedded\\11.3 2022.08\\arm-none-eabi\\include\\mac
 1354              		.file 6 "c:\\chibistudio\\tools\\gnu tools arm embedded\\11.3 2022.08\\arm-none-eabi\\include\\sys
 1355              		.file 7 "./drivers/stm32h7xx-hal-driver/Inc/stm32h7xx_hal_cortex.h"