ARM GAS  C:\Users\DEVELO~1\AppData\Local\Temp\ccmErl8R.s 			page 1


   1              		.cpu cortex-m7
   2              		.arch armv7e-m
   3              		.fpu fpv5-d16
   4              		.eabi_attribute 28, 1
   5              		.eabi_attribute 20, 1
   6              		.eabi_attribute 21, 1
   7              		.eabi_attribute 23, 3
   8              		.eabi_attribute 24, 1
   9              		.eabi_attribute 25, 1
  10              		.eabi_attribute 26, 1
  11              		.eabi_attribute 30, 2
  12              		.eabi_attribute 34, 1
  13              		.eabi_attribute 18, 4
  14              		.file	"stm32h7xx_ll_usb.c"
  15              		.text
  16              	.Ltext0:
  17              		.cfi_sections	.debug_frame
  18              		.section	.text.USB_CoreReset,"ax",%progbits
  19              		.align	1
  20              		.p2align 2,,3
  21              		.syntax unified
  22              		.thumb
  23              		.thumb_func
  24              		.type	USB_CoreReset, %function
  25              	USB_CoreReset:
  26              	.LVL0:
  27              	.LFB175:
  28              		.file 1 "./drivers/stm32h7xx-hal-driver/Src/stm32h7xx_ll_usb.c"
  29              		.loc 1 1386 1 view -0
  30              		.cfi_startproc
  31              		@ args = 0, pretend = 0, frame = 8
  32              		@ frame_needed = 0, uses_anonymous_args = 0
  33              		@ link register save eliminated.
  34              		.loc 1 1387 3 view .LVU1
  35              		.loc 1 1386 1 is_stmt 0 view .LVU2
  36 0000 82B0     		sub	sp, sp, #8
  37              		.cfi_def_cfa_offset 8
  38              		.loc 1 1387 17 view .LVU3
  39 0002 0023     		movs	r3, #0
  40 0004 0193     		str	r3, [sp, #4]
  41 0006 02E0     		b	.L3
  42              	.L11:
  43              		.loc 1 1398 17 view .LVU4
  44 0008 0369     		ldr	r3, [r0, #16]
  45              		.loc 1 1398 53 view .LVU5
  46 000a 002B     		cmp	r3, #0
  47 000c 09DB     		blt	.L10
  48              	.L3:
  49              		.loc 1 1390 3 is_stmt 1 view .LVU6
  50              		.loc 1 1392 5 view .LVU7
  51              		.loc 1 1398 53 view .LVU8
  52              		.loc 1 1392 10 is_stmt 0 view .LVU9
  53 000e 019B     		ldr	r3, [sp, #4]
  54 0010 0133     		adds	r3, r3, #1
  55 0012 0193     		str	r3, [sp, #4]
  56              		.loc 1 1394 5 is_stmt 1 view .LVU10
  57              		.loc 1 1394 15 is_stmt 0 view .LVU11
ARM GAS  C:\Users\DEVELO~1\AppData\Local\Temp\ccmErl8R.s 			page 2


  58 0014 019B     		ldr	r3, [sp, #4]
  59              		.loc 1 1394 8 view .LVU12
  60 0016 B3F1706F 		cmp	r3, #251658240
  61 001a F5D9     		bls	.L11
  62              	.L2:
  63              		.loc 1 1396 14 view .LVU13
  64 001c 0320     		movs	r0, #3
  65              	.LVL1:
  66              		.loc 1 1415 1 view .LVU14
  67 001e 02B0     		add	sp, sp, #8
  68              		.cfi_remember_state
  69              		.cfi_def_cfa_offset 0
  70              		@ sp needed
  71 0020 7047     		bx	lr
  72              	.LVL2:
  73              	.L10:
  74              		.cfi_restore_state
  75              		.loc 1 1401 3 is_stmt 1 view .LVU15
  76              		.loc 1 1401 9 is_stmt 0 view .LVU16
  77 0022 0023     		movs	r3, #0
  78 0024 0193     		str	r3, [sp, #4]
  79              		.loc 1 1402 3 is_stmt 1 view .LVU17
  80              		.loc 1 1402 17 is_stmt 0 view .LVU18
  81 0026 0369     		ldr	r3, [r0, #16]
  82 0028 43F00103 		orr	r3, r3, #1
  83 002c 0361     		str	r3, [r0, #16]
  84 002e 03E0     		b	.L4
  85              	.L13:
  86              		.loc 1 1412 17 view .LVU19
  87 0030 0369     		ldr	r3, [r0, #16]
  88              		.loc 1 1412 52 view .LVU20
  89 0032 13F00103 		ands	r3, r3, #1
  90 0036 07D0     		beq	.L12
  91              	.L4:
  92              		.loc 1 1404 3 is_stmt 1 view .LVU21
  93              		.loc 1 1406 5 view .LVU22
  94              		.loc 1 1412 52 view .LVU23
  95              		.loc 1 1406 10 is_stmt 0 view .LVU24
  96 0038 019B     		ldr	r3, [sp, #4]
  97 003a 0133     		adds	r3, r3, #1
  98 003c 0193     		str	r3, [sp, #4]
  99              		.loc 1 1408 5 is_stmt 1 view .LVU25
 100              		.loc 1 1408 15 is_stmt 0 view .LVU26
 101 003e 019B     		ldr	r3, [sp, #4]
 102              		.loc 1 1408 8 view .LVU27
 103 0040 B3F1706F 		cmp	r3, #251658240
 104 0044 F4D9     		bls	.L13
 105 0046 E9E7     		b	.L2
 106              	.L12:
 107              		.loc 1 1414 10 view .LVU28
 108 0048 1846     		mov	r0, r3
 109              	.LVL3:
 110              		.loc 1 1415 1 view .LVU29
 111 004a 02B0     		add	sp, sp, #8
 112              		.cfi_def_cfa_offset 0
 113              		@ sp needed
 114 004c 7047     		bx	lr
ARM GAS  C:\Users\DEVELO~1\AppData\Local\Temp\ccmErl8R.s 			page 3


 115              		.cfi_endproc
 116              	.LFE175:
 117              		.size	USB_CoreReset, .-USB_CoreReset
 118              		.section	.text.USB_CoreInit,"ax",%progbits
 119              		.align	1
 120              		.p2align 2,,3
 121              		.global	USB_CoreInit
 122              		.syntax unified
 123              		.thumb
 124              		.thumb_func
 125              		.type	USB_CoreInit, %function
 126              	USB_CoreInit:
 127              	.LVL4:
 128              	.LFB141:
 129              		.loc 1 84 1 is_stmt 1 view -0
 130              		.cfi_startproc
 131              		@ args = 20, pretend = 16, frame = 0
 132              		@ frame_needed = 0, uses_anonymous_args = 0
 133              		.loc 1 85 3 view .LVU31
 134              		.loc 1 86 3 view .LVU32
 135              		.loc 1 84 1 is_stmt 0 view .LVU33
 136 0000 84B0     		sub	sp, sp, #16
 137              		.cfi_def_cfa_offset 16
 138 0002 10B5     		push	{r4, lr}
 139              		.cfi_def_cfa_offset 24
 140              		.cfi_offset 4, -24
 141              		.cfi_offset 14, -20
 142              		.loc 1 84 1 view .LVU34
 143 0004 0DF10C0C 		add	ip, sp, #12
 144 0008 0446     		mov	r4, r0
 145 000a 8CE80E00 		stm	ip, {r1, r2, r3}
 146              		.loc 1 86 6 view .LVU35
 147 000e 9DF81130 		ldrb	r3, [sp, #17]	@ zero_extendqisi2
 148 0012 012B     		cmp	r3, #1
 149 0014 2BD1     		bne	.L15
 150              		.loc 1 88 5 is_stmt 1 view .LVU36
 151              		.loc 1 88 17 is_stmt 0 view .LVU37
 152 0016 826B     		ldr	r2, [r0, #56]
 153              		.loc 1 91 19 view .LVU38
 154 0018 A3F14213 		sub	r3, r3, #4325442
 155              		.loc 1 95 8 view .LVU39
 156 001c 9DF81810 		ldrb	r1, [sp, #24]	@ zero_extendqisi2
 157              		.loc 1 88 17 view .LVU40
 158 0020 22F48032 		bic	r2, r2, #65536
 159              		.loc 1 95 8 view .LVU41
 160 0024 0129     		cmp	r1, #1
 161              		.loc 1 88 17 view .LVU42
 162 0026 8263     		str	r2, [r0, #56]
 163              		.loc 1 91 5 is_stmt 1 view .LVU43
 164              		.loc 1 91 19 is_stmt 0 view .LVU44
 165 0028 C268     		ldr	r2, [r0, #12]
 166 002a 03EA0203 		and	r3, r3, r2
 167 002e C360     		str	r3, [r0, #12]
 168              		.loc 1 94 5 is_stmt 1 view .LVU45
 169              		.loc 1 94 19 is_stmt 0 view .LVU46
 170 0030 C368     		ldr	r3, [r0, #12]
 171 0032 23F44013 		bic	r3, r3, #3145728
ARM GAS  C:\Users\DEVELO~1\AppData\Local\Temp\ccmErl8R.s 			page 4


 172 0036 C360     		str	r3, [r0, #12]
 173              		.loc 1 95 5 is_stmt 1 view .LVU47
 174              		.loc 1 95 8 is_stmt 0 view .LVU48
 175 0038 2CD0     		beq	.L21
 176              	.L16:
 177              		.loc 1 101 5 is_stmt 1 view .LVU49
 178              		.loc 1 101 11 is_stmt 0 view .LVU50
 179 003a 2046     		mov	r0, r4
 180              	.LVL5:
 181              		.loc 1 101 11 view .LVU51
 182 003c FFF7FEFF 		bl	USB_CoreReset
 183              	.LVL6:
 184              	.L17:
 185              		.loc 1 123 3 is_stmt 1 view .LVU52
 186              		.loc 1 123 6 is_stmt 0 view .LVU53
 187 0040 9DF80E30 		ldrb	r3, [sp, #14]	@ zero_extendqisi2
 188 0044 012B     		cmp	r3, #1
 189 0046 0ED1     		bne	.L19
 190              		.loc 1 126 5 is_stmt 1 view .LVU54
 191              		.loc 1 126 21 is_stmt 0 view .LVU55
 192 0048 E26D     		ldr	r2, [r4, #92]
 193              		.loc 1 127 21 view .LVU56
 194 004a 154B     		ldr	r3, .L22
 195              		.loc 1 126 21 view .LVU57
 196 004c 92B2     		uxth	r2, r2
 197 004e E265     		str	r2, [r4, #92]
 198              		.loc 1 127 5 is_stmt 1 view .LVU58
 199              		.loc 1 127 21 is_stmt 0 view .LVU59
 200 0050 E26D     		ldr	r2, [r4, #92]
 201 0052 1343     		orrs	r3, r3, r2
 202 0054 E365     		str	r3, [r4, #92]
 203              		.loc 1 129 5 is_stmt 1 view .LVU60
 204              		.loc 1 129 19 is_stmt 0 view .LVU61
 205 0056 A368     		ldr	r3, [r4, #8]
 206 0058 43F00603 		orr	r3, r3, #6
 207 005c A360     		str	r3, [r4, #8]
 208              		.loc 1 130 5 is_stmt 1 view .LVU62
 209              		.loc 1 130 19 is_stmt 0 view .LVU63
 210 005e A368     		ldr	r3, [r4, #8]
 211 0060 43F02003 		orr	r3, r3, #32
 212 0064 A360     		str	r3, [r4, #8]
 213              	.L19:
 214              		.loc 1 133 3 is_stmt 1 view .LVU64
 215              		.loc 1 134 1 is_stmt 0 view .LVU65
 216 0066 BDE81040 		pop	{r4, lr}
 217              		.cfi_remember_state
 218              		.cfi_restore 14
 219              		.cfi_restore 4
 220              		.cfi_def_cfa_offset 16
 221              	.LVL7:
 222              		.loc 1 134 1 view .LVU66
 223 006a 04B0     		add	sp, sp, #16
 224              		.cfi_def_cfa_offset 0
 225 006c 7047     		bx	lr
 226              	.LVL8:
 227              	.L15:
 228              		.cfi_restore_state
ARM GAS  C:\Users\DEVELO~1\AppData\Local\Temp\ccmErl8R.s 			page 5


 229              		.loc 1 106 5 is_stmt 1 view .LVU67
 230              		.loc 1 106 19 is_stmt 0 view .LVU68
 231 006e C368     		ldr	r3, [r0, #12]
 232 0070 43F04003 		orr	r3, r3, #64
 233 0074 C360     		str	r3, [r0, #12]
 234              		.loc 1 109 5 is_stmt 1 view .LVU69
 235              		.loc 1 109 11 is_stmt 0 view .LVU70
 236 0076 FFF7FEFF 		bl	USB_CoreReset
 237              	.LVL9:
 238              		.loc 1 111 8 view .LVU71
 239 007a 9DF81530 		ldrb	r3, [sp, #21]	@ zero_extendqisi2
 240              	.LVL10:
 241              		.loc 1 111 5 is_stmt 1 view .LVU72
 242              		.loc 1 111 8 is_stmt 0 view .LVU73
 243 007e 23B9     		cbnz	r3, .L18
 244              		.loc 1 114 7 is_stmt 1 view .LVU74
 245              		.loc 1 114 19 is_stmt 0 view .LVU75
 246 0080 A36B     		ldr	r3, [r4, #56]
 247 0082 43F48033 		orr	r3, r3, #65536
 248 0086 A363     		str	r3, [r4, #56]
 249 0088 DAE7     		b	.L17
 250              	.L18:
 251              		.loc 1 119 7 is_stmt 1 view .LVU76
 252              		.loc 1 119 19 is_stmt 0 view .LVU77
 253 008a A36B     		ldr	r3, [r4, #56]
 254 008c 23F48033 		bic	r3, r3, #65536
 255 0090 A363     		str	r3, [r4, #56]
 256 0092 D5E7     		b	.L17
 257              	.LVL11:
 258              	.L21:
 259              		.loc 1 97 7 is_stmt 1 view .LVU78
 260              		.loc 1 97 21 is_stmt 0 view .LVU79
 261 0094 C368     		ldr	r3, [r0, #12]
 262 0096 43F48013 		orr	r3, r3, #1048576
 263 009a C360     		str	r3, [r0, #12]
 264 009c CDE7     		b	.L16
 265              	.L23:
 266 009e 00BF     		.align	2
 267              	.L22:
 268 00a0 0000EE03 		.word	65929216
 269              		.cfi_endproc
 270              	.LFE141:
 271              		.size	USB_CoreInit, .-USB_CoreInit
 272              		.section	.text.USB_SetTurnaroundTime,"ax",%progbits
 273              		.align	1
 274              		.p2align 2,,3
 275              		.global	USB_SetTurnaroundTime
 276              		.syntax unified
 277              		.thumb
 278              		.thumb_func
 279              		.type	USB_SetTurnaroundTime, %function
 280              	USB_SetTurnaroundTime:
 281              	.LVL12:
 282              	.LFB142:
 283              		.loc 1 145 1 is_stmt 1 view -0
 284              		.cfi_startproc
 285              		@ args = 0, pretend = 0, frame = 0
ARM GAS  C:\Users\DEVELO~1\AppData\Local\Temp\ccmErl8R.s 			page 6


 286              		@ frame_needed = 0, uses_anonymous_args = 0
 287              		@ link register save eliminated.
 288              		.loc 1 146 3 view .LVU81
 289              		.loc 1 152 3 view .LVU82
 290              		.loc 1 152 6 is_stmt 0 view .LVU83
 291 0000 022A     		cmp	r2, #2
 292              		.loc 1 145 1 view .LVU84
 293 0002 0346     		mov	r3, r0
 294              		.loc 1 152 6 view .LVU85
 295 0004 0AD0     		beq	.L36
 296              	.LVL13:
 297              	.L33:
 298              		.loc 1 152 6 view .LVU86
 299 0006 4FF41051 		mov	r1, #9216
 300              	.LVL14:
 301              	.L25:
 302              		.loc 1 214 3 is_stmt 1 view .LVU87
 303              		.loc 1 214 17 is_stmt 0 view .LVU88
 304 000a DA68     		ldr	r2, [r3, #12]
 305              		.loc 1 218 1 view .LVU89
 306 000c 0020     		movs	r0, #0
 307              		.loc 1 214 17 view .LVU90
 308 000e 22F47052 		bic	r2, r2, #15360
 309 0012 DA60     		str	r2, [r3, #12]
 310              		.loc 1 215 3 is_stmt 1 view .LVU91
 311              		.loc 1 215 17 is_stmt 0 view .LVU92
 312 0014 DA68     		ldr	r2, [r3, #12]
 313 0016 0A43     		orrs	r2, r2, r1
 314 0018 DA60     		str	r2, [r3, #12]
 315              		.loc 1 217 3 is_stmt 1 view .LVU93
 316              		.loc 1 218 1 is_stmt 0 view .LVU94
 317 001a 7047     		bx	lr
 318              	.LVL15:
 319              	.L36:
 320              		.loc 1 154 5 is_stmt 1 view .LVU95
 321              		.loc 1 154 29 is_stmt 0 view .LVU96
 322 001c 234A     		ldr	r2, .L37
 323              	.LVL16:
 324              		.loc 1 154 8 view .LVU97
 325 001e 2448     		ldr	r0, .L37+4
 326              	.LVL17:
 327              		.loc 1 154 29 view .LVU98
 328 0020 0A44     		add	r2, r2, r1
 329              		.loc 1 154 8 view .LVU99
 330 0022 8242     		cmp	r2, r0
 331 0024 2CD9     		bls	.L27
 332              		.loc 1 159 10 is_stmt 1 view .LVU100
 333              		.loc 1 159 34 is_stmt 0 view .LVU101
 334 0026 234A     		ldr	r2, .L37+8
 335              		.loc 1 159 13 view .LVU102
 336 0028 2348     		ldr	r0, .L37+12
 337              		.loc 1 159 34 view .LVU103
 338 002a 0A44     		add	r2, r2, r1
 339              		.loc 1 159 13 view .LVU104
 340 002c 8242     		cmp	r2, r0
 341 002e 2AD9     		bls	.L28
 342              		.loc 1 164 10 is_stmt 1 view .LVU105
ARM GAS  C:\Users\DEVELO~1\AppData\Local\Temp\ccmErl8R.s 			page 7


 343              		.loc 1 164 34 is_stmt 0 view .LVU106
 344 0030 224A     		ldr	r2, .L37+16
 345              		.loc 1 164 13 view .LVU107
 346 0032 2348     		ldr	r0, .L37+20
 347              		.loc 1 164 34 view .LVU108
 348 0034 0A44     		add	r2, r2, r1
 349              		.loc 1 164 13 view .LVU109
 350 0036 8242     		cmp	r2, r0
 351 0038 28D9     		bls	.L29
 352              		.loc 1 169 10 is_stmt 1 view .LVU110
 353              		.loc 1 169 34 is_stmt 0 view .LVU111
 354 003a 224A     		ldr	r2, .L37+24
 355              		.loc 1 169 13 view .LVU112
 356 003c 2248     		ldr	r0, .L37+28
 357              		.loc 1 169 34 view .LVU113
 358 003e 0A44     		add	r2, r2, r1
 359              		.loc 1 169 13 view .LVU114
 360 0040 8242     		cmp	r2, r0
 361 0042 26D3     		bcc	.L30
 362              		.loc 1 174 10 is_stmt 1 view .LVU115
 363              		.loc 1 174 34 is_stmt 0 view .LVU116
 364 0044 214A     		ldr	r2, .L37+32
 365              		.loc 1 174 13 view .LVU117
 366 0046 2248     		ldr	r0, .L37+36
 367              		.loc 1 174 34 view .LVU118
 368 0048 0A44     		add	r2, r2, r1
 369              		.loc 1 174 13 view .LVU119
 370 004a 8242     		cmp	r2, r0
 371 004c 24D9     		bls	.L31
 372              		.loc 1 179 10 is_stmt 1 view .LVU120
 373              		.loc 1 179 34 is_stmt 0 view .LVU121
 374 004e 214A     		ldr	r2, .L37+40
 375              		.loc 1 179 13 view .LVU122
 376 0050 2148     		ldr	r0, .L37+44
 377              		.loc 1 179 34 view .LVU123
 378 0052 0A44     		add	r2, r2, r1
 379              		.loc 1 179 13 view .LVU124
 380 0054 8242     		cmp	r2, r0
 381 0056 22D3     		bcc	.L32
 382              		.loc 1 184 10 is_stmt 1 view .LVU125
 383              		.loc 1 184 34 is_stmt 0 view .LVU126
 384 0058 204A     		ldr	r2, .L37+48
 385              		.loc 1 184 13 view .LVU127
 386 005a 2148     		ldr	r0, .L37+52
 387              		.loc 1 184 34 view .LVU128
 388 005c 0A44     		add	r2, r2, r1
 389              		.loc 1 184 13 view .LVU129
 390 005e 8242     		cmp	r2, r0
 391 0060 D1D3     		bcc	.L33
 392              		.loc 1 189 10 is_stmt 1 view .LVU130
 393              		.loc 1 189 34 is_stmt 0 view .LVU131
 394 0062 204A     		ldr	r2, .L37+56
 395              		.loc 1 189 13 view .LVU132
 396 0064 2048     		ldr	r0, .L37+60
 397              		.loc 1 189 34 view .LVU133
 398 0066 0A44     		add	r2, r2, r1
 399              		.loc 1 189 13 view .LVU134
ARM GAS  C:\Users\DEVELO~1\AppData\Local\Temp\ccmErl8R.s 			page 8


 400 0068 8242     		cmp	r2, r0
 401 006a 1BD3     		bcc	.L34
 402              		.loc 1 194 10 is_stmt 1 view .LVU135
 403              		.loc 1 194 34 is_stmt 0 view .LVU136
 404 006c 1F4A     		ldr	r2, .L37+64
 405              		.loc 1 194 13 view .LVU137
 406 006e 2048     		ldr	r0, .L37+68
 407              		.loc 1 194 34 view .LVU138
 408 0070 0A44     		add	r2, r2, r1
 409              		.loc 1 194 13 view .LVU139
 410 0072 8242     		cmp	r2, r0
 411 0074 34BF     		ite	cc
 412 0076 4FF4E051 		movcc	r1, #7168
 413 007a 4FF4C051 		movcs	r1, #6144
 414              	.LVL18:
 415              		.loc 1 194 13 view .LVU140
 416 007e C4E7     		b	.L25
 417              	.LVL19:
 418              	.L27:
 419              		.loc 1 194 13 view .LVU141
 420 0080 4FF47051 		mov	r1, #15360
 421              	.LVL20:
 422              		.loc 1 194 13 view .LVU142
 423 0084 C1E7     		b	.L25
 424              	.LVL21:
 425              	.L28:
 426              		.loc 1 194 13 view .LVU143
 427 0086 4FF46051 		mov	r1, #14336
 428              	.LVL22:
 429              		.loc 1 194 13 view .LVU144
 430 008a BEE7     		b	.L25
 431              	.LVL23:
 432              	.L29:
 433              		.loc 1 194 13 view .LVU145
 434 008c 4FF45051 		mov	r1, #13312
 435              	.LVL24:
 436              		.loc 1 194 13 view .LVU146
 437 0090 BBE7     		b	.L25
 438              	.LVL25:
 439              	.L30:
 440              		.loc 1 194 13 view .LVU147
 441 0092 4FF44051 		mov	r1, #12288
 442              	.LVL26:
 443              		.loc 1 194 13 view .LVU148
 444 0096 B8E7     		b	.L25
 445              	.LVL27:
 446              	.L31:
 447              		.loc 1 194 13 view .LVU149
 448 0098 4FF43051 		mov	r1, #11264
 449              	.LVL28:
 450              		.loc 1 194 13 view .LVU150
 451 009c B5E7     		b	.L25
 452              	.LVL29:
 453              	.L32:
 454              		.loc 1 194 13 view .LVU151
 455 009e 4FF42051 		mov	r1, #10240
 456              	.LVL30:
ARM GAS  C:\Users\DEVELO~1\AppData\Local\Temp\ccmErl8R.s 			page 9


 457              		.loc 1 194 13 view .LVU152
 458 00a2 B2E7     		b	.L25
 459              	.LVL31:
 460              	.L34:
 461              		.loc 1 194 13 view .LVU153
 462 00a4 4FF40051 		mov	r1, #8192
 463              	.LVL32:
 464              		.loc 1 194 13 view .LVU154
 465 00a8 AFE7     		b	.L25
 466              	.L38:
 467 00aa 00BF     		.align	2
 468              	.L37:
 469 00ac 405327FF 		.word	-14200000
 470 00b0 FF340C00 		.word	799999
 471 00b4 401E1BFF 		.word	-15000000
 472 00b8 3F420F00 		.word	999999
 473 00bc 00DC0BFF 		.word	-16000000
 474 00c0 7F4F1200 		.word	1199999
 475 00c4 808CF9FE 		.word	-17200000
 476 00c8 20D61300 		.word	1300000
 477 00cc 60B6E5FE 		.word	-18500000
 478 00d0 5FE31600 		.word	1499999
 479 00d4 00D3CEFE 		.word	-20000000
 480 00d8 40771B00 		.word	1800000
 481 00dc C05BB3FE 		.word	-21800000
 482 00e0 C0912100 		.word	2200000
 483 00e4 00CA91FE 		.word	-24000000
 484 00e8 20753800 		.word	3700000
 485 00ec E05459FE 		.word	-27700000
 486 00f0 E09C4100 		.word	4300000
 487              		.cfi_endproc
 488              	.LFE142:
 489              		.size	USB_SetTurnaroundTime, .-USB_SetTurnaroundTime
 490              		.section	.text.USB_EnableGlobalInt,"ax",%progbits
 491              		.align	1
 492              		.p2align 2,,3
 493              		.global	USB_EnableGlobalInt
 494              		.syntax unified
 495              		.thumb
 496              		.thumb_func
 497              		.type	USB_EnableGlobalInt, %function
 498              	USB_EnableGlobalInt:
 499              	.LVL33:
 500              	.LFB143:
 501              		.loc 1 227 1 is_stmt 1 view -0
 502              		.cfi_startproc
 503              		@ args = 0, pretend = 0, frame = 0
 504              		@ frame_needed = 0, uses_anonymous_args = 0
 505              		@ link register save eliminated.
 506              		.loc 1 228 3 view .LVU156
 507              		.loc 1 227 1 is_stmt 0 view .LVU157
 508 0000 0346     		mov	r3, r0
 509              		.loc 1 230 1 view .LVU158
 510 0002 0020     		movs	r0, #0
 511              	.LVL34:
 512              		.loc 1 228 17 view .LVU159
 513 0004 9A68     		ldr	r2, [r3, #8]
ARM GAS  C:\Users\DEVELO~1\AppData\Local\Temp\ccmErl8R.s 			page 10


 514 0006 42F00102 		orr	r2, r2, #1
 515 000a 9A60     		str	r2, [r3, #8]
 516              		.loc 1 229 3 is_stmt 1 view .LVU160
 517              		.loc 1 230 1 is_stmt 0 view .LVU161
 518 000c 7047     		bx	lr
 519              		.cfi_endproc
 520              	.LFE143:
 521              		.size	USB_EnableGlobalInt, .-USB_EnableGlobalInt
 522 000e 00BF     		.section	.text.USB_DisableGlobalInt,"ax",%progbits
 523              		.align	1
 524              		.p2align 2,,3
 525              		.global	USB_DisableGlobalInt
 526              		.syntax unified
 527              		.thumb
 528              		.thumb_func
 529              		.type	USB_DisableGlobalInt, %function
 530              	USB_DisableGlobalInt:
 531              	.LVL35:
 532              	.LFB144:
 533              		.loc 1 239 1 is_stmt 1 view -0
 534              		.cfi_startproc
 535              		@ args = 0, pretend = 0, frame = 0
 536              		@ frame_needed = 0, uses_anonymous_args = 0
 537              		@ link register save eliminated.
 538              		.loc 1 240 3 view .LVU163
 539              		.loc 1 239 1 is_stmt 0 view .LVU164
 540 0000 0346     		mov	r3, r0
 541              		.loc 1 242 1 view .LVU165
 542 0002 0020     		movs	r0, #0
 543              	.LVL36:
 544              		.loc 1 240 17 view .LVU166
 545 0004 9A68     		ldr	r2, [r3, #8]
 546 0006 22F00102 		bic	r2, r2, #1
 547 000a 9A60     		str	r2, [r3, #8]
 548              		.loc 1 241 3 is_stmt 1 view .LVU167
 549              		.loc 1 242 1 is_stmt 0 view .LVU168
 550 000c 7047     		bx	lr
 551              		.cfi_endproc
 552              	.LFE144:
 553              		.size	USB_DisableGlobalInt, .-USB_DisableGlobalInt
 554 000e 00BF     		.section	.text.USB_SetCurrentMode,"ax",%progbits
 555              		.align	1
 556              		.p2align 2,,3
 557              		.global	USB_SetCurrentMode
 558              		.syntax unified
 559              		.thumb
 560              		.thumb_func
 561              		.type	USB_SetCurrentMode, %function
 562              	USB_SetCurrentMode:
 563              	.LVL37:
 564              	.LFB145:
 565              		.loc 1 254 1 is_stmt 1 view -0
 566              		.cfi_startproc
 567              		@ args = 0, pretend = 0, frame = 0
 568              		@ frame_needed = 0, uses_anonymous_args = 0
 569              		.loc 1 255 3 view .LVU170
 570              		.loc 1 257 3 view .LVU171
ARM GAS  C:\Users\DEVELO~1\AppData\Local\Temp\ccmErl8R.s 			page 11


 571              		.loc 1 254 1 is_stmt 0 view .LVU172
 572 0000 38B5     		push	{r3, r4, r5, lr}
 573              		.cfi_def_cfa_offset 16
 574              		.cfi_offset 3, -16
 575              		.cfi_offset 4, -12
 576              		.cfi_offset 5, -8
 577              		.cfi_offset 14, -4
 578              		.loc 1 257 17 view .LVU173
 579 0002 C368     		ldr	r3, [r0, #12]
 580              		.loc 1 259 6 view .LVU174
 581 0004 0129     		cmp	r1, #1
 582              		.loc 1 254 1 view .LVU175
 583 0006 0546     		mov	r5, r0
 584              		.loc 1 257 17 view .LVU176
 585 0008 23F0C043 		bic	r3, r3, #1610612736
 586 000c C360     		str	r3, [r0, #12]
 587              		.loc 1 259 3 is_stmt 1 view .LVU177
 588              		.loc 1 259 6 is_stmt 0 view .LVU178
 589 000e 17D0     		beq	.L55
 590              		.loc 1 269 8 is_stmt 1 view .LVU179
 591              		.loc 1 269 11 is_stmt 0 view .LVU180
 592 0010 A1B9     		cbnz	r1, .L46
 593              		.loc 1 271 5 is_stmt 1 view .LVU181
 594              		.loc 1 271 19 is_stmt 0 view .LVU182
 595 0012 C368     		ldr	r3, [r0, #12]
 596              		.loc 1 255 12 view .LVU183
 597 0014 0C46     		mov	r4, r1
 598              		.loc 1 271 19 view .LVU184
 599 0016 43F08043 		orr	r3, r3, #1073741824
 600 001a C360     		str	r3, [r0, #12]
 601 001c 01E0     		b	.L47
 602              	.LVL38:
 603              	.L56:
 604              		.loc 1 277 63 discriminator 1 view .LVU185
 605 001e C82C     		cmp	r4, #200
 606 0020 0CD0     		beq	.L46
 607              	.LVL39:
 608              	.L47:
 609              		.loc 1 273 5 is_stmt 1 discriminator 2 view .LVU186
 610              		.loc 1 275 7 discriminator 2 view .LVU187
 611 0022 0A20     		movs	r0, #10
 612              		.loc 1 276 10 is_stmt 0 discriminator 2 view .LVU188
 613 0024 0444     		add	r4, r4, r0
 614              	.LVL40:
 615              		.loc 1 275 7 discriminator 2 view .LVU189
 616 0026 FFF7FEFF 		bl	HAL_Delay
 617              	.LVL41:
 618              		.loc 1 276 7 is_stmt 1 discriminator 2 view .LVU190
 619              		.loc 1 277 63 discriminator 2 view .LVU191
 620              	.LBB24:
 621              	.LBI24:
 622              		.loc 1 1320 10 discriminator 2 view .LVU192
 623              	.LBB25:
 624              		.loc 1 1322 3 discriminator 2 view .LVU193
 625              		.loc 1 1322 16 is_stmt 0 discriminator 2 view .LVU194
 626 002a 6B69     		ldr	r3, [r5, #20]
 627              	.LVL42:
ARM GAS  C:\Users\DEVELO~1\AppData\Local\Temp\ccmErl8R.s 			page 12


 628              		.loc 1 1322 16 discriminator 2 view .LVU195
 629              	.LBE25:
 630              	.LBE24:
 631              		.loc 1 277 63 discriminator 2 view .LVU196
 632 002c DB07     		lsls	r3, r3, #31
 633 002e F6D4     		bmi	.L56
 634              		.loc 1 284 3 is_stmt 1 view .LVU197
 635              		.loc 1 281 12 is_stmt 0 view .LVU198
 636 0030 A4F1C800 		sub	r0, r4, #200
 637 0034 B0FA80F0 		clz	r0, r0
 638 0038 4009     		lsrs	r0, r0, #5
 639              	.L45:
 640              	.LVL43:
 641              		.loc 1 290 1 view .LVU199
 642 003a 38BD     		pop	{r3, r4, r5, pc}
 643              	.LVL44:
 644              	.L46:
 645              		.loc 1 286 12 view .LVU200
 646 003c 0120     		movs	r0, #1
 647              		.loc 1 290 1 view .LVU201
 648 003e 38BD     		pop	{r3, r4, r5, pc}
 649              	.LVL45:
 650              	.L55:
 651              		.loc 1 261 5 is_stmt 1 view .LVU202
 652              		.loc 1 261 19 is_stmt 0 view .LVU203
 653 0040 C368     		ldr	r3, [r0, #12]
 654              		.loc 1 255 12 view .LVU204
 655 0042 0024     		movs	r4, #0
 656              		.loc 1 261 19 view .LVU205
 657 0044 43F00053 		orr	r3, r3, #536870912
 658 0048 C360     		str	r3, [r0, #12]
 659 004a 01E0     		b	.L44
 660              	.LVL46:
 661              	.L57:
 662              		.loc 1 267 61 discriminator 1 view .LVU206
 663 004c C82C     		cmp	r4, #200
 664 004e F5D0     		beq	.L46
 665              	.LVL47:
 666              	.L44:
 667              		.loc 1 263 5 is_stmt 1 discriminator 2 view .LVU207
 668              		.loc 1 265 7 discriminator 2 view .LVU208
 669 0050 0A20     		movs	r0, #10
 670              		.loc 1 266 10 is_stmt 0 discriminator 2 view .LVU209
 671 0052 0444     		add	r4, r4, r0
 672              	.LVL48:
 673              		.loc 1 265 7 discriminator 2 view .LVU210
 674 0054 FFF7FEFF 		bl	HAL_Delay
 675              	.LVL49:
 676              		.loc 1 266 7 is_stmt 1 discriminator 2 view .LVU211
 677              		.loc 1 267 61 discriminator 2 view .LVU212
 678              	.LBB26:
 679              	.LBI26:
 680              		.loc 1 1320 10 discriminator 2 view .LVU213
 681              	.LBB27:
 682              		.loc 1 1322 3 discriminator 2 view .LVU214
 683              		.loc 1 1322 16 is_stmt 0 discriminator 2 view .LVU215
 684 0058 6B69     		ldr	r3, [r5, #20]
ARM GAS  C:\Users\DEVELO~1\AppData\Local\Temp\ccmErl8R.s 			page 13


 685              	.LVL50:
 686              		.loc 1 1322 16 discriminator 2 view .LVU216
 687              	.LBE27:
 688              	.LBE26:
 689              		.loc 1 267 61 discriminator 2 view .LVU217
 690 005a DA07     		lsls	r2, r3, #31
 691 005c F6D5     		bpl	.L57
 692              		.loc 1 284 3 is_stmt 1 view .LVU218
 693              		.loc 1 281 12 is_stmt 0 view .LVU219
 694 005e A4F1C800 		sub	r0, r4, #200
 695 0062 B0FA80F0 		clz	r0, r0
 696 0066 4009     		lsrs	r0, r0, #5
 697 0068 E7E7     		b	.L45
 698              		.cfi_endproc
 699              	.LFE145:
 700              		.size	USB_SetCurrentMode, .-USB_SetCurrentMode
 701 006a 00BF     		.section	.text.USB_FlushTxFifo,"ax",%progbits
 702              		.align	1
 703              		.p2align 2,,3
 704              		.global	USB_FlushTxFifo
 705              		.syntax unified
 706              		.thumb
 707              		.thumb_func
 708              		.type	USB_FlushTxFifo, %function
 709              	USB_FlushTxFifo:
 710              	.LVL51:
 711              	.LFB147:
 712              		.loc 1 453 1 is_stmt 1 view -0
 713              		.cfi_startproc
 714              		@ args = 0, pretend = 0, frame = 8
 715              		@ frame_needed = 0, uses_anonymous_args = 0
 716              		@ link register save eliminated.
 717              		.loc 1 454 3 view .LVU221
 718              		.loc 1 453 1 is_stmt 0 view .LVU222
 719 0000 82B0     		sub	sp, sp, #8
 720              		.cfi_def_cfa_offset 8
 721              		.loc 1 454 17 view .LVU223
 722 0002 0023     		movs	r3, #0
 723 0004 0193     		str	r3, [sp, #4]
 724 0006 02E0     		b	.L60
 725              	.L67:
 726              		.loc 1 465 17 view .LVU224
 727 0008 0369     		ldr	r3, [r0, #16]
 728              		.loc 1 465 53 view .LVU225
 729 000a 002B     		cmp	r3, #0
 730 000c 09DB     		blt	.L66
 731              	.L60:
 732              		.loc 1 457 3 is_stmt 1 view .LVU226
 733              		.loc 1 459 5 view .LVU227
 734              		.loc 1 465 53 view .LVU228
 735              		.loc 1 459 10 is_stmt 0 view .LVU229
 736 000e 019B     		ldr	r3, [sp, #4]
 737 0010 0133     		adds	r3, r3, #1
 738 0012 0193     		str	r3, [sp, #4]
 739              		.loc 1 461 5 is_stmt 1 view .LVU230
 740              		.loc 1 461 15 is_stmt 0 view .LVU231
 741 0014 019B     		ldr	r3, [sp, #4]
ARM GAS  C:\Users\DEVELO~1\AppData\Local\Temp\ccmErl8R.s 			page 14


 742              		.loc 1 461 8 view .LVU232
 743 0016 B3F1706F 		cmp	r3, #251658240
 744 001a F5D9     		bls	.L67
 745              	.LVL52:
 746              	.L59:
 747              		.loc 1 463 14 view .LVU233
 748 001c 0320     		movs	r0, #3
 749              	.LVL53:
 750              		.loc 1 482 1 view .LVU234
 751 001e 02B0     		add	sp, sp, #8
 752              		.cfi_remember_state
 753              		.cfi_def_cfa_offset 0
 754              		@ sp needed
 755 0020 7047     		bx	lr
 756              	.LVL54:
 757              	.L66:
 758              		.cfi_restore_state
 759              		.loc 1 468 3 is_stmt 1 view .LVU235
 760              		.loc 1 469 51 is_stmt 0 view .LVU236
 761 0022 8901     		lsls	r1, r1, #6
 762              	.LVL55:
 763              		.loc 1 468 9 view .LVU237
 764 0024 0023     		movs	r3, #0
 765              		.loc 1 469 44 view .LVU238
 766 0026 41F02001 		orr	r1, r1, #32
 767              		.loc 1 468 9 view .LVU239
 768 002a 0193     		str	r3, [sp, #4]
 769              		.loc 1 469 3 is_stmt 1 view .LVU240
 770              		.loc 1 469 17 is_stmt 0 view .LVU241
 771 002c 0161     		str	r1, [r0, #16]
 772 002e 03E0     		b	.L61
 773              	.L69:
 774              		.loc 1 479 17 view .LVU242
 775 0030 0369     		ldr	r3, [r0, #16]
 776              		.loc 1 479 54 view .LVU243
 777 0032 13F02003 		ands	r3, r3, #32
 778 0036 07D0     		beq	.L68
 779              	.L61:
 780              		.loc 1 471 3 is_stmt 1 view .LVU244
 781              		.loc 1 473 5 view .LVU245
 782              		.loc 1 479 54 view .LVU246
 783              		.loc 1 473 10 is_stmt 0 view .LVU247
 784 0038 019B     		ldr	r3, [sp, #4]
 785 003a 0133     		adds	r3, r3, #1
 786 003c 0193     		str	r3, [sp, #4]
 787              		.loc 1 475 5 is_stmt 1 view .LVU248
 788              		.loc 1 475 15 is_stmt 0 view .LVU249
 789 003e 019B     		ldr	r3, [sp, #4]
 790              		.loc 1 475 8 view .LVU250
 791 0040 B3F1706F 		cmp	r3, #251658240
 792 0044 F4D9     		bls	.L69
 793 0046 E9E7     		b	.L59
 794              	.L68:
 795              		.loc 1 481 10 view .LVU251
 796 0048 1846     		mov	r0, r3
 797              	.LVL56:
 798              		.loc 1 482 1 view .LVU252
ARM GAS  C:\Users\DEVELO~1\AppData\Local\Temp\ccmErl8R.s 			page 15


 799 004a 02B0     		add	sp, sp, #8
 800              		.cfi_def_cfa_offset 0
 801              		@ sp needed
 802 004c 7047     		bx	lr
 803              		.cfi_endproc
 804              	.LFE147:
 805              		.size	USB_FlushTxFifo, .-USB_FlushTxFifo
 806 004e 00BF     		.section	.text.USB_FlushRxFifo,"ax",%progbits
 807              		.align	1
 808              		.p2align 2,,3
 809              		.global	USB_FlushRxFifo
 810              		.syntax unified
 811              		.thumb
 812              		.thumb_func
 813              		.type	USB_FlushRxFifo, %function
 814              	USB_FlushRxFifo:
 815              	.LVL57:
 816              	.LFB148:
 817              		.loc 1 490 1 is_stmt 1 view -0
 818              		.cfi_startproc
 819              		@ args = 0, pretend = 0, frame = 8
 820              		@ frame_needed = 0, uses_anonymous_args = 0
 821              		@ link register save eliminated.
 822              		.loc 1 491 3 view .LVU254
 823              		.loc 1 490 1 is_stmt 0 view .LVU255
 824 0000 82B0     		sub	sp, sp, #8
 825              		.cfi_def_cfa_offset 8
 826              		.loc 1 491 17 view .LVU256
 827 0002 0023     		movs	r3, #0
 828 0004 0193     		str	r3, [sp, #4]
 829 0006 02E0     		b	.L72
 830              	.L79:
 831              		.loc 1 502 17 view .LVU257
 832 0008 0369     		ldr	r3, [r0, #16]
 833              		.loc 1 502 53 view .LVU258
 834 000a 002B     		cmp	r3, #0
 835 000c 09DB     		blt	.L78
 836              	.L72:
 837              		.loc 1 494 3 is_stmt 1 view .LVU259
 838              		.loc 1 496 5 view .LVU260
 839              		.loc 1 502 53 view .LVU261
 840              		.loc 1 496 10 is_stmt 0 view .LVU262
 841 000e 019B     		ldr	r3, [sp, #4]
 842 0010 0133     		adds	r3, r3, #1
 843 0012 0193     		str	r3, [sp, #4]
 844              		.loc 1 498 5 is_stmt 1 view .LVU263
 845              		.loc 1 498 15 is_stmt 0 view .LVU264
 846 0014 019B     		ldr	r3, [sp, #4]
 847              		.loc 1 498 8 view .LVU265
 848 0016 B3F1706F 		cmp	r3, #251658240
 849 001a F5D9     		bls	.L79
 850              	.L71:
 851              		.loc 1 500 14 view .LVU266
 852 001c 0320     		movs	r0, #3
 853              	.LVL58:
 854              		.loc 1 519 1 view .LVU267
 855 001e 02B0     		add	sp, sp, #8
ARM GAS  C:\Users\DEVELO~1\AppData\Local\Temp\ccmErl8R.s 			page 16


 856              		.cfi_remember_state
 857              		.cfi_def_cfa_offset 0
 858              		@ sp needed
 859 0020 7047     		bx	lr
 860              	.LVL59:
 861              	.L78:
 862              		.cfi_restore_state
 863              		.loc 1 505 3 is_stmt 1 view .LVU268
 864              		.loc 1 505 9 is_stmt 0 view .LVU269
 865 0022 0022     		movs	r2, #0
 866              		.loc 1 506 17 view .LVU270
 867 0024 1023     		movs	r3, #16
 868              		.loc 1 505 9 view .LVU271
 869 0026 0192     		str	r2, [sp, #4]
 870              		.loc 1 506 3 is_stmt 1 view .LVU272
 871              		.loc 1 506 17 is_stmt 0 view .LVU273
 872 0028 0361     		str	r3, [r0, #16]
 873 002a 03E0     		b	.L73
 874              	.L81:
 875              		.loc 1 516 17 view .LVU274
 876 002c 0369     		ldr	r3, [r0, #16]
 877              		.loc 1 516 54 view .LVU275
 878 002e 13F01003 		ands	r3, r3, #16
 879 0032 07D0     		beq	.L80
 880              	.L73:
 881              		.loc 1 508 3 is_stmt 1 view .LVU276
 882              		.loc 1 510 5 view .LVU277
 883              		.loc 1 516 54 view .LVU278
 884              		.loc 1 510 10 is_stmt 0 view .LVU279
 885 0034 019B     		ldr	r3, [sp, #4]
 886 0036 0133     		adds	r3, r3, #1
 887 0038 0193     		str	r3, [sp, #4]
 888              		.loc 1 512 5 is_stmt 1 view .LVU280
 889              		.loc 1 512 15 is_stmt 0 view .LVU281
 890 003a 019B     		ldr	r3, [sp, #4]
 891              		.loc 1 512 8 view .LVU282
 892 003c B3F1706F 		cmp	r3, #251658240
 893 0040 F4D9     		bls	.L81
 894 0042 EBE7     		b	.L71
 895              	.L80:
 896              		.loc 1 518 10 view .LVU283
 897 0044 1846     		mov	r0, r3
 898              	.LVL60:
 899              		.loc 1 519 1 view .LVU284
 900 0046 02B0     		add	sp, sp, #8
 901              		.cfi_def_cfa_offset 0
 902              		@ sp needed
 903 0048 7047     		bx	lr
 904              		.cfi_endproc
 905              	.LFE148:
 906              		.size	USB_FlushRxFifo, .-USB_FlushRxFifo
 907 004a 00BF     		.section	.text.USB_DevInit,"ax",%progbits
 908              		.align	1
 909              		.p2align 2,,3
 910              		.global	USB_DevInit
 911              		.syntax unified
 912              		.thumb
ARM GAS  C:\Users\DEVELO~1\AppData\Local\Temp\ccmErl8R.s 			page 17


 913              		.thumb_func
 914              		.type	USB_DevInit, %function
 915              	USB_DevInit:
 916              	.LVL61:
 917              	.LFB146:
 918              		.loc 1 301 1 is_stmt 1 view -0
 919              		.cfi_startproc
 920              		@ args = 20, pretend = 16, frame = 0
 921              		@ frame_needed = 0, uses_anonymous_args = 0
 922              		.loc 1 301 1 is_stmt 0 view .LVU286
 923 0000 84B0     		sub	sp, sp, #16
 924              		.cfi_def_cfa_offset 16
 925 0002 2DE9F843 		push	{r3, r4, r5, r6, r7, r8, r9, lr}
 926              		.cfi_def_cfa_offset 48
 927              		.cfi_offset 3, -48
 928              		.cfi_offset 4, -44
 929              		.cfi_offset 5, -40
 930              		.cfi_offset 6, -36
 931              		.cfi_offset 7, -32
 932              		.cfi_offset 8, -28
 933              		.cfi_offset 9, -24
 934              		.cfi_offset 14, -20
 935              		.loc 1 301 1 view .LVU287
 936 0006 09AD     		add	r5, sp, #36
 937 0008 0446     		mov	r4, r0
 938 000a 85E80E00 		stm	r5, {r1, r2, r3}
 939              		.loc 1 306 10 view .LVU288
 940 000e 0023     		movs	r3, #0
 941 0010 9DF82450 		ldrb	r5, [sp, #36]	@ zero_extendqisi2
 942              	.LVL62:
 943              		.loc 1 306 10 view .LVU289
 944 0014 9DF82E60 		ldrb	r6, [sp, #46]	@ zero_extendqisi2
 945              	.LVL63:
 946              		.loc 1 302 3 is_stmt 1 view .LVU290
 947              		.loc 1 303 3 view .LVU291
 948              		.loc 1 304 3 view .LVU292
 949              		.loc 1 306 3 view .LVU293
 950              		.loc 1 306 18 view .LVU294
 951              		.loc 1 308 22 is_stmt 0 view .LVU295
 952 0018 1946     		mov	r1, r3
 953              	.LVL64:
 954              	.L83:
 955              		.loc 1 308 5 is_stmt 1 discriminator 3 view .LVU296
 956              		.loc 1 308 22 is_stmt 0 discriminator 3 view .LVU297
 957 001a 03F14002 		add	r2, r3, #64
 958              		.loc 1 306 26 discriminator 3 view .LVU298
 959 001e 0133     		adds	r3, r3, #1
 960              	.LVL65:
 961              		.loc 1 308 22 discriminator 3 view .LVU299
 962 0020 04EB8202 		add	r2, r4, r2, lsl #2
 963              		.loc 1 306 18 discriminator 3 view .LVU300
 964 0024 0F2B     		cmp	r3, #15
 965              		.loc 1 308 22 discriminator 3 view .LVU301
 966 0026 5160     		str	r1, [r2, #4]
 967              		.loc 1 306 26 is_stmt 1 discriminator 3 view .LVU302
 968              	.LVL66:
 969              		.loc 1 306 18 discriminator 3 view .LVU303
ARM GAS  C:\Users\DEVELO~1\AppData\Local\Temp\ccmErl8R.s 			page 18


 970 0028 F7D1     		bne	.L83
 971              		.loc 1 312 3 view .LVU304
 972              		.loc 1 312 6 is_stmt 0 view .LVU305
 973 002a 002E     		cmp	r6, #0
 974 002c 40F09380 		bne	.L84
 975              		.loc 1 314 5 is_stmt 1 view .LVU306
 976              		.loc 1 314 23 is_stmt 0 view .LVU307
 977 0030 D4F80438 		ldr	r3, [r4, #2052]
 978              	.LVL67:
 979              		.loc 1 314 23 view .LVU308
 980 0034 04F50067 		add	r7, r4, #2048
 981 0038 43F00203 		orr	r3, r3, #2
 982 003c 7B60     		str	r3, [r7, #4]
 983              		.loc 1 317 5 is_stmt 1 view .LVU309
 984              		.loc 1 317 17 is_stmt 0 view .LVU310
 985 003e A36B     		ldr	r3, [r4, #56]
 986 0040 23F40013 		bic	r3, r3, #2097152
 987 0044 A363     		str	r3, [r4, #56]
 988              		.loc 1 320 5 is_stmt 1 view .LVU311
 989              		.loc 1 320 19 is_stmt 0 view .LVU312
 990 0046 2368     		ldr	r3, [r4]
 991 0048 43F04003 		orr	r3, r3, #64
 992 004c 2360     		str	r3, [r4]
 993              		.loc 1 321 5 is_stmt 1 view .LVU313
 994              		.loc 1 321 19 is_stmt 0 view .LVU314
 995 004e 2368     		ldr	r3, [r4]
 996 0050 43F08003 		orr	r3, r3, #128
 997 0054 2360     		str	r3, [r4]
 998              		.loc 1 330 3 is_stmt 1 view .LVU315
 999              		.loc 1 330 16 is_stmt 0 view .LVU316
 1000 0056 0023     		movs	r3, #0
 1001 0058 C4F8003E 		str	r3, [r4, #3584]
 1002              		.loc 1 332 3 is_stmt 1 view .LVU317
 1003              		.loc 1 332 6 is_stmt 0 view .LVU318
 1004 005c 9DF82930 		ldrb	r3, [sp, #41]	@ zero_extendqisi2
 1005 0060 012B     		cmp	r3, #1
 1006 0062 00F08680 		beq	.L110
 1007              	.L86:
 1008              		.loc 1 348 5 is_stmt 1 view .LVU319
 1009              	.LVL68:
 1010              	.LBB28:
 1011              	.LBI28:
 1012              		.loc 1 532 19 view .LVU320
 1013              	.LBB29:
 1014              		.loc 1 534 3 view .LVU321
 1015              		.loc 1 536 3 view .LVU322
 1016              		.loc 1 536 21 is_stmt 0 view .LVU323
 1017 0066 3B68     		ldr	r3, [r7]
 1018 0068 43F00303 		orr	r3, r3, #3
 1019 006c 3B60     		str	r3, [r7]
 1020              		.loc 1 537 3 is_stmt 1 view .LVU324
 1021              	.LVL69:
 1022              	.L88:
 1023              		.loc 1 537 3 is_stmt 0 view .LVU325
 1024              	.LBE29:
 1025              	.LBE28:
 1026              		.loc 1 352 3 is_stmt 1 view .LVU326
ARM GAS  C:\Users\DEVELO~1\AppData\Local\Temp\ccmErl8R.s 			page 19


 1027              		.loc 1 352 7 is_stmt 0 view .LVU327
 1028 006e 1021     		movs	r1, #16
 1029 0070 2046     		mov	r0, r4
 1030              	.LVL70:
 1031              		.loc 1 352 7 view .LVU328
 1032 0072 FFF7FEFF 		bl	USB_FlushTxFifo
 1033              	.LVL71:
 1034 0076 0146     		mov	r1, r0
 1035              	.LVL72:
 1036              		.loc 1 357 3 is_stmt 1 view .LVU329
 1037              		.loc 1 357 7 is_stmt 0 view .LVU330
 1038 0078 2046     		mov	r0, r4
 1039 007a FFF7FEFF 		bl	USB_FlushRxFifo
 1040              	.LVL73:
 1041              		.loc 1 357 6 view .LVU331
 1042 007e 0843     		orrs	r0, r0, r1
 1043              		.loc 1 363 24 view .LVU332
 1044 0080 0022     		movs	r2, #0
 1045              		.loc 1 357 6 view .LVU333
 1046 0082 C0B2     		uxtb	r0, r0
 1047              		.loc 1 363 24 view .LVU334
 1048 0084 3A61     		str	r2, [r7, #16]
 1049              		.loc 1 359 9 view .LVU335
 1050 0086 0038     		subs	r0, r0, #0
 1051              		.loc 1 364 24 view .LVU336
 1052 0088 7A61     		str	r2, [r7, #20]
 1053              		.loc 1 365 25 view .LVU337
 1054 008a FA61     		str	r2, [r7, #28]
 1055              		.loc 1 359 9 view .LVU338
 1056 008c 18BF     		it	ne
 1057 008e 0120     		movne	r0, #1
 1058              	.LVL74:
 1059              		.loc 1 363 3 is_stmt 1 view .LVU339
 1060              		.loc 1 364 3 view .LVU340
 1061              		.loc 1 365 3 view .LVU341
 1062              		.loc 1 367 3 view .LVU342
 1063              		.loc 1 367 18 view .LVU343
 1064 0090 EDB1     		cbz	r5, .L100
 1065 0092 04F51063 		add	r3, r4, #2304
 1066              		.loc 1 377 31 is_stmt 0 view .LVU344
 1067 0096 4FF09049 		mov	r9, #1207959552
 1068              		.loc 1 373 31 view .LVU345
 1069 009a 4FF00068 		mov	r8, #134217728
 1070              		.loc 1 382 29 view .LVU346
 1071 009e 9446     		mov	ip, r2
 1072              		.loc 1 386 28 view .LVU347
 1073 00a0 4FF67F3E 		movw	lr, #64383
 1074 00a4 09E0     		b	.L95
 1075              	.LVL75:
 1076              	.L92:
 1077              		.loc 1 382 29 view .LVU348
 1078 00a6 C3F800C0 		str	ip, [r3]
 1079              	.L94:
 1080              		.loc 1 385 5 is_stmt 1 discriminator 2 view .LVU349
 1081              		.loc 1 367 40 is_stmt 0 discriminator 2 view .LVU350
 1082 00aa 0132     		adds	r2, r2, #1
 1083              	.LVL76:
ARM GAS  C:\Users\DEVELO~1\AppData\Local\Temp\ccmErl8R.s 			page 20


 1084              		.loc 1 385 28 discriminator 2 view .LVU351
 1085 00ac C3F810C0 		str	ip, [r3, #16]
 1086              		.loc 1 386 5 is_stmt 1 discriminator 2 view .LVU352
 1087              		.loc 1 386 28 is_stmt 0 discriminator 2 view .LVU353
 1088 00b0 C3F808E0 		str	lr, [r3, #8]
 1089              		.loc 1 367 40 is_stmt 1 discriminator 2 view .LVU354
 1090              	.LVL77:
 1091              		.loc 1 367 18 discriminator 2 view .LVU355
 1092 00b4 2033     		adds	r3, r3, #32
 1093 00b6 AA42     		cmp	r2, r5
 1094 00b8 2ED0     		beq	.L111
 1095              	.LVL78:
 1096              	.L95:
 1097              		.loc 1 369 5 view .LVU356
 1098              		.loc 1 371 7 view .LVU357
 1099              		.loc 1 382 7 view .LVU358
 1100              		.loc 1 369 22 is_stmt 0 view .LVU359
 1101 00ba 1968     		ldr	r1, [r3]
 1102              		.loc 1 369 8 view .LVU360
 1103 00bc 0029     		cmp	r1, #0
 1104 00be F2DA     		bge	.L92
 1105              		.loc 1 373 9 is_stmt 1 view .LVU361
 1106              		.loc 1 377 9 view .LVU362
 1107              		.loc 1 371 10 is_stmt 0 view .LVU363
 1108 00c0 12B9     		cbnz	r2, .L93
 1109              		.loc 1 373 31 view .LVU364
 1110 00c2 C3F80080 		str	r8, [r3]
 1111 00c6 F0E7     		b	.L94
 1112              	.L93:
 1113              		.loc 1 377 31 view .LVU365
 1114 00c8 C3F80090 		str	r9, [r3]
 1115 00cc EDE7     		b	.L94
 1116              	.LVL79:
 1117              	.L100:
 1118              		.loc 1 411 3 is_stmt 1 view .LVU366
 1119              		.loc 1 411 24 is_stmt 0 view .LVU367
 1120 00ce 3B69     		ldr	r3, [r7, #16]
 1121              		.loc 1 414 17 view .LVU368
 1122 00d0 0022     		movs	r2, #0
 1123              		.loc 1 411 24 view .LVU369
 1124 00d2 23F48073 		bic	r3, r3, #256
 1125 00d6 3B61     		str	r3, [r7, #16]
 1126              		.loc 1 414 3 is_stmt 1 view .LVU370
 1127              		.loc 1 417 17 is_stmt 0 view .LVU371
 1128 00d8 6FF08043 		mvn	r3, #1073741824
 1129              		.loc 1 414 17 view .LVU372
 1130 00dc A261     		str	r2, [r4, #24]
 1131              		.loc 1 417 3 is_stmt 1 view .LVU373
 1132              		.loc 1 417 17 is_stmt 0 view .LVU374
 1133 00de 6361     		str	r3, [r4, #20]
 1134              		.loc 1 420 3 is_stmt 1 view .LVU375
 1135              		.loc 1 420 6 is_stmt 0 view .LVU376
 1136 00e0 9DF82630 		ldrb	r3, [sp, #38]	@ zero_extendqisi2
 1137 00e4 1BB9     		cbnz	r3, .L91
 1138              		.loc 1 422 5 is_stmt 1 view .LVU377
 1139              		.loc 1 422 19 is_stmt 0 view .LVU378
 1140 00e6 A369     		ldr	r3, [r4, #24]
ARM GAS  C:\Users\DEVELO~1\AppData\Local\Temp\ccmErl8R.s 			page 21


 1141 00e8 43F01003 		orr	r3, r3, #16
 1142 00ec A361     		str	r3, [r4, #24]
 1143              	.L91:
 1144              		.loc 1 426 3 is_stmt 1 view .LVU379
 1145              		.loc 1 426 17 is_stmt 0 view .LVU380
 1146 00ee A269     		ldr	r2, [r4, #24]
 1147 00f0 254B     		ldr	r3, .L113
 1148 00f2 1343     		orrs	r3, r3, r2
 1149              		.loc 1 431 6 view .LVU381
 1150 00f4 9DF82A20 		ldrb	r2, [sp, #42]	@ zero_extendqisi2
 1151              		.loc 1 426 17 view .LVU382
 1152 00f8 A361     		str	r3, [r4, #24]
 1153              		.loc 1 431 3 is_stmt 1 view .LVU383
 1154              		.loc 1 431 6 is_stmt 0 view .LVU384
 1155 00fa 1AB1     		cbz	r2, .L101
 1156              		.loc 1 433 5 is_stmt 1 view .LVU385
 1157              		.loc 1 433 19 is_stmt 0 view .LVU386
 1158 00fc A369     		ldr	r3, [r4, #24]
 1159 00fe 43F00803 		orr	r3, r3, #8
 1160 0102 A361     		str	r3, [r4, #24]
 1161              	.L101:
 1162              		.loc 1 436 3 is_stmt 1 view .LVU387
 1163              		.loc 1 436 6 is_stmt 0 view .LVU388
 1164 0104 012E     		cmp	r6, #1
 1165 0106 03D1     		bne	.L102
 1166              		.loc 1 438 5 is_stmt 1 view .LVU389
 1167              		.loc 1 438 19 is_stmt 0 view .LVU390
 1168 0108 A269     		ldr	r2, [r4, #24]
 1169 010a 204B     		ldr	r3, .L113+4
 1170 010c 1343     		orrs	r3, r3, r2
 1171 010e A361     		str	r3, [r4, #24]
 1172              	.L102:
 1173              		.loc 1 441 3 is_stmt 1 view .LVU391
 1174              		.loc 1 442 1 is_stmt 0 view .LVU392
 1175 0110 BDE8F843 		pop	{r3, r4, r5, r6, r7, r8, r9, lr}
 1176              		.cfi_remember_state
 1177              		.cfi_restore 14
 1178              		.cfi_restore 9
 1179              		.cfi_restore 8
 1180              		.cfi_restore 7
 1181              		.cfi_restore 6
 1182              		.cfi_restore 5
 1183              		.cfi_restore 4
 1184              		.cfi_restore 3
 1185              		.cfi_def_cfa_offset 16
 1186              	.LVL80:
 1187              		.loc 1 442 1 view .LVU393
 1188 0114 04B0     		add	sp, sp, #16
 1189              		.cfi_def_cfa_offset 0
 1190 0116 7047     		bx	lr
 1191              	.LVL81:
 1192              	.L111:
 1193              		.cfi_restore_state
 1194              		.loc 1 367 18 view .LVU394
 1195 0118 0022     		movs	r2, #0
 1196              	.LVL82:
 1197              		.loc 1 367 18 view .LVU395
ARM GAS  C:\Users\DEVELO~1\AppData\Local\Temp\ccmErl8R.s 			page 22


 1198 011a 04F53063 		add	r3, r4, #2816
 1199              		.loc 1 399 32 view .LVU396
 1200 011e 4FF09048 		mov	r8, #1207959552
 1201              		.loc 1 395 32 view .LVU397
 1202 0122 4FF00069 		mov	r9, #134217728
 1203              		.loc 1 404 30 view .LVU398
 1204 0126 9446     		mov	ip, r2
 1205              		.loc 1 408 29 view .LVU399
 1206 0128 4FF67F3E 		movw	lr, #64383
 1207 012c 09E0     		b	.L99
 1208              	.LVL83:
 1209              	.L96:
 1210              		.loc 1 404 30 view .LVU400
 1211 012e C3F800C0 		str	ip, [r3]
 1212              	.L98:
 1213              		.loc 1 407 5 is_stmt 1 discriminator 2 view .LVU401
 1214              		.loc 1 389 40 is_stmt 0 discriminator 2 view .LVU402
 1215 0132 0132     		adds	r2, r2, #1
 1216              	.LVL84:
 1217              		.loc 1 407 29 discriminator 2 view .LVU403
 1218 0134 C3F810C0 		str	ip, [r3, #16]
 1219              		.loc 1 408 5 is_stmt 1 discriminator 2 view .LVU404
 1220              		.loc 1 408 29 is_stmt 0 discriminator 2 view .LVU405
 1221 0138 C3F808E0 		str	lr, [r3, #8]
 1222              		.loc 1 389 40 is_stmt 1 discriminator 2 view .LVU406
 1223              	.LVL85:
 1224              		.loc 1 389 18 discriminator 2 view .LVU407
 1225 013c 2033     		adds	r3, r3, #32
 1226 013e AA42     		cmp	r2, r5
 1227 0140 C5D0     		beq	.L100
 1228              	.LVL86:
 1229              	.L99:
 1230              		.loc 1 391 5 view .LVU408
 1231              		.loc 1 393 7 view .LVU409
 1232              		.loc 1 404 7 view .LVU410
 1233              		.loc 1 391 23 is_stmt 0 view .LVU411
 1234 0142 1968     		ldr	r1, [r3]
 1235              		.loc 1 391 8 view .LVU412
 1236 0144 0029     		cmp	r1, #0
 1237 0146 F2DA     		bge	.L96
 1238              		.loc 1 399 9 is_stmt 1 view .LVU413
 1239              		.loc 1 393 10 is_stmt 0 view .LVU414
 1240 0148 12B1     		cbz	r2, .L112
 1241              		.loc 1 399 32 view .LVU415
 1242 014a C3F80080 		str	r8, [r3]
 1243 014e F0E7     		b	.L98
 1244              	.L112:
 1245              		.loc 1 395 9 is_stmt 1 view .LVU416
 1246              		.loc 1 395 32 is_stmt 0 view .LVU417
 1247 0150 C3F80090 		str	r9, [r3]
 1248 0154 EDE7     		b	.L98
 1249              	.LVL87:
 1250              	.L84:
 1251              		.loc 1 326 5 is_stmt 1 view .LVU418
 1252              		.loc 1 326 17 is_stmt 0 view .LVU419
 1253 0156 A36B     		ldr	r3, [r4, #56]
 1254              	.LVL88:
ARM GAS  C:\Users\DEVELO~1\AppData\Local\Temp\ccmErl8R.s 			page 23


 1255              		.loc 1 314 23 view .LVU420
 1256 0158 04F50067 		add	r7, r4, #2048
 1257              		.loc 1 326 17 view .LVU421
 1258 015c 43F40013 		orr	r3, r3, #2097152
 1259 0160 A363     		str	r3, [r4, #56]
 1260              		.loc 1 330 3 is_stmt 1 view .LVU422
 1261              		.loc 1 330 16 is_stmt 0 view .LVU423
 1262 0162 0023     		movs	r3, #0
 1263 0164 C4F8003E 		str	r3, [r4, #3584]
 1264              		.loc 1 332 3 is_stmt 1 view .LVU424
 1265              		.loc 1 332 6 is_stmt 0 view .LVU425
 1266 0168 9DF82930 		ldrb	r3, [sp, #41]	@ zero_extendqisi2
 1267 016c 012B     		cmp	r3, #1
 1268 016e 7FF47AAF 		bne	.L86
 1269              	.L110:
 1270              		.loc 1 334 5 is_stmt 1 view .LVU426
 1271              		.loc 1 334 8 is_stmt 0 view .LVU427
 1272 0172 9DF82730 		ldrb	r3, [sp, #39]	@ zero_extendqisi2
 1273 0176 13B9     		cbnz	r3, .L87
 1274              		.loc 1 337 7 is_stmt 1 view .LVU428
 1275              	.LVL89:
 1276              	.LBB30:
 1277              	.LBI30:
 1278              		.loc 1 532 19 view .LVU429
 1279              	.LBB31:
 1280              		.loc 1 534 3 view .LVU430
 1281              		.loc 1 536 3 view .LVU431
 1282              		.loc 1 536 21 is_stmt 0 view .LVU432
 1283 0178 3B68     		ldr	r3, [r7]
 1284 017a 3B60     		str	r3, [r7]
 1285              		.loc 1 537 3 is_stmt 1 view .LVU433
 1286              		.loc 1 537 10 is_stmt 0 view .LVU434
 1287 017c 77E7     		b	.L88
 1288              	.LVL90:
 1289              	.L87:
 1290              		.loc 1 537 10 view .LVU435
 1291              	.LBE31:
 1292              	.LBE30:
 1293              		.loc 1 342 7 is_stmt 1 view .LVU436
 1294              	.LBB32:
 1295              	.LBI32:
 1296              		.loc 1 532 19 view .LVU437
 1297              	.LBB33:
 1298              		.loc 1 534 3 view .LVU438
 1299              		.loc 1 536 3 view .LVU439
 1300              		.loc 1 536 21 is_stmt 0 view .LVU440
 1301 017e 3B68     		ldr	r3, [r7]
 1302 0180 43F00103 		orr	r3, r3, #1
 1303 0184 3B60     		str	r3, [r7]
 1304              		.loc 1 537 3 is_stmt 1 view .LVU441
 1305              		.loc 1 537 10 is_stmt 0 view .LVU442
 1306 0186 72E7     		b	.L88
 1307              	.L114:
 1308              		.align	2
 1309              	.L113:
 1310 0188 00383C80 		.word	-2143537152
 1311 018c 04000040 		.word	1073741828
ARM GAS  C:\Users\DEVELO~1\AppData\Local\Temp\ccmErl8R.s 			page 24


 1312              	.LBE33:
 1313              	.LBE32:
 1314              		.cfi_endproc
 1315              	.LFE146:
 1316              		.size	USB_DevInit, .-USB_DevInit
 1317              		.section	.text.USB_SetDevSpeed,"ax",%progbits
 1318              		.align	1
 1319              		.p2align 2,,3
 1320              		.global	USB_SetDevSpeed
 1321              		.syntax unified
 1322              		.thumb
 1323              		.thumb_func
 1324              		.type	USB_SetDevSpeed, %function
 1325              	USB_SetDevSpeed:
 1326              	.LVL91:
 1327              	.LFB149:
 1328              		.loc 1 533 1 is_stmt 1 view -0
 1329              		.cfi_startproc
 1330              		@ args = 0, pretend = 0, frame = 0
 1331              		@ frame_needed = 0, uses_anonymous_args = 0
 1332              		@ link register save eliminated.
 1333              		.loc 1 534 3 view .LVU444
 1334              		.loc 1 533 1 is_stmt 0 view .LVU445
 1335 0000 0346     		mov	r3, r0
 1336              		.loc 1 538 1 view .LVU446
 1337 0002 0020     		movs	r0, #0
 1338              	.LVL92:
 1339              		.loc 1 536 3 is_stmt 1 view .LVU447
 1340              		.loc 1 536 21 is_stmt 0 view .LVU448
 1341 0004 D3F80028 		ldr	r2, [r3, #2048]
 1342 0008 1143     		orrs	r1, r1, r2
 1343              	.LVL93:
 1344              		.loc 1 536 21 view .LVU449
 1345 000a C3F80018 		str	r1, [r3, #2048]
 1346              		.loc 1 537 3 is_stmt 1 view .LVU450
 1347              		.loc 1 538 1 is_stmt 0 view .LVU451
 1348 000e 7047     		bx	lr
 1349              		.cfi_endproc
 1350              	.LFE149:
 1351              		.size	USB_SetDevSpeed, .-USB_SetDevSpeed
 1352              		.section	.text.USB_GetDevSpeed,"ax",%progbits
 1353              		.align	1
 1354              		.p2align 2,,3
 1355              		.global	USB_GetDevSpeed
 1356              		.syntax unified
 1357              		.thumb
 1358              		.thumb_func
 1359              		.type	USB_GetDevSpeed, %function
 1360              	USB_GetDevSpeed:
 1361              	.LVL94:
 1362              	.LFB150:
 1363              		.loc 1 549 1 is_stmt 1 view -0
 1364              		.cfi_startproc
 1365              		@ args = 0, pretend = 0, frame = 0
 1366              		@ frame_needed = 0, uses_anonymous_args = 0
 1367              		@ link register save eliminated.
 1368              		.loc 1 550 3 view .LVU453
ARM GAS  C:\Users\DEVELO~1\AppData\Local\Temp\ccmErl8R.s 			page 25


 1369              		.loc 1 551 3 view .LVU454
 1370              		.loc 1 552 3 view .LVU455
 1371              		.loc 1 552 38 is_stmt 0 view .LVU456
 1372 0000 D0F80838 		ldr	r3, [r0, #2056]
 1373              	.LVL95:
 1374              		.loc 1 554 3 is_stmt 1 view .LVU457
 1375              		.loc 1 554 6 is_stmt 0 view .LVU458
 1376 0004 13F00600 		ands	r0, r3, #6
 1377              	.LVL96:
 1378              		.loc 1 554 6 view .LVU459
 1379 0008 04D0     		beq	.L117
 1380              		.loc 1 558 8 is_stmt 1 view .LVU460
 1381              		.loc 1 565 11 is_stmt 0 view .LVU461
 1382 000a 13F0020F 		tst	r3, #2
 1383 000e 14BF     		ite	ne
 1384 0010 0220     		movne	r0, #2
 1385              	.LVL97:
 1386              		.loc 1 565 11 view .LVU462
 1387 0012 0F20     		moveq	r0, #15
 1388              	.L117:
 1389              	.LVL98:
 1390              		.loc 1 568 3 is_stmt 1 view .LVU463
 1391              		.loc 1 569 1 is_stmt 0 view .LVU464
 1392 0014 7047     		bx	lr
 1393              		.cfi_endproc
 1394              	.LFE150:
 1395              		.size	USB_GetDevSpeed, .-USB_GetDevSpeed
 1396 0016 00BF     		.section	.text.USB_ActivateEndpoint,"ax",%progbits
 1397              		.align	1
 1398              		.p2align 2,,3
 1399              		.global	USB_ActivateEndpoint
 1400              		.syntax unified
 1401              		.thumb
 1402              		.thumb_func
 1403              		.type	USB_ActivateEndpoint, %function
 1404              	USB_ActivateEndpoint:
 1405              	.LVL99:
 1406              	.LFB151:
 1407              		.loc 1 578 1 is_stmt 1 view -0
 1408              		.cfi_startproc
 1409              		@ args = 0, pretend = 0, frame = 0
 1410              		@ frame_needed = 0, uses_anonymous_args = 0
 1411              		@ link register save eliminated.
 1412              		.loc 1 579 3 view .LVU466
 1413              		.loc 1 580 3 view .LVU467
 1414              		.loc 1 578 1 is_stmt 0 view .LVU468
 1415 0000 30B4     		push	{r4, r5}
 1416              		.cfi_def_cfa_offset 8
 1417              		.cfi_offset 4, -8
 1418              		.cfi_offset 5, -4
 1419              		.loc 1 582 6 view .LVU469
 1420 0002 4B78     		ldrb	r3, [r1, #1]	@ zero_extendqisi2
 1421              		.loc 1 580 32 view .LVU470
 1422 0004 0A78     		ldrb	r2, [r1]	@ zero_extendqisi2
 1423              	.LVL100:
 1424              		.loc 1 582 3 is_stmt 1 view .LVU471
 1425              		.loc 1 582 6 is_stmt 0 view .LVU472
ARM GAS  C:\Users\DEVELO~1\AppData\Local\Temp\ccmErl8R.s 			page 26


 1426 0006 012B     		cmp	r3, #1
 1427 0008 20D0     		beq	.L126
 1428              		.loc 1 596 5 is_stmt 1 view .LVU473
 1429              		.loc 1 596 82 is_stmt 0 view .LVU474
 1430 000a 02F00F0C 		and	ip, r2, #15
 1431              		.loc 1 596 55 view .LVU475
 1432 000e 4FF48033 		mov	r3, #65536
 1433              		.loc 1 596 27 view .LVU476
 1434 0012 D0F81C48 		ldr	r4, [r0, #2076]
 1435              		.loc 1 598 11 view .LVU477
 1436 0016 00EB4212 		add	r2, r0, r2, lsl #5
 1437              	.LVL101:
 1438              		.loc 1 596 52 view .LVU478
 1439 001a 03FA0CF3 		lsl	r3, r3, ip
 1440              		.loc 1 596 27 view .LVU479
 1441 001e 2343     		orrs	r3, r3, r4
 1442 0020 C0F81C38 		str	r3, [r0, #2076]
 1443              	.LVL102:
 1444              		.loc 1 598 5 is_stmt 1 view .LVU480
 1445              		.loc 1 598 28 is_stmt 0 view .LVU481
 1446 0024 D2F8003B 		ldr	r3, [r2, #2816]
 1447              		.loc 1 598 8 view .LVU482
 1448 0028 1B04     		lsls	r3, r3, #16
 1449 002a 0CD4     		bmi	.L123
 1450              		.loc 1 600 7 is_stmt 1 view .LVU483
 1451              		.loc 1 600 52 is_stmt 0 view .LVU484
 1452 002c 8B68     		ldr	r3, [r1, #8]
 1453              		.loc 1 600 34 view .LVU485
 1454 002e D2F8004B 		ldr	r4, [r2, #2816]
 1455              		.loc 1 600 52 view .LVU486
 1456 0032 C3F30A03 		ubfx	r3, r3, #0, #11
 1457              		.loc 1 601 38 view .LVU487
 1458 0036 0879     		ldrb	r0, [r1, #4]	@ zero_extendqisi2
 1459              	.LVL103:
 1460              		.loc 1 600 34 view .LVU488
 1461 0038 1449     		ldr	r1, .L127
 1462              	.LVL104:
 1463              		.loc 1 600 34 view .LVU489
 1464 003a 2343     		orrs	r3, r3, r4
 1465 003c 43EA8043 		orr	r3, r3, r0, lsl #18
 1466 0040 1943     		orrs	r1, r1, r3
 1467 0042 C2F8001B 		str	r1, [r2, #2816]
 1468              	.L123:
 1469              		.loc 1 606 3 is_stmt 1 view .LVU490
 1470              		.loc 1 607 1 is_stmt 0 view .LVU491
 1471 0046 0020     		movs	r0, #0
 1472 0048 30BC     		pop	{r4, r5}
 1473              		.cfi_remember_state
 1474              		.cfi_restore 5
 1475              		.cfi_restore 4
 1476              		.cfi_def_cfa_offset 0
 1477 004a 7047     		bx	lr
 1478              	.LVL105:
 1479              	.L126:
 1480              		.cfi_restore_state
 1481              		.loc 1 584 5 is_stmt 1 view .LVU492
 1482              		.loc 1 584 27 is_stmt 0 view .LVU493
ARM GAS  C:\Users\DEVELO~1\AppData\Local\Temp\ccmErl8R.s 			page 27


 1483 004c 00F50064 		add	r4, r0, #2048
 1484              		.loc 1 584 81 view .LVU494
 1485 0050 02F00F05 		and	r5, r2, #15
 1486              		.loc 1 586 10 view .LVU495
 1487 0054 00EB4210 		add	r0, r0, r2, lsl #5
 1488              	.LVL106:
 1489              		.loc 1 584 54 view .LVU496
 1490 0058 AB40     		lsls	r3, r3, r5
 1491              		.loc 1 584 27 view .LVU497
 1492 005a E569     		ldr	r5, [r4, #28]
 1493 005c 2B43     		orrs	r3, r3, r5
 1494 005e E361     		str	r3, [r4, #28]
 1495              		.loc 1 586 5 is_stmt 1 view .LVU498
 1496              		.loc 1 586 26 is_stmt 0 view .LVU499
 1497 0060 D0F80039 		ldr	r3, [r0, #2304]
 1498              		.loc 1 586 8 view .LVU500
 1499 0064 1C04     		lsls	r4, r3, #16
 1500              	.LVL107:
 1501              		.loc 1 586 8 view .LVU501
 1502 0066 EED4     		bmi	.L123
 1503              		.loc 1 588 7 is_stmt 1 view .LVU502
 1504              		.loc 1 588 51 is_stmt 0 view .LVU503
 1505 0068 8B68     		ldr	r3, [r1, #8]
 1506              		.loc 1 588 33 view .LVU504
 1507 006a D0F80059 		ldr	r5, [r0, #2304]
 1508              		.loc 1 588 51 view .LVU505
 1509 006e C3F30A03 		ubfx	r3, r3, #0, #11
 1510              		.loc 1 589 37 view .LVU506
 1511 0072 0C79     		ldrb	r4, [r1, #4]	@ zero_extendqisi2
 1512              		.loc 1 588 33 view .LVU507
 1513 0074 0549     		ldr	r1, .L127
 1514              	.LVL108:
 1515              		.loc 1 588 33 view .LVU508
 1516 0076 2B43     		orrs	r3, r3, r5
 1517 0078 43EA8443 		orr	r3, r3, r4, lsl #18
 1518 007c 43EA8253 		orr	r3, r3, r2, lsl #22
 1519 0080 1943     		orrs	r1, r1, r3
 1520              		.loc 1 607 1 view .LVU509
 1521 0082 30BC     		pop	{r4, r5}
 1522              		.cfi_restore 5
 1523              		.cfi_restore 4
 1524              		.cfi_def_cfa_offset 0
 1525              		.loc 1 588 33 view .LVU510
 1526 0084 C0F80019 		str	r1, [r0, #2304]
 1527              		.loc 1 606 3 is_stmt 1 view .LVU511
 1528              		.loc 1 607 1 is_stmt 0 view .LVU512
 1529 0088 0020     		movs	r0, #0
 1530 008a 7047     		bx	lr
 1531              	.L128:
 1532              		.align	2
 1533              	.L127:
 1534 008c 00800010 		.word	268468224
 1535              		.cfi_endproc
 1536              	.LFE151:
 1537              		.size	USB_ActivateEndpoint, .-USB_ActivateEndpoint
 1538              		.section	.text.USB_ActivateDedicatedEndpoint,"ax",%progbits
 1539              		.align	1
ARM GAS  C:\Users\DEVELO~1\AppData\Local\Temp\ccmErl8R.s 			page 28


 1540              		.p2align 2,,3
 1541              		.global	USB_ActivateDedicatedEndpoint
 1542              		.syntax unified
 1543              		.thumb
 1544              		.thumb_func
 1545              		.type	USB_ActivateDedicatedEndpoint, %function
 1546              	USB_ActivateDedicatedEndpoint:
 1547              	.LVL109:
 1548              	.LFB152:
 1549              		.loc 1 616 1 is_stmt 1 view -0
 1550              		.cfi_startproc
 1551              		@ args = 0, pretend = 0, frame = 0
 1552              		@ frame_needed = 0, uses_anonymous_args = 0
 1553              		@ link register save eliminated.
 1554              		.loc 1 617 3 view .LVU514
 1555              		.loc 1 618 3 view .LVU515
 1556              		.loc 1 616 1 is_stmt 0 view .LVU516
 1557 0000 10B4     		push	{r4}
 1558              		.cfi_def_cfa_offset 4
 1559              		.cfi_offset 4, -4
 1560              		.loc 1 621 6 view .LVU517
 1561 0002 4A78     		ldrb	r2, [r1, #1]	@ zero_extendqisi2
 1562              		.loc 1 618 32 view .LVU518
 1563 0004 0B78     		ldrb	r3, [r1]	@ zero_extendqisi2
 1564              	.LVL110:
 1565              		.loc 1 621 3 is_stmt 1 view .LVU519
 1566              		.loc 1 621 6 is_stmt 0 view .LVU520
 1567 0006 012A     		cmp	r2, #1
 1568              		.loc 1 623 11 view .LVU521
 1569 0008 00EB431C 		add	ip, r0, r3, lsl #5
 1570              		.loc 1 621 6 view .LVU522
 1571 000c 22D0     		beq	.L135
 1572              		.loc 1 635 5 is_stmt 1 view .LVU523
 1573              		.loc 1 635 28 is_stmt 0 view .LVU524
 1574 000e DCF8002B 		ldr	r2, [ip, #2816]
 1575              		.loc 1 635 8 view .LVU525
 1576 0012 1204     		lsls	r2, r2, #16
 1577 0014 0ED5     		bpl	.L136
 1578              	.LVL111:
 1579              	.L133:
 1580              		.loc 1 642 5 is_stmt 1 view .LVU526
 1581              		.loc 1 642 82 is_stmt 0 view .LVU527
 1582 0016 03F00F03 		and	r3, r3, #15
 1583              	.LVL112:
 1584              		.loc 1 642 55 view .LVU528
 1585 001a 4FF48032 		mov	r2, #65536
 1586              		.loc 1 642 27 view .LVU529
 1587 001e D0F83C18 		ldr	r1, [r0, #2108]
 1588              		.loc 1 642 52 view .LVU530
 1589 0022 02FA03F3 		lsl	r3, r2, r3
 1590              		.loc 1 646 1 view .LVU531
 1591 0026 5DF8044B 		ldr	r4, [sp], #4
 1592              		.cfi_remember_state
 1593              		.cfi_restore 4
 1594              		.cfi_def_cfa_offset 0
 1595              		.loc 1 642 27 view .LVU532
 1596 002a 0B43     		orrs	r3, r3, r1
ARM GAS  C:\Users\DEVELO~1\AppData\Local\Temp\ccmErl8R.s 			page 29


 1597 002c C0F83C38 		str	r3, [r0, #2108]
 1598              		.loc 1 645 3 is_stmt 1 view .LVU533
 1599              		.loc 1 646 1 is_stmt 0 view .LVU534
 1600 0030 0020     		movs	r0, #0
 1601              	.LVL113:
 1602              		.loc 1 646 1 view .LVU535
 1603 0032 7047     		bx	lr
 1604              	.LVL114:
 1605              	.L136:
 1606              		.cfi_restore_state
 1607              		.loc 1 637 7 is_stmt 1 view .LVU536
 1608              		.loc 1 637 52 is_stmt 0 view .LVU537
 1609 0034 8A68     		ldr	r2, [r1, #8]
 1610              		.loc 1 637 34 view .LVU538
 1611 0036 DCF8004B 		ldr	r4, [ip, #2816]
 1612              		.loc 1 637 52 view .LVU539
 1613 003a C2F30A02 		ubfx	r2, r2, #0, #11
 1614              		.loc 1 638 38 view .LVU540
 1615 003e 0979     		ldrb	r1, [r1, #4]	@ zero_extendqisi2
 1616              	.LVL115:
 1617              		.loc 1 637 34 view .LVU541
 1618 0040 2243     		orrs	r2, r2, r4
 1619 0042 42EA8142 		orr	r2, r2, r1, lsl #18
 1620 0046 42EA8352 		orr	r2, r2, r3, lsl #22
 1621 004a 42F40042 		orr	r2, r2, #32768
 1622 004e CCF8002B 		str	r2, [ip, #2816]
 1623 0052 E0E7     		b	.L133
 1624              	.LVL116:
 1625              	.L135:
 1626              		.loc 1 623 5 is_stmt 1 view .LVU542
 1627              		.loc 1 623 27 is_stmt 0 view .LVU543
 1628 0054 DCF80029 		ldr	r2, [ip, #2304]
 1629              		.loc 1 623 8 view .LVU544
 1630 0058 1404     		lsls	r4, r2, #16
 1631 005a 0ED4     		bmi	.L131
 1632              		.loc 1 625 7 is_stmt 1 view .LVU545
 1633              		.loc 1 625 51 is_stmt 0 view .LVU546
 1634 005c 8A68     		ldr	r2, [r1, #8]
 1635              		.loc 1 625 33 view .LVU547
 1636 005e DCF80049 		ldr	r4, [ip, #2304]
 1637              		.loc 1 625 51 view .LVU548
 1638 0062 C2F30A02 		ubfx	r2, r2, #0, #11
 1639              		.loc 1 626 37 view .LVU549
 1640 0066 0979     		ldrb	r1, [r1, #4]	@ zero_extendqisi2
 1641              	.LVL117:
 1642              		.loc 1 625 33 view .LVU550
 1643 0068 2243     		orrs	r2, r2, r4
 1644 006a 42EA8142 		orr	r2, r2, r1, lsl #18
 1645 006e 0949     		ldr	r1, .L137
 1646 0070 42EA8352 		orr	r2, r2, r3, lsl #22
 1647 0074 1143     		orrs	r1, r1, r2
 1648 0076 CCF80019 		str	r1, [ip, #2304]
 1649              	.L131:
 1650              		.loc 1 631 5 is_stmt 1 view .LVU551
 1651              		.loc 1 631 81 is_stmt 0 view .LVU552
 1652 007a 03F00F01 		and	r1, r3, #15
 1653              		.loc 1 631 54 view .LVU553
ARM GAS  C:\Users\DEVELO~1\AppData\Local\Temp\ccmErl8R.s 			page 30


 1654 007e 0123     		movs	r3, #1
 1655              	.LVL118:
 1656              		.loc 1 631 27 view .LVU554
 1657 0080 D0F83C28 		ldr	r2, [r0, #2108]
 1658              		.loc 1 631 54 view .LVU555
 1659 0084 8B40     		lsls	r3, r3, r1
 1660              		.loc 1 646 1 view .LVU556
 1661 0086 5DF8044B 		ldr	r4, [sp], #4
 1662              		.cfi_restore 4
 1663              		.cfi_def_cfa_offset 0
 1664              		.loc 1 631 27 view .LVU557
 1665 008a 1343     		orrs	r3, r3, r2
 1666 008c C0F83C38 		str	r3, [r0, #2108]
 1667              		.loc 1 645 3 is_stmt 1 view .LVU558
 1668              		.loc 1 646 1 is_stmt 0 view .LVU559
 1669 0090 0020     		movs	r0, #0
 1670              	.LVL119:
 1671              		.loc 1 646 1 view .LVU560
 1672 0092 7047     		bx	lr
 1673              	.L138:
 1674              		.align	2
 1675              	.L137:
 1676 0094 00800010 		.word	268468224
 1677              		.cfi_endproc
 1678              	.LFE152:
 1679              		.size	USB_ActivateDedicatedEndpoint, .-USB_ActivateDedicatedEndpoint
 1680              		.section	.text.USB_DeactivateEndpoint,"ax",%progbits
 1681              		.align	1
 1682              		.p2align 2,,3
 1683              		.global	USB_DeactivateEndpoint
 1684              		.syntax unified
 1685              		.thumb
 1686              		.thumb_func
 1687              		.type	USB_DeactivateEndpoint, %function
 1688              	USB_DeactivateEndpoint:
 1689              	.LVL120:
 1690              	.LFB153:
 1691              		.loc 1 655 1 is_stmt 1 view -0
 1692              		.cfi_startproc
 1693              		@ args = 0, pretend = 0, frame = 0
 1694              		@ frame_needed = 0, uses_anonymous_args = 0
 1695              		@ link register save eliminated.
 1696              		.loc 1 656 3 view .LVU562
 1697              		.loc 1 657 3 view .LVU563
 1698              		.loc 1 660 6 is_stmt 0 view .LVU564
 1699 0000 4A78     		ldrb	r2, [r1, #1]	@ zero_extendqisi2
 1700              		.loc 1 657 32 view .LVU565
 1701 0002 0B78     		ldrb	r3, [r1]	@ zero_extendqisi2
 1702              	.LVL121:
 1703              		.loc 1 660 3 is_stmt 1 view .LVU566
 1704              		.loc 1 660 6 is_stmt 0 view .LVU567
 1705 0004 012A     		cmp	r2, #1
 1706              		.loc 1 662 10 view .LVU568
 1707 0006 00EB431C 		add	ip, r0, r3, lsl #5
 1708              		.loc 1 660 6 view .LVU569
 1709 000a 2AD0     		beq	.L144
 1710              		.loc 1 678 5 is_stmt 1 view .LVU570
ARM GAS  C:\Users\DEVELO~1\AppData\Local\Temp\ccmErl8R.s 			page 31


 1711              		.loc 1 678 27 is_stmt 0 view .LVU571
 1712 000c DCF8002B 		ldr	r2, [ip, #2816]
 1713              		.loc 1 678 8 view .LVU572
 1714 0010 002A     		cmp	r2, #0
 1715 0012 19DB     		blt	.L145
 1716              	.L143:
 1717              		.loc 1 684 5 is_stmt 1 view .LVU573
 1718              		.loc 1 684 57 is_stmt 0 view .LVU574
 1719 0014 4FF48032 		mov	r2, #65536
 1720              		.loc 1 684 84 view .LVU575
 1721 0018 03F00F03 		and	r3, r3, #15
 1722              	.LVL122:
 1723              		.loc 1 684 27 view .LVU576
 1724 001c D0F83C18 		ldr	r1, [r0, #2108]
 1725              	.LVL123:
 1726              		.loc 1 684 54 view .LVU577
 1727 0020 02FA03F3 		lsl	r3, r2, r3
 1728              		.loc 1 686 32 view .LVU578
 1729 0024 234A     		ldr	r2, .L146
 1730              		.loc 1 684 27 view .LVU579
 1731 0026 21EA0301 		bic	r1, r1, r3
 1732 002a C0F83C18 		str	r1, [r0, #2108]
 1733              		.loc 1 685 5 is_stmt 1 view .LVU580
 1734              		.loc 1 685 27 is_stmt 0 view .LVU581
 1735 002e D0F81C18 		ldr	r1, [r0, #2076]
 1736 0032 21EA0303 		bic	r3, r1, r3
 1737 0036 C0F81C38 		str	r3, [r0, #2076]
 1738              		.loc 1 686 5 is_stmt 1 view .LVU582
 1739              		.loc 1 693 1 is_stmt 0 view .LVU583
 1740 003a 0020     		movs	r0, #0
 1741              	.LVL124:
 1742              		.loc 1 686 32 view .LVU584
 1743 003c DCF8003B 		ldr	r3, [ip, #2816]
 1744 0040 1A40     		ands	r2, r2, r3
 1745 0042 CCF8002B 		str	r2, [ip, #2816]
 1746              		.loc 1 692 3 is_stmt 1 view .LVU585
 1747              		.loc 1 693 1 is_stmt 0 view .LVU586
 1748 0046 7047     		bx	lr
 1749              	.LVL125:
 1750              	.L145:
 1751              		.loc 1 680 7 is_stmt 1 view .LVU587
 1752              		.loc 1 680 34 is_stmt 0 view .LVU588
 1753 0048 DCF8002B 		ldr	r2, [ip, #2816]
 1754 004c 42F00062 		orr	r2, r2, #134217728
 1755 0050 CCF8002B 		str	r2, [ip, #2816]
 1756              		.loc 1 681 7 is_stmt 1 view .LVU589
 1757              		.loc 1 681 34 is_stmt 0 view .LVU590
 1758 0054 DCF8002B 		ldr	r2, [ip, #2816]
 1759 0058 42F08042 		orr	r2, r2, #1073741824
 1760 005c CCF8002B 		str	r2, [ip, #2816]
 1761 0060 D8E7     		b	.L143
 1762              	.L144:
 1763              		.loc 1 662 5 is_stmt 1 view .LVU591
 1764              		.loc 1 662 26 is_stmt 0 view .LVU592
 1765 0062 DCF80029 		ldr	r2, [ip, #2304]
 1766              		.loc 1 662 8 view .LVU593
 1767 0066 002A     		cmp	r2, #0
ARM GAS  C:\Users\DEVELO~1\AppData\Local\Temp\ccmErl8R.s 			page 32


 1768 0068 0BDA     		bge	.L141
 1769              		.loc 1 664 7 is_stmt 1 view .LVU594
 1770              		.loc 1 664 33 is_stmt 0 view .LVU595
 1771 006a DCF80029 		ldr	r2, [ip, #2304]
 1772 006e 42F00062 		orr	r2, r2, #134217728
 1773 0072 CCF80029 		str	r2, [ip, #2304]
 1774              		.loc 1 665 7 is_stmt 1 view .LVU596
 1775              		.loc 1 665 33 is_stmt 0 view .LVU597
 1776 0076 DCF80029 		ldr	r2, [ip, #2304]
 1777 007a 42F08042 		orr	r2, r2, #1073741824
 1778 007e CCF80029 		str	r2, [ip, #2304]
 1779              	.L141:
 1780              		.loc 1 668 5 is_stmt 1 view .LVU598
 1781              		.loc 1 668 83 is_stmt 0 view .LVU599
 1782 0082 03F00F02 		and	r2, r3, #15
 1783              		.loc 1 668 56 view .LVU600
 1784 0086 0123     		movs	r3, #1
 1785              	.LVL126:
 1786              		.loc 1 668 27 view .LVU601
 1787 0088 D0F83C18 		ldr	r1, [r0, #2108]
 1788              	.LVL127:
 1789              		.loc 1 668 56 view .LVU602
 1790 008c 9340     		lsls	r3, r3, r2
 1791              		.loc 1 670 31 view .LVU603
 1792 008e 0A4A     		ldr	r2, .L146+4
 1793              		.loc 1 668 27 view .LVU604
 1794 0090 21EA0301 		bic	r1, r1, r3
 1795 0094 C0F83C18 		str	r1, [r0, #2108]
 1796              		.loc 1 669 5 is_stmt 1 view .LVU605
 1797              		.loc 1 669 27 is_stmt 0 view .LVU606
 1798 0098 D0F81C18 		ldr	r1, [r0, #2076]
 1799 009c 21EA0303 		bic	r3, r1, r3
 1800 00a0 C0F81C38 		str	r3, [r0, #2076]
 1801              		.loc 1 670 5 is_stmt 1 view .LVU607
 1802              		.loc 1 693 1 is_stmt 0 view .LVU608
 1803 00a4 0020     		movs	r0, #0
 1804              	.LVL128:
 1805              		.loc 1 670 31 view .LVU609
 1806 00a6 DCF80039 		ldr	r3, [ip, #2304]
 1807 00aa 1A40     		ands	r2, r2, r3
 1808 00ac CCF80029 		str	r2, [ip, #2304]
 1809              		.loc 1 692 3 is_stmt 1 view .LVU610
 1810              		.loc 1 693 1 is_stmt 0 view .LVU611
 1811 00b0 7047     		bx	lr
 1812              	.L147:
 1813 00b2 00BF     		.align	2
 1814              	.L146:
 1815 00b4 0078F3EF 		.word	-269256704
 1816 00b8 007833EC 		.word	-332171264
 1817              		.cfi_endproc
 1818              	.LFE153:
 1819              		.size	USB_DeactivateEndpoint, .-USB_DeactivateEndpoint
 1820              		.section	.text.USB_DeactivateDedicatedEndpoint,"ax",%progbits
 1821              		.align	1
 1822              		.p2align 2,,3
 1823              		.global	USB_DeactivateDedicatedEndpoint
 1824              		.syntax unified
ARM GAS  C:\Users\DEVELO~1\AppData\Local\Temp\ccmErl8R.s 			page 33


 1825              		.thumb
 1826              		.thumb_func
 1827              		.type	USB_DeactivateDedicatedEndpoint, %function
 1828              	USB_DeactivateDedicatedEndpoint:
 1829              	.LVL129:
 1830              	.LFB154:
 1831              		.loc 1 702 1 is_stmt 1 view -0
 1832              		.cfi_startproc
 1833              		@ args = 0, pretend = 0, frame = 0
 1834              		@ frame_needed = 0, uses_anonymous_args = 0
 1835              		@ link register save eliminated.
 1836              		.loc 1 703 3 view .LVU613
 1837              		.loc 1 704 3 view .LVU614
 1838              		.loc 1 702 1 is_stmt 0 view .LVU615
 1839 0000 10B4     		push	{r4}
 1840              		.cfi_def_cfa_offset 4
 1841              		.cfi_offset 4, -4
 1842              		.loc 1 707 6 view .LVU616
 1843 0002 4A78     		ldrb	r2, [r1, #1]	@ zero_extendqisi2
 1844              		.loc 1 704 32 view .LVU617
 1845 0004 0B78     		ldrb	r3, [r1]	@ zero_extendqisi2
 1846              	.LVL130:
 1847              		.loc 1 707 3 is_stmt 1 view .LVU618
 1848              		.loc 1 707 6 is_stmt 0 view .LVU619
 1849 0006 012A     		cmp	r2, #1
 1850              		.loc 1 709 10 view .LVU620
 1851 0008 00EB4312 		add	r2, r0, r3, lsl #5
 1852              		.loc 1 707 6 view .LVU621
 1853 000c 25D0     		beq	.L154
 1854              		.loc 1 720 5 is_stmt 1 view .LVU622
 1855              		.loc 1 720 27 is_stmt 0 view .LVU623
 1856 000e D2F8001B 		ldr	r1, [r2, #2816]
 1857              	.LVL131:
 1858              		.loc 1 720 8 view .LVU624
 1859 0012 0029     		cmp	r1, #0
 1860 0014 14DB     		blt	.L155
 1861              	.L152:
 1862              		.loc 1 726 5 is_stmt 1 view .LVU625
 1863              		.loc 1 726 32 is_stmt 0 view .LVU626
 1864 0016 D2F8004B 		ldr	r4, [r2, #2816]
 1865              		.loc 1 727 84 view .LVU627
 1866 001a 03F00F03 		and	r3, r3, #15
 1867              	.LVL132:
 1868              		.loc 1 727 57 view .LVU628
 1869 001e 4FF48031 		mov	r1, #65536
 1870              		.loc 1 726 32 view .LVU629
 1871 0022 24F40044 		bic	r4, r4, #32768
 1872              		.loc 1 727 54 view .LVU630
 1873 0026 9940     		lsls	r1, r1, r3
 1874              		.loc 1 726 32 view .LVU631
 1875 0028 C2F8004B 		str	r4, [r2, #2816]
 1876              		.loc 1 727 5 is_stmt 1 view .LVU632
 1877              		.loc 1 727 27 is_stmt 0 view .LVU633
 1878 002c D0F81C38 		ldr	r3, [r0, #2076]
 1879              		.loc 1 731 1 view .LVU634
 1880 0030 5DF8044B 		ldr	r4, [sp], #4
 1881              		.cfi_remember_state
ARM GAS  C:\Users\DEVELO~1\AppData\Local\Temp\ccmErl8R.s 			page 34


 1882              		.cfi_restore 4
 1883              		.cfi_def_cfa_offset 0
 1884              		.loc 1 727 27 view .LVU635
 1885 0034 23EA0103 		bic	r3, r3, r1
 1886 0038 C0F81C38 		str	r3, [r0, #2076]
 1887              		.loc 1 730 3 is_stmt 1 view .LVU636
 1888              		.loc 1 731 1 is_stmt 0 view .LVU637
 1889 003c 0020     		movs	r0, #0
 1890              	.LVL133:
 1891              		.loc 1 731 1 view .LVU638
 1892 003e 7047     		bx	lr
 1893              	.LVL134:
 1894              	.L155:
 1895              		.cfi_restore_state
 1896              		.loc 1 722 7 is_stmt 1 view .LVU639
 1897              		.loc 1 722 35 is_stmt 0 view .LVU640
 1898 0040 D2F8001B 		ldr	r1, [r2, #2816]
 1899 0044 41F00061 		orr	r1, r1, #134217728
 1900 0048 C2F8001B 		str	r1, [r2, #2816]
 1901              		.loc 1 723 7 is_stmt 1 view .LVU641
 1902              		.loc 1 723 35 is_stmt 0 view .LVU642
 1903 004c D2F8001B 		ldr	r1, [r2, #2816]
 1904 0050 41F08041 		orr	r1, r1, #1073741824
 1905 0054 C2F8001B 		str	r1, [r2, #2816]
 1906 0058 DDE7     		b	.L152
 1907              	.LVL135:
 1908              	.L154:
 1909              		.loc 1 709 5 is_stmt 1 view .LVU643
 1910              		.loc 1 709 26 is_stmt 0 view .LVU644
 1911 005a D2F80019 		ldr	r1, [r2, #2304]
 1912              	.LVL136:
 1913              		.loc 1 709 8 view .LVU645
 1914 005e 0029     		cmp	r1, #0
 1915 0060 0BDA     		bge	.L150
 1916              		.loc 1 711 7 is_stmt 1 view .LVU646
 1917              		.loc 1 711 34 is_stmt 0 view .LVU647
 1918 0062 D2F80019 		ldr	r1, [r2, #2304]
 1919 0066 41F00061 		orr	r1, r1, #134217728
 1920 006a C2F80019 		str	r1, [r2, #2304]
 1921              		.loc 1 712 7 is_stmt 1 view .LVU648
 1922              		.loc 1 712 34 is_stmt 0 view .LVU649
 1923 006e D2F80019 		ldr	r1, [r2, #2304]
 1924 0072 41F08041 		orr	r1, r1, #1073741824
 1925 0076 C2F80019 		str	r1, [r2, #2304]
 1926              	.L150:
 1927              		.loc 1 715 5 is_stmt 1 view .LVU650
 1928              		.loc 1 715 31 is_stmt 0 view .LVU651
 1929 007a D2F80049 		ldr	r4, [r2, #2304]
 1930              		.loc 1 716 83 view .LVU652
 1931 007e 03F00F03 		and	r3, r3, #15
 1932              	.LVL137:
 1933              		.loc 1 716 56 view .LVU653
 1934 0082 0121     		movs	r1, #1
 1935              		.loc 1 715 31 view .LVU654
 1936 0084 24F40044 		bic	r4, r4, #32768
 1937              		.loc 1 716 56 view .LVU655
 1938 0088 9940     		lsls	r1, r1, r3
ARM GAS  C:\Users\DEVELO~1\AppData\Local\Temp\ccmErl8R.s 			page 35


 1939              		.loc 1 715 31 view .LVU656
 1940 008a C2F80049 		str	r4, [r2, #2304]
 1941              		.loc 1 716 5 is_stmt 1 view .LVU657
 1942              		.loc 1 716 27 is_stmt 0 view .LVU658
 1943 008e D0F81C38 		ldr	r3, [r0, #2076]
 1944              		.loc 1 731 1 view .LVU659
 1945 0092 5DF8044B 		ldr	r4, [sp], #4
 1946              		.cfi_restore 4
 1947              		.cfi_def_cfa_offset 0
 1948              		.loc 1 716 27 view .LVU660
 1949 0096 23EA0103 		bic	r3, r3, r1
 1950 009a C0F81C38 		str	r3, [r0, #2076]
 1951              		.loc 1 730 3 is_stmt 1 view .LVU661
 1952              		.loc 1 731 1 is_stmt 0 view .LVU662
 1953 009e 0020     		movs	r0, #0
 1954              	.LVL138:
 1955              		.loc 1 731 1 view .LVU663
 1956 00a0 7047     		bx	lr
 1957              		.cfi_endproc
 1958              	.LFE154:
 1959              		.size	USB_DeactivateDedicatedEndpoint, .-USB_DeactivateDedicatedEndpoint
 1960 00a2 00BF     		.section	.text.USB_EPStartXfer,"ax",%progbits
 1961              		.align	1
 1962              		.p2align 2,,3
 1963              		.global	USB_EPStartXfer
 1964              		.syntax unified
 1965              		.thumb
 1966              		.thumb_func
 1967              		.type	USB_EPStartXfer, %function
 1968              	USB_EPStartXfer:
 1969              	.LVL139:
 1970              	.LFB155:
 1971              		.loc 1 744 1 is_stmt 1 view -0
 1972              		.cfi_startproc
 1973              		@ args = 0, pretend = 0, frame = 0
 1974              		@ frame_needed = 0, uses_anonymous_args = 0
 1975              		.loc 1 745 3 view .LVU665
 1976              		.loc 1 746 3 view .LVU666
 1977              		.loc 1 744 1 is_stmt 0 view .LVU667
 1978 0000 F0B5     		push	{r4, r5, r6, r7, lr}
 1979              		.cfi_def_cfa_offset 20
 1980              		.cfi_offset 4, -20
 1981              		.cfi_offset 5, -16
 1982              		.cfi_offset 6, -12
 1983              		.cfi_offset 7, -8
 1984              		.cfi_offset 14, -4
 1985              		.loc 1 750 6 view .LVU668
 1986 0002 4B78     		ldrb	r3, [r1, #1]	@ zero_extendqisi2
 1987              		.loc 1 746 32 view .LVU669
 1988 0004 0C78     		ldrb	r4, [r1]	@ zero_extendqisi2
 1989              	.LVL140:
 1990              		.loc 1 747 3 is_stmt 1 view .LVU670
 1991              		.loc 1 750 3 view .LVU671
 1992              		.loc 1 750 6 is_stmt 0 view .LVU672
 1993 0006 012B     		cmp	r3, #1
 1994 0008 44D0     		beq	.L194
 1995              		.loc 1 849 5 is_stmt 1 view .LVU673
ARM GAS  C:\Users\DEVELO~1\AppData\Local\Temp\ccmErl8R.s 			page 36


 1996              		.loc 1 849 33 is_stmt 0 view .LVU674
 1997 000a 00EB4413 		add	r3, r0, r4, lsl #5
 1998 000e 864E     		ldr	r6, .L198
 1999              		.loc 1 850 33 view .LVU675
 2000 0010 864D     		ldr	r5, .L198+4
 2001              		.loc 1 849 33 view .LVU676
 2002 0012 D3F8107B 		ldr	r7, [r3, #2832]
 2003 0016 03F5306C 		add	ip, r3, #2816
 2004 001a 3E40     		ands	r6, r6, r7
 2005 001c C3F8106B 		str	r6, [r3, #2832]
 2006              		.loc 1 850 5 is_stmt 1 view .LVU677
 2007              		.loc 1 850 33 is_stmt 0 view .LVU678
 2008 0020 D3F8106B 		ldr	r6, [r3, #2832]
 2009 0024 3540     		ands	r5, r5, r6
 2010 0026 C3F8105B 		str	r5, [r3, #2832]
 2011              		.loc 1 852 5 is_stmt 1 view .LVU679
 2012              		.loc 1 852 8 is_stmt 0 view .LVU680
 2013 002a 74BB     		cbnz	r4, .L174
 2014              		.loc 1 854 7 is_stmt 1 view .LVU681
 2015              		.loc 1 854 10 is_stmt 0 view .LVU682
 2016 002c 0C69     		ldr	r4, [r1, #16]
 2017              	.LVL141:
 2018              		.loc 1 854 10 view .LVU683
 2019 002e 002C     		cmp	r4, #0
 2020 0030 40F08C80 		bne	.L175
 2021              		.loc 1 771 30 view .LVU684
 2022 0034 8C68     		ldr	r4, [r1, #8]
 2023              	.L176:
 2024              		.loc 1 860 7 is_stmt 1 view .LVU685
 2025              		.loc 1 860 21 is_stmt 0 view .LVU686
 2026 0036 0C62     		str	r4, [r1, #32]
 2027              		.loc 1 862 7 is_stmt 1 view .LVU687
 2028              	.L193:
 2029              		.loc 1 869 37 is_stmt 0 view .LVU688
 2030 0038 DCF81050 		ldr	r5, [ip, #16]
 2031              		.loc 1 869 65 view .LVU689
 2032 003c C4F31204 		ubfx	r4, r4, #0, #19
 2033              		.loc 1 882 8 view .LVU690
 2034 0040 012A     		cmp	r2, #1
 2035              		.loc 1 869 37 view .LVU691
 2036 0042 44EA0504 		orr	r4, r4, r5
 2037 0046 CCF81040 		str	r4, [ip, #16]
 2038              		.loc 1 870 9 is_stmt 1 view .LVU692
 2039              		.loc 1 870 37 is_stmt 0 view .LVU693
 2040 004a DCF81040 		ldr	r4, [ip, #16]
 2041 004e 44F40024 		orr	r4, r4, #524288
 2042 0052 CCF81040 		str	r4, [ip, #16]
 2043              		.loc 1 882 5 is_stmt 1 view .LVU694
 2044              		.loc 1 882 8 is_stmt 0 view .LVU695
 2045 0056 00F09A80 		beq	.L195
 2046              	.LVL142:
 2047              	.L179:
 2048              		.loc 1 890 5 is_stmt 1 view .LVU696
 2049              		.loc 1 890 8 is_stmt 0 view .LVU697
 2050 005a 0A79     		ldrb	r2, [r1, #4]	@ zero_extendqisi2
 2051 005c 012A     		cmp	r2, #1
 2052 005e 0CD1     		bne	.L180
ARM GAS  C:\Users\DEVELO~1\AppData\Local\Temp\ccmErl8R.s 			page 37


 2053              		.loc 1 892 7 is_stmt 1 view .LVU698
 2054              		.loc 1 892 23 is_stmt 0 view .LVU699
 2055 0060 D0F80828 		ldr	r2, [r0, #2056]
 2056              		.loc 1 892 10 view .LVU700
 2057 0064 12F4807F 		tst	r2, #256
 2058              		.loc 1 894 36 view .LVU701
 2059 0068 D3F8002B 		ldr	r2, [r3, #2816]
 2060              		.loc 1 894 9 is_stmt 1 view .LVU702
 2061              		.loc 1 894 36 is_stmt 0 view .LVU703
 2062 006c 0CBF     		ite	eq
 2063 006e 42F00052 		orreq	r2, r2, #536870912
 2064              		.loc 1 898 9 is_stmt 1 view .LVU704
 2065              		.loc 1 898 36 is_stmt 0 view .LVU705
 2066 0072 42F08052 		orrne	r2, r2, #268435456
 2067 0076 C3F8002B 		str	r2, [r3, #2816]
 2068              	.L180:
 2069              		.loc 1 902 5 is_stmt 1 view .LVU706
 2070              		.loc 1 902 32 is_stmt 0 view .LVU707
 2071 007a D3F8002B 		ldr	r2, [r3, #2816]
 2072              		.loc 1 906 1 view .LVU708
 2073 007e 0020     		movs	r0, #0
 2074              	.LVL143:
 2075              		.loc 1 902 32 view .LVU709
 2076 0080 42F00442 		orr	r2, r2, #-2080374784
 2077 0084 C3F8002B 		str	r2, [r3, #2816]
 2078              		.loc 1 905 3 is_stmt 1 view .LVU710
 2079              		.loc 1 906 1 is_stmt 0 view .LVU711
 2080 0088 F0BD     		pop	{r4, r5, r6, r7, pc}
 2081              	.LVL144:
 2082              	.L174:
 2083              		.loc 1 867 7 is_stmt 1 view .LVU712
 2084              		.loc 1 867 13 is_stmt 0 view .LVU713
 2085 008a 0C69     		ldr	r4, [r1, #16]
 2086              	.LVL145:
 2087              		.loc 1 867 10 view .LVU714
 2088 008c 002C     		cmp	r4, #0
 2089 008e 60D1     		bne	.L178
 2090              		.loc 1 869 9 is_stmt 1 view .LVU715
 2091              		.loc 1 869 65 is_stmt 0 view .LVU716
 2092 0090 8C68     		ldr	r4, [r1, #8]
 2093 0092 D1E7     		b	.L193
 2094              	.LVL146:
 2095              	.L194:
 2096              		.loc 1 753 5 is_stmt 1 view .LVU717
 2097              		.loc 1 755 34 is_stmt 0 view .LVU718
 2098 0094 00EB4413 		add	r3, r0, r4, lsl #5
 2099              		.loc 1 753 11 view .LVU719
 2100 0098 0D69     		ldr	r5, [r1, #16]
 2101              		.loc 1 755 34 view .LVU720
 2102 009a 03F51063 		add	r3, r3, #2304
 2103              		.loc 1 753 8 view .LVU721
 2104 009e 25BB     		cbnz	r5, .L158
 2105              		.loc 1 755 7 is_stmt 1 view .LVU722
 2106              		.loc 1 755 34 is_stmt 0 view .LVU723
 2107 00a0 1E69     		ldr	r6, [r3, #16]
 2108              		.loc 1 793 8 view .LVU724
 2109 00a2 012A     		cmp	r2, #1
ARM GAS  C:\Users\DEVELO~1\AppData\Local\Temp\ccmErl8R.s 			page 38


 2110              		.loc 1 755 34 view .LVU725
 2111 00a4 614D     		ldr	r5, .L198+4
 2112 00a6 05EA0605 		and	r5, r5, r6
 2113 00aa 1D61     		str	r5, [r3, #16]
 2114              		.loc 1 756 7 is_stmt 1 view .LVU726
 2115              		.loc 1 756 34 is_stmt 0 view .LVU727
 2116 00ac 1D69     		ldr	r5, [r3, #16]
 2117 00ae 45F40025 		orr	r5, r5, #524288
 2118 00b2 1D61     		str	r5, [r3, #16]
 2119              		.loc 1 757 7 is_stmt 1 view .LVU728
 2120              		.loc 1 757 34 is_stmt 0 view .LVU729
 2121 00b4 5C4D     		ldr	r5, .L198
 2122 00b6 1E69     		ldr	r6, [r3, #16]
 2123 00b8 05EA0605 		and	r5, r5, r6
 2124 00bc 1D61     		str	r5, [r3, #16]
 2125              		.loc 1 783 15 view .LVU730
 2126 00be 0F79     		ldrb	r7, [r1, #4]	@ zero_extendqisi2
 2127              		.loc 1 793 5 is_stmt 1 view .LVU731
 2128              		.loc 1 793 8 is_stmt 0 view .LVU732
 2129 00c0 2ED0     		beq	.L196
 2130              	.L163:
 2131              		.loc 1 818 7 is_stmt 1 view .LVU733
 2132              		.loc 1 818 33 is_stmt 0 view .LVU734
 2133 00c2 1D68     		ldr	r5, [r3]
 2134              		.loc 1 820 10 view .LVU735
 2135 00c4 012F     		cmp	r7, #1
 2136              		.loc 1 818 33 view .LVU736
 2137 00c6 45F00445 		orr	r5, r5, #-2080374784
 2138 00ca 1D60     		str	r5, [r3]
 2139              		.loc 1 820 7 is_stmt 1 view .LVU737
 2140              		.loc 1 820 10 is_stmt 0 view .LVU738
 2141 00cc 00F08880 		beq	.L168
 2142              		.loc 1 823 9 is_stmt 1 view .LVU739
 2143              		.loc 1 823 12 is_stmt 0 view .LVU740
 2144 00d0 0B69     		ldr	r3, [r1, #16]
 2145 00d2 43B1     		cbz	r3, .L167
 2146              		.loc 1 825 11 is_stmt 1 view .LVU741
 2147              		.loc 1 825 54 is_stmt 0 view .LVU742
 2148 00d4 04F00F04 		and	r4, r4, #15
 2149              	.LVL147:
 2150              		.loc 1 825 42 view .LVU743
 2151 00d8 0123     		movs	r3, #1
 2152              		.loc 1 825 35 view .LVU744
 2153 00da D0F83428 		ldr	r2, [r0, #2100]
 2154              	.LVL148:
 2155              		.loc 1 825 42 view .LVU745
 2156 00de A340     		lsls	r3, r3, r4
 2157              		.loc 1 825 35 view .LVU746
 2158 00e0 1343     		orrs	r3, r3, r2
 2159 00e2 C0F83438 		str	r3, [r0, #2100]
 2160              	.LVL149:
 2161              	.L167:
 2162              		.loc 1 905 3 is_stmt 1 view .LVU747
 2163              		.loc 1 906 1 is_stmt 0 view .LVU748
 2164 00e6 0020     		movs	r0, #0
 2165              	.LVL150:
 2166              		.loc 1 906 1 view .LVU749
ARM GAS  C:\Users\DEVELO~1\AppData\Local\Temp\ccmErl8R.s 			page 39


 2167 00e8 F0BD     		pop	{r4, r5, r6, r7, pc}
 2168              	.LVL151:
 2169              	.L158:
 2170              		.loc 1 766 7 is_stmt 1 view .LVU750
 2171              		.loc 1 766 34 is_stmt 0 view .LVU751
 2172 00ea 1F69     		ldr	r7, [r3, #16]
 2173 00ec 4E4E     		ldr	r6, .L198
 2174 00ee 3E40     		ands	r6, r6, r7
 2175 00f0 1E61     		str	r6, [r3, #16]
 2176              		.loc 1 767 7 is_stmt 1 view .LVU752
 2177              		.loc 1 767 34 is_stmt 0 view .LVU753
 2178 00f2 4E4E     		ldr	r6, .L198+4
 2179 00f4 1F69     		ldr	r7, [r3, #16]
 2180 00f6 3E40     		ands	r6, r6, r7
 2181 00f8 1E61     		str	r6, [r3, #16]
 2182              		.loc 1 769 7 is_stmt 1 view .LVU754
 2183              		.loc 1 769 10 is_stmt 0 view .LVU755
 2184 00fa 002C     		cmp	r4, #0
 2185 00fc 4ED1     		bne	.L160
 2186              		.loc 1 771 9 is_stmt 1 view .LVU756
 2187              		.loc 1 771 30 is_stmt 0 view .LVU757
 2188 00fe 8E68     		ldr	r6, [r1, #8]
 2189              		.loc 1 771 12 view .LVU758
 2190 0100 B542     		cmp	r5, r6
 2191 0102 00F28D80 		bhi	.L197
 2192              	.L161:
 2193              		.loc 1 776 9 is_stmt 1 view .LVU759
 2194              		.loc 1 776 36 is_stmt 0 view .LVU760
 2195 0106 1E69     		ldr	r6, [r3, #16]
 2196 0108 46F40026 		orr	r6, r6, #524288
 2197 010c 1E61     		str	r6, [r3, #16]
 2198              		.loc 1 783 15 view .LVU761
 2199 010e 0F79     		ldrb	r7, [r1, #4]	@ zero_extendqisi2
 2200              	.L162:
 2201              		.loc 1 790 7 is_stmt 1 view .LVU762
 2202              		.loc 1 790 34 is_stmt 0 view .LVU763
 2203 0110 1E69     		ldr	r6, [r3, #16]
 2204              		.loc 1 790 62 view .LVU764
 2205 0112 C5F31205 		ubfx	r5, r5, #0, #19
 2206              		.loc 1 793 8 view .LVU765
 2207 0116 012A     		cmp	r2, #1
 2208              		.loc 1 790 34 view .LVU766
 2209 0118 45EA0605 		orr	r5, r5, r6
 2210 011c 1D61     		str	r5, [r3, #16]
 2211              		.loc 1 793 5 is_stmt 1 view .LVU767
 2212              		.loc 1 793 8 is_stmt 0 view .LVU768
 2213 011e D0D1     		bne	.L163
 2214              	.L196:
 2215              		.loc 1 795 7 is_stmt 1 view .LVU769
 2216              		.loc 1 795 23 is_stmt 0 view .LVU770
 2217 0120 CA69     		ldr	r2, [r1, #28]
 2218              	.LVL152:
 2219              		.loc 1 795 10 view .LVU771
 2220 0122 02B1     		cbz	r2, .L164
 2221              		.loc 1 797 9 is_stmt 1 view .LVU772
 2222              		.loc 1 797 35 is_stmt 0 view .LVU773
 2223 0124 5A61     		str	r2, [r3, #20]
ARM GAS  C:\Users\DEVELO~1\AppData\Local\Temp\ccmErl8R.s 			page 40


 2224              	.L164:
 2225              		.loc 1 800 7 is_stmt 1 view .LVU774
 2226              		.loc 1 800 10 is_stmt 0 view .LVU775
 2227 0126 012F     		cmp	r7, #1
 2228 0128 0AD1     		bne	.L165
 2229              		.loc 1 802 9 is_stmt 1 view .LVU776
 2230              		.loc 1 802 25 is_stmt 0 view .LVU777
 2231 012a D0F80828 		ldr	r2, [r0, #2056]
 2232              		.loc 1 802 12 view .LVU778
 2233 012e 12F4807F 		tst	r2, #256
 2234              		.loc 1 804 37 view .LVU779
 2235 0132 1A68     		ldr	r2, [r3]
 2236              		.loc 1 804 11 is_stmt 1 view .LVU780
 2237              		.loc 1 804 37 is_stmt 0 view .LVU781
 2238 0134 0CBF     		ite	eq
 2239 0136 42F00052 		orreq	r2, r2, #536870912
 2240              		.loc 1 808 11 is_stmt 1 view .LVU782
 2241              		.loc 1 808 37 is_stmt 0 view .LVU783
 2242 013a 42F08052 		orrne	r2, r2, #268435456
 2243 013e 1A60     		str	r2, [r3]
 2244              	.L165:
 2245              		.loc 1 813 7 is_stmt 1 view .LVU784
 2246              		.loc 1 813 33 is_stmt 0 view .LVU785
 2247 0140 1A68     		ldr	r2, [r3]
 2248              		.loc 1 906 1 view .LVU786
 2249 0142 0020     		movs	r0, #0
 2250              	.LVL153:
 2251              		.loc 1 813 33 view .LVU787
 2252 0144 42F00442 		orr	r2, r2, #-2080374784
 2253 0148 1A60     		str	r2, [r3]
 2254              		.loc 1 905 3 is_stmt 1 view .LVU788
 2255              		.loc 1 906 1 is_stmt 0 view .LVU789
 2256 014a F0BD     		pop	{r4, r5, r6, r7, pc}
 2257              	.LVL154:
 2258              	.L175:
 2259              		.loc 1 856 9 is_stmt 1 view .LVU790
 2260              		.loc 1 856 26 is_stmt 0 view .LVU791
 2261 014c 8C68     		ldr	r4, [r1, #8]
 2262              		.loc 1 856 22 view .LVU792
 2263 014e 0C61     		str	r4, [r1, #16]
 2264 0150 71E7     		b	.L176
 2265              	.L178:
 2266              		.loc 1 874 9 is_stmt 1 view .LVU793
 2267              		.loc 1 874 47 is_stmt 0 view .LVU794
 2268 0152 8D68     		ldr	r5, [r1, #8]
 2269              	.LVL155:
 2270              		.loc 1 875 9 is_stmt 1 view .LVU795
 2271              		.loc 1 882 8 is_stmt 0 view .LVU796
 2272 0154 012A     		cmp	r2, #1
 2273              		.loc 1 877 64 view .LVU797
 2274 0156 364E     		ldr	r6, .L198+8
 2275              		.loc 1 874 43 view .LVU798
 2276 0158 2C44     		add	r4, r4, r5
 2277              	.LVL156:
 2278              		.loc 1 874 59 view .LVU799
 2279 015a 04F1FF34 		add	r4, r4, #-1
 2280              		.loc 1 874 65 view .LVU800
ARM GAS  C:\Users\DEVELO~1\AppData\Local\Temp\ccmErl8R.s 			page 41


 2281 015e B4FBF5F4 		udiv	r4, r4, r5
 2282 0162 A4B2     		uxth	r4, r4
 2283              		.loc 1 875 39 view .LVU801
 2284 0164 04FB05F5 		mul	r5, r4, r5
 2285              	.LVL157:
 2286              		.loc 1 877 64 view .LVU802
 2287 0168 06EAC444 		and	r4, r6, r4, lsl #19
 2288              		.loc 1 877 37 view .LVU803
 2289 016c DCF81060 		ldr	r6, [ip, #16]
 2290              		.loc 1 875 23 view .LVU804
 2291 0170 0D62     		str	r5, [r1, #32]
 2292              		.loc 1 877 9 is_stmt 1 view .LVU805
 2293              		.loc 1 878 64 is_stmt 0 view .LVU806
 2294 0172 C5F31205 		ubfx	r5, r5, #0, #19
 2295              		.loc 1 877 37 view .LVU807
 2296 0176 44EA0604 		orr	r4, r4, r6
 2297 017a CCF81040 		str	r4, [ip, #16]
 2298              		.loc 1 878 9 is_stmt 1 view .LVU808
 2299              		.loc 1 878 37 is_stmt 0 view .LVU809
 2300 017e DCF81040 		ldr	r4, [ip, #16]
 2301 0182 45EA0405 		orr	r5, r5, r4
 2302 0186 CCF81050 		str	r5, [ip, #16]
 2303              		.loc 1 882 5 is_stmt 1 view .LVU810
 2304              		.loc 1 882 8 is_stmt 0 view .LVU811
 2305 018a 7FF466AF 		bne	.L179
 2306              	.LVL158:
 2307              	.L195:
 2308              		.loc 1 884 7 is_stmt 1 view .LVU812
 2309              		.loc 1 884 23 is_stmt 0 view .LVU813
 2310 018e CA68     		ldr	r2, [r1, #12]
 2311              	.LVL159:
 2312              		.loc 1 884 10 view .LVU814
 2313 0190 002A     		cmp	r2, #0
 2314 0192 3FF462AF 		beq	.L179
 2315              		.loc 1 886 9 is_stmt 1 view .LVU815
 2316              		.loc 1 886 36 is_stmt 0 view .LVU816
 2317 0196 CCF81420 		str	r2, [ip, #20]
 2318 019a 5EE7     		b	.L179
 2319              	.LVL160:
 2320              	.L160:
 2321              		.loc 1 780 9 is_stmt 1 view .LVU817
 2322              		.loc 1 780 47 is_stmt 0 view .LVU818
 2323 019c D1F808C0 		ldr	ip, [r1, #8]
 2324              	.LVL161:
 2325              		.loc 1 781 9 is_stmt 1 view .LVU819
 2326              		.loc 1 781 64 is_stmt 0 view .LVU820
 2327 01a0 234F     		ldr	r7, .L198+8
 2328              		.loc 1 780 43 view .LVU821
 2329 01a2 05EB0C06 		add	r6, r5, ip
 2330              		.loc 1 781 36 view .LVU822
 2331 01a6 D3F810E0 		ldr	lr, [r3, #16]
 2332              		.loc 1 780 59 view .LVU823
 2333 01aa 013E     		subs	r6, r6, #1
 2334              		.loc 1 780 65 view .LVU824
 2335 01ac B6FBFCF6 		udiv	r6, r6, ip
 2336              		.loc 1 781 64 view .LVU825
 2337 01b0 07EAC647 		and	r7, r7, r6, lsl #19
ARM GAS  C:\Users\DEVELO~1\AppData\Local\Temp\ccmErl8R.s 			page 42


 2338 01b4 B6B2     		uxth	r6, r6
 2339              		.loc 1 781 36 view .LVU826
 2340 01b6 47EA0E07 		orr	r7, r7, lr
 2341 01ba 1F61     		str	r7, [r3, #16]
 2342              		.loc 1 783 9 is_stmt 1 view .LVU827
 2343              		.loc 1 783 15 is_stmt 0 view .LVU828
 2344 01bc 0F79     		ldrb	r7, [r1, #4]	@ zero_extendqisi2
 2345              		.loc 1 783 12 view .LVU829
 2346 01be 012F     		cmp	r7, #1
 2347 01c0 A6D1     		bne	.L162
 2348              		.loc 1 785 11 is_stmt 1 view .LVU830
 2349              		.loc 1 785 38 is_stmt 0 view .LVU831
 2350 01c2 D3F810C0 		ldr	ip, [r3, #16]
 2351              	.LVL162:
 2352              		.loc 1 786 86 view .LVU832
 2353 01c6 7607     		lsls	r6, r6, #29
 2354              		.loc 1 785 38 view .LVU833
 2355 01c8 2CF0C04C 		bic	ip, ip, #1610612736
 2356              		.loc 1 786 66 view .LVU834
 2357 01cc 06F0C046 		and	r6, r6, #1610612736
 2358              		.loc 1 785 38 view .LVU835
 2359 01d0 C3F810C0 		str	ip, [r3, #16]
 2360              		.loc 1 786 11 is_stmt 1 view .LVU836
 2361              		.loc 1 786 38 is_stmt 0 view .LVU837
 2362 01d4 D3F810C0 		ldr	ip, [r3, #16]
 2363 01d8 46EA0C06 		orr	r6, r6, ip
 2364 01dc 1E61     		str	r6, [r3, #16]
 2365 01de 97E7     		b	.L162
 2366              	.LVL163:
 2367              	.L168:
 2368              		.loc 1 830 9 is_stmt 1 view .LVU838
 2369              		.loc 1 830 25 is_stmt 0 view .LVU839
 2370 01e0 D0F80858 		ldr	r5, [r0, #2056]
 2371              		.loc 1 830 12 view .LVU840
 2372 01e4 15F4807F 		tst	r5, #256
 2373              		.loc 1 832 37 view .LVU841
 2374 01e8 1D68     		ldr	r5, [r3]
 2375              		.loc 1 832 11 is_stmt 1 view .LVU842
 2376              		.loc 1 832 37 is_stmt 0 view .LVU843
 2377 01ea 0CBF     		ite	eq
 2378 01ec 45F00055 		orreq	r5, r5, #536870912
 2379              		.loc 1 836 11 is_stmt 1 view .LVU844
 2380              		.loc 1 839 9 view .LVU845
 2381              	.LVL164:
 2382              	.LBB34:
 2383              	.LBI34:
 2384              		.loc 1 979 19 view .LVU846
 2385              	.LBB35:
 2386              		.loc 1 982 3 view .LVU847
 2387              		.loc 1 983 3 view .LVU848
 2388              		.loc 1 984 3 view .LVU849
 2389              		.loc 1 985 3 view .LVU850
 2390              		.loc 1 987 3 view .LVU851
 2391              	.LBE35:
 2392              	.LBE34:
 2393              		.loc 1 836 37 is_stmt 0 view .LVU852
 2394 01f0 45F08055 		orrne	r5, r5, #268435456
ARM GAS  C:\Users\DEVELO~1\AppData\Local\Temp\ccmErl8R.s 			page 43


 2395 01f4 1D60     		str	r5, [r3]
 2396              	.LVL165:
 2397              	.LBB38:
 2398              	.LBB36:
 2399              		.loc 1 987 6 view .LVU853
 2400 01f6 002A     		cmp	r2, #0
 2401 01f8 7FF475AF 		bne	.L167
 2402              		.loc 1 989 5 is_stmt 1 view .LVU854
 2403              		.loc 1 989 31 is_stmt 0 view .LVU855
 2404 01fc 0B8A     		ldrh	r3, [r1, #16]
 2405 01fe 0333     		adds	r3, r3, #3
 2406              	.LVL166:
 2407              		.loc 1 990 5 is_stmt 1 view .LVU856
 2408              		.loc 1 990 20 view .LVU857
 2409 0200 9A08     		lsrs	r2, r3, #2
 2410              	.LVL167:
 2411              		.loc 1 990 20 is_stmt 0 view .LVU858
 2412 0202 3FF470AF 		beq	.L167
 2413              	.LBE36:
 2414              	.LBE38:
 2415              		.loc 1 839 15 view .LVU859
 2416 0206 CB68     		ldr	r3, [r1, #12]
 2417              	.LBB39:
 2418              	.LBB37:
 2419              		.loc 1 992 7 view .LVU860
 2420 0208 00EB0434 		add	r4, r0, r4, lsl #12
 2421              	.LVL168:
 2422              		.loc 1 992 7 view .LVU861
 2423 020c 03EB8201 		add	r1, r3, r2, lsl #2
 2424              	.LVL169:
 2425              		.loc 1 992 7 view .LVU862
 2426 0210 04F58054 		add	r4, r4, #4096
 2427              	.LVL170:
 2428              	.L173:
 2429              		.loc 1 992 7 is_stmt 1 view .LVU863
 2430              		.loc 1 992 41 is_stmt 0 view .LVU864
 2431 0214 53F8042B 		ldr	r2, [r3], #4	@ unaligned
 2432              	.LVL171:
 2433              		.loc 1 990 20 view .LVU865
 2434 0218 8B42     		cmp	r3, r1
 2435              		.loc 1 992 39 view .LVU866
 2436 021a 2260     		str	r2, [r4]
 2437              		.loc 1 993 7 is_stmt 1 view .LVU867
 2438              	.LVL172:
 2439              		.loc 1 994 7 view .LVU868
 2440              		.loc 1 995 7 view .LVU869
 2441              		.loc 1 996 7 view .LVU870
 2442              		.loc 1 990 33 view .LVU871
 2443              		.loc 1 990 20 view .LVU872
 2444 021c FAD1     		bne	.L173
 2445 021e 62E7     		b	.L167
 2446              	.LVL173:
 2447              	.L197:
 2448              		.loc 1 990 20 is_stmt 0 view .LVU873
 2449              	.LBE37:
 2450              	.LBE39:
 2451              		.loc 1 773 11 is_stmt 1 view .LVU874
ARM GAS  C:\Users\DEVELO~1\AppData\Local\Temp\ccmErl8R.s 			page 44


 2452              		.loc 1 773 24 is_stmt 0 view .LVU875
 2453 0220 3546     		mov	r5, r6
 2454 0222 0E61     		str	r6, [r1, #16]
 2455 0224 6FE7     		b	.L161
 2456              	.L199:
 2457 0226 00BF     		.align	2
 2458              	.L198:
 2459 0228 0000F8FF 		.word	-524288
 2460 022c FFFF07E0 		.word	-536346625
 2461 0230 0000F81F 		.word	536346624
 2462              		.cfi_endproc
 2463              	.LFE155:
 2464              		.size	USB_EPStartXfer, .-USB_EPStartXfer
 2465              		.section	.text.USB_EPStopXfer,"ax",%progbits
 2466              		.align	1
 2467              		.p2align 2,,3
 2468              		.global	USB_EPStopXfer
 2469              		.syntax unified
 2470              		.thumb
 2471              		.thumb_func
 2472              		.type	USB_EPStopXfer, %function
 2473              	USB_EPStopXfer:
 2474              	.LVL174:
 2475              	.LFB156:
 2476              		.loc 1 916 1 is_stmt 1 view -0
 2477              		.cfi_startproc
 2478              		@ args = 0, pretend = 0, frame = 8
 2479              		@ frame_needed = 0, uses_anonymous_args = 0
 2480              		@ link register save eliminated.
 2481              		.loc 1 917 3 view .LVU877
 2482              		.loc 1 917 17 is_stmt 0 view .LVU878
 2483 0000 0023     		movs	r3, #0
 2484              		.loc 1 916 1 view .LVU879
 2485 0002 82B0     		sub	sp, sp, #8
 2486              		.cfi_def_cfa_offset 8
 2487              		.loc 1 917 17 view .LVU880
 2488 0004 0193     		str	r3, [sp, #4]
 2489              		.loc 1 918 3 is_stmt 1 view .LVU881
 2490              	.LVL175:
 2491              		.loc 1 919 3 view .LVU882
 2492              		.loc 1 922 3 view .LVU883
 2493              		.loc 1 922 6 is_stmt 0 view .LVU884
 2494 0006 4B78     		ldrb	r3, [r1, #1]	@ zero_extendqisi2
 2495 0008 012B     		cmp	r3, #1
 2496              		.loc 1 925 11 view .LVU885
 2497 000a 0B78     		ldrb	r3, [r1]	@ zero_extendqisi2
 2498              		.loc 1 922 6 view .LVU886
 2499 000c 20D0     		beq	.L211
 2500              		.loc 1 944 5 is_stmt 1 view .LVU887
 2501              		.loc 1 944 11 is_stmt 0 view .LVU888
 2502 000e 00F53060 		add	r0, r0, #2816
 2503              	.LVL176:
 2504              		.loc 1 944 11 view .LVU889
 2505 0012 00EB4310 		add	r0, r0, r3, lsl #5
 2506              	.LVL177:
 2507              		.loc 1 944 30 view .LVU890
 2508 0016 0368     		ldr	r3, [r0]
ARM GAS  C:\Users\DEVELO~1\AppData\Local\Temp\ccmErl8R.s 			page 45


 2509              		.loc 1 944 8 view .LVU891
 2510 0018 002B     		cmp	r3, #0
 2511 001a 02DB     		blt	.L212
 2512              	.LVL178:
 2513              	.L202:
 2514              		.loc 1 918 21 view .LVU892
 2515 001c 0020     		movs	r0, #0
 2516              	.LVL179:
 2517              		.loc 1 962 3 is_stmt 1 view .LVU893
 2518              		.loc 1 963 1 is_stmt 0 view .LVU894
 2519 001e 02B0     		add	sp, sp, #8
 2520              		.cfi_remember_state
 2521              		.cfi_def_cfa_offset 0
 2522              		@ sp needed
 2523 0020 7047     		bx	lr
 2524              	.LVL180:
 2525              	.L212:
 2526              		.cfi_restore_state
 2527              		.loc 1 946 7 is_stmt 1 view .LVU895
 2528              		.loc 1 946 36 is_stmt 0 view .LVU896
 2529 0022 0368     		ldr	r3, [r0]
 2530              		.loc 1 953 12 view .LVU897
 2531 0024 42F21072 		movw	r2, #10000
 2532              		.loc 1 946 36 view .LVU898
 2533 0028 43F00063 		orr	r3, r3, #134217728
 2534 002c 0360     		str	r3, [r0]
 2535              		.loc 1 947 7 is_stmt 1 view .LVU899
 2536              		.loc 1 947 36 is_stmt 0 view .LVU900
 2537 002e 0368     		ldr	r3, [r0]
 2538 0030 43F08043 		orr	r3, r3, #1073741824
 2539 0034 0360     		str	r3, [r0]
 2540 0036 02E0     		b	.L207
 2541              	.L213:
 2542              		.loc 1 958 37 view .LVU901
 2543 0038 0368     		ldr	r3, [r0]
 2544              		.loc 1 958 73 view .LVU902
 2545 003a 002B     		cmp	r3, #0
 2546 003c EEDA     		bge	.L202
 2547              	.L207:
 2548              		.loc 1 949 7 is_stmt 1 view .LVU903
 2549              		.loc 1 951 9 view .LVU904
 2550              		.loc 1 958 73 view .LVU905
 2551              		.loc 1 951 14 is_stmt 0 view .LVU906
 2552 003e 019B     		ldr	r3, [sp, #4]
 2553 0040 0133     		adds	r3, r3, #1
 2554 0042 0193     		str	r3, [sp, #4]
 2555              		.loc 1 953 9 is_stmt 1 view .LVU907
 2556              		.loc 1 953 19 is_stmt 0 view .LVU908
 2557 0044 019B     		ldr	r3, [sp, #4]
 2558              		.loc 1 953 12 view .LVU909
 2559 0046 9342     		cmp	r3, r2
 2560 0048 F6D9     		bls	.L213
 2561              	.LVL181:
 2562              	.L206:
 2563              		.loc 1 936 15 view .LVU910
 2564 004a 0120     		movs	r0, #1
 2565              	.LVL182:
ARM GAS  C:\Users\DEVELO~1\AppData\Local\Temp\ccmErl8R.s 			page 46


 2566              		.loc 1 962 3 is_stmt 1 view .LVU911
 2567              		.loc 1 963 1 is_stmt 0 view .LVU912
 2568 004c 02B0     		add	sp, sp, #8
 2569              		.cfi_remember_state
 2570              		.cfi_def_cfa_offset 0
 2571              		@ sp needed
 2572 004e 7047     		bx	lr
 2573              	.LVL183:
 2574              	.L211:
 2575              		.cfi_restore_state
 2576              		.loc 1 925 5 is_stmt 1 view .LVU913
 2577              		.loc 1 925 11 is_stmt 0 view .LVU914
 2578 0050 00F51060 		add	r0, r0, #2304
 2579              	.LVL184:
 2580              		.loc 1 925 11 view .LVU915
 2581 0054 00EB4313 		add	r3, r0, r3, lsl #5
 2582              		.loc 1 925 29 view .LVU916
 2583 0058 1A68     		ldr	r2, [r3]
 2584              		.loc 1 925 8 view .LVU917
 2585 005a 002A     		cmp	r2, #0
 2586 005c DEDA     		bge	.L202
 2587              		.loc 1 927 7 is_stmt 1 view .LVU918
 2588              		.loc 1 927 35 is_stmt 0 view .LVU919
 2589 005e 1A68     		ldr	r2, [r3]
 2590              		.loc 1 934 12 view .LVU920
 2591 0060 42F21071 		movw	r1, #10000
 2592              	.LVL185:
 2593              		.loc 1 927 35 view .LVU921
 2594 0064 42F00062 		orr	r2, r2, #134217728
 2595 0068 1A60     		str	r2, [r3]
 2596              		.loc 1 928 7 is_stmt 1 view .LVU922
 2597              		.loc 1 928 35 is_stmt 0 view .LVU923
 2598 006a 1A68     		ldr	r2, [r3]
 2599 006c 42F08042 		orr	r2, r2, #1073741824
 2600 0070 1A60     		str	r2, [r3]
 2601 0072 02E0     		b	.L205
 2602              	.L203:
 2603              		.loc 1 939 36 view .LVU924
 2604 0074 1A68     		ldr	r2, [r3]
 2605              		.loc 1 939 72 view .LVU925
 2606 0076 002A     		cmp	r2, #0
 2607 0078 D0DA     		bge	.L202
 2608              	.L205:
 2609              		.loc 1 930 7 is_stmt 1 view .LVU926
 2610              		.loc 1 932 9 view .LVU927
 2611              		.loc 1 939 72 view .LVU928
 2612              		.loc 1 932 14 is_stmt 0 view .LVU929
 2613 007a 019A     		ldr	r2, [sp, #4]
 2614 007c 0132     		adds	r2, r2, #1
 2615 007e 0192     		str	r2, [sp, #4]
 2616              		.loc 1 934 9 is_stmt 1 view .LVU930
 2617              		.loc 1 934 19 is_stmt 0 view .LVU931
 2618 0080 019A     		ldr	r2, [sp, #4]
 2619              		.loc 1 934 12 view .LVU932
 2620 0082 8A42     		cmp	r2, r1
 2621 0084 F6D9     		bls	.L203
 2622 0086 E0E7     		b	.L206
ARM GAS  C:\Users\DEVELO~1\AppData\Local\Temp\ccmErl8R.s 			page 47


 2623              		.cfi_endproc
 2624              	.LFE156:
 2625              		.size	USB_EPStopXfer, .-USB_EPStopXfer
 2626              		.section	.text.USB_WritePacket,"ax",%progbits
 2627              		.align	1
 2628              		.p2align 2,,3
 2629              		.global	USB_WritePacket
 2630              		.syntax unified
 2631              		.thumb
 2632              		.thumb_func
 2633              		.type	USB_WritePacket, %function
 2634              	USB_WritePacket:
 2635              	.LVL186:
 2636              	.LFB157:
 2637              		.loc 1 981 1 is_stmt 1 view -0
 2638              		.cfi_startproc
 2639              		@ args = 4, pretend = 0, frame = 0
 2640              		@ frame_needed = 0, uses_anonymous_args = 0
 2641              		@ link register save eliminated.
 2642              		.loc 1 982 3 view .LVU934
 2643              		.loc 1 981 1 is_stmt 0 view .LVU935
 2644 0000 10B4     		push	{r4}
 2645              		.cfi_def_cfa_offset 4
 2646              		.cfi_offset 4, -4
 2647              		.loc 1 981 1 view .LVU936
 2648 0002 9DF80440 		ldrb	r4, [sp, #4]	@ zero_extendqisi2
 2649              	.LVL187:
 2650              		.loc 1 983 3 is_stmt 1 view .LVU937
 2651              		.loc 1 984 3 view .LVU938
 2652              		.loc 1 985 3 view .LVU939
 2653              		.loc 1 987 3 view .LVU940
 2654              		.loc 1 987 6 is_stmt 0 view .LVU941
 2655 0006 64B9     		cbnz	r4, .L215
 2656              		.loc 1 989 5 is_stmt 1 view .LVU942
 2657              		.loc 1 989 31 is_stmt 0 view .LVU943
 2658 0008 0333     		adds	r3, r3, #3
 2659              	.LVL188:
 2660              		.loc 1 990 5 is_stmt 1 view .LVU944
 2661              		.loc 1 990 20 view .LVU945
 2662 000a 9B08     		lsrs	r3, r3, #2
 2663              	.LVL189:
 2664              		.loc 1 990 20 is_stmt 0 view .LVU946
 2665 000c 09D0     		beq	.L215
 2666              		.loc 1 992 7 view .LVU947
 2667 000e 0132     		adds	r2, r2, #1
 2668              	.LVL190:
 2669              		.loc 1 992 7 view .LVU948
 2670 0010 01EB8303 		add	r3, r1, r3, lsl #2
 2671              	.LVL191:
 2672              		.loc 1 992 7 view .LVU949
 2673 0014 00EB0230 		add	r0, r0, r2, lsl #12
 2674              	.LVL192:
 2675              	.L216:
 2676              		.loc 1 992 7 is_stmt 1 discriminator 3 view .LVU950
 2677              		.loc 1 992 41 is_stmt 0 discriminator 3 view .LVU951
 2678 0018 51F8042B 		ldr	r2, [r1], #4	@ unaligned
 2679              	.LVL193:
ARM GAS  C:\Users\DEVELO~1\AppData\Local\Temp\ccmErl8R.s 			page 48


 2680              		.loc 1 990 20 discriminator 3 view .LVU952
 2681 001c 8B42     		cmp	r3, r1
 2682              		.loc 1 992 39 discriminator 3 view .LVU953
 2683 001e 0260     		str	r2, [r0]
 2684              		.loc 1 993 7 is_stmt 1 discriminator 3 view .LVU954
 2685              	.LVL194:
 2686              		.loc 1 994 7 discriminator 3 view .LVU955
 2687              		.loc 1 995 7 discriminator 3 view .LVU956
 2688              		.loc 1 996 7 discriminator 3 view .LVU957
 2689              		.loc 1 990 33 discriminator 3 view .LVU958
 2690              		.loc 1 990 20 discriminator 3 view .LVU959
 2691 0020 FAD1     		bne	.L216
 2692              	.L215:
 2693              		.loc 1 1000 3 view .LVU960
 2694              		.loc 1 1001 1 is_stmt 0 view .LVU961
 2695 0022 0020     		movs	r0, #0
 2696 0024 5DF8044B 		ldr	r4, [sp], #4
 2697              		.cfi_restore 4
 2698              		.cfi_def_cfa_offset 0
 2699              	.LVL195:
 2700              		.loc 1 1001 1 view .LVU962
 2701 0028 7047     		bx	lr
 2702              		.cfi_endproc
 2703              	.LFE157:
 2704              		.size	USB_WritePacket, .-USB_WritePacket
 2705 002a 00BF     		.section	.text.USB_ReadPacket,"ax",%progbits
 2706              		.align	1
 2707              		.p2align 2,,3
 2708              		.global	USB_ReadPacket
 2709              		.syntax unified
 2710              		.thumb
 2711              		.thumb_func
 2712              		.type	USB_ReadPacket, %function
 2713              	USB_ReadPacket:
 2714              	.LVL196:
 2715              	.LFB158:
 2716              		.loc 1 1011 1 is_stmt 1 view -0
 2717              		.cfi_startproc
 2718              		@ args = 0, pretend = 0, frame = 0
 2719              		@ frame_needed = 0, uses_anonymous_args = 0
 2720              		.loc 1 1012 3 view .LVU964
 2721              		.loc 1 1013 3 view .LVU965
 2722              		.loc 1 1014 3 view .LVU966
 2723              		.loc 1 1015 3 view .LVU967
 2724              		.loc 1 1016 3 view .LVU968
 2725              		.loc 1 1017 3 view .LVU969
 2726              		.loc 1 1011 1 is_stmt 0 view .LVU970
 2727 0000 30B5     		push	{r4, r5, lr}
 2728              		.cfi_def_cfa_offset 12
 2729              		.cfi_offset 4, -12
 2730              		.cfi_offset 5, -8
 2731              		.cfi_offset 14, -4
 2732              		.loc 1 1019 18 view .LVU971
 2733 0002 5FEA920E 		lsrs	lr, r2, #2
 2734              	.LVL197:
 2735              		.loc 1 1017 12 view .LVU972
 2736 0006 02F00305 		and	r5, r2, #3
ARM GAS  C:\Users\DEVELO~1\AppData\Local\Temp\ccmErl8R.s 			page 49


 2737              	.LVL198:
 2738              		.loc 1 1019 3 is_stmt 1 view .LVU973
 2739              		.loc 1 1019 18 view .LVU974
 2740 000a 0BD0     		beq	.L223
 2741              		.loc 1 1032 5 is_stmt 0 view .LVU975
 2742 000c 00F58054 		add	r4, r0, #4096
 2743              		.loc 1 1013 12 view .LVU976
 2744 0010 8C46     		mov	ip, r1
 2745              		.loc 1 1019 10 view .LVU977
 2746 0012 0023     		movs	r3, #0
 2747              	.LVL199:
 2748              	.L224:
 2749              		.loc 1 1021 5 is_stmt 1 discriminator 3 view .LVU978
 2750              		.loc 1 1019 31 is_stmt 0 discriminator 3 view .LVU979
 2751 0014 0133     		adds	r3, r3, #1
 2752              	.LVL200:
 2753              		.loc 1 1021 5 discriminator 3 view .LVU980
 2754 0016 2268     		ldr	r2, [r4]
 2755              		.loc 1 1019 18 discriminator 3 view .LVU981
 2756 0018 9E45     		cmp	lr, r3
 2757              		.loc 1 1021 5 discriminator 3 view .LVU982
 2758 001a 4CF8042B 		str	r2, [ip], #4	@ unaligned
 2759              	.LVL201:
 2760              		.loc 1 1022 5 is_stmt 1 discriminator 3 view .LVU983
 2761              		.loc 1 1023 5 discriminator 3 view .LVU984
 2762              		.loc 1 1024 5 discriminator 3 view .LVU985
 2763              		.loc 1 1025 5 discriminator 3 view .LVU986
 2764              		.loc 1 1019 31 discriminator 3 view .LVU987
 2765              		.loc 1 1019 18 discriminator 3 view .LVU988
 2766 001e F9D1     		bne	.L224
 2767              		.loc 1 1025 10 is_stmt 0 view .LVU989
 2768 0020 01EB8E01 		add	r1, r1, lr, lsl #2
 2769              	.LVL202:
 2770              	.L223:
 2771              		.loc 1 1029 3 is_stmt 1 view .LVU990
 2772              		.loc 1 1029 6 is_stmt 0 view .LVU991
 2773 0024 5DB1     		cbz	r5, .L222
 2774              		.loc 1 1031 5 is_stmt 1 view .LVU992
 2775              	.LVL203:
 2776              		.loc 1 1032 5 view .LVU993
 2777 0026 00F58050 		add	r0, r0, #4096
 2778              	.LVL204:
 2779              		.loc 1 1032 5 is_stmt 0 view .LVU994
 2780 002a 0D44     		add	r5, r5, r1
 2781              	.LVL205:
 2782              		.loc 1 1032 5 view .LVU995
 2783 002c 0022     		movs	r2, #0
 2784 002e 0068     		ldr	r0, [r0]
 2785              	.LVL206:
 2786              	.L226:
 2787              		.loc 1 1034 5 is_stmt 1 discriminator 1 view .LVU996
 2788              		.loc 1 1036 7 discriminator 1 view .LVU997
 2789              		.loc 1 1036 43 is_stmt 0 discriminator 1 view .LVU998
 2790 0030 20FA02F3 		lsr	r3, r0, r2
 2791              		.loc 1 1036 27 discriminator 1 view .LVU999
 2792 0034 0832     		adds	r2, r2, #8
 2793              		.loc 1 1037 7 is_stmt 1 discriminator 1 view .LVU1000
ARM GAS  C:\Users\DEVELO~1\AppData\Local\Temp\ccmErl8R.s 			page 50


 2794              	.LVL207:
 2795              		.loc 1 1038 7 discriminator 1 view .LVU1001
 2796              		.loc 1 1036 27 is_stmt 0 discriminator 1 view .LVU1002
 2797 0036 01F8013B 		strb	r3, [r1], #1
 2798              	.LVL208:
 2799              		.loc 1 1039 7 is_stmt 1 discriminator 1 view .LVU1003
 2800              		.loc 1 1040 30 discriminator 1 view .LVU1004
 2801 003a A942     		cmp	r1, r5
 2802 003c F8D1     		bne	.L226
 2803              	.LVL209:
 2804              	.L222:
 2805              		.loc 1 1044 1 is_stmt 0 view .LVU1005
 2806 003e 0846     		mov	r0, r1
 2807 0040 30BD     		pop	{r4, r5, pc}
 2808              		.cfi_endproc
 2809              	.LFE158:
 2810              		.size	USB_ReadPacket, .-USB_ReadPacket
 2811 0042 00BF     		.section	.text.USB_EPSetStall,"ax",%progbits
 2812              		.align	1
 2813              		.p2align 2,,3
 2814              		.global	USB_EPSetStall
 2815              		.syntax unified
 2816              		.thumb
 2817              		.thumb_func
 2818              		.type	USB_EPSetStall, %function
 2819              	USB_EPSetStall:
 2820              	.LVL210:
 2821              	.LFB159:
 2822              		.loc 1 1053 1 is_stmt 1 view -0
 2823              		.cfi_startproc
 2824              		@ args = 0, pretend = 0, frame = 0
 2825              		@ frame_needed = 0, uses_anonymous_args = 0
 2826              		@ link register save eliminated.
 2827              		.loc 1 1054 3 view .LVU1007
 2828              		.loc 1 1055 3 view .LVU1008
 2829              		.loc 1 1057 6 is_stmt 0 view .LVU1009
 2830 0000 4A78     		ldrb	r2, [r1, #1]	@ zero_extendqisi2
 2831              		.loc 1 1055 32 view .LVU1010
 2832 0002 0B78     		ldrb	r3, [r1]	@ zero_extendqisi2
 2833              	.LVL211:
 2834              		.loc 1 1057 3 is_stmt 1 view .LVU1011
 2835              		.loc 1 1057 6 is_stmt 0 view .LVU1012
 2836 0004 012A     		cmp	r2, #1
 2837              		.loc 1 1059 11 view .LVU1013
 2838 0006 00EB4310 		add	r0, r0, r3, lsl #5
 2839              	.LVL212:
 2840              		.loc 1 1057 6 view .LVU1014
 2841 000a 0CD0     		beq	.L251
 2842              		.loc 1 1067 5 is_stmt 1 view .LVU1015
 2843              		.loc 1 1067 28 is_stmt 0 view .LVU1016
 2844 000c D0F8002B 		ldr	r2, [r0, #2816]
 2845              		.loc 1 1067 70 view .LVU1017
 2846 0010 0BB1     		cbz	r3, .L238
 2847 0012 002A     		cmp	r2, #0
 2848 0014 14DA     		bge	.L252
 2849              	.LVL213:
 2850              	.L238:
ARM GAS  C:\Users\DEVELO~1\AppData\Local\Temp\ccmErl8R.s 			page 51


 2851              		.loc 1 1071 5 is_stmt 1 view .LVU1018
 2852              		.loc 1 1071 32 is_stmt 0 view .LVU1019
 2853 0016 D0F8003B 		ldr	r3, [r0, #2816]
 2854 001a 43F40013 		orr	r3, r3, #2097152
 2855 001e C0F8003B 		str	r3, [r0, #2816]
 2856              		.loc 1 1074 3 is_stmt 1 view .LVU1020
 2857              		.loc 1 1075 1 is_stmt 0 view .LVU1021
 2858 0022 0020     		movs	r0, #0
 2859 0024 7047     		bx	lr
 2860              	.LVL214:
 2861              	.L251:
 2862              		.loc 1 1059 5 is_stmt 1 view .LVU1022
 2863              		.loc 1 1059 27 is_stmt 0 view .LVU1023
 2864 0026 D0F80029 		ldr	r2, [r0, #2304]
 2865              		.loc 1 1059 69 view .LVU1024
 2866 002a 002A     		cmp	r2, #0
 2867 002c 00DB     		blt	.L236
 2868 002e 73B9     		cbnz	r3, .L253
 2869              	.L236:
 2870              		.loc 1 1063 5 is_stmt 1 view .LVU1025
 2871              		.loc 1 1063 31 is_stmt 0 view .LVU1026
 2872 0030 D0F80039 		ldr	r3, [r0, #2304]
 2873              	.LVL215:
 2874              		.loc 1 1063 31 view .LVU1027
 2875 0034 43F40013 		orr	r3, r3, #2097152
 2876 0038 C0F80039 		str	r3, [r0, #2304]
 2877              	.LVL216:
 2878              	.L254:
 2879              		.loc 1 1074 3 is_stmt 1 view .LVU1028
 2880              		.loc 1 1075 1 is_stmt 0 view .LVU1029
 2881 003c 0020     		movs	r0, #0
 2882 003e 7047     		bx	lr
 2883              	.LVL217:
 2884              	.L252:
 2885              		.loc 1 1069 7 is_stmt 1 view .LVU1030
 2886              		.loc 1 1069 34 is_stmt 0 view .LVU1031
 2887 0040 D0F8003B 		ldr	r3, [r0, #2816]
 2888              	.LVL218:
 2889              		.loc 1 1069 34 view .LVU1032
 2890 0044 23F08043 		bic	r3, r3, #1073741824
 2891 0048 C0F8003B 		str	r3, [r0, #2816]
 2892              	.LVL219:
 2893              		.loc 1 1069 34 view .LVU1033
 2894 004c E3E7     		b	.L238
 2895              	.LVL220:
 2896              	.L253:
 2897              		.loc 1 1061 7 is_stmt 1 view .LVU1034
 2898              		.loc 1 1061 33 is_stmt 0 view .LVU1035
 2899 004e D0F80039 		ldr	r3, [r0, #2304]
 2900              	.LVL221:
 2901              		.loc 1 1061 33 view .LVU1036
 2902 0052 23F08043 		bic	r3, r3, #1073741824
 2903 0056 C0F80039 		str	r3, [r0, #2304]
 2904              	.LVL222:
 2905              		.loc 1 1063 5 is_stmt 1 view .LVU1037
 2906              		.loc 1 1063 31 is_stmt 0 view .LVU1038
 2907 005a D0F80039 		ldr	r3, [r0, #2304]
ARM GAS  C:\Users\DEVELO~1\AppData\Local\Temp\ccmErl8R.s 			page 52


 2908 005e 43F40013 		orr	r3, r3, #2097152
 2909 0062 C0F80039 		str	r3, [r0, #2304]
 2910 0066 E9E7     		b	.L254
 2911              		.cfi_endproc
 2912              	.LFE159:
 2913              		.size	USB_EPSetStall, .-USB_EPSetStall
 2914              		.section	.text.USB_EPClearStall,"ax",%progbits
 2915              		.align	1
 2916              		.p2align 2,,3
 2917              		.global	USB_EPClearStall
 2918              		.syntax unified
 2919              		.thumb
 2920              		.thumb_func
 2921              		.type	USB_EPClearStall, %function
 2922              	USB_EPClearStall:
 2923              	.LVL223:
 2924              	.LFB160:
 2925              		.loc 1 1084 1 is_stmt 1 view -0
 2926              		.cfi_startproc
 2927              		@ args = 0, pretend = 0, frame = 0
 2928              		@ frame_needed = 0, uses_anonymous_args = 0
 2929              		@ link register save eliminated.
 2930              		.loc 1 1085 3 view .LVU1040
 2931              		.loc 1 1086 3 view .LVU1041
 2932              		.loc 1 1088 6 is_stmt 0 view .LVU1042
 2933 0000 4A78     		ldrb	r2, [r1, #1]	@ zero_extendqisi2
 2934              		.loc 1 1086 32 view .LVU1043
 2935 0002 0B78     		ldrb	r3, [r1]	@ zero_extendqisi2
 2936              	.LVL224:
 2937              		.loc 1 1088 3 is_stmt 1 view .LVU1044
 2938              		.loc 1 1088 6 is_stmt 0 view .LVU1045
 2939 0004 012A     		cmp	r2, #1
 2940              		.loc 1 1090 31 view .LVU1046
 2941 0006 00EB4310 		add	r0, r0, r3, lsl #5
 2942              	.LVL225:
 2943              		.loc 1 1088 6 view .LVU1047
 2944 000a 13D0     		beq	.L260
 2945              		.loc 1 1098 5 is_stmt 1 view .LVU1048
 2946              		.loc 1 1098 32 is_stmt 0 view .LVU1049
 2947 000c D0F8003B 		ldr	r3, [r0, #2816]
 2948              	.LVL226:
 2949              		.loc 1 1098 32 view .LVU1050
 2950 0010 23F40013 		bic	r3, r3, #2097152
 2951 0014 C0F8003B 		str	r3, [r0, #2816]
 2952              	.LVL227:
 2953              		.loc 1 1099 5 is_stmt 1 view .LVU1051
 2954              		.loc 1 1099 36 is_stmt 0 view .LVU1052
 2955 0018 0B79     		ldrb	r3, [r1, #4]	@ zero_extendqisi2
 2956              		.loc 1 1099 8 view .LVU1053
 2957 001a 023B     		subs	r3, r3, #2
 2958 001c 012B     		cmp	r3, #1
 2959 001e 01D9     		bls	.L261
 2960              	.L258:
 2961              		.loc 1 1104 3 is_stmt 1 view .LVU1054
 2962              		.loc 1 1105 1 is_stmt 0 view .LVU1055
 2963 0020 0020     		movs	r0, #0
 2964 0022 7047     		bx	lr
ARM GAS  C:\Users\DEVELO~1\AppData\Local\Temp\ccmErl8R.s 			page 53


 2965              	.L261:
 2966              		.loc 1 1101 7 is_stmt 1 view .LVU1056
 2967              		.loc 1 1101 34 is_stmt 0 view .LVU1057
 2968 0024 D0F8003B 		ldr	r3, [r0, #2816]
 2969 0028 43F08053 		orr	r3, r3, #268435456
 2970 002c C0F8003B 		str	r3, [r0, #2816]
 2971              		.loc 1 1104 3 is_stmt 1 view .LVU1058
 2972              		.loc 1 1105 1 is_stmt 0 view .LVU1059
 2973 0030 0020     		movs	r0, #0
 2974 0032 7047     		bx	lr
 2975              	.LVL228:
 2976              	.L260:
 2977              		.loc 1 1090 5 is_stmt 1 view .LVU1060
 2978              		.loc 1 1090 31 is_stmt 0 view .LVU1061
 2979 0034 D0F80039 		ldr	r3, [r0, #2304]
 2980              	.LVL229:
 2981              		.loc 1 1090 31 view .LVU1062
 2982 0038 23F40013 		bic	r3, r3, #2097152
 2983 003c C0F80039 		str	r3, [r0, #2304]
 2984              	.LVL230:
 2985              		.loc 1 1091 5 is_stmt 1 view .LVU1063
 2986              		.loc 1 1091 36 is_stmt 0 view .LVU1064
 2987 0040 0B79     		ldrb	r3, [r1, #4]	@ zero_extendqisi2
 2988              		.loc 1 1091 8 view .LVU1065
 2989 0042 023B     		subs	r3, r3, #2
 2990 0044 012B     		cmp	r3, #1
 2991 0046 EBD8     		bhi	.L258
 2992              		.loc 1 1093 7 is_stmt 1 view .LVU1066
 2993              		.loc 1 1093 33 is_stmt 0 view .LVU1067
 2994 0048 D0F80039 		ldr	r3, [r0, #2304]
 2995 004c 43F08053 		orr	r3, r3, #268435456
 2996 0050 C0F80039 		str	r3, [r0, #2304]
 2997              		.loc 1 1104 3 is_stmt 1 view .LVU1068
 2998              		.loc 1 1105 1 is_stmt 0 view .LVU1069
 2999 0054 0020     		movs	r0, #0
 3000 0056 7047     		bx	lr
 3001              		.cfi_endproc
 3002              	.LFE160:
 3003              		.size	USB_EPClearStall, .-USB_EPClearStall
 3004              		.section	.text.USB_StopDevice,"ax",%progbits
 3005              		.align	1
 3006              		.p2align 2,,3
 3007              		.global	USB_StopDevice
 3008              		.syntax unified
 3009              		.thumb
 3010              		.thumb_func
 3011              		.type	USB_StopDevice, %function
 3012              	USB_StopDevice:
 3013              	.LVL231:
 3014              	.LFB161:
 3015              		.loc 1 1113 1 is_stmt 1 view -0
 3016              		.cfi_startproc
 3017              		@ args = 0, pretend = 0, frame = 0
 3018              		@ frame_needed = 0, uses_anonymous_args = 0
 3019              		.loc 1 1114 3 view .LVU1071
 3020              		.loc 1 1115 3 view .LVU1072
 3021              		.loc 1 1113 1 is_stmt 0 view .LVU1073
ARM GAS  C:\Users\DEVELO~1\AppData\Local\Temp\ccmErl8R.s 			page 54


 3022 0000 10B5     		push	{r4, lr}
 3023              		.cfi_def_cfa_offset 8
 3024              		.cfi_offset 4, -8
 3025              		.cfi_offset 14, -4
 3026              		.loc 1 1121 27 view .LVU1074
 3027 0002 4FF67F32 		movw	r2, #64383
 3028              		.loc 1 1113 1 view .LVU1075
 3029 0006 0446     		mov	r4, r0
 3030              	.LVL232:
 3031              		.loc 1 1116 3 is_stmt 1 view .LVU1076
 3032              		.loc 1 1119 3 view .LVU1077
 3033              		.loc 1 1119 18 view .LVU1078
 3034 0008 00F51063 		add	r3, r0, #2304
 3035 000c 00F52E6C 		add	ip, r0, #2784
 3036              	.LVL233:
 3037              	.L263:
 3038              		.loc 1 1121 5 discriminator 3 view .LVU1079
 3039              		.loc 1 1121 27 is_stmt 0 discriminator 3 view .LVU1080
 3040 0010 9A60     		str	r2, [r3, #8]
 3041              		.loc 1 1122 5 is_stmt 1 discriminator 3 view .LVU1081
 3042 0012 03F50071 		add	r1, r3, #512
 3043              		.loc 1 1119 18 is_stmt 0 discriminator 3 view .LVU1082
 3044 0016 2033     		adds	r3, r3, #32
 3045              		.loc 1 1122 28 discriminator 3 view .LVU1083
 3046 0018 8A60     		str	r2, [r1, #8]
 3047              		.loc 1 1119 26 is_stmt 1 discriminator 3 view .LVU1084
 3048              		.loc 1 1119 18 discriminator 3 view .LVU1085
 3049 001a 6345     		cmp	r3, ip
 3050 001c F8D1     		bne	.L263
 3051              		.loc 1 1126 3 view .LVU1086
 3052              		.loc 1 1126 25 is_stmt 0 view .LVU1087
 3053 001e 0022     		movs	r2, #0
 3054              		.loc 1 1131 9 view .LVU1088
 3055 0020 2046     		mov	r0, r4
 3056              	.LVL234:
 3057              		.loc 1 1126 25 view .LVU1089
 3058 0022 C4F81028 		str	r2, [r4, #2064]
 3059              		.loc 1 1127 3 is_stmt 1 view .LVU1090
 3060              		.loc 1 1127 25 is_stmt 0 view .LVU1091
 3061 0026 C4F81428 		str	r2, [r4, #2068]
 3062              		.loc 1 1128 3 is_stmt 1 view .LVU1092
 3063              		.loc 1 1128 25 is_stmt 0 view .LVU1093
 3064 002a C4F81C28 		str	r2, [r4, #2076]
 3065              		.loc 1 1131 3 is_stmt 1 view .LVU1094
 3066              		.loc 1 1131 9 is_stmt 0 view .LVU1095
 3067 002e FFF7FEFF 		bl	USB_FlushRxFifo
 3068              	.LVL235:
 3069              		.loc 1 1132 3 is_stmt 1 view .LVU1096
 3070              		.loc 1 1132 6 is_stmt 0 view .LVU1097
 3071 0032 00B1     		cbz	r0, .L267
 3072              		.loc 1 1144 1 view .LVU1098
 3073 0034 10BD     		pop	{r4, pc}
 3074              	.LVL236:
 3075              	.L267:
 3076              		.loc 1 1137 3 is_stmt 1 view .LVU1099
 3077              		.loc 1 1137 9 is_stmt 0 view .LVU1100
 3078 0036 2046     		mov	r0, r4
ARM GAS  C:\Users\DEVELO~1\AppData\Local\Temp\ccmErl8R.s 			page 55


 3079              	.LVL237:
 3080              		.loc 1 1137 9 view .LVU1101
 3081 0038 1021     		movs	r1, #16
 3082              		.loc 1 1144 1 view .LVU1102
 3083 003a BDE81040 		pop	{r4, lr}
 3084              		.cfi_restore 14
 3085              		.cfi_restore 4
 3086              		.cfi_def_cfa_offset 0
 3087              	.LVL238:
 3088              		.loc 1 1137 9 view .LVU1103
 3089 003e FFF7FEBF 		b	USB_FlushTxFifo
 3090              	.LVL239:
 3091              		.loc 1 1137 9 view .LVU1104
 3092              		.cfi_endproc
 3093              	.LFE161:
 3094              		.size	USB_StopDevice, .-USB_StopDevice
 3095 0042 00BF     		.section	.text.USB_SetDevAddress,"ax",%progbits
 3096              		.align	1
 3097              		.p2align 2,,3
 3098              		.global	USB_SetDevAddress
 3099              		.syntax unified
 3100              		.thumb
 3101              		.thumb_func
 3102              		.type	USB_SetDevAddress, %function
 3103              	USB_SetDevAddress:
 3104              	.LVL240:
 3105              	.LFB162:
 3106              		.loc 1 1154 1 is_stmt 1 view -0
 3107              		.cfi_startproc
 3108              		@ args = 0, pretend = 0, frame = 0
 3109              		@ frame_needed = 0, uses_anonymous_args = 0
 3110              		@ link register save eliminated.
 3111              		.loc 1 1155 3 view .LVU1106
 3112              		.loc 1 1154 1 is_stmt 0 view .LVU1107
 3113 0000 0346     		mov	r3, r0
 3114              		.loc 1 1158 43 view .LVU1108
 3115 0002 0901     		lsls	r1, r1, #4
 3116              	.LVL241:
 3117              		.loc 1 1161 1 view .LVU1109
 3118 0004 0020     		movs	r0, #0
 3119              	.LVL242:
 3120              		.loc 1 1157 3 is_stmt 1 view .LVU1110
 3121              		.loc 1 1157 21 is_stmt 0 view .LVU1111
 3122 0006 D3F80028 		ldr	r2, [r3, #2048]
 3123              		.loc 1 1158 49 view .LVU1112
 3124 000a 01F4FE61 		and	r1, r1, #2032
 3125              		.loc 1 1157 21 view .LVU1113
 3126 000e 22F4FE62 		bic	r2, r2, #2032
 3127 0012 C3F80028 		str	r2, [r3, #2048]
 3128              		.loc 1 1158 3 is_stmt 1 view .LVU1114
 3129              		.loc 1 1158 21 is_stmt 0 view .LVU1115
 3130 0016 D3F80028 		ldr	r2, [r3, #2048]
 3131 001a 1143     		orrs	r1, r1, r2
 3132 001c C3F80018 		str	r1, [r3, #2048]
 3133              		.loc 1 1160 3 is_stmt 1 view .LVU1116
 3134              		.loc 1 1161 1 is_stmt 0 view .LVU1117
 3135 0020 7047     		bx	lr
ARM GAS  C:\Users\DEVELO~1\AppData\Local\Temp\ccmErl8R.s 			page 56


 3136              		.cfi_endproc
 3137              	.LFE162:
 3138              		.size	USB_SetDevAddress, .-USB_SetDevAddress
 3139 0022 00BF     		.section	.text.USB_DevConnect,"ax",%progbits
 3140              		.align	1
 3141              		.p2align 2,,3
 3142              		.global	USB_DevConnect
 3143              		.syntax unified
 3144              		.thumb
 3145              		.thumb_func
 3146              		.type	USB_DevConnect, %function
 3147              	USB_DevConnect:
 3148              	.LVL243:
 3149              	.LFB163:
 3150              		.loc 1 1169 1 is_stmt 1 view -0
 3151              		.cfi_startproc
 3152              		@ args = 0, pretend = 0, frame = 0
 3153              		@ frame_needed = 0, uses_anonymous_args = 0
 3154              		@ link register save eliminated.
 3155              		.loc 1 1170 3 view .LVU1119
 3156              		.loc 1 1169 1 is_stmt 0 view .LVU1120
 3157 0000 0346     		mov	r3, r0
 3158              		.loc 1 1178 1 view .LVU1121
 3159 0002 0020     		movs	r0, #0
 3160              	.LVL244:
 3161              		.loc 1 1173 3 is_stmt 1 view .LVU1122
 3162              		.loc 1 1173 16 is_stmt 0 view .LVU1123
 3163 0004 D3F8002E 		ldr	r2, [r3, #3584]
 3164              		.loc 1 1175 21 view .LVU1124
 3165 0008 03F50061 		add	r1, r3, #2048
 3166              		.loc 1 1173 16 view .LVU1125
 3167 000c 22F00302 		bic	r2, r2, #3
 3168 0010 C3F8002E 		str	r2, [r3, #3584]
 3169              		.loc 1 1175 3 is_stmt 1 view .LVU1126
 3170              		.loc 1 1175 21 is_stmt 0 view .LVU1127
 3171 0014 D3F80438 		ldr	r3, [r3, #2052]
 3172              	.LVL245:
 3173              		.loc 1 1175 21 view .LVU1128
 3174 0018 23F00203 		bic	r3, r3, #2
 3175 001c 4B60     		str	r3, [r1, #4]
 3176              		.loc 1 1177 3 is_stmt 1 view .LVU1129
 3177              		.loc 1 1178 1 is_stmt 0 view .LVU1130
 3178 001e 7047     		bx	lr
 3179              		.cfi_endproc
 3180              	.LFE163:
 3181              		.size	USB_DevConnect, .-USB_DevConnect
 3182              		.section	.text.USB_DevDisconnect,"ax",%progbits
 3183              		.align	1
 3184              		.p2align 2,,3
 3185              		.global	USB_DevDisconnect
 3186              		.syntax unified
 3187              		.thumb
 3188              		.thumb_func
 3189              		.type	USB_DevDisconnect, %function
 3190              	USB_DevDisconnect:
 3191              	.LVL246:
 3192              	.LFB164:
ARM GAS  C:\Users\DEVELO~1\AppData\Local\Temp\ccmErl8R.s 			page 57


 3193              		.loc 1 1186 1 is_stmt 1 view -0
 3194              		.cfi_startproc
 3195              		@ args = 0, pretend = 0, frame = 0
 3196              		@ frame_needed = 0, uses_anonymous_args = 0
 3197              		@ link register save eliminated.
 3198              		.loc 1 1187 3 view .LVU1132
 3199              		.loc 1 1186 1 is_stmt 0 view .LVU1133
 3200 0000 0346     		mov	r3, r0
 3201              		.loc 1 1195 1 view .LVU1134
 3202 0002 0020     		movs	r0, #0
 3203              	.LVL247:
 3204              		.loc 1 1190 3 is_stmt 1 view .LVU1135
 3205              		.loc 1 1190 16 is_stmt 0 view .LVU1136
 3206 0004 D3F8002E 		ldr	r2, [r3, #3584]
 3207              		.loc 1 1192 21 view .LVU1137
 3208 0008 03F50061 		add	r1, r3, #2048
 3209              		.loc 1 1190 16 view .LVU1138
 3210 000c 22F00302 		bic	r2, r2, #3
 3211 0010 C3F8002E 		str	r2, [r3, #3584]
 3212              		.loc 1 1192 3 is_stmt 1 view .LVU1139
 3213              		.loc 1 1192 21 is_stmt 0 view .LVU1140
 3214 0014 D3F80438 		ldr	r3, [r3, #2052]
 3215              	.LVL248:
 3216              		.loc 1 1192 21 view .LVU1141
 3217 0018 43F00203 		orr	r3, r3, #2
 3218 001c 4B60     		str	r3, [r1, #4]
 3219              		.loc 1 1194 3 is_stmt 1 view .LVU1142
 3220              		.loc 1 1195 1 is_stmt 0 view .LVU1143
 3221 001e 7047     		bx	lr
 3222              		.cfi_endproc
 3223              	.LFE164:
 3224              		.size	USB_DevDisconnect, .-USB_DevDisconnect
 3225              		.section	.text.USB_ReadInterrupts,"ax",%progbits
 3226              		.align	1
 3227              		.p2align 2,,3
 3228              		.global	USB_ReadInterrupts
 3229              		.syntax unified
 3230              		.thumb
 3231              		.thumb_func
 3232              		.type	USB_ReadInterrupts, %function
 3233              	USB_ReadInterrupts:
 3234              	.LVL249:
 3235              	.LFB165:
 3236              		.loc 1 1203 1 is_stmt 1 view -0
 3237              		.cfi_startproc
 3238              		@ args = 0, pretend = 0, frame = 0
 3239              		@ frame_needed = 0, uses_anonymous_args = 0
 3240              		@ link register save eliminated.
 3241              		.loc 1 1204 3 view .LVU1145
 3242              		.loc 1 1206 3 view .LVU1146
 3243              		.loc 1 1206 10 is_stmt 0 view .LVU1147
 3244 0000 4269     		ldr	r2, [r0, #20]
 3245              	.LVL250:
 3246              		.loc 1 1207 3 is_stmt 1 view .LVU1148
 3247              		.loc 1 1207 17 is_stmt 0 view .LVU1149
 3248 0002 8069     		ldr	r0, [r0, #24]
 3249              	.LVL251:
ARM GAS  C:\Users\DEVELO~1\AppData\Local\Temp\ccmErl8R.s 			page 58


 3250              		.loc 1 1209 3 is_stmt 1 view .LVU1150
 3251              		.loc 1 1210 1 is_stmt 0 view .LVU1151
 3252 0004 1040     		ands	r0, r0, r2
 3253              	.LVL252:
 3254              		.loc 1 1210 1 view .LVU1152
 3255 0006 7047     		bx	lr
 3256              		.cfi_endproc
 3257              	.LFE165:
 3258              		.size	USB_ReadInterrupts, .-USB_ReadInterrupts
 3259              		.section	.text.USB_ReadChInterrupts,"ax",%progbits
 3260              		.align	1
 3261              		.p2align 2,,3
 3262              		.global	USB_ReadChInterrupts
 3263              		.syntax unified
 3264              		.thumb
 3265              		.thumb_func
 3266              		.type	USB_ReadChInterrupts, %function
 3267              	USB_ReadChInterrupts:
 3268              	.LVL253:
 3269              	.LFB166:
 3270              		.loc 1 1219 1 is_stmt 1 view -0
 3271              		.cfi_startproc
 3272              		@ args = 0, pretend = 0, frame = 0
 3273              		@ frame_needed = 0, uses_anonymous_args = 0
 3274              		@ link register save eliminated.
 3275              		.loc 1 1220 3 view .LVU1154
 3276              		.loc 1 1221 3 view .LVU1155
 3277              		.loc 1 1223 3 view .LVU1156
 3278              		.loc 1 1223 12 is_stmt 0 view .LVU1157
 3279 0000 00EB4111 		add	r1, r0, r1, lsl #5
 3280              	.LVL254:
 3281              		.loc 1 1223 10 view .LVU1158
 3282 0004 D1F80805 		ldr	r0, [r1, #1288]
 3283              	.LVL255:
 3284              		.loc 1 1224 3 is_stmt 1 view .LVU1159
 3285              		.loc 1 1224 27 is_stmt 0 view .LVU1160
 3286 0008 D1F80C35 		ldr	r3, [r1, #1292]
 3287              	.LVL256:
 3288              		.loc 1 1226 3 is_stmt 1 view .LVU1161
 3289              		.loc 1 1227 1 is_stmt 0 view .LVU1162
 3290 000c 1840     		ands	r0, r0, r3
 3291              	.LVL257:
 3292              		.loc 1 1227 1 view .LVU1163
 3293 000e 7047     		bx	lr
 3294              		.cfi_endproc
 3295              	.LFE166:
 3296              		.size	USB_ReadChInterrupts, .-USB_ReadChInterrupts
 3297              		.section	.text.USB_ReadDevAllOutEpInterrupt,"ax",%progbits
 3298              		.align	1
 3299              		.p2align 2,,3
 3300              		.global	USB_ReadDevAllOutEpInterrupt
 3301              		.syntax unified
 3302              		.thumb
 3303              		.thumb_func
 3304              		.type	USB_ReadDevAllOutEpInterrupt, %function
 3305              	USB_ReadDevAllOutEpInterrupt:
 3306              	.LVL258:
ARM GAS  C:\Users\DEVELO~1\AppData\Local\Temp\ccmErl8R.s 			page 59


 3307              	.LFB167:
 3308              		.loc 1 1235 1 is_stmt 1 view -0
 3309              		.cfi_startproc
 3310              		@ args = 0, pretend = 0, frame = 0
 3311              		@ frame_needed = 0, uses_anonymous_args = 0
 3312              		@ link register save eliminated.
 3313              		.loc 1 1236 3 view .LVU1165
 3314              		.loc 1 1237 3 view .LVU1166
 3315              		.loc 1 1239 3 view .LVU1167
 3316              		.loc 1 1239 11 is_stmt 0 view .LVU1168
 3317 0000 D0F81838 		ldr	r3, [r0, #2072]
 3318              	.LVL259:
 3319              		.loc 1 1240 3 is_stmt 1 view .LVU1169
 3320              		.loc 1 1240 24 is_stmt 0 view .LVU1170
 3321 0004 D0F81C08 		ldr	r0, [r0, #2076]
 3322              	.LVL260:
 3323              		.loc 1 1242 3 is_stmt 1 view .LVU1171
 3324              		.loc 1 1240 10 is_stmt 0 view .LVU1172
 3325 0008 1840     		ands	r0, r0, r3
 3326              	.LVL261:
 3327              		.loc 1 1243 1 view .LVU1173
 3328 000a 000C     		lsrs	r0, r0, #16
 3329              	.LVL262:
 3330              		.loc 1 1243 1 view .LVU1174
 3331 000c 7047     		bx	lr
 3332              		.cfi_endproc
 3333              	.LFE167:
 3334              		.size	USB_ReadDevAllOutEpInterrupt, .-USB_ReadDevAllOutEpInterrupt
 3335 000e 00BF     		.section	.text.USB_ReadDevAllInEpInterrupt,"ax",%progbits
 3336              		.align	1
 3337              		.p2align 2,,3
 3338              		.global	USB_ReadDevAllInEpInterrupt
 3339              		.syntax unified
 3340              		.thumb
 3341              		.thumb_func
 3342              		.type	USB_ReadDevAllInEpInterrupt, %function
 3343              	USB_ReadDevAllInEpInterrupt:
 3344              	.LVL263:
 3345              	.LFB168:
 3346              		.loc 1 1251 1 is_stmt 1 view -0
 3347              		.cfi_startproc
 3348              		@ args = 0, pretend = 0, frame = 0
 3349              		@ frame_needed = 0, uses_anonymous_args = 0
 3350              		@ link register save eliminated.
 3351              		.loc 1 1252 3 view .LVU1176
 3352              		.loc 1 1253 3 view .LVU1177
 3353              		.loc 1 1255 3 view .LVU1178
 3354              		.loc 1 1255 11 is_stmt 0 view .LVU1179
 3355 0000 D0F81838 		ldr	r3, [r0, #2072]
 3356              	.LVL264:
 3357              		.loc 1 1256 3 is_stmt 1 view .LVU1180
 3358              		.loc 1 1256 24 is_stmt 0 view .LVU1181
 3359 0004 D0F81C08 		ldr	r0, [r0, #2076]
 3360              	.LVL265:
 3361              		.loc 1 1258 3 is_stmt 1 view .LVU1182
 3362              		.loc 1 1256 10 is_stmt 0 view .LVU1183
 3363 0008 1840     		ands	r0, r0, r3
ARM GAS  C:\Users\DEVELO~1\AppData\Local\Temp\ccmErl8R.s 			page 60


 3364              	.LVL266:
 3365              		.loc 1 1259 1 view .LVU1184
 3366 000a 80B2     		uxth	r0, r0
 3367              	.LVL267:
 3368              		.loc 1 1259 1 view .LVU1185
 3369 000c 7047     		bx	lr
 3370              		.cfi_endproc
 3371              	.LFE168:
 3372              		.size	USB_ReadDevAllInEpInterrupt, .-USB_ReadDevAllInEpInterrupt
 3373 000e 00BF     		.section	.text.USB_ReadDevOutEPInterrupt,"ax",%progbits
 3374              		.align	1
 3375              		.p2align 2,,3
 3376              		.global	USB_ReadDevOutEPInterrupt
 3377              		.syntax unified
 3378              		.thumb
 3379              		.thumb_func
 3380              		.type	USB_ReadDevOutEPInterrupt, %function
 3381              	USB_ReadDevOutEPInterrupt:
 3382              	.LVL268:
 3383              	.LFB169:
 3384              		.loc 1 1269 1 is_stmt 1 view -0
 3385              		.cfi_startproc
 3386              		@ args = 0, pretend = 0, frame = 0
 3387              		@ frame_needed = 0, uses_anonymous_args = 0
 3388              		@ link register save eliminated.
 3389              		.loc 1 1270 3 view .LVU1187
 3390              		.loc 1 1271 3 view .LVU1188
 3391              		.loc 1 1273 3 view .LVU1189
 3392              		.loc 1 1273 13 is_stmt 0 view .LVU1190
 3393 0000 00EB4111 		add	r1, r0, r1, lsl #5
 3394              	.LVL269:
 3395              		.loc 1 1274 13 view .LVU1191
 3396 0004 00F50060 		add	r0, r0, #2048
 3397              	.LVL270:
 3398              		.loc 1 1273 11 view .LVU1192
 3399 0008 D1F8082B 		ldr	r2, [r1, #2824]
 3400              	.LVL271:
 3401              		.loc 1 1274 3 is_stmt 1 view .LVU1193
 3402              		.loc 1 1274 24 is_stmt 0 view .LVU1194
 3403 000c 4069     		ldr	r0, [r0, #20]
 3404              	.LVL272:
 3405              		.loc 1 1276 3 is_stmt 1 view .LVU1195
 3406              		.loc 1 1277 1 is_stmt 0 view .LVU1196
 3407 000e 1040     		ands	r0, r0, r2
 3408              	.LVL273:
 3409              		.loc 1 1277 1 view .LVU1197
 3410 0010 7047     		bx	lr
 3411              		.cfi_endproc
 3412              	.LFE169:
 3413              		.size	USB_ReadDevOutEPInterrupt, .-USB_ReadDevOutEPInterrupt
 3414 0012 00BF     		.section	.text.USB_ReadDevInEPInterrupt,"ax",%progbits
 3415              		.align	1
 3416              		.p2align 2,,3
 3417              		.global	USB_ReadDevInEPInterrupt
 3418              		.syntax unified
 3419              		.thumb
 3420              		.thumb_func
ARM GAS  C:\Users\DEVELO~1\AppData\Local\Temp\ccmErl8R.s 			page 61


 3421              		.type	USB_ReadDevInEPInterrupt, %function
 3422              	USB_ReadDevInEPInterrupt:
 3423              	.LVL274:
 3424              	.LFB170:
 3425              		.loc 1 1287 1 is_stmt 1 view -0
 3426              		.cfi_startproc
 3427              		@ args = 0, pretend = 0, frame = 0
 3428              		@ frame_needed = 0, uses_anonymous_args = 0
 3429              		@ link register save eliminated.
 3430              		.loc 1 1288 3 view .LVU1199
 3431              		.loc 1 1289 3 view .LVU1200
 3432              		.loc 1 1290 3 view .LVU1201
 3433              		.loc 1 1291 3 view .LVU1202
 3434              		.loc 1 1293 3 view .LVU1203
 3435              		.loc 1 1293 7 is_stmt 0 view .LVU1204
 3436 0000 D0F81028 		ldr	r2, [r0, #2064]
 3437              	.LVL275:
 3438              		.loc 1 1294 3 is_stmt 1 view .LVU1205
 3439              		.loc 1 1294 7 is_stmt 0 view .LVU1206
 3440 0004 D0F83438 		ldr	r3, [r0, #2100]
 3441              	.LVL276:
 3442              		.loc 1 1295 3 is_stmt 1 view .LVU1207
 3443              		.loc 1 1296 3 view .LVU1208
 3444              		.loc 1 1296 12 is_stmt 0 view .LVU1209
 3445 0008 00EB4110 		add	r0, r0, r1, lsl #5
 3446              	.LVL277:
 3447              		.loc 1 1295 26 view .LVU1210
 3448 000c 01F00F01 		and	r1, r1, #15
 3449              	.LVL278:
 3450              		.loc 1 1296 38 view .LVU1211
 3451 0010 D0F80809 		ldr	r0, [r0, #2312]
 3452              	.LVL279:
 3453              		.loc 1 1298 3 is_stmt 1 view .LVU1212
 3454              		.loc 1 1295 16 is_stmt 0 view .LVU1213
 3455 0014 CB40     		lsrs	r3, r3, r1
 3456              	.LVL280:
 3457              		.loc 1 1295 50 view .LVU1214
 3458 0016 DB01     		lsls	r3, r3, #7
 3459 0018 DBB2     		uxtb	r3, r3
 3460              		.loc 1 1295 7 view .LVU1215
 3461 001a 1343     		orrs	r3, r3, r2
 3462              		.loc 1 1299 1 view .LVU1216
 3463 001c 1840     		ands	r0, r0, r3
 3464 001e 7047     		bx	lr
 3465              		.cfi_endproc
 3466              	.LFE170:
 3467              		.size	USB_ReadDevInEPInterrupt, .-USB_ReadDevInEPInterrupt
 3468              		.section	.text.USB_ClearInterrupts,"ax",%progbits
 3469              		.align	1
 3470              		.p2align 2,,3
 3471              		.global	USB_ClearInterrupts
 3472              		.syntax unified
 3473              		.thumb
 3474              		.thumb_func
 3475              		.type	USB_ClearInterrupts, %function
 3476              	USB_ClearInterrupts:
 3477              	.LVL281:
ARM GAS  C:\Users\DEVELO~1\AppData\Local\Temp\ccmErl8R.s 			page 62


 3478              	.LFB171:
 3479              		.loc 1 1308 1 is_stmt 1 view -0
 3480              		.cfi_startproc
 3481              		@ args = 0, pretend = 0, frame = 0
 3482              		@ frame_needed = 0, uses_anonymous_args = 0
 3483              		@ link register save eliminated.
 3484              		.loc 1 1309 3 view .LVU1218
 3485              		.loc 1 1309 17 is_stmt 0 view .LVU1219
 3486 0000 4369     		ldr	r3, [r0, #20]
 3487 0002 1940     		ands	r1, r1, r3
 3488              	.LVL282:
 3489              		.loc 1 1309 17 view .LVU1220
 3490 0004 4161     		str	r1, [r0, #20]
 3491              		.loc 1 1310 1 view .LVU1221
 3492 0006 7047     		bx	lr
 3493              		.cfi_endproc
 3494              	.LFE171:
 3495              		.size	USB_ClearInterrupts, .-USB_ClearInterrupts
 3496              		.section	.text.USB_GetMode,"ax",%progbits
 3497              		.align	1
 3498              		.p2align 2,,3
 3499              		.global	USB_GetMode
 3500              		.syntax unified
 3501              		.thumb
 3502              		.thumb_func
 3503              		.type	USB_GetMode, %function
 3504              	USB_GetMode:
 3505              	.LVL283:
 3506              	.LFB172:
 3507              		.loc 1 1321 1 is_stmt 1 view -0
 3508              		.cfi_startproc
 3509              		@ args = 0, pretend = 0, frame = 0
 3510              		@ frame_needed = 0, uses_anonymous_args = 0
 3511              		@ link register save eliminated.
 3512              		.loc 1 1322 3 view .LVU1223
 3513              		.loc 1 1322 16 is_stmt 0 view .LVU1224
 3514 0000 4069     		ldr	r0, [r0, #20]
 3515              	.LVL284:
 3516              		.loc 1 1323 1 view .LVU1225
 3517 0002 00F00100 		and	r0, r0, #1
 3518 0006 7047     		bx	lr
 3519              		.cfi_endproc
 3520              	.LFE172:
 3521              		.size	USB_GetMode, .-USB_GetMode
 3522              		.section	.text.USB_ActivateSetup,"ax",%progbits
 3523              		.align	1
 3524              		.p2align 2,,3
 3525              		.global	USB_ActivateSetup
 3526              		.syntax unified
 3527              		.thumb
 3528              		.thumb_func
 3529              		.type	USB_ActivateSetup, %function
 3530              	USB_ActivateSetup:
 3531              	.LVL285:
 3532              	.LFB173:
 3533              		.loc 1 1331 1 is_stmt 1 view -0
 3534              		.cfi_startproc
ARM GAS  C:\Users\DEVELO~1\AppData\Local\Temp\ccmErl8R.s 			page 63


 3535              		@ args = 0, pretend = 0, frame = 0
 3536              		@ frame_needed = 0, uses_anonymous_args = 0
 3537              		@ link register save eliminated.
 3538              		.loc 1 1332 3 view .LVU1227
 3539              		.loc 1 1331 1 is_stmt 0 view .LVU1228
 3540 0000 0346     		mov	r3, r0
 3541              		.loc 1 1335 26 view .LVU1229
 3542 0002 094A     		ldr	r2, .L281
 3543              		.loc 1 1340 1 view .LVU1230
 3544 0004 0020     		movs	r0, #0
 3545              	.LVL286:
 3546              		.loc 1 1335 3 is_stmt 1 view .LVU1231
 3547              		.loc 1 1337 21 is_stmt 0 view .LVU1232
 3548 0006 03F50061 		add	r1, r3, #2048
 3549              		.loc 1 1331 1 view .LVU1233
 3550 000a 10B4     		push	{r4}
 3551              		.cfi_def_cfa_offset 4
 3552              		.cfi_offset 4, -4
 3553              		.loc 1 1335 26 view .LVU1234
 3554 000c D3F80049 		ldr	r4, [r3, #2304]
 3555 0010 2240     		ands	r2, r2, r4
 3556              		.loc 1 1340 1 view .LVU1235
 3557 0012 5DF8044B 		ldr	r4, [sp], #4
 3558              		.cfi_restore 4
 3559              		.cfi_def_cfa_offset 0
 3560              		.loc 1 1335 26 view .LVU1236
 3561 0016 C3F80029 		str	r2, [r3, #2304]
 3562              		.loc 1 1337 3 is_stmt 1 view .LVU1237
 3563              		.loc 1 1337 21 is_stmt 0 view .LVU1238
 3564 001a D3F80438 		ldr	r3, [r3, #2052]
 3565              	.LVL287:
 3566              		.loc 1 1337 21 view .LVU1239
 3567 001e 43F48073 		orr	r3, r3, #256
 3568 0022 4B60     		str	r3, [r1, #4]
 3569              		.loc 1 1339 3 is_stmt 1 view .LVU1240
 3570              		.loc 1 1340 1 is_stmt 0 view .LVU1241
 3571 0024 7047     		bx	lr
 3572              	.L282:
 3573 0026 00BF     		.align	2
 3574              	.L281:
 3575 0028 00F8FFFF 		.word	-2048
 3576              		.cfi_endproc
 3577              	.LFE173:
 3578              		.size	USB_ActivateSetup, .-USB_ActivateSetup
 3579              		.section	.text.USB_EP0_OutStart,"ax",%progbits
 3580              		.align	1
 3581              		.p2align 2,,3
 3582              		.global	USB_EP0_OutStart
 3583              		.syntax unified
 3584              		.thumb
 3585              		.thumb_func
 3586              		.type	USB_EP0_OutStart, %function
 3587              	USB_EP0_OutStart:
 3588              	.LVL288:
 3589              	.LFB174:
 3590              		.loc 1 1353 1 is_stmt 1 view -0
 3591              		.cfi_startproc
ARM GAS  C:\Users\DEVELO~1\AppData\Local\Temp\ccmErl8R.s 			page 64


 3592              		@ args = 0, pretend = 0, frame = 0
 3593              		@ frame_needed = 0, uses_anonymous_args = 0
 3594              		@ link register save eliminated.
 3595              		.loc 1 1354 3 view .LVU1243
 3596              		.loc 1 1357 6 is_stmt 0 view .LVU1244
 3597 0000 144B     		ldr	r3, .L290
 3598              	.LVL289:
 3599              		.loc 1 1355 3 is_stmt 1 view .LVU1245
 3600              		.loc 1 1353 1 is_stmt 0 view .LVU1246
 3601 0002 10B4     		push	{r4}
 3602              		.cfi_def_cfa_offset 4
 3603              		.cfi_offset 4, -4
 3604              		.loc 1 1355 12 view .LVU1247
 3605 0004 046C     		ldr	r4, [r0, #64]
 3606              	.LVL290:
 3607              		.loc 1 1357 3 is_stmt 1 view .LVU1248
 3608              		.loc 1 1357 6 is_stmt 0 view .LVU1249
 3609 0006 9C42     		cmp	r4, r3
 3610 0008 1AD8     		bhi	.L284
 3611              		.loc 1 1359 10 view .LVU1250
 3612 000a 00F53060 		add	r0, r0, #2816
 3613              	.LVL291:
 3614              	.L285:
 3615              		.loc 1 1365 3 is_stmt 1 view .LVU1251
 3616              		.loc 1 1365 28 is_stmt 0 view .LVU1252
 3617 000e 0023     		movs	r3, #0
 3618              		.loc 1 1370 6 view .LVU1253
 3619 0010 0129     		cmp	r1, #1
 3620              		.loc 1 1365 28 view .LVU1254
 3621 0012 0361     		str	r3, [r0, #16]
 3622              		.loc 1 1366 3 is_stmt 1 view .LVU1255
 3623              		.loc 1 1366 28 is_stmt 0 view .LVU1256
 3624 0014 0369     		ldr	r3, [r0, #16]
 3625 0016 43F40023 		orr	r3, r3, #524288
 3626 001a 0361     		str	r3, [r0, #16]
 3627              		.loc 1 1367 3 is_stmt 1 view .LVU1257
 3628              		.loc 1 1367 28 is_stmt 0 view .LVU1258
 3629 001c 0369     		ldr	r3, [r0, #16]
 3630 001e 43F01803 		orr	r3, r3, #24
 3631 0022 0361     		str	r3, [r0, #16]
 3632              		.loc 1 1368 3 is_stmt 1 view .LVU1259
 3633              		.loc 1 1368 28 is_stmt 0 view .LVU1260
 3634 0024 0369     		ldr	r3, [r0, #16]
 3635 0026 43F0C043 		orr	r3, r3, #1610612736
 3636 002a 0361     		str	r3, [r0, #16]
 3637              		.loc 1 1370 3 is_stmt 1 view .LVU1261
 3638              		.loc 1 1370 6 is_stmt 0 view .LVU1262
 3639 002c 04D1     		bne	.L286
 3640              		.loc 1 1372 5 is_stmt 1 view .LVU1263
 3641              		.loc 1 1372 29 is_stmt 0 view .LVU1264
 3642 002e 4261     		str	r2, [r0, #20]
 3643              		.loc 1 1374 5 is_stmt 1 view .LVU1265
 3644              		.loc 1 1374 29 is_stmt 0 view .LVU1266
 3645 0030 0368     		ldr	r3, [r0]
 3646 0032 43F08023 		orr	r3, r3, #-2147450880
 3647 0036 0360     		str	r3, [r0]
 3648              	.L286:
ARM GAS  C:\Users\DEVELO~1\AppData\Local\Temp\ccmErl8R.s 			page 65


 3649              		.loc 1 1378 1 view .LVU1267
 3650 0038 0020     		movs	r0, #0
 3651 003a 5DF8044B 		ldr	r4, [sp], #4
 3652              		.cfi_remember_state
 3653              		.cfi_restore 4
 3654              		.cfi_def_cfa_offset 0
 3655              	.LVL292:
 3656              		.loc 1 1378 1 view .LVU1268
 3657 003e 7047     		bx	lr
 3658              	.LVL293:
 3659              	.L284:
 3660              		.cfi_restore_state
 3661              		.loc 1 1359 5 is_stmt 1 view .LVU1269
 3662              		.loc 1 1359 24 is_stmt 0 view .LVU1270
 3663 0040 D0F8003B 		ldr	r3, [r0, #2816]
 3664              		.loc 1 1359 10 view .LVU1271
 3665 0044 00F53060 		add	r0, r0, #2816
 3666              	.LVL294:
 3667              		.loc 1 1359 8 view .LVU1272
 3668 0048 002B     		cmp	r3, #0
 3669 004a E0DA     		bge	.L285
 3670              		.loc 1 1378 1 view .LVU1273
 3671 004c 0020     		movs	r0, #0
 3672              	.LVL295:
 3673              		.loc 1 1378 1 view .LVU1274
 3674 004e 5DF8044B 		ldr	r4, [sp], #4
 3675              		.cfi_restore 4
 3676              		.cfi_def_cfa_offset 0
 3677              	.LVL296:
 3678              		.loc 1 1378 1 view .LVU1275
 3679 0052 7047     		bx	lr
 3680              	.L291:
 3681              		.align	2
 3682              	.L290:
 3683 0054 0A30544F 		.word	1330917386
 3684              		.cfi_endproc
 3685              	.LFE174:
 3686              		.size	USB_EP0_OutStart, .-USB_EP0_OutStart
 3687              		.section	.text.USB_HostInit,"ax",%progbits
 3688              		.align	1
 3689              		.p2align 2,,3
 3690              		.global	USB_HostInit
 3691              		.syntax unified
 3692              		.thumb
 3693              		.thumb_func
 3694              		.type	USB_HostInit, %function
 3695              	USB_HostInit:
 3696              	.LVL297:
 3697              	.LFB176:
 3698              		.loc 1 1426 1 is_stmt 1 view -0
 3699              		.cfi_startproc
 3700              		@ args = 20, pretend = 16, frame = 0
 3701              		@ frame_needed = 0, uses_anonymous_args = 0
 3702              		.loc 1 1426 1 is_stmt 0 view .LVU1277
 3703 0000 84B0     		sub	sp, sp, #16
 3704              		.cfi_def_cfa_offset 16
 3705 0002 70B5     		push	{r4, r5, r6, lr}
ARM GAS  C:\Users\DEVELO~1\AppData\Local\Temp\ccmErl8R.s 			page 66


 3706              		.cfi_def_cfa_offset 32
 3707              		.cfi_offset 4, -32
 3708              		.cfi_offset 5, -28
 3709              		.cfi_offset 6, -24
 3710              		.cfi_offset 14, -20
 3711              		.loc 1 1426 1 view .LVU1278
 3712 0004 05AD     		add	r5, sp, #20
 3713 0006 0446     		mov	r4, r0
 3714 0008 85E80E00 		stm	r5, {r1, r2, r3}
 3715              		.loc 1 1432 16 view .LVU1279
 3716 000c 0023     		movs	r3, #0
 3717 000e 9DF81550 		ldrb	r5, [sp, #21]	@ zero_extendqisi2
 3718              	.LVL298:
 3719              		.loc 1 1427 3 is_stmt 1 view .LVU1280
 3720              		.loc 1 1428 3 view .LVU1281
 3721              		.loc 1 1429 3 view .LVU1282
 3722              		.loc 1 1432 3 view .LVU1283
 3723              		.loc 1 1432 16 is_stmt 0 view .LVU1284
 3724 0012 C0F8003E 		str	r3, [r0, #3584]
 3725              		.loc 1 1435 3 is_stmt 1 view .LVU1285
 3726              		.loc 1 1435 15 is_stmt 0 view .LVU1286
 3727 0016 836B     		ldr	r3, [r0, #56]
 3728 0018 23F40013 		bic	r3, r3, #2097152
 3729 001c 8363     		str	r3, [r0, #56]
 3730              		.loc 1 1438 3 is_stmt 1 view .LVU1287
 3731              		.loc 1 1438 15 is_stmt 0 view .LVU1288
 3732 001e 836B     		ldr	r3, [r0, #56]
 3733 0020 23F40033 		bic	r3, r3, #131072
 3734 0024 8363     		str	r3, [r0, #56]
 3735              		.loc 1 1441 3 is_stmt 1 view .LVU1289
 3736              		.loc 1 1441 12 is_stmt 0 view .LVU1290
 3737 0026 C368     		ldr	r3, [r0, #12]
 3738              		.loc 1 1441 6 view .LVU1291
 3739 0028 5B06     		lsls	r3, r3, #25
 3740 002a 3FD4     		bmi	.L293
 3741              		.loc 1 1443 5 is_stmt 1 view .LVU1292
 3742              		.loc 1 1443 8 is_stmt 0 view .LVU1293
 3743 002c 9DF81730 		ldrb	r3, [sp, #23]	@ zero_extendqisi2
 3744 0030 012B     		cmp	r3, #1
 3745              		.loc 1 1446 23 view .LVU1294
 3746 0032 D0F80034 		ldr	r3, [r0, #1024]
 3747              		.loc 1 1443 8 view .LVU1295
 3748 0036 3CD0     		beq	.L304
 3749              	.L303:
 3750              		.loc 1 1457 21 view .LVU1296
 3751 0038 23F00403 		bic	r3, r3, #4
 3752 003c C4F80034 		str	r3, [r4, #1024]
 3753              	.L295:
 3754              		.loc 1 1461 3 is_stmt 1 view .LVU1297
 3755              		.loc 1 1461 7 is_stmt 0 view .LVU1298
 3756 0040 1021     		movs	r1, #16
 3757 0042 2046     		mov	r0, r4
 3758              	.LVL299:
 3759              		.loc 1 1461 7 view .LVU1299
 3760 0044 FFF7FEFF 		bl	USB_FlushTxFifo
 3761              	.LVL300:
 3762 0048 0146     		mov	r1, r0
ARM GAS  C:\Users\DEVELO~1\AppData\Local\Temp\ccmErl8R.s 			page 67


 3763              		.loc 1 1466 7 view .LVU1300
 3764 004a 2046     		mov	r0, r4
 3765              	.LVL301:
 3766              		.loc 1 1466 3 is_stmt 1 view .LVU1301
 3767              		.loc 1 1466 7 is_stmt 0 view .LVU1302
 3768 004c FFF7FEFF 		bl	USB_FlushRxFifo
 3769              	.LVL302:
 3770              		.loc 1 1466 6 view .LVU1303
 3771 0050 0843     		orrs	r0, r0, r1
 3772 0052 C0B2     		uxtb	r0, r0
 3773              		.loc 1 1468 9 view .LVU1304
 3774 0054 0038     		subs	r0, r0, #0
 3775 0056 18BF     		it	ne
 3776 0058 0120     		movne	r0, #1
 3777              	.LVL303:
 3778              		.loc 1 1472 3 is_stmt 1 view .LVU1305
 3779              		.loc 1 1472 18 view .LVU1306
 3780 005a 5DB1     		cbz	r5, .L300
 3781              		.loc 1 1472 10 is_stmt 0 view .LVU1307
 3782 005c 0022     		movs	r2, #0
 3783 005e 04F5A063 		add	r3, r4, #1280
 3784              		.loc 1 1474 23 view .LVU1308
 3785 0062 4FF0FF36 		mov	r6, #-1
 3786              		.loc 1 1475 26 view .LVU1309
 3787 0066 1146     		mov	r1, r2
 3788              	.LVL304:
 3789              	.L299:
 3790              		.loc 1 1474 5 is_stmt 1 discriminator 3 view .LVU1310
 3791              		.loc 1 1472 40 is_stmt 0 discriminator 3 view .LVU1311
 3792 0068 0132     		adds	r2, r2, #1
 3793              	.LVL305:
 3794              		.loc 1 1474 23 discriminator 3 view .LVU1312
 3795 006a 9E60     		str	r6, [r3, #8]
 3796              		.loc 1 1475 5 is_stmt 1 discriminator 3 view .LVU1313
 3797              		.loc 1 1475 26 is_stmt 0 discriminator 3 view .LVU1314
 3798 006c D960     		str	r1, [r3, #12]
 3799              		.loc 1 1472 40 is_stmt 1 discriminator 3 view .LVU1315
 3800              	.LVL306:
 3801              		.loc 1 1472 18 discriminator 3 view .LVU1316
 3802 006e 2033     		adds	r3, r3, #32
 3803 0070 AA42     		cmp	r2, r5
 3804 0072 F9D1     		bne	.L299
 3805              	.LVL307:
 3806              	.L300:
 3807              		.loc 1 1479 3 view .LVU1317
 3808              		.loc 1 1479 17 is_stmt 0 view .LVU1318
 3809 0074 0022     		movs	r2, #0
 3810              		.loc 1 1482 17 view .LVU1319
 3811 0076 4FF0FF33 		mov	r3, #-1
 3812              		.loc 1 1484 18 view .LVU1320
 3813 007a 4FF40071 		mov	r1, #512
 3814              		.loc 1 1479 17 view .LVU1321
 3815 007e A261     		str	r2, [r4, #24]
 3816              		.loc 1 1482 3 is_stmt 1 view .LVU1322
 3817              		.loc 1 1482 17 is_stmt 0 view .LVU1323
 3818 0080 6361     		str	r3, [r4, #20]
 3819              		.loc 1 1484 3 is_stmt 1 view .LVU1324
ARM GAS  C:\Users\DEVELO~1\AppData\Local\Temp\ccmErl8R.s 			page 68


 3820              		.loc 1 1485 28 is_stmt 0 view .LVU1325
 3821 0082 0E4B     		ldr	r3, .L305
 3822              		.loc 1 1484 18 view .LVU1326
 3823 0084 6162     		str	r1, [r4, #36]
 3824              		.loc 1 1485 3 is_stmt 1 view .LVU1327
 3825              		.loc 1 1486 18 is_stmt 0 view .LVU1328
 3826 0086 0E4A     		ldr	r2, .L305+4
 3827              		.loc 1 1485 28 view .LVU1329
 3828 0088 A362     		str	r3, [r4, #40]
 3829              		.loc 1 1486 3 is_stmt 1 view .LVU1330
 3830              		.loc 1 1489 6 is_stmt 0 view .LVU1331
 3831 008a 9DF81630 		ldrb	r3, [sp, #22]	@ zero_extendqisi2
 3832              		.loc 1 1486 18 view .LVU1332
 3833 008e C4F80021 		str	r2, [r4, #256]
 3834              		.loc 1 1489 3 is_stmt 1 view .LVU1333
 3835              		.loc 1 1489 6 is_stmt 0 view .LVU1334
 3836 0092 1BB9     		cbnz	r3, .L298
 3837              		.loc 1 1491 5 is_stmt 1 view .LVU1335
 3838              		.loc 1 1491 19 is_stmt 0 view .LVU1336
 3839 0094 A369     		ldr	r3, [r4, #24]
 3840 0096 43F01003 		orr	r3, r3, #16
 3841 009a A361     		str	r3, [r4, #24]
 3842              	.L298:
 3843              		.loc 1 1495 3 is_stmt 1 view .LVU1337
 3844              		.loc 1 1495 17 is_stmt 0 view .LVU1338
 3845 009c A269     		ldr	r2, [r4, #24]
 3846 009e 094B     		ldr	r3, .L305+8
 3847 00a0 1343     		orrs	r3, r3, r2
 3848 00a2 A361     		str	r3, [r4, #24]
 3849              		.loc 1 1499 3 is_stmt 1 view .LVU1339
 3850              		.loc 1 1500 1 is_stmt 0 view .LVU1340
 3851 00a4 BDE87040 		pop	{r4, r5, r6, lr}
 3852              		.cfi_remember_state
 3853              		.cfi_restore 14
 3854              		.cfi_restore 6
 3855              		.cfi_restore 5
 3856              		.cfi_restore 4
 3857              		.cfi_def_cfa_offset 16
 3858              	.LVL308:
 3859              		.loc 1 1500 1 view .LVU1341
 3860 00a8 04B0     		add	sp, sp, #16
 3861              		.cfi_def_cfa_offset 0
 3862 00aa 7047     		bx	lr
 3863              	.LVL309:
 3864              	.L293:
 3865              		.cfi_restore_state
 3866              		.loc 1 1457 5 is_stmt 1 view .LVU1342
 3867              		.loc 1 1457 21 is_stmt 0 view .LVU1343
 3868 00ac D0F80034 		ldr	r3, [r0, #1024]
 3869 00b0 C2E7     		b	.L303
 3870              	.L304:
 3871              		.loc 1 1446 7 is_stmt 1 view .LVU1344
 3872              		.loc 1 1446 23 is_stmt 0 view .LVU1345
 3873 00b2 43F00403 		orr	r3, r3, #4
 3874 00b6 C0F80034 		str	r3, [r0, #1024]
 3875 00ba C1E7     		b	.L295
 3876              	.L306:
ARM GAS  C:\Users\DEVELO~1\AppData\Local\Temp\ccmErl8R.s 			page 69


 3877              		.align	2
 3878              	.L305:
 3879 00bc 00020001 		.word	16777728
 3880 00c0 0003E000 		.word	14680832
 3881 00c4 080020A3 		.word	-1558183928
 3882              		.cfi_endproc
 3883              	.LFE176:
 3884              		.size	USB_HostInit, .-USB_HostInit
 3885              		.section	.text.USB_InitFSLSPClkSel,"ax",%progbits
 3886              		.align	1
 3887              		.p2align 2,,3
 3888              		.global	USB_InitFSLSPClkSel
 3889              		.syntax unified
 3890              		.thumb
 3891              		.thumb_func
 3892              		.type	USB_InitFSLSPClkSel, %function
 3893              	USB_InitFSLSPClkSel:
 3894              	.LVL310:
 3895              	.LFB177:
 3896              		.loc 1 1513 1 is_stmt 1 view -0
 3897              		.cfi_startproc
 3898              		@ args = 0, pretend = 0, frame = 0
 3899              		@ frame_needed = 0, uses_anonymous_args = 0
 3900              		@ link register save eliminated.
 3901              		.loc 1 1514 3 view .LVU1347
 3902              		.loc 1 1516 3 view .LVU1348
 3903              		.loc 1 1516 19 is_stmt 0 view .LVU1349
 3904 0000 D0F80024 		ldr	r2, [r0, #1024]
 3905              		.loc 1 1517 37 view .LVU1350
 3906 0004 01F00303 		and	r3, r1, #3
 3907              		.loc 1 1519 6 view .LVU1351
 3908 0008 0129     		cmp	r1, #1
 3909              		.loc 1 1516 19 view .LVU1352
 3910 000a 00F5806C 		add	ip, r0, #1024
 3911 000e 22F00302 		bic	r2, r2, #3
 3912 0012 C0F80024 		str	r2, [r0, #1024]
 3913              		.loc 1 1517 3 is_stmt 1 view .LVU1353
 3914              		.loc 1 1517 19 is_stmt 0 view .LVU1354
 3915 0016 D0F80024 		ldr	r2, [r0, #1024]
 3916 001a 43EA0203 		orr	r3, r3, r2
 3917 001e C0F80034 		str	r3, [r0, #1024]
 3918              		.loc 1 1519 3 is_stmt 1 view .LVU1355
 3919              		.loc 1 1519 6 is_stmt 0 view .LVU1356
 3920 0022 09D0     		beq	.L311
 3921              		.loc 1 1523 8 is_stmt 1 view .LVU1357
 3922              		.loc 1 1523 11 is_stmt 0 view .LVU1358
 3923 0024 0229     		cmp	r1, #2
 3924 0026 05D1     		bne	.L310
 3925              		.loc 1 1525 5 is_stmt 1 view .LVU1359
 3926              		.loc 1 1525 21 is_stmt 0 view .LVU1360
 3927 0028 41F27073 		movw	r3, #6000
 3928              		.loc 1 1532 10 view .LVU1361
 3929 002c 0020     		movs	r0, #0
 3930              	.LVL311:
 3931              		.loc 1 1525 21 view .LVU1362
 3932 002e CCF80430 		str	r3, [ip, #4]
 3933 0032 7047     		bx	lr
ARM GAS  C:\Users\DEVELO~1\AppData\Local\Temp\ccmErl8R.s 			page 70


 3934              	.LVL312:
 3935              	.L310:
 3936              		.loc 1 1529 12 view .LVU1363
 3937 0034 0120     		movs	r0, #1
 3938              	.LVL313:
 3939              		.loc 1 1533 1 view .LVU1364
 3940 0036 7047     		bx	lr
 3941              	.LVL314:
 3942              	.L311:
 3943              		.loc 1 1521 5 is_stmt 1 view .LVU1365
 3944              		.loc 1 1521 21 is_stmt 0 view .LVU1366
 3945 0038 4BF68033 		movw	r3, #48000
 3946              		.loc 1 1532 10 view .LVU1367
 3947 003c 0020     		movs	r0, #0
 3948              	.LVL315:
 3949              		.loc 1 1521 21 view .LVU1368
 3950 003e CCF80430 		str	r3, [ip, #4]
 3951 0042 7047     		bx	lr
 3952              		.cfi_endproc
 3953              	.LFE177:
 3954              		.size	USB_InitFSLSPClkSel, .-USB_InitFSLSPClkSel
 3955              		.section	.text.USB_ResetPort,"ax",%progbits
 3956              		.align	1
 3957              		.p2align 2,,3
 3958              		.global	USB_ResetPort
 3959              		.syntax unified
 3960              		.thumb
 3961              		.thumb_func
 3962              		.type	USB_ResetPort, %function
 3963              	USB_ResetPort:
 3964              	.LVL316:
 3965              	.LFB178:
 3966              		.loc 1 1543 1 is_stmt 1 view -0
 3967              		.cfi_startproc
 3968              		@ args = 0, pretend = 0, frame = 8
 3969              		@ frame_needed = 0, uses_anonymous_args = 0
 3970              		.loc 1 1544 3 view .LVU1370
 3971              		.loc 1 1543 1 is_stmt 0 view .LVU1371
 3972 0000 30B5     		push	{r4, r5, lr}
 3973              		.cfi_def_cfa_offset 12
 3974              		.cfi_offset 4, -12
 3975              		.cfi_offset 5, -8
 3976              		.cfi_offset 14, -4
 3977 0002 0446     		mov	r4, r0
 3978 0004 83B0     		sub	sp, sp, #12
 3979              		.cfi_def_cfa_offset 24
 3980              		.loc 1 1546 17 view .LVU1372
 3981 0006 0025     		movs	r5, #0
 3982              		.loc 1 1554 3 view .LVU1373
 3983 0008 6420     		movs	r0, #100
 3984              	.LVL317:
 3985              		.loc 1 1546 3 is_stmt 1 view .LVU1374
 3986              		.loc 1 1546 17 is_stmt 0 view .LVU1375
 3987 000a 0195     		str	r5, [sp, #4]
 3988              		.loc 1 1548 3 is_stmt 1 view .LVU1376
 3989              		.loc 1 1548 11 is_stmt 0 view .LVU1377
 3990 000c D4F84034 		ldr	r3, [r4, #1088]
ARM GAS  C:\Users\DEVELO~1\AppData\Local\Temp\ccmErl8R.s 			page 71


 3991              		.loc 1 1548 9 view .LVU1378
 3992 0010 0193     		str	r3, [sp, #4]
 3993              		.loc 1 1550 3 is_stmt 1 view .LVU1379
 3994              		.loc 1 1550 9 is_stmt 0 view .LVU1380
 3995 0012 019B     		ldr	r3, [sp, #4]
 3996 0014 23F02E03 		bic	r3, r3, #46
 3997 0018 0193     		str	r3, [sp, #4]
 3998              		.loc 1 1553 3 is_stmt 1 view .LVU1381
 3999              		.loc 1 1553 35 is_stmt 0 view .LVU1382
 4000 001a 019B     		ldr	r3, [sp, #4]
 4001 001c 43F48073 		orr	r3, r3, #256
 4002              		.loc 1 1553 14 view .LVU1383
 4003 0020 C4F84034 		str	r3, [r4, #1088]
 4004              		.loc 1 1554 3 is_stmt 1 view .LVU1384
 4005 0024 FFF7FEFF 		bl	HAL_Delay
 4006              	.LVL318:
 4007              		.loc 1 1555 3 view .LVU1385
 4008              		.loc 1 1555 38 is_stmt 0 view .LVU1386
 4009 0028 019B     		ldr	r3, [sp, #4]
 4010              		.loc 1 1556 3 view .LVU1387
 4011 002a 0A20     		movs	r0, #10
 4012              		.loc 1 1555 38 view .LVU1388
 4013 002c 23F48073 		bic	r3, r3, #256
 4014              		.loc 1 1555 14 view .LVU1389
 4015 0030 C4F84034 		str	r3, [r4, #1088]
 4016              		.loc 1 1556 3 is_stmt 1 view .LVU1390
 4017 0034 FFF7FEFF 		bl	HAL_Delay
 4018              	.LVL319:
 4019              		.loc 1 1558 3 view .LVU1391
 4020              		.loc 1 1559 1 is_stmt 0 view .LVU1392
 4021 0038 2846     		mov	r0, r5
 4022 003a 03B0     		add	sp, sp, #12
 4023              		.cfi_def_cfa_offset 12
 4024              		@ sp needed
 4025 003c 30BD     		pop	{r4, r5, pc}
 4026              		.loc 1 1559 1 view .LVU1393
 4027              		.cfi_endproc
 4028              	.LFE178:
 4029              		.size	USB_ResetPort, .-USB_ResetPort
 4030 003e 00BF     		.section	.text.USB_DriveVbus,"ax",%progbits
 4031              		.align	1
 4032              		.p2align 2,,3
 4033              		.global	USB_DriveVbus
 4034              		.syntax unified
 4035              		.thumb
 4036              		.thumb_func
 4037              		.type	USB_DriveVbus, %function
 4038              	USB_DriveVbus:
 4039              	.LVL320:
 4040              	.LFB179:
 4041              		.loc 1 1570 1 is_stmt 1 view -0
 4042              		.cfi_startproc
 4043              		@ args = 0, pretend = 0, frame = 8
 4044              		@ frame_needed = 0, uses_anonymous_args = 0
 4045              		@ link register save eliminated.
 4046              		.loc 1 1571 3 view .LVU1395
 4047              		.loc 1 1570 1 is_stmt 0 view .LVU1396
ARM GAS  C:\Users\DEVELO~1\AppData\Local\Temp\ccmErl8R.s 			page 72


 4048 0000 82B0     		sub	sp, sp, #8
 4049              		.cfi_def_cfa_offset 8
 4050              		.loc 1 1572 17 view .LVU1397
 4051 0002 0023     		movs	r3, #0
 4052              	.LVL321:
 4053              		.loc 1 1572 3 is_stmt 1 view .LVU1398
 4054              		.loc 1 1572 17 is_stmt 0 view .LVU1399
 4055 0004 0193     		str	r3, [sp, #4]
 4056              		.loc 1 1574 3 is_stmt 1 view .LVU1400
 4057              		.loc 1 1574 11 is_stmt 0 view .LVU1401
 4058 0006 D0F84034 		ldr	r3, [r0, #1088]
 4059              		.loc 1 1574 9 view .LVU1402
 4060 000a 0193     		str	r3, [sp, #4]
 4061              		.loc 1 1576 3 is_stmt 1 view .LVU1403
 4062              		.loc 1 1576 9 is_stmt 0 view .LVU1404
 4063 000c 019B     		ldr	r3, [sp, #4]
 4064 000e 23F02E03 		bic	r3, r3, #46
 4065 0012 0193     		str	r3, [sp, #4]
 4066              		.loc 1 1579 3 is_stmt 1 view .LVU1405
 4067              		.loc 1 1579 15 is_stmt 0 view .LVU1406
 4068 0014 019B     		ldr	r3, [sp, #4]
 4069              		.loc 1 1579 43 view .LVU1407
 4070 0016 13F4805F 		tst	r3, #4096
 4071              		.loc 1 1581 37 view .LVU1408
 4072 001a 019B     		ldr	r3, [sp, #4]
 4073              		.loc 1 1579 43 view .LVU1409
 4074 001c 01D1     		bne	.L315
 4075 001e 0129     		cmp	r1, #1
 4076 0020 0DD0     		beq	.L330
 4077              	.L315:
 4078              		.loc 1 1583 3 is_stmt 1 view .LVU1410
 4079              		.loc 1 1583 58 is_stmt 0 view .LVU1411
 4080 0022 DB04     		lsls	r3, r3, #19
 4081 0024 00D5     		bpl	.L316
 4082 0026 11B1     		cbz	r1, .L331
 4083              	.L316:
 4084              		.loc 1 1587 3 is_stmt 1 view .LVU1412
 4085              		.loc 1 1588 1 is_stmt 0 view .LVU1413
 4086 0028 0020     		movs	r0, #0
 4087              	.LVL322:
 4088              		.loc 1 1588 1 view .LVU1414
 4089 002a 02B0     		add	sp, sp, #8
 4090              		.cfi_remember_state
 4091              		.cfi_def_cfa_offset 0
 4092              		@ sp needed
 4093 002c 7047     		bx	lr
 4094              	.LVL323:
 4095              	.L331:
 4096              		.cfi_restore_state
 4097              		.loc 1 1585 5 is_stmt 1 view .LVU1415
 4098              		.loc 1 1585 40 is_stmt 0 view .LVU1416
 4099 002e 019B     		ldr	r3, [sp, #4]
 4100 0030 23F48053 		bic	r3, r3, #4096
 4101              		.loc 1 1585 16 view .LVU1417
 4102 0034 C0F84034 		str	r3, [r0, #1088]
 4103              		.loc 1 1587 3 is_stmt 1 view .LVU1418
 4104              		.loc 1 1588 1 is_stmt 0 view .LVU1419
ARM GAS  C:\Users\DEVELO~1\AppData\Local\Temp\ccmErl8R.s 			page 73


 4105 0038 0020     		movs	r0, #0
 4106              	.LVL324:
 4107              		.loc 1 1588 1 view .LVU1420
 4108 003a 02B0     		add	sp, sp, #8
 4109              		.cfi_remember_state
 4110              		.cfi_def_cfa_offset 0
 4111              		@ sp needed
 4112 003c 7047     		bx	lr
 4113              	.LVL325:
 4114              	.L330:
 4115              		.cfi_restore_state
 4116              		.loc 1 1581 5 is_stmt 1 view .LVU1421
 4117              		.loc 1 1581 37 is_stmt 0 view .LVU1422
 4118 003e 43F48053 		orr	r3, r3, #4096
 4119              		.loc 1 1581 16 view .LVU1423
 4120 0042 C0F84034 		str	r3, [r0, #1088]
 4121              		.loc 1 1583 3 is_stmt 1 view .LVU1424
 4122              		.loc 1 1588 1 is_stmt 0 view .LVU1425
 4123 0046 0020     		movs	r0, #0
 4124              	.LVL326:
 4125              		.loc 1 1583 15 view .LVU1426
 4126 0048 019B     		ldr	r3, [sp, #4]
 4127              		.loc 1 1587 3 is_stmt 1 view .LVU1427
 4128              		.loc 1 1588 1 is_stmt 0 view .LVU1428
 4129 004a 02B0     		add	sp, sp, #8
 4130              		.cfi_def_cfa_offset 0
 4131              		@ sp needed
 4132 004c 7047     		bx	lr
 4133              		.cfi_endproc
 4134              	.LFE179:
 4135              		.size	USB_DriveVbus, .-USB_DriveVbus
 4136 004e 00BF     		.section	.text.USB_GetHostSpeed,"ax",%progbits
 4137              		.align	1
 4138              		.p2align 2,,3
 4139              		.global	USB_GetHostSpeed
 4140              		.syntax unified
 4141              		.thumb
 4142              		.thumb_func
 4143              		.type	USB_GetHostSpeed, %function
 4144              	USB_GetHostSpeed:
 4145              	.LVL327:
 4146              	.LFB180:
 4147              		.loc 1 1600 1 is_stmt 1 view -0
 4148              		.cfi_startproc
 4149              		@ args = 0, pretend = 0, frame = 8
 4150              		@ frame_needed = 0, uses_anonymous_args = 0
 4151              		@ link register save eliminated.
 4152              		.loc 1 1601 3 view .LVU1430
 4153              		.loc 1 1600 1 is_stmt 0 view .LVU1431
 4154 0000 82B0     		sub	sp, sp, #8
 4155              		.cfi_def_cfa_offset 8
 4156              		.loc 1 1602 17 view .LVU1432
 4157 0002 0023     		movs	r3, #0
 4158              	.LVL328:
 4159              		.loc 1 1602 3 is_stmt 1 view .LVU1433
 4160              		.loc 1 1602 17 is_stmt 0 view .LVU1434
 4161 0004 0193     		str	r3, [sp, #4]
ARM GAS  C:\Users\DEVELO~1\AppData\Local\Temp\ccmErl8R.s 			page 74


 4162              		.loc 1 1604 3 is_stmt 1 view .LVU1435
 4163              		.loc 1 1604 11 is_stmt 0 view .LVU1436
 4164 0006 D0F84034 		ldr	r3, [r0, #1088]
 4165              		.loc 1 1604 9 view .LVU1437
 4166 000a 0193     		str	r3, [sp, #4]
 4167              		.loc 1 1605 3 is_stmt 1 view .LVU1438
 4168              		.loc 1 1605 39 is_stmt 0 view .LVU1439
 4169 000c 0198     		ldr	r0, [sp, #4]
 4170              	.LVL329:
 4171              		.loc 1 1606 1 view .LVU1440
 4172 000e C0F34140 		ubfx	r0, r0, #17, #2
 4173 0012 02B0     		add	sp, sp, #8
 4174              		.cfi_def_cfa_offset 0
 4175              		@ sp needed
 4176 0014 7047     		bx	lr
 4177              		.cfi_endproc
 4178              	.LFE180:
 4179              		.size	USB_GetHostSpeed, .-USB_GetHostSpeed
 4180 0016 00BF     		.section	.text.USB_GetCurrentFrame,"ax",%progbits
 4181              		.align	1
 4182              		.p2align 2,,3
 4183              		.global	USB_GetCurrentFrame
 4184              		.syntax unified
 4185              		.thumb
 4186              		.thumb_func
 4187              		.type	USB_GetCurrentFrame, %function
 4188              	USB_GetCurrentFrame:
 4189              	.LVL330:
 4190              	.LFB181:
 4191              		.loc 1 1614 1 is_stmt 1 view -0
 4192              		.cfi_startproc
 4193              		@ args = 0, pretend = 0, frame = 0
 4194              		@ frame_needed = 0, uses_anonymous_args = 0
 4195              		@ link register save eliminated.
 4196              		.loc 1 1615 3 view .LVU1442
 4197              		.loc 1 1617 3 view .LVU1443
 4198              		.loc 1 1617 20 is_stmt 0 view .LVU1444
 4199 0000 D0F80804 		ldr	r0, [r0, #1032]
 4200              	.LVL331:
 4201              		.loc 1 1618 1 view .LVU1445
 4202 0004 80B2     		uxth	r0, r0
 4203 0006 7047     		bx	lr
 4204              		.cfi_endproc
 4205              	.LFE181:
 4206              		.size	USB_GetCurrentFrame, .-USB_GetCurrentFrame
 4207              		.section	.text.USB_HC_Init,"ax",%progbits
 4208              		.align	1
 4209              		.p2align 2,,3
 4210              		.global	USB_HC_Init
 4211              		.syntax unified
 4212              		.thumb
 4213              		.thumb_func
 4214              		.type	USB_HC_Init, %function
 4215              	USB_HC_Init:
 4216              	.LVL332:
 4217              	.LFB182:
 4218              		.loc 1 1647 1 is_stmt 1 view -0
ARM GAS  C:\Users\DEVELO~1\AppData\Local\Temp\ccmErl8R.s 			page 75


 4219              		.cfi_startproc
 4220              		@ args = 12, pretend = 0, frame = 8
 4221              		@ frame_needed = 0, uses_anonymous_args = 0
 4222              		.loc 1 1648 3 view .LVU1447
 4223              		.loc 1 1649 3 view .LVU1448
 4224              		.loc 1 1647 1 is_stmt 0 view .LVU1449
 4225 0000 2DE9F041 		push	{r4, r5, r6, r7, r8, lr}
 4226              		.cfi_def_cfa_offset 24
 4227              		.cfi_offset 4, -24
 4228              		.cfi_offset 5, -20
 4229              		.cfi_offset 6, -16
 4230              		.cfi_offset 7, -12
 4231              		.cfi_offset 8, -8
 4232              		.cfi_offset 14, -4
 4233 0004 82B0     		sub	sp, sp, #8
 4234              		.cfi_def_cfa_offset 32
 4235              		.loc 1 1655 3 view .LVU1450
 4236 0006 00EB411E 		add	lr, r0, r1, lsl #5
 4237              		.loc 1 1647 1 view .LVU1451
 4238 000a 0746     		mov	r7, r0
 4239              	.LVL333:
 4240              		.loc 1 1650 3 is_stmt 1 view .LVU1452
 4241              		.loc 1 1651 3 view .LVU1453
 4242              		.loc 1 1652 3 view .LVU1454
 4243              		.loc 1 1655 3 view .LVU1455
 4244              		.loc 1 1655 36 is_stmt 0 view .LVU1456
 4245 000c 4FF0FF30 		mov	r0, #-1
 4246              	.LVL334:
 4247              		.loc 1 1647 1 view .LVU1457
 4248 0010 9DF82440 		ldrb	r4, [sp, #36]	@ zero_extendqisi2
 4249              		.loc 1 1655 3 view .LVU1458
 4250 0014 0EF5A068 		add	r8, lr, #1280
 4251              		.loc 1 1647 1 view .LVU1459
 4252 0018 9DF82050 		ldrb	r5, [sp, #32]	@ zero_extendqisi2
 4253 001c BDF82860 		ldrh	r6, [sp, #40]
 4254              		.loc 1 1655 36 view .LVU1460
 4255 0020 CEF80805 		str	r0, [lr, #1288]
 4256              		.loc 1 1658 3 is_stmt 1 view .LVU1461
 4257 0024 032C     		cmp	r4, #3
 4258 0026 00F28680 		bhi	.L336
 4259 002a DFE804F0 		tbb	[pc, r4]
 4260              	.L338:
 4261 002e 02       		.byte	(.L339-.L338)/2
 4262 002f 6B       		.byte	(.L340-.L338)/2
 4263 0030 02       		.byte	(.L339-.L338)/2
 4264 0031 13       		.byte	(.L337-.L338)/2
 4265              		.p2align 1
 4266              	.L339:
 4267              		.loc 1 1662 7 view .LVU1462
 4268              		.loc 1 1669 27 is_stmt 0 view .LVU1463
 4269 0032 4FFA82FC 		sxtb	ip, r2
 4270              		.loc 1 1662 43 view .LVU1464
 4271 0036 40F29D40 		movw	r0, #1181
 4272              		.loc 1 1669 10 view .LVU1465
 4273 003a BCF1000F 		cmp	ip, #0
 4274              		.loc 1 1662 43 view .LVU1466
 4275 003e C8F80C00 		str	r0, [r8, #12]
ARM GAS  C:\Users\DEVELO~1\AppData\Local\Temp\ccmErl8R.s 			page 76


 4276              		.loc 1 1669 7 is_stmt 1 view .LVU1467
 4277              		.loc 1 1671 45 is_stmt 0 view .LVU1468
 4278 0042 D8F80C00 		ldr	r0, [r8, #12]
 4279              		.loc 1 1669 10 view .LVU1469
 4280 0046 70DB     		blt	.L347
 4281              		.loc 1 1675 9 is_stmt 1 view .LVU1470
 4282              		.loc 1 1675 45 is_stmt 0 view .LVU1471
 4283 0048 40F06000 		orr	r0, r0, #96
 4284 004c C8F80C00 		str	r0, [r8, #12]
 4285              	.LVL335:
 4286              		.loc 1 1648 21 view .LVU1472
 4287 0050 0020     		movs	r0, #0
 4288 0052 09E0     		b	.L341
 4289              	.LVL336:
 4290              	.L337:
 4291              		.loc 1 1681 7 is_stmt 1 view .LVU1473
 4292              		.loc 1 1689 27 is_stmt 0 view .LVU1474
 4293 0054 4FFA82FC 		sxtb	ip, r2
 4294              		.loc 1 1681 43 view .LVU1475
 4295 0058 40F29D60 		movw	r0, #1693
 4296              		.loc 1 1689 10 view .LVU1476
 4297 005c BCF1000F 		cmp	ip, #0
 4298              		.loc 1 1681 43 view .LVU1477
 4299 0060 C8F80C00 		str	r0, [r8, #12]
 4300              		.loc 1 1689 7 is_stmt 1 view .LVU1478
 4301              		.loc 1 1689 10 is_stmt 0 view .LVU1479
 4302 0064 5FDB     		blt	.L348
 4303              	.L345:
 4304              		.loc 1 1648 21 view .LVU1480
 4305 0066 0020     		movs	r0, #0
 4306              	.LVL337:
 4307              	.L341:
 4308              		.loc 1 1714 3 is_stmt 1 view .LVU1481
 4309              		.loc 1 1726 6 is_stmt 0 view .LVU1482
 4310 0068 4FEADC7C 		lsr	ip, ip, #31
 4311              		.loc 1 1750 54 view .LVU1483
 4312 006c C6F30A06 		ubfx	r6, r6, #0, #11
 4313              		.loc 1 1720 41 view .LVU1484
 4314 0070 01F00F01 		and	r1, r1, #15
 4315              	.LVL338:
 4316              		.loc 1 1748 67 view .LVU1485
 4317 0074 D202     		lsls	r2, r2, #11
 4318              	.LVL339:
 4319              		.loc 1 1751 73 view .LVU1486
 4320 0076 46EACC36 		orr	r6, r6, ip, lsl #15
 4321              		.loc 1 1747 63 view .LVU1487
 4322 007a 4FEA835C 		lsl	ip, r3, #22
 4323              		.loc 1 1748 74 view .LVU1488
 4324 007e 02F4F042 		and	r2, r2, #30720
 4325              		.loc 1 1747 70 view .LVU1489
 4326 0082 0CF0FE5C 		and	ip, ip, #532676608
 4327              		.loc 1 1751 73 view .LVU1490
 4328 0086 46EA0C03 		orr	r3, r6, ip
 4329              	.LVL340:
 4330              		.loc 1 1714 37 view .LVU1491
 4331 008a 0026     		movs	r6, #0
 4332 008c C8F80460 		str	r6, [r8, #4]
ARM GAS  C:\Users\DEVELO~1\AppData\Local\Temp\ccmErl8R.s 			page 77


 4333              		.loc 1 1717 3 is_stmt 1 view .LVU1492
 4334              		.loc 1 1717 39 is_stmt 0 view .LVU1493
 4335 0090 D8F80CC0 		ldr	ip, [r8, #12]
 4336 0094 4CF0020C 		orr	ip, ip, #2
 4337 0098 C8F80CC0 		str	ip, [r8, #12]
 4338              		.loc 1 1720 3 is_stmt 1 view .LVU1494
 4339              		.loc 1 1720 30 is_stmt 0 view .LVU1495
 4340 009c 4FF0010C 		mov	ip, #1
 4341 00a0 0CFA01F1 		lsl	r1, ip, r1
 4342              		.loc 1 1720 23 view .LVU1496
 4343 00a4 D7F818C4 		ldr	ip, [r7, #1048]
 4344 00a8 41EA0C01 		orr	r1, r1, ip
 4345 00ac C7F81814 		str	r1, [r7, #1048]
 4346              		.loc 1 1723 3 is_stmt 1 view .LVU1497
 4347              		.loc 1 1723 17 is_stmt 0 view .LVU1498
 4348 00b0 B969     		ldr	r1, [r7, #24]
 4349 00b2 41F00071 		orr	r1, r1, #33554432
 4350 00b6 B961     		str	r1, [r7, #24]
 4351              		.loc 1 1726 3 is_stmt 1 view .LVU1499
 4352              	.LVL341:
 4353              		.loc 1 1735 3 view .LVU1500
 4354              	.LBB40:
 4355              	.LBI40:
 4356              		.loc 1 1599 10 view .LVU1501
 4357              	.LBB41:
 4358              		.loc 1 1601 3 view .LVU1502
 4359              		.loc 1 1602 3 view .LVU1503
 4360              		.loc 1 1602 17 is_stmt 0 view .LVU1504
 4361 00b8 0196     		str	r6, [sp, #4]
 4362              		.loc 1 1604 3 is_stmt 1 view .LVU1505
 4363              		.loc 1 1604 11 is_stmt 0 view .LVU1506
 4364 00ba D7F84014 		ldr	r1, [r7, #1088]
 4365              		.loc 1 1604 9 view .LVU1507
 4366 00be 0191     		str	r1, [sp, #4]
 4367              		.loc 1 1605 3 is_stmt 1 view .LVU1508
 4368              		.loc 1 1605 39 is_stmt 0 view .LVU1509
 4369 00c0 0199     		ldr	r1, [sp, #4]
 4370              	.LVL342:
 4371              		.loc 1 1605 39 view .LVU1510
 4372              	.LBE41:
 4373              	.LBE40:
 4374              		.loc 1 1738 3 is_stmt 1 view .LVU1511
 4375              		.loc 1 1747 3 view .LVU1512
 4376              	.LBB43:
 4377              	.LBB42:
 4378              		.loc 1 1605 39 is_stmt 0 view .LVU1513
 4379 00c2 C1F34141 		ubfx	r1, r1, #17, #2
 4380              	.LVL343:
 4381              		.loc 1 1605 39 view .LVU1514
 4382              	.LBE42:
 4383              	.LBE43:
 4384              		.loc 1 1738 6 view .LVU1515
 4385 00c6 0239     		subs	r1, r1, #2
 4386 00c8 18BF     		it	ne
 4387 00ca 0121     		movne	r1, #1
 4388 00cc 022D     		cmp	r5, #2
 4389 00ce 18BF     		it	ne
ARM GAS  C:\Users\DEVELO~1\AppData\Local\Temp\ccmErl8R.s 			page 78


 4390 00d0 0021     		movne	r1, #0
 4391              		.loc 1 1751 73 view .LVU1516
 4392 00d2 43EA4143 		orr	r3, r3, r1, lsl #17
 4393              		.loc 1 1749 59 view .LVU1517
 4394 00d6 A104     		lsls	r1, r4, #18
 4395              		.loc 1 1751 73 view .LVU1518
 4396 00d8 1343     		orrs	r3, r3, r2
 4397              		.loc 1 1753 6 view .LVU1519
 4398 00da 04F0FD02 		and	r2, r4, #253
 4399              		.loc 1 1749 66 view .LVU1520
 4400 00de 01F44021 		and	r1, r1, #786432
 4401              		.loc 1 1753 6 view .LVU1521
 4402 00e2 012A     		cmp	r2, #1
 4403              		.loc 1 1751 73 view .LVU1522
 4404 00e4 43EA0103 		orr	r3, r3, r1
 4405 00e8 43F48013 		orr	r3, r3, #1048576
 4406              		.loc 1 1747 37 view .LVU1523
 4407 00ec CEF80035 		str	r3, [lr, #1280]
 4408              		.loc 1 1753 3 is_stmt 1 view .LVU1524
 4409              		.loc 1 1753 6 is_stmt 0 view .LVU1525
 4410 00f0 05D1     		bne	.L343
 4411              		.loc 1 1755 5 is_stmt 1 view .LVU1526
 4412              		.loc 1 1755 39 is_stmt 0 view .LVU1527
 4413 00f2 DEF80035 		ldr	r3, [lr, #1280]
 4414 00f6 43F00053 		orr	r3, r3, #536870912
 4415 00fa CEF80035 		str	r3, [lr, #1280]
 4416              	.L343:
 4417              		.loc 1 1758 3 is_stmt 1 view .LVU1528
 4418              		.loc 1 1759 1 is_stmt 0 view .LVU1529
 4419 00fe 02B0     		add	sp, sp, #8
 4420              		.cfi_remember_state
 4421              		.cfi_def_cfa_offset 24
 4422              		@ sp needed
 4423 0100 BDE8F081 		pop	{r4, r5, r6, r7, r8, pc}
 4424              	.LVL344:
 4425              	.L340:
 4426              		.cfi_restore_state
 4427              		.loc 1 1697 7 is_stmt 1 view .LVU1530
 4428              		.loc 1 1702 27 is_stmt 0 view .LVU1531
 4429 0104 4FFA82FC 		sxtb	ip, r2
 4430              		.loc 1 1697 43 view .LVU1532
 4431 0108 40F22520 		movw	r0, #549
 4432              		.loc 1 1702 10 view .LVU1533
 4433 010c BCF1000F 		cmp	ip, #0
 4434              		.loc 1 1697 43 view .LVU1534
 4435 0110 C8F80C00 		str	r0, [r8, #12]
 4436              		.loc 1 1702 7 is_stmt 1 view .LVU1535
 4437              		.loc 1 1702 10 is_stmt 0 view .LVU1536
 4438 0114 A7DA     		bge	.L345
 4439              		.loc 1 1704 9 is_stmt 1 view .LVU1537
 4440              		.loc 1 1704 45 is_stmt 0 view .LVU1538
 4441 0116 D8F80C00 		ldr	r0, [r8, #12]
 4442 011a 40F4C070 		orr	r0, r0, #384
 4443 011e C8F80C00 		str	r0, [r8, #12]
 4444              	.LVL345:
 4445              		.loc 1 1648 21 view .LVU1539
 4446 0122 0020     		movs	r0, #0
ARM GAS  C:\Users\DEVELO~1\AppData\Local\Temp\ccmErl8R.s 			page 79


 4447 0124 A0E7     		b	.L341
 4448              	.LVL346:
 4449              	.L348:
 4450              		.loc 1 1691 9 is_stmt 1 view .LVU1540
 4451              		.loc 1 1691 45 is_stmt 0 view .LVU1541
 4452 0126 D8F80C00 		ldr	r0, [r8, #12]
 4453              	.L347:
 4454              		.loc 1 1691 45 view .LVU1542
 4455 012a 40F48070 		orr	r0, r0, #256
 4456 012e C8F80C00 		str	r0, [r8, #12]
 4457              	.LVL347:
 4458              		.loc 1 1648 21 view .LVU1543
 4459 0132 0020     		movs	r0, #0
 4460 0134 98E7     		b	.L341
 4461              	.LVL348:
 4462              	.L336:
 4463              		.loc 1 1669 27 view .LVU1544
 4464 0136 4FFA82FC 		sxtb	ip, r2
 4465              		.loc 1 1709 11 view .LVU1545
 4466 013a 0120     		movs	r0, #1
 4467 013c 94E7     		b	.L341
 4468              		.cfi_endproc
 4469              	.LFE182:
 4470              		.size	USB_HC_Init, .-USB_HC_Init
 4471 013e 00BF     		.section	.text.USB_HC_StartXfer,"ax",%progbits
 4472              		.align	1
 4473              		.p2align 2,,3
 4474              		.global	USB_HC_StartXfer
 4475              		.syntax unified
 4476              		.thumb
 4477              		.thumb_func
 4478              		.type	USB_HC_StartXfer, %function
 4479              	USB_HC_StartXfer:
 4480              	.LVL349:
 4481              	.LFB183:
 4482              		.loc 1 1772 1 is_stmt 1 view -0
 4483              		.cfi_startproc
 4484              		@ args = 0, pretend = 0, frame = 8
 4485              		@ frame_needed = 0, uses_anonymous_args = 0
 4486              		.loc 1 1773 3 view .LVU1547
 4487              		.loc 1 1774 3 view .LVU1548
 4488              		.loc 1 1782 6 is_stmt 0 view .LVU1549
 4489 0000 012A     		cmp	r2, #1
 4490              		.loc 1 1772 1 view .LVU1550
 4491 0002 F0B5     		push	{r4, r5, r6, r7, lr}
 4492              		.cfi_def_cfa_offset 20
 4493              		.cfi_offset 4, -20
 4494              		.cfi_offset 5, -16
 4495              		.cfi_offset 6, -12
 4496              		.cfi_offset 7, -8
 4497              		.cfi_offset 14, -4
 4498 0004 83B0     		sub	sp, sp, #12
 4499              		.cfi_def_cfa_offset 32
 4500              		.loc 1 1774 33 view .LVU1551
 4501 0006 91F801C0 		ldrb	ip, [r1, #1]	@ zero_extendqisi2
 4502              	.LVL350:
 4503              		.loc 1 1775 3 is_stmt 1 view .LVU1552
ARM GAS  C:\Users\DEVELO~1\AppData\Local\Temp\ccmErl8R.s 			page 80


 4504              		.loc 1 1776 3 view .LVU1553
 4505              		.loc 1 1777 3 view .LVU1554
 4506              		.loc 1 1778 3 view .LVU1555
 4507              		.loc 1 1779 3 view .LVU1556
 4508              		.loc 1 1782 3 view .LVU1557
 4509              		.loc 1 1782 6 is_stmt 0 view .LVU1558
 4510 000a 00F0A580 		beq	.L424
 4511              		.loc 1 1794 5 is_stmt 1 view .LVU1559
 4512              		.loc 1 1794 8 is_stmt 0 view .LVU1560
 4513 000e 8B88     		ldrh	r3, [r1, #4]
 4514 0010 B3F5807F 		cmp	r3, #256
 4515 0014 00F0E680 		beq	.L353
 4516              		.loc 1 1787 43 view .LVU1561
 4517 0018 00EB4C13 		add	r3, r0, ip, lsl #5
 4518 001c 03F5A063 		add	r3, r3, #1280
 4519              	.L352:
 4520              		.loc 1 1801 3 is_stmt 1 view .LVU1562
 4521              		.loc 1 1801 9 is_stmt 0 view .LVU1563
 4522 0020 8E79     		ldrb	r6, [r1, #6]	@ zero_extendqisi2
 4523              		.loc 1 1801 6 view .LVU1564
 4524 0022 012E     		cmp	r6, #1
 4525 0024 00F0A980 		beq	.L425
 4526              	.L355:
 4527              		.loc 1 1859 5 is_stmt 1 view .LVU1565
 4528              		.loc 1 1859 11 is_stmt 0 view .LVU1566
 4529 0028 0C6A     		ldr	r4, [r1, #32]
 4530              		.loc 1 1859 8 view .LVU1567
 4531 002a 002C     		cmp	r4, #0
 4532 002c 42D1     		bne	.L426
 4533              		.loc 1 1878 5 is_stmt 1 view .LVU1568
 4534              		.loc 1 1878 11 is_stmt 0 view .LVU1569
 4535 002e CD78     		ldrb	r5, [r1, #3]	@ zero_extendqisi2
 4536 0030 4FF4002E 		mov	lr, #524288
 4537 0034 0127     		movs	r7, #1
 4538              		.loc 1 1878 8 view .LVU1570
 4539 0036 002D     		cmp	r5, #0
 4540 0038 4CD0     		beq	.L366
 4541              	.L428:
 4542              		.loc 1 1880 7 is_stmt 1 view .LVU1571
 4543              		.loc 1 1880 48 is_stmt 0 view .LVU1572
 4544 003a 8C8A     		ldrh	r4, [r1, #20]
 4545              		.loc 1 1880 44 view .LVU1573
 4546 003c 07FB04F4 		mul	r4, r7, r4
 4547              		.loc 1 1880 20 view .LVU1574
 4548 0040 CC61     		str	r4, [r1, #28]
 4549              		.loc 1 1889 43 view .LVU1575
 4550 0042 C4F31204 		ubfx	r4, r4, #0, #19
 4551              	.L357:
 4552              		.loc 1 1889 3 is_stmt 1 view .LVU1576
 4553              		.loc 1 1890 85 is_stmt 0 view .LVU1577
 4554 0046 44EA0E0E 		orr	lr, r4, lr
 4555              		.loc 1 1891 31 view .LVU1578
 4556 004a 8C7D     		ldrb	r4, [r1, #22]	@ zero_extendqisi2
 4557              		.loc 1 1891 54 view .LVU1579
 4558 004c 6407     		lsls	r4, r4, #29
 4559              		.loc 1 1891 61 view .LVU1580
 4560 004e 04F0C044 		and	r4, r4, #1610612736
ARM GAS  C:\Users\DEVELO~1\AppData\Local\Temp\ccmErl8R.s 			page 81


 4561              		.loc 1 1890 85 view .LVU1581
 4562 0052 44EA0E04 		orr	r4, r4, lr
 4563              		.loc 1 1889 27 view .LVU1582
 4564 0056 1C61     		str	r4, [r3, #16]
 4565              		.loc 1 1893 3 is_stmt 1 view .LVU1583
 4566              		.loc 1 1893 6 is_stmt 0 view .LVU1584
 4567 0058 0AB1     		cbz	r2, .L367
 4568              	.L364:
 4569              		.loc 1 1896 5 is_stmt 1 view .LVU1585
 4570              		.loc 1 1896 30 is_stmt 0 view .LVU1586
 4571 005a 8C69     		ldr	r4, [r1, #24]
 4572              		.loc 1 1896 28 view .LVU1587
 4573 005c 5C61     		str	r4, [r3, #20]
 4574              	.L367:
 4575              		.loc 1 1899 3 is_stmt 1 view .LVU1588
 4576              		.loc 1 1899 38 is_stmt 0 view .LVU1589
 4577 005e D0F80844 		ldr	r4, [r0, #1032]
 4578              	.LVL351:
 4579              		.loc 1 1900 3 is_stmt 1 view .LVU1590
 4580              		.loc 1 1903 6 is_stmt 0 view .LVU1591
 4581 0062 012E     		cmp	r6, #1
 4582              		.loc 1 1900 27 view .LVU1592
 4583 0064 1F68     		ldr	r7, [r3]
 4584              		.loc 1 1901 52 view .LVU1593
 4585 0066 6FEA0404 		mvn	r4, r4
 4586              	.LVL352:
 4587              		.loc 1 1900 27 view .LVU1594
 4588 006a 27F00057 		bic	r7, r7, #536870912
 4589              		.loc 1 1901 52 view .LVU1595
 4590 006e 4FEA4474 		lsl	r4, r4, #29
 4591              	.LVL353:
 4592              		.loc 1 1900 27 view .LVU1596
 4593 0072 1F60     		str	r7, [r3]
 4594              		.loc 1 1901 3 is_stmt 1 view .LVU1597
 4595              		.loc 1 1901 52 is_stmt 0 view .LVU1598
 4596 0074 04F00054 		and	r4, r4, #536870912
 4597              		.loc 1 1901 27 view .LVU1599
 4598 0078 1F68     		ldr	r7, [r3]
 4599 007a 44EA0704 		orr	r4, r4, r7
 4600              		.loc 1 1899 29 view .LVU1600
 4601 007e 00F58067 		add	r7, r0, #1024
 4602              		.loc 1 1901 27 view .LVU1601
 4603 0082 1C60     		str	r4, [r3]
 4604              		.loc 1 1903 3 is_stmt 1 view .LVU1602
 4605              		.loc 1 1903 6 is_stmt 0 view .LVU1603
 4606 0084 2AD0     		beq	.L427
 4607              		.loc 1 1959 5 is_stmt 1 view .LVU1604
 4608              		.loc 1 1959 39 is_stmt 0 view .LVU1605
 4609 0086 0024     		movs	r4, #0
 4610 0088 5C60     		str	r4, [r3, #4]
 4611              	.L393:
 4612              		.loc 1 1963 3 is_stmt 1 view .LVU1606
 4613              		.loc 1 1963 27 is_stmt 0 view .LVU1607
 4614 008a 1C68     		ldr	r4, [r3]
 4615              		.loc 1 1963 10 view .LVU1608
 4616 008c 0194     		str	r4, [sp, #4]
 4617              		.loc 1 1964 3 is_stmt 1 view .LVU1609
ARM GAS  C:\Users\DEVELO~1\AppData\Local\Temp\ccmErl8R.s 			page 82


 4618              		.loc 1 1964 10 is_stmt 0 view .LVU1610
 4619 008e 019C     		ldr	r4, [sp, #4]
 4620 0090 24F08044 		bic	r4, r4, #1073741824
 4621 0094 0194     		str	r4, [sp, #4]
 4622              		.loc 1 1967 3 is_stmt 1 view .LVU1611
 4623              		.loc 1 1967 6 is_stmt 0 view .LVU1612
 4624 0096 002D     		cmp	r5, #0
 4625 0098 45D0     		beq	.L382
 4626              	.LVL354:
 4627              	.L374:
 4628              		.loc 1 1969 5 is_stmt 1 view .LVU1613
 4629              		.loc 1 1969 12 is_stmt 0 view .LVU1614
 4630 009a 019A     		ldr	r2, [sp, #4]
 4631 009c 42F40042 		orr	r2, r2, #32768
 4632 00a0 0192     		str	r2, [sp, #4]
 4633              		.loc 1 1975 3 is_stmt 1 view .LVU1615
 4634              		.loc 1 1975 10 is_stmt 0 view .LVU1616
 4635 00a2 019A     		ldr	r2, [sp, #4]
 4636 00a4 42F00042 		orr	r2, r2, #-2147483648
 4637 00a8 0192     		str	r2, [sp, #4]
 4638              		.loc 1 1976 3 is_stmt 1 view .LVU1617
 4639              		.loc 1 1976 27 is_stmt 0 view .LVU1618
 4640 00aa 019A     		ldr	r2, [sp, #4]
 4641 00ac 1A60     		str	r2, [r3]
 4642              		.loc 1 1978 3 is_stmt 1 view .LVU1619
 4643              		.loc 1 1983 3 view .LVU1620
 4644              	.LVL355:
 4645              	.L412:
 4646              		.loc 1 2022 1 is_stmt 0 view .LVU1621
 4647 00ae 0020     		movs	r0, #0
 4648              	.LVL356:
 4649              		.loc 1 2022 1 view .LVU1622
 4650 00b0 03B0     		add	sp, sp, #12
 4651              		.cfi_remember_state
 4652              		.cfi_def_cfa_offset 20
 4653              		@ sp needed
 4654 00b2 F0BD     		pop	{r4, r5, r6, r7, pc}
 4655              	.LVL357:
 4656              	.L426:
 4657              		.cfi_restore_state
 4658              		.loc 1 1861 7 is_stmt 1 view .LVU1623
 4659              		.loc 1 1861 50 is_stmt 0 view .LVU1624
 4660 00b4 8D8A     		ldrh	r5, [r1, #20]
 4661              	.LVL358:
 4662              		.loc 1 1863 7 is_stmt 1 view .LVU1625
 4663              		.loc 1 1861 63 is_stmt 0 view .LVU1626
 4664 00b6 671E     		subs	r7, r4, #1
 4665 00b8 2F44     		add	r7, r7, r5
 4666              		.loc 1 1861 69 view .LVU1627
 4667 00ba B7FBF5F7 		udiv	r7, r7, r5
 4668              		.loc 1 1880 22 view .LVU1628
 4669 00be BFB2     		uxth	r7, r7
 4670              		.loc 1 1878 11 view .LVU1629
 4671 00c0 CD78     		ldrb	r5, [r1, #3]	@ zero_extendqisi2
 4672              	.LVL359:
 4673              		.loc 1 1880 22 view .LVU1630
 4674 00c2 B7F5807F 		cmp	r7, #256
ARM GAS  C:\Users\DEVELO~1\AppData\Local\Temp\ccmErl8R.s 			page 83


 4675 00c6 28BF     		it	cs
 4676 00c8 4FF48077 		movcs	r7, #256
 4677              		.loc 1 1890 53 view .LVU1631
 4678 00cc 4FEAC74E 		lsl	lr, r7, #19
 4679              	.LVL360:
 4680              		.loc 1 1878 5 is_stmt 1 view .LVU1632
 4681              		.loc 1 1878 8 is_stmt 0 view .LVU1633
 4682 00d0 002D     		cmp	r5, #0
 4683 00d2 B2D1     		bne	.L428
 4684              	.L366:
 4685              		.loc 1 1884 7 is_stmt 1 view .LVU1634
 4686              		.loc 1 1884 20 is_stmt 0 view .LVU1635
 4687 00d4 CC61     		str	r4, [r1, #28]
 4688              		.loc 1 1889 43 view .LVU1636
 4689 00d6 C4F31204 		ubfx	r4, r4, #0, #19
 4690 00da B4E7     		b	.L357
 4691              	.L427:
 4692              		.loc 1 1906 5 is_stmt 1 view .LVU1637
 4693              		.loc 1 1906 42 is_stmt 0 view .LVU1638
 4694 00dc 4E7C     		ldrb	r6, [r1, #17]	@ zero_extendqisi2
 4695              		.loc 1 1907 41 view .LVU1639
 4696 00de 0C7C     		ldrb	r4, [r1, #16]	@ zero_extendqisi2
 4697              		.loc 1 1906 96 view .LVU1640
 4698 00e0 44EAC614 		orr	r4, r4, r6, lsl #7
 4699              		.loc 1 1907 68 view .LVU1641
 4700 00e4 44F00044 		orr	r4, r4, #-2147483648
 4701              		.loc 1 1906 39 view .LVU1642
 4702 00e8 5C60     		str	r4, [r3, #4]
 4703              		.loc 1 1910 5 is_stmt 1 view .LVU1643
 4704              		.loc 1 1910 41 is_stmt 0 view .LVU1644
 4705 00ea DC68     		ldr	r4, [r3, #12]
 4706 00ec 44F06004 		orr	r4, r4, #96
 4707 00f0 DC60     		str	r4, [r3, #12]
 4708              		.loc 1 1913 5 is_stmt 1 view .LVU1645
 4709              		.loc 1 1913 8 is_stmt 0 view .LVU1646
 4710 00f2 CC79     		ldrb	r4, [r1, #7]	@ zero_extendqisi2
 4711 00f4 012C     		cmp	r4, #1
 4712 00f6 4FD1     		bne	.L369
 4713              		.loc 1 1913 31 discriminator 1 view .LVU1647
 4714 00f8 002D     		cmp	r5, #0
 4715 00fa 5FD1     		bne	.L370
 4716              		.loc 1 1915 7 is_stmt 1 view .LVU1648
 4717              		.loc 1 1915 41 is_stmt 0 view .LVU1649
 4718 00fc 5C68     		ldr	r4, [r3, #4]
 4719 00fe 44F48034 		orr	r4, r4, #65536
 4720 0102 5C60     		str	r4, [r3, #4]
 4721              		.loc 1 1916 7 is_stmt 1 view .LVU1650
 4722              		.loc 1 1916 43 is_stmt 0 view .LVU1651
 4723 0104 DC68     		ldr	r4, [r3, #12]
 4724 0106 44F04004 		orr	r4, r4, #64
 4725 010a DC60     		str	r4, [r3, #12]
 4726              		.loc 1 1919 5 is_stmt 1 view .LVU1652
 4727              		.loc 1 1919 13 is_stmt 0 view .LVU1653
 4728 010c 8C7C     		ldrb	r4, [r1, #18]	@ zero_extendqisi2
 4729              		.loc 1 1919 8 view .LVU1654
 4730 010e 04F0FD06 		and	r6, r4, #253
 4731 0112 012E     		cmp	r6, #1
ARM GAS  C:\Users\DEVELO~1\AppData\Local\Temp\ccmErl8R.s 			page 84


 4732 0114 B9D1     		bne	.L393
 4733              		.loc 1 1926 5 is_stmt 1 view .LVU1655
 4734              		.loc 1 1926 8 is_stmt 0 view .LVU1656
 4735 0116 012C     		cmp	r4, #1
 4736 0118 43D0     		beq	.L375
 4737              	.L421:
 4738              		.loc 1 1926 5 is_stmt 1 view .LVU1657
 4739              		.loc 1 1963 3 view .LVU1658
 4740              		.loc 1 1963 27 is_stmt 0 view .LVU1659
 4741 011a 1C68     		ldr	r4, [r3]
 4742              		.loc 1 1963 10 view .LVU1660
 4743 011c 0194     		str	r4, [sp, #4]
 4744              		.loc 1 1964 3 is_stmt 1 view .LVU1661
 4745              		.loc 1 1964 10 is_stmt 0 view .LVU1662
 4746 011e 019C     		ldr	r4, [sp, #4]
 4747 0120 24F08044 		bic	r4, r4, #1073741824
 4748 0124 0194     		str	r4, [sp, #4]
 4749              		.loc 1 1967 3 is_stmt 1 view .LVU1663
 4750              	.L382:
 4751              		.loc 1 1973 5 view .LVU1664
 4752              		.loc 1 1973 12 is_stmt 0 view .LVU1665
 4753 0126 019C     		ldr	r4, [sp, #4]
 4754 0128 24F40044 		bic	r4, r4, #32768
 4755 012c 0194     		str	r4, [sp, #4]
 4756              		.loc 1 1975 3 is_stmt 1 view .LVU1666
 4757              		.loc 1 1975 10 is_stmt 0 view .LVU1667
 4758 012e 019C     		ldr	r4, [sp, #4]
 4759 0130 44F00044 		orr	r4, r4, #-2147483648
 4760 0134 0194     		str	r4, [sp, #4]
 4761              		.loc 1 1976 3 is_stmt 1 view .LVU1668
 4762              		.loc 1 1976 27 is_stmt 0 view .LVU1669
 4763 0136 019C     		ldr	r4, [sp, #4]
 4764 0138 1C60     		str	r4, [r3]
 4765              		.loc 1 1978 3 is_stmt 1 view .LVU1670
 4766              		.loc 1 1978 6 is_stmt 0 view .LVU1671
 4767 013a 002A     		cmp	r2, #0
 4768 013c B7D1     		bne	.L412
 4769              		.loc 1 1983 34 discriminator 1 view .LVU1672
 4770 013e 0A6A     		ldr	r2, [r1, #32]
 4771              	.LVL361:
 4772              		.loc 1 1983 28 discriminator 1 view .LVU1673
 4773 0140 002A     		cmp	r2, #0
 4774 0142 B4D0     		beq	.L412
 4775              		.loc 1 1983 51 discriminator 2 view .LVU1674
 4776 0144 CB79     		ldrb	r3, [r1, #7]	@ zero_extendqisi2
 4777 0146 002B     		cmp	r3, #0
 4778 0148 B1D1     		bne	.L412
 4779              		.loc 1 1985 5 is_stmt 1 view .LVU1675
 4780 014a 8B7C     		ldrb	r3, [r1, #18]	@ zero_extendqisi2
 4781 014c 032B     		cmp	r3, #3
 4782 014e 64D8     		bhi	.L385
 4783 0150 DFE803F0 		tbb	[pc, r3]
 4784              	.L387:
 4785 0154 58       		.byte	(.L388-.L387)/2
 4786 0155 76       		.byte	(.L386-.L387)/2
 4787 0156 58       		.byte	(.L388-.L387)/2
 4788 0157 76       		.byte	(.L386-.L387)/2
ARM GAS  C:\Users\DEVELO~1\AppData\Local\Temp\ccmErl8R.s 			page 85


 4789              	.LVL362:
 4790              		.p2align 1
 4791              	.L424:
 4792              		.loc 1 1784 5 view .LVU1676
 4793              		.loc 1 1784 39 is_stmt 0 view .LVU1677
 4794 0158 8B7C     		ldrb	r3, [r1, #18]	@ zero_extendqisi2
 4795              		.loc 1 1784 8 view .LVU1678
 4796 015a 13F0FD0F 		tst	r3, #253
 4797              		.loc 1 1787 43 view .LVU1679
 4798 015e 00EB4C13 		add	r3, r0, ip, lsl #5
 4799 0162 03F5A063 		add	r3, r3, #1280
 4800              		.loc 1 1784 8 view .LVU1680
 4801 0166 7FF45BAF 		bne	.L352
 4802              		.loc 1 1787 7 is_stmt 1 view .LVU1681
 4803              		.loc 1 1787 43 is_stmt 0 view .LVU1682
 4804 016a DC68     		ldr	r4, [r3, #12]
 4805 016c 24F07004 		bic	r4, r4, #112
 4806 0170 DC60     		str	r4, [r3, #12]
 4807              		.loc 1 1801 3 is_stmt 1 view .LVU1683
 4808              		.loc 1 1801 9 is_stmt 0 view .LVU1684
 4809 0172 8E79     		ldrb	r6, [r1, #6]	@ zero_extendqisi2
 4810              		.loc 1 1801 6 view .LVU1685
 4811 0174 012E     		cmp	r6, #1
 4812 0176 7FF457AF 		bne	.L355
 4813              	.L425:
 4814              		.loc 1 1804 5 is_stmt 1 view .LVU1686
 4815              	.LVL363:
 4816              		.loc 1 1806 5 view .LVU1687
 4817              		.loc 1 1806 11 is_stmt 0 view .LVU1688
 4818 017a CD78     		ldrb	r5, [r1, #3]	@ zero_extendqisi2
 4819              		.loc 1 1806 8 view .LVU1689
 4820 017c CDB9     		cbnz	r5, .L429
 4821              		.loc 1 1812 7 is_stmt 1 view .LVU1690
 4822              		.loc 1 1812 10 is_stmt 0 view .LVU1691
 4823 017e 8C7C     		ldrb	r4, [r1, #18]	@ zero_extendqisi2
 4824 0180 012C     		cmp	r4, #1
 4825              		.loc 1 1814 15 view .LVU1692
 4826 0182 0C6A     		ldr	r4, [r1, #32]
 4827              		.loc 1 1812 10 view .LVU1693
 4828 0184 7CD0     		beq	.L430
 4829              		.loc 1 1845 9 is_stmt 1 view .LVU1694
 4830              		.loc 1 1845 12 is_stmt 0 view .LVU1695
 4831 0186 012A     		cmp	r2, #1
 4832 0188 00F08780 		beq	.L431
 4833              	.L363:
 4834              		.loc 1 1851 11 is_stmt 1 view .LVU1696
 4835              		.loc 1 1851 24 is_stmt 0 view .LVU1697
 4836 018c CC61     		str	r4, [r1, #28]
 4837              		.loc 1 1889 43 view .LVU1698
 4838 018e 4FF4002E 		mov	lr, #524288
 4839 0192 C4F31204 		ubfx	r4, r4, #0, #19
 4840 0196 56E7     		b	.L357
 4841              	.LVL364:
 4842              	.L369:
 4843              		.loc 1 1919 5 is_stmt 1 view .LVU1699
 4844              		.loc 1 1926 5 view .LVU1700
 4845              		.loc 1 1926 8 is_stmt 0 view .LVU1701
ARM GAS  C:\Users\DEVELO~1\AppData\Local\Temp\ccmErl8R.s 			page 86


 4846 0198 8C7C     		ldrb	r4, [r1, #18]	@ zero_extendqisi2
 4847 019a 012C     		cmp	r4, #1
 4848 019c 7FF475AF 		bne	.L393
 4849              		.loc 1 1926 39 discriminator 1 view .LVU1702
 4850 01a0 CDB9     		cbnz	r5, .L376
 4851              	.L375:
 4852              		.loc 1 1929 7 is_stmt 1 view .LVU1703
 4853 01a2 CC68     		ldr	r4, [r1, #12]
 4854 01a4 013C     		subs	r4, r4, #1
 4855 01a6 032C     		cmp	r4, #3
 4856 01a8 B7D8     		bhi	.L421
 4857 01aa DFE804F0 		tbb	[pc, r4]
 4858              	.L396:
 4859 01ae 64       		.byte	(.L377-.L396)/2
 4860 01af 5F       		.byte	(.L379-.L396)/2
 4861 01b0 5A       		.byte	(.L380-.L396)/2
 4862 01b1 55       		.byte	(.L381-.L396)/2
 4863              	.LVL365:
 4864              		.p2align 1
 4865              	.L429:
 4866              		.loc 1 1808 7 view .LVU1704
 4867              		.loc 1 1808 48 is_stmt 0 view .LVU1705
 4868 01b2 8C8A     		ldrh	r4, [r1, #20]
 4869 01b4 4FF4002E 		mov	lr, #524288
 4870              		.loc 1 1808 20 view .LVU1706
 4871 01b8 CC61     		str	r4, [r1, #28]
 4872 01ba 44E7     		b	.L357
 4873              	.LVL366:
 4874              	.L370:
 4875              		.loc 1 1919 5 is_stmt 1 view .LVU1707
 4876              		.loc 1 1919 13 is_stmt 0 view .LVU1708
 4877 01bc 8C7C     		ldrb	r4, [r1, #18]	@ zero_extendqisi2
 4878              		.loc 1 1919 8 view .LVU1709
 4879 01be 04F0FD06 		and	r6, r4, #253
 4880 01c2 012E     		cmp	r6, #1
 4881 01c4 7FF461AF 		bne	.L393
 4882              		.loc 1 1920 31 view .LVU1710
 4883 01c8 012D     		cmp	r5, #1
 4884 01ca 40F08480 		bne	.L373
 4885              		.loc 1 1922 7 is_stmt 1 view .LVU1711
 4886              		.loc 1 1922 41 is_stmt 0 view .LVU1712
 4887 01ce 5A68     		ldr	r2, [r3, #4]
 4888              	.LVL367:
 4889              		.loc 1 1922 41 view .LVU1713
 4890 01d0 42F48032 		orr	r2, r2, #65536
 4891 01d4 5A60     		str	r2, [r3, #4]
 4892              		.loc 1 1926 5 is_stmt 1 view .LVU1714
 4893              		.loc 1 1963 3 view .LVU1715
 4894              	.L376:
 4895              		.loc 1 1926 5 view .LVU1716
 4896              		.loc 1 1963 3 view .LVU1717
 4897              		.loc 1 1963 27 is_stmt 0 view .LVU1718
 4898 01d6 1A68     		ldr	r2, [r3]
 4899              		.loc 1 1963 10 view .LVU1719
 4900 01d8 0192     		str	r2, [sp, #4]
 4901              		.loc 1 1964 3 is_stmt 1 view .LVU1720
 4902              		.loc 1 1964 10 is_stmt 0 view .LVU1721
ARM GAS  C:\Users\DEVELO~1\AppData\Local\Temp\ccmErl8R.s 			page 87


 4903 01da 019A     		ldr	r2, [sp, #4]
 4904 01dc 22F08042 		bic	r2, r2, #1073741824
 4905 01e0 0192     		str	r2, [sp, #4]
 4906              		.loc 1 1967 3 is_stmt 1 view .LVU1722
 4907 01e2 5AE7     		b	.L374
 4908              	.LVL368:
 4909              	.L353:
 4910              		.loc 1 1796 7 view .LVU1723
 4911              	.LBB44:
 4912              	.LBI44:
 4913              		.loc 1 2127 19 view .LVU1724
 4914              	.LBB45:
 4915              		.loc 1 2129 3 view .LVU1725
 4916              		.loc 1 2130 3 view .LVU1726
 4917              		.loc 1 2131 3 view .LVU1727
 4918              		.loc 1 2132 3 view .LVU1728
 4919              		.loc 1 2134 3 view .LVU1729
 4920 01e4 00EB4C1C 		add	ip, r0, ip, lsl #5
 4921              	.LVL369:
 4922              		.loc 1 2134 26 is_stmt 0 view .LVU1730
 4923 01e8 3D4B     		ldr	r3, .L433
 4924              	.LBE45:
 4925              	.LBE44:
 4926              		.loc 1 2022 1 view .LVU1731
 4927 01ea 0020     		movs	r0, #0
 4928              	.LVL370:
 4929              	.LBB47:
 4930              	.LBB46:
 4931              		.loc 1 2134 26 view .LVU1732
 4932 01ec CCF81035 		str	r3, [ip, #1296]
 4933              	.LVL371:
 4934              		.loc 1 2138 3 is_stmt 1 view .LVU1733
 4935              		.loc 1 2138 10 is_stmt 0 view .LVU1734
 4936 01f0 DCF80035 		ldr	r3, [ip, #1280]
 4937              	.LVL372:
 4938              		.loc 1 2139 3 is_stmt 1 view .LVU1735
 4939              		.loc 1 2139 10 is_stmt 0 view .LVU1736
 4940 01f4 23F08043 		bic	r3, r3, #1073741824
 4941              	.LVL373:
 4942              		.loc 1 2140 3 is_stmt 1 view .LVU1737
 4943              		.loc 1 2140 10 is_stmt 0 view .LVU1738
 4944 01f8 43F00043 		orr	r3, r3, #-2147483648
 4945              	.LVL374:
 4946              		.loc 1 2141 3 is_stmt 1 view .LVU1739
 4947              		.loc 1 2141 26 is_stmt 0 view .LVU1740
 4948 01fc CCF80035 		str	r3, [ip, #1280]
 4949              		.loc 1 2143 3 is_stmt 1 view .LVU1741
 4950              	.LVL375:
 4951              		.loc 1 2143 3 is_stmt 0 view .LVU1742
 4952              	.LBE46:
 4953              	.LBE47:
 4954              		.loc 1 1797 7 is_stmt 1 view .LVU1743
 4955              		.loc 1 2022 1 is_stmt 0 view .LVU1744
 4956 0200 03B0     		add	sp, sp, #12
 4957              		.cfi_remember_state
 4958              		.cfi_def_cfa_offset 20
 4959              		@ sp needed
ARM GAS  C:\Users\DEVELO~1\AppData\Local\Temp\ccmErl8R.s 			page 88


 4960 0202 F0BD     		pop	{r4, r5, r6, r7, pc}
 4961              	.LVL376:
 4962              	.L388:
 4963              		.cfi_restore_state
 4964              		.loc 1 1991 9 is_stmt 1 view .LVU1745
 4965              		.loc 1 1994 9 view .LVU1746
 4966              		.loc 1 1994 30 is_stmt 0 view .LVU1747
 4967 0204 C36A     		ldr	r3, [r0, #44]
 4968              		.loc 1 1991 46 view .LVU1748
 4969 0206 D41C     		adds	r4, r2, #3
 4970              		.loc 1 1994 41 view .LVU1749
 4971 0208 9BB2     		uxth	r3, r3
 4972              		.loc 1 1994 12 view .LVU1750
 4973 020a C4F38F04 		ubfx	r4, r4, #2, #16
 4974 020e 9C42     		cmp	r4, r3
 4975 0210 03D9     		bls	.L385
 4976              		.loc 1 1997 11 is_stmt 1 view .LVU1751
 4977              		.loc 1 1997 25 is_stmt 0 view .LVU1752
 4978 0212 8369     		ldr	r3, [r0, #24]
 4979 0214 43F02003 		orr	r3, r3, #32
 4980 0218 8361     		str	r3, [r0, #24]
 4981              	.LVL377:
 4982              	.L385:
 4983              		.loc 1 2018 5 is_stmt 1 view .LVU1753
 4984              	.LBB48:
 4985              	.LBB49:
 4986              		.loc 1 989 31 is_stmt 0 view .LVU1754
 4987 021a 92B2     		uxth	r2, r2
 4988              	.LBE49:
 4989              	.LBE48:
 4990              		.loc 1 2018 11 view .LVU1755
 4991 021c 8B69     		ldr	r3, [r1, #24]
 4992              	.LVL378:
 4993              	.LBB51:
 4994              	.LBI48:
 4995              		.loc 1 979 19 is_stmt 1 view .LVU1756
 4996              	.LBB50:
 4997              		.loc 1 982 3 view .LVU1757
 4998              		.loc 1 983 3 view .LVU1758
 4999              		.loc 1 984 3 view .LVU1759
 5000              		.loc 1 985 3 view .LVU1760
 5001              		.loc 1 987 3 view .LVU1761
 5002              		.loc 1 989 5 view .LVU1762
 5003              		.loc 1 989 31 is_stmt 0 view .LVU1763
 5004 021e 0332     		adds	r2, r2, #3
 5005              	.LVL379:
 5006              		.loc 1 990 5 is_stmt 1 view .LVU1764
 5007              		.loc 1 990 20 view .LVU1765
 5008 0220 9208     		lsrs	r2, r2, #2
 5009              	.LVL380:
 5010              		.loc 1 990 20 is_stmt 0 view .LVU1766
 5011 0222 3FF444AF 		beq	.L412
 5012              		.loc 1 992 7 view .LVU1767
 5013 0226 00EB0C3C 		add	ip, r0, ip, lsl #12
 5014              	.LVL381:
 5015              		.loc 1 992 7 view .LVU1768
 5016 022a 03EB8202 		add	r2, r3, r2, lsl #2
ARM GAS  C:\Users\DEVELO~1\AppData\Local\Temp\ccmErl8R.s 			page 89


 5017              	.LVL382:
 5018              		.loc 1 992 7 view .LVU1769
 5019 022e 0CF5805C 		add	ip, ip, #4096
 5020              	.LVL383:
 5021              	.L389:
 5022              		.loc 1 992 7 is_stmt 1 view .LVU1770
 5023              		.loc 1 992 41 is_stmt 0 view .LVU1771
 5024 0232 53F8041B 		ldr	r1, [r3], #4	@ unaligned
 5025              	.LVL384:
 5026              		.loc 1 990 20 view .LVU1772
 5027 0236 9A42     		cmp	r2, r3
 5028              		.loc 1 992 39 view .LVU1773
 5029 0238 CCF80010 		str	r1, [ip]
 5030              		.loc 1 993 7 is_stmt 1 view .LVU1774
 5031              	.LVL385:
 5032              		.loc 1 994 7 view .LVU1775
 5033              		.loc 1 995 7 view .LVU1776
 5034              		.loc 1 996 7 view .LVU1777
 5035              		.loc 1 990 33 view .LVU1778
 5036              		.loc 1 990 20 view .LVU1779
 5037 023c F9D1     		bne	.L389
 5038 023e 36E7     		b	.L412
 5039              	.LVL386:
 5040              	.L386:
 5041              		.loc 1 990 20 is_stmt 0 view .LVU1780
 5042              	.LBE50:
 5043              	.LBE51:
 5044              		.loc 1 2004 9 is_stmt 1 view .LVU1781
 5045              		.loc 1 2006 9 view .LVU1782
 5046              		.loc 1 2006 35 is_stmt 0 view .LVU1783
 5047 0240 3C69     		ldr	r4, [r7, #16]
 5048              		.loc 1 2004 46 view .LVU1784
 5049 0242 D31C     		adds	r3, r2, #3
 5050              		.loc 1 2006 45 view .LVU1785
 5051 0244 A4B2     		uxth	r4, r4
 5052              		.loc 1 2006 12 view .LVU1786
 5053 0246 C3F38F03 		ubfx	r3, r3, #2, #16
 5054 024a 9C42     		cmp	r4, r3
 5055 024c E5D2     		bcs	.L385
 5056              		.loc 1 2009 11 is_stmt 1 view .LVU1787
 5057              		.loc 1 2009 25 is_stmt 0 view .LVU1788
 5058 024e 8369     		ldr	r3, [r0, #24]
 5059 0250 43F08063 		orr	r3, r3, #67108864
 5060 0254 8361     		str	r3, [r0, #24]
 5061 0256 E0E7     		b	.L385
 5062              	.LVL387:
 5063              	.L381:
 5064              		.loc 1 1948 11 is_stmt 1 view .LVU1789
 5065              		.loc 1 1948 45 is_stmt 0 view .LVU1790
 5066 0258 5C68     		ldr	r4, [r3, #4]
 5067 025a 44F44044 		orr	r4, r4, #49152
 5068 025e 5C60     		str	r4, [r3, #4]
 5069              		.loc 1 1949 11 is_stmt 1 view .LVU1791
 5070 0260 5BE7     		b	.L421
 5071              	.L380:
 5072              		.loc 1 1943 11 view .LVU1792
 5073              		.loc 1 1943 45 is_stmt 0 view .LVU1793
ARM GAS  C:\Users\DEVELO~1\AppData\Local\Temp\ccmErl8R.s 			page 90


 5074 0262 5C68     		ldr	r4, [r3, #4]
 5075 0264 44F48044 		orr	r4, r4, #16384
 5076 0268 5C60     		str	r4, [r3, #4]
 5077              		.loc 1 1944 11 is_stmt 1 view .LVU1794
 5078 026a 56E7     		b	.L421
 5079              	.L379:
 5080              		.loc 1 1938 11 view .LVU1795
 5081              		.loc 1 1938 45 is_stmt 0 view .LVU1796
 5082 026c 5C68     		ldr	r4, [r3, #4]
 5083 026e 44F00E04 		orr	r4, r4, #14
 5084 0272 5C60     		str	r4, [r3, #4]
 5085              		.loc 1 1939 11 is_stmt 1 view .LVU1797
 5086 0274 51E7     		b	.L421
 5087              	.L377:
 5088              		.loc 1 1933 11 view .LVU1798
 5089              		.loc 1 1933 45 is_stmt 0 view .LVU1799
 5090 0276 5C68     		ldr	r4, [r3, #4]
 5091 0278 44F40044 		orr	r4, r4, #32768
 5092 027c 5C60     		str	r4, [r3, #4]
 5093              		.loc 1 1934 11 is_stmt 1 view .LVU1800
 5094 027e 4CE7     		b	.L421
 5095              	.LVL388:
 5096              	.L430:
 5097              		.loc 1 1814 9 view .LVU1801
 5098              		.loc 1 1814 12 is_stmt 0 view .LVU1802
 5099 0280 BC2C     		cmp	r4, #188
 5100 0282 18D9     		bls	.L359
 5101              		.loc 1 1817 11 is_stmt 1 view .LVU1803
 5102              		.loc 1 1820 54 is_stmt 0 view .LVU1804
 5103 0284 CC68     		ldr	r4, [r1, #12]
 5104 0286 671E     		subs	r7, r4, #1
 5105              		.loc 1 1817 28 view .LVU1805
 5106 0288 8C8A     		ldrh	r4, [r1, #20]
 5107              		.loc 1 1820 14 view .LVU1806
 5108 028a 012F     		cmp	r7, #1
 5109              		.loc 1 1818 24 view .LVU1807
 5110 028c C1E90744 		strd	r4, r4, [r1, #28]
 5111              		.loc 1 1820 11 is_stmt 1 view .LVU1808
 5112              		.loc 1 1820 14 is_stmt 0 view .LVU1809
 5113 0290 1CD9     		bls	.L432
 5114              		.loc 1 1826 13 is_stmt 1 view .LVU1810
 5115              		.loc 1 1826 34 is_stmt 0 view .LVU1811
 5116 0292 4FF4002E 		mov	lr, #524288
 5117 0296 CE60     		str	r6, [r1, #12]
 5118 0298 D5E6     		b	.L357
 5119              	.L431:
 5120              		.loc 1 1845 42 discriminator 1 view .LVU1812
 5121 029a 8F8A     		ldrh	r7, [r1, #20]
 5122              		.loc 1 1845 25 discriminator 1 view .LVU1813
 5123 029c BC42     		cmp	r4, r7
 5124 029e 7FF675AF 		bls	.L363
 5125              		.loc 1 1847 11 is_stmt 1 view .LVU1814
 5126              		.loc 1 1891 31 is_stmt 0 view .LVU1815
 5127 02a2 8C7D     		ldrb	r4, [r1, #22]	@ zero_extendqisi2
 5128              		.loc 1 1847 24 view .LVU1816
 5129 02a4 CF61     		str	r7, [r1, #28]
 5130              	.LVL389:
ARM GAS  C:\Users\DEVELO~1\AppData\Local\Temp\ccmErl8R.s 			page 91


 5131              		.loc 1 1889 3 is_stmt 1 view .LVU1817
 5132              		.loc 1 1890 85 is_stmt 0 view .LVU1818
 5133 02a6 47F40027 		orr	r7, r7, #524288
 5134              		.loc 1 1891 54 view .LVU1819
 5135 02aa 6407     		lsls	r4, r4, #29
 5136              		.loc 1 1891 61 view .LVU1820
 5137 02ac 04F0C044 		and	r4, r4, #1610612736
 5138              		.loc 1 1890 85 view .LVU1821
 5139 02b0 3C43     		orrs	r4, r4, r7
 5140              		.loc 1 1889 27 view .LVU1822
 5141 02b2 1C61     		str	r4, [r3, #16]
 5142              		.loc 1 1893 3 is_stmt 1 view .LVU1823
 5143 02b4 D1E6     		b	.L364
 5144              	.LVL390:
 5145              	.L359:
 5146              		.loc 1 1831 11 view .LVU1824
 5147              		.loc 1 1833 54 is_stmt 0 view .LVU1825
 5148 02b6 CF68     		ldr	r7, [r1, #12]
 5149              		.loc 1 1839 34 view .LVU1826
 5150 02b8 4FF4002E 		mov	lr, #524288
 5151              		.loc 1 1831 24 view .LVU1827
 5152 02bc CC61     		str	r4, [r1, #28]
 5153              		.loc 1 1833 11 is_stmt 1 view .LVU1828
 5154              		.loc 1 1833 54 is_stmt 0 view .LVU1829
 5155 02be 013F     		subs	r7, r7, #1
 5156              		.loc 1 1833 14 view .LVU1830
 5157 02c0 012F     		cmp	r7, #1
 5158              		.loc 1 1835 13 is_stmt 1 view .LVU1831
 5159              		.loc 1 1835 34 is_stmt 0 view .LVU1832
 5160 02c2 8CBF     		ite	hi
 5161 02c4 0427     		movhi	r7, #4
 5162              		.loc 1 1839 13 is_stmt 1 view .LVU1833
 5163              		.loc 1 1839 34 is_stmt 0 view .LVU1834
 5164 02c6 0327     		movls	r7, #3
 5165 02c8 CF60     		str	r7, [r1, #12]
 5166 02ca BCE6     		b	.L357
 5167              	.L432:
 5168              		.loc 1 1822 13 is_stmt 1 view .LVU1835
 5169              		.loc 1 1822 34 is_stmt 0 view .LVU1836
 5170 02cc 0227     		movs	r7, #2
 5171 02ce 4FF4002E 		mov	lr, #524288
 5172 02d2 CF60     		str	r7, [r1, #12]
 5173 02d4 B7E6     		b	.L357
 5174              	.LVL391:
 5175              	.L373:
 5176              		.loc 1 1926 5 is_stmt 1 view .LVU1837
 5177              		.loc 1 1926 8 is_stmt 0 view .LVU1838
 5178 02d6 012C     		cmp	r4, #1
 5179 02d8 7FF4D7AE 		bne	.L393
 5180 02dc 7BE7     		b	.L376
 5181              	.L434:
 5182 02de 00BF     		.align	2
 5183              	.L433:
 5184 02e0 00000880 		.word	-2146959360
 5185              		.cfi_endproc
 5186              	.LFE183:
 5187              		.size	USB_HC_StartXfer, .-USB_HC_StartXfer
ARM GAS  C:\Users\DEVELO~1\AppData\Local\Temp\ccmErl8R.s 			page 92


 5188              		.section	.text.USB_HC_ReadInterrupt,"ax",%progbits
 5189              		.align	1
 5190              		.p2align 2,,3
 5191              		.global	USB_HC_ReadInterrupt
 5192              		.syntax unified
 5193              		.thumb
 5194              		.thumb_func
 5195              		.type	USB_HC_ReadInterrupt, %function
 5196              	USB_HC_ReadInterrupt:
 5197              	.LVL392:
 5198              	.LFB184:
 5199              		.loc 1 2030 1 is_stmt 1 view -0
 5200              		.cfi_startproc
 5201              		@ args = 0, pretend = 0, frame = 0
 5202              		@ frame_needed = 0, uses_anonymous_args = 0
 5203              		@ link register save eliminated.
 5204              		.loc 1 2031 3 view .LVU1840
 5205              		.loc 1 2033 3 view .LVU1841
 5206              		.loc 1 2033 21 is_stmt 0 view .LVU1842
 5207 0000 D0F81404 		ldr	r0, [r0, #1044]
 5208              	.LVL393:
 5209              		.loc 1 2034 1 view .LVU1843
 5210 0004 80B2     		uxth	r0, r0
 5211 0006 7047     		bx	lr
 5212              		.cfi_endproc
 5213              	.LFE184:
 5214              		.size	USB_HC_ReadInterrupt, .-USB_HC_ReadInterrupt
 5215              		.section	.text.USB_HC_Halt,"ax",%progbits
 5216              		.align	1
 5217              		.p2align 2,,3
 5218              		.global	USB_HC_Halt
 5219              		.syntax unified
 5220              		.thumb
 5221              		.thumb_func
 5222              		.type	USB_HC_Halt, %function
 5223              	USB_HC_Halt:
 5224              	.LVL394:
 5225              	.LFB185:
 5226              		.loc 1 2044 1 is_stmt 1 view -0
 5227              		.cfi_startproc
 5228              		@ args = 0, pretend = 0, frame = 8
 5229              		@ frame_needed = 0, uses_anonymous_args = 0
 5230              		@ link register save eliminated.
 5231              		.loc 1 2045 3 view .LVU1845
 5232              		.loc 1 2048 24 is_stmt 0 view .LVU1846
 5233 0000 00EB4111 		add	r1, r0, r1, lsl #5
 5234              	.LVL395:
 5235              		.loc 1 2047 17 view .LVU1847
 5236 0004 0023     		movs	r3, #0
 5237              	.LVL396:
 5238              		.loc 1 2046 3 is_stmt 1 view .LVU1848
 5239              		.loc 1 2047 3 view .LVU1849
 5240              		.loc 1 2044 1 is_stmt 0 view .LVU1850
 5241 0006 30B4     		push	{r4, r5}
 5242              		.cfi_def_cfa_offset 8
 5243              		.cfi_offset 4, -8
 5244              		.cfi_offset 5, -4
ARM GAS  C:\Users\DEVELO~1\AppData\Local\Temp\ccmErl8R.s 			page 93


 5245              		.loc 1 2048 24 view .LVU1851
 5246 0008 01F5A06C 		add	ip, r1, #1280
 5247              		.loc 1 2044 1 view .LVU1852
 5248 000c 82B0     		sub	sp, sp, #8
 5249              		.cfi_def_cfa_offset 16
 5250              		.loc 1 2047 17 view .LVU1853
 5251 000e 0193     		str	r3, [sp, #4]
 5252              		.loc 1 2048 3 is_stmt 1 view .LVU1854
 5253              		.loc 1 2048 38 is_stmt 0 view .LVU1855
 5254 0010 D1F80035 		ldr	r3, [r1, #1280]
 5255              		.loc 1 2049 40 view .LVU1856
 5256 0014 D1F80055 		ldr	r5, [r1, #1280]
 5257              		.loc 1 2050 38 view .LVU1857
 5258 0018 DCF80440 		ldr	r4, [ip, #4]
 5259              		.loc 1 2048 71 view .LVU1858
 5260 001c 9B0C     		lsrs	r3, r3, #18
 5261              	.LVL397:
 5262              		.loc 1 2049 3 is_stmt 1 view .LVU1859
 5263              		.loc 1 2050 3 view .LVU1860
 5264              		.loc 1 2056 3 view .LVU1861
 5265              		.loc 1 2056 14 is_stmt 0 view .LVU1862
 5266 001e 8268     		ldr	r2, [r0, #8]
 5267              		.loc 1 2056 75 view .LVU1863
 5268 0020 9206     		lsls	r2, r2, #26
 5269 0022 01D5     		bpl	.L449
 5270 0024 002C     		cmp	r4, #0
 5271 0026 28DA     		bge	.L437
 5272              	.L449:
 5273              		.loc 1 2063 3 is_stmt 1 view .LVU1864
 5274              		.loc 1 2063 6 is_stmt 0 view .LVU1865
 5275 0028 DC07     		lsls	r4, r3, #31
 5276              	.LVL398:
 5277              		.loc 1 2063 6 view .LVU1866
 5278 002a 2AD5     		bpl	.L439
 5279              		.loc 1 2095 5 is_stmt 1 view .LVU1867
 5280              		.loc 1 2095 28 is_stmt 0 view .LVU1868
 5281 002c D1F80035 		ldr	r3, [r1, #1280]
 5282              	.LVL399:
 5283              		.loc 1 2095 28 view .LVU1869
 5284 0030 43F08043 		orr	r3, r3, #1073741824
 5285 0034 C1F80035 		str	r3, [r1, #1280]
 5286              		.loc 1 2097 5 is_stmt 1 view .LVU1870
 5287              		.loc 1 2097 19 is_stmt 0 view .LVU1871
 5288 0038 D0F81034 		ldr	r3, [r0, #1040]
 5289              		.loc 1 2097 8 view .LVU1872
 5290 003c 13F47F0F 		tst	r3, #16711680
 5291              		.loc 1 2099 30 view .LVU1873
 5292 0040 D1F80035 		ldr	r3, [r1, #1280]
 5293              		.loc 1 2097 8 view .LVU1874
 5294 0044 43D1     		bne	.L447
 5295              		.loc 1 2099 7 is_stmt 1 view .LVU1875
 5296              		.loc 1 2099 30 is_stmt 0 view .LVU1876
 5297 0046 23F00043 		bic	r3, r3, #-2147483648
 5298 004a C1F80035 		str	r3, [r1, #1280]
 5299              		.loc 1 2100 7 is_stmt 1 view .LVU1877
 5300              		.loc 1 2100 30 is_stmt 0 view .LVU1878
 5301 004e D1F80035 		ldr	r3, [r1, #1280]
ARM GAS  C:\Users\DEVELO~1\AppData\Local\Temp\ccmErl8R.s 			page 94


 5302 0052 43F00043 		orr	r3, r3, #-2147483648
 5303 0056 C1F80035 		str	r3, [r1, #1280]
 5304 005a 03E0     		b	.L448
 5305              	.L460:
 5306              		.loc 1 2109 31 view .LVU1879
 5307 005c DCF80030 		ldr	r3, [ip]
 5308              		.loc 1 2109 64 view .LVU1880
 5309 0060 002B     		cmp	r3, #0
 5310 0062 06DA     		bge	.L442
 5311              	.L448:
 5312              		.loc 1 2101 7 is_stmt 1 view .LVU1881
 5313              		.loc 1 2103 9 view .LVU1882
 5314              		.loc 1 2109 64 view .LVU1883
 5315              		.loc 1 2103 14 is_stmt 0 view .LVU1884
 5316 0064 019B     		ldr	r3, [sp, #4]
 5317 0066 0133     		adds	r3, r3, #1
 5318 0068 0193     		str	r3, [sp, #4]
 5319              		.loc 1 2105 9 is_stmt 1 view .LVU1885
 5320              		.loc 1 2105 19 is_stmt 0 view .LVU1886
 5321 006a 019B     		ldr	r3, [sp, #4]
 5322              		.loc 1 2105 12 view .LVU1887
 5323 006c B3F57A7F 		cmp	r3, #1000
 5324 0070 F4D9     		bls	.L460
 5325              	.L442:
 5326              		.loc 1 2118 1 view .LVU1888
 5327 0072 0020     		movs	r0, #0
 5328              	.LVL400:
 5329              		.loc 1 2118 1 view .LVU1889
 5330 0074 02B0     		add	sp, sp, #8
 5331              		.cfi_remember_state
 5332              		.cfi_def_cfa_offset 8
 5333              		@ sp needed
 5334 0076 30BC     		pop	{r4, r5}
 5335              		.cfi_restore 5
 5336              		.cfi_restore 4
 5337              		.cfi_def_cfa_offset 0
 5338              	.LVL401:
 5339              		.loc 1 2118 1 view .LVU1890
 5340 0078 7047     		bx	lr
 5341              	.LVL402:
 5342              	.L437:
 5343              		.cfi_restore_state
 5344              		.loc 1 2056 96 discriminator 2 view .LVU1891
 5345 007a 002D     		cmp	r5, #0
 5346 007c F9DA     		bge	.L442
 5347              		.loc 1 2057 27 view .LVU1892
 5348 007e DA07     		lsls	r2, r3, #31
 5349 0080 F7D4     		bmi	.L442
 5350              	.LVL403:
 5351              	.L439:
 5352              		.loc 1 2065 5 is_stmt 1 view .LVU1893
 5353              		.loc 1 2065 28 is_stmt 0 view .LVU1894
 5354 0082 D1F80035 		ldr	r3, [r1, #1280]
 5355              	.LVL404:
 5356              		.loc 1 2065 28 view .LVU1895
 5357 0086 43F08043 		orr	r3, r3, #1073741824
 5358 008a C1F80035 		str	r3, [r1, #1280]
ARM GAS  C:\Users\DEVELO~1\AppData\Local\Temp\ccmErl8R.s 			page 95


 5359              		.loc 1 2067 5 is_stmt 1 view .LVU1896
 5360              		.loc 1 2067 14 is_stmt 0 view .LVU1897
 5361 008e 8368     		ldr	r3, [r0, #8]
 5362              		.loc 1 2067 8 view .LVU1898
 5363 0090 9B06     		lsls	r3, r3, #26
 5364 0092 24D4     		bmi	.L444
 5365              		.loc 1 2069 7 is_stmt 1 view .LVU1899
 5366              		.loc 1 2069 16 is_stmt 0 view .LVU1900
 5367 0094 C36A     		ldr	r3, [r0, #44]
 5368              		.loc 1 2069 10 view .LVU1901
 5369 0096 13F47F0F 		tst	r3, #16711680
 5370              		.loc 1 2071 32 view .LVU1902
 5371 009a D1F80035 		ldr	r3, [r1, #1280]
 5372              		.loc 1 2069 10 view .LVU1903
 5373 009e 16D1     		bne	.L447
 5374              		.loc 1 2071 9 is_stmt 1 view .LVU1904
 5375              		.loc 1 2071 32 is_stmt 0 view .LVU1905
 5376 00a0 23F00043 		bic	r3, r3, #-2147483648
 5377 00a4 C1F80035 		str	r3, [r1, #1280]
 5378              		.loc 1 2072 9 is_stmt 1 view .LVU1906
 5379              		.loc 1 2072 32 is_stmt 0 view .LVU1907
 5380 00a8 D1F80035 		ldr	r3, [r1, #1280]
 5381 00ac 43F00043 		orr	r3, r3, #-2147483648
 5382 00b0 C1F80035 		str	r3, [r1, #1280]
 5383 00b4 03E0     		b	.L446
 5384              	.L461:
 5385              		.loc 1 2081 33 view .LVU1908
 5386 00b6 DCF80030 		ldr	r3, [ip]
 5387              		.loc 1 2081 66 view .LVU1909
 5388 00ba 002B     		cmp	r3, #0
 5389 00bc D9DA     		bge	.L442
 5390              	.L446:
 5391              		.loc 1 2073 9 is_stmt 1 view .LVU1910
 5392              		.loc 1 2075 11 view .LVU1911
 5393              		.loc 1 2081 66 view .LVU1912
 5394              		.loc 1 2075 16 is_stmt 0 view .LVU1913
 5395 00be 019B     		ldr	r3, [sp, #4]
 5396 00c0 0133     		adds	r3, r3, #1
 5397 00c2 0193     		str	r3, [sp, #4]
 5398              		.loc 1 2077 11 is_stmt 1 view .LVU1914
 5399              		.loc 1 2077 21 is_stmt 0 view .LVU1915
 5400 00c4 019B     		ldr	r3, [sp, #4]
 5401              		.loc 1 2077 14 view .LVU1916
 5402 00c6 B3F57A7F 		cmp	r3, #1000
 5403 00ca F4D9     		bls	.L461
 5404 00cc D1E7     		b	.L442
 5405              	.L447:
 5406              		.loc 1 2113 7 is_stmt 1 view .LVU1917
 5407              		.loc 1 2113 30 is_stmt 0 view .LVU1918
 5408 00ce 43F00043 		orr	r3, r3, #-2147483648
 5409              		.loc 1 2118 1 view .LVU1919
 5410 00d2 0020     		movs	r0, #0
 5411              	.LVL405:
 5412              		.loc 1 2113 30 view .LVU1920
 5413 00d4 C1F80035 		str	r3, [r1, #1280]
 5414              		.loc 1 2118 1 view .LVU1921
 5415 00d8 02B0     		add	sp, sp, #8
ARM GAS  C:\Users\DEVELO~1\AppData\Local\Temp\ccmErl8R.s 			page 96


 5416              		.cfi_remember_state
 5417              		.cfi_def_cfa_offset 8
 5418              		@ sp needed
 5419 00da 30BC     		pop	{r4, r5}
 5420              		.cfi_restore 5
 5421              		.cfi_restore 4
 5422              		.cfi_def_cfa_offset 0
 5423              	.LVL406:
 5424              		.loc 1 2118 1 view .LVU1922
 5425 00dc 7047     		bx	lr
 5426              	.LVL407:
 5427              	.L444:
 5428              		.cfi_restore_state
 5429              		.loc 1 2090 7 is_stmt 1 view .LVU1923
 5430              		.loc 1 2090 30 is_stmt 0 view .LVU1924
 5431 00de D1F80035 		ldr	r3, [r1, #1280]
 5432              		.loc 1 2118 1 view .LVU1925
 5433 00e2 0020     		movs	r0, #0
 5434              	.LVL408:
 5435              		.loc 1 2090 30 view .LVU1926
 5436 00e4 43F00043 		orr	r3, r3, #-2147483648
 5437 00e8 C1F80035 		str	r3, [r1, #1280]
 5438              		.loc 1 2118 1 view .LVU1927
 5439 00ec 02B0     		add	sp, sp, #8
 5440              		.cfi_def_cfa_offset 8
 5441              		@ sp needed
 5442 00ee 30BC     		pop	{r4, r5}
 5443              		.cfi_restore 5
 5444              		.cfi_restore 4
 5445              		.cfi_def_cfa_offset 0
 5446              	.LVL409:
 5447              		.loc 1 2118 1 view .LVU1928
 5448 00f0 7047     		bx	lr
 5449              		.cfi_endproc
 5450              	.LFE185:
 5451              		.size	USB_HC_Halt, .-USB_HC_Halt
 5452              		.section	.text.USB_DoPing,"ax",%progbits
 5453              		.align	1
 5454              		.p2align 2,,3
 5455              		.global	USB_DoPing
 5456              		.syntax unified
 5457              		.thumb
 5458              		.thumb_func
 5459              		.type	USB_DoPing, %function
 5460              	USB_DoPing:
 5461              	.LVL410:
 5462              	.LFB186:
 5463              		.loc 1 2128 1 is_stmt 1 view -0
 5464              		.cfi_startproc
 5465              		@ args = 0, pretend = 0, frame = 0
 5466              		@ frame_needed = 0, uses_anonymous_args = 0
 5467              		@ link register save eliminated.
 5468              		.loc 1 2129 3 view .LVU1930
 5469              		.loc 1 2128 1 is_stmt 0 view .LVU1931
 5470 0000 0346     		mov	r3, r0
 5471              	.LVL411:
 5472              		.loc 1 2130 3 is_stmt 1 view .LVU1932
ARM GAS  C:\Users\DEVELO~1\AppData\Local\Temp\ccmErl8R.s 			page 97


 5473              		.loc 1 2131 3 view .LVU1933
 5474              		.loc 1 2132 3 view .LVU1934
 5475              		.loc 1 2134 3 view .LVU1935
 5476              		.loc 1 2134 26 is_stmt 0 view .LVU1936
 5477 0002 074A     		ldr	r2, .L463
 5478              		.loc 1 2144 1 view .LVU1937
 5479 0004 0020     		movs	r0, #0
 5480              	.LVL412:
 5481              		.loc 1 2134 3 view .LVU1938
 5482 0006 03EB4111 		add	r1, r3, r1, lsl #5
 5483              	.LVL413:
 5484              		.loc 1 2134 26 view .LVU1939
 5485 000a C1F81025 		str	r2, [r1, #1296]
 5486              		.loc 1 2138 3 is_stmt 1 view .LVU1940
 5487              		.loc 1 2138 10 is_stmt 0 view .LVU1941
 5488 000e D1F80035 		ldr	r3, [r1, #1280]
 5489              	.LVL414:
 5490              		.loc 1 2139 3 is_stmt 1 view .LVU1942
 5491              		.loc 1 2139 10 is_stmt 0 view .LVU1943
 5492 0012 23F08043 		bic	r3, r3, #1073741824
 5493              	.LVL415:
 5494              		.loc 1 2140 3 is_stmt 1 view .LVU1944
 5495              		.loc 1 2140 10 is_stmt 0 view .LVU1945
 5496 0016 43F00043 		orr	r3, r3, #-2147483648
 5497              	.LVL416:
 5498              		.loc 1 2141 3 is_stmt 1 view .LVU1946
 5499              		.loc 1 2141 26 is_stmt 0 view .LVU1947
 5500 001a C1F80035 		str	r3, [r1, #1280]
 5501              		.loc 1 2143 3 is_stmt 1 view .LVU1948
 5502              		.loc 1 2144 1 is_stmt 0 view .LVU1949
 5503 001e 7047     		bx	lr
 5504              	.L464:
 5505              		.align	2
 5506              	.L463:
 5507 0020 00000880 		.word	-2146959360
 5508              		.cfi_endproc
 5509              	.LFE186:
 5510              		.size	USB_DoPing, .-USB_DoPing
 5511              		.section	.text.USB_StopHost,"ax",%progbits
 5512              		.align	1
 5513              		.p2align 2,,3
 5514              		.global	USB_StopHost
 5515              		.syntax unified
 5516              		.thumb
 5517              		.thumb_func
 5518              		.type	USB_StopHost, %function
 5519              	USB_StopHost:
 5520              	.LVL417:
 5521              	.LFB187:
 5522              		.loc 1 2152 1 is_stmt 1 view -0
 5523              		.cfi_startproc
 5524              		@ args = 0, pretend = 0, frame = 8
 5525              		@ frame_needed = 0, uses_anonymous_args = 0
 5526              		.loc 1 2153 3 view .LVU1951
 5527              		.loc 1 2154 3 view .LVU1952
 5528              		.loc 1 2152 1 is_stmt 0 view .LVU1953
 5529 0000 30B5     		push	{r4, r5, lr}
ARM GAS  C:\Users\DEVELO~1\AppData\Local\Temp\ccmErl8R.s 			page 98


 5530              		.cfi_def_cfa_offset 12
 5531              		.cfi_offset 4, -12
 5532              		.cfi_offset 5, -8
 5533              		.cfi_offset 14, -4
 5534              		.loc 1 2155 17 view .LVU1954
 5535 0002 0023     		movs	r3, #0
 5536              		.loc 1 2152 1 view .LVU1955
 5537 0004 83B0     		sub	sp, sp, #12
 5538              		.cfi_def_cfa_offset 24
 5539              		.loc 1 2152 1 view .LVU1956
 5540 0006 0446     		mov	r4, r0
 5541              	.LVL418:
 5542              		.loc 1 2155 3 is_stmt 1 view .LVU1957
 5543              		.loc 1 2162 7 is_stmt 0 view .LVU1958
 5544 0008 1021     		movs	r1, #16
 5545              		.loc 1 2155 17 view .LVU1959
 5546 000a 0193     		str	r3, [sp, #4]
 5547              		.loc 1 2156 3 is_stmt 1 view .LVU1960
 5548              		.loc 1 2157 3 view .LVU1961
 5549              		.loc 1 2159 3 view .LVU1962
 5550              	.LVL419:
 5551              	.LBB52:
 5552              	.LBI52:
 5553              		.loc 1 238 19 view .LVU1963
 5554              	.LBB53:
 5555              		.loc 1 240 3 view .LVU1964
 5556              		.loc 1 240 17 is_stmt 0 view .LVU1965
 5557 000c 8368     		ldr	r3, [r0, #8]
 5558 000e 23F00103 		bic	r3, r3, #1
 5559 0012 8360     		str	r3, [r0, #8]
 5560              		.loc 1 241 3 is_stmt 1 view .LVU1966
 5561              	.LVL420:
 5562              		.loc 1 241 3 is_stmt 0 view .LVU1967
 5563              	.LBE53:
 5564              	.LBE52:
 5565              		.loc 1 2162 3 is_stmt 1 view .LVU1968
 5566              		.loc 1 2162 7 is_stmt 0 view .LVU1969
 5567 0014 FFF7FEFF 		bl	USB_FlushTxFifo
 5568              	.LVL421:
 5569              		.loc 1 2162 7 view .LVU1970
 5570 0018 0546     		mov	r5, r0
 5571              		.loc 1 2167 7 view .LVU1971
 5572 001a 2046     		mov	r0, r4
 5573              	.LVL422:
 5574              		.loc 1 2167 3 is_stmt 1 view .LVU1972
 5575 001c 04F5E061 		add	r1, r4, #1792
 5576              		.loc 1 2167 7 is_stmt 0 view .LVU1973
 5577 0020 FFF7FEFF 		bl	USB_FlushRxFifo
 5578              	.LVL423:
 5579              		.loc 1 2167 6 view .LVU1974
 5580 0024 2843     		orrs	r0, r0, r5
 5581 0026 04F5A062 		add	r2, r4, #1280
 5582 002a C0B2     		uxtb	r0, r0
 5583              		.loc 1 2169 9 view .LVU1975
 5584 002c 9446     		mov	ip, r2
 5585 002e 0038     		subs	r0, r0, #0
 5586 0030 18BF     		it	ne
ARM GAS  C:\Users\DEVELO~1\AppData\Local\Temp\ccmErl8R.s 			page 99


 5587 0032 0120     		movne	r0, #1
 5588              	.LVL424:
 5589              		.loc 1 2173 3 is_stmt 1 view .LVU1976
 5590              		.loc 1 2173 18 view .LVU1977
 5591              	.L466:
 5592              		.loc 1 2175 5 discriminator 3 view .LVU1978
 5593              		.loc 1 2175 11 is_stmt 0 discriminator 3 view .LVU1979
 5594 0034 DCF80030 		ldr	r3, [ip]
 5595              	.LVL425:
 5596              		.loc 1 2176 5 is_stmt 1 discriminator 3 view .LVU1980
 5597              		.loc 1 2177 5 discriminator 3 view .LVU1981
 5598              		.loc 1 2178 5 discriminator 3 view .LVU1982
 5599 0038 23F08023 		bic	r3, r3, #-2147450880
 5600              	.LVL426:
 5601              		.loc 1 2178 11 is_stmt 0 discriminator 3 view .LVU1983
 5602 003c 43F08043 		orr	r3, r3, #1073741824
 5603              	.LVL427:
 5604              		.loc 1 2179 5 is_stmt 1 discriminator 3 view .LVU1984
 5605              		.loc 1 2179 24 is_stmt 0 discriminator 3 view .LVU1985
 5606 0040 4CF8203B 		str	r3, [ip], #32
 5607              		.loc 1 2173 27 is_stmt 1 discriminator 3 view .LVU1986
 5608              		.loc 1 2173 18 discriminator 3 view .LVU1987
 5609 0044 8C45     		cmp	ip, r1
 5610 0046 F5D1     		bne	.L466
 5611              	.LVL428:
 5612              	.L469:
 5613              		.loc 1 2185 5 view .LVU1988
 5614              		.loc 1 2185 11 is_stmt 0 view .LVU1989
 5615 0048 1368     		ldr	r3, [r2]
 5616              	.LVL429:
