ARM GAS  C:\Users\DEVELO~1\AppData\Local\Temp\ccTzf7ir.s 			page 1


   1              		.cpu cortex-m7
   2              		.arch armv7e-m
   3              		.fpu fpv5-d16
   4              		.eabi_attribute 28, 1
   5              		.eabi_attribute 20, 1
   6              		.eabi_attribute 21, 1
   7              		.eabi_attribute 23, 3
   8              		.eabi_attribute 24, 1
   9              		.eabi_attribute 25, 1
  10              		.eabi_attribute 26, 1
  11              		.eabi_attribute 30, 2
  12              		.eabi_attribute 34, 1
  13              		.eabi_attribute 18, 4
  14              		.file	"stm32h7xx_hal_pwr_ex.c"
  15              		.text
  16              	.Ltext0:
  17              		.cfi_sections	.debug_frame
  18              		.section	.text.HAL_PWREx_ConfigSupply,"ax",%progbits
  19              		.align	1
  20              		.p2align 2,,3
  21              		.global	HAL_PWREx_ConfigSupply
  22              		.syntax unified
  23              		.thumb
  24              		.thumb_func
  25              		.type	HAL_PWREx_ConfigSupply, %function
  26              	HAL_PWREx_ConfigSupply:
  27              	.LVL0:
  28              	.LFB141:
  29              		.file 1 "./drivers/stm32h7xx-hal-driver/Src/stm32h7xx_hal_pwr_ex.c"
  30              		.loc 1 318 1 view -0
  31              		.cfi_startproc
  32              		@ args = 0, pretend = 0, frame = 0
  33              		@ frame_needed = 0, uses_anonymous_args = 0
  34              		.loc 1 319 3 view .LVU1
  35              		.loc 1 322 3 view .LVU2
  36              		.loc 1 326 3 view .LVU3
  37              		.loc 1 318 1 is_stmt 0 view .LVU4
  38 0000 38B5     		push	{r3, r4, r5, lr}
  39              		.cfi_def_cfa_offset 16
  40              		.cfi_offset 3, -16
  41              		.cfi_offset 4, -12
  42              		.cfi_offset 5, -8
  43              		.cfi_offset 14, -4
  44              		.loc 1 326 7 view .LVU5
  45 0002 104C     		ldr	r4, .L9
  46 0004 E368     		ldr	r3, [r4, #12]
  47              		.loc 1 326 6 view .LVU6
  48 0006 13F0040F 		tst	r3, #4
  49              		.loc 1 332 13 view .LVU7
  50 000a E368     		ldr	r3, [r4, #12]
  51              		.loc 1 326 6 view .LVU8
  52 000c 05D1     		bne	.L2
  53              		.loc 1 332 5 is_stmt 1 view .LVU9
  54              		.loc 1 332 19 is_stmt 0 view .LVU10
  55 000e 03F00703 		and	r3, r3, #7
  56              		.loc 1 335 14 view .LVU11
  57 0012 181A     		subs	r0, r3, r0
ARM GAS  C:\Users\DEVELO~1\AppData\Local\Temp\ccTzf7ir.s 			page 2


  58              	.LVL1:
  59              		.loc 1 335 14 view .LVU12
  60 0014 18BF     		it	ne
  61 0016 0120     		movne	r0, #1
  62              		.loc 1 383 1 view .LVU13
  63 0018 38BD     		pop	{r3, r4, r5, pc}
  64              	.LVL2:
  65              	.L2:
  66              		.loc 1 347 3 is_stmt 1 view .LVU14
  67 001a 23F00703 		bic	r3, r3, #7
  68 001e 0343     		orrs	r3, r3, r0
  69 0020 E360     		str	r3, [r4, #12]
  70              		.loc 1 350 3 view .LVU15
  71              		.loc 1 350 15 is_stmt 0 view .LVU16
  72 0022 FFF7FEFF 		bl	HAL_GetTick
  73              	.LVL3:
  74              		.loc 1 350 15 view .LVU17
  75 0026 0546     		mov	r5, r0
  76              	.LVL4:
  77              		.loc 1 353 3 is_stmt 1 view .LVU18
  78              		.loc 1 353 9 is_stmt 0 view .LVU19
  79 0028 05E0     		b	.L4
  80              	.LVL5:
  81              	.L5:
  82              		.loc 1 355 10 view .LVU20
  83 002a FFF7FEFF 		bl	HAL_GetTick
  84              	.LVL6:
  85              		.loc 1 355 25 view .LVU21
  86 002e 401B     		subs	r0, r0, r5
  87              		.loc 1 355 8 view .LVU22
  88 0030 B0F57A7F 		cmp	r0, #1000
  89 0034 04D8     		bhi	.L6
  90              	.L4:
  91              		.loc 1 355 5 is_stmt 1 view .LVU23
  92              		.loc 1 353 50 view .LVU24
  93              		.loc 1 353 10 is_stmt 0 view .LVU25
  94 0036 6368     		ldr	r3, [r4, #4]
  95              		.loc 1 353 50 view .LVU26
  96 0038 9B04     		lsls	r3, r3, #18
  97 003a F6D5     		bpl	.L5
  98              		.loc 1 382 10 view .LVU27
  99 003c 0020     		movs	r0, #0
 100              		.loc 1 383 1 view .LVU28
 101 003e 38BD     		pop	{r3, r4, r5, pc}
 102              	.LVL7:
 103              	.L6:
 104              		.loc 1 357 14 view .LVU29
 105 0040 0120     		movs	r0, #1
 106              		.loc 1 383 1 view .LVU30
 107 0042 38BD     		pop	{r3, r4, r5, pc}
 108              	.LVL8:
 109              	.L10:
 110              		.loc 1 383 1 view .LVU31
 111              		.align	2
 112              	.L9:
 113 0044 00480258 		.word	1476544512
 114              		.cfi_endproc
ARM GAS  C:\Users\DEVELO~1\AppData\Local\Temp\ccTzf7ir.s 			page 3


 115              	.LFE141:
 116              		.size	HAL_PWREx_ConfigSupply, .-HAL_PWREx_ConfigSupply
 117              		.section	.text.HAL_PWREx_GetSupplyConfig,"ax",%progbits
 118              		.align	1
 119              		.p2align 2,,3
 120              		.global	HAL_PWREx_GetSupplyConfig
 121              		.syntax unified
 122              		.thumb
 123              		.thumb_func
 124              		.type	HAL_PWREx_GetSupplyConfig, %function
 125              	HAL_PWREx_GetSupplyConfig:
 126              	.LFB142:
 127              		.loc 1 390 1 is_stmt 1 view -0
 128              		.cfi_startproc
 129              		@ args = 0, pretend = 0, frame = 0
 130              		@ frame_needed = 0, uses_anonymous_args = 0
 131              		@ link register save eliminated.
 132              		.loc 1 391 3 view .LVU33
 133              		.loc 1 391 14 is_stmt 0 view .LVU34
 134 0000 024B     		ldr	r3, .L12
 135 0002 D868     		ldr	r0, [r3, #12]
 136              		.loc 1 392 1 view .LVU35
 137 0004 00F00700 		and	r0, r0, #7
 138 0008 7047     		bx	lr
 139              	.L13:
 140 000a 00BF     		.align	2
 141              	.L12:
 142 000c 00480258 		.word	1476544512
 143              		.cfi_endproc
 144              	.LFE142:
 145              		.size	HAL_PWREx_GetSupplyConfig, .-HAL_PWREx_GetSupplyConfig
 146              		.section	.text.HAL_PWREx_ControlVoltageScaling,"ax",%progbits
 147              		.align	1
 148              		.p2align 2,,3
 149              		.global	HAL_PWREx_ControlVoltageScaling
 150              		.syntax unified
 151              		.thumb
 152              		.thumb_func
 153              		.type	HAL_PWREx_ControlVoltageScaling, %function
 154              	HAL_PWREx_ControlVoltageScaling:
 155              	.LVL9:
 156              	.LFB143:
 157              		.loc 1 418 1 is_stmt 1 view -0
 158              		.cfi_startproc
 159              		@ args = 0, pretend = 0, frame = 0
 160              		@ frame_needed = 0, uses_anonymous_args = 0
 161              		.loc 1 419 3 view .LVU37
 162              		.loc 1 422 3 view .LVU38
 163              		.loc 1 425 3 view .LVU39
 164              		.loc 1 418 1 is_stmt 0 view .LVU40
 165 0000 70B5     		push	{r4, r5, r6, lr}
 166              		.cfi_def_cfa_offset 16
 167              		.cfi_offset 4, -16
 168              		.cfi_offset 5, -12
 169              		.cfi_offset 6, -8
 170              		.cfi_offset 14, -4
 171              		.loc 1 425 11 view .LVU41
ARM GAS  C:\Users\DEVELO~1\AppData\Local\Temp\ccTzf7ir.s 			page 4


 172 0002 2B4C     		ldr	r4, .L35
 173 0004 6368     		ldr	r3, [r4, #4]
 174              		.loc 1 425 18 view .LVU42
 175 0006 03F44043 		and	r3, r3, #49152
 176              		.loc 1 425 6 view .LVU43
 177 000a 8342     		cmp	r3, r0
 178 000c 1BD0     		beq	.L29
 179              		.loc 1 436 3 is_stmt 1 view .LVU44
 180 000e 0546     		mov	r5, r0
 181              		.loc 1 436 6 is_stmt 0 view .LVU45
 182 0010 D8B1     		cbz	r0, .L34
 183              		.loc 1 466 5 is_stmt 1 view .LVU46
 184              		.loc 1 466 13 is_stmt 0 view .LVU47
 185 0012 6368     		ldr	r3, [r4, #4]
 186              		.loc 1 466 20 view .LVU48
 187 0014 03F44043 		and	r3, r3, #49152
 188              		.loc 1 466 8 view .LVU49
 189 0018 B3F5404F 		cmp	r3, #49152
 190 001c 31D0     		beq	.L23
 191              	.LVL10:
 192              	.L24:
 193              		.loc 1 488 5 is_stmt 1 view .LVU50
 194 001e 244A     		ldr	r2, .L35
 195 0020 9369     		ldr	r3, [r2, #24]
 196 0022 23F44043 		bic	r3, r3, #49152
 197 0026 2B43     		orrs	r3, r3, r5
 198 0028 9361     		str	r3, [r2, #24]
 199              	.LVL11:
 200              	.L22:
 201              		.loc 1 497 3 view .LVU51
 202              		.loc 1 497 15 is_stmt 0 view .LVU52
 203 002a FFF7FEFF 		bl	HAL_GetTick
 204              	.LVL12:
 205              		.loc 1 500 10 view .LVU53
 206 002e 204D     		ldr	r5, .L35
 207              		.loc 1 497 15 view .LVU54
 208 0030 0446     		mov	r4, r0
 209              	.LVL13:
 210              		.loc 1 500 3 is_stmt 1 view .LVU55
 211              		.loc 1 500 9 is_stmt 0 view .LVU56
 212 0032 05E0     		b	.L27
 213              	.LVL14:
 214              	.L28:
 215              		.loc 1 502 10 view .LVU57
 216 0034 FFF7FEFF 		bl	HAL_GetTick
 217              	.LVL15:
 218              		.loc 1 502 24 view .LVU58
 219 0038 001B     		subs	r0, r0, r4
 220              		.loc 1 502 8 view .LVU59
 221 003a B0F57A7F 		cmp	r0, #1000
 222 003e 07D8     		bhi	.L20
 223              	.L27:
 224              		.loc 1 502 5 is_stmt 1 view .LVU60
 225              		.loc 1 500 50 view .LVU61
 226              		.loc 1 500 10 is_stmt 0 view .LVU62
 227 0040 6B68     		ldr	r3, [r5, #4]
 228              		.loc 1 500 50 view .LVU63
ARM GAS  C:\Users\DEVELO~1\AppData\Local\Temp\ccTzf7ir.s 			page 5


 229 0042 9B04     		lsls	r3, r3, #18
 230 0044 F6D5     		bpl	.L28
 231              	.LVL16:
 232              	.L29:
 233              		.loc 1 428 12 view .LVU64
 234 0046 0020     		movs	r0, #0
 235              		.loc 1 509 1 view .LVU65
 236 0048 70BD     		pop	{r4, r5, r6, pc}
 237              	.LVL17:
 238              	.L34:
 239              		.loc 1 438 5 is_stmt 1 view .LVU66
 240              		.loc 1 438 13 is_stmt 0 view .LVU67
 241 004a E368     		ldr	r3, [r4, #12]
 242              		.loc 1 438 8 view .LVU68
 243 004c 9D07     		lsls	r5, r3, #30
 244 004e 01D4     		bmi	.L18
 245              	.LVL18:
 246              	.L20:
 247              		.loc 1 461 14 view .LVU69
 248 0050 0120     		movs	r0, #1
 249              		.loc 1 509 1 view .LVU70
 250 0052 70BD     		pop	{r4, r5, r6, pc}
 251              	.LVL19:
 252              	.L18:
 253              		.loc 1 441 7 is_stmt 1 view .LVU71
 254 0054 A369     		ldr	r3, [r4, #24]
 255 0056 43F44043 		orr	r3, r3, #49152
 256 005a A361     		str	r3, [r4, #24]
 257              		.loc 1 444 7 view .LVU72
 258              		.loc 1 444 19 is_stmt 0 view .LVU73
 259 005c FFF7FEFF 		bl	HAL_GetTick
 260              	.LVL20:
 261              		.loc 1 444 19 view .LVU74
 262 0060 0546     		mov	r5, r0
 263              	.LVL21:
 264              		.loc 1 447 7 is_stmt 1 view .LVU75
 265              		.loc 1 447 13 is_stmt 0 view .LVU76
 266 0062 05E0     		b	.L19
 267              	.LVL22:
 268              	.L21:
 269              		.loc 1 449 14 view .LVU77
 270 0064 FFF7FEFF 		bl	HAL_GetTick
 271              	.LVL23:
 272              		.loc 1 449 29 view .LVU78
 273 0068 401B     		subs	r0, r0, r5
 274              		.loc 1 449 12 view .LVU79
 275 006a B0F57A7F 		cmp	r0, #1000
 276 006e EFD8     		bhi	.L20
 277              	.L19:
 278              		.loc 1 449 9 is_stmt 1 view .LVU80
 279              		.loc 1 447 54 view .LVU81
 280              		.loc 1 447 14 is_stmt 0 view .LVU82
 281 0070 6368     		ldr	r3, [r4, #4]
 282              		.loc 1 447 54 view .LVU83
 283 0072 9804     		lsls	r0, r3, #18
 284 0074 F6D5     		bpl	.L21
 285              		.loc 1 456 7 is_stmt 1 view .LVU84
ARM GAS  C:\Users\DEVELO~1\AppData\Local\Temp\ccTzf7ir.s 			page 6


 286 0076 0F4A     		ldr	r2, .L35+4
 287 0078 D36A     		ldr	r3, [r2, #44]
 288 007a 43F00103 		orr	r3, r3, #1
 289 007e D362     		str	r3, [r2, #44]
 290 0080 D3E7     		b	.L22
 291              	.LVL24:
 292              	.L23:
 293              		.loc 1 468 7 view .LVU85
 294              		.loc 1 468 18 is_stmt 0 view .LVU86
 295 0082 0C4B     		ldr	r3, .L35+4
 296 0084 DA6A     		ldr	r2, [r3, #44]
 297              		.loc 1 468 10 view .LVU87
 298 0086 D107     		lsls	r1, r2, #31
 299 0088 C9D5     		bpl	.L24
 300              		.loc 1 471 9 is_stmt 1 view .LVU88
 301 008a DA6A     		ldr	r2, [r3, #44]
 302 008c 22F00102 		bic	r2, r2, #1
 303 0090 DA62     		str	r2, [r3, #44]
 304              		.loc 1 474 9 view .LVU89
 305              		.loc 1 474 21 is_stmt 0 view .LVU90
 306 0092 FFF7FEFF 		bl	HAL_GetTick
 307              	.LVL25:
 308              		.loc 1 474 21 view .LVU91
 309 0096 0646     		mov	r6, r0
 310              	.LVL26:
 311              		.loc 1 477 9 is_stmt 1 view .LVU92
 312              		.loc 1 477 15 is_stmt 0 view .LVU93
 313 0098 05E0     		b	.L25
 314              	.LVL27:
 315              	.L26:
 316              		.loc 1 479 16 view .LVU94
 317 009a FFF7FEFF 		bl	HAL_GetTick
 318              	.LVL28:
 319              		.loc 1 479 31 view .LVU95
 320 009e 801B     		subs	r0, r0, r6
 321              		.loc 1 479 14 view .LVU96
 322 00a0 B0F57A7F 		cmp	r0, #1000
 323 00a4 D4D8     		bhi	.L20
 324              	.L25:
 325              		.loc 1 479 11 is_stmt 1 view .LVU97
 326              		.loc 1 477 56 view .LVU98
 327              		.loc 1 477 16 is_stmt 0 view .LVU99
 328 00a6 6368     		ldr	r3, [r4, #4]
 329              		.loc 1 477 56 view .LVU100
 330 00a8 9A04     		lsls	r2, r3, #18
 331 00aa F6D5     		bpl	.L26
 332 00ac B7E7     		b	.L24
 333              	.L36:
 334 00ae 00BF     		.align	2
 335              	.L35:
 336 00b0 00480258 		.word	1476544512
 337 00b4 00040058 		.word	1476396032
 338              		.cfi_endproc
 339              	.LFE143:
 340              		.size	HAL_PWREx_ControlVoltageScaling, .-HAL_PWREx_ControlVoltageScaling
 341              		.section	.text.HAL_PWREx_GetVoltageRange,"ax",%progbits
 342              		.align	1
ARM GAS  C:\Users\DEVELO~1\AppData\Local\Temp\ccTzf7ir.s 			page 7


 343              		.p2align 2,,3
 344              		.global	HAL_PWREx_GetVoltageRange
 345              		.syntax unified
 346              		.thumb
 347              		.thumb_func
 348              		.type	HAL_PWREx_GetVoltageRange, %function
 349              	HAL_PWREx_GetVoltageRange:
 350              	.LFB144:
 351              		.loc 1 517 1 is_stmt 1 view -0
 352              		.cfi_startproc
 353              		@ args = 0, pretend = 0, frame = 0
 354              		@ frame_needed = 0, uses_anonymous_args = 0
 355              		@ link register save eliminated.
 356              		.loc 1 519 3 view .LVU102
 357              		.loc 1 519 14 is_stmt 0 view .LVU103
 358 0000 024B     		ldr	r3, .L38
 359 0002 5868     		ldr	r0, [r3, #4]
 360              		.loc 1 520 1 view .LVU104
 361 0004 00F44040 		and	r0, r0, #49152
 362 0008 7047     		bx	lr
 363              	.L39:
 364 000a 00BF     		.align	2
 365              	.L38:
 366 000c 00480258 		.word	1476544512
 367              		.cfi_endproc
 368              	.LFE144:
 369              		.size	HAL_PWREx_GetVoltageRange, .-HAL_PWREx_GetVoltageRange
 370              		.section	.text.HAL_PWREx_ControlStopModeVoltageScaling,"ax",%progbits
 371              		.align	1
 372              		.p2align 2,,3
 373              		.global	HAL_PWREx_ControlStopModeVoltageScaling
 374              		.syntax unified
 375              		.thumb
 376              		.thumb_func
 377              		.type	HAL_PWREx_ControlStopModeVoltageScaling, %function
 378              	HAL_PWREx_ControlStopModeVoltageScaling:
 379              	.LVL29:
 380              	.LFB145:
 381              		.loc 1 543 1 is_stmt 1 view -0
 382              		.cfi_startproc
 383              		@ args = 0, pretend = 0, frame = 0
 384              		@ frame_needed = 0, uses_anonymous_args = 0
 385              		@ link register save eliminated.
 386              		.loc 1 545 3 view .LVU106
 387              		.loc 1 548 3 view .LVU107
 388 0000 044A     		ldr	r2, .L41
 389              		.loc 1 543 1 is_stmt 0 view .LVU108
 390 0002 0146     		mov	r1, r0
 391              		.loc 1 551 1 view .LVU109
 392 0004 0020     		movs	r0, #0
 393              	.LVL30:
 394              		.loc 1 548 3 view .LVU110
 395 0006 1368     		ldr	r3, [r2]
 396 0008 23F44043 		bic	r3, r3, #49152
 397 000c 0B43     		orrs	r3, r3, r1
 398 000e 1360     		str	r3, [r2]
 399              		.loc 1 550 3 is_stmt 1 view .LVU111
ARM GAS  C:\Users\DEVELO~1\AppData\Local\Temp\ccTzf7ir.s 			page 8


 400              		.loc 1 551 1 is_stmt 0 view .LVU112
 401 0010 7047     		bx	lr
 402              	.L42:
 403 0012 00BF     		.align	2
 404              	.L41:
 405 0014 00480258 		.word	1476544512
 406              		.cfi_endproc
 407              	.LFE145:
 408              		.size	HAL_PWREx_ControlStopModeVoltageScaling, .-HAL_PWREx_ControlStopModeVoltageScaling
 409              		.section	.text.HAL_PWREx_GetStopModeVoltageRange,"ax",%progbits
 410              		.align	1
 411              		.p2align 2,,3
 412              		.global	HAL_PWREx_GetStopModeVoltageRange
 413              		.syntax unified
 414              		.thumb
 415              		.thumb_func
 416              		.type	HAL_PWREx_GetStopModeVoltageRange, %function
 417              	HAL_PWREx_GetStopModeVoltageRange:
 418              	.LFB146:
 419              		.loc 1 558 1 is_stmt 1 view -0
 420              		.cfi_startproc
 421              		@ args = 0, pretend = 0, frame = 0
 422              		@ frame_needed = 0, uses_anonymous_args = 0
 423              		@ link register save eliminated.
 424              		.loc 1 560 3 view .LVU114
 425              		.loc 1 560 14 is_stmt 0 view .LVU115
 426 0000 024B     		ldr	r3, .L44
 427 0002 1868     		ldr	r0, [r3]
 428              		.loc 1 561 1 view .LVU116
 429 0004 00F44040 		and	r0, r0, #49152
 430 0008 7047     		bx	lr
 431              	.L45:
 432 000a 00BF     		.align	2
 433              	.L44:
 434 000c 00480258 		.word	1476544512
 435              		.cfi_endproc
 436              	.LFE146:
 437              		.size	HAL_PWREx_GetStopModeVoltageRange, .-HAL_PWREx_GetStopModeVoltageRange
 438              		.section	.text.HAL_PWREx_EnterSTOPMode,"ax",%progbits
 439              		.align	1
 440              		.p2align 2,,3
 441              		.global	HAL_PWREx_EnterSTOPMode
 442              		.syntax unified
 443              		.thumb
 444              		.thumb_func
 445              		.type	HAL_PWREx_EnterSTOPMode, %function
 446              	HAL_PWREx_EnterSTOPMode:
 447              	.LVL31:
 448              	.LFB147:
 449              		.loc 1 821 1 is_stmt 1 view -0
 450              		.cfi_startproc
 451              		@ args = 0, pretend = 0, frame = 0
 452              		@ frame_needed = 0, uses_anonymous_args = 0
 453              		@ link register save eliminated.
 454              		.loc 1 823 3 view .LVU118
 455              		.loc 1 824 3 view .LVU119
 456              		.loc 1 825 3 view .LVU120
ARM GAS  C:\Users\DEVELO~1\AppData\Local\Temp\ccTzf7ir.s 			page 9


 457              		.loc 1 828 3 view .LVU121
 458              		.loc 1 821 1 is_stmt 0 view .LVU122
 459 0000 10B4     		push	{r4}
 460              		.cfi_def_cfa_offset 4
 461              		.cfi_offset 4, -4
 462              		.loc 1 828 3 view .LVU123
 463 0002 154C     		ldr	r4, .L54
 464 0004 2368     		ldr	r3, [r4]
 465 0006 23F00103 		bic	r3, r3, #1
 466 000a 0343     		orrs	r3, r3, r0
 467 000c 2360     		str	r3, [r4]
 468              		.loc 1 831 3 is_stmt 1 view .LVU124
 469              		.loc 1 846 5 is_stmt 0 view .LVU125
 470 000e 2369     		ldr	r3, [r4, #16]
 471              		.loc 1 831 6 view .LVU126
 472 0010 B2B9     		cbnz	r2, .L47
 473              		.loc 1 846 5 is_stmt 1 view .LVU127
 474              		.loc 1 849 5 is_stmt 0 view .LVU128
 475 0012 124A     		ldr	r2, .L54+4
 476              	.LVL32:
 477              		.loc 1 846 5 view .LVU129
 478 0014 23F00103 		bic	r3, r3, #1
 479 0018 2361     		str	r3, [r4, #16]
 480              		.loc 1 849 5 is_stmt 1 view .LVU130
 481 001a 1369     		ldr	r3, [r2, #16]
 482 001c 43F00403 		orr	r3, r3, #4
 483 0020 1361     		str	r3, [r2, #16]
 484              		.loc 1 852 5 view .LVU131
 485              	.LBB14:
 486              	.LBI14:
 487              		.file 2 "./docs/ChibiOS/os/common/ext/ARM/CMSIS/Core/Include/cmsis_gcc.h"
 488              		.loc 2 877 27 view .LVU132
 489              	.LBB15:
 490              		.loc 2 879 3 view .LVU133
 491              		.syntax unified
 492              	@ 879 "./docs/ChibiOS/os/common/ext/ARM/CMSIS/Core/Include/cmsis_gcc.h" 1
 493 0022 BFF34F8F 		dsb 0xF
 494              	@ 0 "" 2
 495              		.thumb
 496              		.syntax unified
 497              	.LBE15:
 498              	.LBE14:
 499              		.loc 1 853 5 view .LVU134
 500              	.LBB16:
 501              	.LBI16:
 502              		.loc 2 866 27 view .LVU135
 503              	.LBB17:
 504              		.loc 2 868 3 view .LVU136
 505              		.syntax unified
 506              	@ 868 "./docs/ChibiOS/os/common/ext/ARM/CMSIS/Core/Include/cmsis_gcc.h" 1
 507 0026 BFF36F8F 		isb 0xF
 508              	@ 0 "" 2
 509              		.thumb
 510              		.syntax unified
 511              	.LBE17:
 512              	.LBE16:
 513              		.loc 1 856 5 view .LVU137
ARM GAS  C:\Users\DEVELO~1\AppData\Local\Temp\ccTzf7ir.s 			page 10


 514              		.loc 1 856 8 is_stmt 0 view .LVU138
 515 002a 0129     		cmp	r1, #1
 516 002c 12D0     		beq	.L53
 517              		.loc 1 864 7 is_stmt 1 view .LVU139
 518              		.syntax unified
 519              	@ 864 "./drivers/stm32h7xx-hal-driver/Src/stm32h7xx_hal_pwr_ex.c" 1
 520 002e 20BF     		wfe
 521              	@ 0 "" 2
 522              		.thumb
 523              		.syntax unified
 524              	.L49:
 525              		.loc 1 868 5 view .LVU140
 526 0030 0A4A     		ldr	r2, .L54+4
 527              		.loc 1 933 1 is_stmt 0 view .LVU141
 528 0032 5DF8044B 		ldr	r4, [sp], #4
 529              		.cfi_remember_state
 530              		.cfi_restore 4
 531              		.cfi_def_cfa_offset 0
 532              		.loc 1 868 5 view .LVU142
 533 0036 1369     		ldr	r3, [r2, #16]
 534 0038 23F00403 		bic	r3, r3, #4
 535 003c 1361     		str	r3, [r2, #16]
 536              		.loc 1 933 1 view .LVU143
 537 003e 7047     		bx	lr
 538              	.LVL33:
 539              	.L47:
 540              		.cfi_restore_state
 541              		.loc 1 871 8 is_stmt 1 view .LVU144
 542              		.loc 1 871 11 is_stmt 0 view .LVU145
 543 0040 012A     		cmp	r2, #1
 544              		.loc 1 910 5 is_stmt 1 view .LVU146
 545 0042 0CBF     		ite	eq
 546 0044 23F00203 		biceq	r3, r3, #2
 547              		.loc 1 930 5 view .LVU147
 548 0048 23F00403 		bicne	r3, r3, #4
 549 004c 2361     		str	r3, [r4, #16]
 550              		.loc 1 933 1 is_stmt 0 view .LVU148
 551 004e 5DF8044B 		ldr	r4, [sp], #4
 552              		.cfi_remember_state
 553              		.cfi_restore 4
 554              		.cfi_def_cfa_offset 0
 555 0052 7047     		bx	lr
 556              	.LVL34:
 557              	.L53:
 558              		.cfi_restore_state
 559              		.loc 1 859 7 is_stmt 1 view .LVU149
 560              		.syntax unified
 561              	@ 859 "./drivers/stm32h7xx-hal-driver/Src/stm32h7xx_hal_pwr_ex.c" 1
 562 0054 30BF     		wfi
 563              	@ 0 "" 2
 564              		.thumb
 565              		.syntax unified
 566 0056 EBE7     		b	.L49
 567              	.L55:
 568              		.align	2
 569              	.L54:
 570 0058 00480258 		.word	1476544512
ARM GAS  C:\Users\DEVELO~1\AppData\Local\Temp\ccTzf7ir.s 			page 11


 571 005c 00ED00E0 		.word	-536810240
 572              		.cfi_endproc
 573              	.LFE147:
 574              		.size	HAL_PWREx_EnterSTOPMode, .-HAL_PWREx_EnterSTOPMode
 575              		.section	.text.HAL_PWREx_ClearPendingEvent,"ax",%progbits
 576              		.align	1
 577              		.p2align 2,,3
 578              		.global	HAL_PWREx_ClearPendingEvent
 579              		.syntax unified
 580              		.thumb
 581              		.thumb_func
 582              		.type	HAL_PWREx_ClearPendingEvent, %function
 583              	HAL_PWREx_ClearPendingEvent:
 584              	.LFB148:
 585              		.loc 1 944 1 view -0
 586              		.cfi_startproc
 587              		@ args = 0, pretend = 0, frame = 0
 588              		@ frame_needed = 0, uses_anonymous_args = 0
 589              		@ link register save eliminated.
 590              		.loc 1 957 3 view .LVU151
 591              		.syntax unified
 592              	@ 957 "./drivers/stm32h7xx-hal-driver/Src/stm32h7xx_hal_pwr_ex.c" 1
 593 0000 20BF     		wfe
 594              	@ 0 "" 2
 595              		.loc 1 959 1 is_stmt 0 view .LVU152
 596              		.thumb
 597              		.syntax unified
 598 0002 7047     		bx	lr
 599              		.cfi_endproc
 600              	.LFE148:
 601              		.size	HAL_PWREx_ClearPendingEvent, .-HAL_PWREx_ClearPendingEvent
 602              		.section	.text.HAL_PWREx_EnterSTANDBYMode,"ax",%progbits
 603              		.align	1
 604              		.p2align 2,,3
 605              		.global	HAL_PWREx_EnterSTANDBYMode
 606              		.syntax unified
 607              		.thumb
 608              		.thumb_func
 609              		.type	HAL_PWREx_EnterSTANDBYMode, %function
 610              	HAL_PWREx_EnterSTANDBYMode:
 611              	.LVL35:
 612              	.LFB149:
 613              		.loc 1 991 1 is_stmt 1 view -0
 614              		.cfi_startproc
 615              		@ args = 0, pretend = 0, frame = 0
 616              		@ frame_needed = 0, uses_anonymous_args = 0
 617              		@ link register save eliminated.
 618              		.loc 1 993 3 view .LVU154
 619              		.loc 1 996 3 view .LVU155
 620              		.loc 1 996 6 is_stmt 0 view .LVU156
 621 0000 58B9     		cbnz	r0, .L58
 622              		.loc 1 1011 5 is_stmt 1 view .LVU157
 623 0002 0B49     		ldr	r1, .L61
 624              		.loc 1 1019 5 is_stmt 0 view .LVU158
 625 0004 0B4A     		ldr	r2, .L61+4
 626              		.loc 1 1011 5 view .LVU159
 627 0006 0B69     		ldr	r3, [r1, #16]
ARM GAS  C:\Users\DEVELO~1\AppData\Local\Temp\ccTzf7ir.s 			page 12


 628 0008 43F00103 		orr	r3, r3, #1
 629 000c 0B61     		str	r3, [r1, #16]
 630              		.loc 1 1019 5 is_stmt 1 view .LVU160
 631 000e 1369     		ldr	r3, [r2, #16]
 632 0010 43F00403 		orr	r3, r3, #4
 633 0014 1361     		str	r3, [r2, #16]
 634              		.loc 1 1027 5 view .LVU161
 635              		.syntax unified
 636              	@ 1027 "./drivers/stm32h7xx-hal-driver/Src/stm32h7xx_hal_pwr_ex.c" 1
 637 0016 30BF     		wfi
 638              	@ 0 "" 2
 639              		.thumb
 640              		.syntax unified
 641 0018 7047     		bx	lr
 642              	.L58:
 643              		.loc 1 1030 8 view .LVU162
 644              		.loc 1 1033 5 is_stmt 0 view .LVU163
 645 001a 054A     		ldr	r2, .L61
 646              		.loc 1 1030 11 view .LVU164
 647 001c 0128     		cmp	r0, #1
 648              		.loc 1 1033 5 is_stmt 1 view .LVU165
 649 001e 1369     		ldr	r3, [r2, #16]
 650 0020 0CBF     		ite	eq
 651 0022 43F00203 		orreq	r3, r3, #2
 652              		.loc 1 1065 5 view .LVU166
 653 0026 43F00403 		orrne	r3, r3, #4
 654 002a 1361     		str	r3, [r2, #16]
 655              		.loc 1 1072 1 is_stmt 0 view .LVU167
 656 002c 7047     		bx	lr
 657              	.L62:
 658 002e 00BF     		.align	2
 659              	.L61:
 660 0030 00480258 		.word	1476544512
 661 0034 00ED00E0 		.word	-536810240
 662              		.cfi_endproc
 663              	.LFE149:
 664              		.size	HAL_PWREx_EnterSTANDBYMode, .-HAL_PWREx_EnterSTANDBYMode
 665              		.section	.text.HAL_PWREx_ConfigD3Domain,"ax",%progbits
 666              		.align	1
 667              		.p2align 2,,3
 668              		.global	HAL_PWREx_ConfigD3Domain
 669              		.syntax unified
 670              		.thumb
 671              		.thumb_func
 672              		.type	HAL_PWREx_ConfigD3Domain, %function
 673              	HAL_PWREx_ConfigD3Domain:
 674              	.LVL36:
 675              	.LFB150:
 676              		.loc 1 1086 1 is_stmt 1 view -0
 677              		.cfi_startproc
 678              		@ args = 0, pretend = 0, frame = 0
 679              		@ frame_needed = 0, uses_anonymous_args = 0
 680              		@ link register save eliminated.
 681              		.loc 1 1088 3 view .LVU169
 682              		.loc 1 1091 3 view .LVU170
 683 0000 034A     		ldr	r2, .L64
 684 0002 1369     		ldr	r3, [r2, #16]
ARM GAS  C:\Users\DEVELO~1\AppData\Local\Temp\ccTzf7ir.s 			page 13


 685 0004 23F40063 		bic	r3, r3, #2048
 686 0008 1843     		orrs	r0, r0, r3
 687              	.LVL37:
 688              		.loc 1 1091 3 is_stmt 0 view .LVU171
 689 000a 1061     		str	r0, [r2, #16]
 690              		.loc 1 1092 1 view .LVU172
 691 000c 7047     		bx	lr
 692              	.L65:
 693 000e 00BF     		.align	2
 694              	.L64:
 695 0010 00480258 		.word	1476544512
 696              		.cfi_endproc
 697              	.LFE150:
 698              		.size	HAL_PWREx_ConfigD3Domain, .-HAL_PWREx_ConfigD3Domain
 699              		.section	.text.HAL_PWREx_EnableFlashPowerDown,"ax",%progbits
 700              		.align	1
 701              		.p2align 2,,3
 702              		.global	HAL_PWREx_EnableFlashPowerDown
 703              		.syntax unified
 704              		.thumb
 705              		.thumb_func
 706              		.type	HAL_PWREx_EnableFlashPowerDown, %function
 707              	HAL_PWREx_EnableFlashPowerDown:
 708              	.LFB151:
 709              		.loc 1 1217 1 is_stmt 1 view -0
 710              		.cfi_startproc
 711              		@ args = 0, pretend = 0, frame = 0
 712              		@ frame_needed = 0, uses_anonymous_args = 0
 713              		@ link register save eliminated.
 714              		.loc 1 1219 3 view .LVU174
 715 0000 024A     		ldr	r2, .L67
 716 0002 1368     		ldr	r3, [r2]
 717 0004 43F40073 		orr	r3, r3, #512
 718 0008 1360     		str	r3, [r2]
 719              		.loc 1 1220 1 is_stmt 0 view .LVU175
 720 000a 7047     		bx	lr
 721              	.L68:
 722              		.align	2
 723              	.L67:
 724 000c 00480258 		.word	1476544512
 725              		.cfi_endproc
 726              	.LFE151:
 727              		.size	HAL_PWREx_EnableFlashPowerDown, .-HAL_PWREx_EnableFlashPowerDown
 728              		.section	.text.HAL_PWREx_DisableFlashPowerDown,"ax",%progbits
 729              		.align	1
 730              		.p2align 2,,3
 731              		.global	HAL_PWREx_DisableFlashPowerDown
 732              		.syntax unified
 733              		.thumb
 734              		.thumb_func
 735              		.type	HAL_PWREx_DisableFlashPowerDown, %function
 736              	HAL_PWREx_DisableFlashPowerDown:
 737              	.LFB152:
 738              		.loc 1 1231 1 is_stmt 1 view -0
 739              		.cfi_startproc
 740              		@ args = 0, pretend = 0, frame = 0
 741              		@ frame_needed = 0, uses_anonymous_args = 0
ARM GAS  C:\Users\DEVELO~1\AppData\Local\Temp\ccTzf7ir.s 			page 14


 742              		@ link register save eliminated.
 743              		.loc 1 1233 3 view .LVU177
 744 0000 024A     		ldr	r2, .L70
 745 0002 1368     		ldr	r3, [r2]
 746 0004 23F40073 		bic	r3, r3, #512
 747 0008 1360     		str	r3, [r2]
 748              		.loc 1 1234 1 is_stmt 0 view .LVU178
 749 000a 7047     		bx	lr
 750              	.L71:
 751              		.align	2
 752              	.L70:
 753 000c 00480258 		.word	1476544512
 754              		.cfi_endproc
 755              	.LFE152:
 756              		.size	HAL_PWREx_DisableFlashPowerDown, .-HAL_PWREx_DisableFlashPowerDown
 757              		.section	.text.HAL_PWREx_EnableWakeUpPin,"ax",%progbits
 758              		.align	1
 759              		.p2align 2,,3
 760              		.global	HAL_PWREx_EnableWakeUpPin
 761              		.syntax unified
 762              		.thumb
 763              		.thumb_func
 764              		.type	HAL_PWREx_EnableWakeUpPin, %function
 765              	HAL_PWREx_EnableWakeUpPin:
 766              	.LVL38:
 767              	.LFB153:
 768              		.loc 1 1307 1 is_stmt 1 view -0
 769              		.cfi_startproc
 770              		@ args = 0, pretend = 0, frame = 0
 771              		@ frame_needed = 0, uses_anonymous_args = 0
 772              		.loc 1 1308 3 view .LVU180
 773              		.loc 1 1309 3 view .LVU181
 774              		.loc 1 1310 3 view .LVU182
 775              		.loc 1 1313 3 view .LVU183
 776              		.loc 1 1314 3 view .LVU184
 777              		.loc 1 1315 3 view .LVU185
 778              		.loc 1 1317 3 view .LVU186
 779              		.loc 1 1317 25 is_stmt 0 view .LVU187
 780 0000 0168     		ldr	r1, [r0]
 781              	.LVL39:
 782              	.LBB18:
 783              	.LBI18:
 784              		.loc 2 981 31 is_stmt 1 view .LVU188
 785              	.LBB19:
 786              		.loc 2 983 3 view .LVU189
 787              		.loc 2 988 4 view .LVU190
 788              	.LBE19:
 789              	.LBE18:
 790              		.loc 1 1307 1 is_stmt 0 view .LVU191
 791 0002 30B5     		push	{r4, r5, lr}
 792              		.cfi_def_cfa_offset 12
 793              		.cfi_offset 4, -12
 794              		.cfi_offset 5, -8
 795              		.cfi_offset 14, -4
 796              	.LBB21:
 797              	.LBB20:
 798              		.loc 2 988 4 view .LVU192
ARM GAS  C:\Users\DEVELO~1\AppData\Local\Temp\ccTzf7ir.s 			page 15


 799              		.syntax unified
 800              	@ 988 "./docs/ChibiOS/os/common/ext/ARM/CMSIS/Core/Include/cmsis_gcc.h" 1
 801 0004 91FAA1FE 		rbit lr, r1
 802              	@ 0 "" 2
 803              	.LVL40:
 804              		.loc 2 1001 3 is_stmt 1 view .LVU193
 805              		.loc 2 1001 3 is_stmt 0 view .LVU194
 806              		.thumb
 807              		.syntax unified
 808              	.LBE20:
 809              	.LBE21:
 810              		.loc 1 1318 45 view .LVU195
 811 0008 BEFA8EFE 		clz	lr, lr
 812              	.LVL41:
 813              	.LBB22:
 814              	.LBI22:
 815              		.loc 2 981 31 is_stmt 1 view .LVU196
 816              	.LBB23:
 817              		.loc 2 983 3 view .LVU197
 818              		.loc 2 988 4 view .LVU198
 819              		.syntax unified
 820              	@ 988 "./docs/ChibiOS/os/common/ext/ARM/CMSIS/Core/Include/cmsis_gcc.h" 1
 821 000c 91FAA1F2 		rbit r2, r1
 822              	@ 0 "" 2
 823              	.LVL42:
 824              		.loc 2 1001 3 view .LVU199
 825              		.loc 2 1001 3 is_stmt 0 view .LVU200
 826              		.thumb
 827              		.syntax unified
 828              	.LBE23:
 829              	.LBE22:
 830              		.loc 1 1319 42 view .LVU201
 831 0010 B2FA82F2 		clz	r2, r2
 832              	.LVL43:
 833              		.loc 1 1321 3 is_stmt 1 view .LVU202
 834              	.LBB24:
 835              	.LBI24:
 836              		.loc 2 981 31 view .LVU203
 837              	.LBB25:
 838              		.loc 2 983 3 view .LVU204
 839              		.loc 2 988 4 view .LVU205
 840              		.syntax unified
 841              	@ 988 "./docs/ChibiOS/os/common/ext/ARM/CMSIS/Core/Include/cmsis_gcc.h" 1
 842 0014 91FAA1F3 		rbit r3, r1
 843              	@ 0 "" 2
 844              	.LVL44:
 845              		.loc 2 1001 3 view .LVU206
 846              		.loc 2 1001 3 is_stmt 0 view .LVU207
 847              		.thumb
 848              		.syntax unified
 849              	.LBE25:
 850              	.LBE24:
 851              		.loc 1 1322 39 view .LVU208
 852 0018 B3FA83F3 		clz	r3, r3
 853              	.LVL45:
 854              	.LBB26:
 855              	.LBI26:
ARM GAS  C:\Users\DEVELO~1\AppData\Local\Temp\ccTzf7ir.s 			page 16


 856              		.loc 2 981 31 is_stmt 1 view .LVU209
 857              	.LBB27:
 858              		.loc 2 983 3 view .LVU210
 859              		.loc 2 988 4 view .LVU211
 860              		.syntax unified
 861              	@ 988 "./docs/ChibiOS/os/common/ext/ARM/CMSIS/Core/Include/cmsis_gcc.h" 1
 862 001c 91FAA1FC 		rbit ip, r1
 863              	@ 0 "" 2
 864              	.LVL46:
 865              		.loc 2 1001 3 view .LVU212
 866              		.loc 2 1001 3 is_stmt 0 view .LVU213
 867              		.thumb
 868              		.syntax unified
 869              	.LBE27:
 870              	.LBE26:
 871              		.loc 1 1322 35 view .LVU214
 872 0020 4FF48074 		mov	r4, #256
 873              		.loc 1 1318 81 view .LVU215
 874 0024 0EF1080E 		add	lr, lr, #8
 875              	.LVL47:
 876              		.loc 1 1319 115 view .LVU216
 877 0028 0832     		adds	r2, r2, #8
 878              	.LVL48:
 879              		.loc 1 1323 30 view .LVU217
 880 002a BCFA8CFC 		clz	ip, ip
 881              	.LVL49:
 882              		.loc 1 1327 3 is_stmt 1 view .LVU218
 883              		.loc 1 1322 35 is_stmt 0 view .LVU219
 884 002e 9C40     		lsls	r4, r4, r3
 885              		.loc 1 1318 107 view .LVU220
 886 0030 0EF01F0E 		and	lr, lr, #31
 887              	.LVL50:
 888              		.loc 1 1318 40 view .LVU221
 889 0034 4368     		ldr	r3, [r0, #4]
 890              	.LVL51:
 891              		.loc 1 1319 115 view .LVU222
 892 0036 5200     		lsls	r2, r2, #1
 893              		.loc 1 1319 36 view .LVU223
 894 0038 8068     		ldr	r0, [r0, #8]
 895              	.LVL52:
 896              		.loc 1 1323 66 view .LVU224
 897 003a 4FEA4C0C 		lsl	ip, ip, #1
 898              		.loc 1 1319 144 view .LVU225
 899 003e 02F01E02 		and	r2, r2, #30
 900              		.loc 1 1318 40 view .LVU226
 901 0042 03FA0EF3 		lsl	r3, r3, lr
 902              		.loc 1 1323 103 view .LVU227
 903 0046 0CF01E0C 		and	ip, ip, #30
 904              		.loc 1 1321 37 view .LVU228
 905 004a 0C43     		orrs	r4, r4, r1
 906              		.loc 1 1319 36 view .LVU229
 907 004c 00FA02F2 		lsl	r2, r0, r2
 908              		.loc 1 1317 37 view .LVU230
 909 0050 0B43     		orrs	r3, r3, r1
 910              		.loc 1 1327 3 view .LVU231
 911 0052 0B4D     		ldr	r5, .L74
 912              		.loc 1 1317 13 view .LVU232
ARM GAS  C:\Users\DEVELO~1\AppData\Local\Temp\ccTzf7ir.s 			page 17


 913 0054 1343     		orrs	r3, r3, r2
 914              		.loc 1 1323 25 view .LVU233
 915 0056 4FF44032 		mov	r2, #196608
 916              		.loc 1 1327 3 view .LVU234
 917 005a A86A     		ldr	r0, [r5, #40]
 918              		.loc 1 1323 25 view .LVU235
 919 005c 02FA0CF2 		lsl	r2, r2, ip
 920              		.loc 1 1321 13 view .LVU236
 921 0060 2243     		orrs	r2, r2, r4
 922              		.loc 1 1330 3 view .LVU237
 923 0062 4FF0B044 		mov	r4, #1476395008
 924              		.loc 1 1327 3 view .LVU238
 925 0066 20EA0202 		bic	r2, r0, r2
 926 006a 1343     		orrs	r3, r3, r2
 927 006c AB62     		str	r3, [r5, #40]
 928              		.loc 1 1330 3 is_stmt 1 view .LVU239
 929 006e D4F89030 		ldr	r3, [r4, #144]
 930 0072 23F0FC53 		bic	r3, r3, #528482304
 931 0076 43EAC153 		orr	r3, r3, r1, lsl #23
 932 007a C4F89030 		str	r3, [r4, #144]
 933              		.loc 1 1332 1 is_stmt 0 view .LVU240
 934 007e 30BD     		pop	{r4, r5, pc}
 935              	.L75:
 936              		.align	2
 937              	.L74:
 938 0080 00480258 		.word	1476544512
 939              		.cfi_endproc
 940              	.LFE153:
 941              		.size	HAL_PWREx_EnableWakeUpPin, .-HAL_PWREx_EnableWakeUpPin
 942              		.section	.text.HAL_PWREx_DisableWakeUpPin,"ax",%progbits
 943              		.align	1
 944              		.p2align 2,,3
 945              		.global	HAL_PWREx_DisableWakeUpPin
 946              		.syntax unified
 947              		.thumb
 948              		.thumb_func
 949              		.type	HAL_PWREx_DisableWakeUpPin, %function
 950              	HAL_PWREx_DisableWakeUpPin:
 951              	.LVL53:
 952              	.LFB154:
 953              		.loc 1 1349 1 is_stmt 1 view -0
 954              		.cfi_startproc
 955              		@ args = 0, pretend = 0, frame = 0
 956              		@ frame_needed = 0, uses_anonymous_args = 0
 957              		@ link register save eliminated.
 958              		.loc 1 1351 3 view .LVU242
 959              		.loc 1 1354 3 view .LVU243
 960 0000 024A     		ldr	r2, .L77
 961 0002 936A     		ldr	r3, [r2, #40]
 962 0004 23EA0000 		bic	r0, r3, r0
 963              	.LVL54:
 964              		.loc 1 1354 3 is_stmt 0 view .LVU244
 965 0008 9062     		str	r0, [r2, #40]
 966              		.loc 1 1355 1 view .LVU245
 967 000a 7047     		bx	lr
 968              	.L78:
 969              		.align	2
ARM GAS  C:\Users\DEVELO~1\AppData\Local\Temp\ccTzf7ir.s 			page 18


 970              	.L77:
 971 000c 00480258 		.word	1476544512
 972              		.cfi_endproc
 973              	.LFE154:
 974              		.size	HAL_PWREx_DisableWakeUpPin, .-HAL_PWREx_DisableWakeUpPin
 975              		.section	.text.HAL_PWREx_GetWakeupFlag,"ax",%progbits
 976              		.align	1
 977              		.p2align 2,,3
 978              		.global	HAL_PWREx_GetWakeupFlag
 979              		.syntax unified
 980              		.thumb
 981              		.thumb_func
 982              		.type	HAL_PWREx_GetWakeupFlag, %function
 983              	HAL_PWREx_GetWakeupFlag:
 984              	.LVL55:
 985              	.LFB155:
 986              		.loc 1 1374 1 is_stmt 1 view -0
 987              		.cfi_startproc
 988              		@ args = 0, pretend = 0, frame = 0
 989              		@ frame_needed = 0, uses_anonymous_args = 0
 990              		@ link register save eliminated.
 991              		.loc 1 1376 3 view .LVU247
 992              		.loc 1 1379 3 view .LVU248
 993              		.loc 1 1379 14 is_stmt 0 view .LVU249
 994 0000 014B     		ldr	r3, .L80
 995 0002 5B6A     		ldr	r3, [r3, #36]
 996              		.loc 1 1380 1 view .LVU250
 997 0004 1840     		ands	r0, r0, r3
 998              	.LVL56:
 999              		.loc 1 1380 1 view .LVU251
 1000 0006 7047     		bx	lr
 1001              	.L81:
 1002              		.align	2
 1003              	.L80:
 1004 0008 00480258 		.word	1476544512
 1005              		.cfi_endproc
 1006              	.LFE155:
 1007              		.size	HAL_PWREx_GetWakeupFlag, .-HAL_PWREx_GetWakeupFlag
 1008              		.section	.text.HAL_PWREx_ClearWakeupFlag,"ax",%progbits
 1009              		.align	1
 1010              		.p2align 2,,3
 1011              		.global	HAL_PWREx_ClearWakeupFlag
 1012              		.syntax unified
 1013              		.thumb
 1014              		.thumb_func
 1015              		.type	HAL_PWREx_ClearWakeupFlag, %function
 1016              	HAL_PWREx_ClearWakeupFlag:
 1017              	.LVL57:
 1018              	.LFB156:
 1019              		.loc 1 1399 1 is_stmt 1 view -0
 1020              		.cfi_startproc
 1021              		@ args = 0, pretend = 0, frame = 0
 1022              		@ frame_needed = 0, uses_anonymous_args = 0
 1023              		@ link register save eliminated.
 1024              		.loc 1 1401 3 view .LVU253
 1025              		.loc 1 1404 3 view .LVU254
 1026 0000 044B     		ldr	r3, .L83
ARM GAS  C:\Users\DEVELO~1\AppData\Local\Temp\ccTzf7ir.s 			page 19


 1027 0002 1A6A     		ldr	r2, [r3, #32]
 1028 0004 0243     		orrs	r2, r2, r0
 1029 0006 1A62     		str	r2, [r3, #32]
 1030              		.loc 1 1407 3 view .LVU255
 1031              		.loc 1 1407 11 is_stmt 0 view .LVU256
 1032 0008 5B6A     		ldr	r3, [r3, #36]
 1033              		.loc 1 1407 6 view .LVU257
 1034 000a 0342     		tst	r3, r0
 1035              		.loc 1 1413 1 view .LVU258
 1036 000c 14BF     		ite	ne
 1037 000e 0120     		movne	r0, #1
 1038              	.LVL58:
 1039              		.loc 1 1413 1 view .LVU259
 1040 0010 0020     		moveq	r0, #0
 1041 0012 7047     		bx	lr
 1042              	.L84:
 1043              		.align	2
 1044              	.L83:
 1045 0014 00480258 		.word	1476544512
 1046              		.cfi_endproc
 1047              	.LFE156:
 1048              		.size	HAL_PWREx_ClearWakeupFlag, .-HAL_PWREx_ClearWakeupFlag
 1049              		.section	.text.HAL_PWREx_WKUP1_Callback,"ax",%progbits
 1050              		.align	1
 1051              		.p2align 2,,3
 1052              		.weak	HAL_PWREx_WKUP1_Callback
 1053              		.syntax unified
 1054              		.thumb
 1055              		.thumb_func
 1056              		.type	HAL_PWREx_WKUP1_Callback, %function
 1057              	HAL_PWREx_WKUP1_Callback:
 1058              	.LFB158:
 1059              		.loc 1 1482 1 is_stmt 1 view -0
 1060              		.cfi_startproc
 1061              		@ args = 0, pretend = 0, frame = 0
 1062              		@ frame_needed = 0, uses_anonymous_args = 0
 1063              		@ link register save eliminated.
 1064              		.loc 1 1486 1 view .LVU261
 1065 0000 7047     		bx	lr
 1066              		.cfi_endproc
 1067              	.LFE158:
 1068              		.size	HAL_PWREx_WKUP1_Callback, .-HAL_PWREx_WKUP1_Callback
 1069 0002 00BF     		.section	.text.HAL_PWREx_WKUP2_Callback,"ax",%progbits
 1070              		.align	1
 1071              		.p2align 2,,3
 1072              		.weak	HAL_PWREx_WKUP2_Callback
 1073              		.syntax unified
 1074              		.thumb
 1075              		.thumb_func
 1076              		.type	HAL_PWREx_WKUP2_Callback, %function
 1077              	HAL_PWREx_WKUP2_Callback:
 1078              	.LFB182:
 1079              		.cfi_startproc
 1080              		@ args = 0, pretend = 0, frame = 0
 1081              		@ frame_needed = 0, uses_anonymous_args = 0
 1082              		@ link register save eliminated.
 1083 0000 7047     		bx	lr
ARM GAS  C:\Users\DEVELO~1\AppData\Local\Temp\ccTzf7ir.s 			page 20


 1084              		.cfi_endproc
 1085              	.LFE182:
 1086              		.size	HAL_PWREx_WKUP2_Callback, .-HAL_PWREx_WKUP2_Callback
 1087 0002 00BF     		.section	.text.HAL_PWREx_WKUP3_Callback,"ax",%progbits
 1088              		.align	1
 1089              		.p2align 2,,3
 1090              		.weak	HAL_PWREx_WKUP3_Callback
 1091              		.syntax unified
 1092              		.thumb
 1093              		.thumb_func
 1094              		.type	HAL_PWREx_WKUP3_Callback, %function
 1095              	HAL_PWREx_WKUP3_Callback:
 1096              	.LFB184:
 1097              		.cfi_startproc
 1098              		@ args = 0, pretend = 0, frame = 0
 1099              		@ frame_needed = 0, uses_anonymous_args = 0
 1100              		@ link register save eliminated.
 1101 0000 7047     		bx	lr
 1102              		.cfi_endproc
 1103              	.LFE184:
 1104              		.size	HAL_PWREx_WKUP3_Callback, .-HAL_PWREx_WKUP3_Callback
 1105 0002 00BF     		.section	.text.HAL_PWREx_WKUP4_Callback,"ax",%progbits
 1106              		.align	1
 1107              		.p2align 2,,3
 1108              		.weak	HAL_PWREx_WKUP4_Callback
 1109              		.syntax unified
 1110              		.thumb
 1111              		.thumb_func
 1112              		.type	HAL_PWREx_WKUP4_Callback, %function
 1113              	HAL_PWREx_WKUP4_Callback:
 1114              	.LFB186:
 1115              		.cfi_startproc
 1116              		@ args = 0, pretend = 0, frame = 0
 1117              		@ frame_needed = 0, uses_anonymous_args = 0
 1118              		@ link register save eliminated.
 1119 0000 7047     		bx	lr
 1120              		.cfi_endproc
 1121              	.LFE186:
 1122              		.size	HAL_PWREx_WKUP4_Callback, .-HAL_PWREx_WKUP4_Callback
 1123 0002 00BF     		.section	.text.HAL_PWREx_WKUP5_Callback,"ax",%progbits
 1124              		.align	1
 1125              		.p2align 2,,3
 1126              		.weak	HAL_PWREx_WKUP5_Callback
 1127              		.syntax unified
 1128              		.thumb
 1129              		.thumb_func
 1130              		.type	HAL_PWREx_WKUP5_Callback, %function
 1131              	HAL_PWREx_WKUP5_Callback:
 1132              	.LFB188:
 1133              		.cfi_startproc
 1134              		@ args = 0, pretend = 0, frame = 0
 1135              		@ frame_needed = 0, uses_anonymous_args = 0
 1136              		@ link register save eliminated.
 1137 0000 7047     		bx	lr
 1138              		.cfi_endproc
 1139              	.LFE188:
 1140              		.size	HAL_PWREx_WKUP5_Callback, .-HAL_PWREx_WKUP5_Callback
ARM GAS  C:\Users\DEVELO~1\AppData\Local\Temp\ccTzf7ir.s 			page 21


 1141 0002 00BF     		.section	.text.HAL_PWREx_WKUP6_Callback,"ax",%progbits
 1142              		.align	1
 1143              		.p2align 2,,3
 1144              		.weak	HAL_PWREx_WKUP6_Callback
 1145              		.syntax unified
 1146              		.thumb
 1147              		.thumb_func
 1148              		.type	HAL_PWREx_WKUP6_Callback, %function
 1149              	HAL_PWREx_WKUP6_Callback:
 1150              	.LFB190:
 1151              		.cfi_startproc
 1152              		@ args = 0, pretend = 0, frame = 0
 1153              		@ frame_needed = 0, uses_anonymous_args = 0
 1154              		@ link register save eliminated.
 1155 0000 7047     		bx	lr
 1156              		.cfi_endproc
 1157              	.LFE190:
 1158              		.size	HAL_PWREx_WKUP6_Callback, .-HAL_PWREx_WKUP6_Callback
 1159 0002 00BF     		.section	.text.HAL_PWREx_WAKEUP_PIN_IRQHandler,"ax",%progbits
 1160              		.align	1
 1161              		.p2align 2,,3
 1162              		.global	HAL_PWREx_WAKEUP_PIN_IRQHandler
 1163              		.syntax unified
 1164              		.thumb
 1165              		.thumb_func
 1166              		.type	HAL_PWREx_WAKEUP_PIN_IRQHandler, %function
 1167              	HAL_PWREx_WAKEUP_PIN_IRQHandler:
 1168              	.LFB157:
 1169              		.loc 1 1421 1 view -0
 1170              		.cfi_startproc
 1171              		@ args = 0, pretend = 0, frame = 0
 1172              		@ frame_needed = 0, uses_anonymous_args = 0
 1173              		.loc 1 1423 3 view .LVU263
 1174              		.loc 1 1421 1 is_stmt 0 view .LVU264
 1175 0000 08B5     		push	{r3, lr}
 1176              		.cfi_def_cfa_offset 8
 1177              		.cfi_offset 3, -8
 1178              		.cfi_offset 14, -4
 1179              		.loc 1 1423 7 view .LVU265
 1180 0002 1D4B     		ldr	r3, .L103
 1181 0004 5A6A     		ldr	r2, [r3, #36]
 1182              		.loc 1 1423 6 view .LVU266
 1183 0006 D207     		lsls	r2, r2, #31
 1184 0008 1AD4     		bmi	.L99
 1185              		.loc 1 1431 8 is_stmt 1 view .LVU267
 1186              		.loc 1 1431 12 is_stmt 0 view .LVU268
 1187 000a 5A6A     		ldr	r2, [r3, #36]
 1188              		.loc 1 1431 11 view .LVU269
 1189 000c 9007     		lsls	r0, r2, #30
 1190 000e 10D4     		bmi	.L100
 1191              		.loc 1 1440 8 is_stmt 1 view .LVU270
 1192              		.loc 1 1440 12 is_stmt 0 view .LVU271
 1193 0010 5A6A     		ldr	r2, [r3, #36]
 1194              		.loc 1 1440 11 view .LVU272
 1195 0012 5107     		lsls	r1, r2, #29
 1196 0014 21D4     		bmi	.L101
 1197              		.loc 1 1449 8 is_stmt 1 view .LVU273
ARM GAS  C:\Users\DEVELO~1\AppData\Local\Temp\ccTzf7ir.s 			page 22


 1198              		.loc 1 1449 12 is_stmt 0 view .LVU274
 1199 0016 5A6A     		ldr	r2, [r3, #36]
 1200              		.loc 1 1449 11 view .LVU275
 1201 0018 1207     		lsls	r2, r2, #28
 1202 001a 25D4     		bmi	.L102
 1203              		.loc 1 1458 8 is_stmt 1 view .LVU276
 1204              		.loc 1 1458 12 is_stmt 0 view .LVU277
 1205 001c 5A6A     		ldr	r2, [r3, #36]
 1206              		.loc 1 1458 11 view .LVU278
 1207 001e 12F0100F 		tst	r2, #16
 1208              		.loc 1 1461 5 view .LVU279
 1209 0022 1A6A     		ldr	r2, [r3, #32]
 1210              		.loc 1 1458 11 view .LVU280
 1211 0024 13D0     		beq	.L97
 1212              		.loc 1 1461 5 is_stmt 1 view .LVU281
 1213 0026 42F01002 		orr	r2, r2, #16
 1214 002a 1A62     		str	r2, [r3, #32]
 1215              		.loc 1 1464 5 view .LVU282
 1216 002c FFF7FEFF 		bl	HAL_PWREx_WKUP5_Callback
 1217              	.LVL59:
 1218              		.loc 1 1475 1 is_stmt 0 view .LVU283
 1219 0030 08BD     		pop	{r3, pc}
 1220              	.L100:
 1221              		.loc 1 1434 5 is_stmt 1 view .LVU284
 1222 0032 1A6A     		ldr	r2, [r3, #32]
 1223 0034 42F00202 		orr	r2, r2, #2
 1224 0038 1A62     		str	r2, [r3, #32]
 1225              		.loc 1 1437 5 view .LVU285
 1226 003a FFF7FEFF 		bl	HAL_PWREx_WKUP2_Callback
 1227              	.LVL60:
 1228              		.loc 1 1475 1 is_stmt 0 view .LVU286
 1229 003e 08BD     		pop	{r3, pc}
 1230              	.L99:
 1231              		.loc 1 1426 5 is_stmt 1 view .LVU287
 1232 0040 1A6A     		ldr	r2, [r3, #32]
 1233 0042 42F00102 		orr	r2, r2, #1
 1234 0046 1A62     		str	r2, [r3, #32]
 1235              		.loc 1 1429 5 view .LVU288
 1236 0048 FFF7FEFF 		bl	HAL_PWREx_WKUP1_Callback
 1237              	.LVL61:
 1238              		.loc 1 1475 1 is_stmt 0 view .LVU289
 1239 004c 08BD     		pop	{r3, pc}
 1240              	.L97:
 1241              		.loc 1 1470 5 is_stmt 1 view .LVU290
 1242 004e 42F02002 		orr	r2, r2, #32
 1243 0052 1A62     		str	r2, [r3, #32]
 1244              		.loc 1 1473 5 view .LVU291
 1245 0054 FFF7FEFF 		bl	HAL_PWREx_WKUP6_Callback
 1246              	.LVL62:
 1247              		.loc 1 1475 1 is_stmt 0 view .LVU292
 1248 0058 08BD     		pop	{r3, pc}
 1249              	.L101:
 1250              		.loc 1 1443 5 is_stmt 1 view .LVU293
 1251 005a 1A6A     		ldr	r2, [r3, #32]
 1252 005c 42F00402 		orr	r2, r2, #4
 1253 0060 1A62     		str	r2, [r3, #32]
 1254              		.loc 1 1446 5 view .LVU294
ARM GAS  C:\Users\DEVELO~1\AppData\Local\Temp\ccTzf7ir.s 			page 23


 1255 0062 FFF7FEFF 		bl	HAL_PWREx_WKUP3_Callback
 1256              	.LVL63:
 1257              		.loc 1 1475 1 is_stmt 0 view .LVU295
 1258 0066 08BD     		pop	{r3, pc}
 1259              	.L102:
 1260              		.loc 1 1452 5 is_stmt 1 view .LVU296
 1261 0068 1A6A     		ldr	r2, [r3, #32]
 1262 006a 42F00802 		orr	r2, r2, #8
 1263 006e 1A62     		str	r2, [r3, #32]
 1264              		.loc 1 1455 5 view .LVU297
 1265 0070 FFF7FEFF 		bl	HAL_PWREx_WKUP4_Callback
 1266              	.LVL64:
 1267              		.loc 1 1475 1 is_stmt 0 view .LVU298
 1268 0074 08BD     		pop	{r3, pc}
 1269              	.L104:
 1270 0076 00BF     		.align	2
 1271              	.L103:
 1272 0078 00480258 		.word	1476544512
 1273              		.cfi_endproc
 1274              	.LFE157:
 1275              		.size	HAL_PWREx_WAKEUP_PIN_IRQHandler, .-HAL_PWREx_WAKEUP_PIN_IRQHandler
 1276              		.section	.text.HAL_PWREx_EnableBkUpReg,"ax",%progbits
 1277              		.align	1
 1278              		.p2align 2,,3
 1279              		.global	HAL_PWREx_EnableBkUpReg
 1280              		.syntax unified
 1281              		.thumb
 1282              		.thumb_func
 1283              		.type	HAL_PWREx_EnableBkUpReg, %function
 1284              	HAL_PWREx_EnableBkUpReg:
 1285              	.LFB164:
 1286              		.loc 1 1630 1 is_stmt 1 view -0
 1287              		.cfi_startproc
 1288              		@ args = 0, pretend = 0, frame = 0
 1289              		@ frame_needed = 0, uses_anonymous_args = 0
 1290              		.loc 1 1631 3 view .LVU300
 1291              		.loc 1 1634 3 view .LVU301
 1292              		.loc 1 1630 1 is_stmt 0 view .LVU302
 1293 0000 38B5     		push	{r3, r4, r5, lr}
 1294              		.cfi_def_cfa_offset 16
 1295              		.cfi_offset 3, -16
 1296              		.cfi_offset 4, -12
 1297              		.cfi_offset 5, -8
 1298              		.cfi_offset 14, -4
 1299              		.loc 1 1634 3 view .LVU303
 1300 0002 0B4C     		ldr	r4, .L111
 1301 0004 A368     		ldr	r3, [r4, #8]
 1302 0006 43F00103 		orr	r3, r3, #1
 1303 000a A360     		str	r3, [r4, #8]
 1304              		.loc 1 1637 3 is_stmt 1 view .LVU304
 1305              		.loc 1 1637 15 is_stmt 0 view .LVU305
 1306 000c FFF7FEFF 		bl	HAL_GetTick
 1307              	.LVL65:
 1308 0010 0546     		mov	r5, r0
 1309              	.LVL66:
 1310              		.loc 1 1640 3 is_stmt 1 view .LVU306
 1311              		.loc 1 1640 9 is_stmt 0 view .LVU307
ARM GAS  C:\Users\DEVELO~1\AppData\Local\Temp\ccTzf7ir.s 			page 24


 1312 0012 05E0     		b	.L106
 1313              	.LVL67:
 1314              	.L108:
 1315              		.loc 1 1642 10 view .LVU308
 1316 0014 FFF7FEFF 		bl	HAL_GetTick
 1317              	.LVL68:
 1318              		.loc 1 1642 24 view .LVU309
 1319 0018 401B     		subs	r0, r0, r5
 1320              		.loc 1 1642 8 view .LVU310
 1321 001a B0F57A7F 		cmp	r0, #1000
 1322 001e 04D8     		bhi	.L109
 1323              	.L106:
 1324              		.loc 1 1642 5 is_stmt 1 view .LVU311
 1325              		.loc 1 1640 44 view .LVU312
 1326              		.loc 1 1640 10 is_stmt 0 view .LVU313
 1327 0020 A368     		ldr	r3, [r4, #8]
 1328              		.loc 1 1640 44 view .LVU314
 1329 0022 DB03     		lsls	r3, r3, #15
 1330 0024 F6D5     		bpl	.L108
 1331              		.loc 1 1648 10 view .LVU315
 1332 0026 0020     		movs	r0, #0
 1333              		.loc 1 1649 1 view .LVU316
 1334 0028 38BD     		pop	{r3, r4, r5, pc}
 1335              	.LVL69:
 1336              	.L109:
 1337              		.loc 1 1644 14 view .LVU317
 1338 002a 0120     		movs	r0, #1
 1339              		.loc 1 1649 1 view .LVU318
 1340 002c 38BD     		pop	{r3, r4, r5, pc}
 1341              	.LVL70:
 1342              	.L112:
 1343              		.loc 1 1649 1 view .LVU319
 1344 002e 00BF     		.align	2
 1345              	.L111:
 1346 0030 00480258 		.word	1476544512
 1347              		.cfi_endproc
 1348              	.LFE164:
 1349              		.size	HAL_PWREx_EnableBkUpReg, .-HAL_PWREx_EnableBkUpReg
 1350              		.section	.text.HAL_PWREx_DisableBkUpReg,"ax",%progbits
 1351              		.align	1
 1352              		.p2align 2,,3
 1353              		.global	HAL_PWREx_DisableBkUpReg
 1354              		.syntax unified
 1355              		.thumb
 1356              		.thumb_func
 1357              		.type	HAL_PWREx_DisableBkUpReg, %function
 1358              	HAL_PWREx_DisableBkUpReg:
 1359              	.LFB165:
 1360              		.loc 1 1656 1 is_stmt 1 view -0
 1361              		.cfi_startproc
 1362              		@ args = 0, pretend = 0, frame = 0
 1363              		@ frame_needed = 0, uses_anonymous_args = 0
 1364              		.loc 1 1657 3 view .LVU321
 1365              		.loc 1 1660 3 view .LVU322
 1366              		.loc 1 1656 1 is_stmt 0 view .LVU323
 1367 0000 38B5     		push	{r3, r4, r5, lr}
 1368              		.cfi_def_cfa_offset 16
ARM GAS  C:\Users\DEVELO~1\AppData\Local\Temp\ccTzf7ir.s 			page 25


 1369              		.cfi_offset 3, -16
 1370              		.cfi_offset 4, -12
 1371              		.cfi_offset 5, -8
 1372              		.cfi_offset 14, -4
 1373              		.loc 1 1660 3 view .LVU324
 1374 0002 0B4C     		ldr	r4, .L119
 1375 0004 A368     		ldr	r3, [r4, #8]
 1376 0006 23F00103 		bic	r3, r3, #1
 1377 000a A360     		str	r3, [r4, #8]
 1378              		.loc 1 1663 3 is_stmt 1 view .LVU325
 1379              		.loc 1 1663 15 is_stmt 0 view .LVU326
 1380 000c FFF7FEFF 		bl	HAL_GetTick
 1381              	.LVL71:
 1382 0010 0546     		mov	r5, r0
 1383              	.LVL72:
 1384              		.loc 1 1666 3 is_stmt 1 view .LVU327
 1385              		.loc 1 1666 9 is_stmt 0 view .LVU328
 1386 0012 05E0     		b	.L114
 1387              	.LVL73:
 1388              	.L116:
 1389              		.loc 1 1668 10 view .LVU329
 1390 0014 FFF7FEFF 		bl	HAL_GetTick
 1391              	.LVL74:
 1392              		.loc 1 1668 24 view .LVU330
 1393 0018 401B     		subs	r0, r0, r5
 1394              		.loc 1 1668 8 view .LVU331
 1395 001a B0F57A7F 		cmp	r0, #1000
 1396 001e 05D8     		bhi	.L117
 1397              	.L114:
 1398              		.loc 1 1668 5 is_stmt 1 view .LVU332
 1399              		.loc 1 1666 44 view .LVU333
 1400              		.loc 1 1666 10 is_stmt 0 view .LVU334
 1401 0020 A368     		ldr	r3, [r4, #8]
 1402              		.loc 1 1666 44 view .LVU335
 1403 0022 13F48033 		ands	r3, r3, #65536
 1404 0026 F5D1     		bne	.L116
 1405              		.loc 1 1674 10 view .LVU336
 1406 0028 1846     		mov	r0, r3
 1407              		.loc 1 1675 1 view .LVU337
 1408 002a 38BD     		pop	{r3, r4, r5, pc}
 1409              	.LVL75:
 1410              	.L117:
 1411              		.loc 1 1670 14 view .LVU338
 1412 002c 0120     		movs	r0, #1
 1413              		.loc 1 1675 1 view .LVU339
 1414 002e 38BD     		pop	{r3, r4, r5, pc}
 1415              	.LVL76:
 1416              	.L120:
 1417              		.loc 1 1675 1 view .LVU340
 1418              		.align	2
 1419              	.L119:
 1420 0030 00480258 		.word	1476544512
 1421              		.cfi_endproc
 1422              	.LFE165:
 1423              		.size	HAL_PWREx_DisableBkUpReg, .-HAL_PWREx_DisableBkUpReg
 1424              		.section	.text.HAL_PWREx_EnableUSBReg,"ax",%progbits
 1425              		.align	1
ARM GAS  C:\Users\DEVELO~1\AppData\Local\Temp\ccTzf7ir.s 			page 26


 1426              		.p2align 2,,3
 1427              		.global	HAL_PWREx_EnableUSBReg
 1428              		.syntax unified
 1429              		.thumb
 1430              		.thumb_func
 1431              		.type	HAL_PWREx_EnableUSBReg, %function
 1432              	HAL_PWREx_EnableUSBReg:
 1433              	.LFB166:
 1434              		.loc 1 1682 1 is_stmt 1 view -0
 1435              		.cfi_startproc
 1436              		@ args = 0, pretend = 0, frame = 0
 1437              		@ frame_needed = 0, uses_anonymous_args = 0
 1438              		.loc 1 1683 3 view .LVU342
 1439              		.loc 1 1686 3 view .LVU343
 1440              		.loc 1 1682 1 is_stmt 0 view .LVU344
 1441 0000 38B5     		push	{r3, r4, r5, lr}
 1442              		.cfi_def_cfa_offset 16
 1443              		.cfi_offset 3, -16
 1444              		.cfi_offset 4, -12
 1445              		.cfi_offset 5, -8
 1446              		.cfi_offset 14, -4
 1447              		.loc 1 1686 3 view .LVU345
 1448 0002 0B4C     		ldr	r4, .L127
 1449 0004 E368     		ldr	r3, [r4, #12]
 1450 0006 43F00073 		orr	r3, r3, #33554432
 1451 000a E360     		str	r3, [r4, #12]
 1452              		.loc 1 1689 3 is_stmt 1 view .LVU346
 1453              		.loc 1 1689 15 is_stmt 0 view .LVU347
 1454 000c FFF7FEFF 		bl	HAL_GetTick
 1455              	.LVL77:
 1456 0010 0546     		mov	r5, r0
 1457              	.LVL78:
 1458              		.loc 1 1692 3 is_stmt 1 view .LVU348
 1459              		.loc 1 1692 9 is_stmt 0 view .LVU349
 1460 0012 05E0     		b	.L122
 1461              	.LVL79:
 1462              	.L124:
 1463              		.loc 1 1694 10 view .LVU350
 1464 0014 FFF7FEFF 		bl	HAL_GetTick
 1465              	.LVL80:
 1466              		.loc 1 1694 24 view .LVU351
 1467 0018 401B     		subs	r0, r0, r5
 1468              		.loc 1 1694 8 view .LVU352
 1469 001a B0F57A7F 		cmp	r0, #1000
 1470 001e 04D8     		bhi	.L125
 1471              	.L122:
 1472              		.loc 1 1694 5 is_stmt 1 view .LVU353
 1473              		.loc 1 1692 49 view .LVU354
 1474              		.loc 1 1692 10 is_stmt 0 view .LVU355
 1475 0020 E368     		ldr	r3, [r4, #12]
 1476              		.loc 1 1692 49 view .LVU356
 1477 0022 5B01     		lsls	r3, r3, #5
 1478 0024 F6D5     		bpl	.L124
 1479              		.loc 1 1700 10 view .LVU357
 1480 0026 0020     		movs	r0, #0
 1481              		.loc 1 1701 1 view .LVU358
 1482 0028 38BD     		pop	{r3, r4, r5, pc}
ARM GAS  C:\Users\DEVELO~1\AppData\Local\Temp\ccTzf7ir.s 			page 27


 1483              	.LVL81:
 1484              	.L125:
 1485              		.loc 1 1696 14 view .LVU359
 1486 002a 0120     		movs	r0, #1
 1487              		.loc 1 1701 1 view .LVU360
 1488 002c 38BD     		pop	{r3, r4, r5, pc}
 1489              	.LVL82:
 1490              	.L128:
 1491              		.loc 1 1701 1 view .LVU361
 1492 002e 00BF     		.align	2
 1493              	.L127:
 1494 0030 00480258 		.word	1476544512
 1495              		.cfi_endproc
 1496              	.LFE166:
 1497              		.size	HAL_PWREx_EnableUSBReg, .-HAL_PWREx_EnableUSBReg
 1498              		.section	.text.HAL_PWREx_DisableUSBReg,"ax",%progbits
 1499              		.align	1
 1500              		.p2align 2,,3
 1501              		.global	HAL_PWREx_DisableUSBReg
 1502              		.syntax unified
 1503              		.thumb
 1504              		.thumb_func
 1505              		.type	HAL_PWREx_DisableUSBReg, %function
 1506              	HAL_PWREx_DisableUSBReg:
 1507              	.LFB167:
 1508              		.loc 1 1708 1 is_stmt 1 view -0
 1509              		.cfi_startproc
 1510              		@ args = 0, pretend = 0, frame = 0
 1511              		@ frame_needed = 0, uses_anonymous_args = 0
 1512              		.loc 1 1709 3 view .LVU363
 1513              		.loc 1 1712 3 view .LVU364
 1514              		.loc 1 1708 1 is_stmt 0 view .LVU365
 1515 0000 38B5     		push	{r3, r4, r5, lr}
 1516              		.cfi_def_cfa_offset 16
 1517              		.cfi_offset 3, -16
 1518              		.cfi_offset 4, -12
 1519              		.cfi_offset 5, -8
 1520              		.cfi_offset 14, -4
 1521              		.loc 1 1712 3 view .LVU366
 1522 0002 0B4C     		ldr	r4, .L135
 1523 0004 E368     		ldr	r3, [r4, #12]
 1524 0006 23F00073 		bic	r3, r3, #33554432
 1525 000a E360     		str	r3, [r4, #12]
 1526              		.loc 1 1715 3 is_stmt 1 view .LVU367
 1527              		.loc 1 1715 15 is_stmt 0 view .LVU368
 1528 000c FFF7FEFF 		bl	HAL_GetTick
 1529              	.LVL83:
 1530 0010 0546     		mov	r5, r0
 1531              	.LVL84:
 1532              		.loc 1 1718 3 is_stmt 1 view .LVU369
 1533              		.loc 1 1718 8 is_stmt 0 view .LVU370
 1534 0012 05E0     		b	.L130
 1535              	.LVL85:
 1536              	.L132:
 1537              		.loc 1 1720 10 view .LVU371
 1538 0014 FFF7FEFF 		bl	HAL_GetTick
 1539              	.LVL86:
ARM GAS  C:\Users\DEVELO~1\AppData\Local\Temp\ccTzf7ir.s 			page 28


 1540              		.loc 1 1720 24 view .LVU372
 1541 0018 401B     		subs	r0, r0, r5
 1542              		.loc 1 1720 8 view .LVU373
 1543 001a B0F57A7F 		cmp	r0, #1000
 1544 001e 05D8     		bhi	.L133
 1545              	.L130:
 1546              		.loc 1 1720 5 is_stmt 1 view .LVU374
 1547              		.loc 1 1718 48 view .LVU375
 1548              		.loc 1 1718 9 is_stmt 0 view .LVU376
 1549 0020 E368     		ldr	r3, [r4, #12]
 1550              		.loc 1 1718 48 view .LVU377
 1551 0022 13F08063 		ands	r3, r3, #67108864
 1552 0026 F5D1     		bne	.L132
 1553              		.loc 1 1726 10 view .LVU378
 1554 0028 1846     		mov	r0, r3
 1555              		.loc 1 1727 1 view .LVU379
 1556 002a 38BD     		pop	{r3, r4, r5, pc}
 1557              	.LVL87:
 1558              	.L133:
 1559              		.loc 1 1722 14 view .LVU380
 1560 002c 0120     		movs	r0, #1
 1561              		.loc 1 1727 1 view .LVU381
 1562 002e 38BD     		pop	{r3, r4, r5, pc}
 1563              	.LVL88:
 1564              	.L136:
 1565              		.loc 1 1727 1 view .LVU382
 1566              		.align	2
 1567              	.L135:
 1568 0030 00480258 		.word	1476544512
 1569              		.cfi_endproc
 1570              	.LFE167:
 1571              		.size	HAL_PWREx_DisableUSBReg, .-HAL_PWREx_DisableUSBReg
 1572              		.section	.text.HAL_PWREx_EnableUSBVoltageDetector,"ax",%progbits
 1573              		.align	1
 1574              		.p2align 2,,3
 1575              		.global	HAL_PWREx_EnableUSBVoltageDetector
 1576              		.syntax unified
 1577              		.thumb
 1578              		.thumb_func
 1579              		.type	HAL_PWREx_EnableUSBVoltageDetector, %function
 1580              	HAL_PWREx_EnableUSBVoltageDetector:
 1581              	.LFB168:
 1582              		.loc 1 1734 1 is_stmt 1 view -0
 1583              		.cfi_startproc
 1584              		@ args = 0, pretend = 0, frame = 0
 1585              		@ frame_needed = 0, uses_anonymous_args = 0
 1586              		@ link register save eliminated.
 1587              		.loc 1 1736 3 view .LVU384
 1588 0000 024A     		ldr	r2, .L138
 1589 0002 D368     		ldr	r3, [r2, #12]
 1590 0004 43F08073 		orr	r3, r3, #16777216
 1591 0008 D360     		str	r3, [r2, #12]
 1592              		.loc 1 1737 1 is_stmt 0 view .LVU385
 1593 000a 7047     		bx	lr
 1594              	.L139:
 1595              		.align	2
 1596              	.L138:
ARM GAS  C:\Users\DEVELO~1\AppData\Local\Temp\ccTzf7ir.s 			page 29


 1597 000c 00480258 		.word	1476544512
 1598              		.cfi_endproc
 1599              	.LFE168:
 1600              		.size	HAL_PWREx_EnableUSBVoltageDetector, .-HAL_PWREx_EnableUSBVoltageDetector
 1601              		.section	.text.HAL_PWREx_DisableUSBVoltageDetector,"ax",%progbits
 1602              		.align	1
 1603              		.p2align 2,,3
 1604              		.global	HAL_PWREx_DisableUSBVoltageDetector
 1605              		.syntax unified
 1606              		.thumb
 1607              		.thumb_func
 1608              		.type	HAL_PWREx_DisableUSBVoltageDetector, %function
 1609              	HAL_PWREx_DisableUSBVoltageDetector:
 1610              	.LFB169:
 1611              		.loc 1 1744 1 is_stmt 1 view -0
 1612              		.cfi_startproc
 1613              		@ args = 0, pretend = 0, frame = 0
 1614              		@ frame_needed = 0, uses_anonymous_args = 0
 1615              		@ link register save eliminated.
 1616              		.loc 1 1746 3 view .LVU387
 1617 0000 024A     		ldr	r2, .L141
 1618 0002 D368     		ldr	r3, [r2, #12]
 1619 0004 23F08073 		bic	r3, r3, #16777216
 1620 0008 D360     		str	r3, [r2, #12]
 1621              		.loc 1 1747 1 is_stmt 0 view .LVU388
 1622 000a 7047     		bx	lr
 1623              	.L142:
 1624              		.align	2
 1625              	.L141:
 1626 000c 00480258 		.word	1476544512
 1627              		.cfi_endproc
 1628              	.LFE169:
 1629              		.size	HAL_PWREx_DisableUSBVoltageDetector, .-HAL_PWREx_DisableUSBVoltageDetector
 1630              		.section	.text.HAL_PWREx_EnableBatteryCharging,"ax",%progbits
 1631              		.align	1
 1632              		.p2align 2,,3
 1633              		.global	HAL_PWREx_EnableBatteryCharging
 1634              		.syntax unified
 1635              		.thumb
 1636              		.thumb_func
 1637              		.type	HAL_PWREx_EnableBatteryCharging, %function
 1638              	HAL_PWREx_EnableBatteryCharging:
 1639              	.LVL89:
 1640              	.LFB170:
 1641              		.loc 1 1760 1 is_stmt 1 view -0
 1642              		.cfi_startproc
 1643              		@ args = 0, pretend = 0, frame = 0
 1644              		@ frame_needed = 0, uses_anonymous_args = 0
 1645              		@ link register save eliminated.
 1646              		.loc 1 1762 3 view .LVU390
 1647              		.loc 1 1765 3 view .LVU391
 1648 0000 054A     		ldr	r2, .L144
 1649 0002 D368     		ldr	r3, [r2, #12]
 1650 0004 23F40073 		bic	r3, r3, #512
 1651 0008 1843     		orrs	r0, r0, r3
 1652              	.LVL90:
 1653              		.loc 1 1765 3 is_stmt 0 view .LVU392
ARM GAS  C:\Users\DEVELO~1\AppData\Local\Temp\ccTzf7ir.s 			page 30


 1654 000a D060     		str	r0, [r2, #12]
 1655              		.loc 1 1768 3 is_stmt 1 view .LVU393
 1656 000c D368     		ldr	r3, [r2, #12]
 1657 000e 43F48073 		orr	r3, r3, #256
 1658 0012 D360     		str	r3, [r2, #12]
 1659              		.loc 1 1769 1 is_stmt 0 view .LVU394
 1660 0014 7047     		bx	lr
 1661              	.L145:
 1662 0016 00BF     		.align	2
 1663              	.L144:
 1664 0018 00480258 		.word	1476544512
 1665              		.cfi_endproc
 1666              	.LFE170:
 1667              		.size	HAL_PWREx_EnableBatteryCharging, .-HAL_PWREx_EnableBatteryCharging
 1668              		.section	.text.HAL_PWREx_DisableBatteryCharging,"ax",%progbits
 1669              		.align	1
 1670              		.p2align 2,,3
 1671              		.global	HAL_PWREx_DisableBatteryCharging
 1672              		.syntax unified
 1673              		.thumb
 1674              		.thumb_func
 1675              		.type	HAL_PWREx_DisableBatteryCharging, %function
 1676              	HAL_PWREx_DisableBatteryCharging:
 1677              	.LFB171:
 1678              		.loc 1 1776 1 is_stmt 1 view -0
 1679              		.cfi_startproc
 1680              		@ args = 0, pretend = 0, frame = 0
 1681              		@ frame_needed = 0, uses_anonymous_args = 0
 1682              		@ link register save eliminated.
 1683              		.loc 1 1778 3 view .LVU396
 1684 0000 024A     		ldr	r2, .L147
 1685 0002 D368     		ldr	r3, [r2, #12]
 1686 0004 23F48073 		bic	r3, r3, #256
 1687 0008 D360     		str	r3, [r2, #12]
 1688              		.loc 1 1779 1 is_stmt 0 view .LVU397
 1689 000a 7047     		bx	lr
 1690              	.L148:
 1691              		.align	2
 1692              	.L147:
 1693 000c 00480258 		.word	1476544512
 1694              		.cfi_endproc
 1695              	.LFE171:
 1696              		.size	HAL_PWREx_DisableBatteryCharging, .-HAL_PWREx_DisableBatteryCharging
 1697              		.section	.text.HAL_PWREx_EnableMonitoring,"ax",%progbits
 1698              		.align	1
 1699              		.p2align 2,,3
 1700              		.global	HAL_PWREx_EnableMonitoring
 1701              		.syntax unified
 1702              		.thumb
 1703              		.thumb_func
 1704              		.type	HAL_PWREx_EnableMonitoring, %function
 1705              	HAL_PWREx_EnableMonitoring:
 1706              	.LFB172:
 1707              		.loc 1 1866 1 is_stmt 1 view -0
 1708              		.cfi_startproc
 1709              		@ args = 0, pretend = 0, frame = 0
 1710              		@ frame_needed = 0, uses_anonymous_args = 0
ARM GAS  C:\Users\DEVELO~1\AppData\Local\Temp\ccTzf7ir.s 			page 31


 1711              		@ link register save eliminated.
 1712              		.loc 1 1868 3 view .LVU399
 1713 0000 024A     		ldr	r2, .L150
 1714 0002 9368     		ldr	r3, [r2, #8]
 1715 0004 43F01003 		orr	r3, r3, #16
 1716 0008 9360     		str	r3, [r2, #8]
 1717              		.loc 1 1869 1 is_stmt 0 view .LVU400
 1718 000a 7047     		bx	lr
 1719              	.L151:
 1720              		.align	2
 1721              	.L150:
 1722 000c 00480258 		.word	1476544512
 1723              		.cfi_endproc
 1724              	.LFE172:
 1725              		.size	HAL_PWREx_EnableMonitoring, .-HAL_PWREx_EnableMonitoring
 1726              		.section	.text.HAL_PWREx_DisableMonitoring,"ax",%progbits
 1727              		.align	1
 1728              		.p2align 2,,3
 1729              		.global	HAL_PWREx_DisableMonitoring
 1730              		.syntax unified
 1731              		.thumb
 1732              		.thumb_func
 1733              		.type	HAL_PWREx_DisableMonitoring, %function
 1734              	HAL_PWREx_DisableMonitoring:
 1735              	.LFB173:
 1736              		.loc 1 1876 1 is_stmt 1 view -0
 1737              		.cfi_startproc
 1738              		@ args = 0, pretend = 0, frame = 0
 1739              		@ frame_needed = 0, uses_anonymous_args = 0
 1740              		@ link register save eliminated.
 1741              		.loc 1 1878 3 view .LVU402
 1742 0000 024A     		ldr	r2, .L153
 1743 0002 9368     		ldr	r3, [r2, #8]
 1744 0004 23F01003 		bic	r3, r3, #16
 1745 0008 9360     		str	r3, [r2, #8]
 1746              		.loc 1 1879 1 is_stmt 0 view .LVU403
 1747 000a 7047     		bx	lr
 1748              	.L154:
 1749              		.align	2
 1750              	.L153:
 1751 000c 00480258 		.word	1476544512
 1752              		.cfi_endproc
 1753              	.LFE173:
 1754              		.size	HAL_PWREx_DisableMonitoring, .-HAL_PWREx_DisableMonitoring
 1755              		.section	.text.HAL_PWREx_GetTemperatureLevel,"ax",%progbits
 1756              		.align	1
 1757              		.p2align 2,,3
 1758              		.global	HAL_PWREx_GetTemperatureLevel
 1759              		.syntax unified
 1760              		.thumb
 1761              		.thumb_func
 1762              		.type	HAL_PWREx_GetTemperatureLevel, %function
 1763              	HAL_PWREx_GetTemperatureLevel:
 1764              	.LFB174:
 1765              		.loc 1 1887 1 is_stmt 1 view -0
 1766              		.cfi_startproc
 1767              		@ args = 0, pretend = 0, frame = 0
ARM GAS  C:\Users\DEVELO~1\AppData\Local\Temp\ccTzf7ir.s 			page 32


 1768              		@ frame_needed = 0, uses_anonymous_args = 0
 1769              		@ link register save eliminated.
 1770              		.loc 1 1888 3 view .LVU405
 1771              		.loc 1 1891 3 view .LVU406
 1772              		.loc 1 1891 14 is_stmt 0 view .LVU407
 1773 0000 064B     		ldr	r3, .L160
 1774 0002 9868     		ldr	r0, [r3, #8]
 1775              		.loc 1 1891 12 view .LVU408
 1776 0004 00F44000 		and	r0, r0, #12582912
 1777              	.LVL91:
 1778              		.loc 1 1894 3 is_stmt 1 view .LVU409
 1779              		.loc 1 1894 6 is_stmt 0 view .LVU410
 1780 0008 B0F5800F 		cmp	r0, #4194304
 1781 000c 05D0     		beq	.L155
 1782              		.loc 1 1899 8 is_stmt 1 view .LVU411
 1783              		.loc 1 1899 11 is_stmt 0 view .LVU412
 1784 000e A0F50000 		sub	r0, r0, #8388608
 1785              	.LVL92:
 1786              		.loc 1 1899 11 view .LVU413
 1787 0012 B0FA80F0 		clz	r0, r0
 1788              	.LVL93:
 1789              		.loc 1 1899 11 view .LVU414
 1790 0016 4009     		lsrs	r0, r0, #5
 1791 0018 C005     		lsls	r0, r0, #23
 1792              	.LVL94:
 1793              		.loc 1 1909 3 is_stmt 1 view .LVU415
 1794              	.L155:
 1795              		.loc 1 1910 1 is_stmt 0 view .LVU416
 1796 001a 7047     		bx	lr
 1797              	.L161:
 1798              		.align	2
 1799              	.L160:
 1800 001c 00480258 		.word	1476544512
 1801              		.cfi_endproc
 1802              	.LFE174:
 1803              		.size	HAL_PWREx_GetTemperatureLevel, .-HAL_PWREx_GetTemperatureLevel
 1804              		.section	.text.HAL_PWREx_GetVBATLevel,"ax",%progbits
 1805              		.align	1
 1806              		.p2align 2,,3
 1807              		.global	HAL_PWREx_GetVBATLevel
 1808              		.syntax unified
 1809              		.thumb
 1810              		.thumb_func
 1811              		.type	HAL_PWREx_GetVBATLevel, %function
 1812              	HAL_PWREx_GetVBATLevel:
 1813              	.LFB175:
 1814              		.loc 1 1918 1 is_stmt 1 view -0
 1815              		.cfi_startproc
 1816              		@ args = 0, pretend = 0, frame = 0
 1817              		@ frame_needed = 0, uses_anonymous_args = 0
 1818              		@ link register save eliminated.
 1819              		.loc 1 1919 3 view .LVU418
 1820              		.loc 1 1922 3 view .LVU419
 1821              		.loc 1 1922 14 is_stmt 0 view .LVU420
 1822 0000 064B     		ldr	r3, .L167
 1823 0002 9868     		ldr	r0, [r3, #8]
 1824              		.loc 1 1922 12 view .LVU421
ARM GAS  C:\Users\DEVELO~1\AppData\Local\Temp\ccTzf7ir.s 			page 33


 1825 0004 00F44010 		and	r0, r0, #3145728
 1826              	.LVL95:
 1827              		.loc 1 1925 3 is_stmt 1 view .LVU422
 1828              		.loc 1 1925 6 is_stmt 0 view .LVU423
 1829 0008 B0F5801F 		cmp	r0, #1048576
 1830 000c 05D0     		beq	.L162
 1831              		.loc 1 1930 8 is_stmt 1 view .LVU424
 1832              		.loc 1 1930 11 is_stmt 0 view .LVU425
 1833 000e A0F50010 		sub	r0, r0, #2097152
 1834              	.LVL96:
 1835              		.loc 1 1930 11 view .LVU426
 1836 0012 B0FA80F0 		clz	r0, r0
 1837              	.LVL97:
 1838              		.loc 1 1930 11 view .LVU427
 1839 0016 4009     		lsrs	r0, r0, #5
 1840 0018 4005     		lsls	r0, r0, #21
 1841              	.LVL98:
 1842              		.loc 1 1940 3 is_stmt 1 view .LVU428
 1843              	.L162:
 1844              		.loc 1 1941 1 is_stmt 0 view .LVU429
 1845 001a 7047     		bx	lr
 1846              	.L168:
 1847              		.align	2
 1848              	.L167:
 1849 001c 00480258 		.word	1476544512
 1850              		.cfi_endproc
 1851              	.LFE175:
 1852              		.size	HAL_PWREx_GetVBATLevel, .-HAL_PWREx_GetVBATLevel
 1853              		.section	.text.HAL_PWREx_ConfigAVD,"ax",%progbits
 1854              		.align	1
 1855              		.p2align 2,,3
 1856              		.global	HAL_PWREx_ConfigAVD
 1857              		.syntax unified
 1858              		.thumb
 1859              		.thumb_func
 1860              		.type	HAL_PWREx_ConfigAVD, %function
 1861              	HAL_PWREx_ConfigAVD:
 1862              	.LVL99:
 1863              	.LFB176:
 1864              		.loc 1 1981 1 is_stmt 1 view -0
 1865              		.cfi_startproc
 1866              		@ args = 0, pretend = 0, frame = 0
 1867              		@ frame_needed = 0, uses_anonymous_args = 0
 1868              		@ link register save eliminated.
 1869              		.loc 1 1983 3 view .LVU431
 1870              		.loc 1 1984 3 view .LVU432
 1871              		.loc 1 1987 3 view .LVU433
 1872 0000 2149     		ldr	r1, .L187
 1873              		.loc 1 1991 3 is_stmt 0 view .LVU434
 1874 0002 4FF0B043 		mov	r3, #1476395008
 1875              		.loc 1 1987 3 view .LVU435
 1876 0006 0A68     		ldr	r2, [r1]
 1877              		.loc 1 1981 1 view .LVU436
 1878 0008 10B4     		push	{r4}
 1879              		.cfi_def_cfa_offset 4
 1880              		.cfi_offset 4, -4
 1881              		.loc 1 1987 3 view .LVU437
ARM GAS  C:\Users\DEVELO~1\AppData\Local\Temp\ccTzf7ir.s 			page 34


 1882 000a 22F4C022 		bic	r2, r2, #393216
 1883 000e 0468     		ldr	r4, [r0]
 1884 0010 2243     		orrs	r2, r2, r4
 1885 0012 0A60     		str	r2, [r1]
 1886              		.loc 1 1991 3 is_stmt 1 view .LVU438
 1887 0014 D3F88420 		ldr	r2, [r3, #132]
 1888 0018 22F48032 		bic	r2, r2, #65536
 1889 001c C3F88420 		str	r2, [r3, #132]
 1890              		.loc 1 1992 3 view .LVU439
 1891 0020 D3F88020 		ldr	r2, [r3, #128]
 1892 0024 22F48032 		bic	r2, r2, #65536
 1893 0028 C3F88020 		str	r2, [r3, #128]
 1894              		.loc 1 1995 3 view .LVU440
 1895 002c 1A68     		ldr	r2, [r3]
 1896 002e 22F48032 		bic	r2, r2, #65536
 1897 0032 1A60     		str	r2, [r3]
 1898              		.loc 1 1996 3 view .LVU441
 1899 0034 5A68     		ldr	r2, [r3, #4]
 1900 0036 22F48032 		bic	r2, r2, #65536
 1901 003a 5A60     		str	r2, [r3, #4]
 1902              		.loc 1 2000 3 view .LVU442
 1903              		.loc 1 2000 18 is_stmt 0 view .LVU443
 1904 003c 4268     		ldr	r2, [r0, #4]
 1905              		.loc 1 2000 6 view .LVU444
 1906 003e D403     		lsls	r4, r2, #15
 1907 0040 05D5     		bpl	.L170
 1908              		.loc 1 2002 5 is_stmt 1 view .LVU445
 1909 0042 D3F88010 		ldr	r1, [r3, #128]
 1910 0046 41F48031 		orr	r1, r1, #65536
 1911 004a C3F88010 		str	r1, [r3, #128]
 1912              	.L170:
 1913              		.loc 1 2006 3 view .LVU446
 1914              		.loc 1 2006 6 is_stmt 0 view .LVU447
 1915 004e 9003     		lsls	r0, r2, #14
 1916              	.LVL100:
 1917              		.loc 1 2006 6 view .LVU448
 1918 0050 07D5     		bpl	.L171
 1919              		.loc 1 2008 5 is_stmt 1 view .LVU449
 1920 0052 4FF0B041 		mov	r1, #1476395008
 1921 0056 D1F88430 		ldr	r3, [r1, #132]
 1922 005a 43F48033 		orr	r3, r3, #65536
 1923 005e C1F88430 		str	r3, [r1, #132]
 1924              	.L171:
 1925              		.loc 1 2013 3 view .LVU450
 1926              		.loc 1 2013 6 is_stmt 0 view .LVU451
 1927 0062 D107     		lsls	r1, r2, #31
 1928 0064 05D5     		bpl	.L172
 1929              		.loc 1 2015 5 is_stmt 1 view .LVU452
 1930 0066 4FF0B041 		mov	r1, #1476395008
 1931 006a 0B68     		ldr	r3, [r1]
 1932 006c 43F48033 		orr	r3, r3, #65536
 1933 0070 0B60     		str	r3, [r1]
 1934              	.L172:
 1935              		.loc 1 2019 3 view .LVU453
 1936              		.loc 1 2019 6 is_stmt 0 view .LVU454
 1937 0072 9307     		lsls	r3, r2, #30
 1938 0074 05D5     		bpl	.L169
ARM GAS  C:\Users\DEVELO~1\AppData\Local\Temp\ccTzf7ir.s 			page 35


 1939              		.loc 1 2021 5 is_stmt 1 view .LVU455
 1940 0076 4FF0B042 		mov	r2, #1476395008
 1941 007a 5368     		ldr	r3, [r2, #4]
 1942 007c 43F48033 		orr	r3, r3, #65536
 1943 0080 5360     		str	r3, [r2, #4]
 1944              	.L169:
 1945              		.loc 1 2023 1 is_stmt 0 view .LVU456
 1946 0082 5DF8044B 		ldr	r4, [sp], #4
 1947              		.cfi_restore 4
 1948              		.cfi_def_cfa_offset 0
 1949 0086 7047     		bx	lr
 1950              	.L188:
 1951              		.align	2
 1952              	.L187:
 1953 0088 00480258 		.word	1476544512
 1954              		.cfi_endproc
 1955              	.LFE176:
 1956              		.size	HAL_PWREx_ConfigAVD, .-HAL_PWREx_ConfigAVD
 1957              		.section	.text.HAL_PWREx_EnableAVD,"ax",%progbits
 1958              		.align	1
 1959              		.p2align 2,,3
 1960              		.global	HAL_PWREx_EnableAVD
 1961              		.syntax unified
 1962              		.thumb
 1963              		.thumb_func
 1964              		.type	HAL_PWREx_EnableAVD, %function
 1965              	HAL_PWREx_EnableAVD:
 1966              	.LFB177:
 1967              		.loc 1 2030 1 is_stmt 1 view -0
 1968              		.cfi_startproc
 1969              		@ args = 0, pretend = 0, frame = 0
 1970              		@ frame_needed = 0, uses_anonymous_args = 0
 1971              		@ link register save eliminated.
 1972              		.loc 1 2032 3 view .LVU458
 1973 0000 024A     		ldr	r2, .L190
 1974 0002 1368     		ldr	r3, [r2]
 1975 0004 43F48033 		orr	r3, r3, #65536
 1976 0008 1360     		str	r3, [r2]
 1977              		.loc 1 2033 1 is_stmt 0 view .LVU459
 1978 000a 7047     		bx	lr
 1979              	.L191:
 1980              		.align	2
 1981              	.L190:
 1982 000c 00480258 		.word	1476544512
 1983              		.cfi_endproc
 1984              	.LFE177:
 1985              		.size	HAL_PWREx_EnableAVD, .-HAL_PWREx_EnableAVD
 1986              		.section	.text.HAL_PWREx_DisableAVD,"ax",%progbits
 1987              		.align	1
 1988              		.p2align 2,,3
 1989              		.global	HAL_PWREx_DisableAVD
 1990              		.syntax unified
 1991              		.thumb
 1992              		.thumb_func
 1993              		.type	HAL_PWREx_DisableAVD, %function
 1994              	HAL_PWREx_DisableAVD:
 1995              	.LFB178:
ARM GAS  C:\Users\DEVELO~1\AppData\Local\Temp\ccTzf7ir.s 			page 36


 1996              		.loc 1 2040 1 is_stmt 1 view -0
 1997              		.cfi_startproc
 1998              		@ args = 0, pretend = 0, frame = 0
 1999              		@ frame_needed = 0, uses_anonymous_args = 0
 2000              		@ link register save eliminated.
 2001              		.loc 1 2042 3 view .LVU461
 2002 0000 024A     		ldr	r2, .L193
 2003 0002 1368     		ldr	r3, [r2]
 2004 0004 23F48033 		bic	r3, r3, #65536
 2005 0008 1360     		str	r3, [r2]
 2006              		.loc 1 2043 1 is_stmt 0 view .LVU462
 2007 000a 7047     		bx	lr
 2008              	.L194:
 2009              		.align	2
 2010              	.L193:
 2011 000c 00480258 		.word	1476544512
 2012              		.cfi_endproc
 2013              	.LFE178:
 2014              		.size	HAL_PWREx_DisableAVD, .-HAL_PWREx_DisableAVD
 2015              		.section	.text.HAL_PWREx_AVDCallback,"ax",%progbits
 2016              		.align	1
 2017              		.p2align 2,,3
 2018              		.weak	HAL_PWREx_AVDCallback
 2019              		.syntax unified
 2020              		.thumb
 2021              		.thumb_func
 2022              		.type	HAL_PWREx_AVDCallback, %function
 2023              	HAL_PWREx_AVDCallback:
 2024              	.LFB192:
 2025              		.cfi_startproc
 2026              		@ args = 0, pretend = 0, frame = 0
 2027              		@ frame_needed = 0, uses_anonymous_args = 0
 2028              		@ link register save eliminated.
 2029 0000 7047     		bx	lr
 2030              		.cfi_endproc
 2031              	.LFE192:
 2032              		.size	HAL_PWREx_AVDCallback, .-HAL_PWREx_AVDCallback
 2033 0002 00BF     		.section	.text.HAL_PWREx_PVD_AVD_IRQHandler,"ax",%progbits
 2034              		.align	1
 2035              		.p2align 2,,3
 2036              		.global	HAL_PWREx_PVD_AVD_IRQHandler
 2037              		.syntax unified
 2038              		.thumb
 2039              		.thumb_func
 2040              		.type	HAL_PWREx_PVD_AVD_IRQHandler, %function
 2041              	HAL_PWREx_PVD_AVD_IRQHandler:
 2042              	.LFB179:
 2043              		.loc 1 2051 1 is_stmt 1 view -0
 2044              		.cfi_startproc
 2045              		@ args = 0, pretend = 0, frame = 0
 2046              		@ frame_needed = 0, uses_anonymous_args = 0
 2047              		.loc 1 2053 3 view .LVU464
 2048              		.loc 1 2051 1 is_stmt 0 view .LVU465
 2049 0000 38B5     		push	{r3, r4, r5, lr}
 2050              		.cfi_def_cfa_offset 16
 2051              		.cfi_offset 3, -16
 2052              		.cfi_offset 4, -12
ARM GAS  C:\Users\DEVELO~1\AppData\Local\Temp\ccTzf7ir.s 			page 37


 2053              		.cfi_offset 5, -8
 2054              		.cfi_offset 14, -4
 2055              		.loc 1 2053 7 view .LVU466
 2056 0002 164C     		ldr	r4, .L212
 2057 0004 2368     		ldr	r3, [r4]
 2058              		.loc 1 2053 6 view .LVU467
 2059 0006 DA06     		lsls	r2, r3, #27
 2060 0008 05D5     		bpl	.L198
 2061              		.loc 1 2060 7 is_stmt 1 view .LVU468
 2062              		.loc 1 2060 11 is_stmt 0 view .LVU469
 2063 000a 4FF0B045 		mov	r5, #1476395008
 2064 000e D5F88830 		ldr	r3, [r5, #136]
 2065              		.loc 1 2060 10 view .LVU470
 2066 0012 DB03     		lsls	r3, r3, #15
 2067 0014 16D4     		bmi	.L210
 2068              	.L198:
 2069              		.loc 1 2092 3 is_stmt 1 view .LVU471
 2070              		.loc 1 2092 7 is_stmt 0 view .LVU472
 2071 0016 114C     		ldr	r4, .L212
 2072 0018 2368     		ldr	r3, [r4]
 2073              		.loc 1 2092 6 view .LVU473
 2074 001a D903     		lsls	r1, r3, #15
 2075 001c 05D5     		bpl	.L196
 2076              		.loc 1 2099 7 is_stmt 1 view .LVU474
 2077              		.loc 1 2099 11 is_stmt 0 view .LVU475
 2078 001e 4FF0B045 		mov	r5, #1476395008
 2079 0022 D5F88830 		ldr	r3, [r5, #136]
 2080              		.loc 1 2099 10 view .LVU476
 2081 0026 DA03     		lsls	r2, r3, #15
 2082 0028 00D4     		bmi	.L211
 2083              	.L196:
 2084              		.loc 1 2129 1 view .LVU477
 2085 002a 38BD     		pop	{r3, r4, r5, pc}
 2086              	.L211:
 2087              		.loc 1 2102 9 is_stmt 1 view .LVU478
 2088 002c FFF7FEFF 		bl	HAL_PWREx_AVDCallback
 2089              	.LVL101:
 2090              		.loc 1 2104 9 view .LVU479
 2091              		.loc 1 2104 12 is_stmt 0 view .LVU480
 2092 0030 6368     		ldr	r3, [r4, #4]
 2093              		.loc 1 2104 11 view .LVU481
 2094 0032 DB06     		lsls	r3, r3, #27
 2095 0034 F9D4     		bmi	.L196
 2096              		.loc 1 2107 11 is_stmt 1 view .LVU482
 2097 0036 D5F88830 		ldr	r3, [r5, #136]
 2098 003a 43F48033 		orr	r3, r3, #65536
 2099 003e C5F88830 		str	r3, [r5, #136]
 2100              		.loc 1 2129 1 is_stmt 0 view .LVU483
 2101 0042 38BD     		pop	{r3, r4, r5, pc}
 2102              	.L210:
 2103              		.loc 1 2063 9 is_stmt 1 view .LVU484
 2104 0044 FFF7FEFF 		bl	HAL_PWR_PVDCallback
 2105              	.LVL102:
 2106              		.loc 1 2065 9 view .LVU485
 2107              		.loc 1 2065 12 is_stmt 0 view .LVU486
 2108 0048 6368     		ldr	r3, [r4, #4]
 2109              		.loc 1 2065 11 view .LVU487
ARM GAS  C:\Users\DEVELO~1\AppData\Local\Temp\ccTzf7ir.s 			page 38


 2110 004a D803     		lsls	r0, r3, #15
 2111 004c E3D4     		bmi	.L198
 2112              		.loc 1 2068 11 is_stmt 1 view .LVU488
 2113 004e D5F88830 		ldr	r3, [r5, #136]
 2114 0052 43F48033 		orr	r3, r3, #65536
 2115 0056 C5F88830 		str	r3, [r5, #136]
 2116 005a DCE7     		b	.L198
 2117              	.L213:
 2118              		.align	2
 2119              	.L212:
 2120 005c 00480258 		.word	1476544512
 2121              		.cfi_endproc
 2122              	.LFE179:
 2123              		.size	HAL_PWREx_PVD_AVD_IRQHandler, .-HAL_PWREx_PVD_AVD_IRQHandler
 2124              		.text
 2125              	.Letext0:
 2126              		.file 3 "c:\\chibistudio\\tools\\gnu tools arm embedded\\11.3 2022.08\\arm-none-eabi\\include\\mac
 2127              		.file 4 "c:\\chibistudio\\tools\\gnu tools arm embedded\\11.3 2022.08\\arm-none-eabi\\include\\sys
 2128              		.file 5 "./docs/ChibiOS/os/common/ext/ARM/CMSIS/Core/Include/core_cm7.h"
 2129              		.file 6 "./docs/ChibiOS/os/common/ext/ST/STM32H7xx/stm32h743xx.h"
 2130              		.file 7 "./drivers/stm32h7xx-hal-driver/Inc/stm32h7xx_hal_def.h"
 2131              		.file 8 "./drivers/stm32h7xx-hal-driver/Inc/stm32h7xx_hal_pwr_ex.h"
 2132              		.file 9 "./drivers/stm32h7xx-hal-driver/Inc/stm32h7xx_hal_pwr.h"
 2133              		.file 10 "./drivers/stm32h7xx-hal-driver/Inc/stm32h7xx_hal.h"