ARM GAS  C:\Users\DEVELO~1\AppData\Local\Temp\ccSgSxC6.s 			page 1


   1              		.cpu cortex-m7
   2              		.arch armv7e-m
   3              		.fpu fpv5-d16
   4              		.eabi_attribute 28, 1
   5              		.eabi_attribute 20, 1
   6              		.eabi_attribute 21, 1
   7              		.eabi_attribute 23, 3
   8              		.eabi_attribute 24, 1
   9              		.eabi_attribute 25, 1
  10              		.eabi_attribute 26, 1
  11              		.eabi_attribute 30, 2
  12              		.eabi_attribute 34, 1
  13              		.eabi_attribute 18, 4
  14              		.file	"syscalls.c"
  15              		.text
  16              	.Ltext0:
  17              		.cfi_sections	.debug_frame
  18              		.section	.text._write,"ax",%progbits
  19              		.align	1
  20              		.p2align 2,,3
  21              		.weak	_write
  22              		.syntax unified
  23              		.thumb
  24              		.thumb_func
  25              		.type	_write, %function
  26              	_write:
  27              	.LVL0:
  28              	.LFB0:
  29              		.file 1 "syscalls.c"
  30              		.loc 1 10 70 view -0
  31              		.cfi_startproc
  32              		@ args = 0, pretend = 0, frame = 0
  33              		@ frame_needed = 0, uses_anonymous_args = 0
  34              		.loc 1 11 5 view .LVU1
  35              		.loc 1 12 5 view .LVU2
  36              		.loc 1 13 5 view .LVU3
  37              		.loc 1 14 5 view .LVU4
  38              		.loc 1 10 70 is_stmt 0 view .LVU5
  39 0000 08B5     		push	{r3, lr}
  40              		.cfi_def_cfa_offset 8
  41              		.cfi_offset 3, -8
  42              		.cfi_offset 14, -4
  43              		.loc 1 14 5 view .LVU6
  44 0002 FFF7FEFF 		bl	__errno
  45              	.LVL1:
  46              		.loc 1 14 11 view .LVU7
  47 0006 5822     		movs	r2, #88
  48              		.loc 1 14 5 view .LVU8
  49 0008 0346     		mov	r3, r0
  50              		.loc 1 16 1 view .LVU9
  51 000a 4FF0FF30 		mov	r0, #-1
  52              		.loc 1 14 11 view .LVU10
  53 000e 1A60     		str	r2, [r3]
  54              		.loc 1 15 5 is_stmt 1 view .LVU11
  55              		.loc 1 16 1 is_stmt 0 view .LVU12
  56 0010 08BD     		pop	{r3, pc}
  57              		.cfi_endproc
ARM GAS  C:\Users\DEVELO~1\AppData\Local\Temp\ccSgSxC6.s 			page 2


  58              	.LFE0:
  59              		.size	_write, .-_write
  60 0012 00BF     		.section	.text._read,"ax",%progbits
  61              		.align	1
  62              		.p2align 2,,3
  63              		.weak	_read
  64              		.syntax unified
  65              		.thumb
  66              		.thumb_func
  67              		.type	_read, %function
  68              	_read:
  69              	.LFB11:
  70              		.cfi_startproc
  71              		@ args = 0, pretend = 0, frame = 0
  72              		@ frame_needed = 0, uses_anonymous_args = 0
  73 0000 08B5     		push	{r3, lr}
  74              		.cfi_def_cfa_offset 8
  75              		.cfi_offset 3, -8
  76              		.cfi_offset 14, -4
  77 0002 FFF7FEFF 		bl	__errno
  78 0006 5822     		movs	r2, #88
  79 0008 0346     		mov	r3, r0
  80 000a 4FF0FF30 		mov	r0, #-1
  81 000e 1A60     		str	r2, [r3]
  82 0010 08BD     		pop	{r3, pc}
  83              		.cfi_endproc
  84              	.LFE11:
  85              		.size	_read, .-_read
  86              		.section	.text._close,"ax",%progbits
  87              		.align	1
  88              		.p2align 2,,3
  89              		.weak	_close
  90              		.syntax unified
  91              		.thumb
  92              		.thumb_func
  93              		.type	_close, %function
  94              	_close:
  95              	.LVL2:
  96              	.LFB2:
  97              		.loc 1 26 44 is_stmt 1 view -0
  98              		.cfi_startproc
  99              		@ args = 0, pretend = 0, frame = 0
 100              		@ frame_needed = 0, uses_anonymous_args = 0
 101              		.loc 1 27 5 view .LVU14
 102              		.loc 1 28 5 view .LVU15
 103              		.loc 1 26 44 is_stmt 0 view .LVU16
 104 0000 08B5     		push	{r3, lr}
 105              		.cfi_def_cfa_offset 8
 106              		.cfi_offset 3, -8
 107              		.cfi_offset 14, -4
 108              		.loc 1 28 5 view .LVU17
 109 0002 FFF7FEFF 		bl	__errno
 110              	.LVL3:
 111              		.loc 1 28 11 view .LVU18
 112 0006 5822     		movs	r2, #88
 113              		.loc 1 28 5 view .LVU19
 114 0008 0346     		mov	r3, r0
ARM GAS  C:\Users\DEVELO~1\AppData\Local\Temp\ccSgSxC6.s 			page 3


 115              		.loc 1 30 1 view .LVU20
 116 000a 4FF0FF30 		mov	r0, #-1
 117              		.loc 1 28 11 view .LVU21
 118 000e 1A60     		str	r2, [r3]
 119              		.loc 1 29 5 is_stmt 1 view .LVU22
 120              		.loc 1 30 1 is_stmt 0 view .LVU23
 121 0010 08BD     		pop	{r3, pc}
 122              		.cfi_endproc
 123              	.LFE2:
 124              		.size	_close, .-_close
 125 0012 00BF     		.section	.text._lseek,"ax",%progbits
 126              		.align	1
 127              		.p2align 2,,3
 128              		.weak	_lseek
 129              		.syntax unified
 130              		.thumb
 131              		.thumb_func
 132              		.type	_lseek, %function
 133              	_lseek:
 134              	.LVL4:
 135              	.LFB3:
 136              		.loc 1 32 62 is_stmt 1 view -0
 137              		.cfi_startproc
 138              		@ args = 0, pretend = 0, frame = 0
 139              		@ frame_needed = 0, uses_anonymous_args = 0
 140              		.loc 1 33 5 view .LVU25
 141              		.loc 1 34 5 view .LVU26
 142              		.loc 1 35 5 view .LVU27
 143              		.loc 1 36 5 view .LVU28
 144              		.loc 1 32 62 is_stmt 0 view .LVU29
 145 0000 08B5     		push	{r3, lr}
 146              		.cfi_def_cfa_offset 8
 147              		.cfi_offset 3, -8
 148              		.cfi_offset 14, -4
 149              		.loc 1 36 5 view .LVU30
 150 0002 FFF7FEFF 		bl	__errno
 151              	.LVL5:
 152              		.loc 1 36 11 view .LVU31
 153 0006 5822     		movs	r2, #88
 154              		.loc 1 36 5 view .LVU32
 155 0008 0346     		mov	r3, r0
 156              		.loc 1 38 1 view .LVU33
 157 000a 4FF0FF30 		mov	r0, #-1
 158              		.loc 1 36 11 view .LVU34
 159 000e 1A60     		str	r2, [r3]
 160              		.loc 1 37 5 is_stmt 1 view .LVU35
 161              		.loc 1 38 1 is_stmt 0 view .LVU36
 162 0010 08BD     		pop	{r3, pc}
 163              		.cfi_endproc
 164              	.LFE3:
 165              		.size	_lseek, .-_lseek
 166 0012 00BF     		.section	.text._fstat,"ax",%progbits
 167              		.align	1
 168              		.p2align 2,,3
 169              		.weak	_fstat
 170              		.syntax unified
 171              		.thumb
ARM GAS  C:\Users\DEVELO~1\AppData\Local\Temp\ccSgSxC6.s 			page 4


 172              		.thumb_func
 173              		.type	_fstat, %function
 174              	_fstat:
 175              	.LVL6:
 176              	.LFB4:
 177              		.loc 1 40 61 is_stmt 1 view -0
 178              		.cfi_startproc
 179              		@ args = 0, pretend = 0, frame = 0
 180              		@ frame_needed = 0, uses_anonymous_args = 0
 181              		@ link register save eliminated.
 182              		.loc 1 41 5 view .LVU38
 183              		.loc 1 42 5 view .LVU39
 184              		.loc 1 42 8 is_stmt 0 view .LVU40
 185 0000 11B1     		cbz	r1, .L11
 186              		.loc 1 43 9 is_stmt 1 view .LVU41
 187              		.loc 1 43 21 is_stmt 0 view .LVU42
 188 0002 4FF40053 		mov	r3, #8192
 189 0006 4B60     		str	r3, [r1, #4]
 190              	.L11:
 191              		.loc 1 45 5 is_stmt 1 view .LVU43
 192              		.loc 1 46 1 is_stmt 0 view .LVU44
 193 0008 0020     		movs	r0, #0
 194              	.LVL7:
 195              		.loc 1 46 1 view .LVU45
 196 000a 7047     		bx	lr
 197              		.cfi_endproc
 198              	.LFE4:
 199              		.size	_fstat, .-_fstat
 200              		.section	.text._isatty,"ax",%progbits
 201              		.align	1
 202              		.p2align 2,,3
 203              		.weak	_isatty
 204              		.syntax unified
 205              		.thumb
 206              		.thumb_func
 207              		.type	_isatty, %function
 208              	_isatty:
 209              	.LVL8:
 210              	.LFB5:
 211              		.loc 1 48 45 is_stmt 1 view -0
 212              		.cfi_startproc
 213              		@ args = 0, pretend = 0, frame = 0
 214              		@ frame_needed = 0, uses_anonymous_args = 0
 215              		@ link register save eliminated.
 216              		.loc 1 49 5 view .LVU47
 217              		.loc 1 50 5 view .LVU48
 218              		.loc 1 51 1 is_stmt 0 view .LVU49
 219 0000 0120     		movs	r0, #1
 220              	.LVL9:
 221              		.loc 1 51 1 view .LVU50
 222 0002 7047     		bx	lr
 223              		.cfi_endproc
 224              	.LFE5:
 225              		.size	_isatty, .-_isatty
 226              		.section	.text._kill,"ax",%progbits
 227              		.align	1
 228              		.p2align 2,,3
ARM GAS  C:\Users\DEVELO~1\AppData\Local\Temp\ccSgSxC6.s 			page 5


 229              		.weak	_kill
 230              		.syntax unified
 231              		.thumb
 232              		.thumb_func
 233              		.type	_kill, %function
 234              	_kill:
 235              	.LVL10:
 236              	.LFB6:
 237              		.loc 1 53 51 is_stmt 1 view -0
 238              		.cfi_startproc
 239              		@ args = 0, pretend = 0, frame = 0
 240              		@ frame_needed = 0, uses_anonymous_args = 0
 241              		.loc 1 54 5 view .LVU52
 242              		.loc 1 55 5 view .LVU53
 243              		.loc 1 56 5 view .LVU54
 244              		.loc 1 53 51 is_stmt 0 view .LVU55
 245 0000 08B5     		push	{r3, lr}
 246              		.cfi_def_cfa_offset 8
 247              		.cfi_offset 3, -8
 248              		.cfi_offset 14, -4
 249              		.loc 1 56 5 view .LVU56
 250 0002 FFF7FEFF 		bl	__errno
 251              	.LVL11:
 252              		.loc 1 56 11 view .LVU57
 253 0006 5822     		movs	r2, #88
 254              		.loc 1 56 5 view .LVU58
 255 0008 0346     		mov	r3, r0
 256              		.loc 1 58 1 view .LVU59
 257 000a 4FF0FF30 		mov	r0, #-1
 258              		.loc 1 56 11 view .LVU60
 259 000e 1A60     		str	r2, [r3]
 260              		.loc 1 57 5 is_stmt 1 view .LVU61
 261              		.loc 1 58 1 is_stmt 0 view .LVU62
 262 0010 08BD     		pop	{r3, pc}
 263              		.cfi_endproc
 264              	.LFE6:
 265              		.size	_kill, .-_kill
 266 0012 00BF     		.section	.text._getpid,"ax",%progbits
 267              		.align	1
 268              		.p2align 2,,3
 269              		.weak	_getpid
 270              		.syntax unified
 271              		.thumb
 272              		.thumb_func
 273              		.type	_getpid, %function
 274              	_getpid:
 275              	.LFB7:
 276              		.loc 1 60 41 is_stmt 1 view -0
 277              		.cfi_startproc
 278              		@ args = 0, pretend = 0, frame = 0
 279              		@ frame_needed = 0, uses_anonymous_args = 0
 280              		@ link register save eliminated.
 281              		.loc 1 61 5 view .LVU64
 282              		.loc 1 62 1 is_stmt 0 view .LVU65
 283 0000 0120     		movs	r0, #1
 284 0002 7047     		bx	lr
 285              		.cfi_endproc
ARM GAS  C:\Users\DEVELO~1\AppData\Local\Temp\ccSgSxC6.s 			page 6


 286              	.LFE7:
 287              		.size	_getpid, .-_getpid
 288              		.section	.text._exit,"ax",%progbits
 289              		.align	1
 290              		.p2align 2,,3
 291              		.weak	_exit
 292              		.syntax unified
 293              		.thumb
 294              		.thumb_func
 295              		.type	_exit, %function
 296              	_exit:
 297              	.LFB8:
 298              		.loc 1 64 46 is_stmt 1 view -0
 299              		.cfi_startproc
 300              		@ Volatile: function does not return.
 301              		@ args = 0, pretend = 0, frame = 0
 302              		@ frame_needed = 0, uses_anonymous_args = 0
 303              		@ link register save eliminated.
 304              	.LVL12:
 305              	.L20:
 306              		.loc 1 65 5 discriminator 1 view .LVU67
 307              		.loc 1 66 5 discriminator 1 view .LVU68
 308              		.loc 1 67 5 discriminator 1 view .LVU69
 309              		.loc 1 66 11 discriminator 1 view .LVU70
 310 0000 FEE7     		b	.L20
 311              		.cfi_endproc
 312              	.LFE8:
 313              		.size	_exit, .-_exit
 314 0002 00BF     		.section	.text._sbrk,"ax",%progbits
 315              		.align	1
 316              		.p2align 2,,3
 317              		.weak	_sbrk
 318              		.syntax unified
 319              		.thumb
 320              		.thumb_func
 321              		.type	_sbrk, %function
 322              	_sbrk:
 323              	.LVL13:
 324              	.LFB9:
 325              		.loc 1 70 47 view -0
 326              		.cfi_startproc
 327              		@ args = 0, pretend = 0, frame = 0
 328              		@ frame_needed = 0, uses_anonymous_args = 0
 329              		.loc 1 71 5 view .LVU72
 330              		.loc 1 72 5 view .LVU73
 331              		.loc 1 70 47 is_stmt 0 view .LVU74
 332 0000 08B5     		push	{r3, lr}
 333              		.cfi_def_cfa_offset 8
 334              		.cfi_offset 3, -8
 335              		.cfi_offset 14, -4
 336              		.loc 1 72 5 view .LVU75
 337 0002 FFF7FEFF 		bl	__errno
 338              	.LVL14:
 339              		.loc 1 72 11 view .LVU76
 340 0006 0C22     		movs	r2, #12
 341              		.loc 1 72 5 view .LVU77
 342 0008 0346     		mov	r3, r0
ARM GAS  C:\Users\DEVELO~1\AppData\Local\Temp\ccSgSxC6.s 			page 7


 343              		.loc 1 74 1 view .LVU78
 344 000a 4FF0FF30 		mov	r0, #-1
 345              		.loc 1 72 11 view .LVU79
 346 000e 1A60     		str	r2, [r3]
 347              		.loc 1 73 5 is_stmt 1 view .LVU80
 348              		.loc 1 74 1 is_stmt 0 view .LVU81
 349 0010 08BD     		pop	{r3, pc}
 350              		.cfi_endproc
 351              	.LFE9:
 352              		.size	_sbrk, .-_sbrk
 353 0012 00BF     		.text
 354              	.Letext0:
 355              		.file 2 "c:\\chibistudio\\tools\\gnu tools arm embedded\\11.3 2022.08\\arm-none-eabi\\include\\mac
 356              		.file 3 "c:\\chibistudio\\tools\\gnu tools arm embedded\\11.3 2022.08\\arm-none-eabi\\include\\sys
 357              		.file 4 "c:\\chibistudio\\tools\\gnu tools arm embedded\\11.3 2022.08\\arm-none-eabi\\include\\sys
 358              		.file 5 "c:\\chibistudio\\tools\\gnu tools arm embedded\\11.3 2022.08\\arm-none-eabi\\include\\sys
 359              		.file 6 "c:\\chibistudio\\tools\\gnu tools arm embedded\\11.3 2022.08\\arm-none-eabi\\include\\sys
 360              		.file 7 "c:\\chibistudio\\tools\\gnu tools arm embedded\\11.3 2022.08\\arm-none-eabi\\include\\sys
 361              		.file 8 "c:\\chibistudio\\tools\\gnu tools arm embedded\\11.3 2022.08\\arm-none-eabi\\include\\sys