ARM GAS  C:\Users\DEVELO~1\AppData\Local\Temp\ccQOvUsU.s 			page 1


   1              		.cpu cortex-m7
   2              		.arch armv7e-m
   3              		.fpu fpv5-d16
   4              		.eabi_attribute 28, 1
   5              		.eabi_attribute 20, 1
   6              		.eabi_attribute 21, 1
   7              		.eabi_attribute 23, 3
   8              		.eabi_attribute 24, 1
   9              		.eabi_attribute 25, 1
  10              		.eabi_attribute 26, 1
  11              		.eabi_attribute 30, 2
  12              		.eabi_attribute 34, 1
  13              		.eabi_attribute 18, 4
  14              		.file	"system_init.c"
  15              		.text
  16              	.Ltext0:
  17              		.cfi_sections	.debug_frame
  18              		.section	.text.system_init_early,"ax",%progbits
  19              		.align	1
  20              		.p2align 2,,3
  21              		.global	system_init_early
  22              		.syntax unified
  23              		.thumb
  24              		.thumb_func
  25              		.type	system_init_early, %function
  26              	system_init_early:
  27              	.LFB450:
  28              		.file 1 "system_init.c"
  29              		.loc 1 68 38 view -0
  30              		.cfi_startproc
  31              		@ args = 0, pretend = 0, frame = 0
  32              		@ frame_needed = 0, uses_anonymous_args = 0
  33              		.loc 1 69 3 view .LVU1
  34              		.loc 1 68 38 is_stmt 0 view .LVU2
  35 0000 70B5     		push	{r4, r5, r6, lr}
  36              		.cfi_def_cfa_offset 16
  37              		.cfi_offset 4, -16
  38              		.cfi_offset 5, -12
  39              		.cfi_offset 6, -8
  40              		.cfi_offset 14, -4
  41              		.loc 1 69 7 view .LVU3
  42 0002 364C     		ldr	r4, .L17
  43              		.loc 1 69 6 view .LVU4
  44 0004 2378     		ldrb	r3, [r4]	@ zero_extendqisi2
  45 0006 13B1     		cbz	r3, .L2
  46              		.loc 1 70 5 is_stmt 1 view .LVU5
  47              		.loc 1 70 12 is_stmt 0 view .LVU6
  48 0008 354B     		ldr	r3, .L17+4
  49 000a 1878     		ldrb	r0, [r3]	@ zero_extendqisi2
  50              	.L3:
  51              		.loc 1 89 1 view .LVU7
  52 000c 70BD     		pop	{r4, r5, r6, pc}
  53              	.L2:
  54              		.loc 1 73 3 is_stmt 1 view .LVU8
  55              		.loc 1 73 8 is_stmt 0 view .LVU9
  56 000e FFF7FEFF 		bl	mpu_config_init_once
  57              	.LVL0:
ARM GAS  C:\Users\DEVELO~1\AppData\Local\Temp\ccQOvUsU.s 			page 2


  58              		.loc 1 73 6 view .LVU10
  59 0012 38B9     		cbnz	r0, .L4
  60              		.loc 1 74 5 is_stmt 1 view .LVU11
  61              	.LVL1:
  62              	.LBB58:
  63              	.LBI58:
  64              		.loc 1 53 13 view .LVU12
  65              	.LBB59:
  66              		.loc 1 54 3 view .LVU13
  67              		.loc 1 54 18 is_stmt 0 view .LVU14
  68 0014 324B     		ldr	r3, .L17+4
  69 0016 1878     		ldrb	r0, [r3]	@ zero_extendqisi2
  70              		.loc 1 54 6 view .LVU15
  71 0018 0028     		cmp	r0, #0
  72 001a F7D1     		bne	.L3
  73              		.loc 1 55 5 is_stmt 1 view .LVU16
  74              		.loc 1 55 16 is_stmt 0 view .LVU17
  75 001c 0122     		movs	r2, #1
  76 001e 1046     		mov	r0, r2
  77              	.LVL2:
  78              		.loc 1 55 16 view .LVU18
  79              	.LBE59:
  80              	.LBE58:
  81              		.loc 1 75 5 is_stmt 1 view .LVU19
  82              	.LBB61:
  83              	.LBB60:
  84              		.loc 1 55 16 is_stmt 0 view .LVU20
  85 0020 1A70     		strb	r2, [r3]
  86              	.LBE60:
  87              	.LBE61:
  88              		.loc 1 89 1 view .LVU21
  89 0022 70BD     		pop	{r4, r5, r6, pc}
  90              	.L4:
  91              		.loc 1 78 3 is_stmt 1 view .LVU22
  92              	.LBB62:
  93              	.LBI62:
  94              		.loc 1 59 13 view .LVU23
  95              	.LBB63:
  96              		.loc 1 60 3 view .LVU24
  97              		.loc 1 60 7 is_stmt 0 view .LVU25
  98 0024 2F4E     		ldr	r6, .L17+8
  99              		.loc 1 60 6 view .LVU26
 100 0026 3378     		ldrb	r3, [r6]	@ zero_extendqisi2
 101 0028 9BB1     		cbz	r3, .L15
 102              	.LBE63:
 103              	.LBE62:
 104              		.loc 1 80 3 is_stmt 1 view .LVU27
 105 002a 0120     		movs	r0, #1
 106 002c FFF7FEFF 		bl	sdram_init
 107              	.LVL3:
 108              		.loc 1 81 3 view .LVU28
 109              		.loc 1 81 37 is_stmt 0 view .LVU29
 110 0030 FFF7FEFF 		bl	sdram_status
 111              	.LVL4:
 112              		.loc 1 82 3 is_stmt 1 view .LVU30
 113              		.loc 1 82 6 is_stmt 0 view .LVU31
 114 0034 0228     		cmp	r0, #2
ARM GAS  C:\Users\DEVELO~1\AppData\Local\Temp\ccQOvUsU.s 			page 3


 115 0036 07D0     		beq	.L9
 116              	.L16:
 117              		.loc 1 83 5 is_stmt 1 view .LVU32
 118              	.LVL5:
 119              	.LBB90:
 120              	.LBI90:
 121              		.loc 1 53 13 view .LVU33
 122              	.LBB91:
 123              		.loc 1 54 3 view .LVU34
 124              		.loc 1 54 18 is_stmt 0 view .LVU35
 125 0038 294B     		ldr	r3, .L17+4
 126 003a 1878     		ldrb	r0, [r3]	@ zero_extendqisi2
 127              	.LVL6:
 128              		.loc 1 54 6 view .LVU36
 129 003c 0028     		cmp	r0, #0
 130 003e E5D1     		bne	.L3
 131              		.loc 1 55 5 is_stmt 1 view .LVU37
 132              		.loc 1 55 16 is_stmt 0 view .LVU38
 133 0040 0222     		movs	r2, #2
 134 0042 1046     		mov	r0, r2
 135              	.LVL7:
 136              		.loc 1 55 16 view .LVU39
 137              	.LBE91:
 138              	.LBE90:
 139              		.loc 1 84 5 is_stmt 1 view .LVU40
 140              	.LBB93:
 141              	.LBB92:
 142              		.loc 1 55 16 is_stmt 0 view .LVU41
 143 0044 1A70     		strb	r2, [r3]
 144              	.LBE92:
 145              	.LBE93:
 146              		.loc 1 89 1 view .LVU42
 147 0046 70BD     		pop	{r4, r5, r6, pc}
 148              	.LVL8:
 149              	.L9:
 150              		.loc 1 87 3 is_stmt 1 view .LVU43
 151              		.loc 1 88 10 is_stmt 0 view .LVU44
 152 0048 254A     		ldr	r2, .L17+4
 153              		.loc 1 87 14 view .LVU45
 154 004a 0123     		movs	r3, #1
 155              		.loc 1 88 10 view .LVU46
 156 004c 1078     		ldrb	r0, [r2]	@ zero_extendqisi2
 157              	.LVL9:
 158              		.loc 1 87 14 view .LVU47
 159 004e 2370     		strb	r3, [r4]
 160              		.loc 1 88 3 is_stmt 1 view .LVU48
 161              		.loc 1 89 1 is_stmt 0 view .LVU49
 162 0050 70BD     		pop	{r4, r5, r6, pc}
 163              	.L15:
 164              	.LBB94:
 165              	.LBB88:
 166              		.loc 1 63 3 is_stmt 1 view .LVU50
 167              	.LBB64:
 168              	.LBI64:
 169              		.file 2 "./docs/ChibiOS/os/common/ext/ARM/CMSIS/Core/Include/core_cm7.h"
 170              		.loc 2 2229 22 view .LVU51
 171              	.LBB65:
ARM GAS  C:\Users\DEVELO~1\AppData\Local\Temp\ccQOvUsU.s 			page 4


 172              		.loc 2 2232 5 view .LVU52
 173              	.LBB66:
 174              	.LBI66:
 175              		.file 3 "./docs/ChibiOS/os/common/ext/ARM/CMSIS/Core/Include/cmsis_gcc.h"
 176              		.loc 3 877 27 view .LVU53
 177              	.LBB67:
 178              		.loc 3 879 3 view .LVU54
 179              		.syntax unified
 180              	@ 879 "./docs/ChibiOS/os/common/ext/ARM/CMSIS/Core/Include/cmsis_gcc.h" 1
 181 0052 BFF34F8F 		dsb 0xF
 182              	@ 0 "" 2
 183              		.thumb
 184              		.syntax unified
 185              	.LBE67:
 186              	.LBE66:
 187              		.loc 2 2233 5 view .LVU55
 188              	.LBB68:
 189              	.LBI68:
 190              		.loc 3 866 27 view .LVU56
 191              	.LBB69:
 192              		.loc 3 868 3 view .LVU57
 193              		.syntax unified
 194              	@ 868 "./docs/ChibiOS/os/common/ext/ARM/CMSIS/Core/Include/cmsis_gcc.h" 1
 195 0056 BFF36F8F 		isb 0xF
 196              	@ 0 "" 2
 197              		.thumb
 198              		.syntax unified
 199              	.LBE69:
 200              	.LBE68:
 201              		.loc 2 2234 5 view .LVU58
 202              		.loc 2 2234 18 is_stmt 0 view .LVU59
 203 005a 2348     		ldr	r0, .L17+12
 204 005c C0F85032 		str	r3, [r0, #592]
 205              		.loc 2 2235 5 is_stmt 1 view .LVU60
 206              	.LBB70:
 207              	.LBI70:
 208              		.loc 3 877 27 view .LVU61
 209              	.LBB71:
 210              		.loc 3 879 3 view .LVU62
 211              		.syntax unified
 212              	@ 879 "./docs/ChibiOS/os/common/ext/ARM/CMSIS/Core/Include/cmsis_gcc.h" 1
 213 0060 BFF34F8F 		dsb 0xF
 214              	@ 0 "" 2
 215              		.thumb
 216              		.syntax unified
 217              	.LBE71:
 218              	.LBE70:
 219              		.loc 2 2236 5 view .LVU63
 220              	.LBB72:
 221              	.LBI72:
 222              		.loc 3 866 27 view .LVU64
 223              	.LBB73:
 224              		.loc 3 868 3 view .LVU65
 225              		.syntax unified
 226              	@ 868 "./docs/ChibiOS/os/common/ext/ARM/CMSIS/Core/Include/cmsis_gcc.h" 1
 227 0064 BFF36F8F 		isb 0xF
 228              	@ 0 "" 2
ARM GAS  C:\Users\DEVELO~1\AppData\Local\Temp\ccQOvUsU.s 			page 5


 229              		.thumb
 230              		.syntax unified
 231              	.LBE73:
 232              	.LBE72:
 233              		.loc 2 2237 5 view .LVU66
 234              		.loc 2 2237 14 is_stmt 0 view .LVU67
 235 0068 4269     		ldr	r2, [r0, #20]
 236 006a 42F40032 		orr	r2, r2, #131072
 237 006e 4261     		str	r2, [r0, #20]
 238              		.loc 2 2238 5 is_stmt 1 view .LVU68
 239              	.LBB74:
 240              	.LBI74:
 241              		.loc 3 877 27 view .LVU69
 242              	.LBB75:
 243              		.loc 3 879 3 view .LVU70
 244              		.syntax unified
 245              	@ 879 "./docs/ChibiOS/os/common/ext/ARM/CMSIS/Core/Include/cmsis_gcc.h" 1
 246 0070 BFF34F8F 		dsb 0xF
 247              	@ 0 "" 2
 248              		.thumb
 249              		.syntax unified
 250              	.LBE75:
 251              	.LBE74:
 252              		.loc 2 2239 5 view .LVU71
 253              	.LBB76:
 254              	.LBI76:
 255              		.loc 3 866 27 view .LVU72
 256              	.LBB77:
 257              		.loc 3 868 3 view .LVU73
 258              		.syntax unified
 259              	@ 868 "./docs/ChibiOS/os/common/ext/ARM/CMSIS/Core/Include/cmsis_gcc.h" 1
 260 0074 BFF36F8F 		isb 0xF
 261              	@ 0 "" 2
 262              		.thumb
 263              		.syntax unified
 264              	.LBE77:
 265              	.LBE76:
 266              	.LBE65:
 267              	.LBE64:
 268              		.loc 1 64 3 view .LVU74
 269              	.LBB78:
 270              	.LBI78:
 271              		.loc 2 2281 22 view .LVU75
 272              	.LBB79:
 273              		.loc 2 2284 5 view .LVU76
 274              		.loc 2 2285 5 view .LVU77
 275              		.loc 2 2286 5 view .LVU78
 276              		.loc 2 2288 5 view .LVU79
 277              		.loc 2 2288 17 is_stmt 0 view .LVU80
 278 0078 C0F88430 		str	r3, [r0, #132]
 279              		.loc 2 2289 5 is_stmt 1 view .LVU81
 280              	.LBB80:
 281              	.LBI80:
 282              		.loc 3 877 27 view .LVU82
 283              	.LBB81:
 284              		.loc 3 879 3 view .LVU83
 285              		.syntax unified
ARM GAS  C:\Users\DEVELO~1\AppData\Local\Temp\ccQOvUsU.s 			page 6


 286              	@ 879 "./docs/ChibiOS/os/common/ext/ARM/CMSIS/Core/Include/cmsis_gcc.h" 1
 287 007c BFF34F8F 		dsb 0xF
 288              	@ 0 "" 2
 289              		.thumb
 290              		.syntax unified
 291              	.LBE81:
 292              	.LBE80:
 293              		.loc 2 2291 5 view .LVU84
 294              		.loc 2 2291 12 is_stmt 0 view .LVU85
 295 0080 D0F88030 		ldr	r3, [r0, #128]
 296              	.LVL10:
 297              		.loc 2 2294 5 is_stmt 1 view .LVU86
 298              		.loc 2 2298 52 is_stmt 0 view .LVU87
 299 0084 43F6E07E 		movw	lr, #16352
 300              		.loc 2 2296 12 view .LVU88
 301 0088 C3F3C905 		ubfx	r5, r3, #3, #10
 302              		.loc 2 2294 10 view .LVU89
 303 008c C3F34E33 		ubfx	r3, r3, #13, #15
 304              	.LVL11:
 305              		.loc 2 2294 10 view .LVU90
 306 0090 4FEA431C 		lsl	ip, r3, #5
 307              	.L8:
 308              		.loc 2 2295 5 is_stmt 1 view .LVU91
 309              		.loc 2 2296 7 view .LVU92
 310              	.LVL12:
 311              		.loc 2 2298 52 is_stmt 0 view .LVU93
 312 0094 0CEA0E01 		and	r1, ip, lr
 313              		.loc 2 2296 12 view .LVU94
 314 0098 2B46     		mov	r3, r5
 315              	.L7:
 316              	.LVL13:
 317              		.loc 2 2297 7 is_stmt 1 view .LVU95
 318              		.loc 2 2298 9 view .LVU96
 319              		.loc 2 2298 73 is_stmt 0 view .LVU97
 320 009a 41EA8372 		orr	r2, r1, r3, lsl #30
 321              		.loc 2 2303 20 view .LVU98
 322 009e 013B     		subs	r3, r3, #1
 323              	.LVL14:
 324              		.loc 2 2298 20 view .LVU99
 325 00a0 C0F86022 		str	r2, [r0, #608]
 326              		.loc 2 2303 23 is_stmt 1 view .LVU100
 327              	.LVL15:
 328              		.loc 2 2303 23 is_stmt 0 view .LVU101
 329 00a4 5A1C     		adds	r2, r3, #1
 330 00a6 F8D1     		bne	.L7
 331              		.loc 2 2304 20 is_stmt 1 view .LVU102
 332 00a8 ACF1200C 		sub	ip, ip, #32
 333 00ac 1CF1200F 		cmn	ip, #32
 334 00b0 F0D1     		bne	.L8
 335              		.loc 2 2305 5 view .LVU103
 336              	.LBB82:
 337              	.LBI82:
 338              		.loc 3 877 27 view .LVU104
 339              	.LBB83:
 340              		.loc 3 879 3 view .LVU105
 341              		.syntax unified
 342              	@ 879 "./docs/ChibiOS/os/common/ext/ARM/CMSIS/Core/Include/cmsis_gcc.h" 1
ARM GAS  C:\Users\DEVELO~1\AppData\Local\Temp\ccQOvUsU.s 			page 7


 343 00b2 BFF34F8F 		dsb 0xF
 344              	@ 0 "" 2
 345              		.thumb
 346              		.syntax unified
 347              	.LBE83:
 348              	.LBE82:
 349              		.loc 2 2307 5 view .LVU106
 350              		.loc 2 2307 14 is_stmt 0 view .LVU107
 351 00b6 4369     		ldr	r3, [r0, #20]
 352              	.LVL16:
 353              		.loc 2 2307 14 view .LVU108
 354 00b8 43F48033 		orr	r3, r3, #65536
 355 00bc 4361     		str	r3, [r0, #20]
 356              		.loc 2 2309 5 is_stmt 1 view .LVU109
 357              	.LBB84:
 358              	.LBI84:
 359              		.loc 3 877 27 view .LVU110
 360              	.LBB85:
 361              		.loc 3 879 3 view .LVU111
 362              		.syntax unified
 363              	@ 879 "./docs/ChibiOS/os/common/ext/ARM/CMSIS/Core/Include/cmsis_gcc.h" 1
 364 00be BFF34F8F 		dsb 0xF
 365              	@ 0 "" 2
 366              		.thumb
 367              		.syntax unified
 368              	.LBE85:
 369              	.LBE84:
 370              		.loc 2 2310 5 view .LVU112
 371              	.LBB86:
 372              	.LBI86:
 373              		.loc 3 866 27 view .LVU113
 374              	.LBB87:
 375              		.loc 3 868 3 view .LVU114
 376              		.syntax unified
 377              	@ 868 "./docs/ChibiOS/os/common/ext/ARM/CMSIS/Core/Include/cmsis_gcc.h" 1
 378 00c2 BFF36F8F 		isb 0xF
 379              	@ 0 "" 2
 380              	.LVL17:
 381              		.loc 3 868 3 is_stmt 0 view .LVU115
 382              		.thumb
 383              		.syntax unified
 384              	.LBE87:
 385              	.LBE86:
 386              	.LBE79:
 387              	.LBE78:
 388              		.loc 1 65 3 is_stmt 1 view .LVU116
 389              		.loc 1 65 18 is_stmt 0 view .LVU117
 390 00c6 0123     		movs	r3, #1
 391              	.LBE88:
 392              	.LBE94:
 393              		.loc 1 80 3 view .LVU118
 394 00c8 0120     		movs	r0, #1
 395              	.LBB95:
 396              	.LBB89:
 397              		.loc 1 65 18 view .LVU119
 398 00ca 3370     		strb	r3, [r6]
 399              	.LBE89:
ARM GAS  C:\Users\DEVELO~1\AppData\Local\Temp\ccQOvUsU.s 			page 8


 400              	.LBE95:
 401              		.loc 1 80 3 is_stmt 1 view .LVU120
 402 00cc FFF7FEFF 		bl	sdram_init
 403              	.LVL18:
 404              		.loc 1 81 3 view .LVU121
 405              		.loc 1 81 37 is_stmt 0 view .LVU122
 406 00d0 FFF7FEFF 		bl	sdram_status
 407              	.LVL19:
 408              		.loc 1 82 3 is_stmt 1 view .LVU123
 409              		.loc 1 82 6 is_stmt 0 view .LVU124
 410 00d4 0228     		cmp	r0, #2
 411 00d6 B7D0     		beq	.L9
 412 00d8 AEE7     		b	.L16
 413              	.L18:
 414 00da 00BF     		.align	2
 415              	.L17:
 416 00dc 00000000 		.word	.LANCHOR0
 417 00e0 00000000 		.word	.LANCHOR1
 418 00e4 00000000 		.word	.LANCHOR2
 419 00e8 00ED00E0 		.word	-536810240
 420              		.cfi_endproc
 421              	.LFE450:
 422              		.size	system_init_early, .-system_init_early
 423              		.section	.text.system_init_drivers,"ax",%progbits
 424              		.align	1
 425              		.p2align 2,,3
 426              		.global	system_init_drivers
 427              		.syntax unified
 428              		.thumb
 429              		.thumb_func
 430              		.type	system_init_drivers, %function
 431              	system_init_drivers:
 432              	.LFB451:
 433              		.loc 1 91 40 is_stmt 1 view -0
 434              		.cfi_startproc
 435              		@ args = 0, pretend = 0, frame = 0
 436              		@ frame_needed = 0, uses_anonymous_args = 0
 437              		.loc 1 92 3 view .LVU126
 438              		.loc 1 91 40 is_stmt 0 view .LVU127
 439 0000 38B5     		push	{r3, r4, r5, lr}
 440              		.cfi_def_cfa_offset 16
 441              		.cfi_offset 3, -16
 442              		.cfi_offset 4, -12
 443              		.cfi_offset 5, -8
 444              		.cfi_offset 14, -4
 445              		.loc 1 92 18 view .LVU128
 446 0002 064C     		ldr	r4, .L23
 447 0004 2078     		ldrb	r0, [r4]	@ zero_extendqisi2
 448              		.loc 1 92 6 view .LVU129
 449 0006 10B9     		cbnz	r0, .L20
 450              		.loc 1 96 3 is_stmt 1 view .LVU130
 451              		.loc 1 96 7 is_stmt 0 view .LVU131
 452 0008 054D     		ldr	r5, .L23+4
 453              		.loc 1 96 6 view .LVU132
 454 000a 2B78     		ldrb	r3, [r5]	@ zero_extendqisi2
 455 000c 03B1     		cbz	r3, .L22
 456              	.L20:
ARM GAS  C:\Users\DEVELO~1\AppData\Local\Temp\ccQOvUsU.s 			page 9


 457              		.loc 1 104 1 view .LVU133
 458 000e 38BD     		pop	{r3, r4, r5, pc}
 459              	.L22:
 460              		.loc 1 100 3 is_stmt 1 view .LVU134
 461 0010 FFF7FEFF 		bl	drivers_init_all
 462              	.LVL20:
 463              		.loc 1 102 3 view .LVU135
 464              		.loc 1 102 16 is_stmt 0 view .LVU136
 465 0014 0123     		movs	r3, #1
 466              		.loc 1 103 10 view .LVU137
 467 0016 2078     		ldrb	r0, [r4]	@ zero_extendqisi2
 468              		.loc 1 102 16 view .LVU138
 469 0018 2B70     		strb	r3, [r5]
 470              		.loc 1 103 3 is_stmt 1 view .LVU139
 471              		.loc 1 104 1 is_stmt 0 view .LVU140
 472 001a 38BD     		pop	{r3, r4, r5, pc}
 473              	.L24:
 474              		.align	2
 475              	.L23:
 476 001c 00000000 		.word	.LANCHOR1
 477 0020 00000000 		.word	.LANCHOR3
 478              		.cfi_endproc
 479              	.LFE451:
 480              		.size	system_init_drivers, .-system_init_drivers
 481              		.section	.text.system_init_late,"ax",%progbits
 482              		.align	1
 483              		.p2align 2,,3
 484              		.global	system_init_late
 485              		.syntax unified
 486              		.thumb
 487              		.thumb_func
 488              		.type	system_init_late, %function
 489              	system_init_late:
 490              	.LFB452:
 491              		.loc 1 106 37 is_stmt 1 view -0
 492              		.cfi_startproc
 493              		@ args = 0, pretend = 0, frame = 0
 494              		@ frame_needed = 0, uses_anonymous_args = 0
 495              		.loc 1 107 3 view .LVU142
 496              		.loc 1 106 37 is_stmt 0 view .LVU143
 497 0000 70B5     		push	{r4, r5, r6, lr}
 498              		.cfi_def_cfa_offset 16
 499              		.cfi_offset 4, -16
 500              		.cfi_offset 5, -12
 501              		.cfi_offset 6, -8
 502              		.cfi_offset 14, -4
 503              		.loc 1 107 18 view .LVU144
 504 0002 124C     		ldr	r4, .L34
 505 0004 2078     		ldrb	r0, [r4]	@ zero_extendqisi2
 506              		.loc 1 107 6 view .LVU145
 507 0006 10B9     		cbnz	r0, .L26
 508              		.loc 1 111 3 is_stmt 1 view .LVU146
 509              		.loc 1 111 7 is_stmt 0 view .LVU147
 510 0008 114D     		ldr	r5, .L34+4
 511              		.loc 1 111 6 view .LVU148
 512 000a 2B78     		ldrb	r3, [r5]	@ zero_extendqisi2
 513 000c 03B1     		cbz	r3, .L31
ARM GAS  C:\Users\DEVELO~1\AppData\Local\Temp\ccQOvUsU.s 			page 10


 514              	.L26:
 515              		.loc 1 145 1 view .LVU149
 516 000e 70BD     		pop	{r4, r5, r6, pc}
 517              	.L31:
 518              		.loc 1 115 3 is_stmt 1 view .LVU150
 519 0010 FFF7FEFF 		bl	usb_device_start
 520              	.LVL21:
 521              		.loc 1 116 3 view .LVU151
 522 0014 FFF7FEFF 		bl	usb_host_midi_init
 523              	.LVL22:
 524              		.loc 1 117 3 view .LVU152
 525 0018 FFF7FEFF 		bl	midi_init
 526              	.LVL23:
 527              		.loc 1 119 3 view .LVU153
 528              		.loc 1 119 34 is_stmt 0 view .LVU154
 529 001c FFF7FEFF 		bl	drv_sd_init
 530              	.LVL24:
 531              		.loc 1 120 3 is_stmt 1 view .LVU155
 532              		.loc 1 128 10 view .LVU156
 533              		.loc 1 128 13 is_stmt 0 view .LVU157
 534 0020 0128     		cmp	r0, #1
 535 0022 0BD8     		bhi	.L32
 536              		.loc 1 133 3 is_stmt 1 view .LVU158
 537              		.loc 1 133 7 is_stmt 0 view .LVU159
 538 0024 0B4E     		ldr	r6, .L34+8
 539              		.loc 1 133 6 view .LVU160
 540 0026 3378     		ldrb	r3, [r6]	@ zero_extendqisi2
 541 0028 1BB1     		cbz	r3, .L33
 542              	.LVL25:
 543              	.L29:
 544              		.loc 1 138 3 is_stmt 1 view .LVU161
 545              		.loc 1 143 3 view .LVU162
 546              		.loc 1 143 13 is_stmt 0 view .LVU163
 547 002a 0123     		movs	r3, #1
 548              		.loc 1 144 10 view .LVU164
 549 002c 2078     		ldrb	r0, [r4]	@ zero_extendqisi2
 550              		.loc 1 143 13 view .LVU165
 551 002e 2B70     		strb	r3, [r5]
 552              		.loc 1 144 3 is_stmt 1 view .LVU166
 553              		.loc 1 145 1 is_stmt 0 view .LVU167
 554 0030 70BD     		pop	{r4, r5, r6, pc}
 555              	.LVL26:
 556              	.L33:
 557              		.loc 1 134 5 is_stmt 1 view .LVU168
 558 0032 FFF7FEFF 		bl	drv_audio_init
 559              	.LVL27:
 560              		.loc 1 135 5 view .LVU169
 561              		.loc 1 135 23 is_stmt 0 view .LVU170
 562 0036 0123     		movs	r3, #1
 563 0038 3370     		strb	r3, [r6]
 564 003a F6E7     		b	.L29
 565              	.LVL28:
 566              	.L32:
 567              		.loc 1 129 5 is_stmt 1 view .LVU171
 568              	.LBB96:
 569              	.LBI96:
 570              		.loc 1 53 13 view .LVU172
ARM GAS  C:\Users\DEVELO~1\AppData\Local\Temp\ccQOvUsU.s 			page 11


 571              	.LBB97:
 572              		.loc 1 54 3 view .LVU173
 573              		.loc 1 54 18 is_stmt 0 view .LVU174
 574 003c 2078     		ldrb	r0, [r4]	@ zero_extendqisi2
 575              	.LVL29:
 576              		.loc 1 54 6 view .LVU175
 577 003e 0028     		cmp	r0, #0
 578 0040 E5D1     		bne	.L26
 579              		.loc 1 55 5 is_stmt 1 view .LVU176
 580              		.loc 1 55 16 is_stmt 0 view .LVU177
 581 0042 0323     		movs	r3, #3
 582 0044 1846     		mov	r0, r3
 583              	.LVL30:
 584              		.loc 1 55 16 view .LVU178
 585              	.LBE97:
 586              	.LBE96:
 587              		.loc 1 130 5 is_stmt 1 view .LVU179
 588              	.LBB99:
 589              	.LBB98:
 590              		.loc 1 55 16 is_stmt 0 view .LVU180
 591 0046 2370     		strb	r3, [r4]
 592              	.LBE98:
 593              	.LBE99:
 594              		.loc 1 145 1 view .LVU181
 595 0048 70BD     		pop	{r4, r5, r6, pc}
 596              	.L35:
 597 004a 00BF     		.align	2
 598              	.L34:
 599 004c 00000000 		.word	.LANCHOR1
 600 0050 00000000 		.word	.LANCHOR4
 601 0054 00000000 		.word	.LANCHOR5
 602              		.cfi_endproc
 603              	.LFE452:
 604              		.size	system_init_late, .-system_init_late
 605              		.section	.text.system_is_initialized,"ax",%progbits
 606              		.align	1
 607              		.p2align 2,,3
 608              		.global	system_is_initialized
 609              		.syntax unified
 610              		.thumb
 611              		.thumb_func
 612              		.type	system_is_initialized, %function
 613              	system_is_initialized:
 614              	.LFB453:
 615              		.loc 1 147 34 is_stmt 1 view -0
 616              		.cfi_startproc
 617              		@ args = 0, pretend = 0, frame = 0
 618              		@ frame_needed = 0, uses_anonymous_args = 0
 619              		@ link register save eliminated.
 620              		.loc 1 148 3 view .LVU183
 621              		.loc 1 148 22 is_stmt 0 view .LVU184
 622 0000 064B     		ldr	r3, .L45
 623              		.loc 1 148 63 view .LVU185
 624 0002 1B78     		ldrb	r3, [r3]	@ zero_extendqisi2
 625 0004 43B9     		cbnz	r3, .L38
 626              		.loc 1 148 33 discriminator 1 view .LVU186
 627 0006 064B     		ldr	r3, .L45+4
ARM GAS  C:\Users\DEVELO~1\AppData\Local\Temp\ccQOvUsU.s 			page 12


 628 0008 1878     		ldrb	r0, [r3]	@ zero_extendqisi2
 629 000a 30B1     		cbz	r0, .L37
 630              		.loc 1 148 47 discriminator 3 view .LVU187
 631 000c 054B     		ldr	r3, .L45+8
 632 000e 1878     		ldrb	r0, [r3]	@ zero_extendqisi2
 633 0010 18B1     		cbz	r0, .L37
 634              		.loc 1 148 63 discriminator 5 view .LVU188
 635 0012 054B     		ldr	r3, .L45+12
 636 0014 1878     		ldrb	r0, [r3]	@ zero_extendqisi2
 637 0016 7047     		bx	lr
 638              	.L38:
 639 0018 0020     		movs	r0, #0
 640              	.L37:
 641              		.loc 1 149 1 discriminator 10 view .LVU189
 642 001a 7047     		bx	lr
 643              	.L46:
 644              		.align	2
 645              	.L45:
 646 001c 00000000 		.word	.LANCHOR1
 647 0020 00000000 		.word	.LANCHOR0
 648 0024 00000000 		.word	.LANCHOR3
 649 0028 00000000 		.word	.LANCHOR4
 650              		.cfi_endproc
 651              	.LFE453:
 652              		.size	system_is_initialized, .-system_is_initialized
 653              		.section	.text.system_last_error,"ax",%progbits
 654              		.align	1
 655              		.p2align 2,,3
 656              		.global	system_last_error
 657              		.syntax unified
 658              		.thumb
 659              		.thumb_func
 660              		.type	system_last_error, %function
 661              	system_last_error:
 662              	.LFB454:
 663              		.loc 1 151 38 is_stmt 1 view -0
 664              		.cfi_startproc
 665              		@ args = 0, pretend = 0, frame = 0
 666              		@ frame_needed = 0, uses_anonymous_args = 0
 667              		@ link register save eliminated.
 668              		.loc 1 151 40 view .LVU191
 669              		.loc 1 151 47 is_stmt 0 view .LVU192
 670 0000 014B     		ldr	r3, .L48
 671              		.loc 1 151 59 view .LVU193
 672 0002 1878     		ldrb	r0, [r3]	@ zero_extendqisi2
 673 0004 7047     		bx	lr
 674              	.L49:
 675 0006 00BF     		.align	2
 676              	.L48:
 677 0008 00000000 		.word	.LANCHOR1
 678              		.cfi_endproc
 679              	.LFE454:
 680              		.size	system_last_error, .-system_last_error
 681              		.section	.bss.audio_initialized,"aw",%nobits
 682              		.set	.LANCHOR5,. + 0
 683              		.type	audio_initialized, %object
 684              		.size	audio_initialized, 1
ARM GAS  C:\Users\DEVELO~1\AppData\Local\Temp\ccQOvUsU.s 			page 13


 685              	audio_initialized:
 686 0000 00       		.space	1
 687              		.section	.bss.caches_enabled,"aw",%nobits
 688              		.set	.LANCHOR2,. + 0
 689              		.type	caches_enabled, %object
 690              		.size	caches_enabled, 1
 691              	caches_enabled:
 692 0000 00       		.space	1
 693              		.section	.bss.drivers_done,"aw",%nobits
 694              		.set	.LANCHOR3,. + 0
 695              		.type	drivers_done, %object
 696              		.size	drivers_done, 1
 697              	drivers_done:
 698 0000 00       		.space	1
 699              		.section	.bss.early_done,"aw",%nobits
 700              		.set	.LANCHOR0,. + 0
 701              		.type	early_done, %object
 702              		.size	early_done, 1
 703              	early_done:
 704 0000 00       		.space	1
 705              		.section	.bss.last_error,"aw",%nobits
 706              		.set	.LANCHOR1,. + 0
 707              		.type	last_error, %object
 708              		.size	last_error, 1
 709              	last_error:
 710 0000 00       		.space	1
 711              		.section	.bss.late_done,"aw",%nobits
 712              		.set	.LANCHOR4,. + 0
 713              		.type	late_done, %object
 714              		.size	late_done, 1
 715              	late_done:
 716 0000 00       		.space	1
 717              		.text
 718              	.Letext0:
 719              		.file 4 "c:\\chibistudio\\tools\\gnu tools arm embedded\\11.3 2022.08\\arm-none-eabi\\include\\mac
 720              		.file 5 "c:\\chibistudio\\tools\\gnu tools arm embedded\\11.3 2022.08\\arm-none-eabi\\include\\sys
 721              		.file 6 "system_init.h"
 722              		.file 7 "c:\\chibistudio\\tools\\gnu tools arm embedded\\11.3 2022.08\\lib\\gcc\\arm-none-eabi\\11
 723              		.file 8 "drivers/sd/drv_sd.h"
 724              		.file 9 "drivers/sdram/sdram_driver.h"
 725              		.file 10 "drivers/audio/drv_audio.h"
 726              		.file 11 "drivers/midi/midi.h"
 727              		.file 12 "./drivers/usb/usb_host/usb_host_midi.h"
 728              		.file 13 "drivers/usb/usb_device.h"
 729              		.file 14 "drivers/drivers.h"
 730              		.file 15 "drivers/mpu_config.h"