ARM GAS  C:\Users\DEVELO~1\AppData\Local\Temp\ccCLhSaG.s 			page 1


   1              		.cpu cortex-m7
   2              		.arch armv7e-m
   3              		.fpu fpv5-d16
   4              		.eabi_attribute 28, 1
   5              		.eabi_attribute 20, 1
   6              		.eabi_attribute 21, 1
   7              		.eabi_attribute 23, 3
   8              		.eabi_attribute 24, 1
   9              		.eabi_attribute 25, 1
  10              		.eabi_attribute 26, 1
  11              		.eabi_attribute 30, 2
  12              		.eabi_attribute 34, 1
  13              		.eabi_attribute 18, 4
  14              		.file	"usb_host_memory.c"
  15              		.text
  16              	.Ltext0:
  17              		.cfi_sections	.debug_frame
  18              		.section	.text.USBH_static_mem_reset,"ax",%progbits
  19              		.align	1
  20              		.p2align 2,,3
  21              		.global	USBH_static_mem_reset
  22              		.syntax unified
  23              		.thumb
  24              		.thumb_func
  25              		.type	USBH_static_mem_reset, %function
  26              	USBH_static_mem_reset:
  27              	.LFB356:
  28              		.file 1 "./usb_host/usb_host_memory.c"
  29              		.loc 1 18 1 view -0
  30              		.cfi_startproc
  31              		@ args = 0, pretend = 0, frame = 0
  32              		@ frame_needed = 0, uses_anonymous_args = 0
  33              		@ link register save eliminated.
  34              		.loc 1 19 3 view .LVU1
  35              	.LBB46:
  36              	.LBI46:
  37              		.file 2 "./docs/ChibiOS/os/rt/include/chsys.h"
  38              		.loc 2 372 20 view .LVU2
  39              		.loc 2 374 3 view .LVU3
  40              	.LBB47:
  41              	.LBI47:
  42              		.file 3 "./docs/ChibiOS/os/common/ports/ARMv7-M/chcore.h"
  43              		.loc 3 840 27 view .LVU4
  44              		.loc 3 848 3 view .LVU5
  45              	.LVL0:
  46              	.LBB48:
  47              	.LBI48:
  48              		.file 4 "./docs/ChibiOS/os/common/ext/ARM/CMSIS/Core/Include/cmsis_gcc.h"
  49              		.loc 4 491 27 view .LVU6
  50              	.LBB49:
  51              		.loc 4 493 3 view .LVU7
  52 0000 3023     		movs	r3, #48
  53              		.syntax unified
  54              	@ 493 "./docs/ChibiOS/os/common/ext/ARM/CMSIS/Core/Include/cmsis_gcc.h" 1
  55 0002 83F31188 		MSR basepri, r3
  56              	@ 0 "" 2
  57              	.LVL1:
ARM GAS  C:\Users\DEVELO~1\AppData\Local\Temp\ccCLhSaG.s 			page 2


  58              		.loc 4 493 3 is_stmt 0 view .LVU8
  59              		.thumb
  60              		.syntax unified
  61              	.LBE49:
  62              	.LBE48:
  63              	.LBE47:
  64              		.loc 2 375 35 is_stmt 1 view .LVU9
  65              		.loc 2 376 21 view .LVU10
  66              	.LBE46:
  67              		.loc 1 20 3 view .LVU11
  68              		.loc 1 20 22 is_stmt 0 view .LVU12
  69 0006 0023     		movs	r3, #0
  70 0008 0349     		ldr	r1, .L3
  71              		.loc 1 21 25 view .LVU13
  72 000a 044A     		ldr	r2, .L3+4
  73              		.loc 1 20 22 view .LVU14
  74 000c 0B60     		str	r3, [r1]
  75              		.loc 1 21 3 is_stmt 1 view .LVU15
  76              		.loc 1 21 25 is_stmt 0 view .LVU16
  77 000e 1360     		str	r3, [r2]
  78              		.loc 1 22 3 is_stmt 1 view .LVU17
  79              	.LBB50:
  80              	.LBI50:
  81              		.loc 2 386 20 view .LVU18
  82              	.LBB51:
  83              		.loc 2 388 23 view .LVU19
  84              		.loc 2 389 34 view .LVU20
  85              		.loc 2 395 3 view .LVU21
  86              		.loc 2 395 3 view .LVU22
  87              		.loc 2 395 3 view .LVU23
  88              		.loc 2 399 3 view .LVU24
  89              	.LBB52:
  90              	.LBI52:
  91              		.loc 3 864 27 view .LVU25
  92              		.loc 3 867 3 view .LVU26
  93              	.LVL2:
  94              	.LBB53:
  95              	.LBI53:
  96              		.loc 4 491 27 view .LVU27
  97              	.LBB54:
  98              		.loc 4 493 3 view .LVU28
  99              		.syntax unified
 100              	@ 493 "./docs/ChibiOS/os/common/ext/ARM/CMSIS/Core/Include/cmsis_gcc.h" 1
 101 0010 83F31188 		MSR basepri, r3
 102              	@ 0 "" 2
 103              	.LVL3:
 104              		.loc 4 493 3 is_stmt 0 view .LVU29
 105              		.thumb
 106              		.syntax unified
 107              	.LBE54:
 108              	.LBE53:
 109              	.LBE52:
 110              	.LBE51:
 111              	.LBE50:
 112              		.loc 1 23 1 view .LVU30
 113 0014 7047     		bx	lr
 114              	.L4:
ARM GAS  C:\Users\DEVELO~1\AppData\Local\Temp\ccCLhSaG.s 			page 3


 115 0016 00BF     		.align	2
 116              	.L3:
 117 0018 00000000 		.word	.LANCHOR0
 118 001c 00000000 		.word	.LANCHOR1
 119              		.cfi_endproc
 120              	.LFE356:
 121              		.size	USBH_static_mem_reset, .-USBH_static_mem_reset
 122              		.section	.rodata.USBH_static_malloc.str1.4,"aMS",%progbits,1
 123              		.align	2
 124              	.LC0:
 125 0000 4552524F 		.ascii	"ERROR: \000"
 125      523A2000 
 126              		.align	2
 127              	.LC1:
 128 0008 55534248 		.ascii	"USBH OOM: requested %u bytes\000"
 128      204F4F4D 
 128      3A207265 
 128      71756573 
 128      74656420 
 129              		.section	.text.USBH_static_malloc,"ax",%progbits
 130              		.align	1
 131              		.p2align 2,,3
 132              		.global	USBH_static_malloc
 133              		.syntax unified
 134              		.thumb
 135              		.thumb_func
 136              		.type	USBH_static_malloc, %function
 137              	USBH_static_malloc:
 138              	.LVL4:
 139              	.LFB357:
 140              		.loc 1 26 1 is_stmt 1 view -0
 141              		.cfi_startproc
 142              		@ args = 0, pretend = 0, frame = 0
 143              		@ frame_needed = 0, uses_anonymous_args = 0
 144              		.loc 1 27 3 view .LVU32
 145              		.loc 1 28 3 view .LVU33
 146              	.LBB55:
 147              	.LBB56:
 148              		.loc 1 14 16 is_stmt 0 view .LVU34
 149 0000 00F11F03 		add	r3, r0, #31
 150              	.LBE56:
 151              	.LBE55:
 152              	.LBB59:
 153              	.LBB60:
 154              	.LBB61:
 155              	.LBB62:
 156              		.loc 4 493 3 view .LVU35
 157 0004 3022     		movs	r2, #48
 158              	.LBE62:
 159              	.LBE61:
 160              	.LBE60:
 161              	.LBE59:
 162              		.loc 1 26 1 view .LVU36
 163 0006 10B5     		push	{r4, lr}
 164              		.cfi_def_cfa_offset 8
 165              		.cfi_offset 4, -8
 166              		.cfi_offset 14, -4
ARM GAS  C:\Users\DEVELO~1\AppData\Local\Temp\ccCLhSaG.s 			page 4


 167              	.LBB66:
 168              	.LBB57:
 169              		.loc 1 14 48 view .LVU37
 170 0008 23F01F03 		bic	r3, r3, #31
 171              	.LBE57:
 172              	.LBE66:
 173              		.loc 1 26 1 view .LVU38
 174 000c 0446     		mov	r4, r0
 175              	.LVL5:
 176              	.LBB67:
 177              	.LBI55:
 178              		.loc 1 12 15 is_stmt 1 view .LVU39
 179              	.LBB58:
 180              		.loc 1 14 3 view .LVU40
 181              		.loc 1 14 3 is_stmt 0 view .LVU41
 182              	.LBE58:
 183              	.LBE67:
 184              		.loc 1 30 3 is_stmt 1 view .LVU42
 185              	.LBB68:
 186              	.LBI59:
 187              		.loc 2 372 20 view .LVU43
 188              		.loc 2 374 3 view .LVU44
 189              	.LBB65:
 190              	.LBI60:
 191              		.loc 3 840 27 view .LVU45
 192              		.loc 3 848 3 view .LVU46
 193              	.LBB64:
 194              	.LBI61:
 195              		.loc 4 491 27 view .LVU47
 196              	.LBB63:
 197              		.loc 4 493 3 view .LVU48
 198              		.syntax unified
 199              	@ 493 "./docs/ChibiOS/os/common/ext/ARM/CMSIS/Core/Include/cmsis_gcc.h" 1
 200 000e 82F31188 		MSR basepri, r2
 201              	@ 0 "" 2
 202              	.LVL6:
 203              		.loc 4 493 3 is_stmt 0 view .LVU49
 204              		.thumb
 205              		.syntax unified
 206              	.LBE63:
 207              	.LBE64:
 208              	.LBE65:
 209              		.loc 2 375 35 is_stmt 1 view .LVU50
 210              		.loc 2 376 21 view .LVU51
 211              	.LBE68:
 212              		.loc 1 31 3 view .LVU52
 213              		.loc 1 31 29 is_stmt 0 view .LVU53
 214 0012 1049     		ldr	r1, .L9
 215 0014 0A68     		ldr	r2, [r1]
 216 0016 C2F58040 		rsb	r0, r2, #16384
 217              	.LVL7:
 218              		.loc 1 31 6 view .LVU54
 219 001a 9842     		cmp	r0, r3
 220 001c 07D3     		bcc	.L6
 221              		.loc 1 33 5 is_stmt 1 view .LVU55
 222              		.loc 1 34 24 is_stmt 0 view .LVU56
 223 001e 1344     		add	r3, r3, r2
ARM GAS  C:\Users\DEVELO~1\AppData\Local\Temp\ccCLhSaG.s 			page 5


 224              	.LVL8:
 225              		.loc 1 33 9 view .LVU57
 226 0020 0D48     		ldr	r0, .L9+4
 227              		.loc 1 34 24 view .LVU58
 228 0022 0B60     		str	r3, [r1]
 229              		.loc 1 33 9 view .LVU59
 230 0024 1044     		add	r0, r0, r2
 231              	.LVL9:
 232              		.loc 1 34 5 is_stmt 1 view .LVU60
 233              		.loc 1 39 5 view .LVU61
 234              		.loc 1 41 3 view .LVU62
 235              	.LBB69:
 236              	.LBI69:
 237              		.loc 2 386 20 view .LVU63
 238              	.LBB70:
 239              		.loc 2 388 23 view .LVU64
 240              		.loc 2 389 34 view .LVU65
 241              		.loc 2 395 3 view .LVU66
 242              		.loc 2 395 3 view .LVU67
 243              		.loc 2 395 3 view .LVU68
 244              		.loc 2 399 3 view .LVU69
 245              	.LBB71:
 246              	.LBI71:
 247              		.loc 3 864 27 view .LVU70
 248              		.loc 3 867 3 view .LVU71
 249              	.LBB72:
 250              	.LBI72:
 251              		.loc 4 491 27 view .LVU72
 252              	.LBB73:
 253              		.loc 4 493 3 view .LVU73
 254 0026 0023     		movs	r3, #0
 255              		.syntax unified
 256              	@ 493 "./docs/ChibiOS/os/common/ext/ARM/CMSIS/Core/Include/cmsis_gcc.h" 1
 257 0028 83F31188 		MSR basepri, r3
 258              	@ 0 "" 2
 259              	.LVL10:
 260              		.loc 4 493 3 is_stmt 0 view .LVU74
 261              		.thumb
 262              		.syntax unified
 263              	.LBE73:
 264              	.LBE72:
 265              	.LBE71:
 266              	.LBE70:
 267              	.LBE69:
 268              		.loc 1 43 3 is_stmt 1 view .LVU75
 269              		.loc 1 44 1 is_stmt 0 view .LVU76
 270 002c 10BD     		pop	{r4, pc}
 271              	.LVL11:
 272              	.L6:
 273              		.loc 1 38 5 is_stmt 1 view .LVU77
 274              		.loc 1 38 26 is_stmt 0 view .LVU78
 275 002e 0B4A     		ldr	r2, .L9+8
 276              		.loc 1 39 5 view .LVU79
 277 0030 0B48     		ldr	r0, .L9+12
 278              		.loc 1 38 26 view .LVU80
 279 0032 1368     		ldr	r3, [r2]
 280              	.LVL12:
ARM GAS  C:\Users\DEVELO~1\AppData\Local\Temp\ccCLhSaG.s 			page 6


 281              		.loc 1 38 26 view .LVU81
 282 0034 0133     		adds	r3, r3, #1
 283 0036 1360     		str	r3, [r2]
 284              		.loc 1 39 5 is_stmt 1 view .LVU82
 285              		.loc 1 39 5 view .LVU83
 286 0038 FFF7FEFF 		bl	printf
 287              	.LVL13:
 288              		.loc 1 39 5 view .LVU84
 289 003c 2146     		mov	r1, r4
 290 003e 0948     		ldr	r0, .L9+16
 291 0040 FFF7FEFF 		bl	printf
 292              	.LVL14:
 293              		.loc 1 39 5 view .LVU85
 294 0044 0A20     		movs	r0, #10
 295 0046 FFF7FEFF 		bl	putchar
 296              	.LVL15:
 297              		.loc 1 27 9 is_stmt 0 view .LVU86
 298 004a 0020     		movs	r0, #0
 299              	.LVL16:
 300              		.loc 1 39 5 is_stmt 1 view .LVU87
 301              		.loc 1 41 3 view .LVU88
 302              	.LBB78:
 303              		.loc 2 386 20 view .LVU89
 304              	.LBB77:
 305              		.loc 2 388 23 view .LVU90
 306              		.loc 2 389 34 view .LVU91
 307              		.loc 2 395 3 view .LVU92
 308              		.loc 2 395 3 view .LVU93
 309              		.loc 2 395 3 view .LVU94
 310              		.loc 2 399 3 view .LVU95
 311              	.LBB76:
 312              		.loc 3 864 27 view .LVU96
 313              		.loc 3 867 3 view .LVU97
 314              	.LBB75:
 315              		.loc 4 491 27 view .LVU98
 316              	.LBB74:
 317              		.loc 4 493 3 view .LVU99
 318 004c 0023     		movs	r3, #0
 319              		.syntax unified
 320              	@ 493 "./docs/ChibiOS/os/common/ext/ARM/CMSIS/Core/Include/cmsis_gcc.h" 1
 321 004e 83F31188 		MSR basepri, r3
 322              	@ 0 "" 2
 323              	.LVL17:
 324              		.loc 4 493 3 is_stmt 0 view .LVU100
 325              		.thumb
 326              		.syntax unified
 327              	.LBE74:
 328              	.LBE75:
 329              	.LBE76:
 330              	.LBE77:
 331              	.LBE78:
 332              		.loc 1 43 3 is_stmt 1 view .LVU101
 333              		.loc 1 44 1 is_stmt 0 view .LVU102
 334 0052 10BD     		pop	{r4, pc}
 335              	.LVL18:
 336              	.L10:
 337              		.loc 1 44 1 view .LVU103
ARM GAS  C:\Users\DEVELO~1\AppData\Local\Temp\ccCLhSaG.s 			page 7


 338              		.align	2
 339              	.L9:
 340 0054 00000000 		.word	.LANCHOR0
 341 0058 00000000 		.word	usbh_static_pool
 342 005c 00000000 		.word	.LANCHOR1
 343 0060 00000000 		.word	.LC0
 344 0064 08000000 		.word	.LC1
 345              		.cfi_endproc
 346              	.LFE357:
 347              		.size	USBH_static_malloc, .-USBH_static_malloc
 348              		.section	.text.USBH_static_free,"ax",%progbits
 349              		.align	1
 350              		.p2align 2,,3
 351              		.global	USBH_static_free
 352              		.syntax unified
 353              		.thumb
 354              		.thumb_func
 355              		.type	USBH_static_free, %function
 356              	USBH_static_free:
 357              	.LVL19:
 358              	.LFB358:
 359              		.loc 1 47 1 is_stmt 1 view -0
 360              		.cfi_startproc
 361              		@ args = 0, pretend = 0, frame = 0
 362              		@ frame_needed = 0, uses_anonymous_args = 0
 363              		@ link register save eliminated.
 364              		.loc 1 48 3 view .LVU105
 365              		.loc 1 49 1 is_stmt 0 view .LVU106
 366 0000 7047     		bx	lr
 367              		.cfi_endproc
 368              	.LFE358:
 369              		.size	USBH_static_free, .-USBH_static_free
 370 0002 00BF     		.section	.text.USBH_static_get_oom_count,"ax",%progbits
 371              		.align	1
 372              		.p2align 2,,3
 373              		.global	USBH_static_get_oom_count
 374              		.syntax unified
 375              		.thumb
 376              		.thumb_func
 377              		.type	USBH_static_get_oom_count, %function
 378              	USBH_static_get_oom_count:
 379              	.LFB359:
 380              		.loc 1 52 1 is_stmt 1 view -0
 381              		.cfi_startproc
 382              		@ args = 0, pretend = 0, frame = 0
 383              		@ frame_needed = 0, uses_anonymous_args = 0
 384              		@ link register save eliminated.
 385              		.loc 1 53 3 view .LVU108
 386              		.loc 1 55 3 view .LVU109
 387              	.LBB79:
 388              	.LBI79:
 389              		.loc 2 372 20 view .LVU110
 390              		.loc 2 374 3 view .LVU111
 391              	.LBB80:
 392              	.LBI80:
 393              		.loc 3 840 27 view .LVU112
 394              		.loc 3 848 3 view .LVU113
ARM GAS  C:\Users\DEVELO~1\AppData\Local\Temp\ccCLhSaG.s 			page 8


 395              	.LVL20:
 396              	.LBB81:
 397              	.LBI81:
 398              		.loc 4 491 27 view .LVU114
 399              	.LBB82:
 400              		.loc 4 493 3 view .LVU115
 401 0000 3023     		movs	r3, #48
 402              		.syntax unified
 403              	@ 493 "./docs/ChibiOS/os/common/ext/ARM/CMSIS/Core/Include/cmsis_gcc.h" 1
 404 0002 83F31188 		MSR basepri, r3
 405              	@ 0 "" 2
 406              	.LVL21:
 407              		.loc 4 493 3 is_stmt 0 view .LVU116
 408              		.thumb
 409              		.syntax unified
 410              	.LBE82:
 411              	.LBE81:
 412              	.LBE80:
 413              		.loc 2 375 35 is_stmt 1 view .LVU117
 414              		.loc 2 376 21 view .LVU118
 415              	.LBE79:
 416              		.loc 1 56 3 view .LVU119
 417              		.loc 1 56 9 is_stmt 0 view .LVU120
 418 0006 034A     		ldr	r2, .L13
 419              	.LBB83:
 420              	.LBB84:
 421              	.LBB85:
 422              	.LBB86:
 423              	.LBB87:
 424              		.loc 4 493 3 view .LVU121
 425 0008 0023     		movs	r3, #0
 426              	.LBE87:
 427              	.LBE86:
 428              	.LBE85:
 429              	.LBE84:
 430              	.LBE83:
 431              		.loc 1 56 9 view .LVU122
 432 000a 1068     		ldr	r0, [r2]
 433              	.LVL22:
 434              		.loc 1 57 3 is_stmt 1 view .LVU123
 435              	.LBB92:
 436              	.LBI83:
 437              		.loc 2 386 20 view .LVU124
 438              	.LBB91:
 439              		.loc 2 388 23 view .LVU125
 440              		.loc 2 389 34 view .LVU126
 441              		.loc 2 395 3 view .LVU127
 442              		.loc 2 395 3 view .LVU128
 443              		.loc 2 395 3 view .LVU129
 444              		.loc 2 399 3 view .LVU130
 445              	.LBB90:
 446              	.LBI85:
 447              		.loc 3 864 27 view .LVU131
 448              		.loc 3 867 3 view .LVU132
 449              	.LBB89:
 450              	.LBI86:
 451              		.loc 4 491 27 view .LVU133
ARM GAS  C:\Users\DEVELO~1\AppData\Local\Temp\ccCLhSaG.s 			page 9


 452              	.LBB88:
 453              		.loc 4 493 3 view .LVU134
 454              		.syntax unified
 455              	@ 493 "./docs/ChibiOS/os/common/ext/ARM/CMSIS/Core/Include/cmsis_gcc.h" 1
 456 000c 83F31188 		MSR basepri, r3
 457              	@ 0 "" 2
 458              	.LVL23:
 459              		.loc 4 493 3 is_stmt 0 view .LVU135
 460              		.thumb
 461              		.syntax unified
 462              	.LBE88:
 463              	.LBE89:
 464              	.LBE90:
 465              	.LBE91:
 466              	.LBE92:
 467              		.loc 1 59 3 is_stmt 1 view .LVU136
 468              		.loc 1 60 1 is_stmt 0 view .LVU137
 469 0010 7047     		bx	lr
 470              	.L14:
 471 0012 00BF     		.align	2
 472              	.L13:
 473 0014 00000000 		.word	.LANCHOR1
 474              		.cfi_endproc
 475              	.LFE359:
 476              		.size	USBH_static_get_oom_count, .-USBH_static_get_oom_count
 477              		.section	.bss.usbh_static_offset,"aw",%nobits
 478              		.align	2
 479              		.set	.LANCHOR0,. + 0
 480              		.type	usbh_static_offset, %object
 481              		.size	usbh_static_offset, 4
 482              	usbh_static_offset:
 483 0000 00000000 		.space	4
 484              		.section	.bss.usbh_static_oom_count,"aw",%nobits
 485              		.align	2
 486              		.set	.LANCHOR1,. + 0
 487              		.type	usbh_static_oom_count, %object
 488              		.size	usbh_static_oom_count, 4
 489              	usbh_static_oom_count:
 490 0000 00000000 		.space	4
 491              		.section	.bss.usbh_static_pool,"aw",%nobits
 492              		.align	5
 493              		.type	usbh_static_pool, %object
 494              		.size	usbh_static_pool, 16384
 495              	usbh_static_pool:
 496 0000 00000000 		.space	16384
 496      00000000 
 496      00000000 
 496      00000000 
 496      00000000 
 497              		.text
 498              	.Letext0:
 499              		.file 5 "c:\\chibistudio\\tools\\gnu tools arm embedded\\11.3 2022.08\\lib\\gcc\\arm-none-eabi\\11
 500              		.file 6 "c:\\chibistudio\\tools\\gnu tools arm embedded\\11.3 2022.08\\arm-none-eabi\\include\\mac
 501              		.file 7 "c:\\chibistudio\\tools\\gnu tools arm embedded\\11.3 2022.08\\arm-none-eabi\\include\\sys
 502              		.file 8 "c:\\chibistudio\\tools\\gnu tools arm embedded\\11.3 2022.08\\arm-none-eabi\\include\\std
 503              		.file 9 "<built-in>"