ARM GAS  C:\Users\DEVELO~1\AppData\Local\Temp\ccQpWoTt.s 			page 1


   1              		.cpu cortex-m7
   2              		.arch armv7e-m
   3              		.fpu fpv5-d16
   4              		.eabi_attribute 28, 1
   5              		.eabi_attribute 20, 1
   6              		.eabi_attribute 21, 1
   7              		.eabi_attribute 23, 3
   8              		.eabi_attribute 24, 1
   9              		.eabi_attribute 25, 1
  10              		.eabi_attribute 26, 1
  11              		.eabi_attribute 30, 2
  12              		.eabi_attribute 34, 1
  13              		.eabi_attribute 18, 4
  14              		.file	"usb_host_midi.c"
  15              		.text
  16              	.Ltext0:
  17              		.cfi_sections	.debug_frame
  18              		.section	.text.USBH_UserProcess,"ax",%progbits
  19              		.align	1
  20              		.p2align 2,,3
  21              		.syntax unified
  22              		.thumb
  23              		.thumb_func
  24              		.type	USBH_UserProcess, %function
  25              	USBH_UserProcess:
  26              	.LVL0:
  27              	.LFB452:
  28              		.file 1 "./usb_host/usb_host_midi.c"
  29              		.loc 1 45 1 view -0
  30              		.cfi_startproc
  31              		@ args = 0, pretend = 0, frame = 0
  32              		@ frame_needed = 0, uses_anonymous_args = 0
  33              		@ link register save eliminated.
  34              		.loc 1 46 3 view .LVU1
  35              		.loc 1 47 3 view .LVU2
  36 0000 0239     		subs	r1, r1, #2
  37              	.LVL1:
  38              		.loc 1 47 3 is_stmt 0 view .LVU3
  39 0002 0429     		cmp	r1, #4
  40 0004 09D8     		bhi	.L1
  41 0006 DFE801F0 		tbb	[pc, r1]
  42              	.L4:
  43 000a 10       		.byte	(.L7-.L4)/2
  44 000b 08       		.byte	(.L1-.L4)/2
  45 000c 09       		.byte	(.L6-.L4)/2
  46 000d 03       		.byte	(.L3-.L4)/2
  47 000e 03       		.byte	(.L3-.L4)/2
  48 000f 00       		.p2align 1
  49              	.L3:
  50              		.loc 1 61 5 is_stmt 1 view .LVU4
  51              		.loc 1 61 21 is_stmt 0 view .LVU5
  52 0010 0023     		movs	r3, #0
  53 0012 0849     		ldr	r1, .L10
  54              		.loc 1 62 16 view .LVU6
  55 0014 084A     		ldr	r2, .L10+4
  56              		.loc 1 61 21 view .LVU7
  57 0016 0B70     		strb	r3, [r1]
ARM GAS  C:\Users\DEVELO~1\AppData\Local\Temp\ccQpWoTt.s 			page 2


  58              		.loc 1 62 5 is_stmt 1 view .LVU8
  59              		.loc 1 62 16 is_stmt 0 view .LVU9
  60 0018 1370     		strb	r3, [r2]
  61              		.loc 1 63 5 is_stmt 1 view .LVU10
  62              	.L1:
  63              		.loc 1 67 1 is_stmt 0 view .LVU11
  64 001a 7047     		bx	lr
  65              	.L6:
  66              		.loc 1 50 5 is_stmt 1 view .LVU12
  67              		.loc 1 50 21 is_stmt 0 view .LVU13
  68 001c 0549     		ldr	r1, .L10
  69 001e 0120     		movs	r0, #1
  70              	.LVL2:
  71              		.loc 1 51 16 view .LVU14
  72 0020 054B     		ldr	r3, .L10+4
  73 0022 0022     		movs	r2, #0
  74              		.loc 1 50 21 view .LVU15
  75 0024 0870     		strb	r0, [r1]
  76              		.loc 1 51 5 is_stmt 1 view .LVU16
  77              		.loc 1 51 16 is_stmt 0 view .LVU17
  78 0026 1A70     		strb	r2, [r3]
  79              		.loc 1 52 5 is_stmt 1 view .LVU18
  80 0028 7047     		bx	lr
  81              	.LVL3:
  82              	.L7:
  83              		.loc 1 58 5 view .LVU19
  84              		.loc 1 58 16 is_stmt 0 view .LVU20
  85 002a 034B     		ldr	r3, .L10+4
  86 002c 0122     		movs	r2, #1
  87 002e 1A70     		strb	r2, [r3]
  88              		.loc 1 59 5 is_stmt 1 view .LVU21
  89 0030 7047     		bx	lr
  90              	.L11:
  91 0032 00BF     		.align	2
  92              	.L10:
  93 0034 00000000 		.word	.LANCHOR0
  94 0038 00000000 		.word	.LANCHOR1
  95              		.cfi_endproc
  96              	.LFE452:
  97              		.size	USBH_UserProcess, .-USBH_UserProcess
  98              		.section	.rodata.usb_host_thread.str1.4,"aMS",%progbits,1
  99              		.align	2
 100              	.LC0:
 101 0000 7573625F 		.ascii	"usb_host\000"
 101      686F7374 
 101      00
 102              		.section	.text.usb_host_thread,"ax",%progbits
 103              		.align	1
 104              		.p2align 2,,3
 105              		.syntax unified
 106              		.thumb
 107              		.thumb_func
 108              		.type	usb_host_thread, %function
 109              	usb_host_thread:
 110              	.LVL4:
 111              	.LFB453:
 112              		.loc 1 70 1 view -0
ARM GAS  C:\Users\DEVELO~1\AppData\Local\Temp\ccQpWoTt.s 			page 3


 113              		.cfi_startproc
 114              		@ Volatile: function does not return.
 115              		@ args = 0, pretend = 0, frame = 0
 116              		@ frame_needed = 0, uses_anonymous_args = 0
 117              		.loc 1 71 3 view .LVU23
 118              		.loc 1 72 3 view .LVU24
 119              	.LBB4:
 120              	.LBI4:
 121              		.file 2 "../../../os/rt/include/chregistry.h"
 122              		.loc 2 166 20 view .LVU25
 123              	.LBB5:
 124              		.loc 2 169 3 view .LVU26
 125 0000 0F4B     		ldr	r3, .L15
 126              		.loc 2 169 32 is_stmt 0 view .LVU27
 127 0002 104A     		ldr	r2, .L15+4
 128 0004 DB68     		ldr	r3, [r3, #12]
 129 0006 104E     		ldr	r6, .L15+8
 130 0008 104D     		ldr	r5, .L15+12
 131              	.LBE5:
 132              	.LBE4:
 133              		.loc 1 76 5 view .LVU28
 134 000a 114C     		ldr	r4, .L15+16
 135              		.loc 1 70 1 view .LVU29
 136 000c 80B5     		push	{r7, lr}
 137              		.cfi_def_cfa_offset 8
 138              		.cfi_offset 7, -8
 139              		.cfi_offset 14, -4
 140 000e 114F     		ldr	r7, .L15+20
 141              	.LBB7:
 142              	.LBB6:
 143              		.loc 2 169 32 view .LVU30
 144 0010 1A62     		str	r2, [r3, #32]
 145              	.LVL5:
 146              	.L13:
 147              		.loc 2 169 32 view .LVU31
 148              	.LBE6:
 149              	.LBE7:
 150              		.loc 1 74 3 is_stmt 1 discriminator 1 view .LVU32
 151              		.loc 1 76 5 discriminator 1 view .LVU33
 152 0012 2046     		mov	r0, r4
 153 0014 FFF7FEFF 		bl	USBH_Process
 154              	.LVL6:
 155              		.loc 1 77 5 discriminator 1 view .LVU34
 156              		.loc 1 77 18 is_stmt 0 discriminator 1 view .LVU35
 157 0018 2046     		mov	r0, r4
 158 001a FFF7FEFF 		bl	USBH_MIDI_IsReady
 159              	.LVL7:
 160 001e 0346     		mov	r3, r0
 161              		.loc 1 78 19 discriminator 1 view .LVU36
 162 0020 2046     		mov	r0, r4
 163              		.loc 1 77 16 discriminator 1 view .LVU37
 164 0022 3B70     		strb	r3, [r7]
 165              		.loc 1 78 5 is_stmt 1 discriminator 1 view .LVU38
 166              		.loc 1 78 19 is_stmt 0 discriminator 1 view .LVU39
 167 0024 FFF7FEFF 		bl	USBH_MIDI_GetRxOverflow
 168              	.LVL8:
 169 0028 0346     		mov	r3, r0
ARM GAS  C:\Users\DEVELO~1\AppData\Local\Temp\ccQpWoTt.s 			page 4


 170              		.loc 1 79 19 discriminator 1 view .LVU40
 171 002a 2046     		mov	r0, r4
 172              		.loc 1 78 17 discriminator 1 view .LVU41
 173 002c 3360     		str	r3, [r6]
 174              		.loc 1 79 5 is_stmt 1 discriminator 1 view .LVU42
 175              		.loc 1 79 19 is_stmt 0 discriminator 1 view .LVU43
 176 002e FFF7FEFF 		bl	USBH_MIDI_GetTxOverflow
 177              	.LVL9:
 178 0032 0346     		mov	r3, r0
 179              		.loc 1 80 5 discriminator 1 view .LVU44
 180 0034 0A20     		movs	r0, #10
 181              		.loc 1 79 17 discriminator 1 view .LVU45
 182 0036 2B60     		str	r3, [r5]
 183              		.loc 1 80 5 is_stmt 1 discriminator 1 view .LVU46
 184 0038 FFF7FEFF 		bl	chThdSleep
 185              	.LVL10:
 186              		.loc 1 74 9 discriminator 1 view .LVU47
 187 003c E9E7     		b	.L13
 188              	.L16:
 189 003e 00BF     		.align	2
 190              	.L15:
 191 0040 00000000 		.word	ch0
 192 0044 00000000 		.word	.LC0
 193 0048 00000000 		.word	.LANCHOR3
 194 004c 00000000 		.word	.LANCHOR4
 195 0050 00000000 		.word	.LANCHOR2
 196 0054 00000000 		.word	.LANCHOR1
 197              		.cfi_endproc
 198              	.LFE453:
 199              		.size	usb_host_thread, .-usb_host_thread
 200              		.section	.text.usb_host_midi_init,"ax",%progbits
 201              		.align	1
 202              		.p2align 2,,3
 203              		.global	usb_host_midi_init
 204              		.syntax unified
 205              		.thumb
 206              		.thumb_func
 207              		.type	usb_host_midi_init, %function
 208              	usb_host_midi_init:
 209              	.LFB451:
 210              		.loc 1 29 1 view -0
 211              		.cfi_startproc
 212              		@ args = 0, pretend = 0, frame = 0
 213              		@ frame_needed = 0, uses_anonymous_args = 0
 214              		.loc 1 30 3 view .LVU49
 215              		.loc 1 29 1 is_stmt 0 view .LVU50
 216 0000 30B5     		push	{r4, r5, lr}
 217              		.cfi_def_cfa_offset 12
 218              		.cfi_offset 4, -12
 219              		.cfi_offset 5, -8
 220              		.cfi_offset 14, -4
 221              		.loc 1 30 27 view .LVU51
 222 0002 0E4D     		ldr	r5, .L21
 223              		.loc 1 29 1 view .LVU52
 224 0004 83B0     		sub	sp, sp, #12
 225              		.cfi_def_cfa_offset 24
 226              		.loc 1 30 6 view .LVU53
ARM GAS  C:\Users\DEVELO~1\AppData\Local\Temp\ccQpWoTt.s 			page 5


 227 0006 2C68     		ldr	r4, [r5]
 228 0008 0CB1     		cbz	r4, .L20
 229              		.loc 1 42 1 view .LVU54
 230 000a 03B0     		add	sp, sp, #12
 231              		.cfi_remember_state
 232              		.cfi_def_cfa_offset 12
 233              		@ sp needed
 234 000c 30BD     		pop	{r4, r5, pc}
 235              	.L20:
 236              		.cfi_restore_state
 237              		.loc 1 35 3 is_stmt 1 view .LVU55
 238 000e 2246     		mov	r2, r4
 239 0010 0B49     		ldr	r1, .L21+4
 240 0012 0C48     		ldr	r0, .L21+8
 241 0014 FFF7FEFF 		bl	USBH_Init
 242              	.LVL11:
 243              		.loc 1 36 3 view .LVU56
 244 0018 0B49     		ldr	r1, .L21+12
 245 001a 0A48     		ldr	r0, .L21+8
 246 001c FFF7FEFF 		bl	USBH_RegisterClass
 247              	.LVL12:
 248              		.loc 1 37 3 view .LVU57
 249 0020 0848     		ldr	r0, .L21+8
 250 0022 FFF7FEFF 		bl	USBH_Start
 251              	.LVL13:
 252              		.loc 1 39 3 view .LVU58
 253              		.loc 1 39 25 is_stmt 0 view .LVU59
 254 0026 094B     		ldr	r3, .L21+16
 255 0028 8222     		movs	r2, #130
 256 002a 4FF41E61 		mov	r1, #2528
 257 002e 0094     		str	r4, [sp]
 258 0030 0748     		ldr	r0, .L21+20
 259 0032 FFF7FEFF 		bl	chThdCreateStatic
 260              	.LVL14:
 261              		.loc 1 39 23 view .LVU60
 262 0036 2860     		str	r0, [r5]
 263              		.loc 1 42 1 view .LVU61
 264 0038 03B0     		add	sp, sp, #12
 265              		.cfi_def_cfa_offset 12
 266              		@ sp needed
 267 003a 30BD     		pop	{r4, r5, pc}
 268              	.L22:
 269              		.align	2
 270              	.L21:
 271 003c 00000000 		.word	.LANCHOR5
 272 0040 00000000 		.word	USBH_UserProcess
 273 0044 00000000 		.word	.LANCHOR2
 274 0048 00000000 		.word	USBH_MIDI_Class
 275 004c 00000000 		.word	usb_host_thread
 276 0050 00000000 		.word	.LANCHOR6
 277              		.cfi_endproc
 278              	.LFE451:
 279              		.size	usb_host_midi_init, .-usb_host_midi_init
 280              		.section	.text.usb_host_midi_is_device_attached,"ax",%progbits
 281              		.align	1
 282              		.p2align 2,,3
 283              		.global	usb_host_midi_is_device_attached
ARM GAS  C:\Users\DEVELO~1\AppData\Local\Temp\ccQpWoTt.s 			page 6


 284              		.syntax unified
 285              		.thumb
 286              		.thumb_func
 287              		.type	usb_host_midi_is_device_attached, %function
 288              	usb_host_midi_is_device_attached:
 289              	.LFB454:
 290              		.loc 1 85 1 is_stmt 1 view -0
 291              		.cfi_startproc
 292              		@ args = 0, pretend = 0, frame = 0
 293              		@ frame_needed = 0, uses_anonymous_args = 0
 294              		@ link register save eliminated.
 295              		.loc 1 86 3 view .LVU63
 296              		.loc 1 86 10 is_stmt 0 view .LVU64
 297 0000 014B     		ldr	r3, .L24
 298 0002 1878     		ldrb	r0, [r3]	@ zero_extendqisi2
 299              		.loc 1 87 1 view .LVU65
 300 0004 7047     		bx	lr
 301              	.L25:
 302 0006 00BF     		.align	2
 303              	.L24:
 304 0008 00000000 		.word	.LANCHOR0
 305              		.cfi_endproc
 306              	.LFE454:
 307              		.size	usb_host_midi_is_device_attached, .-usb_host_midi_is_device_attached
 308              		.section	.text.usb_host_midi_is_ready,"ax",%progbits
 309              		.align	1
 310              		.p2align 2,,3
 311              		.global	usb_host_midi_is_ready
 312              		.syntax unified
 313              		.thumb
 314              		.thumb_func
 315              		.type	usb_host_midi_is_ready, %function
 316              	usb_host_midi_is_ready:
 317              	.LFB455:
 318              		.loc 1 90 1 is_stmt 1 view -0
 319              		.cfi_startproc
 320              		@ args = 0, pretend = 0, frame = 0
 321              		@ frame_needed = 0, uses_anonymous_args = 0
 322              		@ link register save eliminated.
 323              		.loc 1 91 3 view .LVU67
 324              		.loc 1 91 10 is_stmt 0 view .LVU68
 325 0000 014B     		ldr	r3, .L27
 326 0002 1878     		ldrb	r0, [r3]	@ zero_extendqisi2
 327              		.loc 1 92 1 view .LVU69
 328 0004 7047     		bx	lr
 329              	.L28:
 330 0006 00BF     		.align	2
 331              	.L27:
 332 0008 00000000 		.word	.LANCHOR1
 333              		.cfi_endproc
 334              	.LFE455:
 335              		.size	usb_host_midi_is_ready, .-usb_host_midi_is_ready
 336              		.section	.text.usb_host_midi_receive,"ax",%progbits
 337              		.align	1
 338              		.p2align 2,,3
 339              		.global	usb_host_midi_receive
 340              		.syntax unified
ARM GAS  C:\Users\DEVELO~1\AppData\Local\Temp\ccQpWoTt.s 			page 7


 341              		.thumb
 342              		.thumb_func
 343              		.type	usb_host_midi_receive, %function
 344              	usb_host_midi_receive:
 345              	.LVL15:
 346              	.LFB456:
 347              		.loc 1 95 1 is_stmt 1 view -0
 348              		.cfi_startproc
 349              		@ args = 0, pretend = 0, frame = 0
 350              		@ frame_needed = 0, uses_anonymous_args = 0
 351              		@ link register save eliminated.
 352              		.loc 1 96 3 view .LVU71
 353              		.loc 1 96 7 is_stmt 0 view .LVU72
 354 0000 044B     		ldr	r3, .L32
 355              		.loc 1 95 1 view .LVU73
 356 0002 0146     		mov	r1, r0
 357              		.loc 1 96 7 view .LVU74
 358 0004 1B78     		ldrb	r3, [r3]	@ zero_extendqisi2
 359              		.loc 1 96 6 view .LVU75
 360 0006 03F0FF00 		and	r0, r3, #255
 361              	.LVL16:
 362              		.loc 1 96 6 view .LVU76
 363 000a 03B9     		cbnz	r3, .L31
 364              		.loc 1 101 1 view .LVU77
 365 000c 7047     		bx	lr
 366              	.L31:
 367              		.loc 1 100 3 is_stmt 1 view .LVU78
 368              		.loc 1 100 10 is_stmt 0 view .LVU79
 369 000e 0248     		ldr	r0, .L32+4
 370 0010 FFF7FEBF 		b	USBH_MIDI_ReadEvent
 371              	.LVL17:
 372              	.L33:
 373              		.loc 1 100 10 view .LVU80
 374              		.align	2
 375              	.L32:
 376 0014 00000000 		.word	.LANCHOR1
 377 0018 00000000 		.word	.LANCHOR2
 378              		.cfi_endproc
 379              	.LFE456:
 380              		.size	usb_host_midi_receive, .-usb_host_midi_receive
 381              		.section	.text.usb_host_midi_send,"ax",%progbits
 382              		.align	1
 383              		.p2align 2,,3
 384              		.global	usb_host_midi_send
 385              		.syntax unified
 386              		.thumb
 387              		.thumb_func
 388              		.type	usb_host_midi_send, %function
 389              	usb_host_midi_send:
 390              	.LVL18:
 391              	.LFB457:
 392              		.loc 1 104 1 is_stmt 1 view -0
 393              		.cfi_startproc
 394              		@ args = 0, pretend = 0, frame = 0
 395              		@ frame_needed = 0, uses_anonymous_args = 0
 396              		@ link register save eliminated.
 397              		.loc 1 105 3 view .LVU82
ARM GAS  C:\Users\DEVELO~1\AppData\Local\Temp\ccQpWoTt.s 			page 8


 398              		.loc 1 105 7 is_stmt 0 view .LVU83
 399 0000 044B     		ldr	r3, .L37
 400              		.loc 1 104 1 view .LVU84
 401 0002 0146     		mov	r1, r0
 402              		.loc 1 105 7 view .LVU85
 403 0004 1B78     		ldrb	r3, [r3]	@ zero_extendqisi2
 404              		.loc 1 105 6 view .LVU86
 405 0006 03F0FF00 		and	r0, r3, #255
 406              	.LVL19:
 407              		.loc 1 105 6 view .LVU87
 408 000a 03B9     		cbnz	r3, .L36
 409              		.loc 1 110 1 view .LVU88
 410 000c 7047     		bx	lr
 411              	.L36:
 412              		.loc 1 109 3 is_stmt 1 view .LVU89
 413              		.loc 1 109 10 is_stmt 0 view .LVU90
 414 000e 0248     		ldr	r0, .L37+4
 415 0010 FFF7FEBF 		b	USBH_MIDI_WriteEvent
 416              	.LVL20:
 417              	.L38:
 418              		.loc 1 109 10 view .LVU91
 419              		.align	2
 420              	.L37:
 421 0014 00000000 		.word	.LANCHOR1
 422 0018 00000000 		.word	.LANCHOR2
 423              		.cfi_endproc
 424              	.LFE457:
 425              		.size	usb_host_midi_send, .-usb_host_midi_send
 426              		.section	.text.usb_host_midi_rx_overflow,"ax",%progbits
 427              		.align	1
 428              		.p2align 2,,3
 429              		.global	usb_host_midi_rx_overflow
 430              		.syntax unified
 431              		.thumb
 432              		.thumb_func
 433              		.type	usb_host_midi_rx_overflow, %function
 434              	usb_host_midi_rx_overflow:
 435              	.LFB458:
 436              		.loc 1 113 1 is_stmt 1 view -0
 437              		.cfi_startproc
 438              		@ args = 0, pretend = 0, frame = 0
 439              		@ frame_needed = 0, uses_anonymous_args = 0
 440              		@ link register save eliminated.
 441              		.loc 1 114 3 view .LVU93
 442              		.loc 1 114 10 is_stmt 0 view .LVU94
 443 0000 014B     		ldr	r3, .L40
 444 0002 1868     		ldr	r0, [r3]
 445              		.loc 1 115 1 view .LVU95
 446 0004 7047     		bx	lr
 447              	.L41:
 448 0006 00BF     		.align	2
 449              	.L40:
 450 0008 00000000 		.word	.LANCHOR3
 451              		.cfi_endproc
 452              	.LFE458:
 453              		.size	usb_host_midi_rx_overflow, .-usb_host_midi_rx_overflow
 454              		.section	.text.usb_host_midi_tx_overflow,"ax",%progbits
ARM GAS  C:\Users\DEVELO~1\AppData\Local\Temp\ccQpWoTt.s 			page 9


 455              		.align	1
 456              		.p2align 2,,3
 457              		.global	usb_host_midi_tx_overflow
 458              		.syntax unified
 459              		.thumb
 460              		.thumb_func
 461              		.type	usb_host_midi_tx_overflow, %function
 462              	usb_host_midi_tx_overflow:
 463              	.LFB459:
 464              		.loc 1 118 1 is_stmt 1 view -0
 465              		.cfi_startproc
 466              		@ args = 0, pretend = 0, frame = 0
 467              		@ frame_needed = 0, uses_anonymous_args = 0
 468              		@ link register save eliminated.
 469              		.loc 1 119 3 view .LVU97
 470              		.loc 1 119 10 is_stmt 0 view .LVU98
 471 0000 014B     		ldr	r3, .L43
 472 0002 1868     		ldr	r0, [r3]
 473              		.loc 1 120 1 view .LVU99
 474 0004 7047     		bx	lr
 475              	.L44:
 476 0006 00BF     		.align	2
 477              	.L43:
 478 0008 00000000 		.word	.LANCHOR4
 479              		.cfi_endproc
 480              	.LFE459:
 481              		.size	usb_host_midi_tx_overflow, .-usb_host_midi_tx_overflow
 482              		.section	.text.usb_host_midi_reset_count,"ax",%progbits
 483              		.align	1
 484              		.p2align 2,,3
 485              		.global	usb_host_midi_reset_count
 486              		.syntax unified
 487              		.thumb
 488              		.thumb_func
 489              		.type	usb_host_midi_reset_count, %function
 490              	usb_host_midi_reset_count:
 491              	.LFB460:
 492              		.loc 1 123 1 is_stmt 1 view -0
 493              		.cfi_startproc
 494              		@ args = 0, pretend = 0, frame = 0
 495              		@ frame_needed = 0, uses_anonymous_args = 0
 496              		@ link register save eliminated.
 497              		.loc 1 124 3 view .LVU101
 498              		.loc 1 124 10 is_stmt 0 view .LVU102
 499 0000 FFF7FEBF 		b	usbh_platform_get_reset_count
 500              	.LVL21:
 501              		.cfi_endproc
 502              	.LFE460:
 503              		.size	usb_host_midi_reset_count, .-usb_host_midi_reset_count
 504              		.section	.bss.device_attached,"aw",%nobits
 505              		.set	.LANCHOR0,. + 0
 506              		.type	device_attached, %object
 507              		.size	device_attached, 1
 508              	device_attached:
 509 0000 00       		.space	1
 510              		.section	.bss.hUsbHostFS,"aw",%nobits
 511              		.align	2
ARM GAS  C:\Users\DEVELO~1\AppData\Local\Temp\ccQpWoTt.s 			page 10


 512              		.set	.LANCHOR2,. + 0
 513              		.type	hUsbHostFS, %object
 514              		.size	hUsbHostFS, 1272
 515              	hUsbHostFS:
 516 0000 00000000 		.space	1272
 516      00000000 
 516      00000000 
 516      00000000 
 516      00000000 
 517              		.section	.bss.midi_ready,"aw",%nobits
 518              		.set	.LANCHOR1,. + 0
 519              		.type	midi_ready, %object
 520              		.size	midi_ready, 1
 521              	midi_ready:
 522 0000 00       		.space	1
 523              		.section	.bss.rx_overflow,"aw",%nobits
 524              		.align	2
 525              		.set	.LANCHOR3,. + 0
 526              		.type	rx_overflow, %object
 527              		.size	rx_overflow, 4
 528              	rx_overflow:
 529 0000 00000000 		.space	4
 530              		.section	.bss.tx_overflow,"aw",%nobits
 531              		.align	2
 532              		.set	.LANCHOR4,. + 0
 533              		.type	tx_overflow, %object
 534              		.size	tx_overflow, 4
 535              	tx_overflow:
 536 0000 00000000 		.space	4
 537              		.section	.bss.usb_host_thread_ref,"aw",%nobits
 538              		.align	2
 539              		.set	.LANCHOR5,. + 0
 540              		.type	usb_host_thread_ref, %object
 541              		.size	usb_host_thread_ref, 4
 542              	usb_host_thread_ref:
 543 0000 00000000 		.space	4
 544              		.section	.bss.usb_host_wa,"aw",%nobits
 545              		.align	5
 546              		.set	.LANCHOR6,. + 0
 547              		.type	usb_host_wa, %object
 548              		.size	usb_host_wa, 2528
 549              	usb_host_wa:
 550 0000 00000000 		.space	2528
 550      00000000 
 550      00000000 
 550      00000000 
 550      00000000 
 551              		.text
 552              	.Letext0:
 553              		.file 3 "c:\\chibistudio\\tools\\gnu tools arm embedded\\11.3 2022.08\\lib\\gcc\\arm-none-eabi\\11
 554              		.file 4 "c:\\chibistudio\\tools\\gnu tools arm embedded\\11.3 2022.08\\arm-none-eabi\\include\\mac
 555              		.file 5 "c:\\chibistudio\\tools\\gnu tools arm embedded\\11.3 2022.08\\arm-none-eabi\\include\\sys
 556              		.file 6 "../../../os/common/ports/ARM-common/include/chtypes.h"
 557              		.file 7 "../../../os/rt/include/chearly.h"
 558              		.file 8 "../../../os/rt/include/chobjects.h"
 559              		.file 9 "../../../os/rt/include/chrfcu.h"
 560              		.file 10 "../../../os/rt/include/chdebug.h"
ARM GAS  C:\Users\DEVELO~1\AppData\Local\Temp\ccQpWoTt.s 			page 11


 561              		.file 11 "../../../os/rt/include/chtime.h"
 562              		.file 12 "../../../os/rt/include/chtrace.h"
 563              		.file 13 "../../../os/common/ports/ARMv7-M/chcore.h"
 564              		.file 14 "../../../os/rt/include/chlists.h"
 565              		.file 15 "../../../os/rt/include/chsem.h"
 566              		.file 16 "../../../os/rt/include/chmtx.h"
 567              		.file 17 "../../../os/rt/include/chthreads.h"
 568              		.file 18 "./usb_host/stm32-mw-usb-host-master/stm32-mw-usb-host-master/Core/Inc/usbh_def.h"
 569              		.file 19 "./usb_host/stm32-mw-usb-host-master/stm32-mw-usb-host-master/Class/MIDI/Inc/usbh_midi.h"
 570              		.file 20 "./usb_host/stm32-mw-usb-host-master/stm32-mw-usb-host-master/Core/Inc/usbh_core.h"
 571              		.file 21 "../../../os/rt/include/chsys.h"
 572              		.file 22 "./usb_host/usbh_platform_chibios_h7.h"