ARM GAS  C:\Users\DEVELO~1\AppData\Local\Temp\ccf9K3Jo.s 			page 1


   1              		.cpu cortex-m7
   2              		.arch armv7e-m
   3              		.fpu fpv5-d16
   4              		.eabi_attribute 28, 1
   5              		.eabi_attribute 20, 1
   6              		.eabi_attribute 21, 1
   7              		.eabi_attribute 23, 3
   8              		.eabi_attribute 24, 1
   9              		.eabi_attribute 25, 1
  10              		.eabi_attribute 26, 1
  11              		.eabi_attribute 30, 2
  12              		.eabi_attribute 34, 1
  13              		.eabi_attribute 18, 4
  14              		.file	"usb_host_fifo.c"
  15              		.text
  16              	.Ltext0:
  17              		.cfi_sections	.debug_frame
  18              		.section	.text.usb_host_fifo_push,"ax",%progbits
  19              		.align	1
  20              		.p2align 2,,3
  21              		.global	usb_host_fifo_push
  22              		.syntax unified
  23              		.thumb
  24              		.thumb_func
  25              		.type	usb_host_fifo_push, %function
  26              	usb_host_fifo_push:
  27              	.LVL0:
  28              	.LFB0:
  29              		.file 1 "./drivers/usb/usb_host/usb_host_fifo.c"
  30              		.loc 1 23 1 view -0
  31              		.cfi_startproc
  32              		@ args = 0, pretend = 0, frame = 0
  33              		@ frame_needed = 0, uses_anonymous_args = 0
  34              		@ link register save eliminated.
  35              		.loc 1 24 3 view .LVU1
  36              		.loc 1 23 1 is_stmt 0 view .LVU2
  37 0000 10B4     		push	{r4}
  38              		.cfi_def_cfa_offset 4
  39              		.cfi_offset 4, -4
  40              		.loc 1 24 25 view .LVU3
  41 0002 104C     		ldr	r4, .L7
  42              		.loc 1 25 25 view .LVU4
  43 0004 104B     		ldr	r3, .L7+4
  44              		.loc 1 24 25 view .LVU5
  45 0006 2288     		ldrh	r2, [r4]
  46              		.loc 1 25 25 view .LVU6
  47 0008 1B88     		ldrh	r3, [r3]
  48 000a BFF35B8F 		dmb	ish
  49              		.loc 1 24 25 view .LVU7
  50 000e 92B2     		uxth	r2, r2
  51              	.LVL1:
  52              		.loc 1 25 3 is_stmt 1 view .LVU8
  53              		.loc 1 25 25 is_stmt 0 view .LVU9
  54 0010 99B2     		uxth	r1, r3
  55              	.LVL2:
  56              		.loc 1 26 3 is_stmt 1 view .LVU10
  57              		.loc 1 26 36 is_stmt 0 view .LVU11
ARM GAS  C:\Users\DEVELO~1\AppData\Local\Temp\ccf9K3Jo.s 			page 2


  58 0012 531C     		adds	r3, r2, #1
  59              		.loc 1 26 12 view .LVU12
  60 0014 03F07F03 		and	r3, r3, #127
  61              	.LVL3:
  62              		.loc 1 28 3 is_stmt 1 view .LVU13
  63              		.loc 1 28 6 is_stmt 0 view .LVU14
  64 0018 9942     		cmp	r1, r3
  65 001a 0AD0     		beq	.L6
  66              		.loc 1 34 3 is_stmt 1 view .LVU15
  67 001c 0068     		ldr	r0, [r0]	@ unaligned
  68              	.LVL4:
  69              		.loc 1 34 31 is_stmt 0 view .LVU16
  70 001e 0B49     		ldr	r1, .L7+8
  71              	.LVL5:
  72              		.loc 1 34 3 view .LVU17
  73 0020 41F82200 		str	r0, [r1, r2, lsl #2]
  74              		.loc 1 35 3 is_stmt 1 view .LVU18
  75 0024 BFF35B8F 		dmb	ish
  76 0028 2380     		strh	r3, [r4]	@ movhi
  77              		.loc 1 36 3 view .LVU19
  78              		.loc 1 36 10 is_stmt 0 view .LVU20
  79 002a 0120     		movs	r0, #1
  80              		.loc 1 37 1 view .LVU21
  81 002c 5DF8044B 		ldr	r4, [sp], #4
  82              		.cfi_remember_state
  83              		.cfi_restore 4
  84              		.cfi_def_cfa_offset 0
  85 0030 7047     		bx	lr
  86              	.LVL6:
  87              	.L6:
  88              		.cfi_restore_state
  89              		.loc 1 30 5 is_stmt 1 view .LVU22
  90              		.loc 1 30 24 is_stmt 0 view .LVU23
  91 0032 074A     		ldr	r2, .L7+12
  92              	.LVL7:
  93              		.loc 1 31 12 view .LVU24
  94 0034 0020     		movs	r0, #0
  95              	.LVL8:
  96              		.loc 1 37 1 view .LVU25
  97 0036 5DF8044B 		ldr	r4, [sp], #4
  98              		.cfi_restore 4
  99              		.cfi_def_cfa_offset 0
 100              		.loc 1 30 24 view .LVU26
 101 003a 1368     		ldr	r3, [r2]
 102              	.LVL9:
 103              		.loc 1 30 24 view .LVU27
 104 003c 0133     		adds	r3, r3, #1
 105 003e 1360     		str	r3, [r2]
 106              		.loc 1 31 5 is_stmt 1 view .LVU28
 107              		.loc 1 37 1 is_stmt 0 view .LVU29
 108 0040 7047     		bx	lr
 109              	.L8:
 110 0042 00BF     		.align	2
 111              	.L7:
 112 0044 00000000 		.word	.LANCHOR0
 113 0048 00000000 		.word	.LANCHOR1
 114 004c 00000000 		.word	.LANCHOR3
ARM GAS  C:\Users\DEVELO~1\AppData\Local\Temp\ccf9K3Jo.s 			page 3


 115 0050 00000000 		.word	.LANCHOR2
 116              		.cfi_endproc
 117              	.LFE0:
 118              		.size	usb_host_fifo_push, .-usb_host_fifo_push
 119              		.section	.text.usb_host_fifo_pop,"ax",%progbits
 120              		.align	1
 121              		.p2align 2,,3
 122              		.global	usb_host_fifo_pop
 123              		.syntax unified
 124              		.thumb
 125              		.thumb_func
 126              		.type	usb_host_fifo_pop, %function
 127              	usb_host_fifo_pop:
 128              	.LVL10:
 129              	.LFB1:
 130              		.loc 1 40 1 is_stmt 1 view -0
 131              		.cfi_startproc
 132              		@ args = 0, pretend = 0, frame = 0
 133              		@ frame_needed = 0, uses_anonymous_args = 0
 134              		@ link register save eliminated.
 135              		.loc 1 41 3 view .LVU31
 136              		.loc 1 41 25 is_stmt 0 view .LVU32
 137 0000 0D49     		ldr	r1, .L16
 138              		.loc 1 42 25 view .LVU33
 139 0002 0E4A     		ldr	r2, .L16+4
 140              		.loc 1 41 25 view .LVU34
 141 0004 0B88     		ldrh	r3, [r1]
 142              		.loc 1 42 25 view .LVU35
 143 0006 1288     		ldrh	r2, [r2]
 144 0008 BFF35B8F 		dmb	ish
 145              		.loc 1 41 25 view .LVU36
 146 000c 9BB2     		uxth	r3, r3
 147              	.LVL11:
 148              		.loc 1 42 3 is_stmt 1 view .LVU37
 149              		.loc 1 42 25 is_stmt 0 view .LVU38
 150 000e 92B2     		uxth	r2, r2
 151              	.LVL12:
 152              		.loc 1 44 3 is_stmt 1 view .LVU39
 153              		.loc 1 44 6 is_stmt 0 view .LVU40
 154 0010 9342     		cmp	r3, r2
 155 0012 0ED0     		beq	.L11
 156              		.loc 1 49 3 is_stmt 1 view .LVU41
 157              		.loc 1 50 44 is_stmt 0 view .LVU42
 158 0014 5A1C     		adds	r2, r3, #1
 159              	.LVL13:
 160              		.loc 1 40 1 view .LVU43
 161 0016 10B4     		push	{r4}
 162              		.cfi_def_cfa_offset 4
 163              		.cfi_offset 4, -4
 164              		.loc 1 49 39 view .LVU44
 165 0018 094C     		ldr	r4, .L16+8
 166 001a 54F82340 		ldr	r4, [r4, r3, lsl #2]
 167              		.loc 1 50 3 view .LVU45
 168 001e 02F07F03 		and	r3, r2, #127
 169              	.LVL14:
 170              		.loc 1 49 3 view .LVU46
 171 0022 0460     		str	r4, [r0]	@ unaligned
ARM GAS  C:\Users\DEVELO~1\AppData\Local\Temp\ccf9K3Jo.s 			page 4


 172              		.loc 1 50 3 is_stmt 1 view .LVU47
 173 0024 BFF35B8F 		dmb	ish
 174 0028 0B80     		strh	r3, [r1]	@ movhi
 175              		.loc 1 51 3 view .LVU48
 176              		.loc 1 51 10 is_stmt 0 view .LVU49
 177 002a 0120     		movs	r0, #1
 178              	.LVL15:
 179              		.loc 1 52 1 view .LVU50
 180 002c 5DF8044B 		ldr	r4, [sp], #4
 181              		.cfi_restore 4
 182              		.cfi_def_cfa_offset 0
 183 0030 7047     		bx	lr
 184              	.LVL16:
 185              	.L11:
 186              		.loc 1 46 12 view .LVU51
 187 0032 0020     		movs	r0, #0
 188              	.LVL17:
 189              		.loc 1 52 1 view .LVU52
 190 0034 7047     		bx	lr
 191              	.L17:
 192 0036 00BF     		.align	2
 193              	.L16:
 194 0038 00000000 		.word	.LANCHOR1
 195 003c 00000000 		.word	.LANCHOR0
 196 0040 00000000 		.word	.LANCHOR3
 197              		.cfi_endproc
 198              	.LFE1:
 199              		.size	usb_host_fifo_pop, .-usb_host_fifo_pop
 200              		.section	.text.usb_host_fifo_overflow_total,"ax",%progbits
 201              		.align	1
 202              		.p2align 2,,3
 203              		.global	usb_host_fifo_overflow_total
 204              		.syntax unified
 205              		.thumb
 206              		.thumb_func
 207              		.type	usb_host_fifo_overflow_total, %function
 208              	usb_host_fifo_overflow_total:
 209              	.LFB2:
 210              		.loc 1 55 1 is_stmt 1 view -0
 211              		.cfi_startproc
 212              		@ args = 0, pretend = 0, frame = 0
 213              		@ frame_needed = 0, uses_anonymous_args = 0
 214              		@ link register save eliminated.
 215              		.loc 1 56 3 view .LVU54
 216              		.loc 1 56 10 is_stmt 0 view .LVU55
 217 0000 014B     		ldr	r3, .L19
 218 0002 1868     		ldr	r0, [r3]
 219              		.loc 1 57 1 view .LVU56
 220 0004 7047     		bx	lr
 221              	.L20:
 222 0006 00BF     		.align	2
 223              	.L19:
 224 0008 00000000 		.word	.LANCHOR2
 225              		.cfi_endproc
 226              	.LFE2:
 227              		.size	usb_host_fifo_overflow_total, .-usb_host_fifo_overflow_total
 228              		.section	.text.usb_host_fifo_reset,"ax",%progbits
ARM GAS  C:\Users\DEVELO~1\AppData\Local\Temp\ccf9K3Jo.s 			page 5


 229              		.align	1
 230              		.p2align 2,,3
 231              		.global	usb_host_fifo_reset
 232              		.syntax unified
 233              		.thumb
 234              		.thumb_func
 235              		.type	usb_host_fifo_reset, %function
 236              	usb_host_fifo_reset:
 237              	.LFB3:
 238              		.loc 1 60 1 is_stmt 1 view -0
 239              		.cfi_startproc
 240              		@ args = 0, pretend = 0, frame = 0
 241              		@ frame_needed = 0, uses_anonymous_args = 0
 242              		@ link register save eliminated.
 243              		.loc 1 61 3 view .LVU58
 244 0000 0023     		movs	r3, #0
 245 0002 0449     		ldr	r1, .L22
 246              		.loc 1 62 3 is_stmt 0 view .LVU59
 247 0004 044A     		ldr	r2, .L22+4
 248              		.loc 1 61 3 view .LVU60
 249 0006 BFF35B8F 		dmb	ish
 250 000a 0B80     		strh	r3, [r1]	@ movhi
 251              		.loc 1 62 3 is_stmt 1 view .LVU61
 252 000c BFF35B8F 		dmb	ish
 253 0010 1380     		strh	r3, [r2]	@ movhi
 254              		.loc 1 63 1 is_stmt 0 view .LVU62
 255 0012 7047     		bx	lr
 256              	.L23:
 257              		.align	2
 258              	.L22:
 259 0014 00000000 		.word	.LANCHOR0
 260 0018 00000000 		.word	.LANCHOR1
 261              		.cfi_endproc
 262              	.LFE3:
 263              		.size	usb_host_fifo_reset, .-usb_host_fifo_reset
 264              		.section	.bss.midi_fifo,"aw",%nobits
 265              		.align	2
 266              		.set	.LANCHOR3,. + 0
 267              		.type	midi_fifo, %object
 268              		.size	midi_fifo, 512
 269              	midi_fifo:
 270 0000 00000000 		.space	512
 270      00000000 
 270      00000000 
 270      00000000 
 270      00000000 
 271              		.section	.bss.midi_head,"aw",%nobits
 272              		.align	1
 273              		.set	.LANCHOR0,. + 0
 274              		.type	midi_head, %object
 275              		.size	midi_head, 2
 276              	midi_head:
 277 0000 0000     		.space	2
 278              		.section	.bss.midi_overflow_total,"aw",%nobits
 279              		.align	2
 280              		.set	.LANCHOR2,. + 0
 281              		.type	midi_overflow_total, %object
ARM GAS  C:\Users\DEVELO~1\AppData\Local\Temp\ccf9K3Jo.s 			page 6


 282              		.size	midi_overflow_total, 4
 283              	midi_overflow_total:
 284 0000 00000000 		.space	4
 285              		.section	.bss.midi_tail,"aw",%nobits
 286              		.align	1
 287              		.set	.LANCHOR1,. + 0
 288              		.type	midi_tail, %object
 289              		.size	midi_tail, 2
 290              	midi_tail:
 291 0000 0000     		.space	2
 292              		.text
 293              	.Letext0:
 294              		.file 2 "c:\\chibistudio\\tools\\gnu tools arm embedded\\11.3 2022.08\\arm-none-eabi\\include\\mac
 295              		.file 3 "c:\\chibistudio\\tools\\gnu tools arm embedded\\11.3 2022.08\\arm-none-eabi\\include\\sys