ARM GAS  C:\Users\DEVELO~1\AppData\Local\Temp\ccsBnKsD.s 			page 1


   1              		.cpu cortex-m7
   2              		.arch armv7e-m
   3              		.fpu fpv5-d16
   4              		.eabi_attribute 28, 1
   5              		.eabi_attribute 20, 1
   6              		.eabi_attribute 21, 1
   7              		.eabi_attribute 23, 3
   8              		.eabi_attribute 24, 1
   9              		.eabi_attribute 25, 1
  10              		.eabi_attribute 26, 1
  11              		.eabi_attribute 30, 2
  12              		.eabi_attribute 34, 1
  13              		.eabi_attribute 18, 4
  14              		.file	"usbh_core.c"
  15              		.text
  16              	.Ltext0:
  17              		.cfi_sections	.debug_frame
  18              		.section	.text.DeInitStateMachine.isra.0,"ax",%progbits
  19              		.align	1
  20              		.p2align 2,,3
  21              		.syntax unified
  22              		.thumb
  23              		.thumb_func
  24              		.type	DeInitStateMachine.isra.0, %function
  25              	DeInitStateMachine.isra.0:
  26              	.LVL0:
  27              	.LFB165:
  28              		.file 1 "./usb_host/stm32-mw-usb-host-master/stm32-mw-usb-host-master/Core/Src/usbh_core.c"
  29              		.loc 1 220 27 view -0
  30              		.cfi_startproc
  31              		@ args = 0, pretend = 0, frame = 0
  32              		@ frame_needed = 0, uses_anonymous_args = 0
  33              		.loc 1 225 18 view .LVU1
  34              		.loc 1 220 27 is_stmt 0 view .LVU2
  35 0000 F8B5     		push	{r3, r4, r5, r6, r7, lr}
  36              		.cfi_def_cfa_offset 24
  37              		.cfi_offset 3, -24
  38              		.cfi_offset 4, -20
  39              		.cfi_offset 5, -16
  40              		.cfi_offset 6, -12
  41              		.cfi_offset 7, -8
  42              		.cfi_offset 14, -4
  43              		.loc 1 227 21 view .LVU3
  44 0002 4027     		movs	r7, #64
  45 0004 0021     		movs	r1, #0
  46              		.loc 1 220 27 view .LVU4
  47 0006 0446     		mov	r4, r0
  48              		.loc 1 227 21 view .LVU5
  49 0008 00F2A440 		addw	r0, r0, #1188
  50              	.LVL1:
  51              		.loc 1 227 21 view .LVU6
  52 000c 3A46     		mov	r2, r7
  53              		.loc 1 235 17 view .LVU7
  54 000e 0D46     		mov	r5, r1
  55              		.loc 1 250 3 view .LVU8
  56 0010 4FF40076 		mov	r6, #512
  57              		.loc 1 227 21 view .LVU9
ARM GAS  C:\Users\DEVELO~1\AppData\Local\Temp\ccsBnKsD.s 			page 2


  58 0014 FFF7FEFF 		bl	memset
  59              	.LVL2:
  60              		.loc 1 235 3 is_stmt 1 view .LVU10
  61              		.loc 1 237 23 is_stmt 0 view .LVU11
  62 0018 0123     		movs	r3, #1
  63              		.loc 1 244 25 view .LVU12
  64 001a 4FF48072 		mov	r2, #256
  65              		.loc 1 250 3 view .LVU13
  66 001e 2946     		mov	r1, r5
  67              		.loc 1 235 17 view .LVU14
  68 0020 2570     		strb	r5, [r4]
  69              		.loc 1 236 3 is_stmt 1 view .LVU15
  70              		.loc 1 237 23 is_stmt 0 view .LVU16
  71 0022 A370     		strb	r3, [r4, #2]
  72              		.loc 1 250 3 view .LVU17
  73 0024 04F11C00 		add	r0, r4, #28
  74              		.loc 1 240 24 view .LVU18
  75 0028 2383     		strh	r3, [r4, #24]	@ movhi
  76              		.loc 1 244 25 view .LVU19
  77 002a C4F81C24 		str	r2, [r4, #1052]
  78              		.loc 1 250 3 view .LVU20
  79 002e 3246     		mov	r2, r6
  80              		.loc 1 236 20 view .LVU21
  81 0030 6570     		strb	r5, [r4, #1]
  82              		.loc 1 237 3 is_stmt 1 view .LVU22
  83              		.loc 1 238 3 view .LVU23
  84              		.loc 1 238 16 is_stmt 0 view .LVU24
  85 0032 C4F8E454 		str	r5, [r4, #1252]
  86              		.loc 1 240 3 is_stmt 1 view .LVU25
  87              		.loc 1 241 3 view .LVU26
  88              		.loc 1 241 28 is_stmt 0 view .LVU27
  89 0036 A771     		strb	r7, [r4, #6]
  90              		.loc 1 242 3 is_stmt 1 view .LVU28
  91              		.loc 1 244 3 view .LVU29
  92              		.loc 1 245 3 view .LVU30
  93              		.loc 1 246 3 view .LVU31
  94              		.loc 1 247 3 view .LVU32
  95              		.loc 1 250 3 view .LVU33
  96 0038 FFF7FEFF 		bl	memset
  97              	.LVL3:
  98              		.loc 1 251 3 view .LVU34
  99 003c 3246     		mov	r2, r6
 100 003e 2946     		mov	r1, r5
 101 0040 04F50770 		add	r0, r4, #540
 102 0044 FFF7FEFF 		bl	memset
 103              	.LVL4:
 104              		.loc 1 252 3 view .LVU35
 105              		.loc 1 253 3 is_stmt 0 view .LVU36
 106 0048 2946     		mov	r1, r5
 107 004a 04F58760 		add	r0, r4, #1080
 108              		.loc 1 252 3 view .LVU37
 109 004e C4F82654 		str	r5, [r4, #1062]	@ unaligned
 110 0052 C4F82A54 		str	r5, [r4, #1066]	@ unaligned
 111              		.loc 1 253 3 view .LVU38
 112 0056 5E22     		movs	r2, #94
 113              		.loc 1 252 3 view .LVU39
 114 0058 C4F82E54 		str	r5, [r4, #1070]	@ unaligned
ARM GAS  C:\Users\DEVELO~1\AppData\Local\Temp\ccsBnKsD.s 			page 3


 115 005c C4F83254 		str	r5, [r4, #1074]	@ unaligned
 116 0060 A4F83654 		strh	r5, [r4, #1078]	@ unaligned
 117              		.loc 1 253 3 is_stmt 1 view .LVU40
 118              		.loc 1 256 1 is_stmt 0 view .LVU41
 119 0064 BDE8F840 		pop	{r3, r4, r5, r6, r7, lr}
 120              		.cfi_restore 14
 121              		.cfi_restore 7
 122              		.cfi_restore 6
 123              		.cfi_restore 5
 124              		.cfi_restore 4
 125              		.cfi_restore 3
 126              		.cfi_def_cfa_offset 0
 127              	.LVL5:
 128              		.loc 1 253 3 view .LVU42
 129 0068 FFF7FEBF 		b	memset
 130              	.LVL6:
 131              		.loc 1 253 3 view .LVU43
 132              		.cfi_endproc
 133              	.LFE165:
 134              		.size	DeInitStateMachine.isra.0, .-DeInitStateMachine.isra.0
 135              		.section	.text.USBH_Init,"ax",%progbits
 136              		.align	1
 137              		.p2align 2,,3
 138              		.global	USBH_Init
 139              		.syntax unified
 140              		.thumb
 141              		.thumb_func
 142              		.type	USBH_Init, %function
 143              	USBH_Init:
 144              	.LVL7:
 145              	.LFB144:
 146              		.loc 1 98 1 is_stmt 1 view -0
 147              		.cfi_startproc
 148              		@ args = 0, pretend = 0, frame = 0
 149              		@ frame_needed = 0, uses_anonymous_args = 0
 150              		.loc 1 100 3 view .LVU45
 151              		.loc 1 100 6 is_stmt 0 view .LVU46
 152 0000 D8B1     		cbz	r0, .L7
 153              		.loc 1 107 3 is_stmt 1 view .LVU47
 154              		.loc 1 98 1 is_stmt 0 view .LVU48
 155 0002 70B5     		push	{r4, r5, r6, lr}
 156              		.cfi_def_cfa_offset 16
 157              		.cfi_offset 4, -16
 158              		.cfi_offset 5, -12
 159              		.cfi_offset 6, -8
 160              		.cfi_offset 14, -4
 161              		.loc 1 110 23 view .LVU49
 162 0004 0025     		movs	r5, #0
 163 0006 0446     		mov	r4, r0
 164 0008 0E46     		mov	r6, r1
 165              		.loc 1 107 13 view .LVU50
 166 000a 80F8EC24 		strb	r2, [r0, #1260]
 167              		.loc 1 110 3 is_stmt 1 view .LVU51
 168              		.loc 1 110 23 is_stmt 0 view .LVU52
 169 000e C0F89C54 		str	r5, [r0, #1180]
 170              		.loc 1 111 3 is_stmt 1 view .LVU53
 171              		.loc 1 111 22 is_stmt 0 view .LVU54
ARM GAS  C:\Users\DEVELO~1\AppData\Local\Temp\ccsBnKsD.s 			page 4


 172 0012 C0F8A054 		str	r5, [r0, #1184]
 173              		.loc 1 114 3 is_stmt 1 view .LVU55
 174              		.loc 1 114 9 is_stmt 0 view .LVU56
 175 0016 FFF7FEFF 		bl	DeInitStateMachine.isra.0
 176              	.LVL8:
 177              		.loc 1 117 3 is_stmt 1 view .LVU57
 178              		.loc 1 117 29 is_stmt 0 view .LVU58
 179 001a 84F82354 		strb	r5, [r4, #1059]
 180              		.loc 1 118 3 is_stmt 1 view .LVU59
 181              		.loc 1 118 30 is_stmt 0 view .LVU60
 182 001e 84F82054 		strb	r5, [r4, #1056]
 183              		.loc 1 119 3 is_stmt 1 view .LVU61
 184              		.loc 1 119 33 is_stmt 0 view .LVU62
 185 0022 84F82154 		strb	r5, [r4, #1057]
 186              		.loc 1 120 3 is_stmt 1 view .LVU63
 187              		.loc 1 120 33 is_stmt 0 view .LVU64
 188 0026 84F82254 		strb	r5, [r4, #1058]
 189              		.loc 1 123 3 is_stmt 1 view .LVU65
 190              		.loc 1 123 6 is_stmt 0 view .LVU66
 191 002a 0EB1     		cbz	r6, .L6
 192              		.loc 1 125 5 is_stmt 1 view .LVU67
 193              		.loc 1 125 18 is_stmt 0 view .LVU68
 194 002c C4F8F464 		str	r6, [r4, #1268]
 195              	.L6:
 196              		.loc 1 165 3 is_stmt 1 view .LVU69
 197              		.loc 1 165 9 is_stmt 0 view .LVU70
 198 0030 2046     		mov	r0, r4
 199 0032 FFF7FEFF 		bl	USBH_LL_Init
 200              	.LVL9:
 201              		.loc 1 167 3 is_stmt 1 view .LVU71
 202              		.loc 1 167 10 is_stmt 0 view .LVU72
 203 0036 0020     		movs	r0, #0
 204              		.loc 1 168 1 view .LVU73
 205 0038 70BD     		pop	{r4, r5, r6, pc}
 206              	.LVL10:
 207              	.L7:
 208              		.cfi_def_cfa_offset 0
 209              		.cfi_restore 4
 210              		.cfi_restore 5
 211              		.cfi_restore 6
 212              		.cfi_restore 14
 213              		.loc 1 103 12 view .LVU74
 214 003a 0220     		movs	r0, #2
 215              	.LVL11:
 216              		.loc 1 168 1 view .LVU75
 217 003c 7047     		bx	lr
 218              		.cfi_endproc
 219              	.LFE144:
 220              		.size	USBH_Init, .-USBH_Init
 221 003e 00BF     		.section	.text.USBH_DeInit,"ax",%progbits
 222              		.align	1
 223              		.p2align 2,,3
 224              		.global	USBH_DeInit
 225              		.syntax unified
 226              		.thumb
 227              		.thumb_func
 228              		.type	USBH_DeInit, %function
ARM GAS  C:\Users\DEVELO~1\AppData\Local\Temp\ccsBnKsD.s 			page 5


 229              	USBH_DeInit:
 230              	.LVL12:
 231              	.LFB145:
 232              		.loc 1 178 1 is_stmt 1 view -0
 233              		.cfi_startproc
 234              		@ args = 0, pretend = 0, frame = 0
 235              		@ frame_needed = 0, uses_anonymous_args = 0
 236              		.loc 1 179 3 view .LVU77
 237              		.loc 1 178 1 is_stmt 0 view .LVU78
 238 0000 10B5     		push	{r4, lr}
 239              		.cfi_def_cfa_offset 8
 240              		.cfi_offset 4, -8
 241              		.cfi_offset 14, -4
 242              		.loc 1 178 1 view .LVU79
 243 0002 0446     		mov	r4, r0
 244              		.loc 1 179 9 view .LVU80
 245 0004 FFF7FEFF 		bl	DeInitStateMachine.isra.0
 246              	.LVL13:
 247              		.loc 1 182 3 is_stmt 1 view .LVU81
 248              		.loc 1 182 29 is_stmt 0 view .LVU82
 249 0008 0023     		movs	r3, #0
 250              		.loc 1 189 6 view .LVU83
 251 000a D4F8F024 		ldr	r2, [r4, #1264]
 252              		.loc 1 182 29 view .LVU84
 253 000e 84F82334 		strb	r3, [r4, #1059]
 254              		.loc 1 183 3 is_stmt 1 view .LVU85
 255              		.loc 1 187 25 is_stmt 0 view .LVU86
 256 0012 A4F81E34 		strh	r3, [r4, #1054]	@ movhi
 257              		.loc 1 183 30 view .LVU87
 258 0016 84F82034 		strb	r3, [r4, #1056]
 259              		.loc 1 184 3 is_stmt 1 view .LVU88
 260              		.loc 1 184 33 is_stmt 0 view .LVU89
 261 001a 84F82134 		strb	r3, [r4, #1057]
 262              		.loc 1 185 3 is_stmt 1 view .LVU90
 263              		.loc 1 185 33 is_stmt 0 view .LVU91
 264 001e 84F82234 		strb	r3, [r4, #1058]
 265              		.loc 1 186 3 is_stmt 1 view .LVU92
 266              		.loc 1 187 3 view .LVU93
 267              		.loc 1 189 3 view .LVU94
 268              		.loc 1 189 6 is_stmt 0 view .LVU95
 269 0022 12B1     		cbz	r2, .L16
 270              		.loc 1 191 5 is_stmt 1 view .LVU96
 271              		.loc 1 191 11 is_stmt 0 view .LVU97
 272 0024 2046     		mov	r0, r4
 273 0026 FFF7FEFF 		bl	USBH_LL_Stop
 274              	.LVL14:
 275              	.L16:
 276              		.loc 1 210 3 is_stmt 1 view .LVU98
 277              		.loc 1 211 1 is_stmt 0 view .LVU99
 278 002a 0020     		movs	r0, #0
 279 002c 10BD     		pop	{r4, pc}
 280              		.loc 1 211 1 view .LVU100
 281              		.cfi_endproc
 282              	.LFE145:
 283              		.size	USBH_DeInit, .-USBH_DeInit
 284 002e 00BF     		.section	.text.USBH_RegisterClass,"ax",%progbits
 285              		.align	1
ARM GAS  C:\Users\DEVELO~1\AppData\Local\Temp\ccsBnKsD.s 			page 6


 286              		.p2align 2,,3
 287              		.global	USBH_RegisterClass
 288              		.syntax unified
 289              		.thumb
 290              		.thumb_func
 291              		.type	USBH_RegisterClass, %function
 292              	USBH_RegisterClass:
 293              	.LVL15:
 294              	.LFB147:
 295              		.loc 1 267 1 is_stmt 1 view -0
 296              		.cfi_startproc
 297              		@ args = 0, pretend = 0, frame = 0
 298              		@ frame_needed = 0, uses_anonymous_args = 0
 299              		@ link register save eliminated.
 300              		.loc 1 268 3 view .LVU102
 301              		.loc 1 270 3 view .LVU103
 302              		.loc 1 267 1 is_stmt 0 view .LVU104
 303 0000 0346     		mov	r3, r0
 304              		.loc 1 270 6 view .LVU105
 305 0002 41B1     		cbz	r1, .L24
 306              		.loc 1 272 5 is_stmt 1 view .LVU106
 307              		.loc 1 272 8 is_stmt 0 view .LVU107
 308 0004 D0F8A004 		ldr	r0, [r0, #1184]
 309              	.LVL16:
 310              		.loc 1 272 8 view .LVU108
 311 0008 28B9     		cbnz	r0, .L24
 312              		.loc 1 275 7 is_stmt 1 view .LVU109
 313              		.loc 1 275 39 is_stmt 0 view .LVU110
 314 000a 0122     		movs	r2, #1
 315              		.loc 1 275 43 view .LVU111
 316 000c C3F89814 		str	r1, [r3, #1176]
 317              		.loc 1 276 7 is_stmt 1 view .LVU112
 318              		.loc 1 275 39 is_stmt 0 view .LVU113
 319 0010 C3F8A024 		str	r2, [r3, #1184]
 320 0014 7047     		bx	lr
 321              	.L24:
 322              		.loc 1 287 12 view .LVU114
 323 0016 0220     		movs	r0, #2
 324              	.LVL17:
 325              		.loc 1 290 3 is_stmt 1 view .LVU115
 326              		.loc 1 291 1 is_stmt 0 view .LVU116
 327 0018 7047     		bx	lr
 328              		.cfi_endproc
 329              	.LFE147:
 330              		.size	USBH_RegisterClass, .-USBH_RegisterClass
 331 001a 00BF     		.section	.text.USBH_SelectInterface,"ax",%progbits
 332              		.align	1
 333              		.p2align 2,,3
 334              		.global	USBH_SelectInterface
 335              		.syntax unified
 336              		.thumb
 337              		.thumb_func
 338              		.type	USBH_SelectInterface, %function
 339              	USBH_SelectInterface:
 340              	.LVL18:
 341              	.LFB148:
 342              		.loc 1 302 1 is_stmt 1 view -0
ARM GAS  C:\Users\DEVELO~1\AppData\Local\Temp\ccsBnKsD.s 			page 7


 343              		.cfi_startproc
 344              		@ args = 0, pretend = 0, frame = 0
 345              		@ frame_needed = 0, uses_anonymous_args = 0
 346              		@ link register save eliminated.
 347              		.loc 1 303 3 view .LVU118
 348              		.loc 1 305 3 view .LVU119
 349              		.loc 1 305 6 is_stmt 0 view .LVU120
 350 0000 90F83C24 		ldrb	r2, [r0, #1084]	@ zero_extendqisi2
 351              		.loc 1 302 1 view .LVU121
 352 0004 0346     		mov	r3, r0
 353              		.loc 1 305 6 view .LVU122
 354 0006 8A42     		cmp	r2, r1
 355 0008 03D9     		bls	.L27
 356              		.loc 1 307 5 is_stmt 1 view .LVU123
 357              		.loc 1 303 22 is_stmt 0 view .LVU124
 358 000a 0020     		movs	r0, #0
 359              	.LVL19:
 360              		.loc 1 307 37 view .LVU125
 361 000c 83F82414 		strb	r1, [r3, #1060]
 362              		.loc 1 308 5 is_stmt 1 view .LVU126
 363              		.loc 1 308 5 view .LVU127
 364              		.loc 1 308 5 view .LVU128
 365              		.loc 1 309 5 view .LVU129
 366              		.loc 1 309 5 view .LVU130
 367              		.loc 1 309 5 view .LVU131
 368              		.loc 1 310 5 view .LVU132
 369              		.loc 1 310 5 view .LVU133
 370              		.loc 1 310 5 view .LVU134
 371              		.loc 1 311 5 view .LVU135
 372              		.loc 1 311 5 view .LVU136
 373              		.loc 1 311 5 view .LVU137
 374 0010 7047     		bx	lr
 375              	.LVL20:
 376              	.L27:
 377              		.loc 1 316 12 is_stmt 0 view .LVU138
 378 0012 0220     		movs	r0, #2
 379              	.LVL21:
 380              		.loc 1 319 3 is_stmt 1 view .LVU139
 381              		.loc 1 320 1 is_stmt 0 view .LVU140
 382 0014 7047     		bx	lr
 383              		.cfi_endproc
 384              	.LFE148:
 385              		.size	USBH_SelectInterface, .-USBH_SelectInterface
 386 0016 00BF     		.section	.text.USBH_GetActiveClass,"ax",%progbits
 387              		.align	1
 388              		.p2align 2,,3
 389              		.global	USBH_GetActiveClass
 390              		.syntax unified
 391              		.thumb
 392              		.thumb_func
 393              		.type	USBH_GetActiveClass, %function
 394              	USBH_GetActiveClass:
 395              	.LVL22:
 396              	.LFB149:
 397              		.loc 1 331 1 is_stmt 1 view -0
 398              		.cfi_startproc
 399              		@ args = 0, pretend = 0, frame = 0
ARM GAS  C:\Users\DEVELO~1\AppData\Local\Temp\ccsBnKsD.s 			page 8


 400              		@ frame_needed = 0, uses_anonymous_args = 0
 401              		@ link register save eliminated.
 402              		.loc 1 332 3 view .LVU142
 403              		.loc 1 333 1 is_stmt 0 view .LVU143
 404 0000 90F84704 		ldrb	r0, [r0, #1095]	@ zero_extendqisi2
 405              	.LVL23:
 406              		.loc 1 333 1 view .LVU144
 407 0004 7047     		bx	lr
 408              		.cfi_endproc
 409              	.LFE149:
 410              		.size	USBH_GetActiveClass, .-USBH_GetActiveClass
 411 0006 00BF     		.section	.text.USBH_FindInterface,"ax",%progbits
 412              		.align	1
 413              		.p2align 2,,3
 414              		.global	USBH_FindInterface
 415              		.syntax unified
 416              		.thumb
 417              		.thumb_func
 418              		.type	USBH_FindInterface, %function
 419              	USBH_FindInterface:
 420              	.LVL24:
 421              	.LFB150:
 422              		.loc 1 347 1 is_stmt 1 view -0
 423              		.cfi_startproc
 424              		@ args = 0, pretend = 0, frame = 0
 425              		@ frame_needed = 0, uses_anonymous_args = 0
 426              		.loc 1 348 3 view .LVU146
 427              		.loc 1 349 3 view .LVU147
 428              		.loc 1 350 3 view .LVU148
 429              		.loc 1 352 3 view .LVU149
 430              		.loc 1 353 3 view .LVU150
 431              		.loc 1 355 3 view .LVU151
 432              		.loc 1 355 16 view .LVU152
 433              		.loc 1 347 1 is_stmt 0 view .LVU153
 434 0000 30B5     		push	{r4, r5, lr}
 435              		.cfi_def_cfa_offset 12
 436              		.cfi_offset 4, -12
 437              		.cfi_offset 5, -8
 438              		.cfi_offset 14, -4
 439              		.loc 1 358 42 view .LVU154
 440 0002 A1F1FF05 		sub	r5, r1, #255
 441 0006 0024     		movs	r4, #0
 442 0008 B5FA85F5 		clz	r5, r5
 443 000c 6D09     		lsrs	r5, r5, #5
 444              	.LVL25:
 445              	.L34:
 446              		.loc 1 364 5 is_stmt 1 view .LVU155
 447              		.loc 1 355 16 view .LVU156
 448              		.loc 1 358 8 is_stmt 0 view .LVU157
 449 000e 90F847E4 		ldrb	lr, [r0, #1095]	@ zero_extendqisi2
 450 0012 5FFA84FC 		uxtb	ip, r4
 451              	.LVL26:
 452              		.loc 1 357 5 is_stmt 1 view .LVU158
 453              		.loc 1 358 5 view .LVU159
 454              		.loc 1 358 42 is_stmt 0 view .LVU160
 455 0016 8E45     		cmp	lr, r1
 456 0018 06D0     		beq	.L36
ARM GAS  C:\Users\DEVELO~1\AppData\Local\Temp\ccsBnKsD.s 			page 9


 457 001a 2DB9     		cbnz	r5, .L36
 458              	.L30:
 459              		.loc 1 355 16 view .LVU161
 460 001c 2A30     		adds	r0, r0, #42
 461 001e 94B1     		cbz	r4, .L35
 462              	.L45:
 463              		.loc 1 366 10 view .LVU162
 464 0020 4FF0FF0C 		mov	ip, #255
 465              	.LVL27:
 466              	.L33:
 467              		.loc 1 367 1 view .LVU163
 468 0024 6046     		mov	r0, ip
 469 0026 30BD     		pop	{r4, r5, pc}
 470              	.LVL28:
 471              	.L36:
 472              		.loc 1 358 63 discriminator 3 view .LVU164
 473 0028 90F848E4 		ldrb	lr, [r0, #1096]	@ zero_extendqisi2
 474              		.loc 1 359 48 discriminator 3 view .LVU165
 475 002c 9645     		cmp	lr, r2
 476 002e 01D0     		beq	.L37
 477 0030 FF2A     		cmp	r2, #255
 478 0032 F3D1     		bne	.L30
 479              	.L37:
 480              		.loc 1 359 72 discriminator 1 view .LVU166
 481 0034 90F849E4 		ldrb	lr, [r0, #1097]	@ zero_extendqisi2
 482              		.loc 1 360 48 discriminator 1 view .LVU167
 483 0038 9E45     		cmp	lr, r3
 484 003a F3D0     		beq	.L33
 485 003c FF2B     		cmp	r3, #255
 486 003e F1D0     		beq	.L33
 487              		.loc 1 355 16 view .LVU168
 488 0040 2A30     		adds	r0, r0, #42
 489 0042 002C     		cmp	r4, #0
 490 0044 ECD1     		bne	.L45
 491              	.L35:
 492 0046 0124     		movs	r4, #1
 493              	.LVL29:
 494              		.loc 1 355 16 view .LVU169
 495 0048 E1E7     		b	.L34
 496              		.cfi_endproc
 497              	.LFE150:
 498              		.size	USBH_FindInterface, .-USBH_FindInterface
 499 004a 00BF     		.section	.text.USBH_FindInterfaceIndex,"ax",%progbits
 500              		.align	1
 501              		.p2align 2,,3
 502              		.global	USBH_FindInterfaceIndex
 503              		.syntax unified
 504              		.thumb
 505              		.thumb_func
 506              		.type	USBH_FindInterfaceIndex, %function
 507              	USBH_FindInterfaceIndex:
 508              	.LVL30:
 509              	.LFB151:
 510              		.loc 1 380 1 is_stmt 1 view -0
 511              		.cfi_startproc
 512              		@ args = 0, pretend = 0, frame = 0
 513              		@ frame_needed = 0, uses_anonymous_args = 0
ARM GAS  C:\Users\DEVELO~1\AppData\Local\Temp\ccsBnKsD.s 			page 10


 514              		@ link register save eliminated.
 515              		.loc 1 381 3 view .LVU171
 516              		.loc 1 382 3 view .LVU172
 517              		.loc 1 383 3 view .LVU173
 518              		.loc 1 385 3 view .LVU174
 519              		.loc 1 386 3 view .LVU175
 520              		.loc 1 388 3 view .LVU176
 521              		.loc 1 388 16 view .LVU177
 522              		.loc 1 390 5 view .LVU178
 523              		.loc 1 391 5 view .LVU179
 524              		.loc 1 391 8 is_stmt 0 view .LVU180
 525 0000 90F84434 		ldrb	r3, [r0, #1092]	@ zero_extendqisi2
 526 0004 8B42     		cmp	r3, r1
 527 0006 05D0     		beq	.L52
 528              	.L47:
 529              		.loc 1 395 5 is_stmt 1 view .LVU181
 530              	.LVL31:
 531              		.loc 1 388 16 view .LVU182
 532              		.loc 1 390 5 view .LVU183
 533              		.loc 1 391 5 view .LVU184
 534              		.loc 1 391 8 is_stmt 0 view .LVU185
 535 0008 90F86E34 		ldrb	r3, [r0, #1134]	@ zero_extendqisi2
 536 000c 8B42     		cmp	r3, r1
 537 000e 07D0     		beq	.L53
 538              		.loc 1 397 10 view .LVU186
 539 0010 FF20     		movs	r0, #255
 540              	.LVL32:
 541              		.loc 1 398 1 view .LVU187
 542 0012 7047     		bx	lr
 543              	.LVL33:
 544              	.L52:
 545              		.loc 1 391 53 view .LVU188
 546 0014 90F84534 		ldrb	r3, [r0, #1093]	@ zero_extendqisi2
 547 0018 9342     		cmp	r3, r2
 548 001a F5D1     		bne	.L47
 549              		.loc 1 383 11 view .LVU189
 550 001c 0020     		movs	r0, #0
 551              	.LVL34:
 552              		.loc 1 383 11 view .LVU190
 553 001e 7047     		bx	lr
 554              	.LVL35:
 555              	.L53:
 556              		.loc 1 391 53 view .LVU191
 557 0020 90F86F04 		ldrb	r0, [r0, #1135]	@ zero_extendqisi2
 558              	.LVL36:
 559              		.loc 1 395 10 view .LVU192
 560 0024 9042     		cmp	r0, r2
 561 0026 14BF     		ite	ne
 562 0028 FF20     		movne	r0, #255
 563 002a 0120     		moveq	r0, #1
 564 002c 7047     		bx	lr
 565              		.cfi_endproc
 566              	.LFE151:
 567              		.size	USBH_FindInterfaceIndex, .-USBH_FindInterfaceIndex
 568 002e 00BF     		.section	.text.USBH_Start,"ax",%progbits
 569              		.align	1
 570              		.p2align 2,,3
ARM GAS  C:\Users\DEVELO~1\AppData\Local\Temp\ccsBnKsD.s 			page 11


 571              		.global	USBH_Start
 572              		.syntax unified
 573              		.thumb
 574              		.thumb_func
 575              		.type	USBH_Start, %function
 576              	USBH_Start:
 577              	.LVL37:
 578              	.LFB152:
 579              		.loc 1 408 1 is_stmt 1 view -0
 580              		.cfi_startproc
 581              		@ args = 0, pretend = 0, frame = 0
 582              		@ frame_needed = 0, uses_anonymous_args = 0
 583              		.loc 1 410 3 view .LVU194
 584              		.loc 1 408 1 is_stmt 0 view .LVU195
 585 0000 10B5     		push	{r4, lr}
 586              		.cfi_def_cfa_offset 8
 587              		.cfi_offset 4, -8
 588              		.cfi_offset 14, -4
 589              		.loc 1 408 1 view .LVU196
 590 0002 0446     		mov	r4, r0
 591              		.loc 1 410 9 view .LVU197
 592 0004 FFF7FEFF 		bl	USBH_LL_Start
 593              	.LVL38:
 594              		.loc 1 413 3 is_stmt 1 view .LVU198
 595              		.loc 1 413 9 is_stmt 0 view .LVU199
 596 0008 0121     		movs	r1, #1
 597 000a 2046     		mov	r0, r4
 598 000c FFF7FEFF 		bl	USBH_LL_DriverVBUS
 599              	.LVL39:
 600              		.loc 1 415 3 is_stmt 1 view .LVU200
 601              		.loc 1 416 1 is_stmt 0 view .LVU201
 602 0010 0020     		movs	r0, #0
 603 0012 10BD     		pop	{r4, pc}
 604              		.loc 1 416 1 view .LVU202
 605              		.cfi_endproc
 606              	.LFE152:
 607              		.size	USBH_Start, .-USBH_Start
 608              		.section	.text.USBH_Stop,"ax",%progbits
 609              		.align	1
 610              		.p2align 2,,3
 611              		.global	USBH_Stop
 612              		.syntax unified
 613              		.thumb
 614              		.thumb_func
 615              		.type	USBH_Stop, %function
 616              	USBH_Stop:
 617              	.LVL40:
 618              	.LFB153:
 619              		.loc 1 426 1 is_stmt 1 view -0
 620              		.cfi_startproc
 621              		@ args = 0, pretend = 0, frame = 0
 622              		@ frame_needed = 0, uses_anonymous_args = 0
 623              		.loc 1 428 3 view .LVU204
 624              		.loc 1 426 1 is_stmt 0 view .LVU205
 625 0000 10B5     		push	{r4, lr}
 626              		.cfi_def_cfa_offset 8
 627              		.cfi_offset 4, -8
ARM GAS  C:\Users\DEVELO~1\AppData\Local\Temp\ccsBnKsD.s 			page 12


 628              		.cfi_offset 14, -4
 629              		.loc 1 426 1 view .LVU206
 630 0002 0446     		mov	r4, r0
 631              		.loc 1 428 9 view .LVU207
 632 0004 0021     		movs	r1, #0
 633 0006 FFF7FEFF 		bl	USBH_LL_DriverVBUS
 634              	.LVL41:
 635              		.loc 1 431 3 is_stmt 1 view .LVU208
 636              		.loc 1 431 9 is_stmt 0 view .LVU209
 637 000a 2046     		mov	r0, r4
 638 000c FFF7FEFF 		bl	USBH_LL_Stop
 639              	.LVL42:
 640              		.loc 1 434 3 is_stmt 1 view .LVU210
 641              		.loc 1 434 9 is_stmt 0 view .LVU211
 642 0010 2179     		ldrb	r1, [r4, #4]	@ zero_extendqisi2
 643 0012 2046     		mov	r0, r4
 644 0014 FFF7FEFF 		bl	USBH_FreePipe
 645              	.LVL43:
 646              		.loc 1 435 3 is_stmt 1 view .LVU212
 647              		.loc 1 435 9 is_stmt 0 view .LVU213
 648 0018 6179     		ldrb	r1, [r4, #5]	@ zero_extendqisi2
 649 001a 2046     		mov	r0, r4
 650 001c FFF7FEFF 		bl	USBH_FreePipe
 651              	.LVL44:
 652              		.loc 1 437 3 is_stmt 1 view .LVU214
 653              		.loc 1 438 1 is_stmt 0 view .LVU215
 654 0020 0020     		movs	r0, #0
 655 0022 10BD     		pop	{r4, pc}
 656              		.loc 1 438 1 view .LVU216
 657              		.cfi_endproc
 658              	.LFE153:
 659              		.size	USBH_Stop, .-USBH_Stop
 660              		.section	.text.USBH_ReEnumerate,"ax",%progbits
 661              		.align	1
 662              		.p2align 2,,3
 663              		.global	USBH_ReEnumerate
 664              		.syntax unified
 665              		.thumb
 666              		.thumb_func
 667              		.type	USBH_ReEnumerate, %function
 668              	USBH_ReEnumerate:
 669              	.LVL45:
 670              	.LFB154:
 671              		.loc 1 448 1 is_stmt 1 view -0
 672              		.cfi_startproc
 673              		@ args = 0, pretend = 0, frame = 0
 674              		@ frame_needed = 0, uses_anonymous_args = 0
 675              		.loc 1 449 3 view .LVU218
 676              	.LBB8:
 677              	.LBI8:
 678              		.loc 1 1189 9 view .LVU219
 679              	.LBB9:
 680              		.loc 1 1191 3 view .LVU220
 681              		.loc 1 1191 24 is_stmt 0 view .LVU221
 682 0000 90F82334 		ldrb	r3, [r0, #1059]	@ zero_extendqisi2
 683              	.LBE9:
 684              	.LBE8:
ARM GAS  C:\Users\DEVELO~1\AppData\Local\Temp\ccsBnKsD.s 			page 13


 685              		.loc 1 449 6 view .LVU222
 686 0004 0BB9     		cbnz	r3, .L67
 687              		.loc 1 461 3 is_stmt 1 view .LVU223
 688              		.loc 1 462 1 is_stmt 0 view .LVU224
 689 0006 0020     		movs	r0, #0
 690              	.LVL46:
 691              		.loc 1 462 1 view .LVU225
 692 0008 7047     		bx	lr
 693              	.LVL47:
 694              	.L67:
 695              		.loc 1 451 5 is_stmt 1 view .LVU226
 696              		.loc 1 451 35 is_stmt 0 view .LVU227
 697 000a 0123     		movs	r3, #1
 698              	.LBB10:
 699              	.LBB11:
 700              		.loc 1 428 9 view .LVU228
 701 000c 0021     		movs	r1, #0
 702              	.LBE11:
 703              	.LBE10:
 704              		.loc 1 448 1 view .LVU229
 705 000e 10B5     		push	{r4, lr}
 706              		.cfi_def_cfa_offset 8
 707              		.cfi_offset 4, -8
 708              		.cfi_offset 14, -4
 709 0010 0446     		mov	r4, r0
 710              		.loc 1 451 35 view .LVU230
 711 0012 80F82234 		strb	r3, [r0, #1058]
 712              		.loc 1 454 5 is_stmt 1 view .LVU231
 713              	.LVL48:
 714              	.LBB13:
 715              	.LBI10:
 716              		.loc 1 425 20 view .LVU232
 717              	.LBB12:
 718              		.loc 1 428 3 view .LVU233
 719              		.loc 1 428 9 is_stmt 0 view .LVU234
 720 0016 FFF7FEFF 		bl	USBH_LL_DriverVBUS
 721              	.LVL49:
 722              		.loc 1 431 3 is_stmt 1 view .LVU235
 723              		.loc 1 431 9 is_stmt 0 view .LVU236
 724 001a 2046     		mov	r0, r4
 725 001c FFF7FEFF 		bl	USBH_LL_Stop
 726              	.LVL50:
 727              		.loc 1 434 3 is_stmt 1 view .LVU237
 728              		.loc 1 434 9 is_stmt 0 view .LVU238
 729 0020 2179     		ldrb	r1, [r4, #4]	@ zero_extendqisi2
 730 0022 2046     		mov	r0, r4
 731 0024 FFF7FEFF 		bl	USBH_FreePipe
 732              	.LVL51:
 733              		.loc 1 435 3 is_stmt 1 view .LVU239
 734              		.loc 1 435 9 is_stmt 0 view .LVU240
 735 0028 6179     		ldrb	r1, [r4, #5]	@ zero_extendqisi2
 736 002a 2046     		mov	r0, r4
 737 002c FFF7FEFF 		bl	USBH_FreePipe
 738              	.LVL52:
 739              		.loc 1 437 3 is_stmt 1 view .LVU241
 740              		.loc 1 437 3 is_stmt 0 view .LVU242
 741              	.LBE12:
ARM GAS  C:\Users\DEVELO~1\AppData\Local\Temp\ccsBnKsD.s 			page 14


 742              	.LBE13:
 743              		.loc 1 461 3 is_stmt 1 view .LVU243
 744              		.loc 1 462 1 is_stmt 0 view .LVU244
 745 0030 0020     		movs	r0, #0
 746 0032 10BD     		pop	{r4, pc}
 747              		.loc 1 462 1 view .LVU245
 748              		.cfi_endproc
 749              	.LFE154:
 750              		.size	USBH_ReEnumerate, .-USBH_ReEnumerate
 751              		.section	.text.USBH_Process,"ax",%progbits
 752              		.align	1
 753              		.p2align 2,,3
 754              		.global	USBH_Process
 755              		.syntax unified
 756              		.thumb
 757              		.thumb_func
 758              		.type	USBH_Process, %function
 759              	USBH_Process:
 760              	.LVL53:
 761              	.LFB155:
 762              		.loc 1 472 1 is_stmt 1 view -0
 763              		.cfi_startproc
 764              		@ args = 0, pretend = 0, frame = 8
 765              		@ frame_needed = 0, uses_anonymous_args = 0
 766              		.loc 1 473 3 view .LVU247
 767              		.loc 1 472 1 is_stmt 0 view .LVU248
 768 0000 70B5     		push	{r4, r5, r6, lr}
 769              		.cfi_def_cfa_offset 16
 770              		.cfi_offset 4, -16
 771              		.cfi_offset 5, -12
 772              		.cfi_offset 6, -8
 773              		.cfi_offset 14, -4
 774              		.loc 1 473 27 view .LVU249
 775 0002 0223     		movs	r3, #2
 776              		.loc 1 472 1 view .LVU250
 777 0004 86B0     		sub	sp, sp, #24
 778              		.cfi_def_cfa_offset 40
 779              		.loc 1 472 1 view .LVU251
 780 0006 0446     		mov	r4, r0
 781              		.loc 1 473 27 view .LVU252
 782 0008 8DF81730 		strb	r3, [sp, #23]
 783              		.loc 1 474 3 is_stmt 1 view .LVU253
 784              	.LVL54:
 785              		.loc 1 477 3 view .LVU254
 786              		.loc 1 477 21 is_stmt 0 view .LVU255
 787 000c 90F82134 		ldrb	r3, [r0, #1057]	@ zero_extendqisi2
 788              		.loc 1 477 6 view .LVU256
 789 0010 012B     		cmp	r3, #1
 790 0012 0ED0     		beq	.L69
 791              		.loc 1 478 24 view .LVU257
 792 0014 90F82234 		ldrb	r3, [r0, #1058]	@ zero_extendqisi2
 793              		.loc 1 478 7 view .LVU258
 794 0018 012B     		cmp	r3, #1
 795 001a 0AD0     		beq	.L69
 796              	.L70:
 797              		.loc 1 483 3 is_stmt 1 view .LVU259
 798              		.loc 1 483 16 is_stmt 0 view .LVU260
ARM GAS  C:\Users\DEVELO~1\AppData\Local\Temp\ccsBnKsD.s 			page 15


 799 001c 2378     		ldrb	r3, [r4]	@ zero_extendqisi2
 800              		.loc 1 483 3 view .LVU261
 801 001e 0B2B     		cmp	r3, #11
 802 0020 40D8     		bhi	.L151
 803 0022 DFE803F0 		tbb	[pc, r3]
 804              	.L73:
 805 0026 4A       		.byte	(.L83-.L73)/2
 806 0027 5C       		.byte	(.L82-.L73)/2
 807 0028 09       		.byte	(.L81-.L73)/2
 808 0029 72       		.byte	(.L80-.L73)/2
 809 002a 3F       		.byte	(.L151-.L73)/2
 810 002b 90       		.byte	(.L79-.L73)/2
 811 002c 9A       		.byte	(.L78-.L73)/2
 812 002d AA       		.byte	(.L77-.L73)/2
 813 002e D7       		.byte	(.L76-.L73)/2
 814 002f B4       		.byte	(.L75-.L73)/2
 815 0030 BC       		.byte	(.L74-.L73)/2
 816 0031 42       		.byte	(.L72-.L73)/2
 817              		.p2align 1
 818              	.L69:
 819              		.loc 1 480 5 is_stmt 1 view .LVU262
 820              		.loc 1 480 19 is_stmt 0 view .LVU263
 821 0032 0323     		movs	r3, #3
 822 0034 2370     		strb	r3, [r4]
 823 0036 F1E7     		b	.L70
 824              	.L81:
 825              		.loc 1 544 7 is_stmt 1 view .LVU264
 826              		.loc 1 544 16 is_stmt 0 view .LVU265
 827 0038 D4F8F434 		ldr	r3, [r4, #1268]
 828              		.loc 1 544 10 view .LVU266
 829 003c 13B1     		cbz	r3, .L88
 830              		.loc 1 546 9 is_stmt 1 view .LVU267
 831 003e 0421     		movs	r1, #4
 832 0040 2046     		mov	r0, r4
 833              	.LVL55:
 834              		.loc 1 546 9 is_stmt 0 view .LVU268
 835 0042 9847     		blx	r3
 836              	.LVL56:
 837              	.L88:
 838              		.loc 1 550 7 is_stmt 1 view .LVU269
 839 0044 6420     		movs	r0, #100
 840              		.loc 1 564 13 is_stmt 0 view .LVU270
 841 0046 0025     		movs	r5, #0
 842              		.loc 1 550 7 view .LVU271
 843 0048 FFF7FEFF 		bl	USBH_Delay
 844              	.LVL57:
 845              		.loc 1 552 7 is_stmt 1 view .LVU272
 846              		.loc 1 552 38 is_stmt 0 view .LVU273
 847 004c 2046     		mov	r0, r4
 848 004e FFF7FEFF 		bl	USBH_LL_GetSpeed
 849              	.LVL58:
 850              		.loc 1 558 21 view .LVU274
 851 0052 0523     		movs	r3, #5
 852              		.loc 1 560 33 view .LVU275
 853 0054 2946     		mov	r1, r5
 854              		.loc 1 552 27 view .LVU276
 855 0056 84F81D04 		strb	r0, [r4, #1053]
ARM GAS  C:\Users\DEVELO~1\AppData\Local\Temp\ccsBnKsD.s 			page 16


 856              		.loc 1 558 7 is_stmt 1 view .LVU277
 857              		.loc 1 558 21 is_stmt 0 view .LVU278
 858 005a 2370     		strb	r3, [r4]
 859              		.loc 1 560 7 is_stmt 1 view .LVU279
 860              		.loc 1 560 33 is_stmt 0 view .LVU280
 861 005c 2046     		mov	r0, r4
 862 005e FFF7FEFF 		bl	USBH_AllocPipe
 863              	.LVL59:
 864 0062 0346     		mov	r3, r0
 865              		.loc 1 561 33 view .LVU281
 866 0064 8021     		movs	r1, #128
 867 0066 2046     		mov	r0, r4
 868              		.loc 1 560 31 view .LVU282
 869 0068 6371     		strb	r3, [r4, #5]
 870              		.loc 1 561 7 is_stmt 1 view .LVU283
 871              		.loc 1 561 33 is_stmt 0 view .LVU284
 872 006a FFF7FEFF 		bl	USBH_AllocPipe
 873              	.LVL60:
 874              		.loc 1 564 13 view .LVU285
 875 006e A279     		ldrb	r2, [r4, #6]	@ zero_extendqisi2
 876 0070 94F81D34 		ldrb	r3, [r4, #1053]	@ zero_extendqisi2
 877              		.loc 1 561 33 view .LVU286
 878 0074 0146     		mov	r1, r0
 879              		.loc 1 564 13 view .LVU287
 880 0076 CDE90152 		strd	r5, r2, [sp, #4]
 881 007a 0093     		str	r3, [sp]
 882 007c 8022     		movs	r2, #128
 883 007e 94F81C34 		ldrb	r3, [r4, #1052]	@ zero_extendqisi2
 884              		.loc 1 561 31 view .LVU288
 885 0082 2071     		strb	r0, [r4, #4]
 886              		.loc 1 564 7 is_stmt 1 view .LVU289
 887              		.loc 1 564 13 is_stmt 0 view .LVU290
 888 0084 2046     		mov	r0, r4
 889 0086 FFF7FEFF 		bl	USBH_OpenPipe
 890              	.LVL61:
 891              		.loc 1 569 7 is_stmt 1 view .LVU291
 892              		.loc 1 569 13 is_stmt 0 view .LVU292
 893 008a A279     		ldrb	r2, [r4, #6]	@ zero_extendqisi2
 894 008c 94F81D14 		ldrb	r1, [r4, #1053]	@ zero_extendqisi2
 895 0090 2046     		mov	r0, r4
 896 0092 94F81C34 		ldrb	r3, [r4, #1052]	@ zero_extendqisi2
 897 0096 0091     		str	r1, [sp]
 898 0098 CDE90152 		strd	r5, r2, [sp, #4]
 899 009c 2A46     		mov	r2, r5
 900 009e 6179     		ldrb	r1, [r4, #5]	@ zero_extendqisi2
 901 00a0 FFF7FEFF 		bl	USBH_OpenPipe
 902              	.LVL62:
 903              		.loc 1 576 7 is_stmt 1 view .LVU293
 904              	.L151:
 905              		.loc 1 790 1 is_stmt 0 view .LVU294
 906 00a4 0020     		movs	r0, #0
 907 00a6 06B0     		add	sp, sp, #24
 908              		.cfi_remember_state
 909              		.cfi_def_cfa_offset 16
 910              		@ sp needed
 911 00a8 70BD     		pop	{r4, r5, r6, pc}
 912              	.LVL63:
ARM GAS  C:\Users\DEVELO~1\AppData\Local\Temp\ccsBnKsD.s 			page 17


 913              	.L72:
 914              		.cfi_restore_state
 915              		.loc 1 743 7 is_stmt 1 view .LVU295
 916              		.loc 1 743 16 is_stmt 0 view .LVU296
 917 00aa D4F89C34 		ldr	r3, [r4, #1180]
 918              		.loc 1 743 10 view .LVU297
 919 00ae 002B     		cmp	r3, #0
 920 00b0 F8D0     		beq	.L151
 921              		.loc 1 745 9 is_stmt 1 view .LVU298
 922 00b2 5B69     		ldr	r3, [r3, #20]
 923 00b4 2046     		mov	r0, r4
 924              	.LVL64:
 925              		.loc 1 745 9 is_stmt 0 view .LVU299
 926 00b6 9847     		blx	r3
 927              	.LVL65:
 928 00b8 F4E7     		b	.L151
 929              	.LVL66:
 930              	.L83:
 931              		.loc 1 487 7 is_stmt 1 view .LVU300
 932              		.loc 1 487 25 is_stmt 0 view .LVU301
 933 00ba 94F82034 		ldrb	r3, [r4, #1056]	@ zero_extendqisi2
 934              		.loc 1 487 10 view .LVU302
 935 00be 002B     		cmp	r3, #0
 936 00c0 F0D0     		beq	.L151
 937              		.loc 1 489 9 is_stmt 1 view .LVU303
 938              		.loc 1 489 9 view .LVU304
 939              		.loc 1 489 9 view .LVU305
 940              		.loc 1 492 9 view .LVU306
 941              		.loc 1 492 23 is_stmt 0 view .LVU307
 942 00c2 0123     		movs	r3, #1
 943              		.loc 1 493 9 view .LVU308
 944 00c4 C820     		movs	r0, #200
 945              	.LVL67:
 946              		.loc 1 492 23 view .LVU309
 947 00c6 2370     		strb	r3, [r4]
 948              		.loc 1 493 9 is_stmt 1 view .LVU310
 949 00c8 FFF7FEFF 		bl	USBH_Delay
 950              	.LVL68:
 951              		.loc 1 494 9 view .LVU311
 952              		.loc 1 494 15 is_stmt 0 view .LVU312
 953 00cc 2046     		mov	r0, r4
 954 00ce FFF7FEFF 		bl	USBH_LL_ResetPort
 955              	.LVL69:
 956              		.loc 1 497 9 is_stmt 1 view .LVU313
 957              		.loc 1 497 31 is_stmt 0 view .LVU314
 958 00d2 0023     		movs	r3, #0
 959 00d4 84F81C34 		strb	r3, [r4, #1052]
 960              		.loc 1 498 9 is_stmt 1 view .LVU315
 961              		.loc 1 498 24 is_stmt 0 view .LVU316
 962 00d8 C4F8E834 		str	r3, [r4, #1256]
 963 00dc E2E7     		b	.L151
 964              	.LVL70:
 965              	.L82:
 966              		.loc 1 508 7 is_stmt 1 view .LVU317
 967              		.loc 1 508 24 is_stmt 0 view .LVU318
 968 00de 94F82334 		ldrb	r3, [r4, #1059]	@ zero_extendqisi2
 969              		.loc 1 508 10 view .LVU319
ARM GAS  C:\Users\DEVELO~1\AppData\Local\Temp\ccsBnKsD.s 			page 18


 970 00e2 012B     		cmp	r3, #1
 971 00e4 00F00981 		beq	.L174
 972              		.loc 1 516 9 is_stmt 1 view .LVU320
 973              		.loc 1 516 18 is_stmt 0 view .LVU321
 974 00e8 D4F8E834 		ldr	r3, [r4, #1256]
 975              		.loc 1 516 12 view .LVU322
 976 00ec B3F57A7F 		cmp	r3, #1000
 977 00f0 40F28380 		bls	.L86
 978              		.loc 1 518 11 is_stmt 1 view .LVU323
 979              		.loc 1 518 31 is_stmt 0 view .LVU324
 980 00f4 94F81F34 		ldrb	r3, [r4, #1055]	@ zero_extendqisi2
 981 00f8 0133     		adds	r3, r3, #1
 982 00fa DBB2     		uxtb	r3, r3
 983              		.loc 1 519 14 view .LVU325
 984 00fc 032B     		cmp	r3, #3
 985              		.loc 1 518 31 view .LVU326
 986 00fe 84F81F34 		strb	r3, [r4, #1055]
 987              		.loc 1 519 11 is_stmt 1 view .LVU327
 988              		.loc 1 519 14 is_stmt 0 view .LVU328
 989 0102 77D8     		bhi	.L119
 990              		.loc 1 527 13 is_stmt 1 view .LVU329
 991              		.loc 1 527 27 is_stmt 0 view .LVU330
 992 0104 0023     		movs	r3, #0
 993 0106 2370     		strb	r3, [r4]
 994 0108 CCE7     		b	.L151
 995              	.L80:
 996              		.loc 1 750 7 is_stmt 1 view .LVU331
 997              		.loc 1 750 37 is_stmt 0 view .LVU332
 998 010a 0025     		movs	r5, #0
 999              		.loc 1 753 16 view .LVU333
 1000 010c D4F89C34 		ldr	r3, [r4, #1180]
 1001              		.loc 1 750 37 view .LVU334
 1002 0110 84F82154 		strb	r5, [r4, #1057]
 1003              		.loc 1 753 7 is_stmt 1 view .LVU335
 1004              		.loc 1 753 10 is_stmt 0 view .LVU336
 1005 0114 23B1     		cbz	r3, .L121
 1006              		.loc 1 755 9 is_stmt 1 view .LVU337
 1007 0116 DB68     		ldr	r3, [r3, #12]
 1008 0118 2046     		mov	r0, r4
 1009              	.LVL71:
 1010              		.loc 1 755 9 is_stmt 0 view .LVU338
 1011 011a 9847     		blx	r3
 1012              	.LVL72:
 1013              		.loc 1 756 9 is_stmt 1 view .LVU339
 1014              		.loc 1 756 29 is_stmt 0 view .LVU340
 1015 011c C4F89C54 		str	r5, [r4, #1180]
 1016              	.L121:
 1017              		.loc 1 759 7 is_stmt 1 view .LVU341
 1018              		.loc 1 759 13 is_stmt 0 view .LVU342
 1019 0120 2046     		mov	r0, r4
 1020 0122 FFF7FEFF 		bl	DeInitStateMachine.isra.0
 1021              	.LVL73:
 1022              		.loc 1 761 7 is_stmt 1 view .LVU343
 1023              		.loc 1 761 16 is_stmt 0 view .LVU344
 1024 0126 D4F8F434 		ldr	r3, [r4, #1268]
 1025              		.loc 1 761 10 view .LVU345
 1026 012a 13B1     		cbz	r3, .L122
ARM GAS  C:\Users\DEVELO~1\AppData\Local\Temp\ccsBnKsD.s 			page 19


 1027              		.loc 1 763 9 is_stmt 1 view .LVU346
 1028 012c 0521     		movs	r1, #5
 1029 012e 2046     		mov	r0, r4
 1030 0130 9847     		blx	r3
 1031              	.LVL74:
 1032              	.L122:
 1033              		.loc 1 765 7 view .LVU347
 1034              		.loc 1 765 7 view .LVU348
 1035              		.loc 1 765 7 view .LVU349
 1036              		.loc 1 767 7 view .LVU350
 1037              		.loc 1 767 24 is_stmt 0 view .LVU351
 1038 0132 94F82234 		ldrb	r3, [r4, #1058]	@ zero_extendqisi2
 1039              		.loc 1 767 10 view .LVU352
 1040 0136 012B     		cmp	r3, #1
 1041              		.loc 1 767 24 view .LVU353
 1042 0138 DDB2     		uxtb	r5, r3
 1043              		.loc 1 767 10 view .LVU354
 1044 013a 00F0E480 		beq	.L175
 1045              		.loc 1 777 9 is_stmt 1 view .LVU355
 1046              		.loc 1 777 15 is_stmt 0 view .LVU356
 1047 013e 2046     		mov	r0, r4
 1048 0140 FFF7FEFF 		bl	USBH_LL_Start
 1049              	.LVL75:
 1050              		.loc 1 789 3 is_stmt 1 view .LVU357
 1051              		.loc 1 789 10 is_stmt 0 view .LVU358
 1052 0144 AEE7     		b	.L151
 1053              	.LVL76:
 1054              	.L79:
 1055              		.loc 1 580 7 is_stmt 1 view .LVU359
 1056              	.LBB18:
 1057              	.LBI18:
 1058              		.loc 1 799 27 view .LVU360
 1059              	.LBB19:
 1060              		.loc 1 801 3 view .LVU361
 1061              		.loc 1 802 3 view .LVU362
 1062              		.loc 1 804 3 view .LVU363
 1063              		.loc 1 804 16 is_stmt 0 view .LVU364
 1064 0146 6578     		ldrb	r5, [r4, #1]	@ zero_extendqisi2
 1065              		.loc 1 804 3 view .LVU365
 1066 0148 072D     		cmp	r5, #7
 1067 014a 00F29780 		bhi	.L126
 1068 014e DFE805F0 		tbb	[pc, r5]
 1069              	.L91:
 1070 0152 BD       		.byte	(.L98-.L91)/2
 1071 0153 B4       		.byte	(.L97-.L91)/2
 1072 0154 8A       		.byte	(.L96-.L91)/2
 1073 0155 80       		.byte	(.L95-.L91)/2
 1074 0156 75       		.byte	(.L94-.L91)/2
 1075 0157 5B       		.byte	(.L93-.L91)/2
 1076 0158 AB       		.byte	(.L92-.L91)/2
 1077 0159 97       		.byte	(.L90-.L91)/2
 1078              	.LVL77:
 1079              		.p2align 1
 1080              	.L78:
 1081              		.loc 1 804 3 view .LVU366
 1082              	.LBE19:
 1083              	.LBE18:
ARM GAS  C:\Users\DEVELO~1\AppData\Local\Temp\ccsBnKsD.s 			page 20


 1084              		.loc 1 712 7 is_stmt 1 view .LVU367
 1085              		.loc 1 712 16 is_stmt 0 view .LVU368
 1086 015a D4F89C34 		ldr	r3, [r4, #1180]
 1087              		.loc 1 712 10 view .LVU369
 1088 015e 002B     		cmp	r3, #0
 1089 0160 48D0     		beq	.L119
 1090              		.loc 1 714 9 is_stmt 1 view .LVU370
 1091              		.loc 1 714 18 is_stmt 0 view .LVU371
 1092 0162 1B69     		ldr	r3, [r3, #16]
 1093 0164 2046     		mov	r0, r4
 1094              	.LVL78:
 1095              		.loc 1 714 18 view .LVU372
 1096 0166 9847     		blx	r3
 1097              	.LVL79:
 1098              		.loc 1 714 16 view .LVU373
 1099 0168 8DF81700 		strb	r0, [sp, #23]
 1100              		.loc 1 716 9 is_stmt 1 view .LVU374
 1101              		.loc 1 716 20 is_stmt 0 view .LVU375
 1102 016c 9DF81730 		ldrb	r3, [sp, #23]	@ zero_extendqisi2
 1103              		.loc 1 716 12 view .LVU376
 1104 0170 002B     		cmp	r3, #0
 1105 0172 3AD1     		bne	.L120
 1106              		.loc 1 718 11 is_stmt 1 view .LVU377
 1107              		.loc 1 718 25 is_stmt 0 view .LVU378
 1108 0174 0B23     		movs	r3, #11
 1109 0176 2370     		strb	r3, [r4]
 1110 0178 94E7     		b	.L151
 1111              	.LVL80:
 1112              	.L77:
 1113              		.loc 1 607 7 is_stmt 1 view .LVU379
 1114              		.loc 1 607 16 is_stmt 0 view .LVU380
 1115 017a D4F8F434 		ldr	r3, [r4, #1268]
 1116              		.loc 1 607 10 view .LVU381
 1117 017e 002B     		cmp	r3, #0
 1118 0180 90D0     		beq	.L151
 1119              		.loc 1 609 9 is_stmt 1 view .LVU382
 1120 0182 0121     		movs	r1, #1
 1121 0184 2046     		mov	r0, r4
 1122              	.LVL81:
 1123              		.loc 1 609 9 is_stmt 0 view .LVU383
 1124 0186 9847     		blx	r3
 1125              	.LVL82:
 1126              	.L169:
 1127              		.loc 1 610 9 is_stmt 1 view .LVU384
 1128              		.loc 1 610 23 is_stmt 0 view .LVU385
 1129 0188 0823     		movs	r3, #8
 1130 018a 2370     		strb	r3, [r4]
 1131 018c 8AE7     		b	.L151
 1132              	.LVL83:
 1133              	.L75:
 1134              		.loc 1 634 7 is_stmt 1 view .LVU386
 1135              		.loc 1 634 10 is_stmt 0 view .LVU387
 1136 018e 94F83F34 		ldrb	r3, [r4, #1087]	@ zero_extendqisi2
 1137 0192 9B06     		lsls	r3, r3, #26
 1138 0194 00F1C280 		bmi	.L176
 1139              	.LVL84:
 1140              	.L116:
ARM GAS  C:\Users\DEVELO~1\AppData\Local\Temp\ccsBnKsD.s 			page 21


 1141              		.loc 1 655 9 is_stmt 1 view .LVU388
 1142              		.loc 1 655 23 is_stmt 0 view .LVU389
 1143 0198 0A23     		movs	r3, #10
 1144 019a 2370     		strb	r3, [r4]
 1145 019c 82E7     		b	.L151
 1146              	.LVL85:
 1147              	.L74:
 1148              		.loc 1 665 7 is_stmt 1 view .LVU390
 1149              		.loc 1 665 10 is_stmt 0 view .LVU391
 1150 019e D4F8A034 		ldr	r3, [r4, #1184]
 1151 01a2 002B     		cmp	r3, #0
 1152 01a4 3FF47EAF 		beq	.L151
 1153              		.loc 1 671 9 is_stmt 1 view .LVU392
 1154              		.loc 1 673 9 view .LVU393
 1155              		.loc 1 673 28 view .LVU394
 1156              		.loc 1 675 11 view .LVU395
 1157              		.loc 1 675 28 is_stmt 0 view .LVU396
 1158 01a8 D4F89834 		ldr	r3, [r4, #1176]
 1159              		.loc 1 675 14 view .LVU397
 1160 01ac 94F84724 		ldrb	r2, [r4, #1095]	@ zero_extendqisi2
 1161 01b0 1979     		ldrb	r1, [r3, #4]	@ zero_extendqisi2
 1162 01b2 9142     		cmp	r1, r2
 1163 01b4 40F0C380 		bne	.L177
 1164 01b8 C4F89C34 		str	r3, [r4, #1180]
 1165              	.LVL86:
 1166              		.loc 1 682 9 is_stmt 1 view .LVU398
 1167              		.loc 1 684 11 view .LVU399
 1168              		.loc 1 684 15 is_stmt 0 view .LVU400
 1169 01bc 2046     		mov	r0, r4
 1170              	.LVL87:
 1171              		.loc 1 684 15 view .LVU401
 1172 01be 9B68     		ldr	r3, [r3, #8]
 1173 01c0 9847     		blx	r3
 1174              	.LVL88:
 1175              		.loc 1 684 14 view .LVU402
 1176 01c2 B8B9     		cbnz	r0, .L119
 1177              		.loc 1 686 13 is_stmt 1 view .LVU403
 1178              		.loc 1 686 27 is_stmt 0 view .LVU404
 1179 01c4 0622     		movs	r2, #6
 1180              		.loc 1 690 13 view .LVU405
 1181 01c6 D4F8F434 		ldr	r3, [r4, #1268]
 1182 01ca 0321     		movs	r1, #3
 1183 01cc 2046     		mov	r0, r4
 1184              		.loc 1 686 27 view .LVU406
 1185 01ce 2270     		strb	r2, [r4]
 1186              		.loc 1 687 13 is_stmt 1 view .LVU407
 1187              		.loc 1 687 13 view .LVU408
 1188              		.loc 1 687 13 view .LVU409
 1189              		.loc 1 690 13 view .LVU410
 1190 01d0 9847     		blx	r3
 1191              	.LVL89:
 1192 01d2 67E7     		b	.L151
 1193              	.LVL90:
 1194              	.L76:
 1195              		.loc 1 621 7 view .LVU411
 1196              		.loc 1 621 11 is_stmt 0 view .LVU412
 1197 01d4 94F83D14 		ldrb	r1, [r4, #1085]	@ zero_extendqisi2
ARM GAS  C:\Users\DEVELO~1\AppData\Local\Temp\ccsBnKsD.s 			page 22


 1198 01d8 2046     		mov	r0, r4
 1199              	.LVL91:
 1200              		.loc 1 621 11 view .LVU413
 1201 01da FFF7FEFF 		bl	USBH_SetCfg
 1202              	.LVL92:
 1203              		.loc 1 621 10 view .LVU414
 1204 01de 0028     		cmp	r0, #0
 1205 01e0 7FF460AF 		bne	.L151
 1206              		.loc 1 623 9 is_stmt 1 view .LVU415
 1207              		.loc 1 623 23 is_stmt 0 view .LVU416
 1208 01e4 0923     		movs	r3, #9
 1209 01e6 2370     		strb	r3, [r4]
 1210 01e8 5CE7     		b	.L151
 1211              	.L120:
 1212              		.loc 1 720 14 is_stmt 1 view .LVU417
 1213              		.loc 1 720 25 is_stmt 0 view .LVU418
 1214 01ea 9DF81730 		ldrb	r3, [sp, #23]	@ zero_extendqisi2
 1215              		.loc 1 720 17 view .LVU419
 1216 01ee 022B     		cmp	r3, #2
 1217 01f0 7FF458AF 		bne	.L151
 1218              	.LVL93:
 1219              	.L119:
 1220              		.loc 1 732 9 is_stmt 1 view .LVU420
 1221              		.loc 1 732 23 is_stmt 0 view .LVU421
 1222 01f4 0D23     		movs	r3, #13
 1223 01f6 2370     		strb	r3, [r4]
 1224 01f8 54E7     		b	.L151
 1225              	.LVL94:
 1226              	.L86:
 1227              		.loc 1 532 11 is_stmt 1 view .LVU422
 1228              		.loc 1 532 26 is_stmt 0 view .LVU423
 1229 01fa 0A33     		adds	r3, r3, #10
 1230              		.loc 1 533 11 view .LVU424
 1231 01fc 0A20     		movs	r0, #10
 1232              	.LVL95:
 1233              		.loc 1 532 26 view .LVU425
 1234 01fe C4F8E834 		str	r3, [r4, #1256]
 1235              		.loc 1 533 11 is_stmt 1 view .LVU426
 1236 0202 FFF7FEFF 		bl	USBH_Delay
 1237              	.LVL96:
 1238 0206 4DE7     		b	.L151
 1239              	.LVL97:
 1240              	.L93:
 1241              	.LBB23:
 1242              	.LBB20:
 1243              		.loc 1 994 7 view .LVU427
 1244              		.loc 1 994 32 is_stmt 0 view .LVU428
 1245 0208 94F83414 		ldrb	r1, [r4, #1076]	@ zero_extendqisi2
 1246              		.loc 1 994 10 view .LVU429
 1247 020c 0029     		cmp	r1, #0
 1248 020e 40F0C180 		bne	.L178
 1249              	.LVL98:
 1250              	.L110:
 1251              		.loc 1 1002 11 is_stmt 1 view .LVU430
 1252              		.loc 1 1002 11 view .LVU431
 1253              		.loc 1 1002 11 view .LVU432
 1254              		.loc 1 1003 11 view .LVU433
ARM GAS  C:\Users\DEVELO~1\AppData\Local\Temp\ccsBnKsD.s 			page 23


 1255              		.loc 1 1003 28 is_stmt 0 view .LVU434
 1256 0212 0623     		movs	r3, #6
 1257              		.loc 1 801 22 view .LVU435
 1258 0214 0125     		movs	r5, #1
 1259              		.loc 1 1003 28 view .LVU436
 1260 0216 6370     		strb	r3, [r4, #1]
 1261              	.L89:
 1262              	.LVL99:
 1263              		.loc 1 1103 3 is_stmt 1 view .LVU437
 1264              		.loc 1 1103 3 is_stmt 0 view .LVU438
 1265              	.LBE20:
 1266              	.LBE23:
 1267              		.loc 1 580 14 view .LVU439
 1268 0218 8DF81750 		strb	r5, [sp, #23]
 1269              		.loc 1 581 7 is_stmt 1 view .LVU440
 1270              		.loc 1 581 18 is_stmt 0 view .LVU441
 1271 021c 9DF81730 		ldrb	r3, [sp, #23]	@ zero_extendqisi2
 1272              		.loc 1 581 10 view .LVU442
 1273 0220 03F0FF02 		and	r2, r3, #255
 1274 0224 002B     		cmp	r3, #0
 1275 0226 7FF43DAF 		bne	.L151
 1276              		.loc 1 584 9 is_stmt 1 view .LVU443
 1277              		.loc 1 584 9 view .LVU444
 1278              		.loc 1 584 9 view .LVU445
 1279              		.loc 1 586 9 view .LVU446
 1280              		.loc 1 588 12 is_stmt 0 view .LVU447
 1281 022a 94F83734 		ldrb	r3, [r4, #1079]	@ zero_extendqisi2
 1282              		.loc 1 586 41 view .LVU448
 1283 022e 84F82424 		strb	r2, [r4, #1060]
 1284              		.loc 1 588 9 is_stmt 1 view .LVU449
 1285              		.loc 1 588 12 is_stmt 0 view .LVU450
 1286 0232 012B     		cmp	r3, #1
 1287 0234 A8D0     		beq	.L169
 1288              		.loc 1 595 11 is_stmt 1 view .LVU451
 1289              		.loc 1 595 25 is_stmt 0 view .LVU452
 1290 0236 0723     		movs	r3, #7
 1291 0238 2370     		strb	r3, [r4]
 1292 023a 33E7     		b	.L151
 1293              	.LVL100:
 1294              	.L94:
 1295              	.LBB24:
 1296              	.LBB21:
 1297              		.loc 1 961 7 is_stmt 1 view .LVU453
 1298              		.loc 1 961 19 is_stmt 0 view .LVU454
 1299 023c B4F83A14 		ldrh	r1, [r4, #1082]
 1300 0240 2046     		mov	r0, r4
 1301              	.LVL101:
 1302              		.loc 1 961 19 view .LVU455
 1303 0242 FFF7FEFF 		bl	USBH_Get_CfgDesc
 1304              	.LVL102:
 1305              		.loc 1 962 7 is_stmt 1 view .LVU456
 1306              		.loc 1 962 10 is_stmt 0 view .LVU457
 1307 0246 0028     		cmp	r0, #0
 1308 0248 7FD1     		bne	.L108
 1309              		.loc 1 964 9 is_stmt 1 view .LVU458
 1310              		.loc 1 964 26 is_stmt 0 view .LVU459
 1311 024a 0523     		movs	r3, #5
ARM GAS  C:\Users\DEVELO~1\AppData\Local\Temp\ccsBnKsD.s 			page 24


 1312              		.loc 1 801 22 view .LVU460
 1313 024c 0125     		movs	r5, #1
 1314              		.loc 1 964 26 view .LVU461
 1315 024e 6370     		strb	r3, [r4, #1]
 1316 0250 E2E7     		b	.L89
 1317              	.LVL103:
 1318              	.L95:
 1319              		.loc 1 927 7 is_stmt 1 view .LVU462
 1320              		.loc 1 927 19 is_stmt 0 view .LVU463
 1321 0252 0921     		movs	r1, #9
 1322 0254 2046     		mov	r0, r4
 1323              	.LVL104:
 1324              		.loc 1 927 19 view .LVU464
 1325 0256 FFF7FEFF 		bl	USBH_Get_CfgDesc
 1326              	.LVL105:
 1327              		.loc 1 928 7 is_stmt 1 view .LVU465
 1328              		.loc 1 928 10 is_stmt 0 view .LVU466
 1329 025a 0028     		cmp	r0, #0
 1330 025c 75D1     		bne	.L108
 1331              		.loc 1 930 9 is_stmt 1 view .LVU467
 1332              		.loc 1 930 26 is_stmt 0 view .LVU468
 1333 025e 0423     		movs	r3, #4
 1334              		.loc 1 801 22 view .LVU469
 1335 0260 0125     		movs	r5, #1
 1336              		.loc 1 930 26 view .LVU470
 1337 0262 6370     		strb	r3, [r4, #1]
 1338 0264 D8E7     		b	.L89
 1339              	.LVL106:
 1340              	.L96:
 1341              		.loc 1 890 7 is_stmt 1 view .LVU471
 1342              		.loc 1 890 19 is_stmt 0 view .LVU472
 1343 0266 0121     		movs	r1, #1
 1344 0268 2046     		mov	r0, r4
 1345              	.LVL107:
 1346              		.loc 1 890 19 view .LVU473
 1347 026a FFF7FEFF 		bl	USBH_SetAddress
 1348              	.LVL108:
 1349              		.loc 1 891 7 is_stmt 1 view .LVU474
 1350              		.loc 1 891 10 is_stmt 0 view .LVU475
 1351 026e 0646     		mov	r6, r0
 1352 0270 0028     		cmp	r0, #0
 1353 0272 00F09C80 		beq	.L179
 1354              		.loc 1 910 12 is_stmt 1 view .LVU476
 1355              		.loc 1 910 15 is_stmt 0 view .LVU477
 1356 0276 0328     		cmp	r0, #3
 1357 0278 00F0D580 		beq	.L180
 1358              	.LVL109:
 1359              	.L126:
 1360              		.loc 1 804 3 view .LVU478
 1361 027c 0125     		movs	r5, #1
 1362 027e CBE7     		b	.L89
 1363              	.LVL110:
 1364              	.L90:
 1365              		.loc 1 1072 7 is_stmt 1 view .LVU479
 1366              		.loc 1 1072 32 is_stmt 0 view .LVU480
 1367 0280 94F83654 		ldrb	r5, [r4, #1078]	@ zero_extendqisi2
 1368              		.loc 1 1072 10 view .LVU481
ARM GAS  C:\Users\DEVELO~1\AppData\Local\Temp\ccsBnKsD.s 			page 25


 1369 0284 002D     		cmp	r5, #0
 1370 0286 C7D0     		beq	.L89
 1371              		.loc 1 1075 9 is_stmt 1 view .LVU482
 1372              		.loc 1 1075 21 is_stmt 0 view .LVU483
 1373 0288 2946     		mov	r1, r5
 1374 028a FF23     		movs	r3, #255
 1375 028c 04F50772 		add	r2, r4, #540
 1376 0290 2046     		mov	r0, r4
 1377              	.LVL111:
 1378              		.loc 1 1075 21 view .LVU484
 1379 0292 FFF7FEFF 		bl	USBH_Get_StringDesc
 1380              	.LVL112:
 1381              		.loc 1 1077 9 is_stmt 1 view .LVU485
 1382              		.loc 1 1083 14 view .LVU486
 1383              		.loc 1 1083 17 is_stmt 0 view .LVU487
 1384 0296 0028     		cmp	r0, #0
 1385 0298 18BF     		it	ne
 1386 029a 0328     		cmpne	r0, #3
 1387 029c 0CBF     		ite	eq
 1388 029e 0120     		moveq	r0, #1
 1389              	.LVL113:
 1390              		.loc 1 1083 17 view .LVU488
 1391 02a0 0020     		movne	r0, #0
 1392              		.loc 1 801 22 view .LVU489
 1393 02a2 80F00105 		eor	r5, r0, #1
 1394 02a6 B7E7     		b	.L89
 1395              	.LVL114:
 1396              	.L92:
 1397              		.loc 1 1035 7 is_stmt 1 view .LVU490
 1398              		.loc 1 1035 32 is_stmt 0 view .LVU491
 1399 02a8 94F83514 		ldrb	r1, [r4, #1077]	@ zero_extendqisi2
 1400              		.loc 1 1035 10 view .LVU492
 1401 02ac 0029     		cmp	r1, #0
 1402 02ae 40F0A080 		bne	.L181
 1403              	.LVL115:
 1404              	.L112:
 1405              		.loc 1 1043 11 is_stmt 1 view .LVU493
 1406              		.loc 1 1043 11 view .LVU494
 1407              		.loc 1 1043 11 view .LVU495
 1408              		.loc 1 1044 11 view .LVU496
 1409              		.loc 1 1044 28 is_stmt 0 view .LVU497
 1410 02b2 0723     		movs	r3, #7
 1411              		.loc 1 801 22 view .LVU498
 1412 02b4 0125     		movs	r5, #1
 1413              		.loc 1 1044 28 view .LVU499
 1414 02b6 6370     		strb	r3, [r4, #1]
 1415 02b8 AEE7     		b	.L89
 1416              	.LVL116:
 1417              	.L97:
 1418              		.loc 1 853 7 is_stmt 1 view .LVU500
 1419              		.loc 1 853 19 is_stmt 0 view .LVU501
 1420 02ba 1221     		movs	r1, #18
 1421 02bc 2046     		mov	r0, r4
 1422              	.LVL117:
 1423              		.loc 1 853 19 view .LVU502
 1424 02be FFF7FEFF 		bl	USBH_Get_DevDesc
 1425              	.LVL118:
ARM GAS  C:\Users\DEVELO~1\AppData\Local\Temp\ccsBnKsD.s 			page 26


 1426              		.loc 1 854 7 is_stmt 1 view .LVU503
 1427              		.loc 1 854 10 is_stmt 0 view .LVU504
 1428 02c2 0028     		cmp	r0, #0
 1429 02c4 58D1     		bne	.L102
 1430              		.loc 1 856 9 is_stmt 1 view .LVU505
 1431              		.loc 1 856 9 view .LVU506
 1432              		.loc 1 856 9 view .LVU507
 1433              		.loc 1 857 9 view .LVU508
 1434              		.loc 1 857 9 view .LVU509
 1435              		.loc 1 857 9 view .LVU510
 1436              		.loc 1 859 9 view .LVU511
 1437              		.loc 1 859 26 is_stmt 0 view .LVU512
 1438 02c6 0223     		movs	r3, #2
 1439 02c8 6370     		strb	r3, [r4, #1]
 1440 02ca A5E7     		b	.L89
 1441              	.LVL119:
 1442              	.L98:
 1443              		.loc 1 808 7 is_stmt 1 view .LVU513
 1444              		.loc 1 808 19 is_stmt 0 view .LVU514
 1445 02cc 0821     		movs	r1, #8
 1446 02ce 2046     		mov	r0, r4
 1447              	.LVL120:
 1448              		.loc 1 808 19 view .LVU515
 1449 02d0 FFF7FEFF 		bl	USBH_Get_DevDesc
 1450              	.LVL121:
 1451              		.loc 1 809 7 is_stmt 1 view .LVU516
 1452              		.loc 1 809 10 is_stmt 0 view .LVU517
 1453 02d4 0646     		mov	r6, r0
 1454 02d6 0028     		cmp	r0, #0
 1455 02d8 00F09880 		beq	.L182
 1456              		.loc 1 825 12 is_stmt 1 view .LVU518
 1457              		.loc 1 825 15 is_stmt 0 view .LVU519
 1458 02dc 0328     		cmp	r0, #3
 1459 02de CDD1     		bne	.L126
 1460              		.loc 1 827 9 is_stmt 1 view .LVU520
 1461              		.loc 1 827 9 view .LVU521
 1462              		.loc 1 827 9 view .LVU522
 1463              		.loc 1 828 9 view .LVU523
 1464              		.loc 1 828 30 is_stmt 0 view .LVU524
 1465 02e0 94F81E34 		ldrb	r3, [r4, #1054]	@ zero_extendqisi2
 1466 02e4 0133     		adds	r3, r3, #1
 1467 02e6 DBB2     		uxtb	r3, r3
 1468              		.loc 1 829 12 view .LVU525
 1469 02e8 032B     		cmp	r3, #3
 1470              		.loc 1 828 30 view .LVU526
 1471 02ea 84F81E34 		strb	r3, [r4, #1054]
 1472              		.loc 1 829 9 is_stmt 1 view .LVU527
 1473              		.loc 1 829 12 is_stmt 0 view .LVU528
 1474 02ee 40F2A080 		bls	.L101
 1475              	.L168:
 1476              		.loc 1 973 11 is_stmt 1 view .LVU529
 1477              		.loc 1 973 11 view .LVU530
 1478              		.loc 1 973 11 view .LVU531
 1479              		.loc 1 974 11 view .LVU532
 1480              		.loc 1 974 25 is_stmt 0 view .LVU533
 1481 02f2 0D23     		movs	r3, #13
 1482              		.loc 1 801 22 view .LVU534
ARM GAS  C:\Users\DEVELO~1\AppData\Local\Temp\ccsBnKsD.s 			page 27


 1483 02f4 0125     		movs	r5, #1
 1484              		.loc 1 974 25 view .LVU535
 1485 02f6 2370     		strb	r3, [r4]
 1486 02f8 8EE7     		b	.L89
 1487              	.LVL122:
 1488              	.L174:
 1489              		.loc 1 974 25 view .LVU536
 1490              	.LBE21:
 1491              	.LBE24:
 1492              		.loc 1 510 9 is_stmt 1 view .LVU537
 1493              		.loc 1 510 9 view .LVU538
 1494              		.loc 1 510 9 view .LVU539
 1495              		.loc 1 511 9 view .LVU540
 1496              		.loc 1 511 30 is_stmt 0 view .LVU541
 1497 02fa 0022     		movs	r2, #0
 1498              		.loc 1 512 23 view .LVU542
 1499 02fc 0223     		movs	r3, #2
 1500              		.loc 1 511 30 view .LVU543
 1501 02fe 84F81F24 		strb	r2, [r4, #1055]
 1502              		.loc 1 512 9 is_stmt 1 view .LVU544
 1503              		.loc 1 512 23 is_stmt 0 view .LVU545
 1504 0302 2370     		strb	r3, [r4]
 1505 0304 CEE6     		b	.L151
 1506              	.LVL123:
 1507              	.L175:
 1508              		.loc 1 769 9 is_stmt 1 view .LVU546
 1509              		.loc 1 769 39 is_stmt 0 view .LVU547
 1510 0306 0023     		movs	r3, #0
 1511              	.LBB25:
 1512              	.LBB26:
 1513              		.loc 1 410 9 view .LVU548
 1514 0308 2046     		mov	r0, r4
 1515              	.LBE26:
 1516              	.LBE25:
 1517              		.loc 1 769 39 view .LVU549
 1518 030a 84F82234 		strb	r3, [r4, #1058]
 1519              		.loc 1 772 9 is_stmt 1 view .LVU550
 1520              	.LVL124:
 1521              	.LBB28:
 1522              	.LBI25:
 1523              		.loc 1 407 20 view .LVU551
 1524              	.LBB27:
 1525              		.loc 1 410 3 view .LVU552
 1526              		.loc 1 410 9 is_stmt 0 view .LVU553
 1527 030e FFF7FEFF 		bl	USBH_LL_Start
 1528              	.LVL125:
 1529              		.loc 1 413 3 is_stmt 1 view .LVU554
 1530              		.loc 1 413 9 is_stmt 0 view .LVU555
 1531 0312 2946     		mov	r1, r5
 1532 0314 2046     		mov	r0, r4
 1533 0316 FFF7FEFF 		bl	USBH_LL_DriverVBUS
 1534              	.LVL126:
 1535              		.loc 1 415 3 is_stmt 1 view .LVU556
 1536              		.loc 1 415 10 is_stmt 0 view .LVU557
 1537 031a C3E6     		b	.L151
 1538              	.LVL127:
 1539              	.L176:
ARM GAS  C:\Users\DEVELO~1\AppData\Local\Temp\ccsBnKsD.s 			page 28


 1540              		.loc 1 415 10 view .LVU558
 1541              	.LBE27:
 1542              	.LBE28:
 1543              		.loc 1 636 9 is_stmt 1 view .LVU559
 1544              		.loc 1 636 18 is_stmt 0 view .LVU560
 1545 031c 0121     		movs	r1, #1
 1546 031e 2046     		mov	r0, r4
 1547              	.LVL128:
 1548              		.loc 1 636 18 view .LVU561
 1549 0320 FFF7FEFF 		bl	USBH_SetFeature
 1550              	.LVL129:
 1551              		.loc 1 636 16 view .LVU562
 1552 0324 8DF81700 		strb	r0, [sp, #23]
 1553              		.loc 1 638 9 is_stmt 1 view .LVU563
 1554              		.loc 1 638 20 is_stmt 0 view .LVU564
 1555 0328 9DF81730 		ldrb	r3, [sp, #23]	@ zero_extendqisi2
 1556              		.loc 1 638 12 view .LVU565
 1557 032c 002B     		cmp	r3, #0
 1558 032e 3FF433AF 		beq	.L116
 1559              		.loc 1 643 14 is_stmt 1 view .LVU566
 1560              		.loc 1 643 25 is_stmt 0 view .LVU567
 1561 0332 9DF81730 		ldrb	r3, [sp, #23]	@ zero_extendqisi2
 1562              		.loc 1 643 17 view .LVU568
 1563 0336 032B     		cmp	r3, #3
 1564 0338 7FF4B4AE 		bne	.L151
 1565 033c 2CE7     		b	.L116
 1566              	.LVL130:
 1567              	.L177:
 1568              		.loc 1 643 17 view .LVU569
 1569 033e 0022     		movs	r2, #0
 1570              		.loc 1 700 25 view .LVU570
 1571 0340 0D23     		movs	r3, #13
 1572 0342 C4F89C24 		str	r2, [r4, #1180]
 1573              	.LVL131:
 1574              		.loc 1 682 9 is_stmt 1 view .LVU571
 1575              		.loc 1 700 11 view .LVU572
 1576              		.loc 1 700 25 is_stmt 0 view .LVU573
 1577 0346 2370     		strb	r3, [r4]
 1578 0348 ACE6     		b	.L151
 1579              	.LVL132:
 1580              	.L108:
 1581              	.LBB29:
 1582              	.LBB22:
 1583              		.loc 1 966 12 is_stmt 1 view .LVU574
 1584              		.loc 1 966 15 is_stmt 0 view .LVU575
 1585 034a 0328     		cmp	r0, #3
 1586 034c 96D1     		bne	.L126
 1587              		.loc 1 968 9 is_stmt 1 view .LVU576
 1588              		.loc 1 968 9 view .LVU577
 1589              		.loc 1 968 9 view .LVU578
 1590              		.loc 1 969 9 view .LVU579
 1591              		.loc 1 969 30 is_stmt 0 view .LVU580
 1592 034e 94F81E34 		ldrb	r3, [r4, #1054]	@ zero_extendqisi2
 1593 0352 0133     		adds	r3, r3, #1
 1594 0354 DBB2     		uxtb	r3, r3
 1595              		.loc 1 970 12 view .LVU581
 1596 0356 032B     		cmp	r3, #3
ARM GAS  C:\Users\DEVELO~1\AppData\Local\Temp\ccsBnKsD.s 			page 29


 1597              		.loc 1 969 30 view .LVU582
 1598 0358 84F81E34 		strb	r3, [r4, #1054]
 1599              		.loc 1 970 9 is_stmt 1 view .LVU583
 1600              		.loc 1 970 12 is_stmt 0 view .LVU584
 1601 035c C9D8     		bhi	.L168
 1602              		.loc 1 979 11 is_stmt 1 view .LVU585
 1603              		.loc 1 979 17 is_stmt 0 view .LVU586
 1604 035e 6179     		ldrb	r1, [r4, #5]	@ zero_extendqisi2
 1605 0360 2046     		mov	r0, r4
 1606              	.LVL133:
 1607              		.loc 1 979 17 view .LVU587
 1608 0362 FFF7FEFF 		bl	USBH_FreePipe
 1609              	.LVL134:
 1610              		.loc 1 980 11 is_stmt 1 view .LVU588
 1611              		.loc 1 980 17 is_stmt 0 view .LVU589
 1612 0366 2179     		ldrb	r1, [r4, #4]	@ zero_extendqisi2
 1613 0368 2046     		mov	r0, r4
 1614              		.loc 1 801 22 view .LVU590
 1615 036a 0125     		movs	r5, #1
 1616              		.loc 1 980 17 view .LVU591
 1617 036c FFF7FEFF 		bl	USBH_FreePipe
 1618              	.LVL135:
 1619              		.loc 1 983 11 is_stmt 1 view .LVU592
 1620              		.loc 1 983 28 is_stmt 0 view .LVU593
 1621 0370 0023     		movs	r3, #0
 1622 0372 6370     		strb	r3, [r4, #1]
 1623              		.loc 1 984 11 is_stmt 1 view .LVU594
 1624              		.loc 1 984 25 is_stmt 0 view .LVU595
 1625 0374 2370     		strb	r3, [r4]
 1626 0376 4FE7     		b	.L89
 1627              	.LVL136:
 1628              	.L102:
 1629              		.loc 1 861 12 is_stmt 1 view .LVU596
 1630              		.loc 1 861 15 is_stmt 0 view .LVU597
 1631 0378 0328     		cmp	r0, #3
 1632 037a 7FF47FAF 		bne	.L126
 1633              		.loc 1 863 9 is_stmt 1 view .LVU598
 1634              		.loc 1 863 9 view .LVU599
 1635              		.loc 1 863 9 view .LVU600
 1636              		.loc 1 864 9 view .LVU601
 1637              		.loc 1 864 30 is_stmt 0 view .LVU602
 1638 037e 94F81E34 		ldrb	r3, [r4, #1054]	@ zero_extendqisi2
 1639 0382 0133     		adds	r3, r3, #1
 1640 0384 DBB2     		uxtb	r3, r3
 1641              		.loc 1 865 12 view .LVU603
 1642 0386 032B     		cmp	r3, #3
 1643              		.loc 1 864 30 view .LVU604
 1644 0388 84F81E34 		strb	r3, [r4, #1054]
 1645              		.loc 1 865 9 is_stmt 1 view .LVU605
 1646              		.loc 1 865 12 is_stmt 0 view .LVU606
 1647 038c 5DD9     		bls	.L104
 1648              		.loc 1 868 11 is_stmt 1 view .LVU607
 1649              		.loc 1 868 11 view .LVU608
 1650              		.loc 1 868 11 view .LVU609
 1651              		.loc 1 869 11 view .LVU610
 1652              		.loc 1 869 25 is_stmt 0 view .LVU611
 1653 038e 0D23     		movs	r3, #13
ARM GAS  C:\Users\DEVELO~1\AppData\Local\Temp\ccsBnKsD.s 			page 30


 1654 0390 2370     		strb	r3, [r4]
 1655 0392 41E7     		b	.L89
 1656              	.LVL137:
 1657              	.L178:
 1658              		.loc 1 997 9 is_stmt 1 view .LVU612
 1659              		.loc 1 997 21 is_stmt 0 view .LVU613
 1660 0394 FF23     		movs	r3, #255
 1661 0396 04F50772 		add	r2, r4, #540
 1662 039a 2046     		mov	r0, r4
 1663              	.LVL138:
 1664              		.loc 1 997 21 view .LVU614
 1665 039c FFF7FEFF 		bl	USBH_Get_StringDesc
 1666              	.LVL139:
 1667              		.loc 1 999 9 is_stmt 1 view .LVU615
 1668              		.loc 1 999 12 is_stmt 0 view .LVU616
 1669 03a0 0028     		cmp	r0, #0
 1670 03a2 3FF436AF 		beq	.L110
 1671              		.loc 1 1009 14 is_stmt 1 view .LVU617
 1672              		.loc 1 1009 17 is_stmt 0 view .LVU618
 1673 03a6 0328     		cmp	r0, #3
 1674 03a8 7FF468AF 		bne	.L126
 1675 03ac 31E7     		b	.L110
 1676              	.L179:
 1677              		.loc 1 893 9 is_stmt 1 view .LVU619
 1678 03ae 0220     		movs	r0, #2
 1679              	.LVL140:
 1680              		.loc 1 894 31 is_stmt 0 view .LVU620
 1681 03b0 0125     		movs	r5, #1
 1682              		.loc 1 893 9 view .LVU621
 1683 03b2 FFF7FEFF 		bl	USBH_Delay
 1684              	.LVL141:
 1685              		.loc 1 894 9 is_stmt 1 view .LVU622
 1686              		.loc 1 901 15 is_stmt 0 view .LVU623
 1687 03b6 A379     		ldrb	r3, [r4, #6]	@ zero_extendqisi2
 1688              		.loc 1 898 26 view .LVU624
 1689 03b8 0322     		movs	r2, #3
 1690              		.loc 1 894 31 view .LVU625
 1691 03ba 84F81C54 		strb	r5, [r4, #1052]
 1692              		.loc 1 897 9 is_stmt 1 view .LVU626
 1693              		.loc 1 897 9 view .LVU627
 1694              		.loc 1 897 9 view .LVU628
 1695              		.loc 1 898 9 view .LVU629
 1696              		.loc 1 898 26 is_stmt 0 view .LVU630
 1697 03be 6270     		strb	r2, [r4, #1]
 1698              		.loc 1 901 9 is_stmt 1 view .LVU631
 1699              		.loc 1 901 15 is_stmt 0 view .LVU632
 1700 03c0 CDE90163 		strd	r6, r3, [sp, #4]
 1701 03c4 2B46     		mov	r3, r5
 1702 03c6 94F81D24 		ldrb	r2, [r4, #1053]	@ zero_extendqisi2
 1703 03ca 0092     		str	r2, [sp]
 1704              	.L167:
 1705              		.loc 1 901 15 view .LVU633
 1706 03cc 2179     		ldrb	r1, [r4, #4]	@ zero_extendqisi2
 1707 03ce 8022     		movs	r2, #128
 1708 03d0 2046     		mov	r0, r4
 1709 03d2 FFF7FEFF 		bl	USBH_OpenPipe
 1710              	.LVL142:
ARM GAS  C:\Users\DEVELO~1\AppData\Local\Temp\ccsBnKsD.s 			page 31


 1711              		.loc 1 906 9 is_stmt 1 view .LVU634
 1712              		.loc 1 906 15 is_stmt 0 view .LVU635
 1713 03d6 A179     		ldrb	r1, [r4, #6]	@ zero_extendqisi2
 1714 03d8 94F81D34 		ldrb	r3, [r4, #1053]	@ zero_extendqisi2
 1715 03dc 3246     		mov	r2, r6
 1716 03de 0196     		str	r6, [sp, #4]
 1717 03e0 2046     		mov	r0, r4
 1718 03e2 0291     		str	r1, [sp, #8]
 1719 03e4 0093     		str	r3, [sp]
 1720 03e6 94F81C34 		ldrb	r3, [r4, #1052]	@ zero_extendqisi2
 1721 03ea 6179     		ldrb	r1, [r4, #5]	@ zero_extendqisi2
 1722 03ec FFF7FEFF 		bl	USBH_OpenPipe
 1723              	.LVL143:
 1724 03f0 12E7     		b	.L89
 1725              	.LVL144:
 1726              	.L181:
 1727              		.loc 1 1038 9 is_stmt 1 view .LVU636
 1728              		.loc 1 1038 21 is_stmt 0 view .LVU637
 1729 03f2 FF23     		movs	r3, #255
 1730 03f4 04F50772 		add	r2, r4, #540
 1731 03f8 2046     		mov	r0, r4
 1732              	.LVL145:
 1733              		.loc 1 1038 21 view .LVU638
 1734 03fa FFF7FEFF 		bl	USBH_Get_StringDesc
 1735              	.LVL146:
 1736              		.loc 1 1040 9 is_stmt 1 view .LVU639
 1737              		.loc 1 1040 12 is_stmt 0 view .LVU640
 1738 03fe 0028     		cmp	r0, #0
 1739 0400 3FF457AF 		beq	.L112
 1740              		.loc 1 1046 14 is_stmt 1 view .LVU641
 1741              		.loc 1 1046 17 is_stmt 0 view .LVU642
 1742 0404 0328     		cmp	r0, #3
 1743 0406 7FF439AF 		bne	.L126
 1744 040a 52E7     		b	.L112
 1745              	.L182:
 1746              		.loc 1 811 9 is_stmt 1 view .LVU643
 1747              		.loc 1 811 57 is_stmt 0 view .LVU644
 1748 040c 94F82D34 		ldrb	r3, [r4, #1069]	@ zero_extendqisi2
 1749              		.loc 1 813 26 view .LVU645
 1750 0410 0125     		movs	r5, #1
 1751              		.loc 1 816 15 view .LVU646
 1752 0412 94F81D24 		ldrb	r2, [r4, #1053]	@ zero_extendqisi2
 1753 0416 0190     		str	r0, [sp, #4]
 1754              		.loc 1 811 34 view .LVU647
 1755 0418 A371     		strb	r3, [r4, #6]
 1756              		.loc 1 813 9 is_stmt 1 view .LVU648
 1757              		.loc 1 813 26 is_stmt 0 view .LVU649
 1758 041a 6570     		strb	r5, [r4, #1]
 1759              		.loc 1 816 9 is_stmt 1 view .LVU650
 1760              		.loc 1 816 15 is_stmt 0 view .LVU651
 1761 041c 0293     		str	r3, [sp, #8]
 1762 041e 0092     		str	r2, [sp]
 1763 0420 94F81C34 		ldrb	r3, [r4, #1052]	@ zero_extendqisi2
 1764 0424 D2E7     		b	.L167
 1765              	.L180:
 1766              		.loc 1 912 9 is_stmt 1 view .LVU652
 1767              		.loc 1 912 9 view .LVU653
ARM GAS  C:\Users\DEVELO~1\AppData\Local\Temp\ccsBnKsD.s 			page 32


 1768              		.loc 1 912 9 view .LVU654
 1769              		.loc 1 915 9 view .LVU655
 1770              		.loc 1 915 9 view .LVU656
 1771              		.loc 1 915 9 view .LVU657
 1772              		.loc 1 916 9 view .LVU658
 1773              		.loc 1 916 23 is_stmt 0 view .LVU659
 1774 0426 0D22     		movs	r2, #13
 1775              		.loc 1 917 26 view .LVU660
 1776 0428 0023     		movs	r3, #0
 1777              		.loc 1 801 22 view .LVU661
 1778 042a 0125     		movs	r5, #1
 1779              		.loc 1 916 23 view .LVU662
 1780 042c 2270     		strb	r2, [r4]
 1781              		.loc 1 917 9 is_stmt 1 view .LVU663
 1782              		.loc 1 917 26 is_stmt 0 view .LVU664
 1783 042e 6370     		strb	r3, [r4, #1]
 1784 0430 F2E6     		b	.L89
 1785              	.L101:
 1786              		.loc 1 838 11 is_stmt 1 view .LVU665
 1787              		.loc 1 838 17 is_stmt 0 view .LVU666
 1788 0432 6179     		ldrb	r1, [r4, #5]	@ zero_extendqisi2
 1789 0434 2046     		mov	r0, r4
 1790              	.LVL147:
 1791              		.loc 1 838 17 view .LVU667
 1792 0436 FFF7FEFF 		bl	USBH_FreePipe
 1793              	.LVL148:
 1794              		.loc 1 839 11 is_stmt 1 view .LVU668
 1795              		.loc 1 839 17 is_stmt 0 view .LVU669
 1796 043a 2179     		ldrb	r1, [r4, #4]	@ zero_extendqisi2
 1797 043c 2046     		mov	r0, r4
 1798              		.loc 1 801 22 view .LVU670
 1799 043e 0125     		movs	r5, #1
 1800              		.loc 1 839 17 view .LVU671
 1801 0440 FFF7FEFF 		bl	USBH_FreePipe
 1802              	.LVL149:
 1803              		.loc 1 842 11 is_stmt 1 view .LVU672
 1804              		.loc 1 842 25 is_stmt 0 view .LVU673
 1805 0444 0023     		movs	r3, #0
 1806 0446 2370     		strb	r3, [r4]
 1807 0448 E6E6     		b	.L89
 1808              	.LVL150:
 1809              	.L104:
 1810              		.loc 1 874 11 is_stmt 1 view .LVU674
 1811              		.loc 1 874 17 is_stmt 0 view .LVU675
 1812 044a 6179     		ldrb	r1, [r4, #5]	@ zero_extendqisi2
 1813 044c 2046     		mov	r0, r4
 1814              	.LVL151:
 1815              		.loc 1 874 17 view .LVU676
 1816 044e FFF7FEFF 		bl	USBH_FreePipe
 1817              	.LVL152:
 1818              		.loc 1 875 11 is_stmt 1 view .LVU677
 1819              		.loc 1 875 17 is_stmt 0 view .LVU678
 1820 0452 2179     		ldrb	r1, [r4, #4]	@ zero_extendqisi2
 1821 0454 2046     		mov	r0, r4
 1822 0456 FFF7FEFF 		bl	USBH_FreePipe
 1823              	.LVL153:
 1824              		.loc 1 878 11 is_stmt 1 view .LVU679
ARM GAS  C:\Users\DEVELO~1\AppData\Local\Temp\ccsBnKsD.s 			page 33


 1825              		.loc 1 878 28 is_stmt 0 view .LVU680
 1826 045a 0023     		movs	r3, #0
 1827 045c 6370     		strb	r3, [r4, #1]
 1828              		.loc 1 879 11 is_stmt 1 view .LVU681
 1829              		.loc 1 879 25 is_stmt 0 view .LVU682
 1830 045e 2370     		strb	r3, [r4]
 1831 0460 DAE6     		b	.L89
 1832              	.LBE22:
 1833              	.LBE29:
 1834              		.cfi_endproc
 1835              	.LFE155:
 1836              		.size	USBH_Process, .-USBH_Process
 1837 0462 00BF     		.section	.text.USBH_LL_SetTimer,"ax",%progbits
 1838              		.align	1
 1839              		.p2align 2,,3
 1840              		.global	USBH_LL_SetTimer
 1841              		.syntax unified
 1842              		.thumb
 1843              		.thumb_func
 1844              		.type	USBH_LL_SetTimer, %function
 1845              	USBH_LL_SetTimer:
 1846              	.LVL154:
 1847              	.LFB157:
 1848              		.loc 1 1114 1 is_stmt 1 view -0
 1849              		.cfi_startproc
 1850              		@ args = 0, pretend = 0, frame = 0
 1851              		@ frame_needed = 0, uses_anonymous_args = 0
 1852              		@ link register save eliminated.
 1853              		.loc 1 1115 3 view .LVU684
 1854              		.loc 1 1115 16 is_stmt 0 view .LVU685
 1855 0000 C0F8E414 		str	r1, [r0, #1252]
 1856              		.loc 1 1116 1 view .LVU686
 1857 0004 7047     		bx	lr
 1858              		.cfi_endproc
 1859              	.LFE157:
 1860              		.size	USBH_LL_SetTimer, .-USBH_LL_SetTimer
 1861 0006 00BF     		.section	.text.USBH_LL_IncTimer,"ax",%progbits
 1862              		.align	1
 1863              		.p2align 2,,3
 1864              		.global	USBH_LL_IncTimer
 1865              		.syntax unified
 1866              		.thumb
 1867              		.thumb_func
 1868              		.type	USBH_LL_IncTimer, %function
 1869              	USBH_LL_IncTimer:
 1870              	.LVL155:
 1871              	.LFB158:
 1872              		.loc 1 1126 1 is_stmt 1 view -0
 1873              		.cfi_startproc
 1874              		@ args = 0, pretend = 0, frame = 0
 1875              		@ frame_needed = 0, uses_anonymous_args = 0
 1876              		@ link register save eliminated.
 1877              		.loc 1 1127 3 view .LVU688
 1878              		.loc 1 1127 8 is_stmt 0 view .LVU689
 1879 0000 D0F8E424 		ldr	r2, [r0, #1252]
 1880              		.loc 1 1127 15 view .LVU690
 1881 0004 0132     		adds	r2, r2, #1
ARM GAS  C:\Users\DEVELO~1\AppData\Local\Temp\ccsBnKsD.s 			page 34


 1882 0006 C0F8E424 		str	r2, [r0, #1252]
 1883              		.loc 1 1128 3 is_stmt 1 view .LVU691
 1884              	.LVL156:
 1885              	.LBB32:
 1886              	.LBI32:
 1887              		.loc 1 1138 13 view .LVU692
 1888              	.LBB33:
 1889              		.loc 1 1140 3 view .LVU693
 1890              		.loc 1 1140 13 is_stmt 0 view .LVU694
 1891 000a 0278     		ldrb	r2, [r0]	@ zero_extendqisi2
 1892              		.loc 1 1140 6 view .LVU695
 1893 000c 0B2A     		cmp	r2, #11
 1894 000e 00D0     		beq	.L189
 1895              	.L184:
 1896              	.LBE33:
 1897              	.LBE32:
 1898              		.loc 1 1129 1 view .LVU696
 1899 0010 7047     		bx	lr
 1900              	.L189:
 1901              	.LBB35:
 1902              	.LBB34:
 1903              		.loc 1 1140 46 view .LVU697
 1904 0012 D0F89C34 		ldr	r3, [r0, #1180]
 1905              		.loc 1 1140 37 view .LVU698
 1906 0016 002B     		cmp	r3, #0
 1907 0018 FAD0     		beq	.L184
 1908              		.loc 1 1142 5 is_stmt 1 view .LVU699
 1909 001a 9B69     		ldr	r3, [r3, #24]
 1910 001c 1847     		bx	r3
 1911              	.LVL157:
 1912              		.loc 1 1142 5 is_stmt 0 view .LVU700
 1913              	.LBE34:
 1914              	.LBE35:
 1915              		.cfi_endproc
 1916              	.LFE158:
 1917              		.size	USBH_LL_IncTimer, .-USBH_LL_IncTimer
 1918 001e 00BF     		.section	.text.USBH_LL_PortEnabled,"ax",%progbits
 1919              		.align	1
 1920              		.p2align 2,,3
 1921              		.global	USBH_LL_PortEnabled
 1922              		.syntax unified
 1923              		.thumb
 1924              		.thumb_func
 1925              		.type	USBH_LL_PortEnabled, %function
 1926              	USBH_LL_PortEnabled:
 1927              	.LVL158:
 1928              	.LFB160:
 1929              		.loc 1 1154 1 is_stmt 1 view -0
 1930              		.cfi_startproc
 1931              		@ args = 0, pretend = 0, frame = 0
 1932              		@ frame_needed = 0, uses_anonymous_args = 0
 1933              		@ link register save eliminated.
 1934              		.loc 1 1155 3 view .LVU702
 1935              		.loc 1 1155 29 is_stmt 0 view .LVU703
 1936 0000 0123     		movs	r3, #1
 1937 0002 80F82334 		strb	r3, [r0, #1059]
 1938              		.loc 1 1161 3 is_stmt 1 view .LVU704
ARM GAS  C:\Users\DEVELO~1\AppData\Local\Temp\ccsBnKsD.s 			page 35


 1939              		.loc 1 1162 1 is_stmt 0 view .LVU705
 1940 0006 7047     		bx	lr
 1941              		.cfi_endproc
 1942              	.LFE160:
 1943              		.size	USBH_LL_PortEnabled, .-USBH_LL_PortEnabled
 1944              		.section	.text.USBH_LL_PortDisabled,"ax",%progbits
 1945              		.align	1
 1946              		.p2align 2,,3
 1947              		.global	USBH_LL_PortDisabled
 1948              		.syntax unified
 1949              		.thumb
 1950              		.thumb_func
 1951              		.type	USBH_LL_PortDisabled, %function
 1952              	USBH_LL_PortDisabled:
 1953              	.LVL159:
 1954              	.LFB161:
 1955              		.loc 1 1172 1 is_stmt 1 view -0
 1956              		.cfi_startproc
 1957              		@ args = 0, pretend = 0, frame = 0
 1958              		@ frame_needed = 0, uses_anonymous_args = 0
 1959              		@ link register save eliminated.
 1960              		.loc 1 1173 3 view .LVU707
 1961              		.loc 1 1173 29 is_stmt 0 view .LVU708
 1962 0000 0023     		movs	r3, #0
 1963 0002 80F82334 		strb	r3, [r0, #1059]
 1964              		.loc 1 1179 3 is_stmt 1 view .LVU709
 1965              		.loc 1 1180 1 is_stmt 0 view .LVU710
 1966 0006 7047     		bx	lr
 1967              		.cfi_endproc
 1968              	.LFE161:
 1969              		.size	USBH_LL_PortDisabled, .-USBH_LL_PortDisabled
 1970              		.section	.text.USBH_IsPortEnabled,"ax",%progbits
 1971              		.align	1
 1972              		.p2align 2,,3
 1973              		.global	USBH_IsPortEnabled
 1974              		.syntax unified
 1975              		.thumb
 1976              		.thumb_func
 1977              		.type	USBH_IsPortEnabled, %function
 1978              	USBH_IsPortEnabled:
 1979              	.LVL160:
 1980              	.LFB162:
 1981              		.loc 1 1190 1 is_stmt 1 view -0
 1982              		.cfi_startproc
 1983              		@ args = 0, pretend = 0, frame = 0
 1984              		@ frame_needed = 0, uses_anonymous_args = 0
 1985              		@ link register save eliminated.
 1986              		.loc 1 1191 3 view .LVU712
 1987              		.loc 1 1191 24 is_stmt 0 view .LVU713
 1988 0000 90F82304 		ldrb	r0, [r0, #1059]	@ zero_extendqisi2
 1989              	.LVL161:
 1990              		.loc 1 1192 1 view .LVU714
 1991 0004 7047     		bx	lr
 1992              		.cfi_endproc
 1993              	.LFE162:
 1994              		.size	USBH_IsPortEnabled, .-USBH_IsPortEnabled
 1995 0006 00BF     		.section	.text.USBH_LL_Connect,"ax",%progbits
ARM GAS  C:\Users\DEVELO~1\AppData\Local\Temp\ccsBnKsD.s 			page 36


 1996              		.align	1
 1997              		.p2align 2,,3
 1998              		.global	USBH_LL_Connect
 1999              		.syntax unified
 2000              		.thumb
 2001              		.thumb_func
 2002              		.type	USBH_LL_Connect, %function
 2003              	USBH_LL_Connect:
 2004              	.LVL162:
 2005              	.LFB163:
 2006              		.loc 1 1202 1 is_stmt 1 view -0
 2007              		.cfi_startproc
 2008              		@ args = 0, pretend = 0, frame = 0
 2009              		@ frame_needed = 0, uses_anonymous_args = 0
 2010              		@ link register save eliminated.
 2011              		.loc 1 1203 3 view .LVU716
 2012              		.loc 1 1202 1 is_stmt 0 view .LVU717
 2013 0000 0346     		mov	r3, r0
 2014              		.loc 1 1204 33 view .LVU718
 2015 0002 0022     		movs	r2, #0
 2016              		.loc 1 1203 30 view .LVU719
 2017 0004 0121     		movs	r1, #1
 2018              		.loc 1 1212 1 view .LVU720
 2019 0006 1046     		mov	r0, r2
 2020              	.LVL163:
 2021              		.loc 1 1203 30 view .LVU721
 2022 0008 83F82014 		strb	r1, [r3, #1056]
 2023              		.loc 1 1204 3 is_stmt 1 view .LVU722
 2024              		.loc 1 1204 33 is_stmt 0 view .LVU723
 2025 000c 83F82124 		strb	r2, [r3, #1057]
 2026              		.loc 1 1205 3 is_stmt 1 view .LVU724
 2027              		.loc 1 1205 33 is_stmt 0 view .LVU725
 2028 0010 83F82224 		strb	r2, [r3, #1058]
 2029              		.loc 1 1211 3 is_stmt 1 view .LVU726
 2030              		.loc 1 1212 1 is_stmt 0 view .LVU727
 2031 0014 7047     		bx	lr
 2032              		.cfi_endproc
 2033              	.LFE163:
 2034              		.size	USBH_LL_Connect, .-USBH_LL_Connect
 2035 0016 00BF     		.section	.text.USBH_LL_Disconnect,"ax",%progbits
 2036              		.align	1
 2037              		.p2align 2,,3
 2038              		.global	USBH_LL_Disconnect
 2039              		.syntax unified
 2040              		.thumb
 2041              		.thumb_func
 2042              		.type	USBH_LL_Disconnect, %function
 2043              	USBH_LL_Disconnect:
 2044              	.LVL164:
 2045              	.LFB164:
 2046              		.loc 1 1222 1 is_stmt 1 view -0
 2047              		.cfi_startproc
 2048              		@ args = 0, pretend = 0, frame = 0
 2049              		@ frame_needed = 0, uses_anonymous_args = 0
 2050              		.loc 1 1224 3 view .LVU729
 2051              		.loc 1 1222 1 is_stmt 0 view .LVU730
 2052 0000 38B5     		push	{r3, r4, r5, lr}
ARM GAS  C:\Users\DEVELO~1\AppData\Local\Temp\ccsBnKsD.s 			page 37


 2053              		.cfi_def_cfa_offset 16
 2054              		.cfi_offset 3, -16
 2055              		.cfi_offset 4, -12
 2056              		.cfi_offset 5, -8
 2057              		.cfi_offset 14, -4
 2058              		.loc 1 1224 33 view .LVU731
 2059 0002 0123     		movs	r3, #1
 2060              		.loc 1 1225 30 view .LVU732
 2061 0004 0025     		movs	r5, #0
 2062              		.loc 1 1222 1 view .LVU733
 2063 0006 0446     		mov	r4, r0
 2064              		.loc 1 1224 33 view .LVU734
 2065 0008 80F82134 		strb	r3, [r0, #1057]
 2066              		.loc 1 1225 3 is_stmt 1 view .LVU735
 2067              		.loc 1 1225 30 is_stmt 0 view .LVU736
 2068 000c 80F82054 		strb	r5, [r0, #1056]
 2069              		.loc 1 1226 3 is_stmt 1 view .LVU737
 2070              		.loc 1 1226 29 is_stmt 0 view .LVU738
 2071 0010 80F82354 		strb	r5, [r0, #1059]
 2072              		.loc 1 1229 3 is_stmt 1 view .LVU739
 2073              		.loc 1 1229 9 is_stmt 0 view .LVU740
 2074 0014 FFF7FEFF 		bl	USBH_LL_Stop
 2075              	.LVL165:
 2076              		.loc 1 1232 3 is_stmt 1 view .LVU741
 2077              		.loc 1 1232 9 is_stmt 0 view .LVU742
 2078 0018 2179     		ldrb	r1, [r4, #4]	@ zero_extendqisi2
 2079 001a 2046     		mov	r0, r4
 2080 001c FFF7FEFF 		bl	USBH_FreePipe
 2081              	.LVL166:
 2082              		.loc 1 1233 3 is_stmt 1 view .LVU743
 2083              		.loc 1 1233 9 is_stmt 0 view .LVU744
 2084 0020 6179     		ldrb	r1, [r4, #5]	@ zero_extendqisi2
 2085 0022 2046     		mov	r0, r4
 2086 0024 FFF7FEFF 		bl	USBH_FreePipe
 2087              	.LVL167:
 2088              		.loc 1 1239 3 is_stmt 1 view .LVU745
 2089              		.loc 1 1240 1 is_stmt 0 view .LVU746
 2090 0028 2846     		mov	r0, r5
 2091 002a 38BD     		pop	{r3, r4, r5, pc}
 2092              		.loc 1 1240 1 view .LVU747
 2093              		.cfi_endproc
 2094              	.LFE164:
 2095              		.size	USBH_LL_Disconnect, .-USBH_LL_Disconnect
 2096              		.text
 2097              	.Letext0:
 2098              		.file 2 "c:\\chibistudio\\tools\\gnu tools arm embedded\\11.3 2022.08\\arm-none-eabi\\include\\mac
 2099              		.file 3 "c:\\chibistudio\\tools\\gnu tools arm embedded\\11.3 2022.08\\arm-none-eabi\\include\\sys
 2100              		.file 4 "c:\\chibistudio\\tools\\gnu tools arm embedded\\11.3 2022.08\\lib\\gcc\\arm-none-eabi\\11
 2101              		.file 5 "./usb_host/stm32-mw-usb-host-master/stm32-mw-usb-host-master/Core/Inc/usbh_def.h"
 2102              		.file 6 "./usb_host/stm32-mw-usb-host-master/stm32-mw-usb-host-master/Core/Inc/usbh_ctlreq.h"
 2103              		.file 7 "./usb_host/stm32-mw-usb-host-master/stm32-mw-usb-host-master/Core/Inc/usbh_pipes.h"
 2104              		.file 8 "./usb_host/stm32-mw-usb-host-master/stm32-mw-usb-host-master/Core/Inc/usbh_core.h"
 2105              		.file 9 "c:\\chibistudio\\tools\\gnu tools arm embedded\\11.3 2022.08\\arm-none-eabi\\include\\str
 2106              		.file 10 "<built-in>"