ARM GAS  C:\Users\DEVELO~1\AppData\Local\Temp\ccBPZKTw.s 			page 1


   1              		.cpu cortex-m7
   2              		.arch armv7e-m
   3              		.fpu fpv5-d16
   4              		.eabi_attribute 28, 1
   5              		.eabi_attribute 20, 1
   6              		.eabi_attribute 21, 1
   7              		.eabi_attribute 23, 3
   8              		.eabi_attribute 24, 1
   9              		.eabi_attribute 25, 1
  10              		.eabi_attribute 26, 1
  11              		.eabi_attribute 30, 2
  12              		.eabi_attribute 34, 1
  13              		.eabi_attribute 18, 4
  14              		.file	"usbh_ioreq.c"
  15              		.text
  16              	.Ltext0:
  17              		.cfi_sections	.debug_frame
  18              		.section	.text.USBH_CtlSendSetup,"ax",%progbits
  19              		.align	1
  20              		.p2align 2,,3
  21              		.global	USBH_CtlSendSetup
  22              		.syntax unified
  23              		.thumb
  24              		.thumb_func
  25              		.type	USBH_CtlSendSetup, %function
  26              	USBH_CtlSendSetup:
  27              	.LVL0:
  28              	.LFB144:
  29              		.file 1 "./drivers/usb/usb_host/stm32-mw-usb-host-master/stm32-mw-usb-host-master/Core/Src/usbh_io
  30              		.loc 1 94 1 view -0
  31              		.cfi_startproc
  32              		@ args = 0, pretend = 0, frame = 0
  33              		@ frame_needed = 0, uses_anonymous_args = 0
  34              		.loc 1 96 3 view .LVU1
  35              		.loc 1 94 1 is_stmt 0 view .LVU2
  36 0000 30B5     		push	{r4, r5, lr}
  37              		.cfi_def_cfa_offset 12
  38              		.cfi_offset 4, -12
  39              		.cfi_offset 5, -8
  40              		.cfi_offset 14, -4
  41              		.loc 1 96 9 view .LVU3
  42 0002 0024     		movs	r4, #0
  43              		.loc 1 94 1 view .LVU4
  44 0004 85B0     		sub	sp, sp, #20
  45              		.cfi_def_cfa_offset 32
  46              		.loc 1 96 9 view .LVU5
  47 0006 0825     		movs	r5, #8
  48 0008 0191     		str	r1, [sp, #4]
  49 000a 2346     		mov	r3, r4
  50 000c 1146     		mov	r1, r2
  51              	.LVL1:
  52              		.loc 1 96 9 view .LVU6
  53 000e 0394     		str	r4, [sp, #12]
  54 0010 2246     		mov	r2, r4
  55              	.LVL2:
  56              		.loc 1 96 9 view .LVU7
  57 0012 0295     		str	r5, [sp, #8]
ARM GAS  C:\Users\DEVELO~1\AppData\Local\Temp\ccBPZKTw.s 			page 2


  58 0014 0094     		str	r4, [sp]
  59 0016 FFF7FEFF 		bl	USBH_LL_SubmitURB
  60              	.LVL3:
  61              		.loc 1 104 3 is_stmt 1 view .LVU8
  62              		.loc 1 105 1 is_stmt 0 view .LVU9
  63 001a 2046     		mov	r0, r4
  64 001c 05B0     		add	sp, sp, #20
  65              		.cfi_def_cfa_offset 12
  66              		@ sp needed
  67 001e 30BD     		pop	{r4, r5, pc}
  68              		.cfi_endproc
  69              	.LFE144:
  70              		.size	USBH_CtlSendSetup, .-USBH_CtlSendSetup
  71              		.section	.text.USBH_CtlSendData,"ax",%progbits
  72              		.align	1
  73              		.p2align 2,,3
  74              		.global	USBH_CtlSendData
  75              		.syntax unified
  76              		.thumb
  77              		.thumb_func
  78              		.type	USBH_CtlSendData, %function
  79              	USBH_CtlSendData:
  80              	.LVL4:
  81              	.LFB145:
  82              		.loc 1 122 1 is_stmt 1 view -0
  83              		.cfi_startproc
  84              		@ args = 4, pretend = 0, frame = 0
  85              		@ frame_needed = 0, uses_anonymous_args = 0
  86              		.loc 1 123 3 view .LVU11
  87              		.loc 1 122 1 is_stmt 0 view .LVU12
  88 0000 10B5     		push	{r4, lr}
  89              		.cfi_def_cfa_offset 8
  90              		.cfi_offset 4, -8
  91              		.cfi_offset 14, -4
  92 0002 0C46     		mov	r4, r1
  93 0004 84B0     		sub	sp, sp, #16
  94              		.cfi_def_cfa_offset 24
  95              		.loc 1 122 1 view .LVU13
  96 0006 1946     		mov	r1, r3
  97              	.LVL5:
  98              		.loc 1 123 6 view .LVU14
  99 0008 90F81D34 		ldrb	r3, [r0, #1053]	@ zero_extendqisi2
 100              	.LVL6:
 101              		.loc 1 128 9 view .LVU15
 102 000c CDE90142 		strd	r4, r2, [sp, #4]
 103              		.loc 1 125 13 view .LVU16
 104 0010 002B     		cmp	r3, #0
 105              		.loc 1 128 9 view .LVU17
 106 0012 4FF00104 		mov	r4, #1
 107              	.LVL7:
 108              		.loc 1 128 9 view .LVU18
 109 0016 4FF00003 		mov	r3, #0
 110 001a 0094     		str	r4, [sp]
 111              		.loc 1 122 1 view .LVU19
 112 001c 9DF81840 		ldrb	r4, [sp, #24]	@ zero_extendqisi2
 113              		.loc 1 125 13 view .LVU20
 114 0020 18BF     		it	ne
ARM GAS  C:\Users\DEVELO~1\AppData\Local\Temp\ccBPZKTw.s 			page 3


 115 0022 1C46     		movne	r4, r3
 116              	.LVL8:
 117              		.loc 1 128 3 is_stmt 1 view .LVU21
 118              		.loc 1 128 9 is_stmt 0 view .LVU22
 119 0024 1A46     		mov	r2, r3
 120              	.LVL9:
 121              		.loc 1 128 9 view .LVU23
 122 0026 0394     		str	r4, [sp, #12]
 123 0028 FFF7FEFF 		bl	USBH_LL_SubmitURB
 124              	.LVL10:
 125              		.loc 1 137 3 is_stmt 1 view .LVU24
 126              		.loc 1 138 1 is_stmt 0 view .LVU25
 127 002c 0020     		movs	r0, #0
 128 002e 04B0     		add	sp, sp, #16
 129              		.cfi_def_cfa_offset 8
 130              		@ sp needed
 131 0030 10BD     		pop	{r4, pc}
 132              		.loc 1 138 1 view .LVU26
 133              		.cfi_endproc
 134              	.LFE145:
 135              		.size	USBH_CtlSendData, .-USBH_CtlSendData
 136 0032 00BF     		.section	.text.USBH_CtlReceiveData,"ax",%progbits
 137              		.align	1
 138              		.p2align 2,,3
 139              		.global	USBH_CtlReceiveData
 140              		.syntax unified
 141              		.thumb
 142              		.thumb_func
 143              		.type	USBH_CtlReceiveData, %function
 144              	USBH_CtlReceiveData:
 145              	.LVL11:
 146              	.LFB146:
 147              		.loc 1 154 1 is_stmt 1 view -0
 148              		.cfi_startproc
 149              		@ args = 0, pretend = 0, frame = 0
 150              		@ frame_needed = 0, uses_anonymous_args = 0
 151              		.loc 1 155 3 view .LVU28
 152              		.loc 1 154 1 is_stmt 0 view .LVU29
 153 0000 30B5     		push	{r4, r5, lr}
 154              		.cfi_def_cfa_offset 12
 155              		.cfi_offset 4, -12
 156              		.cfi_offset 5, -8
 157              		.cfi_offset 14, -4
 158              		.loc 1 155 9 view .LVU30
 159 0002 0024     		movs	r4, #0
 160              		.loc 1 154 1 view .LVU31
 161 0004 85B0     		sub	sp, sp, #20
 162              		.cfi_def_cfa_offset 32
 163              		.loc 1 155 9 view .LVU32
 164 0006 0125     		movs	r5, #1
 165 0008 0191     		str	r1, [sp, #4]
 166 000a 1946     		mov	r1, r3
 167              	.LVL12:
 168              		.loc 1 155 9 view .LVU33
 169 000c 0292     		str	r2, [sp, #8]
 170 000e 2346     		mov	r3, r4
 171              	.LVL13:
ARM GAS  C:\Users\DEVELO~1\AppData\Local\Temp\ccBPZKTw.s 			page 4


 172              		.loc 1 155 9 view .LVU34
 173 0010 2A46     		mov	r2, r5
 174              	.LVL14:
 175              		.loc 1 155 9 view .LVU35
 176 0012 0394     		str	r4, [sp, #12]
 177 0014 0095     		str	r5, [sp]
 178 0016 FFF7FEFF 		bl	USBH_LL_SubmitURB
 179              	.LVL15:
 180              		.loc 1 163 3 is_stmt 1 view .LVU36
 181              		.loc 1 165 1 is_stmt 0 view .LVU37
 182 001a 2046     		mov	r0, r4
 183 001c 05B0     		add	sp, sp, #20
 184              		.cfi_def_cfa_offset 12
 185              		@ sp needed
 186 001e 30BD     		pop	{r4, r5, pc}
 187              		.cfi_endproc
 188              	.LFE146:
 189              		.size	USBH_CtlReceiveData, .-USBH_CtlReceiveData
 190              		.section	.text.USBH_BulkSendData,"ax",%progbits
 191              		.align	1
 192              		.p2align 2,,3
 193              		.global	USBH_BulkSendData
 194              		.syntax unified
 195              		.thumb
 196              		.thumb_func
 197              		.type	USBH_BulkSendData, %function
 198              	USBH_BulkSendData:
 199              	.LVL16:
 200              	.LFB147:
 201              		.loc 1 182 1 is_stmt 1 view -0
 202              		.cfi_startproc
 203              		@ args = 4, pretend = 0, frame = 0
 204              		@ frame_needed = 0, uses_anonymous_args = 0
 205              		.loc 1 183 3 view .LVU39
 206              		.loc 1 182 1 is_stmt 0 view .LVU40
 207 0000 10B5     		push	{r4, lr}
 208              		.cfi_def_cfa_offset 8
 209              		.cfi_offset 4, -8
 210              		.cfi_offset 14, -4
 211 0002 0C46     		mov	r4, r1
 212 0004 84B0     		sub	sp, sp, #16
 213              		.cfi_def_cfa_offset 24
 214              		.loc 1 182 1 view .LVU41
 215 0006 1946     		mov	r1, r3
 216              	.LVL17:
 217              		.loc 1 183 6 view .LVU42
 218 0008 90F81D34 		ldrb	r3, [r0, #1053]	@ zero_extendqisi2
 219              	.LVL18:
 220              		.loc 1 188 9 view .LVU43
 221 000c CDE90142 		strd	r4, r2, [sp, #4]
 222              		.loc 1 185 13 view .LVU44
 223 0010 002B     		cmp	r3, #0
 224              		.loc 1 188 9 view .LVU45
 225 0012 4FF00002 		mov	r2, #0
 226              	.LVL19:
 227              		.loc 1 188 9 view .LVU46
 228 0016 4FF00104 		mov	r4, #1
ARM GAS  C:\Users\DEVELO~1\AppData\Local\Temp\ccBPZKTw.s 			page 5


 229              	.LVL20:
 230              		.loc 1 188 9 view .LVU47
 231 001a 4FF00203 		mov	r3, #2
 232 001e 0094     		str	r4, [sp]
 233              		.loc 1 182 1 view .LVU48
 234 0020 9DF81840 		ldrb	r4, [sp, #24]	@ zero_extendqisi2
 235              		.loc 1 185 13 view .LVU49
 236 0024 18BF     		it	ne
 237 0026 1446     		movne	r4, r2
 238              	.LVL21:
 239              		.loc 1 188 3 is_stmt 1 view .LVU50
 240              		.loc 1 188 9 is_stmt 0 view .LVU51
 241 0028 0394     		str	r4, [sp, #12]
 242 002a FFF7FEFF 		bl	USBH_LL_SubmitURB
 243              	.LVL22:
 244              		.loc 1 196 3 is_stmt 1 view .LVU52
 245              		.loc 1 197 1 is_stmt 0 view .LVU53
 246 002e 0020     		movs	r0, #0
 247 0030 04B0     		add	sp, sp, #16
 248              		.cfi_def_cfa_offset 8
 249              		@ sp needed
 250 0032 10BD     		pop	{r4, pc}
 251              		.loc 1 197 1 view .LVU54
 252              		.cfi_endproc
 253              	.LFE147:
 254              		.size	USBH_BulkSendData, .-USBH_BulkSendData
 255              		.section	.text.USBH_BulkReceiveData,"ax",%progbits
 256              		.align	1
 257              		.p2align 2,,3
 258              		.global	USBH_BulkReceiveData
 259              		.syntax unified
 260              		.thumb
 261              		.thumb_func
 262              		.type	USBH_BulkReceiveData, %function
 263              	USBH_BulkReceiveData:
 264              	.LVL23:
 265              	.LFB148:
 266              		.loc 1 213 1 is_stmt 1 view -0
 267              		.cfi_startproc
 268              		@ args = 0, pretend = 0, frame = 0
 269              		@ frame_needed = 0, uses_anonymous_args = 0
 270              		.loc 1 214 3 view .LVU56
 271              		.loc 1 213 1 is_stmt 0 view .LVU57
 272 0000 30B5     		push	{r4, r5, lr}
 273              		.cfi_def_cfa_offset 12
 274              		.cfi_offset 4, -12
 275              		.cfi_offset 5, -8
 276              		.cfi_offset 14, -4
 277 0002 85B0     		sub	sp, sp, #20
 278              		.cfi_def_cfa_offset 32
 279              		.loc 1 213 1 view .LVU58
 280 0004 0D46     		mov	r5, r1
 281              		.loc 1 214 9 view .LVU59
 282 0006 0024     		movs	r4, #0
 283 0008 1946     		mov	r1, r3
 284              	.LVL24:
 285              		.loc 1 214 9 view .LVU60
ARM GAS  C:\Users\DEVELO~1\AppData\Local\Temp\ccBPZKTw.s 			page 6


 286 000a 0292     		str	r2, [sp, #8]
 287 000c 0122     		movs	r2, #1
 288              	.LVL25:
 289              		.loc 1 214 9 view .LVU61
 290 000e 0223     		movs	r3, #2
 291              	.LVL26:
 292              		.loc 1 214 9 view .LVU62
 293 0010 0394     		str	r4, [sp, #12]
 294 0012 CDE90025 		strd	r2, r5, [sp]
 295 0016 FFF7FEFF 		bl	USBH_LL_SubmitURB
 296              	.LVL27:
 297              		.loc 1 222 3 is_stmt 1 view .LVU63
 298              		.loc 1 223 1 is_stmt 0 view .LVU64
 299 001a 2046     		mov	r0, r4
 300 001c 05B0     		add	sp, sp, #20
 301              		.cfi_def_cfa_offset 12
 302              		@ sp needed
 303 001e 30BD     		pop	{r4, r5, pc}
 304              		.loc 1 223 1 view .LVU65
 305              		.cfi_endproc
 306              	.LFE148:
 307              		.size	USBH_BulkReceiveData, .-USBH_BulkReceiveData
 308              		.section	.text.USBH_InterruptReceiveData,"ax",%progbits
 309              		.align	1
 310              		.p2align 2,,3
 311              		.global	USBH_InterruptReceiveData
 312              		.syntax unified
 313              		.thumb
 314              		.thumb_func
 315              		.type	USBH_InterruptReceiveData, %function
 316              	USBH_InterruptReceiveData:
 317              	.LVL28:
 318              	.LFB149:
 319              		.loc 1 239 1 is_stmt 1 view -0
 320              		.cfi_startproc
 321              		@ args = 0, pretend = 0, frame = 0
 322              		@ frame_needed = 0, uses_anonymous_args = 0
 323              		.loc 1 240 3 view .LVU67
 324              		.loc 1 239 1 is_stmt 0 view .LVU68
 325 0000 30B5     		push	{r4, r5, lr}
 326              		.cfi_def_cfa_offset 12
 327              		.cfi_offset 4, -12
 328              		.cfi_offset 5, -8
 329              		.cfi_offset 14, -4
 330 0002 85B0     		sub	sp, sp, #20
 331              		.cfi_def_cfa_offset 32
 332              		.loc 1 239 1 view .LVU69
 333 0004 0D46     		mov	r5, r1
 334              		.loc 1 240 9 view .LVU70
 335 0006 0024     		movs	r4, #0
 336 0008 1946     		mov	r1, r3
 337              	.LVL29:
 338              		.loc 1 240 9 view .LVU71
 339 000a 0292     		str	r2, [sp, #8]
 340 000c 0122     		movs	r2, #1
 341              	.LVL30:
 342              		.loc 1 240 9 view .LVU72
ARM GAS  C:\Users\DEVELO~1\AppData\Local\Temp\ccBPZKTw.s 			page 7


 343 000e 0323     		movs	r3, #3
 344              	.LVL31:
 345              		.loc 1 240 9 view .LVU73
 346 0010 0394     		str	r4, [sp, #12]
 347 0012 CDE90025 		strd	r2, r5, [sp]
 348 0016 FFF7FEFF 		bl	USBH_LL_SubmitURB
 349              	.LVL32:
 350              		.loc 1 249 3 is_stmt 1 view .LVU74
 351              		.loc 1 250 1 is_stmt 0 view .LVU75
 352 001a 2046     		mov	r0, r4
 353 001c 05B0     		add	sp, sp, #20
 354              		.cfi_def_cfa_offset 12
 355              		@ sp needed
 356 001e 30BD     		pop	{r4, r5, pc}
 357              		.loc 1 250 1 view .LVU76
 358              		.cfi_endproc
 359              	.LFE149:
 360              		.size	USBH_InterruptReceiveData, .-USBH_InterruptReceiveData
 361              		.section	.text.USBH_InterruptSendData,"ax",%progbits
 362              		.align	1
 363              		.p2align 2,,3
 364              		.global	USBH_InterruptSendData
 365              		.syntax unified
 366              		.thumb
 367              		.thumb_func
 368              		.type	USBH_InterruptSendData, %function
 369              	USBH_InterruptSendData:
 370              	.LVL33:
 371              	.LFB150:
 372              		.loc 1 265 1 is_stmt 1 view -0
 373              		.cfi_startproc
 374              		@ args = 0, pretend = 0, frame = 0
 375              		@ frame_needed = 0, uses_anonymous_args = 0
 376              		.loc 1 266 3 view .LVU78
 377              		.loc 1 265 1 is_stmt 0 view .LVU79
 378 0000 30B5     		push	{r4, r5, lr}
 379              		.cfi_def_cfa_offset 12
 380              		.cfi_offset 4, -12
 381              		.cfi_offset 5, -8
 382              		.cfi_offset 14, -4
 383              		.loc 1 266 9 view .LVU80
 384 0002 0024     		movs	r4, #0
 385              		.loc 1 265 1 view .LVU81
 386 0004 85B0     		sub	sp, sp, #20
 387              		.cfi_def_cfa_offset 32
 388              		.loc 1 266 9 view .LVU82
 389 0006 0125     		movs	r5, #1
 390 0008 0191     		str	r1, [sp, #4]
 391 000a 1946     		mov	r1, r3
 392              	.LVL34:
 393              		.loc 1 266 9 view .LVU83
 394 000c 0292     		str	r2, [sp, #8]
 395 000e 0323     		movs	r3, #3
 396              	.LVL35:
 397              		.loc 1 266 9 view .LVU84
 398 0010 2246     		mov	r2, r4
 399              	.LVL36:
ARM GAS  C:\Users\DEVELO~1\AppData\Local\Temp\ccBPZKTw.s 			page 8


 400              		.loc 1 266 9 view .LVU85
 401 0012 0394     		str	r4, [sp, #12]
 402 0014 0095     		str	r5, [sp]
 403 0016 FFF7FEFF 		bl	USBH_LL_SubmitURB
 404              	.LVL37:
 405              		.loc 1 275 3 is_stmt 1 view .LVU86
 406              		.loc 1 276 1 is_stmt 0 view .LVU87
 407 001a 2046     		mov	r0, r4
 408 001c 05B0     		add	sp, sp, #20
 409              		.cfi_def_cfa_offset 12
 410              		@ sp needed
 411 001e 30BD     		pop	{r4, r5, pc}
 412              		.cfi_endproc
 413              	.LFE150:
 414              		.size	USBH_InterruptSendData, .-USBH_InterruptSendData
 415              		.section	.text.USBH_IsocReceiveData,"ax",%progbits
 416              		.align	1
 417              		.p2align 2,,3
 418              		.global	USBH_IsocReceiveData
 419              		.syntax unified
 420              		.thumb
 421              		.thumb_func
 422              		.type	USBH_IsocReceiveData, %function
 423              	USBH_IsocReceiveData:
 424              	.LVL38:
 425              	.LFB151:
 426              		.loc 1 291 1 is_stmt 1 view -0
 427              		.cfi_startproc
 428              		@ args = 0, pretend = 0, frame = 0
 429              		@ frame_needed = 0, uses_anonymous_args = 0
 430              		.loc 1 292 3 view .LVU89
 431              		.loc 1 291 1 is_stmt 0 view .LVU90
 432 0000 30B5     		push	{r4, r5, lr}
 433              		.cfi_def_cfa_offset 12
 434              		.cfi_offset 4, -12
 435              		.cfi_offset 5, -8
 436              		.cfi_offset 14, -4
 437              		.loc 1 292 9 view .LVU91
 438 0002 92B2     		uxth	r2, r2
 439              	.LVL39:
 440              		.loc 1 291 1 view .LVU92
 441 0004 85B0     		sub	sp, sp, #20
 442              		.cfi_def_cfa_offset 32
 443              		.loc 1 292 9 view .LVU93
 444 0006 0125     		movs	r5, #1
 445 0008 0024     		movs	r4, #0
 446 000a 0191     		str	r1, [sp, #4]
 447 000c 1946     		mov	r1, r3
 448              	.LVL40:
 449              		.loc 1 292 9 view .LVU94
 450 000e 0095     		str	r5, [sp]
 451 0010 2B46     		mov	r3, r5
 452              	.LVL41:
 453              		.loc 1 292 9 view .LVU95
 454 0012 CDE90224 		strd	r2, r4, [sp, #8]
 455 0016 2A46     		mov	r2, r5
 456 0018 FFF7FEFF 		bl	USBH_LL_SubmitURB
ARM GAS  C:\Users\DEVELO~1\AppData\Local\Temp\ccBPZKTw.s 			page 9


 457              	.LVL42:
 458              		.loc 1 302 3 is_stmt 1 view .LVU96
 459              		.loc 1 303 1 is_stmt 0 view .LVU97
 460 001c 2046     		mov	r0, r4
 461 001e 05B0     		add	sp, sp, #20
 462              		.cfi_def_cfa_offset 12
 463              		@ sp needed
 464 0020 30BD     		pop	{r4, r5, pc}
 465              		.cfi_endproc
 466              	.LFE151:
 467              		.size	USBH_IsocReceiveData, .-USBH_IsocReceiveData
 468 0022 00BF     		.section	.text.USBH_IsocSendData,"ax",%progbits
 469              		.align	1
 470              		.p2align 2,,3
 471              		.global	USBH_IsocSendData
 472              		.syntax unified
 473              		.thumb
 474              		.thumb_func
 475              		.type	USBH_IsocSendData, %function
 476              	USBH_IsocSendData:
 477              	.LVL43:
 478              	.LFB152:
 479              		.loc 1 318 1 is_stmt 1 view -0
 480              		.cfi_startproc
 481              		@ args = 0, pretend = 0, frame = 0
 482              		@ frame_needed = 0, uses_anonymous_args = 0
 483              		.loc 1 319 3 view .LVU99
 484              		.loc 1 318 1 is_stmt 0 view .LVU100
 485 0000 30B5     		push	{r4, r5, lr}
 486              		.cfi_def_cfa_offset 12
 487              		.cfi_offset 4, -12
 488              		.cfi_offset 5, -8
 489              		.cfi_offset 14, -4
 490              		.loc 1 319 9 view .LVU101
 491 0002 92B2     		uxth	r2, r2
 492              	.LVL44:
 493              		.loc 1 318 1 view .LVU102
 494 0004 85B0     		sub	sp, sp, #20
 495              		.cfi_def_cfa_offset 32
 496              		.loc 1 319 9 view .LVU103
 497 0006 0024     		movs	r4, #0
 498              		.loc 1 318 1 view .LVU104
 499 0008 0D46     		mov	r5, r1
 500              		.loc 1 319 9 view .LVU105
 501 000a 1946     		mov	r1, r3
 502              	.LVL45:
 503              		.loc 1 319 9 view .LVU106
 504 000c 0123     		movs	r3, #1
 505              	.LVL46:
 506              		.loc 1 319 9 view .LVU107
 507 000e 0292     		str	r2, [sp, #8]
 508 0010 2246     		mov	r2, r4
 509 0012 0394     		str	r4, [sp, #12]
 510 0014 0195     		str	r5, [sp, #4]
 511 0016 0093     		str	r3, [sp]
 512 0018 FFF7FEFF 		bl	USBH_LL_SubmitURB
 513              	.LVL47:
ARM GAS  C:\Users\DEVELO~1\AppData\Local\Temp\ccBPZKTw.s 			page 10


 514              		.loc 1 328 3 is_stmt 1 view .LVU108
 515              		.loc 1 329 1 is_stmt 0 view .LVU109
 516 001c 2046     		mov	r0, r4
 517 001e 05B0     		add	sp, sp, #20
 518              		.cfi_def_cfa_offset 12
 519              		@ sp needed
 520 0020 30BD     		pop	{r4, r5, pc}
 521              		.loc 1 329 1 view .LVU110
 522              		.cfi_endproc
 523              	.LFE152:
 524              		.size	USBH_IsocSendData, .-USBH_IsocSendData
 525 0022 00BF     		.text
 526              	.Letext0:
 527              		.file 2 "c:\\chibistudio\\tools\\gnu tools arm embedded\\11.3 2022.08\\arm-none-eabi\\include\\mac
 528              		.file 3 "c:\\chibistudio\\tools\\gnu tools arm embedded\\11.3 2022.08\\arm-none-eabi\\include\\sys
 529              		.file 4 "./drivers/usb/usb_host/stm32-mw-usb-host-master/stm32-mw-usb-host-master/Core/Inc/usbh_de
 530              		.file 5 "./drivers/usb/usb_host/stm32-mw-usb-host-master/stm32-mw-usb-host-master/Core/Inc/usbh_co
 531              		.section	.debug_info,"",%progbits
 532              	.Ldebug_info0:
 533 0000 AD0E0000 		.4byte	0xead
 534 0004 0500     		.2byte	0x5
 535 0006 01       		.byte	0x1
 536 0007 04       		.byte	0x4
 537 0008 00000000 		.4byte	.Ldebug_abbrev0
 538 000c 19       		.uleb128 0x19
 539 000d 79010000 		.4byte	.LASF178
 540 0011 1D       		.byte	0x1d
 541 0012 BB000000 		.4byte	.LASF179
 542 0016 43000000 		.4byte	.LASF180
 543 001a 0C000000 		.4byte	.LLRL37
 544 001e 00000000 		.4byte	0
 545 0022 00000000 		.4byte	.Ldebug_line0
 546 0026 06       		.uleb128 0x6
 547 0027 02       		.byte	0x2
 548 0028 05       		.byte	0x5
 549 0029 D4050000 		.4byte	.LASF0
 550 002d 06       		.uleb128 0x6
 551 002e 01       		.byte	0x1
 552 002f 06       		.byte	0x6
 553 0030 FC020000 		.4byte	.LASF1
 554 0034 0B       		.uleb128 0xb
 555 0035 56010000 		.4byte	.LASF3
 556 0039 02       		.byte	0x2
 557 003a 2B       		.byte	0x2b
 558 003b 18       		.byte	0x18
 559 003c 40000000 		.4byte	0x40
 560 0040 06       		.uleb128 0x6
 561 0041 01       		.byte	0x1
 562 0042 08       		.byte	0x8
 563 0043 89070000 		.4byte	.LASF2
 564 0047 0B       		.uleb128 0xb
 565 0048 1B090000 		.4byte	.LASF4
 566 004c 02       		.byte	0x2
 567 004d 39       		.byte	0x39
 568 004e 19       		.byte	0x19
 569 004f 53000000 		.4byte	0x53
 570 0053 06       		.uleb128 0x6
ARM GAS  C:\Users\DEVELO~1\AppData\Local\Temp\ccBPZKTw.s 			page 11


 571 0054 02       		.byte	0x2
 572 0055 07       		.byte	0x7
 573 0056 64050000 		.4byte	.LASF5
 574 005a 06       		.uleb128 0x6
 575 005b 04       		.byte	0x4
 576 005c 05       		.byte	0x5
 577 005d AA030000 		.4byte	.LASF6
 578 0061 0B       		.uleb128 0xb
 579 0062 67040000 		.4byte	.LASF7
 580 0066 02       		.byte	0x2
 581 0067 4F       		.byte	0x4f
 582 0068 19       		.byte	0x19
 583 0069 6D000000 		.4byte	0x6d
 584 006d 06       		.uleb128 0x6
 585 006e 04       		.byte	0x4
 586 006f 07       		.byte	0x7
 587 0070 31050000 		.4byte	.LASF8
 588 0074 06       		.uleb128 0x6
 589 0075 08       		.byte	0x8
 590 0076 05       		.byte	0x5
 591 0077 EE020000 		.4byte	.LASF9
 592 007b 06       		.uleb128 0x6
 593 007c 08       		.byte	0x8
 594 007d 07       		.byte	0x7
 595 007e 53030000 		.4byte	.LASF10
 596 0082 1A       		.uleb128 0x1a
 597 0083 04       		.byte	0x4
 598 0084 05       		.byte	0x5
 599 0085 696E7400 		.ascii	"int\000"
 600 0089 06       		.uleb128 0x6
 601 008a 04       		.byte	0x4
 602 008b 07       		.byte	0x7
 603 008c FF040000 		.4byte	.LASF11
 604 0090 0B       		.uleb128 0xb
 605 0091 230A0000 		.4byte	.LASF12
 606 0095 03       		.byte	0x3
 607 0096 18       		.byte	0x18
 608 0097 13       		.byte	0x13
 609 0098 34000000 		.4byte	0x34
 610 009c 13       		.uleb128 0x13
 611 009d 90000000 		.4byte	0x90
 612 00a1 0B       		.uleb128 0xb
 613 00a2 E2030000 		.4byte	.LASF13
 614 00a6 03       		.byte	0x3
 615 00a7 24       		.byte	0x24
 616 00a8 14       		.byte	0x14
 617 00a9 47000000 		.4byte	0x47
 618 00ad 0B       		.uleb128 0xb
 619 00ae CB090000 		.4byte	.LASF14
 620 00b2 03       		.byte	0x3
 621 00b3 30       		.byte	0x30
 622 00b4 14       		.byte	0x14
 623 00b5 61000000 		.4byte	0x61
 624 00b9 13       		.uleb128 0x13
 625 00ba AD000000 		.4byte	0xad
 626 00be 0E       		.uleb128 0xe
 627 00bf AD000000 		.4byte	0xad
ARM GAS  C:\Users\DEVELO~1\AppData\Local\Temp\ccBPZKTw.s 			page 12


 628 00c3 CE000000 		.4byte	0xce
 629 00c7 10       		.uleb128 0x10
 630 00c8 89000000 		.4byte	0x89
 631 00cc 01       		.byte	0x1
 632 00cd 00       		.byte	0
 633 00ce 0E       		.uleb128 0xe
 634 00cf AD000000 		.4byte	0xad
 635 00d3 DE000000 		.4byte	0xde
 636 00d7 10       		.uleb128 0x10
 637 00d8 89000000 		.4byte	0x89
 638 00dc 0F       		.byte	0xf
 639 00dd 00       		.byte	0
 640 00de 06       		.uleb128 0x6
 641 00df 08       		.byte	0x8
 642 00e0 04       		.byte	0x4
 643 00e1 D4080000 		.4byte	.LASF15
 644 00e5 1B       		.uleb128 0x1b
 645 00e6 04       		.byte	0x4
 646 00e7 06       		.uleb128 0x6
 647 00e8 01       		.byte	0x1
 648 00e9 08       		.byte	0x8
 649 00ea F7080000 		.4byte	.LASF16
 650 00ee 1C       		.uleb128 0x1c
 651 00ef E7000000 		.4byte	0xe7
 652 00f3 0D       		.uleb128 0xd
 653 00f4 EE000000 		.4byte	0xee
 654 00f8 06       		.uleb128 0x6
 655 00f9 04       		.byte	0x4
 656 00fa 04       		.byte	0x4
 657 00fb F4060000 		.4byte	.LASF17
 658 00ff 06       		.uleb128 0x6
 659 0100 08       		.byte	0x8
 660 0101 04       		.byte	0x4
 661 0102 EB030000 		.4byte	.LASF18
 662 0106 0D       		.uleb128 0xd
 663 0107 90000000 		.4byte	0x90
 664 010b 1D       		.uleb128 0x1d
 665 010c 425700   		.ascii	"BW\000"
 666 010f 02       		.byte	0x2
 667 0110 04       		.byte	0x4
 668 0111 DB       		.byte	0xdb
 669 0112 0A       		.byte	0xa
 670 0113 2E010000 		.4byte	0x12e
 671 0117 16       		.uleb128 0x16
 672 0118 6D736200 		.ascii	"msb\000"
 673 011c DD       		.byte	0xdd
 674 011d 90000000 		.4byte	0x90
 675 0121 00       		.byte	0
 676 0122 16       		.uleb128 0x16
 677 0123 6C736200 		.ascii	"lsb\000"
 678 0127 DE       		.byte	0xde
 679 0128 90000000 		.4byte	0x90
 680 012c 01       		.byte	0x1
 681 012d 00       		.byte	0
 682 012e 1E       		.uleb128 0x1e
 683 012f 02       		.byte	0x2
 684 0130 04       		.byte	0x4
ARM GAS  C:\Users\DEVELO~1\AppData\Local\Temp\ccBPZKTw.s 			page 13


 685 0131 D8       		.byte	0xd8
 686 0132 09       		.byte	0x9
 687 0133 4B010000 		.4byte	0x14b
 688 0137 12       		.uleb128 0x12
 689 0138 7700     		.ascii	"w\000"
 690 013a DA       		.byte	0xda
 691 013b 0C       		.byte	0xc
 692 013c A1000000 		.4byte	0xa1
 693 0140 12       		.uleb128 0x12
 694 0141 627700   		.ascii	"bw\000"
 695 0144 E0       		.byte	0xe0
 696 0145 03       		.byte	0x3
 697 0146 0B010000 		.4byte	0x10b
 698 014a 00       		.byte	0
 699 014b 0B       		.uleb128 0xb
 700 014c 47060000 		.4byte	.LASF19
 701 0150 04       		.byte	0x4
 702 0151 E2       		.byte	0xe2
 703 0152 01       		.byte	0x1
 704 0153 2E010000 		.4byte	0x12e
 705 0157 17       		.uleb128 0x17
 706 0158 D5040000 		.4byte	.LASF20
 707 015c 08       		.byte	0x8
 708 015d E9       		.byte	0xe9
 709 015e 0A       		.byte	0xa
 710 015f A0010000 		.4byte	0x1a0
 711 0163 0C       		.uleb128 0xc
 712 0164 9B040000 		.4byte	.LASF21
 713 0168 EB       		.byte	0xeb
 714 0169 17       		.byte	0x17
 715 016a 90000000 		.4byte	0x90
 716 016e 00       		.byte	0
 717 016f 0C       		.uleb128 0xc
 718 0170 52080000 		.4byte	.LASF22
 719 0174 EC       		.byte	0xec
 720 0175 17       		.byte	0x17
 721 0176 90000000 		.4byte	0x90
 722 017a 01       		.byte	0x1
 723 017b 0C       		.uleb128 0xc
 724 017c DB030000 		.4byte	.LASF23
 725 0180 ED       		.byte	0xed
 726 0181 17       		.byte	0x17
 727 0182 4B010000 		.4byte	0x14b
 728 0186 02       		.byte	0x2
 729 0187 0C       		.uleb128 0xc
 730 0188 00000000 		.4byte	.LASF24
 731 018c EE       		.byte	0xee
 732 018d 17       		.byte	0x17
 733 018e 4B010000 		.4byte	0x14b
 734 0192 04       		.byte	0x4
 735 0193 0C       		.uleb128 0xc
 736 0194 4B0A0000 		.4byte	.LASF25
 737 0198 EF       		.byte	0xef
 738 0199 17       		.byte	0x17
 739 019a 4B010000 		.4byte	0x14b
 740 019e 06       		.byte	0x6
 741 019f 00       		.byte	0
ARM GAS  C:\Users\DEVELO~1\AppData\Local\Temp\ccBPZKTw.s 			page 14


 742 01a0 1F       		.uleb128 0x1f
 743 01a1 B3060000 		.4byte	.LASF181
 744 01a5 08       		.byte	0x8
 745 01a6 04       		.byte	0x4
 746 01a7 E5       		.byte	0xe5
 747 01a8 0F       		.byte	0xf
 748 01a9 C1010000 		.4byte	0x1c1
 749 01ad 12       		.uleb128 0x12
 750 01ae 643800   		.ascii	"d8\000"
 751 01b1 E7       		.byte	0xe7
 752 01b2 0C       		.byte	0xc
 753 01b3 BE000000 		.4byte	0xbe
 754 01b7 12       		.uleb128 0x12
 755 01b8 6200     		.ascii	"b\000"
 756 01ba F0       		.byte	0xf0
 757 01bb 05       		.byte	0x5
 758 01bc 57010000 		.4byte	0x157
 759 01c0 00       		.byte	0
 760 01c1 0B       		.uleb128 0xb
 761 01c2 63080000 		.4byte	.LASF26
 762 01c6 04       		.byte	0x4
 763 01c7 F2       		.byte	0xf2
 764 01c8 01       		.byte	0x1
 765 01c9 A0010000 		.4byte	0x1a0
 766 01cd 17       		.uleb128 0x17
 767 01ce AF090000 		.4byte	.LASF27
 768 01d2 12       		.byte	0x12
 769 01d3 FB       		.byte	0xfb
 770 01d4 10       		.byte	0x10
 771 01d5 8D020000 		.4byte	0x28d
 772 01d9 0C       		.uleb128 0xc
 773 01da D4090000 		.4byte	.LASF28
 774 01de FD       		.byte	0xfd
 775 01df 0D       		.byte	0xd
 776 01e0 90000000 		.4byte	0x90
 777 01e4 00       		.byte	0
 778 01e5 0C       		.uleb128 0xc
 779 01e6 C4050000 		.4byte	.LASF29
 780 01ea FE       		.byte	0xfe
 781 01eb 0D       		.byte	0xd
 782 01ec 90000000 		.4byte	0x90
 783 01f0 01       		.byte	0x1
 784 01f1 0C       		.uleb128 0xc
 785 01f2 E5040000 		.4byte	.LASF30
 786 01f6 FF       		.byte	0xff
 787 01f7 0D       		.byte	0xd
 788 01f8 A1000000 		.4byte	0xa1
 789 01fc 02       		.byte	0x2
 790 01fd 01       		.uleb128 0x1
 791 01fe FC080000 		.4byte	.LASF31
 792 0202 0001     		.2byte	0x100
 793 0204 0D       		.byte	0xd
 794 0205 90000000 		.4byte	0x90
 795 0209 04       		.byte	0x4
 796 020a 01       		.uleb128 0x1
 797 020b 13050000 		.4byte	.LASF32
 798 020f 0101     		.2byte	0x101
ARM GAS  C:\Users\DEVELO~1\AppData\Local\Temp\ccBPZKTw.s 			page 15


 799 0211 0D       		.byte	0xd
 800 0212 90000000 		.4byte	0x90
 801 0216 05       		.byte	0x5
 802 0217 01       		.uleb128 0x1
 803 0218 3C080000 		.4byte	.LASF33
 804 021c 0201     		.2byte	0x102
 805 021e 0D       		.byte	0xd
 806 021f 90000000 		.4byte	0x90
 807 0223 06       		.byte	0x6
 808 0224 01       		.uleb128 0x1
 809 0225 09060000 		.4byte	.LASF34
 810 0229 0601     		.2byte	0x106
 811 022b 0D       		.byte	0xd
 812 022c 90000000 		.4byte	0x90
 813 0230 07       		.byte	0x7
 814 0231 01       		.uleb128 0x1
 815 0232 030B0000 		.4byte	.LASF35
 816 0236 0701     		.2byte	0x107
 817 0238 0E       		.byte	0xe
 818 0239 A1000000 		.4byte	0xa1
 819 023d 08       		.byte	0x8
 820 023e 01       		.uleb128 0x1
 821 023f 5D040000 		.4byte	.LASF36
 822 0243 0801     		.2byte	0x108
 823 0245 0E       		.byte	0xe
 824 0246 A1000000 		.4byte	0xa1
 825 024a 0A       		.byte	0xa
 826 024b 01       		.uleb128 0x1
 827 024c 6A030000 		.4byte	.LASF37
 828 0250 0901     		.2byte	0x109
 829 0252 0E       		.byte	0xe
 830 0253 A1000000 		.4byte	0xa1
 831 0257 0C       		.byte	0xc
 832 0258 01       		.uleb128 0x1
 833 0259 09040000 		.4byte	.LASF38
 834 025d 0A01     		.2byte	0x10a
 835 025f 0D       		.byte	0xd
 836 0260 90000000 		.4byte	0x90
 837 0264 0E       		.byte	0xe
 838 0265 01       		.uleb128 0x1
 839 0266 3D040000 		.4byte	.LASF39
 840 026a 0B01     		.2byte	0x10b
 841 026c 0D       		.byte	0xd
 842 026d 90000000 		.4byte	0x90
 843 0271 0F       		.byte	0xf
 844 0272 01       		.uleb128 0x1
 845 0273 23050000 		.4byte	.LASF40
 846 0277 0C01     		.2byte	0x10c
 847 0279 0D       		.byte	0xd
 848 027a 90000000 		.4byte	0x90
 849 027e 10       		.byte	0x10
 850 027f 01       		.uleb128 0x1
 851 0280 B90A0000 		.4byte	.LASF41
 852 0284 0D01     		.2byte	0x10d
 853 0286 0D       		.byte	0xd
 854 0287 90000000 		.4byte	0x90
 855 028b 11       		.byte	0x11
ARM GAS  C:\Users\DEVELO~1\AppData\Local\Temp\ccBPZKTw.s 			page 16


 856 028c 00       		.byte	0
 857 028d 07       		.uleb128 0x7
 858 028e A50A0000 		.4byte	.LASF42
 859 0292 0F01     		.2byte	0x10f
 860 0294 01       		.byte	0x1
 861 0295 CD010000 		.4byte	0x1cd
 862 0299 14       		.uleb128 0x14
 863 029a C4060000 		.4byte	.LASF43
 864 029e 08       		.byte	0x8
 865 029f 1101     		.2byte	0x111
 866 02a1 F4020000 		.4byte	0x2f4
 867 02a5 01       		.uleb128 0x1
 868 02a6 D4090000 		.4byte	.LASF28
 869 02aa 1301     		.2byte	0x113
 870 02ac 0D       		.byte	0xd
 871 02ad 90000000 		.4byte	0x90
 872 02b1 00       		.byte	0
 873 02b2 01       		.uleb128 0x1
 874 02b3 C4050000 		.4byte	.LASF29
 875 02b7 1401     		.2byte	0x114
 876 02b9 0D       		.byte	0xd
 877 02ba 90000000 		.4byte	0x90
 878 02be 01       		.byte	0x1
 879 02bf 01       		.uleb128 0x1
 880 02c0 24070000 		.4byte	.LASF44
 881 02c4 1501     		.2byte	0x115
 882 02c6 0D       		.byte	0xd
 883 02c7 90000000 		.4byte	0x90
 884 02cb 02       		.byte	0x2
 885 02cc 01       		.uleb128 0x1
 886 02cd A6060000 		.4byte	.LASF45
 887 02d1 1601     		.2byte	0x116
 888 02d3 0D       		.byte	0xd
 889 02d4 90000000 		.4byte	0x90
 890 02d8 03       		.byte	0x3
 891 02d9 01       		.uleb128 0x1
 892 02da 39090000 		.4byte	.LASF46
 893 02de 1701     		.2byte	0x117
 894 02e0 0D       		.byte	0xd
 895 02e1 A1000000 		.4byte	0xa1
 896 02e5 04       		.byte	0x4
 897 02e6 01       		.uleb128 0x1
 898 02e7 32060000 		.4byte	.LASF47
 899 02eb 1801     		.2byte	0x118
 900 02ed 0D       		.byte	0xd
 901 02ee 90000000 		.4byte	0x90
 902 02f2 06       		.byte	0x6
 903 02f3 00       		.byte	0
 904 02f4 07       		.uleb128 0x7
 905 02f5 AB050000 		.4byte	.LASF48
 906 02f9 1A01     		.2byte	0x11a
 907 02fb 01       		.byte	0x1
 908 02fc 99020000 		.4byte	0x299
 909 0300 14       		.uleb128 0x14
 910 0301 2B0A0000 		.4byte	.LASF49
 911 0305 2A       		.byte	0x2a
 912 0306 1C01     		.2byte	0x11c
ARM GAS  C:\Users\DEVELO~1\AppData\Local\Temp\ccBPZKTw.s 			page 17


 913 0308 8F030000 		.4byte	0x38f
 914 030c 01       		.uleb128 0x1
 915 030d D4090000 		.4byte	.LASF28
 916 0311 1E01     		.2byte	0x11e
 917 0313 0B       		.byte	0xb
 918 0314 90000000 		.4byte	0x90
 919 0318 00       		.byte	0
 920 0319 01       		.uleb128 0x1
 921 031a C4050000 		.4byte	.LASF29
 922 031e 1F01     		.2byte	0x11f
 923 0320 0B       		.byte	0xb
 924 0321 90000000 		.4byte	0x90
 925 0325 01       		.byte	0x1
 926 0326 01       		.uleb128 0x1
 927 0327 19020000 		.4byte	.LASF50
 928 032b 2001     		.2byte	0x120
 929 032d 0B       		.byte	0xb
 930 032e 90000000 		.4byte	0x90
 931 0332 02       		.byte	0x2
 932 0333 01       		.uleb128 0x1
 933 0334 53070000 		.4byte	.LASF51
 934 0338 2101     		.2byte	0x121
 935 033a 0B       		.byte	0xb
 936 033b 90000000 		.4byte	0x90
 937 033f 03       		.byte	0x3
 938 0340 01       		.uleb128 0x1
 939 0341 B4080000 		.4byte	.LASF52
 940 0345 2201     		.2byte	0x122
 941 0347 0B       		.byte	0xb
 942 0348 90000000 		.4byte	0x90
 943 034c 04       		.byte	0x4
 944 034d 01       		.uleb128 0x1
 945 034e 97070000 		.4byte	.LASF53
 946 0352 2301     		.2byte	0x123
 947 0354 0B       		.byte	0xb
 948 0355 90000000 		.4byte	0x90
 949 0359 05       		.byte	0x5
 950 035a 01       		.uleb128 0x1
 951 035b 81000000 		.4byte	.LASF54
 952 035f 2401     		.2byte	0x124
 953 0361 0B       		.byte	0xb
 954 0362 90000000 		.4byte	0x90
 955 0366 06       		.byte	0x6
 956 0367 01       		.uleb128 0x1
 957 0368 D4020000 		.4byte	.LASF55
 958 036c 2501     		.2byte	0x125
 959 036e 0B       		.byte	0xb
 960 036f 90000000 		.4byte	0x90
 961 0373 07       		.byte	0x7
 962 0374 01       		.uleb128 0x1
 963 0375 65070000 		.4byte	.LASF56
 964 0379 2601     		.2byte	0x126
 965 037b 0B       		.byte	0xb
 966 037c 90000000 		.4byte	0x90
 967 0380 08       		.byte	0x8
 968 0381 01       		.uleb128 0x1
 969 0382 60010000 		.4byte	.LASF57
ARM GAS  C:\Users\DEVELO~1\AppData\Local\Temp\ccBPZKTw.s 			page 18


 970 0386 2701     		.2byte	0x127
 971 0388 24       		.byte	0x24
 972 0389 8F030000 		.4byte	0x38f
 973 038d 0A       		.byte	0xa
 974 038e 00       		.byte	0
 975 038f 0E       		.uleb128 0xe
 976 0390 F4020000 		.4byte	0x2f4
 977 0394 9F030000 		.4byte	0x39f
 978 0398 10       		.uleb128 0x10
 979 0399 89000000 		.4byte	0x89
 980 039d 03       		.byte	0x3
 981 039e 00       		.byte	0
 982 039f 07       		.uleb128 0x7
 983 03a0 7E0A0000 		.4byte	.LASF58
 984 03a4 2901     		.2byte	0x129
 985 03a6 01       		.byte	0x1
 986 03a7 00030000 		.4byte	0x300
 987 03ab 14       		.uleb128 0x14
 988 03ac 09080000 		.4byte	.LASF59
 989 03b0 5E       		.byte	0x5e
 990 03b1 2C01     		.2byte	0x12c
 991 03b3 2D040000 		.4byte	0x42d
 992 03b7 01       		.uleb128 0x1
 993 03b8 D4090000 		.4byte	.LASF28
 994 03bc 2E01     		.2byte	0x12e
 995 03be 0D       		.byte	0xd
 996 03bf 90000000 		.4byte	0x90
 997 03c3 00       		.byte	0
 998 03c4 01       		.uleb128 0x1
 999 03c5 C4050000 		.4byte	.LASF29
 1000 03c9 2F01     		.2byte	0x12f
 1001 03cb 0D       		.byte	0xd
 1002 03cc 90000000 		.4byte	0x90
 1003 03d0 01       		.byte	0x1
 1004 03d1 01       		.uleb128 0x1
 1005 03d2 9B020000 		.4byte	.LASF60
 1006 03d6 3001     		.2byte	0x130
 1007 03d8 0D       		.byte	0xd
 1008 03d9 A1000000 		.4byte	0xa1
 1009 03dd 02       		.byte	0x2
 1010 03de 01       		.uleb128 0x1
 1011 03df 76090000 		.4byte	.LASF61
 1012 03e3 3101     		.2byte	0x131
 1013 03e5 0D       		.byte	0xd
 1014 03e6 90000000 		.4byte	0x90
 1015 03ea 04       		.byte	0x4
 1016 03eb 01       		.uleb128 0x1
 1017 03ec D7070000 		.4byte	.LASF62
 1018 03f0 3201     		.2byte	0x132
 1019 03f2 0D       		.byte	0xd
 1020 03f3 90000000 		.4byte	0x90
 1021 03f7 05       		.byte	0x5
 1022 03f8 01       		.uleb128 0x1
 1023 03f9 22080000 		.4byte	.LASF63
 1024 03fd 3301     		.2byte	0x133
 1025 03ff 0D       		.byte	0xd
 1026 0400 90000000 		.4byte	0x90
ARM GAS  C:\Users\DEVELO~1\AppData\Local\Temp\ccBPZKTw.s 			page 19


 1027 0404 06       		.byte	0x6
 1028 0405 01       		.uleb128 0x1
 1029 0406 A6060000 		.4byte	.LASF45
 1030 040a 3401     		.2byte	0x134
 1031 040c 0D       		.byte	0xd
 1032 040d 90000000 		.4byte	0x90
 1033 0411 07       		.byte	0x7
 1034 0412 01       		.uleb128 0x1
 1035 0413 0C0B0000 		.4byte	.LASF64
 1036 0417 3501     		.2byte	0x135
 1037 0419 0D       		.byte	0xd
 1038 041a 90000000 		.4byte	0x90
 1039 041e 08       		.byte	0x8
 1040 041f 01       		.uleb128 0x1
 1041 0420 35070000 		.4byte	.LASF65
 1042 0424 3601     		.2byte	0x136
 1043 0426 24       		.byte	0x24
 1044 0427 2D040000 		.4byte	0x42d
 1045 042b 0A       		.byte	0xa
 1046 042c 00       		.byte	0
 1047 042d 0E       		.uleb128 0xe
 1048 042e 9F030000 		.4byte	0x39f
 1049 0432 3D040000 		.4byte	0x43d
 1050 0436 10       		.uleb128 0x10
 1051 0437 89000000 		.4byte	0x89
 1052 043b 01       		.byte	0x1
 1053 043c 00       		.byte	0
 1054 043d 07       		.uleb128 0x7
 1055 043e 48090000 		.4byte	.LASF66
 1056 0442 3801     		.2byte	0x138
 1057 0444 01       		.byte	0x1
 1058 0445 AB030000 		.4byte	0x3ab
 1059 0449 0F       		.uleb128 0xf
 1060 044a 40000000 		.4byte	0x40
 1061 044e 3D01     		.2byte	0x13d
 1062 0450 79040000 		.4byte	0x479
 1063 0454 03       		.uleb128 0x3
 1064 0455 CC0A0000 		.4byte	.LASF67
 1065 0459 00       		.byte	0
 1066 045a 03       		.uleb128 0x3
 1067 045b D8060000 		.4byte	.LASF68
 1068 045f 01       		.byte	0x1
 1069 0460 03       		.uleb128 0x3
 1070 0461 A1050000 		.4byte	.LASF69
 1071 0465 02       		.byte	0x2
 1072 0466 03       		.uleb128 0x3
 1073 0467 07070000 		.4byte	.LASF70
 1074 046b 03       		.byte	0x3
 1075 046c 03       		.uleb128 0x3
 1076 046d C0070000 		.4byte	.LASF71
 1077 0471 04       		.byte	0x4
 1078 0472 03       		.uleb128 0x3
 1079 0473 70070000 		.4byte	.LASF72
 1080 0477 05       		.byte	0x5
 1081 0478 00       		.byte	0
 1082 0479 07       		.uleb128 0x7
 1083 047a 42020000 		.4byte	.LASF73
ARM GAS  C:\Users\DEVELO~1\AppData\Local\Temp\ccBPZKTw.s 			page 20


 1084 047e 4401     		.2byte	0x144
 1085 0480 03       		.byte	0x3
 1086 0481 49040000 		.4byte	0x449
 1087 0485 0F       		.uleb128 0xf
 1088 0486 40000000 		.4byte	0x40
 1089 048a 4C01     		.2byte	0x14c
 1090 048c A3040000 		.4byte	0x4a3
 1091 0490 03       		.uleb128 0x3
 1092 0491 26030000 		.4byte	.LASF74
 1093 0495 00       		.byte	0
 1094 0496 03       		.uleb128 0x3
 1095 0497 DC090000 		.4byte	.LASF75
 1096 049b 01       		.byte	0x1
 1097 049c 03       		.uleb128 0x3
 1098 049d C5020000 		.4byte	.LASF76
 1099 04a1 02       		.byte	0x2
 1100 04a2 00       		.byte	0
 1101 04a3 0F       		.uleb128 0xf
 1102 04a4 40000000 		.4byte	0x40
 1103 04a8 5501     		.2byte	0x155
 1104 04aa 03050000 		.4byte	0x503
 1105 04ae 03       		.uleb128 0x3
 1106 04af 1A070000 		.4byte	.LASF77
 1107 04b3 00       		.byte	0
 1108 04b4 03       		.uleb128 0x3
 1109 04b5 530A0000 		.4byte	.LASF78
 1110 04b9 01       		.byte	0x1
 1111 04ba 03       		.uleb128 0x3
 1112 04bb 77020000 		.4byte	.LASF79
 1113 04bf 02       		.byte	0x2
 1114 04c0 03       		.uleb128 0x3
 1115 04c1 9E080000 		.4byte	.LASF80
 1116 04c5 03       		.byte	0x3
 1117 04c6 03       		.uleb128 0x3
 1118 04c7 24010000 		.4byte	.LASF81
 1119 04cb 04       		.byte	0x4
 1120 04cc 03       		.uleb128 0x3
 1121 04cd A9040000 		.4byte	.LASF82
 1122 04d1 05       		.byte	0x5
 1123 04d2 03       		.uleb128 0x3
 1124 04d3 26090000 		.4byte	.LASF83
 1125 04d7 06       		.byte	0x6
 1126 04d8 03       		.uleb128 0x3
 1127 04d9 D0030000 		.4byte	.LASF84
 1128 04dd 07       		.byte	0x7
 1129 04de 03       		.uleb128 0x3
 1130 04df 93030000 		.4byte	.LASF85
 1131 04e3 08       		.byte	0x8
 1132 04e4 03       		.uleb128 0x3
 1133 04e5 2A020000 		.4byte	.LASF86
 1134 04e9 09       		.byte	0x9
 1135 04ea 03       		.uleb128 0x3
 1136 04eb 68010000 		.4byte	.LASF87
 1137 04ef 0A       		.byte	0xa
 1138 04f0 03       		.uleb128 0x3
 1139 04f1 BA020000 		.4byte	.LASF88
 1140 04f5 0B       		.byte	0xb
ARM GAS  C:\Users\DEVELO~1\AppData\Local\Temp\ccBPZKTw.s 			page 21


 1141 04f6 03       		.uleb128 0x3
 1142 04f7 FA050000 		.4byte	.LASF89
 1143 04fb 0C       		.byte	0xc
 1144 04fc 03       		.uleb128 0x3
 1145 04fd 46040000 		.4byte	.LASF90
 1146 0501 0D       		.byte	0xd
 1147 0502 00       		.byte	0
 1148 0503 07       		.uleb128 0x7
 1149 0504 89020000 		.4byte	.LASF91
 1150 0508 6401     		.2byte	0x164
 1151 050a 03       		.byte	0x3
 1152 050b A3040000 		.4byte	0x4a3
 1153 050f 13       		.uleb128 0x13
 1154 0510 03050000 		.4byte	0x503
 1155 0514 0F       		.uleb128 0xf
 1156 0515 40000000 		.4byte	0x40
 1157 0519 6801     		.2byte	0x168
 1158 051b 50050000 		.4byte	0x550
 1159 051f 03       		.uleb128 0x3
 1160 0520 1A010000 		.4byte	.LASF92
 1161 0524 00       		.byte	0
 1162 0525 03       		.uleb128 0x3
 1163 0526 76060000 		.4byte	.LASF93
 1164 052a 01       		.byte	0x1
 1165 052b 03       		.uleb128 0x3
 1166 052c FE090000 		.4byte	.LASF94
 1167 0530 02       		.byte	0x2
 1168 0531 03       		.uleb128 0x3
 1169 0532 1E000000 		.4byte	.LASF95
 1170 0536 03       		.byte	0x3
 1171 0537 03       		.uleb128 0x3
 1172 0538 07000000 		.4byte	.LASF96
 1173 053c 04       		.byte	0x4
 1174 053d 03       		.uleb128 0x3
 1175 053e 8D060000 		.4byte	.LASF97
 1176 0542 05       		.byte	0x5
 1177 0543 03       		.uleb128 0x3
 1178 0544 84050000 		.4byte	.LASF98
 1179 0548 06       		.byte	0x6
 1180 0549 03       		.uleb128 0x3
 1181 054a D40A0000 		.4byte	.LASF99
 1182 054e 07       		.byte	0x7
 1183 054f 00       		.byte	0
 1184 0550 07       		.uleb128 0x7
 1185 0551 09090000 		.4byte	.LASF100
 1186 0555 7101     		.2byte	0x171
 1187 0557 03       		.byte	0x3
 1188 0558 14050000 		.4byte	0x514
 1189 055c 0F       		.uleb128 0xf
 1190 055d 40000000 		.4byte	0x40
 1191 0561 7501     		.2byte	0x175
 1192 0563 BC050000 		.4byte	0x5bc
 1193 0567 03       		.uleb128 0x3
 1194 0568 33040000 		.4byte	.LASF101
 1195 056c 00       		.byte	0
 1196 056d 03       		.uleb128 0x3
 1197 056e 31080000 		.4byte	.LASF102
ARM GAS  C:\Users\DEVELO~1\AppData\Local\Temp\ccBPZKTw.s 			page 22


 1198 0572 01       		.byte	0x1
 1199 0573 03       		.uleb128 0x3
 1200 0574 F30A0000 		.4byte	.LASF103
 1201 0578 02       		.byte	0x2
 1202 0579 03       		.uleb128 0x3
 1203 057a 61060000 		.4byte	.LASF104
 1204 057e 03       		.byte	0x3
 1205 057f 03       		.uleb128 0x3
 1206 0580 E2060000 		.4byte	.LASF105
 1207 0584 04       		.byte	0x4
 1208 0585 03       		.uleb128 0x3
 1209 0586 8D040000 		.4byte	.LASF106
 1210 058a 05       		.byte	0x5
 1211 058b 03       		.uleb128 0x3
 1212 058c EC040000 		.4byte	.LASF107
 1213 0590 06       		.byte	0x6
 1214 0591 03       		.uleb128 0x3
 1215 0592 C1030000 		.4byte	.LASF108
 1216 0596 07       		.byte	0x7
 1217 0597 03       		.uleb128 0x3
 1218 0598 75080000 		.4byte	.LASF109
 1219 059c 08       		.byte	0x8
 1220 059d 03       		.uleb128 0x3
 1221 059e 9F090000 		.4byte	.LASF110
 1222 05a2 09       		.byte	0x9
 1223 05a3 03       		.uleb128 0x3
 1224 05a4 3E070000 		.4byte	.LASF111
 1225 05a8 0A       		.byte	0xa
 1226 05a9 03       		.uleb128 0x3
 1227 05aa 9B000000 		.4byte	.LASF112
 1228 05ae 0B       		.byte	0xb
 1229 05af 03       		.uleb128 0x3
 1230 05b0 77050000 		.4byte	.LASF113
 1231 05b4 0C       		.byte	0xc
 1232 05b5 03       		.uleb128 0x3
 1233 05b6 68090000 		.4byte	.LASF114
 1234 05ba 0D       		.byte	0xd
 1235 05bb 00       		.byte	0
 1236 05bc 07       		.uleb128 0x7
 1237 05bd 36030000 		.4byte	.LASF115
 1238 05c1 8401     		.2byte	0x184
 1239 05c3 03       		.byte	0x3
 1240 05c4 5C050000 		.4byte	0x55c
 1241 05c8 0F       		.uleb128 0xf
 1242 05c9 40000000 		.4byte	0x40
 1243 05cd 8901     		.2byte	0x189
 1244 05cf E6050000 		.4byte	0x5e6
 1245 05d3 03       		.uleb128 0x3
 1246 05d4 58060000 		.4byte	.LASF116
 1247 05d8 00       		.byte	0
 1248 05d9 03       		.uleb128 0x3
 1249 05da 5B050000 		.4byte	.LASF117
 1250 05de 01       		.byte	0x1
 1251 05df 03       		.uleb128 0x3
 1252 05e0 08030000 		.4byte	.LASF118
 1253 05e4 02       		.byte	0x2
 1254 05e5 00       		.byte	0
ARM GAS  C:\Users\DEVELO~1\AppData\Local\Temp\ccBPZKTw.s 			page 23


 1255 05e6 07       		.uleb128 0x7
 1256 05e7 AF070000 		.4byte	.LASF119
 1257 05eb 8D01     		.2byte	0x18d
 1258 05ed 03       		.byte	0x3
 1259 05ee C8050000 		.4byte	0x5c8
 1260 05f2 18       		.uleb128 0x18
 1261 05f3 18       		.byte	0x18
 1262 05f4 A501     		.2byte	0x1a5
 1263 05f6 70060000 		.4byte	0x670
 1264 05fa 01       		.uleb128 0x1
 1265 05fb 24060000 		.4byte	.LASF120
 1266 05ff A701     		.2byte	0x1a7
 1267 0601 19       		.byte	0x19
 1268 0602 90000000 		.4byte	0x90
 1269 0606 00       		.byte	0
 1270 0607 01       		.uleb128 0x1
 1271 0608 55020000 		.4byte	.LASF121
 1272 060c A801     		.2byte	0x1a8
 1273 060e 19       		.byte	0x19
 1274 060f 90000000 		.4byte	0x90
 1275 0613 01       		.byte	0x1
 1276 0614 01       		.uleb128 0x1
 1277 0615 C1090000 		.4byte	.LASF122
 1278 0619 A901     		.2byte	0x1a9
 1279 061b 19       		.byte	0x19
 1280 061c 90000000 		.4byte	0x90
 1281 0620 02       		.byte	0x2
 1282 0621 01       		.uleb128 0x1
 1283 0622 88030000 		.4byte	.LASF123
 1284 0626 AA01     		.2byte	0x1aa
 1285 0628 1A       		.byte	0x1a
 1286 0629 06010000 		.4byte	0x106
 1287 062d 04       		.byte	0x4
 1288 062e 01       		.uleb128 0x1
 1289 062f E0080000 		.4byte	.LASF124
 1290 0633 AB01     		.2byte	0x1ab
 1291 0635 19       		.byte	0x19
 1292 0636 A1000000 		.4byte	0xa1
 1293 063a 08       		.byte	0x8
 1294 063b 01       		.uleb128 0x1
 1295 063c 450A0000 		.4byte	.LASF125
 1296 0640 AC01     		.2byte	0x1ac
 1297 0642 19       		.byte	0x19
 1298 0643 A1000000 		.4byte	0xa1
 1299 0647 0A       		.byte	0xa
 1300 0648 01       		.uleb128 0x1
 1301 0649 BE060000 		.4byte	.LASF126
 1302 064d AD01     		.2byte	0x1ad
 1303 064f 19       		.byte	0x19
 1304 0650 C1010000 		.4byte	0x1c1
 1305 0654 0C       		.byte	0xc
 1306 0655 01       		.uleb128 0x1
 1307 0656 8D030000 		.4byte	.LASF127
 1308 065a AE01     		.2byte	0x1ae
 1309 065c 19       		.byte	0x19
 1310 065d BC050000 		.4byte	0x5bc
 1311 0661 14       		.byte	0x14
ARM GAS  C:\Users\DEVELO~1\AppData\Local\Temp\ccBPZKTw.s 			page 24


 1312 0662 01       		.uleb128 0x1
 1313 0663 3C060000 		.4byte	.LASF128
 1314 0667 AF01     		.2byte	0x1af
 1315 0669 19       		.byte	0x19
 1316 066a 90000000 		.4byte	0x90
 1317 066e 15       		.byte	0x15
 1318 066f 00       		.byte	0
 1319 0670 07       		.uleb128 0x7
 1320 0671 C4040000 		.4byte	.LASF129
 1321 0675 B101     		.2byte	0x1b1
 1322 0677 03       		.byte	0x3
 1323 0678 F2050000 		.4byte	0x5f2
 1324 067c 20       		.uleb128 0x20
 1325 067d 7A04     		.2byte	0x47a
 1326 067f 04       		.byte	0x4
 1327 0680 B401     		.2byte	0x1b4
 1328 0682 09       		.byte	0x9
 1329 0683 3D070000 		.4byte	0x73d
 1330 0687 01       		.uleb128 0x1
 1331 0688 18060000 		.4byte	.LASF130
 1332 068c B601     		.2byte	0x1b6
 1333 068e 25       		.byte	0x25
 1334 068f 3D070000 		.4byte	0x73d
 1335 0693 00       		.byte	0
 1336 0694 05       		.uleb128 0x5
 1337 0695 400A0000 		.4byte	.LASF131
 1338 0699 B701     		.2byte	0x1b7
 1339 069b 25       		.byte	0x25
 1340 069c 3D070000 		.4byte	0x73d
 1341 06a0 0002     		.2byte	0x200
 1342 06a2 05       		.uleb128 0x5
 1343 06a3 6E060000 		.4byte	.LASF132
 1344 06a7 B801     		.2byte	0x1b8
 1345 06a9 25       		.byte	0x25
 1346 06aa 90000000 		.4byte	0x90
 1347 06ae 0004     		.2byte	0x400
 1348 06b0 05       		.uleb128 0x5
 1349 06b1 700A0000 		.4byte	.LASF133
 1350 06b5 B901     		.2byte	0x1b9
 1351 06b7 25       		.byte	0x25
 1352 06b8 90000000 		.4byte	0x90
 1353 06bc 0104     		.2byte	0x401
 1354 06be 05       		.uleb128 0x5
 1355 06bf A7070000 		.4byte	.LASF134
 1356 06c3 BA01     		.2byte	0x1ba
 1357 06c5 25       		.byte	0x25
 1358 06c6 90000000 		.4byte	0x90
 1359 06ca 0204     		.2byte	0x402
 1360 06cc 05       		.uleb128 0x5
 1361 06cd 4F010000 		.4byte	.LASF135
 1362 06d1 BB01     		.2byte	0x1bb
 1363 06d3 25       		.byte	0x25
 1364 06d4 90000000 		.4byte	0x90
 1365 06d8 0304     		.2byte	0x403
 1366 06da 05       		.uleb128 0x5
 1367 06db 980A0000 		.4byte	.LASF136
 1368 06df BC01     		.2byte	0x1bc
ARM GAS  C:\Users\DEVELO~1\AppData\Local\Temp\ccBPZKTw.s 			page 25


 1369 06e1 25       		.byte	0x25
 1370 06e2 9C000000 		.4byte	0x9c
 1371 06e6 0404     		.2byte	0x404
 1372 06e8 05       		.uleb128 0x5
 1373 06e9 E7080000 		.4byte	.LASF137
 1374 06ed BD01     		.2byte	0x1bd
 1375 06ef 25       		.byte	0x25
 1376 06f0 9C000000 		.4byte	0x9c
 1377 06f4 0504     		.2byte	0x405
 1378 06f6 05       		.uleb128 0x5
 1379 06f7 A6000000 		.4byte	.LASF138
 1380 06fb BE01     		.2byte	0x1be
 1381 06fd 25       		.byte	0x25
 1382 06fe 9C000000 		.4byte	0x9c
 1383 0702 0604     		.2byte	0x406
 1384 0704 05       		.uleb128 0x5
 1385 0705 5E020000 		.4byte	.LASF139
 1386 0709 BF01     		.2byte	0x1bf
 1387 070b 25       		.byte	0x25
 1388 070c 9C000000 		.4byte	0x9c
 1389 0710 0704     		.2byte	0x407
 1390 0712 05       		.uleb128 0x5
 1391 0713 A8020000 		.4byte	.LASF140
 1392 0717 C001     		.2byte	0x1c0
 1393 0719 25       		.byte	0x25
 1394 071a 90000000 		.4byte	0x90
 1395 071e 0804     		.2byte	0x408
 1396 0720 05       		.uleb128 0x5
 1397 0721 DE050000 		.4byte	.LASF141
 1398 0725 C101     		.2byte	0x1c1
 1399 0727 25       		.byte	0x25
 1400 0728 8D020000 		.4byte	0x28d
 1401 072c 0A04     		.2byte	0x40a
 1402 072e 05       		.uleb128 0x5
 1403 072f 760A0000 		.4byte	.LASF142
 1404 0733 C201     		.2byte	0x1c2
 1405 0735 25       		.byte	0x25
 1406 0736 3D040000 		.4byte	0x43d
 1407 073a 1C04     		.2byte	0x41c
 1408 073c 00       		.byte	0
 1409 073d 0E       		.uleb128 0xe
 1410 073e 90000000 		.4byte	0x90
 1411 0742 4E070000 		.4byte	0x74e
 1412 0746 21       		.uleb128 0x21
 1413 0747 89000000 		.4byte	0x89
 1414 074b FF01     		.2byte	0x1ff
 1415 074d 00       		.byte	0
 1416 074e 07       		.uleb128 0x7
 1417 074f 30000000 		.4byte	.LASF143
 1418 0753 C301     		.2byte	0x1c3
 1419 0755 03       		.byte	0x3
 1420 0756 7C060000 		.4byte	0x67c
 1421 075a 18       		.uleb128 0x18
 1422 075b 20       		.byte	0x20
 1423 075c C801     		.2byte	0x1c8
 1424 075e CB070000 		.4byte	0x7cb
 1425 0762 01       		.uleb128 0x1
ARM GAS  C:\Users\DEVELO~1\AppData\Local\Temp\ccBPZKTw.s 			page 26


 1426 0763 1E0A0000 		.4byte	.LASF144
 1427 0767 CA01     		.2byte	0x1ca
 1428 0769 18       		.byte	0x18
 1429 076a F3000000 		.4byte	0xf3
 1430 076e 00       		.byte	0
 1431 076f 01       		.uleb128 0x1
 1432 0770 BA040000 		.4byte	.LASF145
 1433 0774 CB01     		.2byte	0x1cb
 1434 0776 18       		.byte	0x18
 1435 0777 90000000 		.4byte	0x90
 1436 077b 04       		.byte	0x4
 1437 077c 01       		.uleb128 0x1
 1438 077d B6000000 		.4byte	.LASF146
 1439 0781 CC01     		.2byte	0x1cc
 1440 0783 17       		.byte	0x17
 1441 0784 AE080000 		.4byte	0x8ae
 1442 0788 08       		.byte	0x8
 1443 0789 01       		.uleb128 0x1
 1444 078a 0C050000 		.4byte	.LASF147
 1445 078e CD01     		.2byte	0x1cd
 1446 0790 17       		.byte	0x17
 1447 0791 AE080000 		.4byte	0x8ae
 1448 0795 0C       		.byte	0xc
 1449 0796 01       		.uleb128 0x1
 1450 0797 17040000 		.4byte	.LASF148
 1451 079b CE01     		.2byte	0x1ce
 1452 079d 17       		.byte	0x17
 1453 079e AE080000 		.4byte	0x8ae
 1454 07a2 10       		.byte	0x10
 1455 07a3 01       		.uleb128 0x1
 1456 07a4 5C090000 		.4byte	.LASF149
 1457 07a8 CF01     		.2byte	0x1cf
 1458 07aa 17       		.byte	0x17
 1459 07ab AE080000 		.4byte	0x8ae
 1460 07af 14       		.byte	0x14
 1461 07b0 01       		.uleb128 0x1
 1462 07b1 48030000 		.4byte	.LASF150
 1463 07b5 D001     		.2byte	0x1d0
 1464 07b7 17       		.byte	0x17
 1465 07b8 AE080000 		.4byte	0x8ae
 1466 07bc 18       		.byte	0x18
 1467 07bd 01       		.uleb128 0x1
 1468 07be 57040000 		.4byte	.LASF151
 1469 07c2 D101     		.2byte	0x1d1
 1470 07c4 18       		.byte	0x18
 1471 07c5 E5000000 		.4byte	0xe5
 1472 07c9 1C       		.byte	0x1c
 1473 07ca 00       		.byte	0
 1474 07cb 22       		.uleb128 0x22
 1475 07cc 79040000 		.4byte	0x479
 1476 07d0 DA070000 		.4byte	0x7da
 1477 07d4 09       		.uleb128 0x9
 1478 07d5 DA070000 		.4byte	0x7da
 1479 07d9 00       		.byte	0
 1480 07da 0D       		.uleb128 0xd
 1481 07db DF070000 		.4byte	0x7df
 1482 07df 23       		.uleb128 0x23
ARM GAS  C:\Users\DEVELO~1\AppData\Local\Temp\ccBPZKTw.s 			page 27


 1483 07e0 E6050000 		.4byte	.LASF152
 1484 07e4 F804     		.2byte	0x4f8
 1485 07e6 04       		.byte	0x4
 1486 07e7 D501     		.2byte	0x1d5
 1487 07e9 10       		.byte	0x10
 1488 07ea AE080000 		.4byte	0x8ae
 1489 07ee 01       		.uleb128 0x1
 1490 07ef 94000000 		.4byte	.LASF153
 1491 07f3 D701     		.2byte	0x1d7
 1492 07f5 1E       		.byte	0x1e
 1493 07f6 0F050000 		.4byte	0x50f
 1494 07fa 00       		.byte	0
 1495 07fb 01       		.uleb128 0x1
 1496 07fc 20040000 		.4byte	.LASF154
 1497 0800 D801     		.2byte	0x1d8
 1498 0802 19       		.byte	0x19
 1499 0803 50050000 		.4byte	0x550
 1500 0807 01       		.byte	0x1
 1501 0808 01       		.uleb128 0x1
 1502 0809 FA060000 		.4byte	.LASF155
 1503 080d D901     		.2byte	0x1d9
 1504 080f 19       		.byte	0x19
 1505 0810 E6050000 		.4byte	0x5e6
 1506 0814 02       		.byte	0x2
 1507 0815 01       		.uleb128 0x1
 1508 0816 B3030000 		.4byte	.LASF156
 1509 081a DA01     		.2byte	0x1da
 1510 081c 19       		.byte	0x19
 1511 081d 70060000 		.4byte	0x670
 1512 0821 04       		.byte	0x4
 1513 0822 01       		.uleb128 0x1
 1514 0823 E7020000 		.4byte	.LASF157
 1515 0827 DB01     		.2byte	0x1db
 1516 0829 19       		.byte	0x19
 1517 082a 4E070000 		.4byte	0x74e
 1518 082e 1C       		.byte	0x1c
 1519 082f 05       		.uleb128 0x5
 1520 0830 43050000 		.4byte	.LASF158
 1521 0834 DC01     		.2byte	0x1dc
 1522 0836 19       		.byte	0x19
 1523 0837 BF080000 		.4byte	0x8bf
 1524 083b 9804     		.2byte	0x498
 1525 083d 05       		.uleb128 0x5
 1526 083e 6A020000 		.4byte	.LASF159
 1527 0842 DD01     		.2byte	0x1dd
 1528 0844 19       		.byte	0x19
 1529 0845 CF080000 		.4byte	0x8cf
 1530 0849 9C04     		.2byte	0x49c
 1531 084b 05       		.uleb128 0x5
 1532 084c FD070000 		.4byte	.LASF160
 1533 0850 DE01     		.2byte	0x1de
 1534 0852 19       		.byte	0x19
 1535 0853 AD000000 		.4byte	0xad
 1536 0857 A004     		.2byte	0x4a0
 1537 0859 05       		.uleb128 0x5
 1538 085a BE050000 		.4byte	.LASF161
 1539 085e DF01     		.2byte	0x1df
ARM GAS  C:\Users\DEVELO~1\AppData\Local\Temp\ccBPZKTw.s 			page 28


 1540 0860 19       		.byte	0x19
 1541 0861 CE000000 		.4byte	0xce
 1542 0865 A404     		.2byte	0x4a4
 1543 0867 05       		.uleb128 0x5
 1544 0868 2C060000 		.4byte	.LASF162
 1545 086c E001     		.2byte	0x1e0
 1546 086e 19       		.byte	0x19
 1547 086f B9000000 		.4byte	0xb9
 1548 0873 E404     		.2byte	0x4e4
 1549 0875 05       		.uleb128 0x5
 1550 0876 5B080000 		.4byte	.LASF163
 1551 087a E501     		.2byte	0x1e5
 1552 087c 19       		.byte	0x19
 1553 087d AD000000 		.4byte	0xad
 1554 0881 E804     		.2byte	0x4e8
 1555 0883 24       		.uleb128 0x24
 1556 0884 696400   		.ascii	"id\000"
 1557 0887 04       		.byte	0x4
 1558 0888 E601     		.2byte	0x1e6
 1559 088a 19       		.byte	0x19
 1560 088b 90000000 		.4byte	0x90
 1561 088f EC04     		.2byte	0x4ec
 1562 0891 05       		.uleb128 0x5
 1563 0892 57040000 		.4byte	.LASF151
 1564 0896 E701     		.2byte	0x1e7
 1565 0898 19       		.byte	0x19
 1566 0899 E5000000 		.4byte	0xe5
 1567 089d F004     		.2byte	0x4f0
 1568 089f 05       		.uleb128 0x5
 1569 08a0 BB030000 		.4byte	.LASF164
 1570 08a4 E801     		.2byte	0x1e8
 1571 08a6 0B       		.byte	0xb
 1572 08a7 E4080000 		.4byte	0x8e4
 1573 08ab F404     		.2byte	0x4f4
 1574 08ad 00       		.byte	0
 1575 08ae 0D       		.uleb128 0xd
 1576 08af CB070000 		.4byte	0x7cb
 1577 08b3 07       		.uleb128 0x7
 1578 08b4 EB070000 		.4byte	.LASF165
 1579 08b8 D201     		.2byte	0x1d2
 1580 08ba 03       		.byte	0x3
 1581 08bb 5A070000 		.4byte	0x75a
 1582 08bf 0E       		.uleb128 0xe
 1583 08c0 CF080000 		.4byte	0x8cf
 1584 08c4 CF080000 		.4byte	0x8cf
 1585 08c8 10       		.uleb128 0x10
 1586 08c9 89000000 		.4byte	0x89
 1587 08cd 00       		.byte	0
 1588 08ce 00       		.byte	0
 1589 08cf 0D       		.uleb128 0xd
 1590 08d0 B3080000 		.4byte	0x8b3
 1591 08d4 25       		.uleb128 0x25
 1592 08d5 E4080000 		.4byte	0x8e4
 1593 08d9 09       		.uleb128 0x9
 1594 08da DA070000 		.4byte	0x7da
 1595 08de 09       		.uleb128 0x9
 1596 08df 90000000 		.4byte	0x90
ARM GAS  C:\Users\DEVELO~1\AppData\Local\Temp\ccBPZKTw.s 			page 29


 1597 08e3 00       		.byte	0
 1598 08e4 0D       		.uleb128 0xd
 1599 08e5 D4080000 		.4byte	0x8d4
 1600 08e9 07       		.uleb128 0x7
 1601 08ea 72040000 		.4byte	.LASF166
 1602 08ee F501     		.2byte	0x1f5
 1603 08f0 03       		.byte	0x3
 1604 08f1 DF070000 		.4byte	0x7df
 1605 08f5 26       		.uleb128 0x26
 1606 08f6 3D010000 		.4byte	.LASF182
 1607 08fa 05       		.byte	0x5
 1608 08fb 80       		.byte	0x80
 1609 08fc 14       		.byte	0x14
 1610 08fd 79040000 		.4byte	0x479
 1611 0901 2E090000 		.4byte	0x92e
 1612 0905 09       		.uleb128 0x9
 1613 0906 2E090000 		.4byte	0x92e
 1614 090a 09       		.uleb128 0x9
 1615 090b 90000000 		.4byte	0x90
 1616 090f 09       		.uleb128 0x9
 1617 0910 90000000 		.4byte	0x90
 1618 0914 09       		.uleb128 0x9
 1619 0915 90000000 		.4byte	0x90
 1620 0919 09       		.uleb128 0x9
 1621 091a 90000000 		.4byte	0x90
 1622 091e 09       		.uleb128 0x9
 1623 091f 06010000 		.4byte	0x106
 1624 0923 09       		.uleb128 0x9
 1625 0924 A1000000 		.4byte	0xa1
 1626 0928 09       		.uleb128 0x9
 1627 0929 90000000 		.4byte	0x90
 1628 092d 00       		.byte	0
 1629 092e 0D       		.uleb128 0xd
 1630 092f E9080000 		.4byte	0x8e9
 1631 0933 15       		.uleb128 0x15
 1632 0934 C2080000 		.4byte	.LASF169
 1633 0938 3A01     		.2byte	0x13a
 1634 093a 79040000 		.4byte	0x479
 1635 093e 00000000 		.4byte	.LFB152
 1636 0942 22000000 		.4byte	.LFE152-.LFB152
 1637 0946 01       		.uleb128 0x1
 1638 0947 9C       		.byte	0x9c
 1639 0948 D5090000 		.4byte	0x9d5
 1640 094c 08       		.uleb128 0x8
 1641 094d 4C080000 		.4byte	.LASF167
 1642 0951 3A01     		.2byte	0x13a
 1643 0953 3A       		.byte	0x3a
 1644 0954 2E090000 		.4byte	0x92e
 1645 0958 10000000 		.4byte	.LLST33
 1646 095c 0C000000 		.4byte	.LVUS33
 1647 0960 08       		.uleb128 0x8
 1648 0961 88030000 		.4byte	.LASF123
 1649 0965 3B01     		.2byte	0x13b
 1650 0967 2F       		.byte	0x2f
 1651 0968 06010000 		.4byte	0x106
 1652 096c 27000000 		.4byte	.LLST34
 1653 0970 23000000 		.4byte	.LVUS34
ARM GAS  C:\Users\DEVELO~1\AppData\Local\Temp\ccBPZKTw.s 			page 30


 1654 0974 08       		.uleb128 0x8
 1655 0975 E0080000 		.4byte	.LASF124
 1656 0979 3C01     		.2byte	0x13c
 1657 097b 2F       		.byte	0x2f
 1658 097c AD000000 		.4byte	0xad
 1659 0980 3B000000 		.4byte	.LLST35
 1660 0984 37000000 		.4byte	.LVUS35
 1661 0988 08       		.uleb128 0x8
 1662 0989 2A040000 		.4byte	.LASF168
 1663 098d 3D01     		.2byte	0x13d
 1664 098f 2E       		.byte	0x2e
 1665 0990 90000000 		.4byte	0x90
 1666 0994 52000000 		.4byte	.LLST36
 1667 0998 4E000000 		.4byte	.LVUS36
 1668 099c 0A       		.uleb128 0xa
 1669 099d 1C000000 		.4byte	.LVL47
 1670 09a1 F5080000 		.4byte	0x8f5
 1671 09a5 02       		.uleb128 0x2
 1672 09a6 01       		.uleb128 0x1
 1673 09a7 50       		.byte	0x50
 1674 09a8 03       		.uleb128 0x3
 1675 09a9 A3       		.byte	0xa3
 1676 09aa 01       		.uleb128 0x1
 1677 09ab 50       		.byte	0x50
 1678 09ac 02       		.uleb128 0x2
 1679 09ad 01       		.uleb128 0x1
 1680 09ae 52       		.byte	0x52
 1681 09af 02       		.uleb128 0x2
 1682 09b0 74       		.byte	0x74
 1683 09b1 00       		.sleb128 0
 1684 09b2 02       		.uleb128 0x2
 1685 09b3 01       		.uleb128 0x1
 1686 09b4 53       		.byte	0x53
 1687 09b5 01       		.uleb128 0x1
 1688 09b6 31       		.byte	0x31
 1689 09b7 02       		.uleb128 0x2
 1690 09b8 02       		.uleb128 0x2
 1691 09b9 7D       		.byte	0x7d
 1692 09ba 00       		.sleb128 0
 1693 09bb 01       		.uleb128 0x1
 1694 09bc 31       		.byte	0x31
 1695 09bd 02       		.uleb128 0x2
 1696 09be 02       		.uleb128 0x2
 1697 09bf 7D       		.byte	0x7d
 1698 09c0 04       		.sleb128 4
 1699 09c1 02       		.uleb128 0x2
 1700 09c2 75       		.byte	0x75
 1701 09c3 00       		.sleb128 0
 1702 09c4 02       		.uleb128 0x2
 1703 09c5 02       		.uleb128 0x2
 1704 09c6 7D       		.byte	0x7d
 1705 09c7 08       		.sleb128 8
 1706 09c8 03       		.uleb128 0x3
 1707 09c9 A3       		.byte	0xa3
 1708 09ca 01       		.uleb128 0x1
 1709 09cb 52       		.byte	0x52
 1710 09cc 02       		.uleb128 0x2
ARM GAS  C:\Users\DEVELO~1\AppData\Local\Temp\ccBPZKTw.s 			page 31


 1711 09cd 02       		.uleb128 0x2
 1712 09ce 7D       		.byte	0x7d
 1713 09cf 0C       		.sleb128 12
 1714 09d0 02       		.uleb128 0x2
 1715 09d1 74       		.byte	0x74
 1716 09d2 00       		.sleb128 0
 1717 09d3 00       		.byte	0
 1718 09d4 00       		.byte	0
 1719 09d5 15       		.uleb128 0x15
 1720 09d6 11030000 		.4byte	.LASF170
 1721 09da 1F01     		.2byte	0x11f
 1722 09dc 79040000 		.4byte	0x479
 1723 09e0 00000000 		.4byte	.LFB151
 1724 09e4 22000000 		.4byte	.LFE151-.LFB151
 1725 09e8 01       		.uleb128 0x1
 1726 09e9 9C       		.byte	0x9c
 1727 09ea 7A0A0000 		.4byte	0xa7a
 1728 09ee 08       		.uleb128 0x8
 1729 09ef 4C080000 		.4byte	.LASF167
 1730 09f3 1F01     		.2byte	0x11f
 1731 09f5 3D       		.byte	0x3d
 1732 09f6 2E090000 		.4byte	0x92e
 1733 09fa 69000000 		.4byte	.LLST29
 1734 09fe 65000000 		.4byte	.LVUS29
 1735 0a02 08       		.uleb128 0x8
 1736 0a03 88030000 		.4byte	.LASF123
 1737 0a07 2001     		.2byte	0x120
 1738 0a09 32       		.byte	0x32
 1739 0a0a 06010000 		.4byte	0x106
 1740 0a0e 82000000 		.4byte	.LLST30
 1741 0a12 7C000000 		.4byte	.LVUS30
 1742 0a16 08       		.uleb128 0x8
 1743 0a17 E0080000 		.4byte	.LASF124
 1744 0a1b 2101     		.2byte	0x121
 1745 0a1d 32       		.byte	0x32
 1746 0a1e AD000000 		.4byte	0xad
 1747 0a22 9F000000 		.4byte	.LLST31
 1748 0a26 9B000000 		.4byte	.LVUS31
 1749 0a2a 08       		.uleb128 0x8
 1750 0a2b 2A040000 		.4byte	.LASF168
 1751 0a2f 2201     		.2byte	0x122
 1752 0a31 31       		.byte	0x31
 1753 0a32 90000000 		.4byte	0x90
 1754 0a36 B6000000 		.4byte	.LLST32
 1755 0a3a B2000000 		.4byte	.LVUS32
 1756 0a3e 0A       		.uleb128 0xa
 1757 0a3f 1C000000 		.4byte	.LVL42
 1758 0a43 F5080000 		.4byte	0x8f5
 1759 0a47 02       		.uleb128 0x2
 1760 0a48 01       		.uleb128 0x1
 1761 0a49 50       		.byte	0x50
 1762 0a4a 03       		.uleb128 0x3
 1763 0a4b A3       		.byte	0xa3
 1764 0a4c 01       		.uleb128 0x1
 1765 0a4d 50       		.byte	0x50
 1766 0a4e 02       		.uleb128 0x2
 1767 0a4f 01       		.uleb128 0x1
ARM GAS  C:\Users\DEVELO~1\AppData\Local\Temp\ccBPZKTw.s 			page 32


 1768 0a50 52       		.byte	0x52
 1769 0a51 02       		.uleb128 0x2
 1770 0a52 75       		.byte	0x75
 1771 0a53 00       		.sleb128 0
 1772 0a54 02       		.uleb128 0x2
 1773 0a55 01       		.uleb128 0x1
 1774 0a56 53       		.byte	0x53
 1775 0a57 02       		.uleb128 0x2
 1776 0a58 75       		.byte	0x75
 1777 0a59 00       		.sleb128 0
 1778 0a5a 02       		.uleb128 0x2
 1779 0a5b 02       		.uleb128 0x2
 1780 0a5c 7D       		.byte	0x7d
 1781 0a5d 00       		.sleb128 0
 1782 0a5e 02       		.uleb128 0x2
 1783 0a5f 75       		.byte	0x75
 1784 0a60 00       		.sleb128 0
 1785 0a61 02       		.uleb128 0x2
 1786 0a62 02       		.uleb128 0x2
 1787 0a63 7D       		.byte	0x7d
 1788 0a64 04       		.sleb128 4
 1789 0a65 03       		.uleb128 0x3
 1790 0a66 A3       		.byte	0xa3
 1791 0a67 01       		.uleb128 0x1
 1792 0a68 51       		.byte	0x51
 1793 0a69 02       		.uleb128 0x2
 1794 0a6a 02       		.uleb128 0x2
 1795 0a6b 7D       		.byte	0x7d
 1796 0a6c 08       		.sleb128 8
 1797 0a6d 03       		.uleb128 0x3
 1798 0a6e A3       		.byte	0xa3
 1799 0a6f 01       		.uleb128 0x1
 1800 0a70 52       		.byte	0x52
 1801 0a71 02       		.uleb128 0x2
 1802 0a72 02       		.uleb128 0x2
 1803 0a73 7D       		.byte	0x7d
 1804 0a74 0C       		.sleb128 12
 1805 0a75 02       		.uleb128 0x2
 1806 0a76 74       		.byte	0x74
 1807 0a77 00       		.sleb128 0
 1808 0a78 00       		.byte	0
 1809 0a79 00       		.byte	0
 1810 0a7a 15       		.uleb128 0x15
 1811 0a7b F2030000 		.4byte	.LASF171
 1812 0a7f 0501     		.2byte	0x105
 1813 0a81 79040000 		.4byte	0x479
 1814 0a85 00000000 		.4byte	.LFB150
 1815 0a89 20000000 		.4byte	.LFE150-.LFB150
 1816 0a8d 01       		.uleb128 0x1
 1817 0a8e 9C       		.byte	0x9c
 1818 0a8f 160B0000 		.4byte	0xb16
 1819 0a93 08       		.uleb128 0x8
 1820 0a94 4C080000 		.4byte	.LASF167
 1821 0a98 0501     		.2byte	0x105
 1822 0a9a 3F       		.byte	0x3f
 1823 0a9b 2E090000 		.4byte	0x92e
 1824 0a9f CD000000 		.4byte	.LLST25
ARM GAS  C:\Users\DEVELO~1\AppData\Local\Temp\ccBPZKTw.s 			page 33


 1825 0aa3 C9000000 		.4byte	.LVUS25
 1826 0aa7 08       		.uleb128 0x8
 1827 0aa8 88030000 		.4byte	.LASF123
 1828 0aac 0601     		.2byte	0x106
 1829 0aae 34       		.byte	0x34
 1830 0aaf 06010000 		.4byte	0x106
 1831 0ab3 E6000000 		.4byte	.LLST26
 1832 0ab7 E0000000 		.4byte	.LVUS26
 1833 0abb 08       		.uleb128 0x8
 1834 0abc E0080000 		.4byte	.LASF124
 1835 0ac0 0701     		.2byte	0x107
 1836 0ac2 33       		.byte	0x33
 1837 0ac3 90000000 		.4byte	0x90
 1838 0ac7 03010000 		.4byte	.LLST27
 1839 0acb FF000000 		.4byte	.LVUS27
 1840 0acf 08       		.uleb128 0x8
 1841 0ad0 2A040000 		.4byte	.LASF168
 1842 0ad4 0801     		.2byte	0x108
 1843 0ad6 33       		.byte	0x33
 1844 0ad7 90000000 		.4byte	0x90
 1845 0adb 1A010000 		.4byte	.LLST28
 1846 0adf 16010000 		.4byte	.LVUS28
 1847 0ae3 0A       		.uleb128 0xa
 1848 0ae4 1A000000 		.4byte	.LVL37
 1849 0ae8 F5080000 		.4byte	0x8f5
 1850 0aec 02       		.uleb128 0x2
 1851 0aed 01       		.uleb128 0x1
 1852 0aee 50       		.byte	0x50
 1853 0aef 03       		.uleb128 0x3
 1854 0af0 A3       		.byte	0xa3
 1855 0af1 01       		.uleb128 0x1
 1856 0af2 50       		.byte	0x50
 1857 0af3 02       		.uleb128 0x2
 1858 0af4 01       		.uleb128 0x1
 1859 0af5 52       		.byte	0x52
 1860 0af6 02       		.uleb128 0x2
 1861 0af7 74       		.byte	0x74
 1862 0af8 00       		.sleb128 0
 1863 0af9 02       		.uleb128 0x2
 1864 0afa 01       		.uleb128 0x1
 1865 0afb 53       		.byte	0x53
 1866 0afc 01       		.uleb128 0x1
 1867 0afd 33       		.byte	0x33
 1868 0afe 02       		.uleb128 0x2
 1869 0aff 02       		.uleb128 0x2
 1870 0b00 7D       		.byte	0x7d
 1871 0b01 00       		.sleb128 0
 1872 0b02 02       		.uleb128 0x2
 1873 0b03 75       		.byte	0x75
 1874 0b04 00       		.sleb128 0
 1875 0b05 02       		.uleb128 0x2
 1876 0b06 02       		.uleb128 0x2
 1877 0b07 7D       		.byte	0x7d
 1878 0b08 04       		.sleb128 4
 1879 0b09 03       		.uleb128 0x3
 1880 0b0a A3       		.byte	0xa3
 1881 0b0b 01       		.uleb128 0x1
ARM GAS  C:\Users\DEVELO~1\AppData\Local\Temp\ccBPZKTw.s 			page 34


 1882 0b0c 51       		.byte	0x51
 1883 0b0d 02       		.uleb128 0x2
 1884 0b0e 02       		.uleb128 0x2
 1885 0b0f 7D       		.byte	0x7d
 1886 0b10 0C       		.sleb128 12
 1887 0b11 02       		.uleb128 0x2
 1888 0b12 74       		.byte	0x74
 1889 0b13 00       		.sleb128 0
 1890 0b14 00       		.byte	0
 1891 0b15 00       		.byte	0
 1892 0b16 11       		.uleb128 0x11
 1893 0b17 85090000 		.4byte	.LASF172
 1894 0b1b EB       		.byte	0xeb
 1895 0b1c 79040000 		.4byte	0x479
 1896 0b20 00000000 		.4byte	.LFB149
 1897 0b24 20000000 		.4byte	.LFE149-.LFB149
 1898 0b28 01       		.uleb128 0x1
 1899 0b29 9C       		.byte	0x9c
 1900 0b2a AA0B0000 		.4byte	0xbaa
 1901 0b2e 04       		.uleb128 0x4
 1902 0b2f 4C080000 		.4byte	.LASF167
 1903 0b33 EB       		.byte	0xeb
 1904 0b34 42       		.byte	0x42
 1905 0b35 2E090000 		.4byte	0x92e
 1906 0b39 31010000 		.4byte	.LLST21
 1907 0b3d 2D010000 		.4byte	.LVUS21
 1908 0b41 04       		.uleb128 0x4
 1909 0b42 88030000 		.4byte	.LASF123
 1910 0b46 EC       		.byte	0xec
 1911 0b47 37       		.byte	0x37
 1912 0b48 06010000 		.4byte	0x106
 1913 0b4c 48010000 		.4byte	.LLST22
 1914 0b50 44010000 		.4byte	.LVUS22
 1915 0b54 04       		.uleb128 0x4
 1916 0b55 E0080000 		.4byte	.LASF124
 1917 0b59 ED       		.byte	0xed
 1918 0b5a 36       		.byte	0x36
 1919 0b5b 90000000 		.4byte	0x90
 1920 0b5f 5C010000 		.4byte	.LLST23
 1921 0b63 58010000 		.4byte	.LVUS23
 1922 0b67 04       		.uleb128 0x4
 1923 0b68 2A040000 		.4byte	.LASF168
 1924 0b6c EE       		.byte	0xee
 1925 0b6d 36       		.byte	0x36
 1926 0b6e 90000000 		.4byte	0x90
 1927 0b72 73010000 		.4byte	.LLST24
 1928 0b76 6F010000 		.4byte	.LVUS24
 1929 0b7a 0A       		.uleb128 0xa
 1930 0b7b 1A000000 		.4byte	.LVL32
 1931 0b7f F5080000 		.4byte	0x8f5
 1932 0b83 02       		.uleb128 0x2
 1933 0b84 01       		.uleb128 0x1
 1934 0b85 50       		.byte	0x50
 1935 0b86 03       		.uleb128 0x3
 1936 0b87 A3       		.byte	0xa3
 1937 0b88 01       		.uleb128 0x1
 1938 0b89 50       		.byte	0x50
ARM GAS  C:\Users\DEVELO~1\AppData\Local\Temp\ccBPZKTw.s 			page 35


 1939 0b8a 02       		.uleb128 0x2
 1940 0b8b 01       		.uleb128 0x1
 1941 0b8c 52       		.byte	0x52
 1942 0b8d 01       		.uleb128 0x1
 1943 0b8e 31       		.byte	0x31
 1944 0b8f 02       		.uleb128 0x2
 1945 0b90 01       		.uleb128 0x1
 1946 0b91 53       		.byte	0x53
 1947 0b92 01       		.uleb128 0x1
 1948 0b93 33       		.byte	0x33
 1949 0b94 02       		.uleb128 0x2
 1950 0b95 02       		.uleb128 0x2
 1951 0b96 7D       		.byte	0x7d
 1952 0b97 00       		.sleb128 0
 1953 0b98 01       		.uleb128 0x1
 1954 0b99 31       		.byte	0x31
 1955 0b9a 02       		.uleb128 0x2
 1956 0b9b 02       		.uleb128 0x2
 1957 0b9c 7D       		.byte	0x7d
 1958 0b9d 04       		.sleb128 4
 1959 0b9e 02       		.uleb128 0x2
 1960 0b9f 75       		.byte	0x75
 1961 0ba0 00       		.sleb128 0
 1962 0ba1 02       		.uleb128 0x2
 1963 0ba2 02       		.uleb128 0x2
 1964 0ba3 7D       		.byte	0x7d
 1965 0ba4 0C       		.sleb128 12
 1966 0ba5 02       		.uleb128 0x2
 1967 0ba6 74       		.byte	0x74
 1968 0ba7 00       		.sleb128 0
 1969 0ba8 00       		.byte	0
 1970 0ba9 00       		.byte	0
 1971 0baa 11       		.uleb128 0x11
 1972 0bab 89080000 		.4byte	.LASF173
 1973 0baf D1       		.byte	0xd1
 1974 0bb0 79040000 		.4byte	0x479
 1975 0bb4 00000000 		.4byte	.LFB148
 1976 0bb8 20000000 		.4byte	.LFE148-.LFB148
 1977 0bbc 01       		.uleb128 0x1
 1978 0bbd 9C       		.byte	0x9c
 1979 0bbe 3E0C0000 		.4byte	0xc3e
 1980 0bc2 04       		.uleb128 0x4
 1981 0bc3 4C080000 		.4byte	.LASF167
 1982 0bc7 D1       		.byte	0xd1
 1983 0bc8 3D       		.byte	0x3d
 1984 0bc9 2E090000 		.4byte	0x92e
 1985 0bcd 8A010000 		.4byte	.LLST17
 1986 0bd1 86010000 		.4byte	.LVUS17
 1987 0bd5 04       		.uleb128 0x4
 1988 0bd6 88030000 		.4byte	.LASF123
 1989 0bda D2       		.byte	0xd2
 1990 0bdb 32       		.byte	0x32
 1991 0bdc 06010000 		.4byte	0x106
 1992 0be0 A1010000 		.4byte	.LLST18
 1993 0be4 9D010000 		.4byte	.LVUS18
 1994 0be8 04       		.uleb128 0x4
 1995 0be9 E0080000 		.4byte	.LASF124
ARM GAS  C:\Users\DEVELO~1\AppData\Local\Temp\ccBPZKTw.s 			page 36


 1996 0bed D3       		.byte	0xd3
 1997 0bee 32       		.byte	0x32
 1998 0bef A1000000 		.4byte	0xa1
 1999 0bf3 B5010000 		.4byte	.LLST19
 2000 0bf7 B1010000 		.4byte	.LVUS19
 2001 0bfb 04       		.uleb128 0x4
 2002 0bfc 2A040000 		.4byte	.LASF168
 2003 0c00 D4       		.byte	0xd4
 2004 0c01 31       		.byte	0x31
 2005 0c02 90000000 		.4byte	0x90
 2006 0c06 CC010000 		.4byte	.LLST20
 2007 0c0a C8010000 		.4byte	.LVUS20
 2008 0c0e 0A       		.uleb128 0xa
 2009 0c0f 1A000000 		.4byte	.LVL27
 2010 0c13 F5080000 		.4byte	0x8f5
 2011 0c17 02       		.uleb128 0x2
 2012 0c18 01       		.uleb128 0x1
 2013 0c19 50       		.byte	0x50
 2014 0c1a 03       		.uleb128 0x3
 2015 0c1b A3       		.byte	0xa3
 2016 0c1c 01       		.uleb128 0x1
 2017 0c1d 50       		.byte	0x50
 2018 0c1e 02       		.uleb128 0x2
 2019 0c1f 01       		.uleb128 0x1
 2020 0c20 52       		.byte	0x52
 2021 0c21 01       		.uleb128 0x1
 2022 0c22 31       		.byte	0x31
 2023 0c23 02       		.uleb128 0x2
 2024 0c24 01       		.uleb128 0x1
 2025 0c25 53       		.byte	0x53
 2026 0c26 01       		.uleb128 0x1
 2027 0c27 32       		.byte	0x32
 2028 0c28 02       		.uleb128 0x2
 2029 0c29 02       		.uleb128 0x2
 2030 0c2a 7D       		.byte	0x7d
 2031 0c2b 00       		.sleb128 0
 2032 0c2c 01       		.uleb128 0x1
 2033 0c2d 31       		.byte	0x31
 2034 0c2e 02       		.uleb128 0x2
 2035 0c2f 02       		.uleb128 0x2
 2036 0c30 7D       		.byte	0x7d
 2037 0c31 04       		.sleb128 4
 2038 0c32 02       		.uleb128 0x2
 2039 0c33 75       		.byte	0x75
 2040 0c34 00       		.sleb128 0
 2041 0c35 02       		.uleb128 0x2
 2042 0c36 02       		.uleb128 0x2
 2043 0c37 7D       		.byte	0x7d
 2044 0c38 0C       		.sleb128 12
 2045 0c39 02       		.uleb128 0x2
 2046 0c3a 74       		.byte	0x74
 2047 0c3b 00       		.sleb128 0
 2048 0c3c 00       		.byte	0
 2049 0c3d 00       		.byte	0
 2050 0c3e 11       		.uleb128 0x11
 2051 0c3f EC090000 		.4byte	.LASF174
 2052 0c43 B1       		.byte	0xb1
ARM GAS  C:\Users\DEVELO~1\AppData\Local\Temp\ccBPZKTw.s 			page 37


 2053 0c44 79040000 		.4byte	0x479
 2054 0c48 00000000 		.4byte	.LFB147
 2055 0c4c 34000000 		.4byte	.LFE147-.LFB147
 2056 0c50 01       		.uleb128 0x1
 2057 0c51 9C       		.byte	0x9c
 2058 0c52 E60C0000 		.4byte	0xce6
 2059 0c56 04       		.uleb128 0x4
 2060 0c57 4C080000 		.4byte	.LASF167
 2061 0c5b B1       		.byte	0xb1
 2062 0c5c 3A       		.byte	0x3a
 2063 0c5d 2E090000 		.4byte	0x92e
 2064 0c61 E3010000 		.4byte	.LLST12
 2065 0c65 DF010000 		.4byte	.LVUS12
 2066 0c69 04       		.uleb128 0x4
 2067 0c6a 88030000 		.4byte	.LASF123
 2068 0c6e B2       		.byte	0xb2
 2069 0c6f 2F       		.byte	0x2f
 2070 0c70 06010000 		.4byte	0x106
 2071 0c74 FE010000 		.4byte	.LLST13
 2072 0c78 F6010000 		.4byte	.LVUS13
 2073 0c7c 04       		.uleb128 0x4
 2074 0c7d E0080000 		.4byte	.LASF124
 2075 0c81 B3       		.byte	0xb3
 2076 0c82 2F       		.byte	0x2f
 2077 0c83 A1000000 		.4byte	0xa1
 2078 0c87 20020000 		.4byte	.LLST14
 2079 0c8b 1C020000 		.4byte	.LVUS14
 2080 0c8f 04       		.uleb128 0x4
 2081 0c90 2A040000 		.4byte	.LASF168
 2082 0c94 B4       		.byte	0xb4
 2083 0c95 2E       		.byte	0x2e
 2084 0c96 90000000 		.4byte	0x90
 2085 0c9a 37020000 		.4byte	.LLST15
 2086 0c9e 33020000 		.4byte	.LVUS15
 2087 0ca2 04       		.uleb128 0x4
 2088 0ca3 85040000 		.4byte	.LASF175
 2089 0ca7 B5       		.byte	0xb5
 2090 0ca8 2E       		.byte	0x2e
 2091 0ca9 90000000 		.4byte	0x90
 2092 0cad 4E020000 		.4byte	.LLST16
 2093 0cb1 4A020000 		.4byte	.LVUS16
 2094 0cb5 0A       		.uleb128 0xa
 2095 0cb6 2E000000 		.4byte	.LVL22
 2096 0cba F5080000 		.4byte	0x8f5
 2097 0cbe 02       		.uleb128 0x2
 2098 0cbf 01       		.uleb128 0x1
 2099 0cc0 50       		.byte	0x50
 2100 0cc1 03       		.uleb128 0x3
 2101 0cc2 A3       		.byte	0xa3
 2102 0cc3 01       		.uleb128 0x1
 2103 0cc4 50       		.byte	0x50
 2104 0cc5 02       		.uleb128 0x2
 2105 0cc6 01       		.uleb128 0x1
 2106 0cc7 52       		.byte	0x52
 2107 0cc8 01       		.uleb128 0x1
 2108 0cc9 30       		.byte	0x30
 2109 0cca 02       		.uleb128 0x2
ARM GAS  C:\Users\DEVELO~1\AppData\Local\Temp\ccBPZKTw.s 			page 38


 2110 0ccb 01       		.uleb128 0x1
 2111 0ccc 53       		.byte	0x53
 2112 0ccd 01       		.uleb128 0x1
 2113 0cce 32       		.byte	0x32
 2114 0ccf 02       		.uleb128 0x2
 2115 0cd0 02       		.uleb128 0x2
 2116 0cd1 7D       		.byte	0x7d
 2117 0cd2 00       		.sleb128 0
 2118 0cd3 01       		.uleb128 0x1
 2119 0cd4 31       		.byte	0x31
 2120 0cd5 02       		.uleb128 0x2
 2121 0cd6 02       		.uleb128 0x2
 2122 0cd7 7D       		.byte	0x7d
 2123 0cd8 04       		.sleb128 4
 2124 0cd9 03       		.uleb128 0x3
 2125 0cda A3       		.byte	0xa3
 2126 0cdb 01       		.uleb128 0x1
 2127 0cdc 51       		.byte	0x51
 2128 0cdd 02       		.uleb128 0x2
 2129 0cde 02       		.uleb128 0x2
 2130 0cdf 7D       		.byte	0x7d
 2131 0ce0 0C       		.sleb128 12
 2132 0ce1 02       		.uleb128 0x2
 2133 0ce2 74       		.byte	0x74
 2134 0ce3 00       		.sleb128 0
 2135 0ce4 00       		.byte	0
 2136 0ce5 00       		.byte	0
 2137 0ce6 11       		.uleb128 0x11
 2138 0ce7 74030000 		.4byte	.LASF176
 2139 0ceb 96       		.byte	0x96
 2140 0cec 79040000 		.4byte	0x479
 2141 0cf0 00000000 		.4byte	.LFB146
 2142 0cf4 20000000 		.4byte	.LFE146-.LFB146
 2143 0cf8 01       		.uleb128 0x1
 2144 0cf9 9C       		.byte	0x9c
 2145 0cfa 7E0D0000 		.4byte	0xd7e
 2146 0cfe 04       		.uleb128 0x4
 2147 0cff 4C080000 		.4byte	.LASF167
 2148 0d03 96       		.byte	0x96
 2149 0d04 3C       		.byte	0x3c
 2150 0d05 2E090000 		.4byte	0x92e
 2151 0d09 63020000 		.4byte	.LLST8
 2152 0d0d 5F020000 		.4byte	.LVUS8
 2153 0d11 04       		.uleb128 0x4
 2154 0d12 88030000 		.4byte	.LASF123
 2155 0d16 97       		.byte	0x97
 2156 0d17 31       		.byte	0x31
 2157 0d18 06010000 		.4byte	0x106
 2158 0d1c 7C020000 		.4byte	.LLST9
 2159 0d20 76020000 		.4byte	.LVUS9
 2160 0d24 04       		.uleb128 0x4
 2161 0d25 E0080000 		.4byte	.LASF124
 2162 0d29 98       		.byte	0x98
 2163 0d2a 31       		.byte	0x31
 2164 0d2b A1000000 		.4byte	0xa1
 2165 0d2f 99020000 		.4byte	.LLST10
 2166 0d33 95020000 		.4byte	.LVUS10
ARM GAS  C:\Users\DEVELO~1\AppData\Local\Temp\ccBPZKTw.s 			page 39


 2167 0d37 04       		.uleb128 0x4
 2168 0d38 2A040000 		.4byte	.LASF168
 2169 0d3c 99       		.byte	0x99
 2170 0d3d 30       		.byte	0x30
 2171 0d3e 90000000 		.4byte	0x90
 2172 0d42 B0020000 		.4byte	.LLST11
 2173 0d46 AC020000 		.4byte	.LVUS11
 2174 0d4a 0A       		.uleb128 0xa
 2175 0d4b 1A000000 		.4byte	.LVL15
 2176 0d4f F5080000 		.4byte	0x8f5
 2177 0d53 02       		.uleb128 0x2
 2178 0d54 01       		.uleb128 0x1
 2179 0d55 50       		.byte	0x50
 2180 0d56 03       		.uleb128 0x3
 2181 0d57 A3       		.byte	0xa3
 2182 0d58 01       		.uleb128 0x1
 2183 0d59 50       		.byte	0x50
 2184 0d5a 02       		.uleb128 0x2
 2185 0d5b 01       		.uleb128 0x1
 2186 0d5c 52       		.byte	0x52
 2187 0d5d 02       		.uleb128 0x2
 2188 0d5e 75       		.byte	0x75
 2189 0d5f 00       		.sleb128 0
 2190 0d60 02       		.uleb128 0x2
 2191 0d61 01       		.uleb128 0x1
 2192 0d62 53       		.byte	0x53
 2193 0d63 02       		.uleb128 0x2
 2194 0d64 74       		.byte	0x74
 2195 0d65 00       		.sleb128 0
 2196 0d66 02       		.uleb128 0x2
 2197 0d67 02       		.uleb128 0x2
 2198 0d68 7D       		.byte	0x7d
 2199 0d69 00       		.sleb128 0
 2200 0d6a 02       		.uleb128 0x2
 2201 0d6b 75       		.byte	0x75
 2202 0d6c 00       		.sleb128 0
 2203 0d6d 02       		.uleb128 0x2
 2204 0d6e 02       		.uleb128 0x2
 2205 0d6f 7D       		.byte	0x7d
 2206 0d70 04       		.sleb128 4
 2207 0d71 03       		.uleb128 0x3
 2208 0d72 A3       		.byte	0xa3
 2209 0d73 01       		.uleb128 0x1
 2210 0d74 51       		.byte	0x51
 2211 0d75 02       		.uleb128 0x2
 2212 0d76 02       		.uleb128 0x2
 2213 0d77 7D       		.byte	0x7d
 2214 0d78 0C       		.sleb128 12
 2215 0d79 02       		.uleb128 0x2
 2216 0d7a 74       		.byte	0x74
 2217 0d7b 00       		.sleb128 0
 2218 0d7c 00       		.byte	0
 2219 0d7d 00       		.byte	0
 2220 0d7e 11       		.uleb128 0x11
 2221 0d7f 4A050000 		.4byte	.LASF177
 2222 0d83 75       		.byte	0x75
 2223 0d84 79040000 		.4byte	0x479
ARM GAS  C:\Users\DEVELO~1\AppData\Local\Temp\ccBPZKTw.s 			page 40


 2224 0d88 00000000 		.4byte	.LFB145
 2225 0d8c 32000000 		.4byte	.LFE145-.LFB145
 2226 0d90 01       		.uleb128 0x1
 2227 0d91 9C       		.byte	0x9c
 2228 0d92 260E0000 		.4byte	0xe26
 2229 0d96 04       		.uleb128 0x4
 2230 0d97 4C080000 		.4byte	.LASF167
 2231 0d9b 75       		.byte	0x75
 2232 0d9c 39       		.byte	0x39
 2233 0d9d 2E090000 		.4byte	0x92e
 2234 0da1 C7020000 		.4byte	.LLST3
 2235 0da5 C3020000 		.4byte	.LVUS3
 2236 0da9 04       		.uleb128 0x4
 2237 0daa 88030000 		.4byte	.LASF123
 2238 0dae 76       		.byte	0x76
 2239 0daf 2E       		.byte	0x2e
 2240 0db0 06010000 		.4byte	0x106
 2241 0db4 E2020000 		.4byte	.LLST4
 2242 0db8 DA020000 		.4byte	.LVUS4
 2243 0dbc 04       		.uleb128 0x4
 2244 0dbd E0080000 		.4byte	.LASF124
 2245 0dc1 77       		.byte	0x77
 2246 0dc2 2E       		.byte	0x2e
 2247 0dc3 A1000000 		.4byte	0xa1
 2248 0dc7 04030000 		.4byte	.LLST5
 2249 0dcb 00030000 		.4byte	.LVUS5
 2250 0dcf 04       		.uleb128 0x4
 2251 0dd0 2A040000 		.4byte	.LASF168
 2252 0dd4 78       		.byte	0x78
 2253 0dd5 2D       		.byte	0x2d
 2254 0dd6 90000000 		.4byte	0x90
 2255 0dda 1B030000 		.4byte	.LLST6
 2256 0dde 17030000 		.4byte	.LVUS6
 2257 0de2 04       		.uleb128 0x4
 2258 0de3 85040000 		.4byte	.LASF175
 2259 0de7 79       		.byte	0x79
 2260 0de8 2D       		.byte	0x2d
 2261 0de9 90000000 		.4byte	0x90
 2262 0ded 32030000 		.4byte	.LLST7
 2263 0df1 2E030000 		.4byte	.LVUS7
 2264 0df5 0A       		.uleb128 0xa
 2265 0df6 2C000000 		.4byte	.LVL10
 2266 0dfa F5080000 		.4byte	0x8f5
 2267 0dfe 02       		.uleb128 0x2
 2268 0dff 01       		.uleb128 0x1
 2269 0e00 50       		.byte	0x50
 2270 0e01 03       		.uleb128 0x3
 2271 0e02 A3       		.byte	0xa3
 2272 0e03 01       		.uleb128 0x1
 2273 0e04 50       		.byte	0x50
 2274 0e05 02       		.uleb128 0x2
 2275 0e06 01       		.uleb128 0x1
 2276 0e07 52       		.byte	0x52
 2277 0e08 01       		.uleb128 0x1
 2278 0e09 30       		.byte	0x30
 2279 0e0a 02       		.uleb128 0x2
 2280 0e0b 01       		.uleb128 0x1
ARM GAS  C:\Users\DEVELO~1\AppData\Local\Temp\ccBPZKTw.s 			page 41


 2281 0e0c 53       		.byte	0x53
 2282 0e0d 01       		.uleb128 0x1
 2283 0e0e 30       		.byte	0x30
 2284 0e0f 02       		.uleb128 0x2
 2285 0e10 02       		.uleb128 0x2
 2286 0e11 7D       		.byte	0x7d
 2287 0e12 00       		.sleb128 0
 2288 0e13 01       		.uleb128 0x1
 2289 0e14 31       		.byte	0x31
 2290 0e15 02       		.uleb128 0x2
 2291 0e16 02       		.uleb128 0x2
 2292 0e17 7D       		.byte	0x7d
 2293 0e18 04       		.sleb128 4
 2294 0e19 03       		.uleb128 0x3
 2295 0e1a A3       		.byte	0xa3
 2296 0e1b 01       		.uleb128 0x1
 2297 0e1c 51       		.byte	0x51
 2298 0e1d 02       		.uleb128 0x2
 2299 0e1e 02       		.uleb128 0x2
 2300 0e1f 7D       		.byte	0x7d
 2301 0e20 0C       		.sleb128 12
 2302 0e21 02       		.uleb128 0x2
 2303 0e22 74       		.byte	0x74
 2304 0e23 00       		.sleb128 0
 2305 0e24 00       		.byte	0
 2306 0e25 00       		.byte	0
 2307 0e26 27       		.uleb128 0x27
 2308 0e27 0C0A0000 		.4byte	.LASF183
 2309 0e2b 01       		.byte	0x1
 2310 0e2c 5B       		.byte	0x5b
 2311 0e2d 14       		.byte	0x14
 2312 0e2e 79040000 		.4byte	0x479
 2313 0e32 00000000 		.4byte	.LFB144
 2314 0e36 20000000 		.4byte	.LFE144-.LFB144
 2315 0e3a 01       		.uleb128 0x1
 2316 0e3b 9C       		.byte	0x9c
 2317 0e3c 04       		.uleb128 0x4
 2318 0e3d 4C080000 		.4byte	.LASF167
 2319 0e41 5B       		.byte	0x5b
 2320 0e42 3A       		.byte	0x3a
 2321 0e43 2E090000 		.4byte	0x92e
 2322 0e47 47030000 		.4byte	.LLST0
 2323 0e4b 43030000 		.4byte	.LVUS0
 2324 0e4f 04       		.uleb128 0x4
 2325 0e50 88030000 		.4byte	.LASF123
 2326 0e54 5C       		.byte	0x5c
 2327 0e55 2F       		.byte	0x2f
 2328 0e56 06010000 		.4byte	0x106
 2329 0e5a 60030000 		.4byte	.LLST1
 2330 0e5e 5A030000 		.4byte	.LVUS1
 2331 0e62 04       		.uleb128 0x4
 2332 0e63 2A040000 		.4byte	.LASF168
 2333 0e67 5D       		.byte	0x5d
 2334 0e68 2E       		.byte	0x2e
 2335 0e69 90000000 		.4byte	0x90
 2336 0e6d 7D030000 		.4byte	.LLST2
 2337 0e71 79030000 		.4byte	.LVUS2
ARM GAS  C:\Users\DEVELO~1\AppData\Local\Temp\ccBPZKTw.s 			page 42


 2338 0e75 0A       		.uleb128 0xa
 2339 0e76 1A000000 		.4byte	.LVL3
 2340 0e7a F5080000 		.4byte	0x8f5
 2341 0e7e 02       		.uleb128 0x2
 2342 0e7f 01       		.uleb128 0x1
 2343 0e80 50       		.byte	0x50
 2344 0e81 03       		.uleb128 0x3
 2345 0e82 A3       		.byte	0xa3
 2346 0e83 01       		.uleb128 0x1
 2347 0e84 50       		.byte	0x50
 2348 0e85 02       		.uleb128 0x2
 2349 0e86 01       		.uleb128 0x1
 2350 0e87 52       		.byte	0x52
 2351 0e88 02       		.uleb128 0x2
 2352 0e89 74       		.byte	0x74
 2353 0e8a 00       		.sleb128 0
 2354 0e8b 02       		.uleb128 0x2
 2355 0e8c 01       		.uleb128 0x1
 2356 0e8d 53       		.byte	0x53
 2357 0e8e 02       		.uleb128 0x2
 2358 0e8f 74       		.byte	0x74
 2359 0e90 00       		.sleb128 0
 2360 0e91 02       		.uleb128 0x2
 2361 0e92 02       		.uleb128 0x2
 2362 0e93 7D       		.byte	0x7d
 2363 0e94 00       		.sleb128 0
 2364 0e95 02       		.uleb128 0x2
 2365 0e96 74       		.byte	0x74
 2366 0e97 00       		.sleb128 0
 2367 0e98 02       		.uleb128 0x2
 2368 0e99 02       		.uleb128 0x2
 2369 0e9a 7D       		.byte	0x7d
 2370 0e9b 04       		.sleb128 4
 2371 0e9c 03       		.uleb128 0x3
 2372 0e9d A3       		.byte	0xa3
 2373 0e9e 01       		.uleb128 0x1
 2374 0e9f 51       		.byte	0x51
 2375 0ea0 02       		.uleb128 0x2
 2376 0ea1 02       		.uleb128 0x2
 2377 0ea2 7D       		.byte	0x7d
 2378 0ea3 08       		.sleb128 8
 2379 0ea4 02       		.uleb128 0x2
 2380 0ea5 75       		.byte	0x75
 2381 0ea6 00       		.sleb128 0
 2382 0ea7 02       		.uleb128 0x2
 2383 0ea8 02       		.uleb128 0x2
 2384 0ea9 7D       		.byte	0x7d
 2385 0eaa 0C       		.sleb128 12
 2386 0eab 02       		.uleb128 0x2
 2387 0eac 74       		.byte	0x74
 2388 0ead 00       		.sleb128 0
 2389 0eae 00       		.byte	0
 2390 0eaf 00       		.byte	0
 2391 0eb0 00       		.byte	0
 2392              		.section	.debug_abbrev,"",%progbits
 2393              	.Ldebug_abbrev0:
 2394 0000 01       		.uleb128 0x1
ARM GAS  C:\Users\DEVELO~1\AppData\Local\Temp\ccBPZKTw.s 			page 43


 2395 0001 0D       		.uleb128 0xd
 2396 0002 00       		.byte	0
 2397 0003 03       		.uleb128 0x3
 2398 0004 0E       		.uleb128 0xe
 2399 0005 3A       		.uleb128 0x3a
 2400 0006 21       		.uleb128 0x21
 2401 0007 04       		.sleb128 4
 2402 0008 3B       		.uleb128 0x3b
 2403 0009 05       		.uleb128 0x5
 2404 000a 39       		.uleb128 0x39
 2405 000b 0B       		.uleb128 0xb
 2406 000c 49       		.uleb128 0x49
 2407 000d 13       		.uleb128 0x13
 2408 000e 38       		.uleb128 0x38
 2409 000f 0B       		.uleb128 0xb
 2410 0010 00       		.byte	0
 2411 0011 00       		.byte	0
 2412 0012 02       		.uleb128 0x2
 2413 0013 49       		.uleb128 0x49
 2414 0014 00       		.byte	0
 2415 0015 02       		.uleb128 0x2
 2416 0016 18       		.uleb128 0x18
 2417 0017 7E       		.uleb128 0x7e
 2418 0018 18       		.uleb128 0x18
 2419 0019 00       		.byte	0
 2420 001a 00       		.byte	0
 2421 001b 03       		.uleb128 0x3
 2422 001c 28       		.uleb128 0x28
 2423 001d 00       		.byte	0
 2424 001e 03       		.uleb128 0x3
 2425 001f 0E       		.uleb128 0xe
 2426 0020 1C       		.uleb128 0x1c
 2427 0021 0B       		.uleb128 0xb
 2428 0022 00       		.byte	0
 2429 0023 00       		.byte	0
 2430 0024 04       		.uleb128 0x4
 2431 0025 05       		.uleb128 0x5
 2432 0026 00       		.byte	0
 2433 0027 03       		.uleb128 0x3
 2434 0028 0E       		.uleb128 0xe
 2435 0029 3A       		.uleb128 0x3a
 2436 002a 21       		.uleb128 0x21
 2437 002b 01       		.sleb128 1
 2438 002c 3B       		.uleb128 0x3b
 2439 002d 0B       		.uleb128 0xb
 2440 002e 39       		.uleb128 0x39
 2441 002f 0B       		.uleb128 0xb
 2442 0030 49       		.uleb128 0x49
 2443 0031 13       		.uleb128 0x13
 2444 0032 02       		.uleb128 0x2
 2445 0033 17       		.uleb128 0x17
 2446 0034 B742     		.uleb128 0x2137
 2447 0036 17       		.uleb128 0x17
 2448 0037 00       		.byte	0
 2449 0038 00       		.byte	0
 2450 0039 05       		.uleb128 0x5
 2451 003a 0D       		.uleb128 0xd
ARM GAS  C:\Users\DEVELO~1\AppData\Local\Temp\ccBPZKTw.s 			page 44


 2452 003b 00       		.byte	0
 2453 003c 03       		.uleb128 0x3
 2454 003d 0E       		.uleb128 0xe
 2455 003e 3A       		.uleb128 0x3a
 2456 003f 21       		.uleb128 0x21
 2457 0040 04       		.sleb128 4
 2458 0041 3B       		.uleb128 0x3b
 2459 0042 05       		.uleb128 0x5
 2460 0043 39       		.uleb128 0x39
 2461 0044 0B       		.uleb128 0xb
 2462 0045 49       		.uleb128 0x49
 2463 0046 13       		.uleb128 0x13
 2464 0047 38       		.uleb128 0x38
 2465 0048 05       		.uleb128 0x5
 2466 0049 00       		.byte	0
 2467 004a 00       		.byte	0
 2468 004b 06       		.uleb128 0x6
 2469 004c 24       		.uleb128 0x24
 2470 004d 00       		.byte	0
 2471 004e 0B       		.uleb128 0xb
 2472 004f 0B       		.uleb128 0xb
 2473 0050 3E       		.uleb128 0x3e
 2474 0051 0B       		.uleb128 0xb
 2475 0052 03       		.uleb128 0x3
 2476 0053 0E       		.uleb128 0xe
 2477 0054 00       		.byte	0
 2478 0055 00       		.byte	0
 2479 0056 07       		.uleb128 0x7
 2480 0057 16       		.uleb128 0x16
 2481 0058 00       		.byte	0
 2482 0059 03       		.uleb128 0x3
 2483 005a 0E       		.uleb128 0xe
 2484 005b 3A       		.uleb128 0x3a
 2485 005c 21       		.uleb128 0x21
 2486 005d 04       		.sleb128 4
 2487 005e 3B       		.uleb128 0x3b
 2488 005f 05       		.uleb128 0x5
 2489 0060 39       		.uleb128 0x39
 2490 0061 0B       		.uleb128 0xb
 2491 0062 49       		.uleb128 0x49
 2492 0063 13       		.uleb128 0x13
 2493 0064 00       		.byte	0
 2494 0065 00       		.byte	0
 2495 0066 08       		.uleb128 0x8
 2496 0067 05       		.uleb128 0x5
 2497 0068 00       		.byte	0
 2498 0069 03       		.uleb128 0x3
 2499 006a 0E       		.uleb128 0xe
 2500 006b 3A       		.uleb128 0x3a
 2501 006c 21       		.uleb128 0x21
 2502 006d 01       		.sleb128 1
 2503 006e 3B       		.uleb128 0x3b
 2504 006f 05       		.uleb128 0x5
 2505 0070 39       		.uleb128 0x39
 2506 0071 0B       		.uleb128 0xb
 2507 0072 49       		.uleb128 0x49
 2508 0073 13       		.uleb128 0x13
ARM GAS  C:\Users\DEVELO~1\AppData\Local\Temp\ccBPZKTw.s 			page 45


 2509 0074 02       		.uleb128 0x2
 2510 0075 17       		.uleb128 0x17
 2511 0076 B742     		.uleb128 0x2137
 2512 0078 17       		.uleb128 0x17
 2513 0079 00       		.byte	0
 2514 007a 00       		.byte	0
 2515 007b 09       		.uleb128 0x9
 2516 007c 05       		.uleb128 0x5
 2517 007d 00       		.byte	0
 2518 007e 49       		.uleb128 0x49
 2519 007f 13       		.uleb128 0x13
 2520 0080 00       		.byte	0
 2521 0081 00       		.byte	0
 2522 0082 0A       		.uleb128 0xa
 2523 0083 48       		.uleb128 0x48
 2524 0084 01       		.byte	0x1
 2525 0085 7D       		.uleb128 0x7d
 2526 0086 01       		.uleb128 0x1
 2527 0087 7F       		.uleb128 0x7f
 2528 0088 13       		.uleb128 0x13
 2529 0089 00       		.byte	0
 2530 008a 00       		.byte	0
 2531 008b 0B       		.uleb128 0xb
 2532 008c 16       		.uleb128 0x16
 2533 008d 00       		.byte	0
 2534 008e 03       		.uleb128 0x3
 2535 008f 0E       		.uleb128 0xe
 2536 0090 3A       		.uleb128 0x3a
 2537 0091 0B       		.uleb128 0xb
 2538 0092 3B       		.uleb128 0x3b
 2539 0093 0B       		.uleb128 0xb
 2540 0094 39       		.uleb128 0x39
 2541 0095 0B       		.uleb128 0xb
 2542 0096 49       		.uleb128 0x49
 2543 0097 13       		.uleb128 0x13
 2544 0098 00       		.byte	0
 2545 0099 00       		.byte	0
 2546 009a 0C       		.uleb128 0xc
 2547 009b 0D       		.uleb128 0xd
 2548 009c 00       		.byte	0
 2549 009d 03       		.uleb128 0x3
 2550 009e 0E       		.uleb128 0xe
 2551 009f 3A       		.uleb128 0x3a
 2552 00a0 21       		.uleb128 0x21
 2553 00a1 04       		.sleb128 4
 2554 00a2 3B       		.uleb128 0x3b
 2555 00a3 0B       		.uleb128 0xb
 2556 00a4 39       		.uleb128 0x39
 2557 00a5 0B       		.uleb128 0xb
 2558 00a6 49       		.uleb128 0x49
 2559 00a7 13       		.uleb128 0x13
 2560 00a8 38       		.uleb128 0x38
 2561 00a9 0B       		.uleb128 0xb
 2562 00aa 00       		.byte	0
 2563 00ab 00       		.byte	0
 2564 00ac 0D       		.uleb128 0xd
 2565 00ad 0F       		.uleb128 0xf
ARM GAS  C:\Users\DEVELO~1\AppData\Local\Temp\ccBPZKTw.s 			page 46


 2566 00ae 00       		.byte	0
 2567 00af 0B       		.uleb128 0xb
 2568 00b0 21       		.uleb128 0x21
 2569 00b1 04       		.sleb128 4
 2570 00b2 49       		.uleb128 0x49
 2571 00b3 13       		.uleb128 0x13
 2572 00b4 00       		.byte	0
 2573 00b5 00       		.byte	0
 2574 00b6 0E       		.uleb128 0xe
 2575 00b7 01       		.uleb128 0x1
 2576 00b8 01       		.byte	0x1
 2577 00b9 49       		.uleb128 0x49
 2578 00ba 13       		.uleb128 0x13
 2579 00bb 01       		.uleb128 0x1
 2580 00bc 13       		.uleb128 0x13
 2581 00bd 00       		.byte	0
 2582 00be 00       		.byte	0
 2583 00bf 0F       		.uleb128 0xf
 2584 00c0 04       		.uleb128 0x4
 2585 00c1 01       		.byte	0x1
 2586 00c2 3E       		.uleb128 0x3e
 2587 00c3 21       		.uleb128 0x21
 2588 00c4 07       		.sleb128 7
 2589 00c5 0B       		.uleb128 0xb
 2590 00c6 21       		.uleb128 0x21
 2591 00c7 01       		.sleb128 1
 2592 00c8 49       		.uleb128 0x49
 2593 00c9 13       		.uleb128 0x13
 2594 00ca 3A       		.uleb128 0x3a
 2595 00cb 21       		.uleb128 0x21
 2596 00cc 04       		.sleb128 4
 2597 00cd 3B       		.uleb128 0x3b
 2598 00ce 05       		.uleb128 0x5
 2599 00cf 39       		.uleb128 0x39
 2600 00d0 21       		.uleb128 0x21
 2601 00d1 01       		.sleb128 1
 2602 00d2 01       		.uleb128 0x1
 2603 00d3 13       		.uleb128 0x13
 2604 00d4 00       		.byte	0
 2605 00d5 00       		.byte	0
 2606 00d6 10       		.uleb128 0x10
 2607 00d7 21       		.uleb128 0x21
 2608 00d8 00       		.byte	0
 2609 00d9 49       		.uleb128 0x49
 2610 00da 13       		.uleb128 0x13
 2611 00db 2F       		.uleb128 0x2f
 2612 00dc 0B       		.uleb128 0xb
 2613 00dd 00       		.byte	0
 2614 00de 00       		.byte	0
 2615 00df 11       		.uleb128 0x11
 2616 00e0 2E       		.uleb128 0x2e
 2617 00e1 01       		.byte	0x1
 2618 00e2 3F       		.uleb128 0x3f
 2619 00e3 19       		.uleb128 0x19
 2620 00e4 03       		.uleb128 0x3
 2621 00e5 0E       		.uleb128 0xe
 2622 00e6 3A       		.uleb128 0x3a
ARM GAS  C:\Users\DEVELO~1\AppData\Local\Temp\ccBPZKTw.s 			page 47


 2623 00e7 21       		.uleb128 0x21
 2624 00e8 01       		.sleb128 1
 2625 00e9 3B       		.uleb128 0x3b
 2626 00ea 0B       		.uleb128 0xb
 2627 00eb 39       		.uleb128 0x39
 2628 00ec 21       		.uleb128 0x21
 2629 00ed 14       		.sleb128 20
 2630 00ee 27       		.uleb128 0x27
 2631 00ef 19       		.uleb128 0x19
 2632 00f0 49       		.uleb128 0x49
 2633 00f1 13       		.uleb128 0x13
 2634 00f2 11       		.uleb128 0x11
 2635 00f3 01       		.uleb128 0x1
 2636 00f4 12       		.uleb128 0x12
 2637 00f5 06       		.uleb128 0x6
 2638 00f6 40       		.uleb128 0x40
 2639 00f7 18       		.uleb128 0x18
 2640 00f8 7A       		.uleb128 0x7a
 2641 00f9 19       		.uleb128 0x19
 2642 00fa 01       		.uleb128 0x1
 2643 00fb 13       		.uleb128 0x13
 2644 00fc 00       		.byte	0
 2645 00fd 00       		.byte	0
 2646 00fe 12       		.uleb128 0x12
 2647 00ff 0D       		.uleb128 0xd
 2648 0100 00       		.byte	0
 2649 0101 03       		.uleb128 0x3
 2650 0102 08       		.uleb128 0x8
 2651 0103 3A       		.uleb128 0x3a
 2652 0104 21       		.uleb128 0x21
 2653 0105 04       		.sleb128 4
 2654 0106 3B       		.uleb128 0x3b
 2655 0107 0B       		.uleb128 0xb
 2656 0108 39       		.uleb128 0x39
 2657 0109 0B       		.uleb128 0xb
 2658 010a 49       		.uleb128 0x49
 2659 010b 13       		.uleb128 0x13
 2660 010c 00       		.byte	0
 2661 010d 00       		.byte	0
 2662 010e 13       		.uleb128 0x13
 2663 010f 35       		.uleb128 0x35
 2664 0110 00       		.byte	0
 2665 0111 49       		.uleb128 0x49
 2666 0112 13       		.uleb128 0x13
 2667 0113 00       		.byte	0
 2668 0114 00       		.byte	0
 2669 0115 14       		.uleb128 0x14
 2670 0116 13       		.uleb128 0x13
 2671 0117 01       		.byte	0x1
 2672 0118 03       		.uleb128 0x3
 2673 0119 0E       		.uleb128 0xe
 2674 011a 0B       		.uleb128 0xb
 2675 011b 0B       		.uleb128 0xb
 2676 011c 3A       		.uleb128 0x3a
 2677 011d 21       		.uleb128 0x21
 2678 011e 04       		.sleb128 4
 2679 011f 3B       		.uleb128 0x3b
ARM GAS  C:\Users\DEVELO~1\AppData\Local\Temp\ccBPZKTw.s 			page 48


 2680 0120 05       		.uleb128 0x5
 2681 0121 39       		.uleb128 0x39
 2682 0122 21       		.uleb128 0x21
 2683 0123 10       		.sleb128 16
 2684 0124 01       		.uleb128 0x1
 2685 0125 13       		.uleb128 0x13
 2686 0126 00       		.byte	0
 2687 0127 00       		.byte	0
 2688 0128 15       		.uleb128 0x15
 2689 0129 2E       		.uleb128 0x2e
 2690 012a 01       		.byte	0x1
 2691 012b 3F       		.uleb128 0x3f
 2692 012c 19       		.uleb128 0x19
 2693 012d 03       		.uleb128 0x3
 2694 012e 0E       		.uleb128 0xe
 2695 012f 3A       		.uleb128 0x3a
 2696 0130 21       		.uleb128 0x21
 2697 0131 01       		.sleb128 1
 2698 0132 3B       		.uleb128 0x3b
 2699 0133 05       		.uleb128 0x5
 2700 0134 39       		.uleb128 0x39
 2701 0135 21       		.uleb128 0x21
 2702 0136 14       		.sleb128 20
 2703 0137 27       		.uleb128 0x27
 2704 0138 19       		.uleb128 0x19
 2705 0139 49       		.uleb128 0x49
 2706 013a 13       		.uleb128 0x13
 2707 013b 11       		.uleb128 0x11
 2708 013c 01       		.uleb128 0x1
 2709 013d 12       		.uleb128 0x12
 2710 013e 06       		.uleb128 0x6
 2711 013f 40       		.uleb128 0x40
 2712 0140 18       		.uleb128 0x18
 2713 0141 7A       		.uleb128 0x7a
 2714 0142 19       		.uleb128 0x19
 2715 0143 01       		.uleb128 0x1
 2716 0144 13       		.uleb128 0x13
 2717 0145 00       		.byte	0
 2718 0146 00       		.byte	0
 2719 0147 16       		.uleb128 0x16
 2720 0148 0D       		.uleb128 0xd
 2721 0149 00       		.byte	0
 2722 014a 03       		.uleb128 0x3
 2723 014b 08       		.uleb128 0x8
 2724 014c 3A       		.uleb128 0x3a
 2725 014d 21       		.uleb128 0x21
 2726 014e 04       		.sleb128 4
 2727 014f 3B       		.uleb128 0x3b
 2728 0150 0B       		.uleb128 0xb
 2729 0151 39       		.uleb128 0x39
 2730 0152 21       		.uleb128 0x21
 2731 0153 0D       		.sleb128 13
 2732 0154 49       		.uleb128 0x49
 2733 0155 13       		.uleb128 0x13
 2734 0156 38       		.uleb128 0x38
 2735 0157 0B       		.uleb128 0xb
 2736 0158 00       		.byte	0
ARM GAS  C:\Users\DEVELO~1\AppData\Local\Temp\ccBPZKTw.s 			page 49


 2737 0159 00       		.byte	0
 2738 015a 17       		.uleb128 0x17
 2739 015b 13       		.uleb128 0x13
 2740 015c 01       		.byte	0x1
 2741 015d 03       		.uleb128 0x3
 2742 015e 0E       		.uleb128 0xe
 2743 015f 0B       		.uleb128 0xb
 2744 0160 0B       		.uleb128 0xb
 2745 0161 3A       		.uleb128 0x3a
 2746 0162 21       		.uleb128 0x21
 2747 0163 04       		.sleb128 4
 2748 0164 3B       		.uleb128 0x3b
 2749 0165 0B       		.uleb128 0xb
 2750 0166 39       		.uleb128 0x39
 2751 0167 0B       		.uleb128 0xb
 2752 0168 01       		.uleb128 0x1
 2753 0169 13       		.uleb128 0x13
 2754 016a 00       		.byte	0
 2755 016b 00       		.byte	0
 2756 016c 18       		.uleb128 0x18
 2757 016d 13       		.uleb128 0x13
 2758 016e 01       		.byte	0x1
 2759 016f 0B       		.uleb128 0xb
 2760 0170 0B       		.uleb128 0xb
 2761 0171 3A       		.uleb128 0x3a
 2762 0172 21       		.uleb128 0x21
 2763 0173 04       		.sleb128 4
 2764 0174 3B       		.uleb128 0x3b
 2765 0175 05       		.uleb128 0x5
 2766 0176 39       		.uleb128 0x39
 2767 0177 21       		.uleb128 0x21
 2768 0178 09       		.sleb128 9
 2769 0179 01       		.uleb128 0x1
 2770 017a 13       		.uleb128 0x13
 2771 017b 00       		.byte	0
 2772 017c 00       		.byte	0
 2773 017d 19       		.uleb128 0x19
 2774 017e 11       		.uleb128 0x11
 2775 017f 01       		.byte	0x1
 2776 0180 25       		.uleb128 0x25
 2777 0181 0E       		.uleb128 0xe
 2778 0182 13       		.uleb128 0x13
 2779 0183 0B       		.uleb128 0xb
 2780 0184 03       		.uleb128 0x3
 2781 0185 0E       		.uleb128 0xe
 2782 0186 1B       		.uleb128 0x1b
 2783 0187 0E       		.uleb128 0xe
 2784 0188 55       		.uleb128 0x55
 2785 0189 17       		.uleb128 0x17
 2786 018a 11       		.uleb128 0x11
 2787 018b 01       		.uleb128 0x1
 2788 018c 10       		.uleb128 0x10
 2789 018d 17       		.uleb128 0x17
 2790 018e 00       		.byte	0
 2791 018f 00       		.byte	0
 2792 0190 1A       		.uleb128 0x1a
 2793 0191 24       		.uleb128 0x24
ARM GAS  C:\Users\DEVELO~1\AppData\Local\Temp\ccBPZKTw.s 			page 50


 2794 0192 00       		.byte	0
 2795 0193 0B       		.uleb128 0xb
 2796 0194 0B       		.uleb128 0xb
 2797 0195 3E       		.uleb128 0x3e
 2798 0196 0B       		.uleb128 0xb
 2799 0197 03       		.uleb128 0x3
 2800 0198 08       		.uleb128 0x8
 2801 0199 00       		.byte	0
 2802 019a 00       		.byte	0
 2803 019b 1B       		.uleb128 0x1b
 2804 019c 0F       		.uleb128 0xf
 2805 019d 00       		.byte	0
 2806 019e 0B       		.uleb128 0xb
 2807 019f 0B       		.uleb128 0xb
 2808 01a0 00       		.byte	0
 2809 01a1 00       		.byte	0
 2810 01a2 1C       		.uleb128 0x1c
 2811 01a3 26       		.uleb128 0x26
 2812 01a4 00       		.byte	0
 2813 01a5 49       		.uleb128 0x49
 2814 01a6 13       		.uleb128 0x13
 2815 01a7 00       		.byte	0
 2816 01a8 00       		.byte	0
 2817 01a9 1D       		.uleb128 0x1d
 2818 01aa 13       		.uleb128 0x13
 2819 01ab 01       		.byte	0x1
 2820 01ac 03       		.uleb128 0x3
 2821 01ad 08       		.uleb128 0x8
 2822 01ae 0B       		.uleb128 0xb
 2823 01af 0B       		.uleb128 0xb
 2824 01b0 3A       		.uleb128 0x3a
 2825 01b1 0B       		.uleb128 0xb
 2826 01b2 3B       		.uleb128 0x3b
 2827 01b3 0B       		.uleb128 0xb
 2828 01b4 39       		.uleb128 0x39
 2829 01b5 0B       		.uleb128 0xb
 2830 01b6 01       		.uleb128 0x1
 2831 01b7 13       		.uleb128 0x13
 2832 01b8 00       		.byte	0
 2833 01b9 00       		.byte	0
 2834 01ba 1E       		.uleb128 0x1e
 2835 01bb 17       		.uleb128 0x17
 2836 01bc 01       		.byte	0x1
 2837 01bd 0B       		.uleb128 0xb
 2838 01be 0B       		.uleb128 0xb
 2839 01bf 3A       		.uleb128 0x3a
 2840 01c0 0B       		.uleb128 0xb
 2841 01c1 3B       		.uleb128 0x3b
 2842 01c2 0B       		.uleb128 0xb
 2843 01c3 39       		.uleb128 0x39
 2844 01c4 0B       		.uleb128 0xb
 2845 01c5 01       		.uleb128 0x1
 2846 01c6 13       		.uleb128 0x13
 2847 01c7 00       		.byte	0
 2848 01c8 00       		.byte	0
 2849 01c9 1F       		.uleb128 0x1f
 2850 01ca 17       		.uleb128 0x17
ARM GAS  C:\Users\DEVELO~1\AppData\Local\Temp\ccBPZKTw.s 			page 51


 2851 01cb 01       		.byte	0x1
 2852 01cc 03       		.uleb128 0x3
 2853 01cd 0E       		.uleb128 0xe
 2854 01ce 0B       		.uleb128 0xb
 2855 01cf 0B       		.uleb128 0xb
 2856 01d0 3A       		.uleb128 0x3a
 2857 01d1 0B       		.uleb128 0xb
 2858 01d2 3B       		.uleb128 0x3b
 2859 01d3 0B       		.uleb128 0xb
 2860 01d4 39       		.uleb128 0x39
 2861 01d5 0B       		.uleb128 0xb
 2862 01d6 01       		.uleb128 0x1
 2863 01d7 13       		.uleb128 0x13
 2864 01d8 00       		.byte	0
 2865 01d9 00       		.byte	0
 2866 01da 20       		.uleb128 0x20
 2867 01db 13       		.uleb128 0x13
 2868 01dc 01       		.byte	0x1
 2869 01dd 0B       		.uleb128 0xb
 2870 01de 05       		.uleb128 0x5
 2871 01df 3A       		.uleb128 0x3a
 2872 01e0 0B       		.uleb128 0xb
 2873 01e1 3B       		.uleb128 0x3b
 2874 01e2 05       		.uleb128 0x5
 2875 01e3 39       		.uleb128 0x39
 2876 01e4 0B       		.uleb128 0xb
 2877 01e5 01       		.uleb128 0x1
 2878 01e6 13       		.uleb128 0x13
 2879 01e7 00       		.byte	0
 2880 01e8 00       		.byte	0
 2881 01e9 21       		.uleb128 0x21
 2882 01ea 21       		.uleb128 0x21
 2883 01eb 00       		.byte	0
 2884 01ec 49       		.uleb128 0x49
 2885 01ed 13       		.uleb128 0x13
 2886 01ee 2F       		.uleb128 0x2f
 2887 01ef 05       		.uleb128 0x5
 2888 01f0 00       		.byte	0
 2889 01f1 00       		.byte	0
 2890 01f2 22       		.uleb128 0x22
 2891 01f3 15       		.uleb128 0x15
 2892 01f4 01       		.byte	0x1
 2893 01f5 27       		.uleb128 0x27
 2894 01f6 19       		.uleb128 0x19
 2895 01f7 49       		.uleb128 0x49
 2896 01f8 13       		.uleb128 0x13
 2897 01f9 01       		.uleb128 0x1
 2898 01fa 13       		.uleb128 0x13
 2899 01fb 00       		.byte	0
 2900 01fc 00       		.byte	0
 2901 01fd 23       		.uleb128 0x23
 2902 01fe 13       		.uleb128 0x13
 2903 01ff 01       		.byte	0x1
 2904 0200 03       		.uleb128 0x3
 2905 0201 0E       		.uleb128 0xe
 2906 0202 0B       		.uleb128 0xb
 2907 0203 05       		.uleb128 0x5
ARM GAS  C:\Users\DEVELO~1\AppData\Local\Temp\ccBPZKTw.s 			page 52


 2908 0204 3A       		.uleb128 0x3a
 2909 0205 0B       		.uleb128 0xb
 2910 0206 3B       		.uleb128 0x3b
 2911 0207 05       		.uleb128 0x5
 2912 0208 39       		.uleb128 0x39
 2913 0209 0B       		.uleb128 0xb
 2914 020a 01       		.uleb128 0x1
 2915 020b 13       		.uleb128 0x13
 2916 020c 00       		.byte	0
 2917 020d 00       		.byte	0
 2918 020e 24       		.uleb128 0x24
 2919 020f 0D       		.uleb128 0xd
 2920 0210 00       		.byte	0
 2921 0211 03       		.uleb128 0x3
 2922 0212 08       		.uleb128 0x8
 2923 0213 3A       		.uleb128 0x3a
 2924 0214 0B       		.uleb128 0xb
 2925 0215 3B       		.uleb128 0x3b
 2926 0216 05       		.uleb128 0x5
 2927 0217 39       		.uleb128 0x39
 2928 0218 0B       		.uleb128 0xb
 2929 0219 49       		.uleb128 0x49
 2930 021a 13       		.uleb128 0x13
 2931 021b 38       		.uleb128 0x38
 2932 021c 05       		.uleb128 0x5
 2933 021d 00       		.byte	0
 2934 021e 00       		.byte	0
 2935 021f 25       		.uleb128 0x25
 2936 0220 15       		.uleb128 0x15
 2937 0221 01       		.byte	0x1
 2938 0222 27       		.uleb128 0x27
 2939 0223 19       		.uleb128 0x19
 2940 0224 01       		.uleb128 0x1
 2941 0225 13       		.uleb128 0x13
 2942 0226 00       		.byte	0
 2943 0227 00       		.byte	0
 2944 0228 26       		.uleb128 0x26
 2945 0229 2E       		.uleb128 0x2e
 2946 022a 01       		.byte	0x1
 2947 022b 3F       		.uleb128 0x3f
 2948 022c 19       		.uleb128 0x19
 2949 022d 03       		.uleb128 0x3
 2950 022e 0E       		.uleb128 0xe
 2951 022f 3A       		.uleb128 0x3a
 2952 0230 0B       		.uleb128 0xb
 2953 0231 3B       		.uleb128 0x3b
 2954 0232 0B       		.uleb128 0xb
 2955 0233 39       		.uleb128 0x39
 2956 0234 0B       		.uleb128 0xb
 2957 0235 27       		.uleb128 0x27
 2958 0236 19       		.uleb128 0x19
 2959 0237 49       		.uleb128 0x49
 2960 0238 13       		.uleb128 0x13
 2961 0239 3C       		.uleb128 0x3c
 2962 023a 19       		.uleb128 0x19
 2963 023b 01       		.uleb128 0x1
 2964 023c 13       		.uleb128 0x13
ARM GAS  C:\Users\DEVELO~1\AppData\Local\Temp\ccBPZKTw.s 			page 53


 2965 023d 00       		.byte	0
 2966 023e 00       		.byte	0
 2967 023f 27       		.uleb128 0x27
 2968 0240 2E       		.uleb128 0x2e
 2969 0241 01       		.byte	0x1
 2970 0242 3F       		.uleb128 0x3f
 2971 0243 19       		.uleb128 0x19
 2972 0244 03       		.uleb128 0x3
 2973 0245 0E       		.uleb128 0xe
 2974 0246 3A       		.uleb128 0x3a
 2975 0247 0B       		.uleb128 0xb
 2976 0248 3B       		.uleb128 0x3b
 2977 0249 0B       		.uleb128 0xb
 2978 024a 39       		.uleb128 0x39
 2979 024b 0B       		.uleb128 0xb
 2980 024c 27       		.uleb128 0x27
 2981 024d 19       		.uleb128 0x19
 2982 024e 49       		.uleb128 0x49
 2983 024f 13       		.uleb128 0x13
 2984 0250 11       		.uleb128 0x11
 2985 0251 01       		.uleb128 0x1
 2986 0252 12       		.uleb128 0x12
 2987 0253 06       		.uleb128 0x6
 2988 0254 40       		.uleb128 0x40
 2989 0255 18       		.uleb128 0x18
 2990 0256 7A       		.uleb128 0x7a
 2991 0257 19       		.uleb128 0x19
 2992 0258 00       		.byte	0
 2993 0259 00       		.byte	0
 2994 025a 00       		.byte	0
 2995              		.section	.debug_loclists,"",%progbits
 2996 0000 8C030000 		.4byte	.Ldebug_loc3-.Ldebug_loc2
 2997              	.Ldebug_loc2:
 2998 0004 0500     		.2byte	0x5
 2999 0006 04       		.byte	0x4
 3000 0007 00       		.byte	0
 3001 0008 00000000 		.4byte	0
 3002              	.Ldebug_loc0:
 3003              	.LVUS33:
 3004 000c 00       		.uleb128 0
 3005 000d 00       		.uleb128 .LVU108
 3006 000e 00       		.uleb128 .LVU108
 3007 000f 00       		.uleb128 0
 3008              	.LLST33:
 3009 0010 06       		.byte	0x6
 3010 0011 00000000 		.4byte	.LVL43
 3011 0015 04       		.byte	0x4
 3012 0016 00       		.uleb128 .LVL43-.LVL43
 3013 0017 1B       		.uleb128 .LVL47-1-.LVL43
 3014 0018 01       		.uleb128 0x1
 3015 0019 50       		.byte	0x50
 3016 001a 04       		.byte	0x4
 3017 001b 1B       		.uleb128 .LVL47-1-.LVL43
 3018 001c 22       		.uleb128 .LFE152-.LVL43
 3019 001d 04       		.uleb128 0x4
 3020 001e A3       		.byte	0xa3
 3021 001f 01       		.uleb128 0x1
ARM GAS  C:\Users\DEVELO~1\AppData\Local\Temp\ccBPZKTw.s 			page 54


 3022 0020 50       		.byte	0x50
 3023 0021 9F       		.byte	0x9f
 3024 0022 00       		.byte	0
 3025              	.LVUS34:
 3026 0023 00       		.uleb128 0
 3027 0024 00       		.uleb128 .LVU106
 3028 0025 00       		.uleb128 .LVU106
 3029 0026 00       		.uleb128 0
 3030              	.LLST34:
 3031 0027 06       		.byte	0x6
 3032 0028 00000000 		.4byte	.LVL43
 3033 002c 04       		.byte	0x4
 3034 002d 00       		.uleb128 .LVL43-.LVL43
 3035 002e 0C       		.uleb128 .LVL45-.LVL43
 3036 002f 01       		.uleb128 0x1
 3037 0030 51       		.byte	0x51
 3038 0031 04       		.byte	0x4
 3039 0032 0C       		.uleb128 .LVL45-.LVL43
 3040 0033 22       		.uleb128 .LFE152-.LVL43
 3041 0034 01       		.uleb128 0x1
 3042 0035 55       		.byte	0x55
 3043 0036 00       		.byte	0
 3044              	.LVUS35:
 3045 0037 00       		.uleb128 0
 3046 0038 00       		.uleb128 .LVU102
 3047 0039 00       		.uleb128 .LVU102
 3048 003a 00       		.uleb128 0
 3049              	.LLST35:
 3050 003b 06       		.byte	0x6
 3051 003c 00000000 		.4byte	.LVL43
 3052 0040 04       		.byte	0x4
 3053 0041 00       		.uleb128 .LVL43-.LVL43
 3054 0042 04       		.uleb128 .LVL44-.LVL43
 3055 0043 01       		.uleb128 0x1
 3056 0044 52       		.byte	0x52
 3057 0045 04       		.byte	0x4
 3058 0046 04       		.uleb128 .LVL44-.LVL43
 3059 0047 22       		.uleb128 .LFE152-.LVL43
 3060 0048 04       		.uleb128 0x4
 3061 0049 A3       		.byte	0xa3
 3062 004a 01       		.uleb128 0x1
 3063 004b 52       		.byte	0x52
 3064 004c 9F       		.byte	0x9f
 3065 004d 00       		.byte	0
 3066              	.LVUS36:
 3067 004e 00       		.uleb128 0
 3068 004f 00       		.uleb128 .LVU107
 3069 0050 00       		.uleb128 .LVU107
 3070 0051 00       		.uleb128 0
 3071              	.LLST36:
 3072 0052 06       		.byte	0x6
 3073 0053 00000000 		.4byte	.LVL43
 3074 0057 04       		.byte	0x4
 3075 0058 00       		.uleb128 .LVL43-.LVL43
 3076 0059 0E       		.uleb128 .LVL46-.LVL43
 3077 005a 01       		.uleb128 0x1
 3078 005b 53       		.byte	0x53
ARM GAS  C:\Users\DEVELO~1\AppData\Local\Temp\ccBPZKTw.s 			page 55


 3079 005c 04       		.byte	0x4
 3080 005d 0E       		.uleb128 .LVL46-.LVL43
 3081 005e 22       		.uleb128 .LFE152-.LVL43
 3082 005f 04       		.uleb128 0x4
 3083 0060 A3       		.byte	0xa3
 3084 0061 01       		.uleb128 0x1
 3085 0062 53       		.byte	0x53
 3086 0063 9F       		.byte	0x9f
 3087 0064 00       		.byte	0
 3088              	.LVUS29:
 3089 0065 00       		.uleb128 0
 3090 0066 00       		.uleb128 .LVU96
 3091 0067 00       		.uleb128 .LVU96
 3092 0068 00       		.uleb128 0
 3093              	.LLST29:
 3094 0069 06       		.byte	0x6
 3095 006a 00000000 		.4byte	.LVL38
 3096 006e 04       		.byte	0x4
 3097 006f 00       		.uleb128 .LVL38-.LVL38
 3098 0070 1B       		.uleb128 .LVL42-1-.LVL38
 3099 0071 01       		.uleb128 0x1
 3100 0072 50       		.byte	0x50
 3101 0073 04       		.byte	0x4
 3102 0074 1B       		.uleb128 .LVL42-1-.LVL38
 3103 0075 22       		.uleb128 .LFE151-.LVL38
 3104 0076 04       		.uleb128 0x4
 3105 0077 A3       		.byte	0xa3
 3106 0078 01       		.uleb128 0x1
 3107 0079 50       		.byte	0x50
 3108 007a 9F       		.byte	0x9f
 3109 007b 00       		.byte	0
 3110              	.LVUS30:
 3111 007c 00       		.uleb128 0
 3112 007d 00       		.uleb128 .LVU94
 3113 007e 00       		.uleb128 .LVU94
 3114 007f 00       		.uleb128 .LVU96
 3115 0080 00       		.uleb128 .LVU96
 3116 0081 00       		.uleb128 0
 3117              	.LLST30:
 3118 0082 06       		.byte	0x6
 3119 0083 00000000 		.4byte	.LVL38
 3120 0087 04       		.byte	0x4
 3121 0088 00       		.uleb128 .LVL38-.LVL38
 3122 0089 0E       		.uleb128 .LVL40-.LVL38
 3123 008a 01       		.uleb128 0x1
 3124 008b 51       		.byte	0x51
 3125 008c 04       		.byte	0x4
 3126 008d 0E       		.uleb128 .LVL40-.LVL38
 3127 008e 1B       		.uleb128 .LVL42-1-.LVL38
 3128 008f 02       		.uleb128 0x2
 3129 0090 91       		.byte	0x91
 3130 0091 64       		.sleb128 -28
 3131 0092 04       		.byte	0x4
 3132 0093 1B       		.uleb128 .LVL42-1-.LVL38
 3133 0094 22       		.uleb128 .LFE151-.LVL38
 3134 0095 04       		.uleb128 0x4
 3135 0096 A3       		.byte	0xa3
ARM GAS  C:\Users\DEVELO~1\AppData\Local\Temp\ccBPZKTw.s 			page 56


 3136 0097 01       		.uleb128 0x1
 3137 0098 51       		.byte	0x51
 3138 0099 9F       		.byte	0x9f
 3139 009a 00       		.byte	0
 3140              	.LVUS31:
 3141 009b 00       		.uleb128 0
 3142 009c 00       		.uleb128 .LVU92
 3143 009d 00       		.uleb128 .LVU92
 3144 009e 00       		.uleb128 0
 3145              	.LLST31:
 3146 009f 06       		.byte	0x6
 3147 00a0 00000000 		.4byte	.LVL38
 3148 00a4 04       		.byte	0x4
 3149 00a5 00       		.uleb128 .LVL38-.LVL38
 3150 00a6 04       		.uleb128 .LVL39-.LVL38
 3151 00a7 01       		.uleb128 0x1
 3152 00a8 52       		.byte	0x52
 3153 00a9 04       		.byte	0x4
 3154 00aa 04       		.uleb128 .LVL39-.LVL38
 3155 00ab 22       		.uleb128 .LFE151-.LVL38
 3156 00ac 04       		.uleb128 0x4
 3157 00ad A3       		.byte	0xa3
 3158 00ae 01       		.uleb128 0x1
 3159 00af 52       		.byte	0x52
 3160 00b0 9F       		.byte	0x9f
 3161 00b1 00       		.byte	0
 3162              	.LVUS32:
 3163 00b2 00       		.uleb128 0
 3164 00b3 00       		.uleb128 .LVU95
 3165 00b4 00       		.uleb128 .LVU95
 3166 00b5 00       		.uleb128 0
 3167              	.LLST32:
 3168 00b6 06       		.byte	0x6
 3169 00b7 00000000 		.4byte	.LVL38
 3170 00bb 04       		.byte	0x4
 3171 00bc 00       		.uleb128 .LVL38-.LVL38
 3172 00bd 12       		.uleb128 .LVL41-.LVL38
 3173 00be 01       		.uleb128 0x1
 3174 00bf 53       		.byte	0x53
 3175 00c0 04       		.byte	0x4
 3176 00c1 12       		.uleb128 .LVL41-.LVL38
 3177 00c2 22       		.uleb128 .LFE151-.LVL38
 3178 00c3 04       		.uleb128 0x4
 3179 00c4 A3       		.byte	0xa3
 3180 00c5 01       		.uleb128 0x1
 3181 00c6 53       		.byte	0x53
 3182 00c7 9F       		.byte	0x9f
 3183 00c8 00       		.byte	0
 3184              	.LVUS25:
 3185 00c9 00       		.uleb128 0
 3186 00ca 00       		.uleb128 .LVU86
 3187 00cb 00       		.uleb128 .LVU86
 3188 00cc 00       		.uleb128 0
 3189              	.LLST25:
 3190 00cd 06       		.byte	0x6
 3191 00ce 00000000 		.4byte	.LVL33
 3192 00d2 04       		.byte	0x4
ARM GAS  C:\Users\DEVELO~1\AppData\Local\Temp\ccBPZKTw.s 			page 57


 3193 00d3 00       		.uleb128 .LVL33-.LVL33
 3194 00d4 19       		.uleb128 .LVL37-1-.LVL33
 3195 00d5 01       		.uleb128 0x1
 3196 00d6 50       		.byte	0x50
 3197 00d7 04       		.byte	0x4
 3198 00d8 19       		.uleb128 .LVL37-1-.LVL33
 3199 00d9 20       		.uleb128 .LFE150-.LVL33
 3200 00da 04       		.uleb128 0x4
 3201 00db A3       		.byte	0xa3
 3202 00dc 01       		.uleb128 0x1
 3203 00dd 50       		.byte	0x50
 3204 00de 9F       		.byte	0x9f
 3205 00df 00       		.byte	0
 3206              	.LVUS26:
 3207 00e0 00       		.uleb128 0
 3208 00e1 00       		.uleb128 .LVU83
 3209 00e2 00       		.uleb128 .LVU83
 3210 00e3 00       		.uleb128 .LVU86
 3211 00e4 00       		.uleb128 .LVU86
 3212 00e5 00       		.uleb128 0
 3213              	.LLST26:
 3214 00e6 06       		.byte	0x6
 3215 00e7 00000000 		.4byte	.LVL33
 3216 00eb 04       		.byte	0x4
 3217 00ec 00       		.uleb128 .LVL33-.LVL33
 3218 00ed 0C       		.uleb128 .LVL34-.LVL33
 3219 00ee 01       		.uleb128 0x1
 3220 00ef 51       		.byte	0x51
 3221 00f0 04       		.byte	0x4
 3222 00f1 0C       		.uleb128 .LVL34-.LVL33
 3223 00f2 19       		.uleb128 .LVL37-1-.LVL33
 3224 00f3 02       		.uleb128 0x2
 3225 00f4 91       		.byte	0x91
 3226 00f5 64       		.sleb128 -28
 3227 00f6 04       		.byte	0x4
 3228 00f7 19       		.uleb128 .LVL37-1-.LVL33
 3229 00f8 20       		.uleb128 .LFE150-.LVL33
 3230 00f9 04       		.uleb128 0x4
 3231 00fa A3       		.byte	0xa3
 3232 00fb 01       		.uleb128 0x1
 3233 00fc 51       		.byte	0x51
 3234 00fd 9F       		.byte	0x9f
 3235 00fe 00       		.byte	0
 3236              	.LVUS27:
 3237 00ff 00       		.uleb128 0
 3238 0100 00       		.uleb128 .LVU85
 3239 0101 00       		.uleb128 .LVU85
 3240 0102 00       		.uleb128 0
 3241              	.LLST27:
 3242 0103 06       		.byte	0x6
 3243 0104 00000000 		.4byte	.LVL33
 3244 0108 04       		.byte	0x4
 3245 0109 00       		.uleb128 .LVL33-.LVL33
 3246 010a 12       		.uleb128 .LVL36-.LVL33
 3247 010b 01       		.uleb128 0x1
 3248 010c 52       		.byte	0x52
 3249 010d 04       		.byte	0x4
ARM GAS  C:\Users\DEVELO~1\AppData\Local\Temp\ccBPZKTw.s 			page 58


 3250 010e 12       		.uleb128 .LVL36-.LVL33
 3251 010f 20       		.uleb128 .LFE150-.LVL33
 3252 0110 04       		.uleb128 0x4
 3253 0111 A3       		.byte	0xa3
 3254 0112 01       		.uleb128 0x1
 3255 0113 52       		.byte	0x52
 3256 0114 9F       		.byte	0x9f
 3257 0115 00       		.byte	0
 3258              	.LVUS28:
 3259 0116 00       		.uleb128 0
 3260 0117 00       		.uleb128 .LVU84
 3261 0118 00       		.uleb128 .LVU84
 3262 0119 00       		.uleb128 0
 3263              	.LLST28:
 3264 011a 06       		.byte	0x6
 3265 011b 00000000 		.4byte	.LVL33
 3266 011f 04       		.byte	0x4
 3267 0120 00       		.uleb128 .LVL33-.LVL33
 3268 0121 10       		.uleb128 .LVL35-.LVL33
 3269 0122 01       		.uleb128 0x1
 3270 0123 53       		.byte	0x53
 3271 0124 04       		.byte	0x4
 3272 0125 10       		.uleb128 .LVL35-.LVL33
 3273 0126 20       		.uleb128 .LFE150-.LVL33
 3274 0127 04       		.uleb128 0x4
 3275 0128 A3       		.byte	0xa3
 3276 0129 01       		.uleb128 0x1
 3277 012a 53       		.byte	0x53
 3278 012b 9F       		.byte	0x9f
 3279 012c 00       		.byte	0
 3280              	.LVUS21:
 3281 012d 00       		.uleb128 0
 3282 012e 00       		.uleb128 .LVU74
 3283 012f 00       		.uleb128 .LVU74
 3284 0130 00       		.uleb128 0
 3285              	.LLST21:
 3286 0131 06       		.byte	0x6
 3287 0132 00000000 		.4byte	.LVL28
 3288 0136 04       		.byte	0x4
 3289 0137 00       		.uleb128 .LVL28-.LVL28
 3290 0138 19       		.uleb128 .LVL32-1-.LVL28
 3291 0139 01       		.uleb128 0x1
 3292 013a 50       		.byte	0x50
 3293 013b 04       		.byte	0x4
 3294 013c 19       		.uleb128 .LVL32-1-.LVL28
 3295 013d 20       		.uleb128 .LFE149-.LVL28
 3296 013e 04       		.uleb128 0x4
 3297 013f A3       		.byte	0xa3
 3298 0140 01       		.uleb128 0x1
 3299 0141 50       		.byte	0x50
 3300 0142 9F       		.byte	0x9f
 3301 0143 00       		.byte	0
 3302              	.LVUS22:
 3303 0144 00       		.uleb128 0
 3304 0145 00       		.uleb128 .LVU71
 3305 0146 00       		.uleb128 .LVU71
 3306 0147 00       		.uleb128 0
ARM GAS  C:\Users\DEVELO~1\AppData\Local\Temp\ccBPZKTw.s 			page 59


 3307              	.LLST22:
 3308 0148 06       		.byte	0x6
 3309 0149 00000000 		.4byte	.LVL28
 3310 014d 04       		.byte	0x4
 3311 014e 00       		.uleb128 .LVL28-.LVL28
 3312 014f 0A       		.uleb128 .LVL29-.LVL28
 3313 0150 01       		.uleb128 0x1
 3314 0151 51       		.byte	0x51
 3315 0152 04       		.byte	0x4
 3316 0153 0A       		.uleb128 .LVL29-.LVL28
 3317 0154 20       		.uleb128 .LFE149-.LVL28
 3318 0155 01       		.uleb128 0x1
 3319 0156 55       		.byte	0x55
 3320 0157 00       		.byte	0
 3321              	.LVUS23:
 3322 0158 00       		.uleb128 0
 3323 0159 00       		.uleb128 .LVU72
 3324 015a 00       		.uleb128 .LVU72
 3325 015b 00       		.uleb128 0
 3326              	.LLST23:
 3327 015c 06       		.byte	0x6
 3328 015d 00000000 		.4byte	.LVL28
 3329 0161 04       		.byte	0x4
 3330 0162 00       		.uleb128 .LVL28-.LVL28
 3331 0163 0E       		.uleb128 .LVL30-.LVL28
 3332 0164 01       		.uleb128 0x1
 3333 0165 52       		.byte	0x52
 3334 0166 04       		.byte	0x4
 3335 0167 0E       		.uleb128 .LVL30-.LVL28
 3336 0168 20       		.uleb128 .LFE149-.LVL28
 3337 0169 04       		.uleb128 0x4
 3338 016a A3       		.byte	0xa3
 3339 016b 01       		.uleb128 0x1
 3340 016c 52       		.byte	0x52
 3341 016d 9F       		.byte	0x9f
 3342 016e 00       		.byte	0
 3343              	.LVUS24:
 3344 016f 00       		.uleb128 0
 3345 0170 00       		.uleb128 .LVU73
 3346 0171 00       		.uleb128 .LVU73
 3347 0172 00       		.uleb128 0
 3348              	.LLST24:
 3349 0173 06       		.byte	0x6
 3350 0174 00000000 		.4byte	.LVL28
 3351 0178 04       		.byte	0x4
 3352 0179 00       		.uleb128 .LVL28-.LVL28
 3353 017a 10       		.uleb128 .LVL31-.LVL28
 3354 017b 01       		.uleb128 0x1
 3355 017c 53       		.byte	0x53
 3356 017d 04       		.byte	0x4
 3357 017e 10       		.uleb128 .LVL31-.LVL28
 3358 017f 20       		.uleb128 .LFE149-.LVL28
 3359 0180 04       		.uleb128 0x4
 3360 0181 A3       		.byte	0xa3
 3361 0182 01       		.uleb128 0x1
 3362 0183 53       		.byte	0x53
 3363 0184 9F       		.byte	0x9f
ARM GAS  C:\Users\DEVELO~1\AppData\Local\Temp\ccBPZKTw.s 			page 60


 3364 0185 00       		.byte	0
 3365              	.LVUS17:
 3366 0186 00       		.uleb128 0
 3367 0187 00       		.uleb128 .LVU63
 3368 0188 00       		.uleb128 .LVU63
 3369 0189 00       		.uleb128 0
 3370              	.LLST17:
 3371 018a 06       		.byte	0x6
 3372 018b 00000000 		.4byte	.LVL23
 3373 018f 04       		.byte	0x4
 3374 0190 00       		.uleb128 .LVL23-.LVL23
 3375 0191 19       		.uleb128 .LVL27-1-.LVL23
 3376 0192 01       		.uleb128 0x1
 3377 0193 50       		.byte	0x50
 3378 0194 04       		.byte	0x4
 3379 0195 19       		.uleb128 .LVL27-1-.LVL23
 3380 0196 20       		.uleb128 .LFE148-.LVL23
 3381 0197 04       		.uleb128 0x4
 3382 0198 A3       		.byte	0xa3
 3383 0199 01       		.uleb128 0x1
 3384 019a 50       		.byte	0x50
 3385 019b 9F       		.byte	0x9f
 3386 019c 00       		.byte	0
 3387              	.LVUS18:
 3388 019d 00       		.uleb128 0
 3389 019e 00       		.uleb128 .LVU60
 3390 019f 00       		.uleb128 .LVU60
 3391 01a0 00       		.uleb128 0
 3392              	.LLST18:
 3393 01a1 06       		.byte	0x6
 3394 01a2 00000000 		.4byte	.LVL23
 3395 01a6 04       		.byte	0x4
 3396 01a7 00       		.uleb128 .LVL23-.LVL23
 3397 01a8 0A       		.uleb128 .LVL24-.LVL23
 3398 01a9 01       		.uleb128 0x1
 3399 01aa 51       		.byte	0x51
 3400 01ab 04       		.byte	0x4
 3401 01ac 0A       		.uleb128 .LVL24-.LVL23
 3402 01ad 20       		.uleb128 .LFE148-.LVL23
 3403 01ae 01       		.uleb128 0x1
 3404 01af 55       		.byte	0x55
 3405 01b0 00       		.byte	0
 3406              	.LVUS19:
 3407 01b1 00       		.uleb128 0
 3408 01b2 00       		.uleb128 .LVU61
 3409 01b3 00       		.uleb128 .LVU61
 3410 01b4 00       		.uleb128 0
 3411              	.LLST19:
 3412 01b5 06       		.byte	0x6
 3413 01b6 00000000 		.4byte	.LVL23
 3414 01ba 04       		.byte	0x4
 3415 01bb 00       		.uleb128 .LVL23-.LVL23
 3416 01bc 0E       		.uleb128 .LVL25-.LVL23
 3417 01bd 01       		.uleb128 0x1
 3418 01be 52       		.byte	0x52
 3419 01bf 04       		.byte	0x4
 3420 01c0 0E       		.uleb128 .LVL25-.LVL23
ARM GAS  C:\Users\DEVELO~1\AppData\Local\Temp\ccBPZKTw.s 			page 61


 3421 01c1 20       		.uleb128 .LFE148-.LVL23
 3422 01c2 04       		.uleb128 0x4
 3423 01c3 A3       		.byte	0xa3
 3424 01c4 01       		.uleb128 0x1
 3425 01c5 52       		.byte	0x52
 3426 01c6 9F       		.byte	0x9f
 3427 01c7 00       		.byte	0
 3428              	.LVUS20:
 3429 01c8 00       		.uleb128 0
 3430 01c9 00       		.uleb128 .LVU62
 3431 01ca 00       		.uleb128 .LVU62
 3432 01cb 00       		.uleb128 0
 3433              	.LLST20:
 3434 01cc 06       		.byte	0x6
 3435 01cd 00000000 		.4byte	.LVL23
 3436 01d1 04       		.byte	0x4
 3437 01d2 00       		.uleb128 .LVL23-.LVL23
 3438 01d3 10       		.uleb128 .LVL26-.LVL23
 3439 01d4 01       		.uleb128 0x1
 3440 01d5 53       		.byte	0x53
 3441 01d6 04       		.byte	0x4
 3442 01d7 10       		.uleb128 .LVL26-.LVL23
 3443 01d8 20       		.uleb128 .LFE148-.LVL23
 3444 01d9 04       		.uleb128 0x4
 3445 01da A3       		.byte	0xa3
 3446 01db 01       		.uleb128 0x1
 3447 01dc 53       		.byte	0x53
 3448 01dd 9F       		.byte	0x9f
 3449 01de 00       		.byte	0
 3450              	.LVUS12:
 3451 01df 00       		.uleb128 0
 3452 01e0 00       		.uleb128 .LVU52
 3453 01e1 00       		.uleb128 .LVU52
 3454 01e2 00       		.uleb128 0
 3455              	.LLST12:
 3456 01e3 06       		.byte	0x6
 3457 01e4 00000000 		.4byte	.LVL16
 3458 01e8 04       		.byte	0x4
 3459 01e9 00       		.uleb128 .LVL16-.LVL16
 3460 01ea 2D       		.uleb128 .LVL22-1-.LVL16
 3461 01eb 01       		.uleb128 0x1
 3462 01ec 50       		.byte	0x50
 3463 01ed 04       		.byte	0x4
 3464 01ee 2D       		.uleb128 .LVL22-1-.LVL16
 3465 01ef 34       		.uleb128 .LFE147-.LVL16
 3466 01f0 04       		.uleb128 0x4
 3467 01f1 A3       		.byte	0xa3
 3468 01f2 01       		.uleb128 0x1
 3469 01f3 50       		.byte	0x50
 3470 01f4 9F       		.byte	0x9f
 3471 01f5 00       		.byte	0
 3472              	.LVUS13:
 3473 01f6 00       		.uleb128 0
 3474 01f7 00       		.uleb128 .LVU42
 3475 01f8 00       		.uleb128 .LVU42
 3476 01f9 00       		.uleb128 .LVU47
 3477 01fa 00       		.uleb128 .LVU47
ARM GAS  C:\Users\DEVELO~1\AppData\Local\Temp\ccBPZKTw.s 			page 62


 3478 01fb 00       		.uleb128 .LVU52
 3479 01fc 00       		.uleb128 .LVU52
 3480 01fd 00       		.uleb128 0
 3481              	.LLST13:
 3482 01fe 06       		.byte	0x6
 3483 01ff 00000000 		.4byte	.LVL16
 3484 0203 04       		.byte	0x4
 3485 0204 00       		.uleb128 .LVL16-.LVL16
 3486 0205 08       		.uleb128 .LVL17-.LVL16
 3487 0206 01       		.uleb128 0x1
 3488 0207 51       		.byte	0x51
 3489 0208 04       		.byte	0x4
 3490 0209 08       		.uleb128 .LVL17-.LVL16
 3491 020a 1A       		.uleb128 .LVL20-.LVL16
 3492 020b 01       		.uleb128 0x1
 3493 020c 54       		.byte	0x54
 3494 020d 04       		.byte	0x4
 3495 020e 1A       		.uleb128 .LVL20-.LVL16
 3496 020f 2D       		.uleb128 .LVL22-1-.LVL16
 3497 0210 02       		.uleb128 0x2
 3498 0211 91       		.byte	0x91
 3499 0212 6C       		.sleb128 -20
 3500 0213 04       		.byte	0x4
 3501 0214 2D       		.uleb128 .LVL22-1-.LVL16
 3502 0215 34       		.uleb128 .LFE147-.LVL16
 3503 0216 04       		.uleb128 0x4
 3504 0217 A3       		.byte	0xa3
 3505 0218 01       		.uleb128 0x1
 3506 0219 51       		.byte	0x51
 3507 021a 9F       		.byte	0x9f
 3508 021b 00       		.byte	0
 3509              	.LVUS14:
 3510 021c 00       		.uleb128 0
 3511 021d 00       		.uleb128 .LVU46
 3512 021e 00       		.uleb128 .LVU46
 3513 021f 00       		.uleb128 0
 3514              	.LLST14:
 3515 0220 06       		.byte	0x6
 3516 0221 00000000 		.4byte	.LVL16
 3517 0225 04       		.byte	0x4
 3518 0226 00       		.uleb128 .LVL16-.LVL16
 3519 0227 16       		.uleb128 .LVL19-.LVL16
 3520 0228 01       		.uleb128 0x1
 3521 0229 52       		.byte	0x52
 3522 022a 04       		.byte	0x4
 3523 022b 16       		.uleb128 .LVL19-.LVL16
 3524 022c 34       		.uleb128 .LFE147-.LVL16
 3525 022d 04       		.uleb128 0x4
 3526 022e A3       		.byte	0xa3
 3527 022f 01       		.uleb128 0x1
 3528 0230 52       		.byte	0x52
 3529 0231 9F       		.byte	0x9f
 3530 0232 00       		.byte	0
 3531              	.LVUS15:
 3532 0233 00       		.uleb128 0
 3533 0234 00       		.uleb128 .LVU43
 3534 0235 00       		.uleb128 .LVU43
ARM GAS  C:\Users\DEVELO~1\AppData\Local\Temp\ccBPZKTw.s 			page 63


 3535 0236 00       		.uleb128 0
 3536              	.LLST15:
 3537 0237 06       		.byte	0x6
 3538 0238 00000000 		.4byte	.LVL16
 3539 023c 04       		.byte	0x4
 3540 023d 00       		.uleb128 .LVL16-.LVL16
 3541 023e 0C       		.uleb128 .LVL18-.LVL16
 3542 023f 01       		.uleb128 0x1
 3543 0240 53       		.byte	0x53
 3544 0241 04       		.byte	0x4
 3545 0242 0C       		.uleb128 .LVL18-.LVL16
 3546 0243 34       		.uleb128 .LFE147-.LVL16
 3547 0244 04       		.uleb128 0x4
 3548 0245 A3       		.byte	0xa3
 3549 0246 01       		.uleb128 0x1
 3550 0247 53       		.byte	0x53
 3551 0248 9F       		.byte	0x9f
 3552 0249 00       		.byte	0
 3553              	.LVUS16:
 3554 024a 00       		.uleb128 0
 3555 024b 00       		.uleb128 .LVU50
 3556 024c 00       		.uleb128 .LVU50
 3557 024d 00       		.uleb128 0
 3558              	.LLST16:
 3559 024e 06       		.byte	0x6
 3560 024f 00000000 		.4byte	.LVL16
 3561 0253 04       		.byte	0x4
 3562 0254 00       		.uleb128 .LVL16-.LVL16
 3563 0255 28       		.uleb128 .LVL21-.LVL16
 3564 0256 02       		.uleb128 0x2
 3565 0257 91       		.byte	0x91
 3566 0258 00       		.sleb128 0
 3567 0259 04       		.byte	0x4
 3568 025a 28       		.uleb128 .LVL21-.LVL16
 3569 025b 34       		.uleb128 .LFE147-.LVL16
 3570 025c 01       		.uleb128 0x1
 3571 025d 54       		.byte	0x54
 3572 025e 00       		.byte	0
 3573              	.LVUS8:
 3574 025f 00       		.uleb128 0
 3575 0260 00       		.uleb128 .LVU36
 3576 0261 00       		.uleb128 .LVU36
 3577 0262 00       		.uleb128 0
 3578              	.LLST8:
 3579 0263 06       		.byte	0x6
 3580 0264 00000000 		.4byte	.LVL11
 3581 0268 04       		.byte	0x4
 3582 0269 00       		.uleb128 .LVL11-.LVL11
 3583 026a 19       		.uleb128 .LVL15-1-.LVL11
 3584 026b 01       		.uleb128 0x1
 3585 026c 50       		.byte	0x50
 3586 026d 04       		.byte	0x4
 3587 026e 19       		.uleb128 .LVL15-1-.LVL11
 3588 026f 20       		.uleb128 .LFE146-.LVL11
 3589 0270 04       		.uleb128 0x4
 3590 0271 A3       		.byte	0xa3
 3591 0272 01       		.uleb128 0x1
ARM GAS  C:\Users\DEVELO~1\AppData\Local\Temp\ccBPZKTw.s 			page 64


 3592 0273 50       		.byte	0x50
 3593 0274 9F       		.byte	0x9f
 3594 0275 00       		.byte	0
 3595              	.LVUS9:
 3596 0276 00       		.uleb128 0
 3597 0277 00       		.uleb128 .LVU33
 3598 0278 00       		.uleb128 .LVU33
 3599 0279 00       		.uleb128 .LVU36
 3600 027a 00       		.uleb128 .LVU36
 3601 027b 00       		.uleb128 0
 3602              	.LLST9:
 3603 027c 06       		.byte	0x6
 3604 027d 00000000 		.4byte	.LVL11
 3605 0281 04       		.byte	0x4
 3606 0282 00       		.uleb128 .LVL11-.LVL11
 3607 0283 0C       		.uleb128 .LVL12-.LVL11
 3608 0284 01       		.uleb128 0x1
 3609 0285 51       		.byte	0x51
 3610 0286 04       		.byte	0x4
 3611 0287 0C       		.uleb128 .LVL12-.LVL11
 3612 0288 19       		.uleb128 .LVL15-1-.LVL11
 3613 0289 02       		.uleb128 0x2
 3614 028a 91       		.byte	0x91
 3615 028b 64       		.sleb128 -28
 3616 028c 04       		.byte	0x4
 3617 028d 19       		.uleb128 .LVL15-1-.LVL11
 3618 028e 20       		.uleb128 .LFE146-.LVL11
 3619 028f 04       		.uleb128 0x4
 3620 0290 A3       		.byte	0xa3
 3621 0291 01       		.uleb128 0x1
 3622 0292 51       		.byte	0x51
 3623 0293 9F       		.byte	0x9f
 3624 0294 00       		.byte	0
 3625              	.LVUS10:
 3626 0295 00       		.uleb128 0
 3627 0296 00       		.uleb128 .LVU35
 3628 0297 00       		.uleb128 .LVU35
 3629 0298 00       		.uleb128 0
 3630              	.LLST10:
 3631 0299 06       		.byte	0x6
 3632 029a 00000000 		.4byte	.LVL11
 3633 029e 04       		.byte	0x4
 3634 029f 00       		.uleb128 .LVL11-.LVL11
 3635 02a0 12       		.uleb128 .LVL14-.LVL11
 3636 02a1 01       		.uleb128 0x1
 3637 02a2 52       		.byte	0x52
 3638 02a3 04       		.byte	0x4
 3639 02a4 12       		.uleb128 .LVL14-.LVL11
 3640 02a5 20       		.uleb128 .LFE146-.LVL11
 3641 02a6 04       		.uleb128 0x4
 3642 02a7 A3       		.byte	0xa3
 3643 02a8 01       		.uleb128 0x1
 3644 02a9 52       		.byte	0x52
 3645 02aa 9F       		.byte	0x9f
 3646 02ab 00       		.byte	0
 3647              	.LVUS11:
 3648 02ac 00       		.uleb128 0
ARM GAS  C:\Users\DEVELO~1\AppData\Local\Temp\ccBPZKTw.s 			page 65


 3649 02ad 00       		.uleb128 .LVU34
 3650 02ae 00       		.uleb128 .LVU34
 3651 02af 00       		.uleb128 0
 3652              	.LLST11:
 3653 02b0 06       		.byte	0x6
 3654 02b1 00000000 		.4byte	.LVL11
 3655 02b5 04       		.byte	0x4
 3656 02b6 00       		.uleb128 .LVL11-.LVL11
 3657 02b7 10       		.uleb128 .LVL13-.LVL11
 3658 02b8 01       		.uleb128 0x1
 3659 02b9 53       		.byte	0x53
 3660 02ba 04       		.byte	0x4
 3661 02bb 10       		.uleb128 .LVL13-.LVL11
 3662 02bc 20       		.uleb128 .LFE146-.LVL11
 3663 02bd 04       		.uleb128 0x4
 3664 02be A3       		.byte	0xa3
 3665 02bf 01       		.uleb128 0x1
 3666 02c0 53       		.byte	0x53
 3667 02c1 9F       		.byte	0x9f
 3668 02c2 00       		.byte	0
 3669              	.LVUS3:
 3670 02c3 00       		.uleb128 0
 3671 02c4 00       		.uleb128 .LVU24
 3672 02c5 00       		.uleb128 .LVU24
 3673 02c6 00       		.uleb128 0
 3674              	.LLST3:
 3675 02c7 06       		.byte	0x6
 3676 02c8 00000000 		.4byte	.LVL4
 3677 02cc 04       		.byte	0x4
 3678 02cd 00       		.uleb128 .LVL4-.LVL4
 3679 02ce 2B       		.uleb128 .LVL10-1-.LVL4
 3680 02cf 01       		.uleb128 0x1
 3681 02d0 50       		.byte	0x50
 3682 02d1 04       		.byte	0x4
 3683 02d2 2B       		.uleb128 .LVL10-1-.LVL4
 3684 02d3 32       		.uleb128 .LFE145-.LVL4
 3685 02d4 04       		.uleb128 0x4
 3686 02d5 A3       		.byte	0xa3
 3687 02d6 01       		.uleb128 0x1
 3688 02d7 50       		.byte	0x50
 3689 02d8 9F       		.byte	0x9f
 3690 02d9 00       		.byte	0
 3691              	.LVUS4:
 3692 02da 00       		.uleb128 0
 3693 02db 00       		.uleb128 .LVU14
 3694 02dc 00       		.uleb128 .LVU14
 3695 02dd 00       		.uleb128 .LVU18
 3696 02de 00       		.uleb128 .LVU18
 3697 02df 00       		.uleb128 .LVU24
 3698 02e0 00       		.uleb128 .LVU24
 3699 02e1 00       		.uleb128 0
 3700              	.LLST4:
 3701 02e2 06       		.byte	0x6
 3702 02e3 00000000 		.4byte	.LVL4
 3703 02e7 04       		.byte	0x4
 3704 02e8 00       		.uleb128 .LVL4-.LVL4
 3705 02e9 08       		.uleb128 .LVL5-.LVL4
ARM GAS  C:\Users\DEVELO~1\AppData\Local\Temp\ccBPZKTw.s 			page 66


 3706 02ea 01       		.uleb128 0x1
 3707 02eb 51       		.byte	0x51
 3708 02ec 04       		.byte	0x4
 3709 02ed 08       		.uleb128 .LVL5-.LVL4
 3710 02ee 16       		.uleb128 .LVL7-.LVL4
 3711 02ef 01       		.uleb128 0x1
 3712 02f0 54       		.byte	0x54
 3713 02f1 04       		.byte	0x4
 3714 02f2 16       		.uleb128 .LVL7-.LVL4
 3715 02f3 2B       		.uleb128 .LVL10-1-.LVL4
 3716 02f4 02       		.uleb128 0x2
 3717 02f5 91       		.byte	0x91
 3718 02f6 6C       		.sleb128 -20
 3719 02f7 04       		.byte	0x4
 3720 02f8 2B       		.uleb128 .LVL10-1-.LVL4
 3721 02f9 32       		.uleb128 .LFE145-.LVL4
 3722 02fa 04       		.uleb128 0x4
 3723 02fb A3       		.byte	0xa3
 3724 02fc 01       		.uleb128 0x1
 3725 02fd 51       		.byte	0x51
 3726 02fe 9F       		.byte	0x9f
 3727 02ff 00       		.byte	0
 3728              	.LVUS5:
 3729 0300 00       		.uleb128 0
 3730 0301 00       		.uleb128 .LVU23
 3731 0302 00       		.uleb128 .LVU23
 3732 0303 00       		.uleb128 0
 3733              	.LLST5:
 3734 0304 06       		.byte	0x6
 3735 0305 00000000 		.4byte	.LVL4
 3736 0309 04       		.byte	0x4
 3737 030a 00       		.uleb128 .LVL4-.LVL4
 3738 030b 26       		.uleb128 .LVL9-.LVL4
 3739 030c 01       		.uleb128 0x1
 3740 030d 52       		.byte	0x52
 3741 030e 04       		.byte	0x4
 3742 030f 26       		.uleb128 .LVL9-.LVL4
 3743 0310 32       		.uleb128 .LFE145-.LVL4
 3744 0311 04       		.uleb128 0x4
 3745 0312 A3       		.byte	0xa3
 3746 0313 01       		.uleb128 0x1
 3747 0314 52       		.byte	0x52
 3748 0315 9F       		.byte	0x9f
 3749 0316 00       		.byte	0
 3750              	.LVUS6:
 3751 0317 00       		.uleb128 0
 3752 0318 00       		.uleb128 .LVU15
 3753 0319 00       		.uleb128 .LVU15
 3754 031a 00       		.uleb128 0
 3755              	.LLST6:
 3756 031b 06       		.byte	0x6
 3757 031c 00000000 		.4byte	.LVL4
 3758 0320 04       		.byte	0x4
 3759 0321 00       		.uleb128 .LVL4-.LVL4
 3760 0322 0C       		.uleb128 .LVL6-.LVL4
 3761 0323 01       		.uleb128 0x1
 3762 0324 53       		.byte	0x53
ARM GAS  C:\Users\DEVELO~1\AppData\Local\Temp\ccBPZKTw.s 			page 67


 3763 0325 04       		.byte	0x4
 3764 0326 0C       		.uleb128 .LVL6-.LVL4
 3765 0327 32       		.uleb128 .LFE145-.LVL4
 3766 0328 04       		.uleb128 0x4
 3767 0329 A3       		.byte	0xa3
 3768 032a 01       		.uleb128 0x1
 3769 032b 53       		.byte	0x53
 3770 032c 9F       		.byte	0x9f
 3771 032d 00       		.byte	0
 3772              	.LVUS7:
 3773 032e 00       		.uleb128 0
 3774 032f 00       		.uleb128 .LVU21
 3775 0330 00       		.uleb128 .LVU21
 3776 0331 00       		.uleb128 0
 3777              	.LLST7:
 3778 0332 06       		.byte	0x6
 3779 0333 00000000 		.4byte	.LVL4
 3780 0337 04       		.byte	0x4
 3781 0338 00       		.uleb128 .LVL4-.LVL4
 3782 0339 24       		.uleb128 .LVL8-.LVL4
 3783 033a 02       		.uleb128 0x2
 3784 033b 91       		.byte	0x91
 3785 033c 00       		.sleb128 0
 3786 033d 04       		.byte	0x4
 3787 033e 24       		.uleb128 .LVL8-.LVL4
 3788 033f 32       		.uleb128 .LFE145-.LVL4
 3789 0340 01       		.uleb128 0x1
 3790 0341 54       		.byte	0x54
 3791 0342 00       		.byte	0
 3792              	.LVUS0:
 3793 0343 00       		.uleb128 0
 3794 0344 00       		.uleb128 .LVU8
 3795 0345 00       		.uleb128 .LVU8
 3796 0346 00       		.uleb128 0
 3797              	.LLST0:
 3798 0347 06       		.byte	0x6
 3799 0348 00000000 		.4byte	.LVL0
 3800 034c 04       		.byte	0x4
 3801 034d 00       		.uleb128 .LVL0-.LVL0
 3802 034e 19       		.uleb128 .LVL3-1-.LVL0
 3803 034f 01       		.uleb128 0x1
 3804 0350 50       		.byte	0x50
 3805 0351 04       		.byte	0x4
 3806 0352 19       		.uleb128 .LVL3-1-.LVL0
 3807 0353 20       		.uleb128 .LFE144-.LVL0
 3808 0354 04       		.uleb128 0x4
 3809 0355 A3       		.byte	0xa3
 3810 0356 01       		.uleb128 0x1
 3811 0357 50       		.byte	0x50
 3812 0358 9F       		.byte	0x9f
 3813 0359 00       		.byte	0
 3814              	.LVUS1:
 3815 035a 00       		.uleb128 0
 3816 035b 00       		.uleb128 .LVU6
 3817 035c 00       		.uleb128 .LVU6
 3818 035d 00       		.uleb128 .LVU8
 3819 035e 00       		.uleb128 .LVU8
ARM GAS  C:\Users\DEVELO~1\AppData\Local\Temp\ccBPZKTw.s 			page 68


 3820 035f 00       		.uleb128 0
 3821              	.LLST1:
 3822 0360 06       		.byte	0x6
 3823 0361 00000000 		.4byte	.LVL0
 3824 0365 04       		.byte	0x4
 3825 0366 00       		.uleb128 .LVL0-.LVL0
 3826 0367 0E       		.uleb128 .LVL1-.LVL0
 3827 0368 01       		.uleb128 0x1
 3828 0369 51       		.byte	0x51
 3829 036a 04       		.byte	0x4
 3830 036b 0E       		.uleb128 .LVL1-.LVL0
 3831 036c 19       		.uleb128 .LVL3-1-.LVL0
 3832 036d 02       		.uleb128 0x2
 3833 036e 91       		.byte	0x91
 3834 036f 64       		.sleb128 -28
 3835 0370 04       		.byte	0x4
 3836 0371 19       		.uleb128 .LVL3-1-.LVL0
 3837 0372 20       		.uleb128 .LFE144-.LVL0
 3838 0373 04       		.uleb128 0x4
 3839 0374 A3       		.byte	0xa3
 3840 0375 01       		.uleb128 0x1
 3841 0376 51       		.byte	0x51
 3842 0377 9F       		.byte	0x9f
 3843 0378 00       		.byte	0
 3844              	.LVUS2:
 3845 0379 00       		.uleb128 0
 3846 037a 00       		.uleb128 .LVU7
 3847 037b 00       		.uleb128 .LVU7
 3848 037c 00       		.uleb128 0
 3849              	.LLST2:
 3850 037d 06       		.byte	0x6
 3851 037e 00000000 		.4byte	.LVL0
 3852 0382 04       		.byte	0x4
 3853 0383 00       		.uleb128 .LVL0-.LVL0
 3854 0384 12       		.uleb128 .LVL2-.LVL0
 3855 0385 01       		.uleb128 0x1
 3856 0386 52       		.byte	0x52
 3857 0387 04       		.byte	0x4
 3858 0388 12       		.uleb128 .LVL2-.LVL0
 3859 0389 20       		.uleb128 .LFE144-.LVL0
 3860 038a 04       		.uleb128 0x4
 3861 038b A3       		.byte	0xa3
 3862 038c 01       		.uleb128 0x1
 3863 038d 52       		.byte	0x52
 3864 038e 9F       		.byte	0x9f
 3865 038f 00       		.byte	0
 3866              	.Ldebug_loc3:
 3867              		.section	.debug_aranges,"",%progbits
 3868 0000 5C000000 		.4byte	0x5c
 3869 0004 0200     		.2byte	0x2
 3870 0006 00000000 		.4byte	.Ldebug_info0
 3871 000a 04       		.byte	0x4
 3872 000b 00       		.byte	0
 3873 000c 0000     		.2byte	0
 3874 000e 0000     		.2byte	0
 3875 0010 00000000 		.4byte	.LFB144
 3876 0014 20000000 		.4byte	.LFE144-.LFB144
ARM GAS  C:\Users\DEVELO~1\AppData\Local\Temp\ccBPZKTw.s 			page 69


 3877 0018 00000000 		.4byte	.LFB145
 3878 001c 32000000 		.4byte	.LFE145-.LFB145
 3879 0020 00000000 		.4byte	.LFB146
 3880 0024 20000000 		.4byte	.LFE146-.LFB146
 3881 0028 00000000 		.4byte	.LFB147
 3882 002c 34000000 		.4byte	.LFE147-.LFB147
 3883 0030 00000000 		.4byte	.LFB148
 3884 0034 20000000 		.4byte	.LFE148-.LFB148
 3885 0038 00000000 		.4byte	.LFB149
 3886 003c 20000000 		.4byte	.LFE149-.LFB149
 3887 0040 00000000 		.4byte	.LFB150
 3888 0044 20000000 		.4byte	.LFE150-.LFB150
 3889 0048 00000000 		.4byte	.LFB151
 3890 004c 22000000 		.4byte	.LFE151-.LFB151
 3891 0050 00000000 		.4byte	.LFB152
 3892 0054 22000000 		.4byte	.LFE152-.LFB152
 3893 0058 00000000 		.4byte	0
 3894 005c 00000000 		.4byte	0
 3895              		.section	.debug_rnglists,"",%progbits
 3896              	.Ldebug_ranges0:
 3897 0000 3F000000 		.4byte	.Ldebug_ranges3-.Ldebug_ranges2
 3898              	.Ldebug_ranges2:
 3899 0004 0500     		.2byte	0x5
 3900 0006 04       		.byte	0x4
 3901 0007 00       		.byte	0
 3902 0008 00000000 		.4byte	0
 3903              	.LLRL37:
 3904 000c 07       		.byte	0x7
 3905 000d 00000000 		.4byte	.LFB144
 3906 0011 20       		.uleb128 .LFE144-.LFB144
 3907 0012 07       		.byte	0x7
 3908 0013 00000000 		.4byte	.LFB145
 3909 0017 32       		.uleb128 .LFE145-.LFB145
 3910 0018 07       		.byte	0x7
 3911 0019 00000000 		.4byte	.LFB146
 3912 001d 20       		.uleb128 .LFE146-.LFB146
 3913 001e 07       		.byte	0x7
 3914 001f 00000000 		.4byte	.LFB147
 3915 0023 34       		.uleb128 .LFE147-.LFB147
 3916 0024 07       		.byte	0x7
 3917 0025 00000000 		.4byte	.LFB148
 3918 0029 20       		.uleb128 .LFE148-.LFB148
 3919 002a 07       		.byte	0x7
 3920 002b 00000000 		.4byte	.LFB149
 3921 002f 20       		.uleb128 .LFE149-.LFB149
 3922 0030 07       		.byte	0x7
 3923 0031 00000000 		.4byte	.LFB150
 3924 0035 20       		.uleb128 .LFE150-.LFB150
 3925 0036 07       		.byte	0x7
 3926 0037 00000000 		.4byte	.LFB151
 3927 003b 22       		.uleb128 .LFE151-.LFB151
 3928 003c 07       		.byte	0x7
 3929 003d 00000000 		.4byte	.LFB152
 3930 0041 22       		.uleb128 .LFE152-.LFB152
 3931 0042 00       		.byte	0
 3932              	.Ldebug_ranges3:
 3933              		.section	.debug_line,"",%progbits
ARM GAS  C:\Users\DEVELO~1\AppData\Local\Temp\ccBPZKTw.s 			page 70


 3934              	.Ldebug_line0:
 3935 0000 6E030000 		.section	.debug_str,"MS",%progbits,1
 3935      0300AF01 
 3935      00000201 
 3935      FB0E0D00 
 3935      01010101 
 3936              	.LASF24:
 3937 0000 77496E64 		.ascii	"wIndex\000"
 3937      657800
 3938              	.LASF96:
 3939 0007 454E554D 		.ascii	"ENUM_GET_FULL_CFG_DESC\000"
 3939      5F474554 
 3939      5F46554C 
 3939      4C5F4346 
 3939      475F4445 
 3940              	.LASF95:
 3941 001e 454E554D 		.ascii	"ENUM_GET_CFG_DESC\000"
 3941      5F474554 
 3941      5F434647 
 3941      5F444553 
 3941      4300
 3942              	.LASF143:
 3943 0030 55534248 		.ascii	"USBH_DeviceTypeDef\000"
 3943      5F446576 
 3943      69636554 
 3943      79706544 
 3943      656600
 3944              	.LASF180:
 3945 0043 433A5C43 		.ascii	"C:\\ChibiStudio\\ChibiOS-master\\demos\\STM32\\CUST"
 3945      68696269 
 3945      53747564 
 3945      696F5C43 
 3945      68696269 
 3946 0071 4F4D5F48 		.ascii	"OM_H743IIT6_maj\000"
 3946      37343349 
 3946      4954365F 
 3946      6D616A00 
 3947              	.LASF54:
 3948 0081 62496E74 		.ascii	"bInterfaceSubClass\000"
 3948      65726661 
 3948      63655375 
 3948      62436C61 
 3948      737300
 3949              	.LASF153:
 3950 0094 67537461 		.ascii	"gState\000"
 3950      746500
 3951              	.LASF112:
 3952 009b 4354524C 		.ascii	"CTRL_ERROR\000"
 3952      5F455252 
 3952      4F5200
 3953              	.LASF138:
 3954 00a6 69735F52 		.ascii	"is_ReEnumerated\000"
 3954      65456E75 
 3954      6D657261 
 3954      74656400 
 3955              	.LASF146:
 3956 00b6 496E6974 		.ascii	"Init\000"
ARM GAS  C:\Users\DEVELO~1\AppData\Local\Temp\ccBPZKTw.s 			page 71


 3956      00
 3957              	.LASF179:
 3958 00bb 2E2F6472 		.ascii	"./drivers/usb/usb_host/stm32-mw-usb-host-master/stm"
 3958      69766572 
 3958      732F7573 
 3958      622F7573 
 3958      625F686F 
 3959 00ee 33322D6D 		.ascii	"32-mw-usb-host-master/Core/Src/usbh_ioreq.c\000"
 3959      772D7573 
 3959      622D686F 
 3959      73742D6D 
 3959      61737465 
 3960              	.LASF92:
 3961 011a 454E554D 		.ascii	"ENUM_IDLE\000"
 3961      5F49444C 
 3961      4500
 3962              	.LASF81:
 3963 0124 484F5354 		.ascii	"HOST_DETECT_DEVICE_SPEED\000"
 3963      5F444554 
 3963      4543545F 
 3963      44455649 
 3963      43455F53 
 3964              	.LASF182:
 3965 013d 55534248 		.ascii	"USBH_LL_SubmitURB\000"
 3965      5F4C4C5F 
 3965      5375626D 
 3965      69745552 
 3965      4200
 3966              	.LASF135:
 3967 014f 52737443 		.ascii	"RstCnt\000"
 3967      6E7400
 3968              	.LASF3:
 3969 0156 5F5F7569 		.ascii	"__uint8_t\000"
 3969      6E74385F 
 3969      7400
 3970              	.LASF57:
 3971 0160 45705F44 		.ascii	"Ep_Desc\000"
 3971      65736300 
 3972              	.LASF87:
 3973 0168 484F5354 		.ascii	"HOST_CHECK_CLASS\000"
 3973      5F434845 
 3973      434B5F43 
 3973      4C415353 
 3973      00
 3974              	.LASF178:
 3975 0179 474E5520 		.ascii	"GNU C17 11.3.1 20220712 -mcpu=cortex-m7 -mthumb -mf"
 3975      43313720 
 3975      31312E33 
 3975      2E312032 
 3975      30323230 
 3976 01ac 6C6F6174 		.ascii	"loat-abi=hard -mfpu=fpv5-d16 -march=armv7e-m+fp.dp "
 3976      2D616269 
 3976      3D686172 
 3976      64202D6D 
 3976      6670753D 
 3977 01df 2D676764 		.ascii	"-ggdb -O2 -ffunction-sections -fdata-sections -fno-"
 3977      62202D4F 
ARM GAS  C:\Users\DEVELO~1\AppData\Local\Temp\ccBPZKTw.s 			page 72


 3977      32202D66 
 3977      66756E63 
 3977      74696F6E 
 3978 0212 636F6D6D 		.ascii	"common\000"
 3978      6F6E00
 3979              	.LASF50:
 3980 0219 62496E74 		.ascii	"bInterfaceNumber\000"
 3980      65726661 
 3980      63654E75 
 3980      6D626572 
 3980      00
 3981              	.LASF86:
 3982 022a 484F5354 		.ascii	"HOST_SET_WAKEUP_FEATURE\000"
 3982      5F534554 
 3982      5F57414B 
 3982      4555505F 
 3982      46454154 
 3983              	.LASF73:
 3984 0242 55534248 		.ascii	"USBH_StatusTypeDef\000"
 3984      5F537461 
 3984      74757354 
 3984      79706544 
 3984      656600
 3985              	.LASF121:
 3986 0255 70697065 		.ascii	"pipe_out\000"
 3986      5F6F7574 
 3986      00
 3987              	.LASF139:
 3988 025e 506F7274 		.ascii	"PortEnabled\000"
 3988      456E6162 
 3988      6C656400 
 3989              	.LASF159:
 3990 026a 70416374 		.ascii	"pActiveClass\000"
 3990      69766543 
 3990      6C617373 
 3990      00
 3991              	.LASF79:
 3992 0277 484F5354 		.ascii	"HOST_DEV_ATTACHED\000"
 3992      5F444556 
 3992      5F415454 
 3992      41434845 
 3992      4400
 3993              	.LASF91:
 3994 0289 484F5354 		.ascii	"HOST_StateTypeDef\000"
 3994      5F537461 
 3994      74655479 
 3994      70654465 
 3994      6600
 3995              	.LASF60:
 3996 029b 77546F74 		.ascii	"wTotalLength\000"
 3996      616C4C65 
 3996      6E677468 
 3996      00
 3997              	.LASF140:
 3998 02a8 63757272 		.ascii	"current_interface\000"
 3998      656E745F 
 3998      696E7465 
ARM GAS  C:\Users\DEVELO~1\AppData\Local\Temp\ccBPZKTw.s 			page 73


 3998      72666163 
 3998      6500
 3999              	.LASF88:
 4000 02ba 484F5354 		.ascii	"HOST_CLASS\000"
 4000      5F434C41 
 4000      535300
 4001              	.LASF76:
 4002 02c5 55534248 		.ascii	"USBH_SPEED_LOW\000"
 4002      5F535045 
 4002      45445F4C 
 4002      4F5700
 4003              	.LASF55:
 4004 02d4 62496E74 		.ascii	"bInterfaceProtocol\000"
 4004      65726661 
 4004      63655072 
 4004      6F746F63 
 4004      6F6C00
 4005              	.LASF157:
 4006 02e7 64657669 		.ascii	"device\000"
 4006      636500
 4007              	.LASF9:
 4008 02ee 6C6F6E67 		.ascii	"long long int\000"
 4008      206C6F6E 
 4008      6720696E 
 4008      7400
 4009              	.LASF1:
 4010 02fc 7369676E 		.ascii	"signed char\000"
 4010      65642063 
 4010      68617200 
 4011              	.LASF118:
 4012 0308 434D445F 		.ascii	"CMD_WAIT\000"
 4012      57414954 
 4012      00
 4013              	.LASF170:
 4014 0311 55534248 		.ascii	"USBH_IsocReceiveData\000"
 4014      5F49736F 
 4014      63526563 
 4014      65697665 
 4014      44617461 
 4015              	.LASF74:
 4016 0326 55534248 		.ascii	"USBH_SPEED_HIGH\000"
 4016      5F535045 
 4016      45445F48 
 4016      49474800 
 4017              	.LASF115:
 4018 0336 4354524C 		.ascii	"CTRL_StateTypeDef\000"
 4018      5F537461 
 4018      74655479 
 4018      70654465 
 4018      6600
 4019              	.LASF150:
 4020 0348 534F4650 		.ascii	"SOFProcess\000"
 4020      726F6365 
 4020      737300
 4021              	.LASF10:
 4022 0353 6C6F6E67 		.ascii	"long long unsigned int\000"
 4022      206C6F6E 
ARM GAS  C:\Users\DEVELO~1\AppData\Local\Temp\ccBPZKTw.s 			page 74


 4022      6720756E 
 4022      7369676E 
 4022      65642069 
 4023              	.LASF37:
 4024 036a 62636444 		.ascii	"bcdDevice\000"
 4024      65766963 
 4024      6500
 4025              	.LASF176:
 4026 0374 55534248 		.ascii	"USBH_CtlReceiveData\000"
 4026      5F43746C 
 4026      52656365 
 4026      69766544 
 4026      61746100 
 4027              	.LASF123:
 4028 0388 62756666 		.ascii	"buff\000"
 4028      00
 4029              	.LASF127:
 4030 038d 73746174 		.ascii	"state\000"
 4030      6500
 4031              	.LASF85:
 4032 0393 484F5354 		.ascii	"HOST_SET_CONFIGURATION\000"
 4032      5F534554 
 4032      5F434F4E 
 4032      46494755 
 4032      52415449 
 4033              	.LASF6:
 4034 03aa 6C6F6E67 		.ascii	"long int\000"
 4034      20696E74 
 4034      00
 4035              	.LASF156:
 4036 03b3 436F6E74 		.ascii	"Control\000"
 4036      726F6C00 
 4037              	.LASF164:
 4038 03bb 70557365 		.ascii	"pUser\000"
 4038      7200
 4039              	.LASF108:
 4040 03c1 4354524C 		.ascii	"CTRL_STATUS_IN\000"
 4040      5F535441 
 4040      5455535F 
 4040      494E00
 4041              	.LASF84:
 4042 03d0 484F5354 		.ascii	"HOST_INPUT\000"
 4042      5F494E50 
 4042      555400
 4043              	.LASF23:
 4044 03db 7756616C 		.ascii	"wValue\000"
 4044      756500
 4045              	.LASF13:
 4046 03e2 75696E74 		.ascii	"uint16_t\000"
 4046      31365F74 
 4046      00
 4047              	.LASF18:
 4048 03eb 646F7562 		.ascii	"double\000"
 4048      6C6500
 4049              	.LASF171:
 4050 03f2 55534248 		.ascii	"USBH_InterruptSendData\000"
 4050      5F496E74 
ARM GAS  C:\Users\DEVELO~1\AppData\Local\Temp\ccBPZKTw.s 			page 75


 4050      65727275 
 4050      70745365 
 4050      6E644461 
 4051              	.LASF38:
 4052 0409 694D616E 		.ascii	"iManufacturer\000"
 4052      75666163 
 4052      74757265 
 4052      7200
 4053              	.LASF148:
 4054 0417 52657175 		.ascii	"Requests\000"
 4054      65737473 
 4054      00
 4055              	.LASF154:
 4056 0420 456E756D 		.ascii	"EnumState\000"
 4056      53746174 
 4056      6500
 4057              	.LASF168:
 4058 042a 70697065 		.ascii	"pipe_num\000"
 4058      5F6E756D 
 4058      00
 4059              	.LASF101:
 4060 0433 4354524C 		.ascii	"CTRL_IDLE\000"
 4060      5F49444C 
 4060      4500
 4061              	.LASF39:
 4062 043d 6950726F 		.ascii	"iProduct\000"
 4062      64756374 
 4062      00
 4063              	.LASF90:
 4064 0446 484F5354 		.ascii	"HOST_ABORT_STATE\000"
 4064      5F41424F 
 4064      52545F53 
 4064      54415445 
 4064      00
 4065              	.LASF151:
 4066 0457 70446174 		.ascii	"pData\000"
 4066      6100
 4067              	.LASF36:
 4068 045d 69645072 		.ascii	"idProduct\000"
 4068      6F647563 
 4068      7400
 4069              	.LASF7:
 4070 0467 5F5F7569 		.ascii	"__uint32_t\000"
 4070      6E743332 
 4070      5F7400
 4071              	.LASF166:
 4072 0472 55534248 		.ascii	"USBH_HandleTypeDef\000"
 4072      5F48616E 
 4072      646C6554 
 4072      79706544 
 4072      656600
 4073              	.LASF175:
 4074 0485 646F5F70 		.ascii	"do_ping\000"
 4074      696E6700 
 4075              	.LASF106:
 4076 048d 4354524C 		.ascii	"CTRL_DATA_OUT\000"
 4076      5F444154 
ARM GAS  C:\Users\DEVELO~1\AppData\Local\Temp\ccBPZKTw.s 			page 76


 4076      415F4F55 
 4076      5400
 4077              	.LASF21:
 4078 049b 626D5265 		.ascii	"bmRequestType\000"
 4078      71756573 
 4078      74547970 
 4078      6500
 4079              	.LASF82:
 4080 04a9 484F5354 		.ascii	"HOST_ENUMERATION\000"
 4080      5F454E55 
 4080      4D455241 
 4080      54494F4E 
 4080      00
 4081              	.LASF145:
 4082 04ba 436C6173 		.ascii	"ClassCode\000"
 4082      73436F64 
 4082      6500
 4083              	.LASF129:
 4084 04c4 55534248 		.ascii	"USBH_CtrlTypeDef\000"
 4084      5F437472 
 4084      6C547970 
 4084      65446566 
 4084      00
 4085              	.LASF20:
 4086 04d5 5F536574 		.ascii	"_SetupPkt_Struc\000"
 4086      7570506B 
 4086      745F5374 
 4086      72756300 
 4087              	.LASF30:
 4088 04e5 62636455 		.ascii	"bcdUSB\000"
 4088      534200
 4089              	.LASF107:
 4090 04ec 4354524C 		.ascii	"CTRL_DATA_OUT_WAIT\000"
 4090      5F444154 
 4090      415F4F55 
 4090      545F5741 
 4090      495400
 4091              	.LASF11:
 4092 04ff 756E7369 		.ascii	"unsigned int\000"
 4092      676E6564 
 4092      20696E74 
 4092      00
 4093              	.LASF147:
 4094 050c 4465496E 		.ascii	"DeInit\000"
 4094      697400
 4095              	.LASF32:
 4096 0513 62446576 		.ascii	"bDeviceSubClass\000"
 4096      69636553 
 4096      7562436C 
 4096      61737300 
 4097              	.LASF40:
 4098 0523 69536572 		.ascii	"iSerialNumber\000"
 4098      69616C4E 
 4098      756D6265 
 4098      7200
 4099              	.LASF8:
 4100 0531 6C6F6E67 		.ascii	"long unsigned int\000"
ARM GAS  C:\Users\DEVELO~1\AppData\Local\Temp\ccBPZKTw.s 			page 77


 4100      20756E73 
 4100      69676E65 
 4100      6420696E 
 4100      7400
 4101              	.LASF158:
 4102 0543 70436C61 		.ascii	"pClass\000"
 4102      737300
 4103              	.LASF177:
 4104 054a 55534248 		.ascii	"USBH_CtlSendData\000"
 4104      5F43746C 
 4104      53656E64 
 4104      44617461 
 4104      00
 4105              	.LASF117:
 4106 055b 434D445F 		.ascii	"CMD_SEND\000"
 4106      53454E44 
 4106      00
 4107              	.LASF5:
 4108 0564 73686F72 		.ascii	"short unsigned int\000"
 4108      7420756E 
 4108      7369676E 
 4108      65642069 
 4108      6E7400
 4109              	.LASF113:
 4110 0577 4354524C 		.ascii	"CTRL_STALLED\000"
 4110      5F535441 
 4110      4C4C4544 
 4110      00
 4111              	.LASF98:
 4112 0584 454E554D 		.ascii	"ENUM_GET_PRODUCT_STRING_DESC\000"
 4112      5F474554 
 4112      5F50524F 
 4112      44554354 
 4112      5F535452 
 4113              	.LASF69:
 4114 05a1 55534248 		.ascii	"USBH_FAIL\000"
 4114      5F464149 
 4114      4C00
 4115              	.LASF48:
 4116 05ab 55534248 		.ascii	"USBH_EpDescTypeDef\000"
 4116      5F457044 
 4116      65736354 
 4116      79706544 
 4116      656600
 4117              	.LASF161:
 4118 05be 50697065 		.ascii	"Pipes\000"
 4118      7300
 4119              	.LASF29:
 4120 05c4 62446573 		.ascii	"bDescriptorType\000"
 4120      63726970 
 4120      746F7254 
 4120      79706500 
 4121              	.LASF0:
 4122 05d4 73686F72 		.ascii	"short int\000"
 4122      7420696E 
 4122      7400
 4123              	.LASF141:
ARM GAS  C:\Users\DEVELO~1\AppData\Local\Temp\ccBPZKTw.s 			page 78


 4124 05de 44657644 		.ascii	"DevDesc\000"
 4124      65736300 
 4125              	.LASF152:
 4126 05e6 5F555342 		.ascii	"_USBH_HandleTypeDef\000"
 4126      485F4861 
 4126      6E646C65 
 4126      54797065 
 4126      44656600 
 4127              	.LASF89:
 4128 05fa 484F5354 		.ascii	"HOST_SUSPENDED\000"
 4128      5F535553 
 4128      50454E44 
 4128      454400
 4129              	.LASF34:
 4130 0609 624D6178 		.ascii	"bMaxPacketSize\000"
 4130      5061636B 
 4130      65745369 
 4130      7A6500
 4131              	.LASF130:
 4132 0618 43666744 		.ascii	"CfgDesc_Raw\000"
 4132      6573635F 
 4132      52617700 
 4133              	.LASF120:
 4134 0624 70697065 		.ascii	"pipe_in\000"
 4134      5F696E00 
 4135              	.LASF162:
 4136 062c 54696D65 		.ascii	"Timer\000"
 4136      7200
 4137              	.LASF47:
 4138 0632 62496E74 		.ascii	"bInterval\000"
 4138      65727661 
 4138      6C00
 4139              	.LASF128:
 4140 063c 6572726F 		.ascii	"errorcount\000"
 4140      72636F75 
 4140      6E7400
 4141              	.LASF19:
 4142 0647 75696E74 		.ascii	"uint16_t_uint8_t\000"
 4142      31365F74 
 4142      5F75696E 
 4142      74385F74 
 4142      00
 4143              	.LASF116:
 4144 0658 434D445F 		.ascii	"CMD_IDLE\000"
 4144      49444C45 
 4144      00
 4145              	.LASF104:
 4146 0661 4354524C 		.ascii	"CTRL_DATA_IN\000"
 4146      5F444154 
 4146      415F494E 
 4146      00
 4147              	.LASF132:
 4148 066e 61646472 		.ascii	"address\000"
 4148      65737300 
 4149              	.LASF93:
 4150 0676 454E554D 		.ascii	"ENUM_GET_FULL_DEV_DESC\000"
 4150      5F474554 
ARM GAS  C:\Users\DEVELO~1\AppData\Local\Temp\ccBPZKTw.s 			page 79


 4150      5F46554C 
 4150      4C5F4445 
 4150      565F4445 
 4151              	.LASF97:
 4152 068d 454E554D 		.ascii	"ENUM_GET_MFC_STRING_DESC\000"
 4152      5F474554 
 4152      5F4D4643 
 4152      5F535452 
 4152      494E475F 
 4153              	.LASF45:
 4154 06a6 626D4174 		.ascii	"bmAttributes\000"
 4154      74726962 
 4154      75746573 
 4154      00
 4155              	.LASF181:
 4156 06b3 5F555342 		.ascii	"_USB_Setup\000"
 4156      5F536574 
 4156      757000
 4157              	.LASF126:
 4158 06be 73657475 		.ascii	"setup\000"
 4158      7000
 4159              	.LASF43:
 4160 06c4 5F456E64 		.ascii	"_EndpointDescriptor\000"
 4160      706F696E 
 4160      74446573 
 4160      63726970 
 4160      746F7200 
 4161              	.LASF68:
 4162 06d8 55534248 		.ascii	"USBH_BUSY\000"
 4162      5F425553 
 4162      5900
 4163              	.LASF105:
 4164 06e2 4354524C 		.ascii	"CTRL_DATA_IN_WAIT\000"
 4164      5F444154 
 4164      415F494E 
 4164      5F574149 
 4164      5400
 4165              	.LASF17:
 4166 06f4 666C6F61 		.ascii	"float\000"
 4166      7400
 4167              	.LASF155:
 4168 06fa 52657175 		.ascii	"RequestState\000"
 4168      65737453 
 4168      74617465 
 4168      00
 4169              	.LASF70:
 4170 0707 55534248 		.ascii	"USBH_NOT_SUPPORTED\000"
 4170      5F4E4F54 
 4170      5F535550 
 4170      504F5254 
 4170      454400
 4171              	.LASF77:
 4172 071a 484F5354 		.ascii	"HOST_IDLE\000"
 4172      5F49444C 
 4172      4500
 4173              	.LASF44:
 4174 0724 62456E64 		.ascii	"bEndpointAddress\000"
ARM GAS  C:\Users\DEVELO~1\AppData\Local\Temp\ccBPZKTw.s 			page 80


 4174      706F696E 
 4174      74416464 
 4174      72657373 
 4174      00
 4175              	.LASF65:
 4176 0735 4974665F 		.ascii	"Itf_Desc\000"
 4176      44657363 
 4176      00
 4177              	.LASF111:
 4178 073e 4354524C 		.ascii	"CTRL_STATUS_OUT_WAIT\000"
 4178      5F535441 
 4178      5455535F 
 4178      4F55545F 
 4178      57414954 
 4179              	.LASF51:
 4180 0753 62416C74 		.ascii	"bAlternateSetting\000"
 4180      65726E61 
 4180      74655365 
 4180      7474696E 
 4180      6700
 4181              	.LASF56:
 4182 0765 69496E74 		.ascii	"iInterface\000"
 4182      65726661 
 4182      636500
 4183              	.LASF72:
 4184 0770 55534248 		.ascii	"USBH_ERROR_SPEED_UNKNOWN\000"
 4184      5F455252 
 4184      4F525F53 
 4184      50454544 
 4184      5F554E4B 
 4185              	.LASF2:
 4186 0789 756E7369 		.ascii	"unsigned char\000"
 4186      676E6564 
 4186      20636861 
 4186      7200
 4187              	.LASF53:
 4188 0797 62496E74 		.ascii	"bInterfaceClass\000"
 4188      65726661 
 4188      6365436C 
 4188      61737300 
 4189              	.LASF134:
 4190 07a7 456E756D 		.ascii	"EnumCnt\000"
 4190      436E7400 
 4191              	.LASF119:
 4192 07af 434D445F 		.ascii	"CMD_StateTypeDef\000"
 4192      53746174 
 4192      65547970 
 4192      65446566 
 4192      00
 4193              	.LASF71:
 4194 07c0 55534248 		.ascii	"USBH_UNRECOVERED_ERROR\000"
 4194      5F554E52 
 4194      45434F56 
 4194      45524544 
 4194      5F455252 
 4195              	.LASF62:
 4196 07d7 62436F6E 		.ascii	"bConfigurationValue\000"
ARM GAS  C:\Users\DEVELO~1\AppData\Local\Temp\ccBPZKTw.s 			page 81


 4196      66696775 
 4196      72617469 
 4196      6F6E5661 
 4196      6C756500 
 4197              	.LASF165:
 4198 07eb 55534248 		.ascii	"USBH_ClassTypeDef\000"
 4198      5F436C61 
 4198      73735479 
 4198      70654465 
 4198      6600
 4199              	.LASF160:
 4200 07fd 436C6173 		.ascii	"ClassNumber\000"
 4200      734E756D 
 4200      62657200 
 4201              	.LASF59:
 4202 0809 5F436F6E 		.ascii	"_ConfigurationDescriptor\000"
 4202      66696775 
 4202      72617469 
 4202      6F6E4465 
 4202      73637269 
 4203              	.LASF63:
 4204 0822 69436F6E 		.ascii	"iConfiguration\000"
 4204      66696775 
 4204      72617469 
 4204      6F6E00
 4205              	.LASF102:
 4206 0831 4354524C 		.ascii	"CTRL_SETUP\000"
 4206      5F534554 
 4206      555000
 4207              	.LASF33:
 4208 083c 62446576 		.ascii	"bDeviceProtocol\000"
 4208      69636550 
 4208      726F746F 
 4208      636F6C00 
 4209              	.LASF167:
 4210 084c 70686F73 		.ascii	"phost\000"
 4210      7400
 4211              	.LASF22:
 4212 0852 62526571 		.ascii	"bRequest\000"
 4212      75657374 
 4212      00
 4213              	.LASF163:
 4214 085b 54696D65 		.ascii	"Timeout\000"
 4214      6F757400 
 4215              	.LASF26:
 4216 0863 5553425F 		.ascii	"USB_Setup_TypeDef\000"
 4216      53657475 
 4216      705F5479 
 4216      70654465 
 4216      6600
 4217              	.LASF109:
 4218 0875 4354524C 		.ascii	"CTRL_STATUS_IN_WAIT\000"
 4218      5F535441 
 4218      5455535F 
 4218      494E5F57 
 4218      41495400 
 4219              	.LASF173:
ARM GAS  C:\Users\DEVELO~1\AppData\Local\Temp\ccBPZKTw.s 			page 82


 4220 0889 55534248 		.ascii	"USBH_BulkReceiveData\000"
 4220      5F42756C 
 4220      6B526563 
 4220      65697665 
 4220      44617461 
 4221              	.LASF80:
 4222 089e 484F5354 		.ascii	"HOST_DEV_DISCONNECTED\000"
 4222      5F444556 
 4222      5F444953 
 4222      434F4E4E 
 4222      45435445 
 4223              	.LASF52:
 4224 08b4 624E756D 		.ascii	"bNumEndpoints\000"
 4224      456E6470 
 4224      6F696E74 
 4224      7300
 4225              	.LASF169:
 4226 08c2 55534248 		.ascii	"USBH_IsocSendData\000"
 4226      5F49736F 
 4226      6353656E 
 4226      64446174 
 4226      6100
 4227              	.LASF15:
 4228 08d4 6C6F6E67 		.ascii	"long double\000"
 4228      20646F75 
 4228      626C6500 
 4229              	.LASF124:
 4230 08e0 6C656E67 		.ascii	"length\000"
 4230      746800
 4231              	.LASF137:
 4232 08e7 69735F64 		.ascii	"is_disconnected\000"
 4232      6973636F 
 4232      6E6E6563 
 4232      74656400 
 4233              	.LASF16:
 4234 08f7 63686172 		.ascii	"char\000"
 4234      00
 4235              	.LASF31:
 4236 08fc 62446576 		.ascii	"bDeviceClass\000"
 4236      69636543 
 4236      6C617373 
 4236      00
 4237              	.LASF100:
 4238 0909 454E554D 		.ascii	"ENUM_StateTypeDef\000"
 4238      5F537461 
 4238      74655479 
 4238      70654465 
 4238      6600
 4239              	.LASF4:
 4240 091b 5F5F7569 		.ascii	"__uint16_t\000"
 4240      6E743136 
 4240      5F7400
 4241              	.LASF83:
 4242 0926 484F5354 		.ascii	"HOST_CLASS_REQUEST\000"
 4242      5F434C41 
 4242      53535F52 
 4242      45515545 
ARM GAS  C:\Users\DEVELO~1\AppData\Local\Temp\ccBPZKTw.s 			page 83


 4242      535400
 4243              	.LASF46:
 4244 0939 774D6178 		.ascii	"wMaxPacketSize\000"
 4244      5061636B 
 4244      65745369 
 4244      7A6500
 4245              	.LASF66:
 4246 0948 55534248 		.ascii	"USBH_CfgDescTypeDef\000"
 4246      5F436667 
 4246      44657363 
 4246      54797065 
 4246      44656600 
 4247              	.LASF149:
 4248 095c 42676E64 		.ascii	"BgndProcess\000"
 4248      50726F63 
 4248      65737300 
 4249              	.LASF114:
 4250 0968 4354524C 		.ascii	"CTRL_COMPLETE\000"
 4250      5F434F4D 
 4250      504C4554 
 4250      4500
 4251              	.LASF61:
 4252 0976 624E756D 		.ascii	"bNumInterfaces\000"
 4252      496E7465 
 4252      72666163 
 4252      657300
 4253              	.LASF172:
 4254 0985 55534248 		.ascii	"USBH_InterruptReceiveData\000"
 4254      5F496E74 
 4254      65727275 
 4254      70745265 
 4254      63656976 
 4255              	.LASF110:
 4256 099f 4354524C 		.ascii	"CTRL_STATUS_OUT\000"
 4256      5F535441 
 4256      5455535F 
 4256      4F555400 
 4257              	.LASF27:
 4258 09af 5F446576 		.ascii	"_DeviceDescriptor\000"
 4258      69636544 
 4258      65736372 
 4258      6970746F 
 4258      7200
 4259              	.LASF122:
 4260 09c1 70697065 		.ascii	"pipe_size\000"
 4260      5F73697A 
 4260      6500
 4261              	.LASF14:
 4262 09cb 75696E74 		.ascii	"uint32_t\000"
 4262      33325F74 
 4262      00
 4263              	.LASF28:
 4264 09d4 624C656E 		.ascii	"bLength\000"
 4264      67746800 
 4265              	.LASF75:
 4266 09dc 55534248 		.ascii	"USBH_SPEED_FULL\000"
 4266      5F535045 
ARM GAS  C:\Users\DEVELO~1\AppData\Local\Temp\ccBPZKTw.s 			page 84


 4266      45445F46 
 4266      554C4C00 
 4267              	.LASF174:
 4268 09ec 55534248 		.ascii	"USBH_BulkSendData\000"
 4268      5F42756C 
 4268      6B53656E 
 4268      64446174 
 4268      6100
 4269              	.LASF94:
 4270 09fe 454E554D 		.ascii	"ENUM_SET_ADDR\000"
 4270      5F534554 
 4270      5F414444 
 4270      5200
 4271              	.LASF183:
 4272 0a0c 55534248 		.ascii	"USBH_CtlSendSetup\000"
 4272      5F43746C 
 4272      53656E64 
 4272      53657475 
 4272      7000
 4273              	.LASF144:
 4274 0a1e 4E616D65 		.ascii	"Name\000"
 4274      00
 4275              	.LASF12:
 4276 0a23 75696E74 		.ascii	"uint8_t\000"
 4276      385F7400 
 4277              	.LASF49:
 4278 0a2b 5F496E74 		.ascii	"_InterfaceDescriptor\000"
 4278      65726661 
 4278      63654465 
 4278      73637269 
 4278      70746F72 
 4279              	.LASF131:
 4280 0a40 44617461 		.ascii	"Data\000"
 4280      00
 4281              	.LASF125:
 4282 0a45 74696D65 		.ascii	"timer\000"
 4282      7200
 4283              	.LASF25:
 4284 0a4b 774C656E 		.ascii	"wLength\000"
 4284      67746800 
 4285              	.LASF78:
 4286 0a53 484F5354 		.ascii	"HOST_DEV_WAIT_FOR_ATTACHMENT\000"
 4286      5F444556 
 4286      5F574149 
 4286      545F464F 
 4286      525F4154 
 4287              	.LASF133:
 4288 0a70 73706565 		.ascii	"speed\000"
 4288      6400
 4289              	.LASF142:
 4290 0a76 43666744 		.ascii	"CfgDesc\000"
 4290      65736300 
 4291              	.LASF58:
 4292 0a7e 55534248 		.ascii	"USBH_InterfaceDescTypeDef\000"
 4292      5F496E74 
 4292      65726661 
 4292      63654465 
ARM GAS  C:\Users\DEVELO~1\AppData\Local\Temp\ccBPZKTw.s 			page 85


 4292      73635479 
 4293              	.LASF136:
 4294 0a98 69735F63 		.ascii	"is_connected\000"
 4294      6F6E6E65 
 4294      63746564 
 4294      00
 4295              	.LASF42:
 4296 0aa5 55534248 		.ascii	"USBH_DevDescTypeDef\000"
 4296      5F446576 
 4296      44657363 
 4296      54797065 
 4296      44656600 
 4297              	.LASF41:
 4298 0ab9 624E756D 		.ascii	"bNumConfigurations\000"
 4298      436F6E66 
 4298      69677572 
 4298      6174696F 
 4298      6E7300
 4299              	.LASF67:
 4300 0acc 55534248 		.ascii	"USBH_OK\000"
 4300      5F4F4B00 
 4301              	.LASF99:
 4302 0ad4 454E554D 		.ascii	"ENUM_GET_SERIALNUM_STRING_DESC\000"
 4302      5F474554 
 4302      5F534552 
 4302      49414C4E 
 4302      554D5F53 
 4303              	.LASF103:
 4304 0af3 4354524C 		.ascii	"CTRL_SETUP_WAIT\000"
 4304      5F534554 
 4304      55505F57 
 4304      41495400 
 4305              	.LASF35:
 4306 0b03 69645665 		.ascii	"idVendor\000"
 4306      6E646F72 
 4306      00
 4307              	.LASF64:
 4308 0b0c 624D6178 		.ascii	"bMaxPower\000"
 4308      506F7765 
 4308      7200
 4309              		.ident	"GCC: (Arm GNU Toolchain 11.3.Rel1) 11.3.1 20220712"
ARM GAS  C:\Users\DEVELO~1\AppData\Local\Temp\ccBPZKTw.s 			page 86


DEFINED SYMBOLS
                            *ABS*:00000000 usbh_ioreq.c
C:\Users\DEVELO~1\AppData\Local\Temp\ccBPZKTw.s:19     .text.USBH_CtlSendSetup:00000000 $t
C:\Users\DEVELO~1\AppData\Local\Temp\ccBPZKTw.s:26     .text.USBH_CtlSendSetup:00000000 USBH_CtlSendSetup
C:\Users\DEVELO~1\AppData\Local\Temp\ccBPZKTw.s:72     .text.USBH_CtlSendData:00000000 $t
C:\Users\DEVELO~1\AppData\Local\Temp\ccBPZKTw.s:79     .text.USBH_CtlSendData:00000000 USBH_CtlSendData
C:\Users\DEVELO~1\AppData\Local\Temp\ccBPZKTw.s:137    .text.USBH_CtlReceiveData:00000000 $t
C:\Users\DEVELO~1\AppData\Local\Temp\ccBPZKTw.s:144    .text.USBH_CtlReceiveData:00000000 USBH_CtlReceiveData
C:\Users\DEVELO~1\AppData\Local\Temp\ccBPZKTw.s:191    .text.USBH_BulkSendData:00000000 $t
C:\Users\DEVELO~1\AppData\Local\Temp\ccBPZKTw.s:198    .text.USBH_BulkSendData:00000000 USBH_BulkSendData
C:\Users\DEVELO~1\AppData\Local\Temp\ccBPZKTw.s:256    .text.USBH_BulkReceiveData:00000000 $t
C:\Users\DEVELO~1\AppData\Local\Temp\ccBPZKTw.s:263    .text.USBH_BulkReceiveData:00000000 USBH_BulkReceiveData
C:\Users\DEVELO~1\AppData\Local\Temp\ccBPZKTw.s:309    .text.USBH_InterruptReceiveData:00000000 $t
C:\Users\DEVELO~1\AppData\Local\Temp\ccBPZKTw.s:316    .text.USBH_InterruptReceiveData:00000000 USBH_InterruptReceiveData
C:\Users\DEVELO~1\AppData\Local\Temp\ccBPZKTw.s:362    .text.USBH_InterruptSendData:00000000 $t
C:\Users\DEVELO~1\AppData\Local\Temp\ccBPZKTw.s:369    .text.USBH_InterruptSendData:00000000 USBH_InterruptSendData
C:\Users\DEVELO~1\AppData\Local\Temp\ccBPZKTw.s:416    .text.USBH_IsocReceiveData:00000000 $t
C:\Users\DEVELO~1\AppData\Local\Temp\ccBPZKTw.s:423    .text.USBH_IsocReceiveData:00000000 USBH_IsocReceiveData
C:\Users\DEVELO~1\AppData\Local\Temp\ccBPZKTw.s:469    .text.USBH_IsocSendData:00000000 $t
C:\Users\DEVELO~1\AppData\Local\Temp\ccBPZKTw.s:476    .text.USBH_IsocSendData:00000000 USBH_IsocSendData

UNDEFINED SYMBOLS
USBH_LL_SubmitURB
