ARM GAS  C:\Users\DEVELO~1\AppData\Local\Temp\cc1tck9J.s 			page 1


   1              		.cpu cortex-m7
   2              		.arch armv7e-m
   3              		.fpu fpv5-d16
   4              		.eabi_attribute 28, 1
   5              		.eabi_attribute 20, 1
   6              		.eabi_attribute 21, 1
   7              		.eabi_attribute 23, 3
   8              		.eabi_attribute 24, 1
   9              		.eabi_attribute 25, 1
  10              		.eabi_attribute 26, 1
  11              		.eabi_attribute 30, 2
  12              		.eabi_attribute 34, 1
  13              		.eabi_attribute 18, 4
  14              		.file	"usbh_pipes.c"
  15              		.text
  16              	.Ltext0:
  17              		.cfi_sections	.debug_frame
  18              		.section	.text.USBH_OpenPipe,"ax",%progbits
  19              		.align	1
  20              		.p2align 2,,3
  21              		.global	USBH_OpenPipe
  22              		.syntax unified
  23              		.thumb
  24              		.thumb_func
  25              		.type	USBH_OpenPipe, %function
  26              	USBH_OpenPipe:
  27              	.LVL0:
  28              	.LFB144:
  29              		.file 1 "./drivers/usb/usb_host/stm32-mw-usb-host-master/stm32-mw-usb-host-master/Core/Src/usbh_pi
  30              		.loc 1 87 1 view -0
  31              		.cfi_startproc
  32              		@ args = 12, pretend = 0, frame = 0
  33              		@ frame_needed = 0, uses_anonymous_args = 0
  34              		.loc 1 88 3 view .LVU1
  35              		.loc 1 87 1 is_stmt 0 view .LVU2
  36 0000 10B5     		push	{r4, lr}
  37              		.cfi_def_cfa_offset 8
  38              		.cfi_offset 4, -8
  39              		.cfi_offset 14, -4
  40 0002 84B0     		sub	sp, sp, #16
  41              		.cfi_def_cfa_offset 24
  42              		.loc 1 87 1 view .LVU3
  43 0004 9DF81840 		ldrb	r4, [sp, #24]	@ zero_extendqisi2
  44              		.loc 1 88 9 view .LVU4
  45 0008 0094     		str	r4, [sp]
  46              		.loc 1 87 1 view .LVU5
  47 000a 9DF81C40 		ldrb	r4, [sp, #28]	@ zero_extendqisi2
  48              		.loc 1 88 9 view .LVU6
  49 000e 0194     		str	r4, [sp, #4]
  50              		.loc 1 87 1 view .LVU7
  51 0010 BDF82040 		ldrh	r4, [sp, #32]
  52              		.loc 1 88 9 view .LVU8
  53 0014 0294     		str	r4, [sp, #8]
  54 0016 FFF7FEFF 		bl	USBH_LL_OpenPipe
  55              	.LVL1:
  56              		.loc 1 90 3 is_stmt 1 view .LVU9
  57              		.loc 1 91 1 is_stmt 0 view .LVU10
ARM GAS  C:\Users\DEVELO~1\AppData\Local\Temp\cc1tck9J.s 			page 2


  58 001a 0020     		movs	r0, #0
  59 001c 04B0     		add	sp, sp, #16
  60              		.cfi_def_cfa_offset 8
  61              		@ sp needed
  62 001e 10BD     		pop	{r4, pc}
  63              		.loc 1 91 1 view .LVU11
  64              		.cfi_endproc
  65              	.LFE144:
  66              		.size	USBH_OpenPipe, .-USBH_OpenPipe
  67              		.section	.text.USBH_ClosePipe,"ax",%progbits
  68              		.align	1
  69              		.p2align 2,,3
  70              		.global	USBH_ClosePipe
  71              		.syntax unified
  72              		.thumb
  73              		.thumb_func
  74              		.type	USBH_ClosePipe, %function
  75              	USBH_ClosePipe:
  76              	.LVL2:
  77              	.LFB145:
  78              		.loc 1 117 1 is_stmt 1 view -0
  79              		.cfi_startproc
  80              		@ args = 0, pretend = 0, frame = 0
  81              		@ frame_needed = 0, uses_anonymous_args = 0
  82              		.loc 1 118 3 view .LVU13
  83              		.loc 1 117 1 is_stmt 0 view .LVU14
  84 0000 08B5     		push	{r3, lr}
  85              		.cfi_def_cfa_offset 8
  86              		.cfi_offset 3, -8
  87              		.cfi_offset 14, -4
  88              		.loc 1 118 9 view .LVU15
  89 0002 FFF7FEFF 		bl	USBH_LL_ClosePipe
  90              	.LVL3:
  91              		.loc 1 120 3 is_stmt 1 view .LVU16
  92              		.loc 1 121 1 is_stmt 0 view .LVU17
  93 0006 0020     		movs	r0, #0
  94 0008 08BD     		pop	{r3, pc}
  95              		.cfi_endproc
  96              	.LFE145:
  97              		.size	USBH_ClosePipe, .-USBH_ClosePipe
  98 000a 00BF     		.section	.text.USBH_AllocPipe,"ax",%progbits
  99              		.align	1
 100              		.p2align 2,,3
 101              		.global	USBH_AllocPipe
 102              		.syntax unified
 103              		.thumb
 104              		.thumb_func
 105              		.type	USBH_AllocPipe, %function
 106              	USBH_AllocPipe:
 107              	.LVL4:
 108              	.LFB146:
 109              		.loc 1 132 1 is_stmt 1 view -0
 110              		.cfi_startproc
 111              		@ args = 0, pretend = 0, frame = 0
 112              		@ frame_needed = 0, uses_anonymous_args = 0
 113              		@ link register save eliminated.
 114              		.loc 1 133 3 view .LVU19
ARM GAS  C:\Users\DEVELO~1\AppData\Local\Temp\cc1tck9J.s 			page 3


 115              		.loc 1 135 3 view .LVU20
 116              		.loc 1 132 1 is_stmt 0 view .LVU21
 117 0000 0023     		movs	r3, #0
 118              	.LVL5:
 119              	.LBB4:
 120              	.LBI4:
 121              		.loc 1 170 17 is_stmt 1 view .LVU22
 122              	.LBB5:
 123              		.loc 1 172 3 view .LVU23
 124              		.loc 1 174 3 view .LVU24
 125              		.loc 1 174 22 view .LVU25
 126 0002 00F59462 		add	r2, r0, #1184
 127              	.LBE5:
 128              	.LBE4:
 129              		.loc 1 132 1 is_stmt 0 view .LVU26
 130 0006 10B4     		push	{r4}
 131              		.cfi_def_cfa_offset 4
 132              		.cfi_offset 4, -4
 133              	.LVL6:
 134              	.L9:
 135              	.LBB8:
 136              	.LBB6:
 137              		.loc 1 174 47 is_stmt 1 view .LVU27
 138              		.loc 1 174 22 view .LVU28
 139              		.loc 1 176 28 is_stmt 0 view .LVU29
 140 0008 52F8044F 		ldr	r4, [r2, #4]!
 141 000c 5FFA83FC 		uxtb	ip, r3
 142              	.LVL7:
 143              		.loc 1 176 5 is_stmt 1 view .LVU30
 144              		.loc 1 176 8 is_stmt 0 view .LVU31
 145 0010 2404     		lsls	r4, r4, #16
 146 0012 08D5     		bpl	.L12
 147              		.loc 1 174 22 view .LVU32
 148 0014 0133     		adds	r3, r3, #1
 149 0016 102B     		cmp	r3, #16
 150 0018 F6D1     		bne	.L9
 151 001a 4FF0FF0C 		mov	ip, #255
 152              	.LVL8:
 153              		.loc 1 174 22 view .LVU33
 154              	.LBE6:
 155              	.LBE8:
 156              		.loc 1 142 3 is_stmt 1 view .LVU34
 157              		.loc 1 143 1 is_stmt 0 view .LVU35
 158 001e 5DF8044B 		ldr	r4, [sp], #4
 159              		.cfi_remember_state
 160              		.cfi_restore 4
 161              		.cfi_def_cfa_offset 0
 162 0022 6046     		mov	r0, ip
 163              	.LVL9:
 164              		.loc 1 143 1 view .LVU36
 165 0024 7047     		bx	lr
 166              	.LVL10:
 167              	.L12:
 168              		.cfi_restore_state
 169              	.LBB9:
 170              	.LBB7:
 171              		.loc 1 178 7 is_stmt 1 view .LVU37
ARM GAS  C:\Users\DEVELO~1\AppData\Local\Temp\cc1tck9J.s 			page 4


 172              		.loc 1 178 7 is_stmt 0 view .LVU38
 173              	.LBE7:
 174              	.LBE9:
 175              		.loc 1 137 3 is_stmt 1 view .LVU39
 176              		.loc 1 139 5 view .LVU40
 177              		.loc 1 139 31 is_stmt 0 view .LVU41
 178 0026 00EB8300 		add	r0, r0, r3, lsl #2
 179              	.LVL11:
 180              		.loc 1 139 52 view .LVU42
 181 002a 41F40041 		orr	r1, r1, #32768
 182              	.LVL12:
 183              		.loc 1 143 1 view .LVU43
 184 002e 5DF8044B 		ldr	r4, [sp], #4
 185              		.cfi_restore 4
 186              		.cfi_def_cfa_offset 0
 187              		.loc 1 139 31 view .LVU44
 188 0032 C0F8A414 		str	r1, [r0, #1188]
 189              	.LVL13:
 190              		.loc 1 142 3 is_stmt 1 view .LVU45
 191              		.loc 1 143 1 is_stmt 0 view .LVU46
 192 0036 6046     		mov	r0, ip
 193 0038 7047     		bx	lr
 194              		.cfi_endproc
 195              	.LFE146:
 196              		.size	USBH_AllocPipe, .-USBH_AllocPipe
 197 003a 00BF     		.section	.text.USBH_FreePipe,"ax",%progbits
 198              		.align	1
 199              		.p2align 2,,3
 200              		.global	USBH_FreePipe
 201              		.syntax unified
 202              		.thumb
 203              		.thumb_func
 204              		.type	USBH_FreePipe, %function
 205              	USBH_FreePipe:
 206              	.LVL14:
 207              	.LFB147:
 208              		.loc 1 154 1 is_stmt 1 view -0
 209              		.cfi_startproc
 210              		@ args = 0, pretend = 0, frame = 0
 211              		@ frame_needed = 0, uses_anonymous_args = 0
 212              		@ link register save eliminated.
 213              		.loc 1 155 3 view .LVU48
 214              		.loc 1 155 6 is_stmt 0 view .LVU49
 215 0000 0F29     		cmp	r1, #15
 216 0002 07D8     		bhi	.L14
 217              		.loc 1 157 5 is_stmt 1 view .LVU50
 218 0004 00EB8101 		add	r1, r0, r1, lsl #2
 219              	.LVL15:
 220              		.loc 1 157 23 is_stmt 0 view .LVU51
 221 0008 D1F8A434 		ldr	r3, [r1, #1188]
 222 000c C3F30E03 		ubfx	r3, r3, #0, #15
 223 0010 C1F8A434 		str	r3, [r1, #1188]
 224              	.L14:
 225              		.loc 1 160 3 is_stmt 1 view .LVU52
 226              		.loc 1 161 1 is_stmt 0 view .LVU53
 227 0014 0020     		movs	r0, #0
 228              	.LVL16:
ARM GAS  C:\Users\DEVELO~1\AppData\Local\Temp\cc1tck9J.s 			page 5


 229              		.loc 1 161 1 view .LVU54
 230 0016 7047     		bx	lr
 231              		.cfi_endproc
 232              	.LFE147:
 233              		.size	USBH_FreePipe, .-USBH_FreePipe
 234              		.text
 235              	.Letext0:
 236              		.file 2 "c:\\chibistudio\\tools\\gnu tools arm embedded\\11.3 2022.08\\arm-none-eabi\\include\\mac
 237              		.file 3 "c:\\chibistudio\\tools\\gnu tools arm embedded\\11.3 2022.08\\arm-none-eabi\\include\\sys
 238              		.file 4 "./drivers/usb/usb_host/stm32-mw-usb-host-master/stm32-mw-usb-host-master/Core/Inc/usbh_de
 239              		.file 5 "./drivers/usb/usb_host/stm32-mw-usb-host-master/stm32-mw-usb-host-master/Core/Inc/usbh_co
 240              		.section	.debug_info,"",%progbits
 241              	.Ldebug_info0:
 242 0000 1E0B0000 		.4byte	0xb1e
 243 0004 0500     		.2byte	0x5
 244 0006 01       		.byte	0x1
 245 0007 04       		.byte	0x4
 246 0008 00000000 		.4byte	.Ldebug_abbrev0
 247 000c 19       		.uleb128 0x19
 248 000d 1E010000 		.4byte	.LASF175
 249 0011 1D       		.byte	0x1d
 250 0012 90070000 		.4byte	.LASF176
 251 0016 4D000000 		.4byte	.LASF177
 252 001a 1B000000 		.4byte	.LLRL14
 253 001e 00000000 		.4byte	0
 254 0022 00000000 		.4byte	.Ldebug_line0
 255 0026 04       		.uleb128 0x4
 256 0027 02       		.byte	0x2
 257 0028 05       		.byte	0x5
 258 0029 1E000000 		.4byte	.LASF0
 259 002d 04       		.uleb128 0x4
 260 002e 01       		.byte	0x1
 261 002f 06       		.byte	0x6
 262 0030 84020000 		.4byte	.LASF1
 263 0034 08       		.uleb128 0x8
 264 0035 0C010000 		.4byte	.LASF3
 265 0039 02       		.byte	0x2
 266 003a 2B       		.byte	0x2b
 267 003b 18       		.byte	0x18
 268 003c 40000000 		.4byte	0x40
 269 0040 04       		.uleb128 0x4
 270 0041 01       		.byte	0x1
 271 0042 08       		.byte	0x8
 272 0043 DD060000 		.4byte	.LASF2
 273 0047 08       		.uleb128 0x8
 274 0048 D1080000 		.4byte	.LASF4
 275 004c 02       		.byte	0x2
 276 004d 39       		.byte	0x39
 277 004e 19       		.byte	0x19
 278 004f 53000000 		.4byte	0x53
 279 0053 04       		.uleb128 0x4
 280 0054 02       		.byte	0x2
 281 0055 07       		.byte	0x7
 282 0056 D1040000 		.4byte	.LASF5
 283 005a 04       		.uleb128 0x4
 284 005b 04       		.byte	0x4
 285 005c 05       		.byte	0x5
ARM GAS  C:\Users\DEVELO~1\AppData\Local\Temp\cc1tck9J.s 			page 6


 286 005d 10030000 		.4byte	.LASF6
 287 0061 08       		.uleb128 0x8
 288 0062 BF030000 		.4byte	.LASF7
 289 0066 02       		.byte	0x2
 290 0067 4F       		.byte	0x4f
 291 0068 19       		.byte	0x19
 292 0069 6D000000 		.4byte	0x6d
 293 006d 04       		.uleb128 0x4
 294 006e 04       		.byte	0x4
 295 006f 07       		.byte	0x7
 296 0070 92040000 		.4byte	.LASF8
 297 0074 04       		.uleb128 0x4
 298 0075 08       		.byte	0x8
 299 0076 05       		.byte	0x5
 300 0077 76020000 		.4byte	.LASF9
 301 007b 04       		.uleb128 0x4
 302 007c 08       		.byte	0x8
 303 007d 07       		.byte	0x7
 304 007e B6020000 		.4byte	.LASF10
 305 0082 1A       		.uleb128 0x1a
 306 0083 04       		.byte	0x4
 307 0084 05       		.byte	0x5
 308 0085 696E7400 		.ascii	"int\000"
 309 0089 04       		.uleb128 0x4
 310 008a 04       		.byte	0x4
 311 008b 07       		.byte	0x7
 312 008c 4F040000 		.4byte	.LASF11
 313 0090 08       		.uleb128 0x8
 314 0091 B7090000 		.4byte	.LASF12
 315 0095 03       		.byte	0x3
 316 0096 18       		.byte	0x18
 317 0097 13       		.byte	0x13
 318 0098 34000000 		.4byte	0x34
 319 009c 10       		.uleb128 0x10
 320 009d 90000000 		.4byte	0x90
 321 00a1 08       		.uleb128 0x8
 322 00a2 48030000 		.4byte	.LASF13
 323 00a6 03       		.byte	0x3
 324 00a7 24       		.byte	0x24
 325 00a8 14       		.byte	0x14
 326 00a9 47000000 		.4byte	0x47
 327 00ad 08       		.uleb128 0x8
 328 00ae 78090000 		.4byte	.LASF14
 329 00b2 03       		.byte	0x3
 330 00b3 30       		.byte	0x30
 331 00b4 14       		.byte	0x14
 332 00b5 61000000 		.4byte	0x61
 333 00b9 10       		.uleb128 0x10
 334 00ba AD000000 		.4byte	0xad
 335 00be 0B       		.uleb128 0xb
 336 00bf AD000000 		.4byte	0xad
 337 00c3 CE000000 		.4byte	0xce
 338 00c7 0C       		.uleb128 0xc
 339 00c8 89000000 		.4byte	0x89
 340 00cc 01       		.byte	0x1
 341 00cd 00       		.byte	0
 342 00ce 0B       		.uleb128 0xb
ARM GAS  C:\Users\DEVELO~1\AppData\Local\Temp\cc1tck9J.s 			page 7


 343 00cf AD000000 		.4byte	0xad
 344 00d3 DE000000 		.4byte	0xde
 345 00d7 0C       		.uleb128 0xc
 346 00d8 89000000 		.4byte	0x89
 347 00dc 0F       		.byte	0xf
 348 00dd 00       		.byte	0
 349 00de 04       		.uleb128 0x4
 350 00df 08       		.byte	0x8
 351 00e0 04       		.byte	0x4
 352 00e1 8A080000 		.4byte	.LASF15
 353 00e5 1B       		.uleb128 0x1b
 354 00e6 04       		.byte	0x4
 355 00e7 04       		.uleb128 0x4
 356 00e8 01       		.byte	0x1
 357 00e9 08       		.byte	0x8
 358 00ea AD080000 		.4byte	.LASF16
 359 00ee 1C       		.uleb128 0x1c
 360 00ef E7000000 		.4byte	0xe7
 361 00f3 0A       		.uleb128 0xa
 362 00f4 EE000000 		.4byte	0xee
 363 00f8 04       		.uleb128 0x4
 364 00f9 04       		.byte	0x4
 365 00fa 04       		.byte	0x4
 366 00fb 48060000 		.4byte	.LASF17
 367 00ff 04       		.uleb128 0x4
 368 0100 08       		.byte	0x8
 369 0101 04       		.byte	0x4
 370 0102 51030000 		.4byte	.LASF18
 371 0106 0A       		.uleb128 0xa
 372 0107 90000000 		.4byte	0x90
 373 010b 1D       		.uleb128 0x1d
 374 010c 425700   		.ascii	"BW\000"
 375 010f 02       		.byte	0x2
 376 0110 04       		.byte	0x4
 377 0111 DB       		.byte	0xdb
 378 0112 0A       		.byte	0xa
 379 0113 2E010000 		.4byte	0x12e
 380 0117 13       		.uleb128 0x13
 381 0118 6D736200 		.ascii	"msb\000"
 382 011c DD       		.byte	0xdd
 383 011d 90000000 		.4byte	0x90
 384 0121 00       		.byte	0
 385 0122 13       		.uleb128 0x13
 386 0123 6C736200 		.ascii	"lsb\000"
 387 0127 DE       		.byte	0xde
 388 0128 90000000 		.4byte	0x90
 389 012c 01       		.byte	0x1
 390 012d 00       		.byte	0
 391 012e 1E       		.uleb128 0x1e
 392 012f 02       		.byte	0x2
 393 0130 04       		.byte	0x4
 394 0131 D8       		.byte	0xd8
 395 0132 09       		.byte	0x9
 396 0133 4B010000 		.4byte	0x14b
 397 0137 0F       		.uleb128 0xf
 398 0138 7700     		.ascii	"w\000"
 399 013a DA       		.byte	0xda
ARM GAS  C:\Users\DEVELO~1\AppData\Local\Temp\cc1tck9J.s 			page 8


 400 013b 0C       		.byte	0xc
 401 013c A1000000 		.4byte	0xa1
 402 0140 0F       		.uleb128 0xf
 403 0141 627700   		.ascii	"bw\000"
 404 0144 E0       		.byte	0xe0
 405 0145 03       		.byte	0x3
 406 0146 0B010000 		.4byte	0x10b
 407 014a 00       		.byte	0
 408 014b 08       		.uleb128 0x8
 409 014c 8D050000 		.4byte	.LASF19
 410 0150 04       		.byte	0x4
 411 0151 E2       		.byte	0xe2
 412 0152 01       		.byte	0x1
 413 0153 2E010000 		.4byte	0x12e
 414 0157 14       		.uleb128 0x14
 415 0158 1F040000 		.4byte	.LASF20
 416 015c 08       		.byte	0x8
 417 015d E9       		.byte	0xe9
 418 015e 0A       		.byte	0xa
 419 015f A0010000 		.4byte	0x1a0
 420 0163 09       		.uleb128 0x9
 421 0164 1F080000 		.4byte	.LASF21
 422 0168 EB       		.byte	0xeb
 423 0169 17       		.byte	0x17
 424 016a 90000000 		.4byte	0x90
 425 016e 00       		.byte	0
 426 016f 09       		.uleb128 0x9
 427 0170 05080000 		.4byte	.LASF22
 428 0174 EC       		.byte	0xec
 429 0175 17       		.byte	0x17
 430 0176 90000000 		.4byte	0x90
 431 017a 01       		.byte	0x1
 432 017b 09       		.uleb128 0x9
 433 017c 41030000 		.4byte	.LASF23
 434 0180 ED       		.byte	0xed
 435 0181 17       		.byte	0x17
 436 0182 4B010000 		.4byte	0x14b
 437 0186 02       		.byte	0x2
 438 0187 09       		.uleb128 0x9
 439 0188 00000000 		.4byte	.LASF24
 440 018c EE       		.byte	0xee
 441 018d 17       		.byte	0x17
 442 018e 4B010000 		.4byte	0x14b
 443 0192 04       		.byte	0x4
 444 0193 09       		.uleb128 0x9
 445 0194 DF090000 		.4byte	.LASF25
 446 0198 EF       		.byte	0xef
 447 0199 17       		.byte	0x17
 448 019a 4B010000 		.4byte	0x14b
 449 019e 06       		.byte	0x6
 450 019f 00       		.byte	0
 451 01a0 1F       		.uleb128 0x1f
 452 01a1 F9050000 		.4byte	.LASF178
 453 01a5 08       		.byte	0x8
 454 01a6 04       		.byte	0x4
 455 01a7 E5       		.byte	0xe5
 456 01a8 0F       		.byte	0xf
ARM GAS  C:\Users\DEVELO~1\AppData\Local\Temp\cc1tck9J.s 			page 9


 457 01a9 C1010000 		.4byte	0x1c1
 458 01ad 0F       		.uleb128 0xf
 459 01ae 643800   		.ascii	"d8\000"
 460 01b1 E7       		.byte	0xe7
 461 01b2 0C       		.byte	0xc
 462 01b3 BE000000 		.4byte	0xbe
 463 01b7 0F       		.uleb128 0xf
 464 01b8 6200     		.ascii	"b\000"
 465 01ba F0       		.byte	0xf0
 466 01bb 05       		.byte	0x5
 467 01bc 57010000 		.4byte	0x157
 468 01c0 00       		.byte	0
 469 01c1 08       		.uleb128 0x8
 470 01c2 2D080000 		.4byte	.LASF26
 471 01c6 04       		.byte	0x4
 472 01c7 F2       		.byte	0xf2
 473 01c8 01       		.byte	0x1
 474 01c9 A0010000 		.4byte	0x1a0
 475 01cd 14       		.uleb128 0x14
 476 01ce 54090000 		.4byte	.LASF27
 477 01d2 12       		.byte	0x12
 478 01d3 FB       		.byte	0xfb
 479 01d4 10       		.byte	0x10
 480 01d5 8D020000 		.4byte	0x28d
 481 01d9 09       		.uleb128 0x9
 482 01da 92090000 		.4byte	.LASF28
 483 01de FD       		.byte	0xfd
 484 01df 0D       		.byte	0xd
 485 01e0 90000000 		.4byte	0x90
 486 01e4 00       		.byte	0
 487 01e5 09       		.uleb128 0x9
 488 01e6 14050000 		.4byte	.LASF29
 489 01ea FE       		.byte	0xfe
 490 01eb 0D       		.byte	0xd
 491 01ec 90000000 		.4byte	0x90
 492 01f0 01       		.byte	0x1
 493 01f1 09       		.uleb128 0x9
 494 01f2 2F040000 		.4byte	.LASF30
 495 01f6 FF       		.byte	0xff
 496 01f7 0D       		.byte	0xd
 497 01f8 A1000000 		.4byte	0xa1
 498 01fc 02       		.byte	0x2
 499 01fd 01       		.uleb128 0x1
 500 01fe B2080000 		.4byte	.LASF31
 501 0202 0001     		.2byte	0x100
 502 0204 0D       		.byte	0xd
 503 0205 90000000 		.4byte	0x90
 504 0209 04       		.byte	0x4
 505 020a 01       		.uleb128 0x1
 506 020b 74040000 		.4byte	.LASF32
 507 020f 0101     		.2byte	0x101
 508 0211 0D       		.byte	0xd
 509 0212 90000000 		.4byte	0x90
 510 0216 05       		.byte	0x5
 511 0217 01       		.uleb128 0x1
 512 0218 EF070000 		.4byte	.LASF33
 513 021c 0201     		.2byte	0x102
ARM GAS  C:\Users\DEVELO~1\AppData\Local\Temp\cc1tck9J.s 			page 10


 514 021e 0D       		.byte	0xd
 515 021f 90000000 		.4byte	0x90
 516 0223 06       		.byte	0x6
 517 0224 01       		.uleb128 0x1
 518 0225 4F050000 		.4byte	.LASF34
 519 0229 0601     		.2byte	0x106
 520 022b 0D       		.byte	0xd
 521 022c 90000000 		.4byte	0x90
 522 0230 07       		.byte	0x7
 523 0231 01       		.uleb128 0x1
 524 0232 A30A0000 		.4byte	.LASF35
 525 0236 0701     		.2byte	0x107
 526 0238 0E       		.byte	0xe
 527 0239 A1000000 		.4byte	0xa1
 528 023d 08       		.byte	0x8
 529 023e 01       		.uleb128 0x1
 530 023f B5030000 		.4byte	.LASF36
 531 0243 0801     		.2byte	0x108
 532 0245 0E       		.byte	0xe
 533 0246 A1000000 		.4byte	0xa1
 534 024a 0A       		.byte	0xa
 535 024b 01       		.uleb128 0x1
 536 024c CD020000 		.4byte	.LASF37
 537 0250 0901     		.2byte	0x109
 538 0252 0E       		.byte	0xe
 539 0253 A1000000 		.4byte	0xa1
 540 0257 0C       		.byte	0xc
 541 0258 01       		.uleb128 0x1
 542 0259 58030000 		.4byte	.LASF38
 543 025d 0A01     		.2byte	0x10a
 544 025f 0D       		.byte	0xd
 545 0260 90000000 		.4byte	0x90
 546 0264 0E       		.byte	0xe
 547 0265 01       		.uleb128 0x1
 548 0266 95030000 		.4byte	.LASF39
 549 026a 0B01     		.2byte	0x10b
 550 026c 0D       		.byte	0xd
 551 026d 90000000 		.4byte	0x90
 552 0271 0F       		.byte	0xf
 553 0272 01       		.uleb128 0x1
 554 0273 84040000 		.4byte	.LASF40
 555 0277 0C01     		.2byte	0x10c
 556 0279 0D       		.byte	0xd
 557 027a 90000000 		.4byte	0x90
 558 027e 10       		.byte	0x10
 559 027f 01       		.uleb128 0x1
 560 0280 4D0A0000 		.4byte	.LASF41
 561 0284 0D01     		.2byte	0x10d
 562 0286 0D       		.byte	0xd
 563 0287 90000000 		.4byte	0x90
 564 028b 11       		.byte	0x11
 565 028c 00       		.byte	0
 566 028d 05       		.uleb128 0x5
 567 028e 390A0000 		.4byte	.LASF42
 568 0292 0F01     		.2byte	0x10f
 569 0294 01       		.byte	0x1
 570 0295 CD010000 		.4byte	0x1cd
ARM GAS  C:\Users\DEVELO~1\AppData\Local\Temp\cc1tck9J.s 			page 11


 571 0299 11       		.uleb128 0x11
 572 029a 0A060000 		.4byte	.LASF43
 573 029e 08       		.byte	0x8
 574 029f 1101     		.2byte	0x111
 575 02a1 F4020000 		.4byte	0x2f4
 576 02a5 01       		.uleb128 0x1
 577 02a6 92090000 		.4byte	.LASF28
 578 02aa 1301     		.2byte	0x113
 579 02ac 0D       		.byte	0xd
 580 02ad 90000000 		.4byte	0x90
 581 02b1 00       		.byte	0
 582 02b2 01       		.uleb128 0x1
 583 02b3 14050000 		.4byte	.LASF29
 584 02b7 1401     		.2byte	0x114
 585 02b9 0D       		.byte	0xd
 586 02ba 90000000 		.4byte	0x90
 587 02be 01       		.byte	0x1
 588 02bf 01       		.uleb128 0x1
 589 02c0 78060000 		.4byte	.LASF44
 590 02c4 1501     		.2byte	0x115
 591 02c6 0D       		.byte	0xd
 592 02c7 90000000 		.4byte	0x90
 593 02cb 02       		.byte	0x2
 594 02cc 01       		.uleb128 0x1
 595 02cd EC050000 		.4byte	.LASF45
 596 02d1 1601     		.2byte	0x116
 597 02d3 0D       		.byte	0xd
 598 02d4 90000000 		.4byte	0x90
 599 02d8 03       		.byte	0x3
 600 02d9 01       		.uleb128 0x1
 601 02da EF080000 		.4byte	.LASF46
 602 02de 1701     		.2byte	0x117
 603 02e0 0D       		.byte	0xd
 604 02e1 A1000000 		.4byte	0xa1
 605 02e5 04       		.byte	0x4
 606 02e6 01       		.uleb128 0x1
 607 02e7 78050000 		.4byte	.LASF47
 608 02eb 1801     		.2byte	0x118
 609 02ed 0D       		.byte	0xd
 610 02ee 90000000 		.4byte	0x90
 611 02f2 06       		.byte	0x6
 612 02f3 00       		.byte	0
 613 02f4 05       		.uleb128 0x5
 614 02f5 FB040000 		.4byte	.LASF48
 615 02f9 1A01     		.2byte	0x11a
 616 02fb 01       		.byte	0x1
 617 02fc 99020000 		.4byte	0x299
 618 0300 11       		.uleb128 0x11
 619 0301 BF090000 		.4byte	.LASF49
 620 0305 2A       		.byte	0x2a
 621 0306 1C01     		.2byte	0x11c
 622 0308 8F030000 		.4byte	0x38f
 623 030c 01       		.uleb128 0x1
 624 030d 92090000 		.4byte	.LASF28
 625 0311 1E01     		.2byte	0x11e
 626 0313 0B       		.byte	0xb
 627 0314 90000000 		.4byte	0x90
ARM GAS  C:\Users\DEVELO~1\AppData\Local\Temp\cc1tck9J.s 			page 12


 628 0318 00       		.byte	0
 629 0319 01       		.uleb128 0x1
 630 031a 14050000 		.4byte	.LASF29
 631 031e 1F01     		.2byte	0x11f
 632 0320 0B       		.byte	0xb
 633 0321 90000000 		.4byte	0x90
 634 0325 01       		.byte	0x1
 635 0326 01       		.uleb128 0x1
 636 0327 BE010000 		.4byte	.LASF50
 637 032b 2001     		.2byte	0x120
 638 032d 0B       		.byte	0xb
 639 032e 90000000 		.4byte	0x90
 640 0332 02       		.byte	0x2
 641 0333 01       		.uleb128 0x1
 642 0334 A7060000 		.4byte	.LASF51
 643 0338 2101     		.2byte	0x121
 644 033a 0B       		.byte	0xb
 645 033b 90000000 		.4byte	0x90
 646 033f 03       		.byte	0x3
 647 0340 01       		.uleb128 0x1
 648 0341 69080000 		.4byte	.LASF52
 649 0345 2201     		.2byte	0x122
 650 0347 0B       		.byte	0xb
 651 0348 90000000 		.4byte	0x90
 652 034c 04       		.byte	0x4
 653 034d 01       		.uleb128 0x1
 654 034e EB060000 		.4byte	.LASF53
 655 0352 2301     		.2byte	0x123
 656 0354 0B       		.byte	0xb
 657 0355 90000000 		.4byte	0x90
 658 0359 05       		.byte	0x5
 659 035a 01       		.uleb128 0x1
 660 035b 8B000000 		.4byte	.LASF54
 661 035f 2401     		.2byte	0x124
 662 0361 0B       		.byte	0xb
 663 0362 90000000 		.4byte	0x90
 664 0366 06       		.byte	0x6
 665 0367 01       		.uleb128 0x1
 666 0368 77080000 		.4byte	.LASF55
 667 036c 2501     		.2byte	0x125
 668 036e 0B       		.byte	0xb
 669 036f 90000000 		.4byte	0x90
 670 0373 07       		.byte	0x7
 671 0374 01       		.uleb128 0x1
 672 0375 B9060000 		.4byte	.LASF56
 673 0379 2601     		.2byte	0x126
 674 037b 0B       		.byte	0xb
 675 037c 90000000 		.4byte	0x90
 676 0380 08       		.byte	0x8
 677 0381 01       		.uleb128 0x1
 678 0382 16010000 		.4byte	.LASF57
 679 0386 2701     		.2byte	0x127
 680 0388 24       		.byte	0x24
 681 0389 8F030000 		.4byte	0x38f
 682 038d 0A       		.byte	0xa
 683 038e 00       		.byte	0
 684 038f 0B       		.uleb128 0xb
ARM GAS  C:\Users\DEVELO~1\AppData\Local\Temp\cc1tck9J.s 			page 13


 685 0390 F4020000 		.4byte	0x2f4
 686 0394 9F030000 		.4byte	0x39f
 687 0398 0C       		.uleb128 0xc
 688 0399 89000000 		.4byte	0x89
 689 039d 03       		.byte	0x3
 690 039e 00       		.byte	0
 691 039f 05       		.uleb128 0x5
 692 03a0 120A0000 		.4byte	.LASF58
 693 03a4 2901     		.2byte	0x129
 694 03a6 01       		.byte	0x1
 695 03a7 00030000 		.4byte	0x300
 696 03ab 11       		.uleb128 0x11
 697 03ac 5D070000 		.4byte	.LASF59
 698 03b0 5E       		.byte	0x5e
 699 03b1 2C01     		.2byte	0x12c
 700 03b3 2D040000 		.4byte	0x42d
 701 03b7 01       		.uleb128 0x1
 702 03b8 92090000 		.4byte	.LASF28
 703 03bc 2E01     		.2byte	0x12e
 704 03be 0D       		.byte	0xd
 705 03bf 90000000 		.4byte	0x90
 706 03c3 00       		.byte	0
 707 03c4 01       		.uleb128 0x1
 708 03c5 14050000 		.4byte	.LASF29
 709 03c9 2F01     		.2byte	0x12f
 710 03cb 0D       		.byte	0xd
 711 03cc 90000000 		.4byte	0x90
 712 03d0 01       		.byte	0x1
 713 03d1 01       		.uleb128 0x1
 714 03d2 45020000 		.4byte	.LASF60
 715 03d6 3001     		.2byte	0x130
 716 03d8 0D       		.byte	0xd
 717 03d9 A1000000 		.4byte	0xa1
 718 03dd 02       		.byte	0x2
 719 03de 01       		.uleb128 0x1
 720 03df 2C090000 		.4byte	.LASF61
 721 03e3 3101     		.2byte	0x131
 722 03e5 0D       		.byte	0xd
 723 03e6 90000000 		.4byte	0x90
 724 03ea 04       		.byte	0x4
 725 03eb 01       		.uleb128 0x1
 726 03ec 2B070000 		.4byte	.LASF62
 727 03f0 3201     		.2byte	0x132
 728 03f2 0D       		.byte	0xd
 729 03f3 90000000 		.4byte	0x90
 730 03f7 05       		.byte	0x5
 731 03f8 01       		.uleb128 0x1
 732 03f9 76070000 		.4byte	.LASF63
 733 03fd 3301     		.2byte	0x133
 734 03ff 0D       		.byte	0xd
 735 0400 90000000 		.4byte	0x90
 736 0404 06       		.byte	0x6
 737 0405 01       		.uleb128 0x1
 738 0406 EC050000 		.4byte	.LASF45
 739 040a 3401     		.2byte	0x134
 740 040c 0D       		.byte	0xd
 741 040d 90000000 		.4byte	0x90
ARM GAS  C:\Users\DEVELO~1\AppData\Local\Temp\cc1tck9J.s 			page 14


 742 0411 07       		.byte	0x7
 743 0412 01       		.uleb128 0x1
 744 0413 9A090000 		.4byte	.LASF64
 745 0417 3501     		.2byte	0x135
 746 0419 0D       		.byte	0xd
 747 041a 90000000 		.4byte	0x90
 748 041e 08       		.byte	0x8
 749 041f 01       		.uleb128 0x1
 750 0420 89060000 		.4byte	.LASF65
 751 0424 3601     		.2byte	0x136
 752 0426 24       		.byte	0x24
 753 0427 2D040000 		.4byte	0x42d
 754 042b 0A       		.byte	0xa
 755 042c 00       		.byte	0
 756 042d 0B       		.uleb128 0xb
 757 042e 9F030000 		.4byte	0x39f
 758 0432 3D040000 		.4byte	0x43d
 759 0436 0C       		.uleb128 0xc
 760 0437 89000000 		.4byte	0x89
 761 043b 01       		.byte	0x1
 762 043c 00       		.byte	0
 763 043d 05       		.uleb128 0x5
 764 043e FE080000 		.4byte	.LASF66
 765 0442 3801     		.2byte	0x138
 766 0444 01       		.byte	0x1
 767 0445 AB030000 		.4byte	0x3ab
 768 0449 0D       		.uleb128 0xd
 769 044a 40000000 		.4byte	0x40
 770 044e 3D01     		.2byte	0x13d
 771 0450 79040000 		.4byte	0x479
 772 0454 02       		.uleb128 0x2
 773 0455 600A0000 		.4byte	.LASF67
 774 0459 00       		.byte	0
 775 045a 02       		.uleb128 0x2
 776 045b 1E060000 		.4byte	.LASF68
 777 045f 01       		.byte	0x1
 778 0460 02       		.uleb128 0x2
 779 0461 F1040000 		.4byte	.LASF69
 780 0465 02       		.byte	0x2
 781 0466 02       		.uleb128 0x2
 782 0467 5B060000 		.4byte	.LASF70
 783 046b 03       		.byte	0x3
 784 046c 02       		.uleb128 0x2
 785 046d 14070000 		.4byte	.LASF71
 786 0471 04       		.byte	0x4
 787 0472 02       		.uleb128 0x2
 788 0473 C4060000 		.4byte	.LASF72
 789 0477 05       		.byte	0x5
 790 0478 00       		.byte	0
 791 0479 05       		.uleb128 0x5
 792 047a E7010000 		.4byte	.LASF73
 793 047e 4401     		.2byte	0x144
 794 0480 03       		.byte	0x3
 795 0481 49040000 		.4byte	0x449
 796 0485 0D       		.uleb128 0xd
 797 0486 40000000 		.4byte	0x40
 798 048a 5501     		.2byte	0x155
ARM GAS  C:\Users\DEVELO~1\AppData\Local\Temp\cc1tck9J.s 			page 15


 799 048c E5040000 		.4byte	0x4e5
 800 0490 02       		.uleb128 0x2
 801 0491 6E060000 		.4byte	.LASF74
 802 0495 00       		.byte	0
 803 0496 02       		.uleb128 0x2
 804 0497 E7090000 		.4byte	.LASF75
 805 049b 01       		.byte	0x1
 806 049c 02       		.uleb128 0x2
 807 049d 21020000 		.4byte	.LASF76
 808 04a1 02       		.byte	0x2
 809 04a2 02       		.uleb128 0x2
 810 04a3 53080000 		.4byte	.LASF77
 811 04a7 03       		.byte	0x3
 812 04a8 02       		.uleb128 0x2
 813 04a9 CF000000 		.4byte	.LASF78
 814 04ad 04       		.byte	0x4
 815 04ae 02       		.uleb128 0x2
 816 04af 5C040000 		.4byte	.LASF79
 817 04b3 05       		.byte	0x5
 818 04b4 02       		.uleb128 0x2
 819 04b5 DC080000 		.4byte	.LASF80
 820 04b9 06       		.byte	0x6
 821 04ba 02       		.uleb128 0x2
 822 04bb 36030000 		.4byte	.LASF81
 823 04bf 07       		.byte	0x7
 824 04c0 02       		.uleb128 0x2
 825 04c1 F9020000 		.4byte	.LASF82
 826 04c5 08       		.byte	0x8
 827 04c6 02       		.uleb128 0x2
 828 04c7 CF010000 		.4byte	.LASF83
 829 04cb 09       		.byte	0x9
 830 04cc 02       		.uleb128 0x2
 831 04cd 0E080000 		.4byte	.LASF84
 832 04d1 0A       		.byte	0xa
 833 04d2 02       		.uleb128 0x2
 834 04d3 64020000 		.4byte	.LASF85
 835 04d7 0B       		.byte	0xb
 836 04d8 02       		.uleb128 0x2
 837 04d9 40050000 		.4byte	.LASF86
 838 04dd 0C       		.byte	0xc
 839 04de 02       		.uleb128 0x2
 840 04df 9E030000 		.4byte	.LASF87
 841 04e3 0D       		.byte	0xd
 842 04e4 00       		.byte	0
 843 04e5 05       		.uleb128 0x5
 844 04e6 33020000 		.4byte	.LASF88
 845 04ea 6401     		.2byte	0x164
 846 04ec 03       		.byte	0x3
 847 04ed 85040000 		.4byte	0x485
 848 04f1 10       		.uleb128 0x10
 849 04f2 E5040000 		.4byte	0x4e5
 850 04f6 0D       		.uleb128 0xd
 851 04f7 40000000 		.4byte	0x40
 852 04fb 6801     		.2byte	0x168
 853 04fd 32050000 		.4byte	0x532
 854 0501 02       		.uleb128 0x2
 855 0502 C5000000 		.4byte	.LASF89
ARM GAS  C:\Users\DEVELO~1\AppData\Local\Temp\cc1tck9J.s 			page 16


 856 0506 00       		.byte	0
 857 0507 02       		.uleb128 0x2
 858 0508 BC050000 		.4byte	.LASF90
 859 050c 01       		.byte	0x1
 860 050d 02       		.uleb128 0x2
 861 050e A4090000 		.4byte	.LASF91
 862 0512 02       		.byte	0x2
 863 0513 02       		.uleb128 0x2
 864 0514 28000000 		.4byte	.LASF92
 865 0518 03       		.byte	0x3
 866 0519 02       		.uleb128 0x2
 867 051a 07000000 		.4byte	.LASF93
 868 051e 04       		.byte	0x4
 869 051f 02       		.uleb128 0x2
 870 0520 D3050000 		.4byte	.LASF94
 871 0524 05       		.byte	0x5
 872 0525 02       		.uleb128 0x2
 873 0526 E8000000 		.4byte	.LASF95
 874 052a 06       		.byte	0x6
 875 052b 02       		.uleb128 0x2
 876 052c 740A0000 		.4byte	.LASF96
 877 0530 07       		.byte	0x7
 878 0531 00       		.byte	0
 879 0532 05       		.uleb128 0x5
 880 0533 BF080000 		.4byte	.LASF97
 881 0537 7101     		.2byte	0x171
 882 0539 03       		.byte	0x3
 883 053a F6040000 		.4byte	0x4f6
 884 053e 0D       		.uleb128 0xd
 885 053f 40000000 		.4byte	0x40
 886 0543 7501     		.2byte	0x175
 887 0545 9E050000 		.4byte	0x59e
 888 0549 02       		.uleb128 0x2
 889 054a 8B030000 		.4byte	.LASF98
 890 054e 00       		.byte	0
 891 054f 02       		.uleb128 0x2
 892 0550 85070000 		.4byte	.LASF99
 893 0554 01       		.byte	0x1
 894 0555 02       		.uleb128 0x2
 895 0556 930A0000 		.4byte	.LASF100
 896 055a 02       		.byte	0x2
 897 055b 02       		.uleb128 0x2
 898 055c A7050000 		.4byte	.LASF101
 899 0560 03       		.byte	0x3
 900 0561 02       		.uleb128 0x2
 901 0562 28060000 		.4byte	.LASF102
 902 0566 04       		.byte	0x4
 903 0567 02       		.uleb128 0x2
 904 0568 E5030000 		.4byte	.LASF103
 905 056c 05       		.byte	0x5
 906 056d 02       		.uleb128 0x2
 907 056e 36040000 		.4byte	.LASF104
 908 0572 06       		.byte	0x6
 909 0573 02       		.uleb128 0x2
 910 0574 27030000 		.4byte	.LASF105
 911 0578 07       		.byte	0x7
 912 0579 02       		.uleb128 0x2
ARM GAS  C:\Users\DEVELO~1\AppData\Local\Temp\cc1tck9J.s 			page 17


 913 057a 3F080000 		.4byte	.LASF106
 914 057e 08       		.byte	0x8
 915 057f 02       		.uleb128 0x2
 916 0580 3B090000 		.4byte	.LASF107
 917 0584 09       		.byte	0x9
 918 0585 02       		.uleb128 0x2
 919 0586 92060000 		.4byte	.LASF108
 920 058a 0A       		.byte	0xa
 921 058b 02       		.uleb128 0x2
 922 058c A5000000 		.4byte	.LASF109
 923 0590 0B       		.byte	0xb
 924 0591 02       		.uleb128 0x2
 925 0592 E4040000 		.4byte	.LASF110
 926 0596 0C       		.byte	0xc
 927 0597 02       		.uleb128 0x2
 928 0598 1E090000 		.4byte	.LASF111
 929 059c 0D       		.byte	0xd
 930 059d 00       		.byte	0
 931 059e 05       		.uleb128 0x5
 932 059f 99020000 		.4byte	.LASF112
 933 05a3 8401     		.2byte	0x184
 934 05a5 03       		.byte	0x3
 935 05a6 3E050000 		.4byte	0x53e
 936 05aa 0D       		.uleb128 0xd
 937 05ab 40000000 		.4byte	0x40
 938 05af 8901     		.2byte	0x189
 939 05b1 C8050000 		.4byte	0x5c8
 940 05b5 02       		.uleb128 0x2
 941 05b6 9E050000 		.4byte	.LASF113
 942 05ba 00       		.byte	0
 943 05bb 02       		.uleb128 0x2
 944 05bc BA040000 		.4byte	.LASF114
 945 05c0 01       		.byte	0x1
 946 05c1 02       		.uleb128 0x2
 947 05c2 90020000 		.4byte	.LASF115
 948 05c6 02       		.byte	0x2
 949 05c7 00       		.byte	0
 950 05c8 05       		.uleb128 0x5
 951 05c9 03070000 		.4byte	.LASF116
 952 05cd 8D01     		.2byte	0x18d
 953 05cf 03       		.byte	0x3
 954 05d0 AA050000 		.4byte	0x5aa
 955 05d4 15       		.uleb128 0x15
 956 05d5 18       		.byte	0x18
 957 05d6 A501     		.2byte	0x1a5
 958 05d8 52060000 		.4byte	0x652
 959 05dc 01       		.uleb128 0x1
 960 05dd 6A050000 		.4byte	.LASF117
 961 05e1 A701     		.2byte	0x1a7
 962 05e3 19       		.byte	0x19
 963 05e4 90000000 		.4byte	0x90
 964 05e8 00       		.byte	0
 965 05e9 01       		.uleb128 0x1
 966 05ea FA010000 		.4byte	.LASF118
 967 05ee A801     		.2byte	0x1a8
 968 05f0 19       		.byte	0x19
 969 05f1 90000000 		.4byte	0x90
ARM GAS  C:\Users\DEVELO~1\AppData\Local\Temp\cc1tck9J.s 			page 18


 970 05f5 01       		.byte	0x1
 971 05f6 01       		.uleb128 0x1
 972 05f7 6E090000 		.4byte	.LASF119
 973 05fb A901     		.2byte	0x1a9
 974 05fd 19       		.byte	0x19
 975 05fe 90000000 		.4byte	0x90
 976 0602 02       		.byte	0x2
 977 0603 01       		.uleb128 0x1
 978 0604 EE020000 		.4byte	.LASF120
 979 0608 AA01     		.2byte	0x1aa
 980 060a 1A       		.byte	0x1a
 981 060b 06010000 		.4byte	0x106
 982 060f 04       		.byte	0x4
 983 0610 01       		.uleb128 0x1
 984 0611 96080000 		.4byte	.LASF121
 985 0615 AB01     		.2byte	0x1ab
 986 0617 19       		.byte	0x19
 987 0618 A1000000 		.4byte	0xa1
 988 061c 08       		.byte	0x8
 989 061d 01       		.uleb128 0x1
 990 061e D9090000 		.4byte	.LASF122
 991 0622 AC01     		.2byte	0x1ac
 992 0624 19       		.byte	0x19
 993 0625 A1000000 		.4byte	0xa1
 994 0629 0A       		.byte	0xa
 995 062a 01       		.uleb128 0x1
 996 062b 04060000 		.4byte	.LASF123
 997 062f AD01     		.2byte	0x1ad
 998 0631 19       		.byte	0x19
 999 0632 C1010000 		.4byte	0x1c1
 1000 0636 0C       		.byte	0xc
 1001 0637 01       		.uleb128 0x1
 1002 0638 F3020000 		.4byte	.LASF124
 1003 063c AE01     		.2byte	0x1ae
 1004 063e 19       		.byte	0x19
 1005 063f 9E050000 		.4byte	0x59e
 1006 0643 14       		.byte	0x14
 1007 0644 01       		.uleb128 0x1
 1008 0645 82050000 		.4byte	.LASF125
 1009 0649 AF01     		.2byte	0x1af
 1010 064b 19       		.byte	0x19
 1011 064c 90000000 		.4byte	0x90
 1012 0650 15       		.byte	0x15
 1013 0651 00       		.byte	0
 1014 0652 05       		.uleb128 0x5
 1015 0653 0E040000 		.4byte	.LASF126
 1016 0657 B101     		.2byte	0x1b1
 1017 0659 03       		.byte	0x3
 1018 065a D4050000 		.4byte	0x5d4
 1019 065e 20       		.uleb128 0x20
 1020 065f 7A04     		.2byte	0x47a
 1021 0661 04       		.byte	0x4
 1022 0662 B401     		.2byte	0x1b4
 1023 0664 09       		.byte	0x9
 1024 0665 1F070000 		.4byte	0x71f
 1025 0669 01       		.uleb128 0x1
 1026 066a 5E050000 		.4byte	.LASF127
ARM GAS  C:\Users\DEVELO~1\AppData\Local\Temp\cc1tck9J.s 			page 19


 1027 066e B601     		.2byte	0x1b6
 1028 0670 25       		.byte	0x25
 1029 0671 1F070000 		.4byte	0x71f
 1030 0675 00       		.byte	0
 1031 0676 03       		.uleb128 0x3
 1032 0677 D4090000 		.4byte	.LASF128
 1033 067b B701     		.2byte	0x1b7
 1034 067d 25       		.byte	0x25
 1035 067e 1F070000 		.4byte	0x71f
 1036 0682 0002     		.2byte	0x200
 1037 0684 03       		.uleb128 0x3
 1038 0685 B4050000 		.4byte	.LASF129
 1039 0689 B801     		.2byte	0x1b8
 1040 068b 25       		.byte	0x25
 1041 068c 90000000 		.4byte	0x90
 1042 0690 0004     		.2byte	0x400
 1043 0692 03       		.uleb128 0x3
 1044 0693 040A0000 		.4byte	.LASF130
 1045 0697 B901     		.2byte	0x1b9
 1046 0699 25       		.byte	0x25
 1047 069a 90000000 		.4byte	0x90
 1048 069e 0104     		.2byte	0x401
 1049 06a0 03       		.uleb128 0x3
 1050 06a1 FB060000 		.4byte	.LASF131
 1051 06a5 BA01     		.2byte	0x1ba
 1052 06a7 25       		.byte	0x25
 1053 06a8 90000000 		.4byte	0x90
 1054 06ac 0204     		.2byte	0x402
 1055 06ae 03       		.uleb128 0x3
 1056 06af 05010000 		.4byte	.LASF132
 1057 06b3 BB01     		.2byte	0x1bb
 1058 06b5 25       		.byte	0x25
 1059 06b6 90000000 		.4byte	0x90
 1060 06ba 0304     		.2byte	0x403
 1061 06bc 03       		.uleb128 0x3
 1062 06bd 2C0A0000 		.4byte	.LASF133
 1063 06c1 BC01     		.2byte	0x1bc
 1064 06c3 25       		.byte	0x25
 1065 06c4 9C000000 		.4byte	0x9c
 1066 06c8 0404     		.2byte	0x404
 1067 06ca 03       		.uleb128 0x3
 1068 06cb 9D080000 		.4byte	.LASF134
 1069 06cf BD01     		.2byte	0x1bd
 1070 06d1 25       		.byte	0x25
 1071 06d2 9C000000 		.4byte	0x9c
 1072 06d6 0504     		.2byte	0x405
 1073 06d8 03       		.uleb128 0x3
 1074 06d9 B0000000 		.4byte	.LASF135
 1075 06dd BE01     		.2byte	0x1be
 1076 06df 25       		.byte	0x25
 1077 06e0 9C000000 		.4byte	0x9c
 1078 06e4 0604     		.2byte	0x406
 1079 06e6 03       		.uleb128 0x3
 1080 06e7 03020000 		.4byte	.LASF136
 1081 06eb BF01     		.2byte	0x1bf
 1082 06ed 25       		.byte	0x25
 1083 06ee 9C000000 		.4byte	0x9c
ARM GAS  C:\Users\DEVELO~1\AppData\Local\Temp\cc1tck9J.s 			page 20


 1084 06f2 0704     		.2byte	0x407
 1085 06f4 03       		.uleb128 0x3
 1086 06f5 52020000 		.4byte	.LASF137
 1087 06f9 C001     		.2byte	0x1c0
 1088 06fb 25       		.byte	0x25
 1089 06fc 90000000 		.4byte	0x90
 1090 0700 0804     		.2byte	0x408
 1091 0702 03       		.uleb128 0x3
 1092 0703 24050000 		.4byte	.LASF138
 1093 0707 C101     		.2byte	0x1c1
 1094 0709 25       		.byte	0x25
 1095 070a 8D020000 		.4byte	0x28d
 1096 070e 0A04     		.2byte	0x40a
 1097 0710 03       		.uleb128 0x3
 1098 0711 0A0A0000 		.4byte	.LASF139
 1099 0715 C201     		.2byte	0x1c2
 1100 0717 25       		.byte	0x25
 1101 0718 3D040000 		.4byte	0x43d
 1102 071c 1C04     		.2byte	0x41c
 1103 071e 00       		.byte	0
 1104 071f 0B       		.uleb128 0xb
 1105 0720 90000000 		.4byte	0x90
 1106 0724 30070000 		.4byte	0x730
 1107 0728 21       		.uleb128 0x21
 1108 0729 89000000 		.4byte	0x89
 1109 072d FF01     		.2byte	0x1ff
 1110 072f 00       		.byte	0
 1111 0730 05       		.uleb128 0x5
 1112 0731 3A000000 		.4byte	.LASF140
 1113 0735 C301     		.2byte	0x1c3
 1114 0737 03       		.byte	0x3
 1115 0738 5E060000 		.4byte	0x65e
 1116 073c 15       		.uleb128 0x15
 1117 073d 20       		.byte	0x20
 1118 073e C801     		.2byte	0x1c8
 1119 0740 AD070000 		.4byte	0x7ad
 1120 0744 01       		.uleb128 0x1
 1121 0745 B2090000 		.4byte	.LASF141
 1122 0749 CA01     		.2byte	0x1ca
 1123 074b 18       		.byte	0x18
 1124 074c F3000000 		.4byte	0xf3
 1125 0750 00       		.byte	0
 1126 0751 01       		.uleb128 0x1
 1127 0752 04040000 		.4byte	.LASF142
 1128 0756 CB01     		.2byte	0x1cb
 1129 0758 18       		.byte	0x18
 1130 0759 90000000 		.4byte	0x90
 1131 075d 04       		.byte	0x4
 1132 075e 01       		.uleb128 0x1
 1133 075f C0000000 		.4byte	.LASF143
 1134 0763 CC01     		.2byte	0x1cc
 1135 0765 17       		.byte	0x17
 1136 0766 90080000 		.4byte	0x890
 1137 076a 08       		.byte	0x8
 1138 076b 01       		.uleb128 0x1
 1139 076c 6D040000 		.4byte	.LASF144
 1140 0770 CD01     		.2byte	0x1cd
ARM GAS  C:\Users\DEVELO~1\AppData\Local\Temp\cc1tck9J.s 			page 21


 1141 0772 17       		.byte	0x17
 1142 0773 90080000 		.4byte	0x890
 1143 0777 0C       		.byte	0xc
 1144 0778 01       		.uleb128 0x1
 1145 0779 66030000 		.4byte	.LASF145
 1146 077d CE01     		.2byte	0x1ce
 1147 077f 17       		.byte	0x17
 1148 0780 90080000 		.4byte	0x890
 1149 0784 10       		.byte	0x10
 1150 0785 01       		.uleb128 0x1
 1151 0786 12090000 		.4byte	.LASF146
 1152 078a CF01     		.2byte	0x1cf
 1153 078c 17       		.byte	0x17
 1154 078d 90080000 		.4byte	0x890
 1155 0791 14       		.byte	0x14
 1156 0792 01       		.uleb128 0x1
 1157 0793 AB020000 		.4byte	.LASF147
 1158 0797 D001     		.2byte	0x1d0
 1159 0799 17       		.byte	0x17
 1160 079a 90080000 		.4byte	0x890
 1161 079e 18       		.byte	0x18
 1162 079f 01       		.uleb128 0x1
 1163 07a0 AF030000 		.4byte	.LASF148
 1164 07a4 D101     		.2byte	0x1d1
 1165 07a6 18       		.byte	0x18
 1166 07a7 E5000000 		.4byte	0xe5
 1167 07ab 1C       		.byte	0x1c
 1168 07ac 00       		.byte	0
 1169 07ad 22       		.uleb128 0x22
 1170 07ae 79040000 		.4byte	0x479
 1171 07b2 BC070000 		.4byte	0x7bc
 1172 07b6 06       		.uleb128 0x6
 1173 07b7 BC070000 		.4byte	0x7bc
 1174 07bb 00       		.byte	0
 1175 07bc 0A       		.uleb128 0xa
 1176 07bd C1070000 		.4byte	0x7c1
 1177 07c1 23       		.uleb128 0x23
 1178 07c2 2C050000 		.4byte	.LASF149
 1179 07c6 F804     		.2byte	0x4f8
 1180 07c8 04       		.byte	0x4
 1181 07c9 D501     		.2byte	0x1d5
 1182 07cb 10       		.byte	0x10
 1183 07cc 90080000 		.4byte	0x890
 1184 07d0 01       		.uleb128 0x1
 1185 07d1 9E000000 		.4byte	.LASF150
 1186 07d5 D701     		.2byte	0x1d7
 1187 07d7 1E       		.byte	0x1e
 1188 07d8 F1040000 		.4byte	0x4f1
 1189 07dc 00       		.byte	0
 1190 07dd 01       		.uleb128 0x1
 1191 07de 6F030000 		.4byte	.LASF151
 1192 07e2 D801     		.2byte	0x1d8
 1193 07e4 19       		.byte	0x19
 1194 07e5 32050000 		.4byte	0x532
 1195 07e9 01       		.byte	0x1
 1196 07ea 01       		.uleb128 0x1
 1197 07eb 4E060000 		.4byte	.LASF152
ARM GAS  C:\Users\DEVELO~1\AppData\Local\Temp\cc1tck9J.s 			page 22


 1198 07ef D901     		.2byte	0x1d9
 1199 07f1 19       		.byte	0x19
 1200 07f2 C8050000 		.4byte	0x5c8
 1201 07f6 02       		.byte	0x2
 1202 07f7 01       		.uleb128 0x1
 1203 07f8 19030000 		.4byte	.LASF153
 1204 07fc DA01     		.2byte	0x1da
 1205 07fe 19       		.byte	0x19
 1206 07ff 52060000 		.4byte	0x652
 1207 0803 04       		.byte	0x4
 1208 0804 01       		.uleb128 0x1
 1209 0805 6F020000 		.4byte	.LASF154
 1210 0809 DB01     		.2byte	0x1db
 1211 080b 19       		.byte	0x19
 1212 080c 30070000 		.4byte	0x730
 1213 0810 1C       		.byte	0x1c
 1214 0811 03       		.uleb128 0x3
 1215 0812 A4040000 		.4byte	.LASF155
 1216 0816 DC01     		.2byte	0x1dc
 1217 0818 19       		.byte	0x19
 1218 0819 A1080000 		.4byte	0x8a1
 1219 081d 9804     		.2byte	0x498
 1220 081f 03       		.uleb128 0x3
 1221 0820 14020000 		.4byte	.LASF156
 1222 0824 DD01     		.2byte	0x1dd
 1223 0826 19       		.byte	0x19
 1224 0827 B1080000 		.4byte	0x8b1
 1225 082b 9C04     		.2byte	0x49c
 1226 082d 03       		.uleb128 0x3
 1227 082e 51070000 		.4byte	.LASF157
 1228 0832 DE01     		.2byte	0x1de
 1229 0834 19       		.byte	0x19
 1230 0835 AD000000 		.4byte	0xad
 1231 0839 A004     		.2byte	0x4a0
 1232 083b 03       		.uleb128 0x3
 1233 083c 0E050000 		.4byte	.LASF158
 1234 0840 DF01     		.2byte	0x1df
 1235 0842 19       		.byte	0x19
 1236 0843 CE000000 		.4byte	0xce
 1237 0847 A404     		.2byte	0x4a4
 1238 0849 03       		.uleb128 0x3
 1239 084a 72050000 		.4byte	.LASF159
 1240 084e E001     		.2byte	0x1e0
 1241 0850 19       		.byte	0x19
 1242 0851 B9000000 		.4byte	0xb9
 1243 0855 E404     		.2byte	0x4e4
 1244 0857 03       		.uleb128 0x3
 1245 0858 DD030000 		.4byte	.LASF160
 1246 085c E501     		.2byte	0x1e5
 1247 085e 19       		.byte	0x19
 1248 085f AD000000 		.4byte	0xad
 1249 0863 E804     		.2byte	0x4e8
 1250 0865 24       		.uleb128 0x24
 1251 0866 696400   		.ascii	"id\000"
 1252 0869 04       		.byte	0x4
 1253 086a E601     		.2byte	0x1e6
 1254 086c 19       		.byte	0x19
ARM GAS  C:\Users\DEVELO~1\AppData\Local\Temp\cc1tck9J.s 			page 23


 1255 086d 90000000 		.4byte	0x90
 1256 0871 EC04     		.2byte	0x4ec
 1257 0873 03       		.uleb128 0x3
 1258 0874 AF030000 		.4byte	.LASF148
 1259 0878 E701     		.2byte	0x1e7
 1260 087a 19       		.byte	0x19
 1261 087b E5000000 		.4byte	0xe5
 1262 087f F004     		.2byte	0x4f0
 1263 0881 03       		.uleb128 0x3
 1264 0882 21030000 		.4byte	.LASF161
 1265 0886 E801     		.2byte	0x1e8
 1266 0888 0B       		.byte	0xb
 1267 0889 C6080000 		.4byte	0x8c6
 1268 088d F404     		.2byte	0x4f4
 1269 088f 00       		.byte	0
 1270 0890 0A       		.uleb128 0xa
 1271 0891 AD070000 		.4byte	0x7ad
 1272 0895 05       		.uleb128 0x5
 1273 0896 3F070000 		.4byte	.LASF162
 1274 089a D201     		.2byte	0x1d2
 1275 089c 03       		.byte	0x3
 1276 089d 3C070000 		.4byte	0x73c
 1277 08a1 0B       		.uleb128 0xb
 1278 08a2 B1080000 		.4byte	0x8b1
 1279 08a6 B1080000 		.4byte	0x8b1
 1280 08aa 0C       		.uleb128 0xc
 1281 08ab 89000000 		.4byte	0x89
 1282 08af 00       		.byte	0
 1283 08b0 00       		.byte	0
 1284 08b1 0A       		.uleb128 0xa
 1285 08b2 95080000 		.4byte	0x895
 1286 08b6 25       		.uleb128 0x25
 1287 08b7 C6080000 		.4byte	0x8c6
 1288 08bb 06       		.uleb128 0x6
 1289 08bc BC070000 		.4byte	0x7bc
 1290 08c0 06       		.uleb128 0x6
 1291 08c1 90000000 		.4byte	0x90
 1292 08c5 00       		.byte	0
 1293 08c6 0A       		.uleb128 0xa
 1294 08c7 B6080000 		.4byte	0x8b6
 1295 08cb 05       		.uleb128 0x5
 1296 08cc CA030000 		.4byte	.LASF163
 1297 08d0 F501     		.2byte	0x1f5
 1298 08d2 03       		.byte	0x3
 1299 08d3 C1070000 		.4byte	0x7c1
 1300 08d7 16       		.uleb128 0x16
 1301 08d8 79030000 		.4byte	.LASF164
 1302 08dc 7E       		.byte	0x7e
 1303 08dd 79040000 		.4byte	0x479
 1304 08e1 F0080000 		.4byte	0x8f0
 1305 08e5 06       		.uleb128 0x6
 1306 08e6 F0080000 		.4byte	0x8f0
 1307 08ea 06       		.uleb128 0x6
 1308 08eb 90000000 		.4byte	0x90
 1309 08ef 00       		.byte	0
 1310 08f0 0A       		.uleb128 0xa
 1311 08f1 CB080000 		.4byte	0x8cb
ARM GAS  C:\Users\DEVELO~1\AppData\Local\Temp\cc1tck9J.s 			page 24


 1312 08f5 16       		.uleb128 0x16
 1313 08f6 F3030000 		.4byte	.LASF165
 1314 08fa 75       		.byte	0x75
 1315 08fb 79040000 		.4byte	0x479
 1316 08ff 27090000 		.4byte	0x927
 1317 0903 06       		.uleb128 0x6
 1318 0904 F0080000 		.4byte	0x8f0
 1319 0908 06       		.uleb128 0x6
 1320 0909 90000000 		.4byte	0x90
 1321 090d 06       		.uleb128 0x6
 1322 090e 90000000 		.4byte	0x90
 1323 0912 06       		.uleb128 0x6
 1324 0913 90000000 		.4byte	0x90
 1325 0917 06       		.uleb128 0x6
 1326 0918 90000000 		.4byte	0x90
 1327 091c 06       		.uleb128 0x6
 1328 091d 90000000 		.4byte	0x90
 1329 0921 06       		.uleb128 0x6
 1330 0922 A1000000 		.4byte	0xa1
 1331 0926 00       		.byte	0
 1332 0927 26       		.uleb128 0x26
 1333 0928 81090000 		.4byte	.LASF179
 1334 092c 01       		.byte	0x1
 1335 092d AA       		.byte	0xaa
 1336 092e 11       		.byte	0x11
 1337 092f A1000000 		.4byte	0xa1
 1338 0933 01       		.byte	0x1
 1339 0934 51090000 		.4byte	0x951
 1340 0938 27       		.uleb128 0x27
 1341 0939 FF070000 		.4byte	.LASF166
 1342 093d 01       		.byte	0x1
 1343 093e AA       		.byte	0xaa
 1344 093f 36       		.byte	0x36
 1345 0940 F0080000 		.4byte	0x8f0
 1346 0944 28       		.uleb128 0x28
 1347 0945 69647800 		.ascii	"idx\000"
 1348 0949 01       		.byte	0x1
 1349 094a AC       		.byte	0xac
 1350 094b 0B       		.byte	0xb
 1351 094c 90000000 		.4byte	0x90
 1352 0950 00       		.byte	0
 1353 0951 12       		.uleb128 0x12
 1354 0952 C3040000 		.4byte	.LASF167
 1355 0956 99       		.byte	0x99
 1356 0957 14       		.byte	0x14
 1357 0958 79040000 		.4byte	0x479
 1358 095c 00000000 		.4byte	.LFB147
 1359 0960 18000000 		.4byte	.LFE147-.LFB147
 1360 0964 01       		.uleb128 0x1
 1361 0965 9C       		.byte	0x9c
 1362 0966 92090000 		.4byte	0x992
 1363 096a 07       		.uleb128 0x7
 1364 096b FF070000 		.4byte	.LASF166
 1365 096f 99       		.byte	0x99
 1366 0970 36       		.byte	0x36
 1367 0971 F0080000 		.4byte	0x8f0
 1368 0975 10000000 		.4byte	.LLST12
ARM GAS  C:\Users\DEVELO~1\AppData\Local\Temp\cc1tck9J.s 			page 25


 1369 0979 0C000000 		.4byte	.LVUS12
 1370 097d 29       		.uleb128 0x29
 1371 097e 69647800 		.ascii	"idx\000"
 1372 0982 01       		.byte	0x1
 1373 0983 99       		.byte	0x99
 1374 0984 45       		.byte	0x45
 1375 0985 90000000 		.4byte	0x90
 1376 0989 27000000 		.4byte	.LLST13
 1377 098d 23000000 		.4byte	.LVUS13
 1378 0991 00       		.byte	0
 1379 0992 12       		.uleb128 0x12
 1380 0993 D7020000 		.4byte	.LASF168
 1381 0997 83       		.byte	0x83
 1382 0998 09       		.byte	0x9
 1383 0999 90000000 		.4byte	0x90
 1384 099d 00000000 		.4byte	.LFB146
 1385 09a1 3A000000 		.4byte	.LFE146-.LFB146
 1386 09a5 01       		.uleb128 0x1
 1387 09a6 9C       		.byte	0x9c
 1388 09a7 180A0000 		.4byte	0xa18
 1389 09ab 07       		.uleb128 0x7
 1390 09ac FF070000 		.4byte	.LASF166
 1391 09b0 83       		.byte	0x83
 1392 09b1 2C       		.byte	0x2c
 1393 09b2 F0080000 		.4byte	0x8f0
 1394 09b6 42000000 		.4byte	.LLST6
 1395 09ba 3A000000 		.4byte	.LVUS6
 1396 09be 07       		.uleb128 0x7
 1397 09bf E6020000 		.4byte	.LASF169
 1398 09c3 83       		.byte	0x83
 1399 09c4 3B       		.byte	0x3b
 1400 09c5 90000000 		.4byte	0x90
 1401 09c9 66000000 		.4byte	.LLST7
 1402 09cd 62000000 		.4byte	.LVUS7
 1403 09d1 2A       		.uleb128 0x2a
 1404 09d2 0F020000 		.4byte	.LASF180
 1405 09d6 01       		.byte	0x1
 1406 09d7 85       		.byte	0x85
 1407 09d8 0C       		.byte	0xc
 1408 09d9 A1000000 		.4byte	0xa1
 1409 09dd 7B000000 		.4byte	.LLST8
 1410 09e1 79000000 		.4byte	.LVUS8
 1411 09e5 2B       		.uleb128 0x2b
 1412 09e6 27090000 		.4byte	0x927
 1413 09ea 02000000 		.4byte	.LBI4
 1414 09ee 00       		.byte	.LVU22
 1415 09ef 0C000000 		.4byte	.LLRL9
 1416 09f3 01       		.byte	0x1
 1417 09f4 87       		.byte	0x87
 1418 09f5 0B       		.byte	0xb
 1419 09f6 2C       		.uleb128 0x2c
 1420 09f7 38090000 		.4byte	0x938
 1421 09fb 8D000000 		.4byte	.LLST10
 1422 09ff 89000000 		.4byte	.LVUS10
 1423 0a03 2D       		.uleb128 0x2d
 1424 0a04 0C000000 		.4byte	.LLRL9
 1425 0a08 2E       		.uleb128 0x2e
ARM GAS  C:\Users\DEVELO~1\AppData\Local\Temp\cc1tck9J.s 			page 26


 1426 0a09 44090000 		.4byte	0x944
 1427 0a0d A6000000 		.4byte	.LLST11
 1428 0a11 9E000000 		.4byte	.LVUS11
 1429 0a15 00       		.byte	0
 1430 0a16 00       		.byte	0
 1431 0a17 00       		.byte	0
 1432 0a18 12       		.uleb128 0x12
 1433 0a19 AB040000 		.4byte	.LASF170
 1434 0a1d 74       		.byte	0x74
 1435 0a1e 14       		.byte	0x14
 1436 0a1f 79040000 		.4byte	0x479
 1437 0a23 00000000 		.4byte	.LFB145
 1438 0a27 0A000000 		.4byte	.LFE145-.LFB145
 1439 0a2b 01       		.uleb128 0x1
 1440 0a2c 9C       		.byte	0x9c
 1441 0a2d 690A0000 		.4byte	0xa69
 1442 0a31 07       		.uleb128 0x7
 1443 0a32 FF070000 		.4byte	.LASF166
 1444 0a36 74       		.byte	0x74
 1445 0a37 37       		.byte	0x37
 1446 0a38 F0080000 		.4byte	0x8f0
 1447 0a3c C7000000 		.4byte	.LLST4
 1448 0a40 C3000000 		.4byte	.LVUS4
 1449 0a44 07       		.uleb128 0x7
 1450 0a45 4B090000 		.4byte	.LASF171
 1451 0a49 74       		.byte	0x74
 1452 0a4a 46       		.byte	0x46
 1453 0a4b 90000000 		.4byte	0x90
 1454 0a4f DE000000 		.4byte	.LLST5
 1455 0a53 DA000000 		.4byte	.LVUS5
 1456 0a57 17       		.uleb128 0x17
 1457 0a58 06000000 		.4byte	.LVL3
 1458 0a5c D7080000 		.4byte	0x8d7
 1459 0a60 0E       		.uleb128 0xe
 1460 0a61 01       		.uleb128 0x1
 1461 0a62 50       		.byte	0x50
 1462 0a63 03       		.uleb128 0x3
 1463 0a64 A3       		.byte	0xa3
 1464 0a65 01       		.uleb128 0x1
 1465 0a66 50       		.byte	0x50
 1466 0a67 00       		.byte	0
 1467 0a68 00       		.byte	0
 1468 0a69 2F       		.uleb128 0x2f
 1469 0a6a 3A060000 		.4byte	.LASF181
 1470 0a6e 01       		.byte	0x1
 1471 0a6f 54       		.byte	0x54
 1472 0a70 14       		.byte	0x14
 1473 0a71 79040000 		.4byte	0x479
 1474 0a75 00000000 		.4byte	.LFB144
 1475 0a79 20000000 		.4byte	.LFE144-.LFB144
 1476 0a7d 01       		.uleb128 0x1
 1477 0a7e 9C       		.byte	0x9c
 1478 0a7f 07       		.uleb128 0x7
 1479 0a80 FF070000 		.4byte	.LASF166
 1480 0a84 54       		.byte	0x54
 1481 0a85 36       		.byte	0x36
 1482 0a86 F0080000 		.4byte	0x8f0
ARM GAS  C:\Users\DEVELO~1\AppData\Local\Temp\cc1tck9J.s 			page 27


 1483 0a8a F5000000 		.4byte	.LLST0
 1484 0a8e F1000000 		.4byte	.LVUS0
 1485 0a92 07       		.uleb128 0x7
 1486 0a93 4B090000 		.4byte	.LASF171
 1487 0a97 54       		.byte	0x54
 1488 0a98 45       		.byte	0x45
 1489 0a99 90000000 		.4byte	0x90
 1490 0a9d 0C010000 		.4byte	.LLST1
 1491 0aa1 08010000 		.4byte	.LVUS1
 1492 0aa5 07       		.uleb128 0x7
 1493 0aa6 49040000 		.4byte	.LASF172
 1494 0aaa 55       		.byte	0x55
 1495 0aab 2A       		.byte	0x2a
 1496 0aac 90000000 		.4byte	0x90
 1497 0ab0 23010000 		.4byte	.LLST2
 1498 0ab4 1F010000 		.4byte	.LVUS2
 1499 0ab8 07       		.uleb128 0x7
 1500 0ab9 680A0000 		.4byte	.LASF173
 1501 0abd 55       		.byte	0x55
 1502 0abe 39       		.byte	0x39
 1503 0abf 90000000 		.4byte	0x90
 1504 0ac3 3A010000 		.4byte	.LLST3
 1505 0ac7 36010000 		.4byte	.LVUS3
 1506 0acb 18       		.uleb128 0x18
 1507 0acc 040A0000 		.4byte	.LASF130
 1508 0ad0 56       		.byte	0x56
 1509 0ad1 2A       		.byte	0x2a
 1510 0ad2 90000000 		.4byte	0x90
 1511 0ad6 02       		.uleb128 0x2
 1512 0ad7 91       		.byte	0x91
 1513 0ad8 00       		.sleb128 0
 1514 0ad9 18       		.uleb128 0x18
 1515 0ada 66090000 		.4byte	.LASF174
 1516 0ade 56       		.byte	0x56
 1517 0adf 39       		.byte	0x39
 1518 0ae0 90000000 		.4byte	0x90
 1519 0ae4 02       		.uleb128 0x2
 1520 0ae5 91       		.byte	0x91
 1521 0ae6 04       		.sleb128 4
 1522 0ae7 30       		.uleb128 0x30
 1523 0ae8 6D707300 		.ascii	"mps\000"
 1524 0aec 01       		.byte	0x1
 1525 0aed 56       		.byte	0x56
 1526 0aee 4B       		.byte	0x4b
 1527 0aef A1000000 		.4byte	0xa1
 1528 0af3 02       		.uleb128 0x2
 1529 0af4 91       		.byte	0x91
 1530 0af5 08       		.sleb128 8
 1531 0af6 17       		.uleb128 0x17
 1532 0af7 1A000000 		.4byte	.LVL1
 1533 0afb F5080000 		.4byte	0x8f5
 1534 0aff 0E       		.uleb128 0xe
 1535 0b00 01       		.uleb128 0x1
 1536 0b01 50       		.byte	0x50
 1537 0b02 03       		.uleb128 0x3
 1538 0b03 A3       		.byte	0xa3
 1539 0b04 01       		.uleb128 0x1
ARM GAS  C:\Users\DEVELO~1\AppData\Local\Temp\cc1tck9J.s 			page 28


 1540 0b05 50       		.byte	0x50
 1541 0b06 0E       		.uleb128 0xe
 1542 0b07 02       		.uleb128 0x2
 1543 0b08 7D       		.byte	0x7d
 1544 0b09 00       		.sleb128 0
 1545 0b0a 04       		.uleb128 0x4
 1546 0b0b 91       		.byte	0x91
 1547 0b0c 00       		.sleb128 0
 1548 0b0d 94       		.byte	0x94
 1549 0b0e 01       		.byte	0x1
 1550 0b0f 0E       		.uleb128 0xe
 1551 0b10 02       		.uleb128 0x2
 1552 0b11 7D       		.byte	0x7d
 1553 0b12 04       		.sleb128 4
 1554 0b13 04       		.uleb128 0x4
 1555 0b14 91       		.byte	0x91
 1556 0b15 04       		.sleb128 4
 1557 0b16 94       		.byte	0x94
 1558 0b17 01       		.byte	0x1
 1559 0b18 0E       		.uleb128 0xe
 1560 0b19 02       		.uleb128 0x2
 1561 0b1a 7D       		.byte	0x7d
 1562 0b1b 08       		.sleb128 8
 1563 0b1c 02       		.uleb128 0x2
 1564 0b1d 74       		.byte	0x74
 1565 0b1e 00       		.sleb128 0
 1566 0b1f 00       		.byte	0
 1567 0b20 00       		.byte	0
 1568 0b21 00       		.byte	0
 1569              		.section	.debug_abbrev,"",%progbits
 1570              	.Ldebug_abbrev0:
 1571 0000 01       		.uleb128 0x1
 1572 0001 0D       		.uleb128 0xd
 1573 0002 00       		.byte	0
 1574 0003 03       		.uleb128 0x3
 1575 0004 0E       		.uleb128 0xe
 1576 0005 3A       		.uleb128 0x3a
 1577 0006 21       		.uleb128 0x21
 1578 0007 04       		.sleb128 4
 1579 0008 3B       		.uleb128 0x3b
 1580 0009 05       		.uleb128 0x5
 1581 000a 39       		.uleb128 0x39
 1582 000b 0B       		.uleb128 0xb
 1583 000c 49       		.uleb128 0x49
 1584 000d 13       		.uleb128 0x13
 1585 000e 38       		.uleb128 0x38
 1586 000f 0B       		.uleb128 0xb
 1587 0010 00       		.byte	0
 1588 0011 00       		.byte	0
 1589 0012 02       		.uleb128 0x2
 1590 0013 28       		.uleb128 0x28
 1591 0014 00       		.byte	0
 1592 0015 03       		.uleb128 0x3
 1593 0016 0E       		.uleb128 0xe
 1594 0017 1C       		.uleb128 0x1c
 1595 0018 0B       		.uleb128 0xb
 1596 0019 00       		.byte	0
ARM GAS  C:\Users\DEVELO~1\AppData\Local\Temp\cc1tck9J.s 			page 29


 1597 001a 00       		.byte	0
 1598 001b 03       		.uleb128 0x3
 1599 001c 0D       		.uleb128 0xd
 1600 001d 00       		.byte	0
 1601 001e 03       		.uleb128 0x3
 1602 001f 0E       		.uleb128 0xe
 1603 0020 3A       		.uleb128 0x3a
 1604 0021 21       		.uleb128 0x21
 1605 0022 04       		.sleb128 4
 1606 0023 3B       		.uleb128 0x3b
 1607 0024 05       		.uleb128 0x5
 1608 0025 39       		.uleb128 0x39
 1609 0026 0B       		.uleb128 0xb
 1610 0027 49       		.uleb128 0x49
 1611 0028 13       		.uleb128 0x13
 1612 0029 38       		.uleb128 0x38
 1613 002a 05       		.uleb128 0x5
 1614 002b 00       		.byte	0
 1615 002c 00       		.byte	0
 1616 002d 04       		.uleb128 0x4
 1617 002e 24       		.uleb128 0x24
 1618 002f 00       		.byte	0
 1619 0030 0B       		.uleb128 0xb
 1620 0031 0B       		.uleb128 0xb
 1621 0032 3E       		.uleb128 0x3e
 1622 0033 0B       		.uleb128 0xb
 1623 0034 03       		.uleb128 0x3
 1624 0035 0E       		.uleb128 0xe
 1625 0036 00       		.byte	0
 1626 0037 00       		.byte	0
 1627 0038 05       		.uleb128 0x5
 1628 0039 16       		.uleb128 0x16
 1629 003a 00       		.byte	0
 1630 003b 03       		.uleb128 0x3
 1631 003c 0E       		.uleb128 0xe
 1632 003d 3A       		.uleb128 0x3a
 1633 003e 21       		.uleb128 0x21
 1634 003f 04       		.sleb128 4
 1635 0040 3B       		.uleb128 0x3b
 1636 0041 05       		.uleb128 0x5
 1637 0042 39       		.uleb128 0x39
 1638 0043 0B       		.uleb128 0xb
 1639 0044 49       		.uleb128 0x49
 1640 0045 13       		.uleb128 0x13
 1641 0046 00       		.byte	0
 1642 0047 00       		.byte	0
 1643 0048 06       		.uleb128 0x6
 1644 0049 05       		.uleb128 0x5
 1645 004a 00       		.byte	0
 1646 004b 49       		.uleb128 0x49
 1647 004c 13       		.uleb128 0x13
 1648 004d 00       		.byte	0
 1649 004e 00       		.byte	0
 1650 004f 07       		.uleb128 0x7
 1651 0050 05       		.uleb128 0x5
 1652 0051 00       		.byte	0
 1653 0052 03       		.uleb128 0x3
ARM GAS  C:\Users\DEVELO~1\AppData\Local\Temp\cc1tck9J.s 			page 30


 1654 0053 0E       		.uleb128 0xe
 1655 0054 3A       		.uleb128 0x3a
 1656 0055 21       		.uleb128 0x21
 1657 0056 01       		.sleb128 1
 1658 0057 3B       		.uleb128 0x3b
 1659 0058 0B       		.uleb128 0xb
 1660 0059 39       		.uleb128 0x39
 1661 005a 0B       		.uleb128 0xb
 1662 005b 49       		.uleb128 0x49
 1663 005c 13       		.uleb128 0x13
 1664 005d 02       		.uleb128 0x2
 1665 005e 17       		.uleb128 0x17
 1666 005f B742     		.uleb128 0x2137
 1667 0061 17       		.uleb128 0x17
 1668 0062 00       		.byte	0
 1669 0063 00       		.byte	0
 1670 0064 08       		.uleb128 0x8
 1671 0065 16       		.uleb128 0x16
 1672 0066 00       		.byte	0
 1673 0067 03       		.uleb128 0x3
 1674 0068 0E       		.uleb128 0xe
 1675 0069 3A       		.uleb128 0x3a
 1676 006a 0B       		.uleb128 0xb
 1677 006b 3B       		.uleb128 0x3b
 1678 006c 0B       		.uleb128 0xb
 1679 006d 39       		.uleb128 0x39
 1680 006e 0B       		.uleb128 0xb
 1681 006f 49       		.uleb128 0x49
 1682 0070 13       		.uleb128 0x13
 1683 0071 00       		.byte	0
 1684 0072 00       		.byte	0
 1685 0073 09       		.uleb128 0x9
 1686 0074 0D       		.uleb128 0xd
 1687 0075 00       		.byte	0
 1688 0076 03       		.uleb128 0x3
 1689 0077 0E       		.uleb128 0xe
 1690 0078 3A       		.uleb128 0x3a
 1691 0079 21       		.uleb128 0x21
 1692 007a 04       		.sleb128 4
 1693 007b 3B       		.uleb128 0x3b
 1694 007c 0B       		.uleb128 0xb
 1695 007d 39       		.uleb128 0x39
 1696 007e 0B       		.uleb128 0xb
 1697 007f 49       		.uleb128 0x49
 1698 0080 13       		.uleb128 0x13
 1699 0081 38       		.uleb128 0x38
 1700 0082 0B       		.uleb128 0xb
 1701 0083 00       		.byte	0
 1702 0084 00       		.byte	0
 1703 0085 0A       		.uleb128 0xa
 1704 0086 0F       		.uleb128 0xf
 1705 0087 00       		.byte	0
 1706 0088 0B       		.uleb128 0xb
 1707 0089 21       		.uleb128 0x21
 1708 008a 04       		.sleb128 4
 1709 008b 49       		.uleb128 0x49
 1710 008c 13       		.uleb128 0x13
ARM GAS  C:\Users\DEVELO~1\AppData\Local\Temp\cc1tck9J.s 			page 31


 1711 008d 00       		.byte	0
 1712 008e 00       		.byte	0
 1713 008f 0B       		.uleb128 0xb
 1714 0090 01       		.uleb128 0x1
 1715 0091 01       		.byte	0x1
 1716 0092 49       		.uleb128 0x49
 1717 0093 13       		.uleb128 0x13
 1718 0094 01       		.uleb128 0x1
 1719 0095 13       		.uleb128 0x13
 1720 0096 00       		.byte	0
 1721 0097 00       		.byte	0
 1722 0098 0C       		.uleb128 0xc
 1723 0099 21       		.uleb128 0x21
 1724 009a 00       		.byte	0
 1725 009b 49       		.uleb128 0x49
 1726 009c 13       		.uleb128 0x13
 1727 009d 2F       		.uleb128 0x2f
 1728 009e 0B       		.uleb128 0xb
 1729 009f 00       		.byte	0
 1730 00a0 00       		.byte	0
 1731 00a1 0D       		.uleb128 0xd
 1732 00a2 04       		.uleb128 0x4
 1733 00a3 01       		.byte	0x1
 1734 00a4 3E       		.uleb128 0x3e
 1735 00a5 21       		.uleb128 0x21
 1736 00a6 07       		.sleb128 7
 1737 00a7 0B       		.uleb128 0xb
 1738 00a8 21       		.uleb128 0x21
 1739 00a9 01       		.sleb128 1
 1740 00aa 49       		.uleb128 0x49
 1741 00ab 13       		.uleb128 0x13
 1742 00ac 3A       		.uleb128 0x3a
 1743 00ad 21       		.uleb128 0x21
 1744 00ae 04       		.sleb128 4
 1745 00af 3B       		.uleb128 0x3b
 1746 00b0 05       		.uleb128 0x5
 1747 00b1 39       		.uleb128 0x39
 1748 00b2 21       		.uleb128 0x21
 1749 00b3 01       		.sleb128 1
 1750 00b4 01       		.uleb128 0x1
 1751 00b5 13       		.uleb128 0x13
 1752 00b6 00       		.byte	0
 1753 00b7 00       		.byte	0
 1754 00b8 0E       		.uleb128 0xe
 1755 00b9 49       		.uleb128 0x49
 1756 00ba 00       		.byte	0
 1757 00bb 02       		.uleb128 0x2
 1758 00bc 18       		.uleb128 0x18
 1759 00bd 7E       		.uleb128 0x7e
 1760 00be 18       		.uleb128 0x18
 1761 00bf 00       		.byte	0
 1762 00c0 00       		.byte	0
 1763 00c1 0F       		.uleb128 0xf
 1764 00c2 0D       		.uleb128 0xd
 1765 00c3 00       		.byte	0
 1766 00c4 03       		.uleb128 0x3
 1767 00c5 08       		.uleb128 0x8
ARM GAS  C:\Users\DEVELO~1\AppData\Local\Temp\cc1tck9J.s 			page 32


 1768 00c6 3A       		.uleb128 0x3a
 1769 00c7 21       		.uleb128 0x21
 1770 00c8 04       		.sleb128 4
 1771 00c9 3B       		.uleb128 0x3b
 1772 00ca 0B       		.uleb128 0xb
 1773 00cb 39       		.uleb128 0x39
 1774 00cc 0B       		.uleb128 0xb
 1775 00cd 49       		.uleb128 0x49
 1776 00ce 13       		.uleb128 0x13
 1777 00cf 00       		.byte	0
 1778 00d0 00       		.byte	0
 1779 00d1 10       		.uleb128 0x10
 1780 00d2 35       		.uleb128 0x35
 1781 00d3 00       		.byte	0
 1782 00d4 49       		.uleb128 0x49
 1783 00d5 13       		.uleb128 0x13
 1784 00d6 00       		.byte	0
 1785 00d7 00       		.byte	0
 1786 00d8 11       		.uleb128 0x11
 1787 00d9 13       		.uleb128 0x13
 1788 00da 01       		.byte	0x1
 1789 00db 03       		.uleb128 0x3
 1790 00dc 0E       		.uleb128 0xe
 1791 00dd 0B       		.uleb128 0xb
 1792 00de 0B       		.uleb128 0xb
 1793 00df 3A       		.uleb128 0x3a
 1794 00e0 21       		.uleb128 0x21
 1795 00e1 04       		.sleb128 4
 1796 00e2 3B       		.uleb128 0x3b
 1797 00e3 05       		.uleb128 0x5
 1798 00e4 39       		.uleb128 0x39
 1799 00e5 21       		.uleb128 0x21
 1800 00e6 10       		.sleb128 16
 1801 00e7 01       		.uleb128 0x1
 1802 00e8 13       		.uleb128 0x13
 1803 00e9 00       		.byte	0
 1804 00ea 00       		.byte	0
 1805 00eb 12       		.uleb128 0x12
 1806 00ec 2E       		.uleb128 0x2e
 1807 00ed 01       		.byte	0x1
 1808 00ee 3F       		.uleb128 0x3f
 1809 00ef 19       		.uleb128 0x19
 1810 00f0 03       		.uleb128 0x3
 1811 00f1 0E       		.uleb128 0xe
 1812 00f2 3A       		.uleb128 0x3a
 1813 00f3 21       		.uleb128 0x21
 1814 00f4 01       		.sleb128 1
 1815 00f5 3B       		.uleb128 0x3b
 1816 00f6 0B       		.uleb128 0xb
 1817 00f7 39       		.uleb128 0x39
 1818 00f8 0B       		.uleb128 0xb
 1819 00f9 27       		.uleb128 0x27
 1820 00fa 19       		.uleb128 0x19
 1821 00fb 49       		.uleb128 0x49
 1822 00fc 13       		.uleb128 0x13
 1823 00fd 11       		.uleb128 0x11
 1824 00fe 01       		.uleb128 0x1
ARM GAS  C:\Users\DEVELO~1\AppData\Local\Temp\cc1tck9J.s 			page 33


 1825 00ff 12       		.uleb128 0x12
 1826 0100 06       		.uleb128 0x6
 1827 0101 40       		.uleb128 0x40
 1828 0102 18       		.uleb128 0x18
 1829 0103 7A       		.uleb128 0x7a
 1830 0104 19       		.uleb128 0x19
 1831 0105 01       		.uleb128 0x1
 1832 0106 13       		.uleb128 0x13
 1833 0107 00       		.byte	0
 1834 0108 00       		.byte	0
 1835 0109 13       		.uleb128 0x13
 1836 010a 0D       		.uleb128 0xd
 1837 010b 00       		.byte	0
 1838 010c 03       		.uleb128 0x3
 1839 010d 08       		.uleb128 0x8
 1840 010e 3A       		.uleb128 0x3a
 1841 010f 21       		.uleb128 0x21
 1842 0110 04       		.sleb128 4
 1843 0111 3B       		.uleb128 0x3b
 1844 0112 0B       		.uleb128 0xb
 1845 0113 39       		.uleb128 0x39
 1846 0114 21       		.uleb128 0x21
 1847 0115 0D       		.sleb128 13
 1848 0116 49       		.uleb128 0x49
 1849 0117 13       		.uleb128 0x13
 1850 0118 38       		.uleb128 0x38
 1851 0119 0B       		.uleb128 0xb
 1852 011a 00       		.byte	0
 1853 011b 00       		.byte	0
 1854 011c 14       		.uleb128 0x14
 1855 011d 13       		.uleb128 0x13
 1856 011e 01       		.byte	0x1
 1857 011f 03       		.uleb128 0x3
 1858 0120 0E       		.uleb128 0xe
 1859 0121 0B       		.uleb128 0xb
 1860 0122 0B       		.uleb128 0xb
 1861 0123 3A       		.uleb128 0x3a
 1862 0124 21       		.uleb128 0x21
 1863 0125 04       		.sleb128 4
 1864 0126 3B       		.uleb128 0x3b
 1865 0127 0B       		.uleb128 0xb
 1866 0128 39       		.uleb128 0x39
 1867 0129 0B       		.uleb128 0xb
 1868 012a 01       		.uleb128 0x1
 1869 012b 13       		.uleb128 0x13
 1870 012c 00       		.byte	0
 1871 012d 00       		.byte	0
 1872 012e 15       		.uleb128 0x15
 1873 012f 13       		.uleb128 0x13
 1874 0130 01       		.byte	0x1
 1875 0131 0B       		.uleb128 0xb
 1876 0132 0B       		.uleb128 0xb
 1877 0133 3A       		.uleb128 0x3a
 1878 0134 21       		.uleb128 0x21
 1879 0135 04       		.sleb128 4
 1880 0136 3B       		.uleb128 0x3b
 1881 0137 05       		.uleb128 0x5
ARM GAS  C:\Users\DEVELO~1\AppData\Local\Temp\cc1tck9J.s 			page 34


 1882 0138 39       		.uleb128 0x39
 1883 0139 21       		.uleb128 0x21
 1884 013a 09       		.sleb128 9
 1885 013b 01       		.uleb128 0x1
 1886 013c 13       		.uleb128 0x13
 1887 013d 00       		.byte	0
 1888 013e 00       		.byte	0
 1889 013f 16       		.uleb128 0x16
 1890 0140 2E       		.uleb128 0x2e
 1891 0141 01       		.byte	0x1
 1892 0142 3F       		.uleb128 0x3f
 1893 0143 19       		.uleb128 0x19
 1894 0144 03       		.uleb128 0x3
 1895 0145 0E       		.uleb128 0xe
 1896 0146 3A       		.uleb128 0x3a
 1897 0147 21       		.uleb128 0x21
 1898 0148 05       		.sleb128 5
 1899 0149 3B       		.uleb128 0x3b
 1900 014a 0B       		.uleb128 0xb
 1901 014b 39       		.uleb128 0x39
 1902 014c 21       		.uleb128 0x21
 1903 014d 14       		.sleb128 20
 1904 014e 27       		.uleb128 0x27
 1905 014f 19       		.uleb128 0x19
 1906 0150 49       		.uleb128 0x49
 1907 0151 13       		.uleb128 0x13
 1908 0152 3C       		.uleb128 0x3c
 1909 0153 19       		.uleb128 0x19
 1910 0154 01       		.uleb128 0x1
 1911 0155 13       		.uleb128 0x13
 1912 0156 00       		.byte	0
 1913 0157 00       		.byte	0
 1914 0158 17       		.uleb128 0x17
 1915 0159 48       		.uleb128 0x48
 1916 015a 01       		.byte	0x1
 1917 015b 7D       		.uleb128 0x7d
 1918 015c 01       		.uleb128 0x1
 1919 015d 7F       		.uleb128 0x7f
 1920 015e 13       		.uleb128 0x13
 1921 015f 00       		.byte	0
 1922 0160 00       		.byte	0
 1923 0161 18       		.uleb128 0x18
 1924 0162 05       		.uleb128 0x5
 1925 0163 00       		.byte	0
 1926 0164 03       		.uleb128 0x3
 1927 0165 0E       		.uleb128 0xe
 1928 0166 3A       		.uleb128 0x3a
 1929 0167 21       		.uleb128 0x21
 1930 0168 01       		.sleb128 1
 1931 0169 3B       		.uleb128 0x3b
 1932 016a 0B       		.uleb128 0xb
 1933 016b 39       		.uleb128 0x39
 1934 016c 0B       		.uleb128 0xb
 1935 016d 49       		.uleb128 0x49
 1936 016e 13       		.uleb128 0x13
 1937 016f 02       		.uleb128 0x2
 1938 0170 18       		.uleb128 0x18
ARM GAS  C:\Users\DEVELO~1\AppData\Local\Temp\cc1tck9J.s 			page 35


 1939 0171 00       		.byte	0
 1940 0172 00       		.byte	0
 1941 0173 19       		.uleb128 0x19
 1942 0174 11       		.uleb128 0x11
 1943 0175 01       		.byte	0x1
 1944 0176 25       		.uleb128 0x25
 1945 0177 0E       		.uleb128 0xe
 1946 0178 13       		.uleb128 0x13
 1947 0179 0B       		.uleb128 0xb
 1948 017a 03       		.uleb128 0x3
 1949 017b 0E       		.uleb128 0xe
 1950 017c 1B       		.uleb128 0x1b
 1951 017d 0E       		.uleb128 0xe
 1952 017e 55       		.uleb128 0x55
 1953 017f 17       		.uleb128 0x17
 1954 0180 11       		.uleb128 0x11
 1955 0181 01       		.uleb128 0x1
 1956 0182 10       		.uleb128 0x10
 1957 0183 17       		.uleb128 0x17
 1958 0184 00       		.byte	0
 1959 0185 00       		.byte	0
 1960 0186 1A       		.uleb128 0x1a
 1961 0187 24       		.uleb128 0x24
 1962 0188 00       		.byte	0
 1963 0189 0B       		.uleb128 0xb
 1964 018a 0B       		.uleb128 0xb
 1965 018b 3E       		.uleb128 0x3e
 1966 018c 0B       		.uleb128 0xb
 1967 018d 03       		.uleb128 0x3
 1968 018e 08       		.uleb128 0x8
 1969 018f 00       		.byte	0
 1970 0190 00       		.byte	0
 1971 0191 1B       		.uleb128 0x1b
 1972 0192 0F       		.uleb128 0xf
 1973 0193 00       		.byte	0
 1974 0194 0B       		.uleb128 0xb
 1975 0195 0B       		.uleb128 0xb
 1976 0196 00       		.byte	0
 1977 0197 00       		.byte	0
 1978 0198 1C       		.uleb128 0x1c
 1979 0199 26       		.uleb128 0x26
 1980 019a 00       		.byte	0
 1981 019b 49       		.uleb128 0x49
 1982 019c 13       		.uleb128 0x13
 1983 019d 00       		.byte	0
 1984 019e 00       		.byte	0
 1985 019f 1D       		.uleb128 0x1d
 1986 01a0 13       		.uleb128 0x13
 1987 01a1 01       		.byte	0x1
 1988 01a2 03       		.uleb128 0x3
 1989 01a3 08       		.uleb128 0x8
 1990 01a4 0B       		.uleb128 0xb
 1991 01a5 0B       		.uleb128 0xb
 1992 01a6 3A       		.uleb128 0x3a
 1993 01a7 0B       		.uleb128 0xb
 1994 01a8 3B       		.uleb128 0x3b
 1995 01a9 0B       		.uleb128 0xb
ARM GAS  C:\Users\DEVELO~1\AppData\Local\Temp\cc1tck9J.s 			page 36


 1996 01aa 39       		.uleb128 0x39
 1997 01ab 0B       		.uleb128 0xb
 1998 01ac 01       		.uleb128 0x1
 1999 01ad 13       		.uleb128 0x13
 2000 01ae 00       		.byte	0
 2001 01af 00       		.byte	0
 2002 01b0 1E       		.uleb128 0x1e
 2003 01b1 17       		.uleb128 0x17
 2004 01b2 01       		.byte	0x1
 2005 01b3 0B       		.uleb128 0xb
 2006 01b4 0B       		.uleb128 0xb
 2007 01b5 3A       		.uleb128 0x3a
 2008 01b6 0B       		.uleb128 0xb
 2009 01b7 3B       		.uleb128 0x3b
 2010 01b8 0B       		.uleb128 0xb
 2011 01b9 39       		.uleb128 0x39
 2012 01ba 0B       		.uleb128 0xb
 2013 01bb 01       		.uleb128 0x1
 2014 01bc 13       		.uleb128 0x13
 2015 01bd 00       		.byte	0
 2016 01be 00       		.byte	0
 2017 01bf 1F       		.uleb128 0x1f
 2018 01c0 17       		.uleb128 0x17
 2019 01c1 01       		.byte	0x1
 2020 01c2 03       		.uleb128 0x3
 2021 01c3 0E       		.uleb128 0xe
 2022 01c4 0B       		.uleb128 0xb
 2023 01c5 0B       		.uleb128 0xb
 2024 01c6 3A       		.uleb128 0x3a
 2025 01c7 0B       		.uleb128 0xb
 2026 01c8 3B       		.uleb128 0x3b
 2027 01c9 0B       		.uleb128 0xb
 2028 01ca 39       		.uleb128 0x39
 2029 01cb 0B       		.uleb128 0xb
 2030 01cc 01       		.uleb128 0x1
 2031 01cd 13       		.uleb128 0x13
 2032 01ce 00       		.byte	0
 2033 01cf 00       		.byte	0
 2034 01d0 20       		.uleb128 0x20
 2035 01d1 13       		.uleb128 0x13
 2036 01d2 01       		.byte	0x1
 2037 01d3 0B       		.uleb128 0xb
 2038 01d4 05       		.uleb128 0x5
 2039 01d5 3A       		.uleb128 0x3a
 2040 01d6 0B       		.uleb128 0xb
 2041 01d7 3B       		.uleb128 0x3b
 2042 01d8 05       		.uleb128 0x5
 2043 01d9 39       		.uleb128 0x39
 2044 01da 0B       		.uleb128 0xb
 2045 01db 01       		.uleb128 0x1
 2046 01dc 13       		.uleb128 0x13
 2047 01dd 00       		.byte	0
 2048 01de 00       		.byte	0
 2049 01df 21       		.uleb128 0x21
 2050 01e0 21       		.uleb128 0x21
 2051 01e1 00       		.byte	0
 2052 01e2 49       		.uleb128 0x49
ARM GAS  C:\Users\DEVELO~1\AppData\Local\Temp\cc1tck9J.s 			page 37


 2053 01e3 13       		.uleb128 0x13
 2054 01e4 2F       		.uleb128 0x2f
 2055 01e5 05       		.uleb128 0x5
 2056 01e6 00       		.byte	0
 2057 01e7 00       		.byte	0
 2058 01e8 22       		.uleb128 0x22
 2059 01e9 15       		.uleb128 0x15
 2060 01ea 01       		.byte	0x1
 2061 01eb 27       		.uleb128 0x27
 2062 01ec 19       		.uleb128 0x19
 2063 01ed 49       		.uleb128 0x49
 2064 01ee 13       		.uleb128 0x13
 2065 01ef 01       		.uleb128 0x1
 2066 01f0 13       		.uleb128 0x13
 2067 01f1 00       		.byte	0
 2068 01f2 00       		.byte	0
 2069 01f3 23       		.uleb128 0x23
 2070 01f4 13       		.uleb128 0x13
 2071 01f5 01       		.byte	0x1
 2072 01f6 03       		.uleb128 0x3
 2073 01f7 0E       		.uleb128 0xe
 2074 01f8 0B       		.uleb128 0xb
 2075 01f9 05       		.uleb128 0x5
 2076 01fa 3A       		.uleb128 0x3a
 2077 01fb 0B       		.uleb128 0xb
 2078 01fc 3B       		.uleb128 0x3b
 2079 01fd 05       		.uleb128 0x5
 2080 01fe 39       		.uleb128 0x39
 2081 01ff 0B       		.uleb128 0xb
 2082 0200 01       		.uleb128 0x1
 2083 0201 13       		.uleb128 0x13
 2084 0202 00       		.byte	0
 2085 0203 00       		.byte	0
 2086 0204 24       		.uleb128 0x24
 2087 0205 0D       		.uleb128 0xd
 2088 0206 00       		.byte	0
 2089 0207 03       		.uleb128 0x3
 2090 0208 08       		.uleb128 0x8
 2091 0209 3A       		.uleb128 0x3a
 2092 020a 0B       		.uleb128 0xb
 2093 020b 3B       		.uleb128 0x3b
 2094 020c 05       		.uleb128 0x5
 2095 020d 39       		.uleb128 0x39
 2096 020e 0B       		.uleb128 0xb
 2097 020f 49       		.uleb128 0x49
 2098 0210 13       		.uleb128 0x13
 2099 0211 38       		.uleb128 0x38
 2100 0212 05       		.uleb128 0x5
 2101 0213 00       		.byte	0
 2102 0214 00       		.byte	0
 2103 0215 25       		.uleb128 0x25
 2104 0216 15       		.uleb128 0x15
 2105 0217 01       		.byte	0x1
 2106 0218 27       		.uleb128 0x27
 2107 0219 19       		.uleb128 0x19
 2108 021a 01       		.uleb128 0x1
 2109 021b 13       		.uleb128 0x13
ARM GAS  C:\Users\DEVELO~1\AppData\Local\Temp\cc1tck9J.s 			page 38


 2110 021c 00       		.byte	0
 2111 021d 00       		.byte	0
 2112 021e 26       		.uleb128 0x26
 2113 021f 2E       		.uleb128 0x2e
 2114 0220 01       		.byte	0x1
 2115 0221 03       		.uleb128 0x3
 2116 0222 0E       		.uleb128 0xe
 2117 0223 3A       		.uleb128 0x3a
 2118 0224 0B       		.uleb128 0xb
 2119 0225 3B       		.uleb128 0x3b
 2120 0226 0B       		.uleb128 0xb
 2121 0227 39       		.uleb128 0x39
 2122 0228 0B       		.uleb128 0xb
 2123 0229 27       		.uleb128 0x27
 2124 022a 19       		.uleb128 0x19
 2125 022b 49       		.uleb128 0x49
 2126 022c 13       		.uleb128 0x13
 2127 022d 20       		.uleb128 0x20
 2128 022e 0B       		.uleb128 0xb
 2129 022f 01       		.uleb128 0x1
 2130 0230 13       		.uleb128 0x13
 2131 0231 00       		.byte	0
 2132 0232 00       		.byte	0
 2133 0233 27       		.uleb128 0x27
 2134 0234 05       		.uleb128 0x5
 2135 0235 00       		.byte	0
 2136 0236 03       		.uleb128 0x3
 2137 0237 0E       		.uleb128 0xe
 2138 0238 3A       		.uleb128 0x3a
 2139 0239 0B       		.uleb128 0xb
 2140 023a 3B       		.uleb128 0x3b
 2141 023b 0B       		.uleb128 0xb
 2142 023c 39       		.uleb128 0x39
 2143 023d 0B       		.uleb128 0xb
 2144 023e 49       		.uleb128 0x49
 2145 023f 13       		.uleb128 0x13
 2146 0240 00       		.byte	0
 2147 0241 00       		.byte	0
 2148 0242 28       		.uleb128 0x28
 2149 0243 34       		.uleb128 0x34
 2150 0244 00       		.byte	0
 2151 0245 03       		.uleb128 0x3
 2152 0246 08       		.uleb128 0x8
 2153 0247 3A       		.uleb128 0x3a
 2154 0248 0B       		.uleb128 0xb
 2155 0249 3B       		.uleb128 0x3b
 2156 024a 0B       		.uleb128 0xb
 2157 024b 39       		.uleb128 0x39
 2158 024c 0B       		.uleb128 0xb
 2159 024d 49       		.uleb128 0x49
 2160 024e 13       		.uleb128 0x13
 2161 024f 00       		.byte	0
 2162 0250 00       		.byte	0
 2163 0251 29       		.uleb128 0x29
 2164 0252 05       		.uleb128 0x5
 2165 0253 00       		.byte	0
 2166 0254 03       		.uleb128 0x3
ARM GAS  C:\Users\DEVELO~1\AppData\Local\Temp\cc1tck9J.s 			page 39


 2167 0255 08       		.uleb128 0x8
 2168 0256 3A       		.uleb128 0x3a
 2169 0257 0B       		.uleb128 0xb
 2170 0258 3B       		.uleb128 0x3b
 2171 0259 0B       		.uleb128 0xb
 2172 025a 39       		.uleb128 0x39
 2173 025b 0B       		.uleb128 0xb
 2174 025c 49       		.uleb128 0x49
 2175 025d 13       		.uleb128 0x13
 2176 025e 02       		.uleb128 0x2
 2177 025f 17       		.uleb128 0x17
 2178 0260 B742     		.uleb128 0x2137
 2179 0262 17       		.uleb128 0x17
 2180 0263 00       		.byte	0
 2181 0264 00       		.byte	0
 2182 0265 2A       		.uleb128 0x2a
 2183 0266 34       		.uleb128 0x34
 2184 0267 00       		.byte	0
 2185 0268 03       		.uleb128 0x3
 2186 0269 0E       		.uleb128 0xe
 2187 026a 3A       		.uleb128 0x3a
 2188 026b 0B       		.uleb128 0xb
 2189 026c 3B       		.uleb128 0x3b
 2190 026d 0B       		.uleb128 0xb
 2191 026e 39       		.uleb128 0x39
 2192 026f 0B       		.uleb128 0xb
 2193 0270 49       		.uleb128 0x49
 2194 0271 13       		.uleb128 0x13
 2195 0272 02       		.uleb128 0x2
 2196 0273 17       		.uleb128 0x17
 2197 0274 B742     		.uleb128 0x2137
 2198 0276 17       		.uleb128 0x17
 2199 0277 00       		.byte	0
 2200 0278 00       		.byte	0
 2201 0279 2B       		.uleb128 0x2b
 2202 027a 1D       		.uleb128 0x1d
 2203 027b 01       		.byte	0x1
 2204 027c 31       		.uleb128 0x31
 2205 027d 13       		.uleb128 0x13
 2206 027e 52       		.uleb128 0x52
 2207 027f 01       		.uleb128 0x1
 2208 0280 B842     		.uleb128 0x2138
 2209 0282 0B       		.uleb128 0xb
 2210 0283 55       		.uleb128 0x55
 2211 0284 17       		.uleb128 0x17
 2212 0285 58       		.uleb128 0x58
 2213 0286 0B       		.uleb128 0xb
 2214 0287 59       		.uleb128 0x59
 2215 0288 0B       		.uleb128 0xb
 2216 0289 57       		.uleb128 0x57
 2217 028a 0B       		.uleb128 0xb
 2218 028b 00       		.byte	0
 2219 028c 00       		.byte	0
 2220 028d 2C       		.uleb128 0x2c
 2221 028e 05       		.uleb128 0x5
 2222 028f 00       		.byte	0
 2223 0290 31       		.uleb128 0x31
ARM GAS  C:\Users\DEVELO~1\AppData\Local\Temp\cc1tck9J.s 			page 40


 2224 0291 13       		.uleb128 0x13
 2225 0292 02       		.uleb128 0x2
 2226 0293 17       		.uleb128 0x17
 2227 0294 B742     		.uleb128 0x2137
 2228 0296 17       		.uleb128 0x17
 2229 0297 00       		.byte	0
 2230 0298 00       		.byte	0
 2231 0299 2D       		.uleb128 0x2d
 2232 029a 0B       		.uleb128 0xb
 2233 029b 01       		.byte	0x1
 2234 029c 55       		.uleb128 0x55
 2235 029d 17       		.uleb128 0x17
 2236 029e 00       		.byte	0
 2237 029f 00       		.byte	0
 2238 02a0 2E       		.uleb128 0x2e
 2239 02a1 34       		.uleb128 0x34
 2240 02a2 00       		.byte	0
 2241 02a3 31       		.uleb128 0x31
 2242 02a4 13       		.uleb128 0x13
 2243 02a5 02       		.uleb128 0x2
 2244 02a6 17       		.uleb128 0x17
 2245 02a7 B742     		.uleb128 0x2137
 2246 02a9 17       		.uleb128 0x17
 2247 02aa 00       		.byte	0
 2248 02ab 00       		.byte	0
 2249 02ac 2F       		.uleb128 0x2f
 2250 02ad 2E       		.uleb128 0x2e
 2251 02ae 01       		.byte	0x1
 2252 02af 3F       		.uleb128 0x3f
 2253 02b0 19       		.uleb128 0x19
 2254 02b1 03       		.uleb128 0x3
 2255 02b2 0E       		.uleb128 0xe
 2256 02b3 3A       		.uleb128 0x3a
 2257 02b4 0B       		.uleb128 0xb
 2258 02b5 3B       		.uleb128 0x3b
 2259 02b6 0B       		.uleb128 0xb
 2260 02b7 39       		.uleb128 0x39
 2261 02b8 0B       		.uleb128 0xb
 2262 02b9 27       		.uleb128 0x27
 2263 02ba 19       		.uleb128 0x19
 2264 02bb 49       		.uleb128 0x49
 2265 02bc 13       		.uleb128 0x13
 2266 02bd 11       		.uleb128 0x11
 2267 02be 01       		.uleb128 0x1
 2268 02bf 12       		.uleb128 0x12
 2269 02c0 06       		.uleb128 0x6
 2270 02c1 40       		.uleb128 0x40
 2271 02c2 18       		.uleb128 0x18
 2272 02c3 7A       		.uleb128 0x7a
 2273 02c4 19       		.uleb128 0x19
 2274 02c5 00       		.byte	0
 2275 02c6 00       		.byte	0
 2276 02c7 30       		.uleb128 0x30
 2277 02c8 05       		.uleb128 0x5
 2278 02c9 00       		.byte	0
 2279 02ca 03       		.uleb128 0x3
 2280 02cb 08       		.uleb128 0x8
ARM GAS  C:\Users\DEVELO~1\AppData\Local\Temp\cc1tck9J.s 			page 41


 2281 02cc 3A       		.uleb128 0x3a
 2282 02cd 0B       		.uleb128 0xb
 2283 02ce 3B       		.uleb128 0x3b
 2284 02cf 0B       		.uleb128 0xb
 2285 02d0 39       		.uleb128 0x39
 2286 02d1 0B       		.uleb128 0xb
 2287 02d2 49       		.uleb128 0x49
 2288 02d3 13       		.uleb128 0x13
 2289 02d4 02       		.uleb128 0x2
 2290 02d5 18       		.uleb128 0x18
 2291 02d6 00       		.byte	0
 2292 02d7 00       		.byte	0
 2293 02d8 00       		.byte	0
 2294              		.section	.debug_loclists,"",%progbits
 2295 0000 49010000 		.4byte	.Ldebug_loc3-.Ldebug_loc2
 2296              	.Ldebug_loc2:
 2297 0004 0500     		.2byte	0x5
 2298 0006 04       		.byte	0x4
 2299 0007 00       		.byte	0
 2300 0008 00000000 		.4byte	0
 2301              	.Ldebug_loc0:
 2302              	.LVUS12:
 2303 000c 00       		.uleb128 0
 2304 000d 00       		.uleb128 .LVU54
 2305 000e 00       		.uleb128 .LVU54
 2306 000f 00       		.uleb128 0
 2307              	.LLST12:
 2308 0010 06       		.byte	0x6
 2309 0011 00000000 		.4byte	.LVL14
 2310 0015 04       		.byte	0x4
 2311 0016 00       		.uleb128 .LVL14-.LVL14
 2312 0017 16       		.uleb128 .LVL16-.LVL14
 2313 0018 01       		.uleb128 0x1
 2314 0019 50       		.byte	0x50
 2315 001a 04       		.byte	0x4
 2316 001b 16       		.uleb128 .LVL16-.LVL14
 2317 001c 18       		.uleb128 .LFE147-.LVL14
 2318 001d 04       		.uleb128 0x4
 2319 001e A3       		.byte	0xa3
 2320 001f 01       		.uleb128 0x1
 2321 0020 50       		.byte	0x50
 2322 0021 9F       		.byte	0x9f
 2323 0022 00       		.byte	0
 2324              	.LVUS13:
 2325 0023 00       		.uleb128 0
 2326 0024 00       		.uleb128 .LVU51
 2327 0025 00       		.uleb128 .LVU51
 2328 0026 00       		.uleb128 0
 2329              	.LLST13:
 2330 0027 06       		.byte	0x6
 2331 0028 00000000 		.4byte	.LVL14
 2332 002c 04       		.byte	0x4
 2333 002d 00       		.uleb128 .LVL14-.LVL14
 2334 002e 08       		.uleb128 .LVL15-.LVL14
 2335 002f 01       		.uleb128 0x1
 2336 0030 51       		.byte	0x51
 2337 0031 04       		.byte	0x4
ARM GAS  C:\Users\DEVELO~1\AppData\Local\Temp\cc1tck9J.s 			page 42


 2338 0032 08       		.uleb128 .LVL15-.LVL14
 2339 0033 18       		.uleb128 .LFE147-.LVL14
 2340 0034 04       		.uleb128 0x4
 2341 0035 A3       		.byte	0xa3
 2342 0036 01       		.uleb128 0x1
 2343 0037 51       		.byte	0x51
 2344 0038 9F       		.byte	0x9f
 2345 0039 00       		.byte	0
 2346              	.LVUS6:
 2347 003a 00       		.uleb128 0
 2348 003b 00       		.uleb128 .LVU36
 2349 003c 00       		.uleb128 .LVU36
 2350 003d 00       		.uleb128 .LVU37
 2351 003e 00       		.uleb128 .LVU37
 2352 003f 00       		.uleb128 .LVU42
 2353 0040 00       		.uleb128 .LVU42
 2354 0041 00       		.uleb128 0
 2355              	.LLST6:
 2356 0042 06       		.byte	0x6
 2357 0043 00000000 		.4byte	.LVL4
 2358 0047 04       		.byte	0x4
 2359 0048 00       		.uleb128 .LVL4-.LVL4
 2360 0049 24       		.uleb128 .LVL9-.LVL4
 2361 004a 01       		.uleb128 0x1
 2362 004b 50       		.byte	0x50
 2363 004c 04       		.byte	0x4
 2364 004d 24       		.uleb128 .LVL9-.LVL4
 2365 004e 26       		.uleb128 .LVL10-.LVL4
 2366 004f 04       		.uleb128 0x4
 2367 0050 A3       		.byte	0xa3
 2368 0051 01       		.uleb128 0x1
 2369 0052 50       		.byte	0x50
 2370 0053 9F       		.byte	0x9f
 2371 0054 04       		.byte	0x4
 2372 0055 26       		.uleb128 .LVL10-.LVL4
 2373 0056 2A       		.uleb128 .LVL11-.LVL4
 2374 0057 01       		.uleb128 0x1
 2375 0058 50       		.byte	0x50
 2376 0059 04       		.byte	0x4
 2377 005a 2A       		.uleb128 .LVL11-.LVL4
 2378 005b 3A       		.uleb128 .LFE146-.LVL4
 2379 005c 04       		.uleb128 0x4
 2380 005d A3       		.byte	0xa3
 2381 005e 01       		.uleb128 0x1
 2382 005f 50       		.byte	0x50
 2383 0060 9F       		.byte	0x9f
 2384 0061 00       		.byte	0
 2385              	.LVUS7:
 2386 0062 00       		.uleb128 0
 2387 0063 00       		.uleb128 .LVU43
 2388 0064 00       		.uleb128 .LVU43
 2389 0065 00       		.uleb128 0
 2390              	.LLST7:
 2391 0066 06       		.byte	0x6
 2392 0067 00000000 		.4byte	.LVL4
 2393 006b 04       		.byte	0x4
 2394 006c 00       		.uleb128 .LVL4-.LVL4
ARM GAS  C:\Users\DEVELO~1\AppData\Local\Temp\cc1tck9J.s 			page 43


 2395 006d 2E       		.uleb128 .LVL12-.LVL4
 2396 006e 01       		.uleb128 0x1
 2397 006f 51       		.byte	0x51
 2398 0070 04       		.byte	0x4
 2399 0071 2E       		.uleb128 .LVL12-.LVL4
 2400 0072 3A       		.uleb128 .LFE146-.LVL4
 2401 0073 04       		.uleb128 0x4
 2402 0074 A3       		.byte	0xa3
 2403 0075 01       		.uleb128 0x1
 2404 0076 51       		.byte	0x51
 2405 0077 9F       		.byte	0x9f
 2406 0078 00       		.byte	0
 2407              	.LVUS8:
 2408 0079 01       		.uleb128 .LVU38
 2409 007a 00       		.uleb128 .LVU45
 2410              	.LLST8:
 2411 007b 08       		.byte	0x8
 2412 007c 26000000 		.4byte	.LVL10
 2413 0080 10       		.uleb128 .LVL13-.LVL10
 2414 0081 06       		.uleb128 0x6
 2415 0082 7C       		.byte	0x7c
 2416 0083 00       		.sleb128 0
 2417 0084 08       		.byte	0x8
 2418 0085 FF       		.byte	0xff
 2419 0086 1A       		.byte	0x1a
 2420 0087 9F       		.byte	0x9f
 2421 0088 00       		.byte	0
 2422              	.LVUS10:
 2423 0089 00       		.uleb128 .LVU22
 2424 008a 00       		.uleb128 .LVU33
 2425 008b 00       		.uleb128 .LVU37
 2426 008c 01       		.uleb128 .LVU38
 2427              	.LLST10:
 2428 008d 08       		.byte	0x8
 2429 008e 02000000 		.4byte	.LVL5
 2430 0092 1C       		.uleb128 .LVL8-.LVL5
 2431 0093 01       		.uleb128 0x1
 2432 0094 50       		.byte	0x50
 2433 0095 08       		.byte	0x8
 2434 0096 26000000 		.4byte	.LVL10
 2435 009a 00       		.uleb128 .LVL10-.LVL10
 2436 009b 01       		.uleb128 0x1
 2437 009c 50       		.byte	0x50
 2438 009d 00       		.byte	0
 2439              	.LVUS11:
 2440 009e 02       		.uleb128 .LVU24
 2441 009f 00       		.uleb128 .LVU27
 2442 00a0 01       		.uleb128 .LVU28
 2443 00a1 00       		.uleb128 .LVU30
 2444 00a2 00       		.uleb128 .LVU30
 2445 00a3 00       		.uleb128 .LVU33
 2446 00a4 00       		.uleb128 .LVU37
 2447 00a5 01       		.uleb128 .LVU38
 2448              	.LLST11:
 2449 00a6 06       		.byte	0x6
 2450 00a7 02000000 		.4byte	.LVL5
 2451 00ab 04       		.byte	0x4
ARM GAS  C:\Users\DEVELO~1\AppData\Local\Temp\cc1tck9J.s 			page 44


 2452 00ac 00       		.uleb128 .LVL5-.LVL5
 2453 00ad 06       		.uleb128 .LVL6-.LVL5
 2454 00ae 02       		.uleb128 0x2
 2455 00af 30       		.byte	0x30
 2456 00b0 9F       		.byte	0x9f
 2457 00b1 04       		.byte	0x4
 2458 00b2 06       		.uleb128 .LVL6-.LVL5
 2459 00b3 0E       		.uleb128 .LVL7-.LVL5
 2460 00b4 03       		.uleb128 0x3
 2461 00b5 73       		.byte	0x73
 2462 00b6 01       		.sleb128 1
 2463 00b7 9F       		.byte	0x9f
 2464 00b8 04       		.byte	0x4
 2465 00b9 0E       		.uleb128 .LVL7-.LVL5
 2466 00ba 1C       		.uleb128 .LVL8-.LVL5
 2467 00bb 01       		.uleb128 0x1
 2468 00bc 5C       		.byte	0x5c
 2469 00bd 04       		.byte	0x4
 2470 00be 24       		.uleb128 .LVL10-.LVL5
 2471 00bf 24       		.uleb128 .LVL10-.LVL5
 2472 00c0 01       		.uleb128 0x1
 2473 00c1 5C       		.byte	0x5c
 2474 00c2 00       		.byte	0
 2475              	.LVUS4:
 2476 00c3 00       		.uleb128 0
 2477 00c4 00       		.uleb128 .LVU16
 2478 00c5 00       		.uleb128 .LVU16
 2479 00c6 00       		.uleb128 0
 2480              	.LLST4:
 2481 00c7 06       		.byte	0x6
 2482 00c8 00000000 		.4byte	.LVL2
 2483 00cc 04       		.byte	0x4
 2484 00cd 00       		.uleb128 .LVL2-.LVL2
 2485 00ce 05       		.uleb128 .LVL3-1-.LVL2
 2486 00cf 01       		.uleb128 0x1
 2487 00d0 50       		.byte	0x50
 2488 00d1 04       		.byte	0x4
 2489 00d2 05       		.uleb128 .LVL3-1-.LVL2
 2490 00d3 0A       		.uleb128 .LFE145-.LVL2
 2491 00d4 04       		.uleb128 0x4
 2492 00d5 A3       		.byte	0xa3
 2493 00d6 01       		.uleb128 0x1
 2494 00d7 50       		.byte	0x50
 2495 00d8 9F       		.byte	0x9f
 2496 00d9 00       		.byte	0
 2497              	.LVUS5:
 2498 00da 00       		.uleb128 0
 2499 00db 00       		.uleb128 .LVU16
 2500 00dc 00       		.uleb128 .LVU16
 2501 00dd 00       		.uleb128 0
 2502              	.LLST5:
 2503 00de 06       		.byte	0x6
 2504 00df 00000000 		.4byte	.LVL2
 2505 00e3 04       		.byte	0x4
 2506 00e4 00       		.uleb128 .LVL2-.LVL2
 2507 00e5 05       		.uleb128 .LVL3-1-.LVL2
 2508 00e6 01       		.uleb128 0x1
ARM GAS  C:\Users\DEVELO~1\AppData\Local\Temp\cc1tck9J.s 			page 45


 2509 00e7 51       		.byte	0x51
 2510 00e8 04       		.byte	0x4
 2511 00e9 05       		.uleb128 .LVL3-1-.LVL2
 2512 00ea 0A       		.uleb128 .LFE145-.LVL2
 2513 00eb 04       		.uleb128 0x4
 2514 00ec A3       		.byte	0xa3
 2515 00ed 01       		.uleb128 0x1
 2516 00ee 51       		.byte	0x51
 2517 00ef 9F       		.byte	0x9f
 2518 00f0 00       		.byte	0
 2519              	.LVUS0:
 2520 00f1 00       		.uleb128 0
 2521 00f2 00       		.uleb128 .LVU9
 2522 00f3 00       		.uleb128 .LVU9
 2523 00f4 00       		.uleb128 0
 2524              	.LLST0:
 2525 00f5 06       		.byte	0x6
 2526 00f6 00000000 		.4byte	.LVL0
 2527 00fa 04       		.byte	0x4
 2528 00fb 00       		.uleb128 .LVL0-.LVL0
 2529 00fc 19       		.uleb128 .LVL1-1-.LVL0
 2530 00fd 01       		.uleb128 0x1
 2531 00fe 50       		.byte	0x50
 2532 00ff 04       		.byte	0x4
 2533 0100 19       		.uleb128 .LVL1-1-.LVL0
 2534 0101 20       		.uleb128 .LFE144-.LVL0
 2535 0102 04       		.uleb128 0x4
 2536 0103 A3       		.byte	0xa3
 2537 0104 01       		.uleb128 0x1
 2538 0105 50       		.byte	0x50
 2539 0106 9F       		.byte	0x9f
 2540 0107 00       		.byte	0
 2541              	.LVUS1:
 2542 0108 00       		.uleb128 0
 2543 0109 00       		.uleb128 .LVU9
 2544 010a 00       		.uleb128 .LVU9
 2545 010b 00       		.uleb128 0
 2546              	.LLST1:
 2547 010c 06       		.byte	0x6
 2548 010d 00000000 		.4byte	.LVL0
 2549 0111 04       		.byte	0x4
 2550 0112 00       		.uleb128 .LVL0-.LVL0
 2551 0113 19       		.uleb128 .LVL1-1-.LVL0
 2552 0114 01       		.uleb128 0x1
 2553 0115 51       		.byte	0x51
 2554 0116 04       		.byte	0x4
 2555 0117 19       		.uleb128 .LVL1-1-.LVL0
 2556 0118 20       		.uleb128 .LFE144-.LVL0
 2557 0119 04       		.uleb128 0x4
 2558 011a A3       		.byte	0xa3
 2559 011b 01       		.uleb128 0x1
 2560 011c 51       		.byte	0x51
 2561 011d 9F       		.byte	0x9f
 2562 011e 00       		.byte	0
 2563              	.LVUS2:
 2564 011f 00       		.uleb128 0
 2565 0120 00       		.uleb128 .LVU9
ARM GAS  C:\Users\DEVELO~1\AppData\Local\Temp\cc1tck9J.s 			page 46


 2566 0121 00       		.uleb128 .LVU9
 2567 0122 00       		.uleb128 0
 2568              	.LLST2:
 2569 0123 06       		.byte	0x6
 2570 0124 00000000 		.4byte	.LVL0
 2571 0128 04       		.byte	0x4
 2572 0129 00       		.uleb128 .LVL0-.LVL0
 2573 012a 19       		.uleb128 .LVL1-1-.LVL0
 2574 012b 01       		.uleb128 0x1
 2575 012c 52       		.byte	0x52
 2576 012d 04       		.byte	0x4
 2577 012e 19       		.uleb128 .LVL1-1-.LVL0
 2578 012f 20       		.uleb128 .LFE144-.LVL0
 2579 0130 04       		.uleb128 0x4
 2580 0131 A3       		.byte	0xa3
 2581 0132 01       		.uleb128 0x1
 2582 0133 52       		.byte	0x52
 2583 0134 9F       		.byte	0x9f
 2584 0135 00       		.byte	0
 2585              	.LVUS3:
 2586 0136 00       		.uleb128 0
 2587 0137 00       		.uleb128 .LVU9
 2588 0138 00       		.uleb128 .LVU9
 2589 0139 00       		.uleb128 0
 2590              	.LLST3:
 2591 013a 06       		.byte	0x6
 2592 013b 00000000 		.4byte	.LVL0
 2593 013f 04       		.byte	0x4
 2594 0140 00       		.uleb128 .LVL0-.LVL0
 2595 0141 19       		.uleb128 .LVL1-1-.LVL0
 2596 0142 01       		.uleb128 0x1
 2597 0143 53       		.byte	0x53
 2598 0144 04       		.byte	0x4
 2599 0145 19       		.uleb128 .LVL1-1-.LVL0
 2600 0146 20       		.uleb128 .LFE144-.LVL0
 2601 0147 04       		.uleb128 0x4
 2602 0148 A3       		.byte	0xa3
 2603 0149 01       		.uleb128 0x1
 2604 014a 53       		.byte	0x53
 2605 014b 9F       		.byte	0x9f
 2606 014c 00       		.byte	0
 2607              	.Ldebug_loc3:
 2608              		.section	.debug_aranges,"",%progbits
 2609 0000 34000000 		.4byte	0x34
 2610 0004 0200     		.2byte	0x2
 2611 0006 00000000 		.4byte	.Ldebug_info0
 2612 000a 04       		.byte	0x4
 2613 000b 00       		.byte	0
 2614 000c 0000     		.2byte	0
 2615 000e 0000     		.2byte	0
 2616 0010 00000000 		.4byte	.LFB144
 2617 0014 20000000 		.4byte	.LFE144-.LFB144
 2618 0018 00000000 		.4byte	.LFB145
 2619 001c 0A000000 		.4byte	.LFE145-.LFB145
 2620 0020 00000000 		.4byte	.LFB146
 2621 0024 3A000000 		.4byte	.LFE146-.LFB146
 2622 0028 00000000 		.4byte	.LFB147
ARM GAS  C:\Users\DEVELO~1\AppData\Local\Temp\cc1tck9J.s 			page 47


 2623 002c 18000000 		.4byte	.LFE147-.LFB147
 2624 0030 00000000 		.4byte	0
 2625 0034 00000000 		.4byte	0
 2626              		.section	.debug_rnglists,"",%progbits
 2627              	.Ldebug_ranges0:
 2628 0000 30000000 		.4byte	.Ldebug_ranges3-.Ldebug_ranges2
 2629              	.Ldebug_ranges2:
 2630 0004 0500     		.2byte	0x5
 2631 0006 04       		.byte	0x4
 2632 0007 00       		.byte	0
 2633 0008 00000000 		.4byte	0
 2634              	.LLRL9:
 2635 000c 05       		.byte	0x5
 2636 000d 02000000 		.4byte	.LBB4
 2637 0011 04       		.byte	0x4
 2638 0012 00       		.uleb128 .LBB4-.LBB4
 2639 0013 04       		.uleb128 .LBE4-.LBB4
 2640 0014 04       		.byte	0x4
 2641 0015 06       		.uleb128 .LBB8-.LBB4
 2642 0016 1C       		.uleb128 .LBE8-.LBB4
 2643 0017 04       		.byte	0x4
 2644 0018 24       		.uleb128 .LBB9-.LBB4
 2645 0019 24       		.uleb128 .LBE9-.LBB4
 2646 001a 00       		.byte	0
 2647              	.LLRL14:
 2648 001b 07       		.byte	0x7
 2649 001c 00000000 		.4byte	.LFB144
 2650 0020 20       		.uleb128 .LFE144-.LFB144
 2651 0021 07       		.byte	0x7
 2652 0022 00000000 		.4byte	.LFB145
 2653 0026 0A       		.uleb128 .LFE145-.LFB145
 2654 0027 07       		.byte	0x7
 2655 0028 00000000 		.4byte	.LFB146
 2656 002c 3A       		.uleb128 .LFE146-.LFB146
 2657 002d 07       		.byte	0x7
 2658 002e 00000000 		.4byte	.LFB147
 2659 0032 18       		.uleb128 .LFE147-.LFB147
 2660 0033 00       		.byte	0
 2661              	.Ldebug_ranges3:
 2662              		.section	.debug_line,"",%progbits
 2663              	.Ldebug_line0:
 2664 0000 AA020000 		.section	.debug_str,"MS",%progbits,1
 2664      0300AF01 
 2664      00000201 
 2664      FB0E0D00 
 2664      01010101 
 2665              	.LASF24:
 2666 0000 77496E64 		.ascii	"wIndex\000"
 2666      657800
 2667              	.LASF93:
 2668 0007 454E554D 		.ascii	"ENUM_GET_FULL_CFG_DESC\000"
 2668      5F474554 
 2668      5F46554C 
 2668      4C5F4346 
 2668      475F4445 
 2669              	.LASF0:
 2670 001e 73686F72 		.ascii	"short int\000"
ARM GAS  C:\Users\DEVELO~1\AppData\Local\Temp\cc1tck9J.s 			page 48


 2670      7420696E 
 2670      7400
 2671              	.LASF92:
 2672 0028 454E554D 		.ascii	"ENUM_GET_CFG_DESC\000"
 2672      5F474554 
 2672      5F434647 
 2672      5F444553 
 2672      4300
 2673              	.LASF140:
 2674 003a 55534248 		.ascii	"USBH_DeviceTypeDef\000"
 2674      5F446576 
 2674      69636554 
 2674      79706544 
 2674      656600
 2675              	.LASF177:
 2676 004d 433A5C43 		.ascii	"C:\\ChibiStudio\\ChibiOS-master\\demos\\STM32\\CUST"
 2676      68696269 
 2676      53747564 
 2676      696F5C43 
 2676      68696269 
 2677 007b 4F4D5F48 		.ascii	"OM_H743IIT6_maj\000"
 2677      37343349 
 2677      4954365F 
 2677      6D616A00 
 2678              	.LASF54:
 2679 008b 62496E74 		.ascii	"bInterfaceSubClass\000"
 2679      65726661 
 2679      63655375 
 2679      62436C61 
 2679      737300
 2680              	.LASF150:
 2681 009e 67537461 		.ascii	"gState\000"
 2681      746500
 2682              	.LASF109:
 2683 00a5 4354524C 		.ascii	"CTRL_ERROR\000"
 2683      5F455252 
 2683      4F5200
 2684              	.LASF135:
 2685 00b0 69735F52 		.ascii	"is_ReEnumerated\000"
 2685      65456E75 
 2685      6D657261 
 2685      74656400 
 2686              	.LASF143:
 2687 00c0 496E6974 		.ascii	"Init\000"
 2687      00
 2688              	.LASF89:
 2689 00c5 454E554D 		.ascii	"ENUM_IDLE\000"
 2689      5F49444C 
 2689      4500
 2690              	.LASF78:
 2691 00cf 484F5354 		.ascii	"HOST_DETECT_DEVICE_SPEED\000"
 2691      5F444554 
 2691      4543545F 
 2691      44455649 
 2691      43455F53 
 2692              	.LASF95:
 2693 00e8 454E554D 		.ascii	"ENUM_GET_PRODUCT_STRING_DESC\000"
ARM GAS  C:\Users\DEVELO~1\AppData\Local\Temp\cc1tck9J.s 			page 49


 2693      5F474554 
 2693      5F50524F 
 2693      44554354 
 2693      5F535452 
 2694              	.LASF132:
 2695 0105 52737443 		.ascii	"RstCnt\000"
 2695      6E7400
 2696              	.LASF3:
 2697 010c 5F5F7569 		.ascii	"__uint8_t\000"
 2697      6E74385F 
 2697      7400
 2698              	.LASF57:
 2699 0116 45705F44 		.ascii	"Ep_Desc\000"
 2699      65736300 
 2700              	.LASF175:
 2701 011e 474E5520 		.ascii	"GNU C17 11.3.1 20220712 -mcpu=cortex-m7 -mthumb -mf"
 2701      43313720 
 2701      31312E33 
 2701      2E312032 
 2701      30323230 
 2702 0151 6C6F6174 		.ascii	"loat-abi=hard -mfpu=fpv5-d16 -march=armv7e-m+fp.dp "
 2702      2D616269 
 2702      3D686172 
 2702      64202D6D 
 2702      6670753D 
 2703 0184 2D676764 		.ascii	"-ggdb -O2 -ffunction-sections -fdata-sections -fno-"
 2703      62202D4F 
 2703      32202D66 
 2703      66756E63 
 2703      74696F6E 
 2704 01b7 636F6D6D 		.ascii	"common\000"
 2704      6F6E00
 2705              	.LASF50:
 2706 01be 62496E74 		.ascii	"bInterfaceNumber\000"
 2706      65726661 
 2706      63654E75 
 2706      6D626572 
 2706      00
 2707              	.LASF83:
 2708 01cf 484F5354 		.ascii	"HOST_SET_WAKEUP_FEATURE\000"
 2708      5F534554 
 2708      5F57414B 
 2708      4555505F 
 2708      46454154 
 2709              	.LASF73:
 2710 01e7 55534248 		.ascii	"USBH_StatusTypeDef\000"
 2710      5F537461 
 2710      74757354 
 2710      79706544 
 2710      656600
 2711              	.LASF118:
 2712 01fa 70697065 		.ascii	"pipe_out\000"
 2712      5F6F7574 
 2712      00
 2713              	.LASF136:
 2714 0203 506F7274 		.ascii	"PortEnabled\000"
 2714      456E6162 
ARM GAS  C:\Users\DEVELO~1\AppData\Local\Temp\cc1tck9J.s 			page 50


 2714      6C656400 
 2715              	.LASF180:
 2716 020f 70697065 		.ascii	"pipe\000"
 2716      00
 2717              	.LASF156:
 2718 0214 70416374 		.ascii	"pActiveClass\000"
 2718      69766543 
 2718      6C617373 
 2718      00
 2719              	.LASF76:
 2720 0221 484F5354 		.ascii	"HOST_DEV_ATTACHED\000"
 2720      5F444556 
 2720      5F415454 
 2720      41434845 
 2720      4400
 2721              	.LASF88:
 2722 0233 484F5354 		.ascii	"HOST_StateTypeDef\000"
 2722      5F537461 
 2722      74655479 
 2722      70654465 
 2722      6600
 2723              	.LASF60:
 2724 0245 77546F74 		.ascii	"wTotalLength\000"
 2724      616C4C65 
 2724      6E677468 
 2724      00
 2725              	.LASF137:
 2726 0252 63757272 		.ascii	"current_interface\000"
 2726      656E745F 
 2726      696E7465 
 2726      72666163 
 2726      6500
 2727              	.LASF85:
 2728 0264 484F5354 		.ascii	"HOST_CLASS\000"
 2728      5F434C41 
 2728      535300
 2729              	.LASF154:
 2730 026f 64657669 		.ascii	"device\000"
 2730      636500
 2731              	.LASF9:
 2732 0276 6C6F6E67 		.ascii	"long long int\000"
 2732      206C6F6E 
 2732      6720696E 
 2732      7400
 2733              	.LASF1:
 2734 0284 7369676E 		.ascii	"signed char\000"
 2734      65642063 
 2734      68617200 
 2735              	.LASF115:
 2736 0290 434D445F 		.ascii	"CMD_WAIT\000"
 2736      57414954 
 2736      00
 2737              	.LASF112:
 2738 0299 4354524C 		.ascii	"CTRL_StateTypeDef\000"
 2738      5F537461 
 2738      74655479 
 2738      70654465 
ARM GAS  C:\Users\DEVELO~1\AppData\Local\Temp\cc1tck9J.s 			page 51


 2738      6600
 2739              	.LASF147:
 2740 02ab 534F4650 		.ascii	"SOFProcess\000"
 2740      726F6365 
 2740      737300
 2741              	.LASF10:
 2742 02b6 6C6F6E67 		.ascii	"long long unsigned int\000"
 2742      206C6F6E 
 2742      6720756E 
 2742      7369676E 
 2742      65642069 
 2743              	.LASF37:
 2744 02cd 62636444 		.ascii	"bcdDevice\000"
 2744      65766963 
 2744      6500
 2745              	.LASF168:
 2746 02d7 55534248 		.ascii	"USBH_AllocPipe\000"
 2746      5F416C6C 
 2746      6F635069 
 2746      706500
 2747              	.LASF169:
 2748 02e6 65705F61 		.ascii	"ep_addr\000"
 2748      64647200 
 2749              	.LASF120:
 2750 02ee 62756666 		.ascii	"buff\000"
 2750      00
 2751              	.LASF124:
 2752 02f3 73746174 		.ascii	"state\000"
 2752      6500
 2753              	.LASF82:
 2754 02f9 484F5354 		.ascii	"HOST_SET_CONFIGURATION\000"
 2754      5F534554 
 2754      5F434F4E 
 2754      46494755 
 2754      52415449 
 2755              	.LASF6:
 2756 0310 6C6F6E67 		.ascii	"long int\000"
 2756      20696E74 
 2756      00
 2757              	.LASF153:
 2758 0319 436F6E74 		.ascii	"Control\000"
 2758      726F6C00 
 2759              	.LASF161:
 2760 0321 70557365 		.ascii	"pUser\000"
 2760      7200
 2761              	.LASF105:
 2762 0327 4354524C 		.ascii	"CTRL_STATUS_IN\000"
 2762      5F535441 
 2762      5455535F 
 2762      494E00
 2763              	.LASF81:
 2764 0336 484F5354 		.ascii	"HOST_INPUT\000"
 2764      5F494E50 
 2764      555400
 2765              	.LASF23:
 2766 0341 7756616C 		.ascii	"wValue\000"
 2766      756500
ARM GAS  C:\Users\DEVELO~1\AppData\Local\Temp\cc1tck9J.s 			page 52


 2767              	.LASF13:
 2768 0348 75696E74 		.ascii	"uint16_t\000"
 2768      31365F74 
 2768      00
 2769              	.LASF18:
 2770 0351 646F7562 		.ascii	"double\000"
 2770      6C6500
 2771              	.LASF38:
 2772 0358 694D616E 		.ascii	"iManufacturer\000"
 2772      75666163 
 2772      74757265 
 2772      7200
 2773              	.LASF145:
 2774 0366 52657175 		.ascii	"Requests\000"
 2774      65737473 
 2774      00
 2775              	.LASF151:
 2776 036f 456E756D 		.ascii	"EnumState\000"
 2776      53746174 
 2776      6500
 2777              	.LASF164:
 2778 0379 55534248 		.ascii	"USBH_LL_ClosePipe\000"
 2778      5F4C4C5F 
 2778      436C6F73 
 2778      65506970 
 2778      6500
 2779              	.LASF98:
 2780 038b 4354524C 		.ascii	"CTRL_IDLE\000"
 2780      5F49444C 
 2780      4500
 2781              	.LASF39:
 2782 0395 6950726F 		.ascii	"iProduct\000"
 2782      64756374 
 2782      00
 2783              	.LASF87:
 2784 039e 484F5354 		.ascii	"HOST_ABORT_STATE\000"
 2784      5F41424F 
 2784      52545F53 
 2784      54415445 
 2784      00
 2785              	.LASF148:
 2786 03af 70446174 		.ascii	"pData\000"
 2786      6100
 2787              	.LASF36:
 2788 03b5 69645072 		.ascii	"idProduct\000"
 2788      6F647563 
 2788      7400
 2789              	.LASF7:
 2790 03bf 5F5F7569 		.ascii	"__uint32_t\000"
 2790      6E743332 
 2790      5F7400
 2791              	.LASF163:
 2792 03ca 55534248 		.ascii	"USBH_HandleTypeDef\000"
 2792      5F48616E 
 2792      646C6554 
 2792      79706544 
 2792      656600
ARM GAS  C:\Users\DEVELO~1\AppData\Local\Temp\cc1tck9J.s 			page 53


 2793              	.LASF160:
 2794 03dd 54696D65 		.ascii	"Timeout\000"
 2794      6F757400 
 2795              	.LASF103:
 2796 03e5 4354524C 		.ascii	"CTRL_DATA_OUT\000"
 2796      5F444154 
 2796      415F4F55 
 2796      5400
 2797              	.LASF165:
 2798 03f3 55534248 		.ascii	"USBH_LL_OpenPipe\000"
 2798      5F4C4C5F 
 2798      4F70656E 
 2798      50697065 
 2798      00
 2799              	.LASF142:
 2800 0404 436C6173 		.ascii	"ClassCode\000"
 2800      73436F64 
 2800      6500
 2801              	.LASF126:
 2802 040e 55534248 		.ascii	"USBH_CtrlTypeDef\000"
 2802      5F437472 
 2802      6C547970 
 2802      65446566 
 2802      00
 2803              	.LASF20:
 2804 041f 5F536574 		.ascii	"_SetupPkt_Struc\000"
 2804      7570506B 
 2804      745F5374 
 2804      72756300 
 2805              	.LASF30:
 2806 042f 62636455 		.ascii	"bcdUSB\000"
 2806      534200
 2807              	.LASF104:
 2808 0436 4354524C 		.ascii	"CTRL_DATA_OUT_WAIT\000"
 2808      5F444154 
 2808      415F4F55 
 2808      545F5741 
 2808      495400
 2809              	.LASF172:
 2810 0449 65706E75 		.ascii	"epnum\000"
 2810      6D00
 2811              	.LASF11:
 2812 044f 756E7369 		.ascii	"unsigned int\000"
 2812      676E6564 
 2812      20696E74 
 2812      00
 2813              	.LASF79:
 2814 045c 484F5354 		.ascii	"HOST_ENUMERATION\000"
 2814      5F454E55 
 2814      4D455241 
 2814      54494F4E 
 2814      00
 2815              	.LASF144:
 2816 046d 4465496E 		.ascii	"DeInit\000"
 2816      697400
 2817              	.LASF32:
 2818 0474 62446576 		.ascii	"bDeviceSubClass\000"
ARM GAS  C:\Users\DEVELO~1\AppData\Local\Temp\cc1tck9J.s 			page 54


 2818      69636553 
 2818      7562436C 
 2818      61737300 
 2819              	.LASF40:
 2820 0484 69536572 		.ascii	"iSerialNumber\000"
 2820      69616C4E 
 2820      756D6265 
 2820      7200
 2821              	.LASF8:
 2822 0492 6C6F6E67 		.ascii	"long unsigned int\000"
 2822      20756E73 
 2822      69676E65 
 2822      6420696E 
 2822      7400
 2823              	.LASF155:
 2824 04a4 70436C61 		.ascii	"pClass\000"
 2824      737300
 2825              	.LASF170:
 2826 04ab 55534248 		.ascii	"USBH_ClosePipe\000"
 2826      5F436C6F 
 2826      73655069 
 2826      706500
 2827              	.LASF114:
 2828 04ba 434D445F 		.ascii	"CMD_SEND\000"
 2828      53454E44 
 2828      00
 2829              	.LASF167:
 2830 04c3 55534248 		.ascii	"USBH_FreePipe\000"
 2830      5F467265 
 2830      65506970 
 2830      6500
 2831              	.LASF5:
 2832 04d1 73686F72 		.ascii	"short unsigned int\000"
 2832      7420756E 
 2832      7369676E 
 2832      65642069 
 2832      6E7400
 2833              	.LASF110:
 2834 04e4 4354524C 		.ascii	"CTRL_STALLED\000"
 2834      5F535441 
 2834      4C4C4544 
 2834      00
 2835              	.LASF69:
 2836 04f1 55534248 		.ascii	"USBH_FAIL\000"
 2836      5F464149 
 2836      4C00
 2837              	.LASF48:
 2838 04fb 55534248 		.ascii	"USBH_EpDescTypeDef\000"
 2838      5F457044 
 2838      65736354 
 2838      79706544 
 2838      656600
 2839              	.LASF158:
 2840 050e 50697065 		.ascii	"Pipes\000"
 2840      7300
 2841              	.LASF29:
 2842 0514 62446573 		.ascii	"bDescriptorType\000"
ARM GAS  C:\Users\DEVELO~1\AppData\Local\Temp\cc1tck9J.s 			page 55


 2842      63726970 
 2842      746F7254 
 2842      79706500 
 2843              	.LASF138:
 2844 0524 44657644 		.ascii	"DevDesc\000"
 2844      65736300 
 2845              	.LASF149:
 2846 052c 5F555342 		.ascii	"_USBH_HandleTypeDef\000"
 2846      485F4861 
 2846      6E646C65 
 2846      54797065 
 2846      44656600 
 2847              	.LASF86:
 2848 0540 484F5354 		.ascii	"HOST_SUSPENDED\000"
 2848      5F535553 
 2848      50454E44 
 2848      454400
 2849              	.LASF34:
 2850 054f 624D6178 		.ascii	"bMaxPacketSize\000"
 2850      5061636B 
 2850      65745369 
 2850      7A6500
 2851              	.LASF127:
 2852 055e 43666744 		.ascii	"CfgDesc_Raw\000"
 2852      6573635F 
 2852      52617700 
 2853              	.LASF117:
 2854 056a 70697065 		.ascii	"pipe_in\000"
 2854      5F696E00 
 2855              	.LASF159:
 2856 0572 54696D65 		.ascii	"Timer\000"
 2856      7200
 2857              	.LASF47:
 2858 0578 62496E74 		.ascii	"bInterval\000"
 2858      65727661 
 2858      6C00
 2859              	.LASF125:
 2860 0582 6572726F 		.ascii	"errorcount\000"
 2860      72636F75 
 2860      6E7400
 2861              	.LASF19:
 2862 058d 75696E74 		.ascii	"uint16_t_uint8_t\000"
 2862      31365F74 
 2862      5F75696E 
 2862      74385F74 
 2862      00
 2863              	.LASF113:
 2864 059e 434D445F 		.ascii	"CMD_IDLE\000"
 2864      49444C45 
 2864      00
 2865              	.LASF101:
 2866 05a7 4354524C 		.ascii	"CTRL_DATA_IN\000"
 2866      5F444154 
 2866      415F494E 
 2866      00
 2867              	.LASF129:
 2868 05b4 61646472 		.ascii	"address\000"
ARM GAS  C:\Users\DEVELO~1\AppData\Local\Temp\cc1tck9J.s 			page 56


 2868      65737300 
 2869              	.LASF90:
 2870 05bc 454E554D 		.ascii	"ENUM_GET_FULL_DEV_DESC\000"
 2870      5F474554 
 2870      5F46554C 
 2870      4C5F4445 
 2870      565F4445 
 2871              	.LASF94:
 2872 05d3 454E554D 		.ascii	"ENUM_GET_MFC_STRING_DESC\000"
 2872      5F474554 
 2872      5F4D4643 
 2872      5F535452 
 2872      494E475F 
 2873              	.LASF45:
 2874 05ec 626D4174 		.ascii	"bmAttributes\000"
 2874      74726962 
 2874      75746573 
 2874      00
 2875              	.LASF178:
 2876 05f9 5F555342 		.ascii	"_USB_Setup\000"
 2876      5F536574 
 2876      757000
 2877              	.LASF123:
 2878 0604 73657475 		.ascii	"setup\000"
 2878      7000
 2879              	.LASF43:
 2880 060a 5F456E64 		.ascii	"_EndpointDescriptor\000"
 2880      706F696E 
 2880      74446573 
 2880      63726970 
 2880      746F7200 
 2881              	.LASF68:
 2882 061e 55534248 		.ascii	"USBH_BUSY\000"
 2882      5F425553 
 2882      5900
 2883              	.LASF102:
 2884 0628 4354524C 		.ascii	"CTRL_DATA_IN_WAIT\000"
 2884      5F444154 
 2884      415F494E 
 2884      5F574149 
 2884      5400
 2885              	.LASF181:
 2886 063a 55534248 		.ascii	"USBH_OpenPipe\000"
 2886      5F4F7065 
 2886      6E506970 
 2886      6500
 2887              	.LASF17:
 2888 0648 666C6F61 		.ascii	"float\000"
 2888      7400
 2889              	.LASF152:
 2890 064e 52657175 		.ascii	"RequestState\000"
 2890      65737453 
 2890      74617465 
 2890      00
 2891              	.LASF70:
 2892 065b 55534248 		.ascii	"USBH_NOT_SUPPORTED\000"
 2892      5F4E4F54 
ARM GAS  C:\Users\DEVELO~1\AppData\Local\Temp\cc1tck9J.s 			page 57


 2892      5F535550 
 2892      504F5254 
 2892      454400
 2893              	.LASF74:
 2894 066e 484F5354 		.ascii	"HOST_IDLE\000"
 2894      5F49444C 
 2894      4500
 2895              	.LASF44:
 2896 0678 62456E64 		.ascii	"bEndpointAddress\000"
 2896      706F696E 
 2896      74416464 
 2896      72657373 
 2896      00
 2897              	.LASF65:
 2898 0689 4974665F 		.ascii	"Itf_Desc\000"
 2898      44657363 
 2898      00
 2899              	.LASF108:
 2900 0692 4354524C 		.ascii	"CTRL_STATUS_OUT_WAIT\000"
 2900      5F535441 
 2900      5455535F 
 2900      4F55545F 
 2900      57414954 
 2901              	.LASF51:
 2902 06a7 62416C74 		.ascii	"bAlternateSetting\000"
 2902      65726E61 
 2902      74655365 
 2902      7474696E 
 2902      6700
 2903              	.LASF56:
 2904 06b9 69496E74 		.ascii	"iInterface\000"
 2904      65726661 
 2904      636500
 2905              	.LASF72:
 2906 06c4 55534248 		.ascii	"USBH_ERROR_SPEED_UNKNOWN\000"
 2906      5F455252 
 2906      4F525F53 
 2906      50454544 
 2906      5F554E4B 
 2907              	.LASF2:
 2908 06dd 756E7369 		.ascii	"unsigned char\000"
 2908      676E6564 
 2908      20636861 
 2908      7200
 2909              	.LASF53:
 2910 06eb 62496E74 		.ascii	"bInterfaceClass\000"
 2910      65726661 
 2910      6365436C 
 2910      61737300 
 2911              	.LASF131:
 2912 06fb 456E756D 		.ascii	"EnumCnt\000"
 2912      436E7400 
 2913              	.LASF116:
 2914 0703 434D445F 		.ascii	"CMD_StateTypeDef\000"
 2914      53746174 
 2914      65547970 
 2914      65446566 
ARM GAS  C:\Users\DEVELO~1\AppData\Local\Temp\cc1tck9J.s 			page 58


 2914      00
 2915              	.LASF71:
 2916 0714 55534248 		.ascii	"USBH_UNRECOVERED_ERROR\000"
 2916      5F554E52 
 2916      45434F56 
 2916      45524544 
 2916      5F455252 
 2917              	.LASF62:
 2918 072b 62436F6E 		.ascii	"bConfigurationValue\000"
 2918      66696775 
 2918      72617469 
 2918      6F6E5661 
 2918      6C756500 
 2919              	.LASF162:
 2920 073f 55534248 		.ascii	"USBH_ClassTypeDef\000"
 2920      5F436C61 
 2920      73735479 
 2920      70654465 
 2920      6600
 2921              	.LASF157:
 2922 0751 436C6173 		.ascii	"ClassNumber\000"
 2922      734E756D 
 2922      62657200 
 2923              	.LASF59:
 2924 075d 5F436F6E 		.ascii	"_ConfigurationDescriptor\000"
 2924      66696775 
 2924      72617469 
 2924      6F6E4465 
 2924      73637269 
 2925              	.LASF63:
 2926 0776 69436F6E 		.ascii	"iConfiguration\000"
 2926      66696775 
 2926      72617469 
 2926      6F6E00
 2927              	.LASF99:
 2928 0785 4354524C 		.ascii	"CTRL_SETUP\000"
 2928      5F534554 
 2928      555000
 2929              	.LASF176:
 2930 0790 2E2F6472 		.ascii	"./drivers/usb/usb_host/stm32-mw-usb-host-master/stm"
 2930      69766572 
 2930      732F7573 
 2930      622F7573 
 2930      625F686F 
 2931 07c3 33322D6D 		.ascii	"32-mw-usb-host-master/Core/Src/usbh_pipes.c\000"
 2931      772D7573 
 2931      622D686F 
 2931      73742D6D 
 2931      61737465 
 2932              	.LASF33:
 2933 07ef 62446576 		.ascii	"bDeviceProtocol\000"
 2933      69636550 
 2933      726F746F 
 2933      636F6C00 
 2934              	.LASF166:
 2935 07ff 70686F73 		.ascii	"phost\000"
 2935      7400
ARM GAS  C:\Users\DEVELO~1\AppData\Local\Temp\cc1tck9J.s 			page 59


 2936              	.LASF22:
 2937 0805 62526571 		.ascii	"bRequest\000"
 2937      75657374 
 2937      00
 2938              	.LASF84:
 2939 080e 484F5354 		.ascii	"HOST_CHECK_CLASS\000"
 2939      5F434845 
 2939      434B5F43 
 2939      4C415353 
 2939      00
 2940              	.LASF21:
 2941 081f 626D5265 		.ascii	"bmRequestType\000"
 2941      71756573 
 2941      74547970 
 2941      6500
 2942              	.LASF26:
 2943 082d 5553425F 		.ascii	"USB_Setup_TypeDef\000"
 2943      53657475 
 2943      705F5479 
 2943      70654465 
 2943      6600
 2944              	.LASF106:
 2945 083f 4354524C 		.ascii	"CTRL_STATUS_IN_WAIT\000"
 2945      5F535441 
 2945      5455535F 
 2945      494E5F57 
 2945      41495400 
 2946              	.LASF77:
 2947 0853 484F5354 		.ascii	"HOST_DEV_DISCONNECTED\000"
 2947      5F444556 
 2947      5F444953 
 2947      434F4E4E 
 2947      45435445 
 2948              	.LASF52:
 2949 0869 624E756D 		.ascii	"bNumEndpoints\000"
 2949      456E6470 
 2949      6F696E74 
 2949      7300
 2950              	.LASF55:
 2951 0877 62496E74 		.ascii	"bInterfaceProtocol\000"
 2951      65726661 
 2951      63655072 
 2951      6F746F63 
 2951      6F6C00
 2952              	.LASF15:
 2953 088a 6C6F6E67 		.ascii	"long double\000"
 2953      20646F75 
 2953      626C6500 
 2954              	.LASF121:
 2955 0896 6C656E67 		.ascii	"length\000"
 2955      746800
 2956              	.LASF134:
 2957 089d 69735F64 		.ascii	"is_disconnected\000"
 2957      6973636F 
 2957      6E6E6563 
 2957      74656400 
 2958              	.LASF16:
ARM GAS  C:\Users\DEVELO~1\AppData\Local\Temp\cc1tck9J.s 			page 60


 2959 08ad 63686172 		.ascii	"char\000"
 2959      00
 2960              	.LASF31:
 2961 08b2 62446576 		.ascii	"bDeviceClass\000"
 2961      69636543 
 2961      6C617373 
 2961      00
 2962              	.LASF97:
 2963 08bf 454E554D 		.ascii	"ENUM_StateTypeDef\000"
 2963      5F537461 
 2963      74655479 
 2963      70654465 
 2963      6600
 2964              	.LASF4:
 2965 08d1 5F5F7569 		.ascii	"__uint16_t\000"
 2965      6E743136 
 2965      5F7400
 2966              	.LASF80:
 2967 08dc 484F5354 		.ascii	"HOST_CLASS_REQUEST\000"
 2967      5F434C41 
 2967      53535F52 
 2967      45515545 
 2967      535400
 2968              	.LASF46:
 2969 08ef 774D6178 		.ascii	"wMaxPacketSize\000"
 2969      5061636B 
 2969      65745369 
 2969      7A6500
 2970              	.LASF66:
 2971 08fe 55534248 		.ascii	"USBH_CfgDescTypeDef\000"
 2971      5F436667 
 2971      44657363 
 2971      54797065 
 2971      44656600 
 2972              	.LASF146:
 2973 0912 42676E64 		.ascii	"BgndProcess\000"
 2973      50726F63 
 2973      65737300 
 2974              	.LASF111:
 2975 091e 4354524C 		.ascii	"CTRL_COMPLETE\000"
 2975      5F434F4D 
 2975      504C4554 
 2975      4500
 2976              	.LASF61:
 2977 092c 624E756D 		.ascii	"bNumInterfaces\000"
 2977      496E7465 
 2977      72666163 
 2977      657300
 2978              	.LASF107:
 2979 093b 4354524C 		.ascii	"CTRL_STATUS_OUT\000"
 2979      5F535441 
 2979      5455535F 
 2979      4F555400 
 2980              	.LASF171:
 2981 094b 70697065 		.ascii	"pipe_num\000"
 2981      5F6E756D 
 2981      00
ARM GAS  C:\Users\DEVELO~1\AppData\Local\Temp\cc1tck9J.s 			page 61


 2982              	.LASF27:
 2983 0954 5F446576 		.ascii	"_DeviceDescriptor\000"
 2983      69636544 
 2983      65736372 
 2983      6970746F 
 2983      7200
 2984              	.LASF174:
 2985 0966 65705F74 		.ascii	"ep_type\000"
 2985      79706500 
 2986              	.LASF119:
 2987 096e 70697065 		.ascii	"pipe_size\000"
 2987      5F73697A 
 2987      6500
 2988              	.LASF14:
 2989 0978 75696E74 		.ascii	"uint32_t\000"
 2989      33325F74 
 2989      00
 2990              	.LASF179:
 2991 0981 55534248 		.ascii	"USBH_GetFreePipe\000"
 2991      5F476574 
 2991      46726565 
 2991      50697065 
 2991      00
 2992              	.LASF28:
 2993 0992 624C656E 		.ascii	"bLength\000"
 2993      67746800 
 2994              	.LASF64:
 2995 099a 624D6178 		.ascii	"bMaxPower\000"
 2995      506F7765 
 2995      7200
 2996              	.LASF91:
 2997 09a4 454E554D 		.ascii	"ENUM_SET_ADDR\000"
 2997      5F534554 
 2997      5F414444 
 2997      5200
 2998              	.LASF141:
 2999 09b2 4E616D65 		.ascii	"Name\000"
 2999      00
 3000              	.LASF12:
 3001 09b7 75696E74 		.ascii	"uint8_t\000"
 3001      385F7400 
 3002              	.LASF49:
 3003 09bf 5F496E74 		.ascii	"_InterfaceDescriptor\000"
 3003      65726661 
 3003      63654465 
 3003      73637269 
 3003      70746F72 
 3004              	.LASF128:
 3005 09d4 44617461 		.ascii	"Data\000"
 3005      00
 3006              	.LASF122:
 3007 09d9 74696D65 		.ascii	"timer\000"
 3007      7200
 3008              	.LASF25:
 3009 09df 774C656E 		.ascii	"wLength\000"
 3009      67746800 
 3010              	.LASF75:
ARM GAS  C:\Users\DEVELO~1\AppData\Local\Temp\cc1tck9J.s 			page 62


 3011 09e7 484F5354 		.ascii	"HOST_DEV_WAIT_FOR_ATTACHMENT\000"
 3011      5F444556 
 3011      5F574149 
 3011      545F464F 
 3011      525F4154 
 3012              	.LASF130:
 3013 0a04 73706565 		.ascii	"speed\000"
 3013      6400
 3014              	.LASF139:
 3015 0a0a 43666744 		.ascii	"CfgDesc\000"
 3015      65736300 
 3016              	.LASF58:
 3017 0a12 55534248 		.ascii	"USBH_InterfaceDescTypeDef\000"
 3017      5F496E74 
 3017      65726661 
 3017      63654465 
 3017      73635479 
 3018              	.LASF133:
 3019 0a2c 69735F63 		.ascii	"is_connected\000"
 3019      6F6E6E65 
 3019      63746564 
 3019      00
 3020              	.LASF42:
 3021 0a39 55534248 		.ascii	"USBH_DevDescTypeDef\000"
 3021      5F446576 
 3021      44657363 
 3021      54797065 
 3021      44656600 
 3022              	.LASF41:
 3023 0a4d 624E756D 		.ascii	"bNumConfigurations\000"
 3023      436F6E66 
 3023      69677572 
 3023      6174696F 
 3023      6E7300
 3024              	.LASF67:
 3025 0a60 55534248 		.ascii	"USBH_OK\000"
 3025      5F4F4B00 
 3026              	.LASF173:
 3027 0a68 6465765F 		.ascii	"dev_address\000"
 3027      61646472 
 3027      65737300 
 3028              	.LASF96:
 3029 0a74 454E554D 		.ascii	"ENUM_GET_SERIALNUM_STRING_DESC\000"
 3029      5F474554 
 3029      5F534552 
 3029      49414C4E 
 3029      554D5F53 
 3030              	.LASF100:
 3031 0a93 4354524C 		.ascii	"CTRL_SETUP_WAIT\000"
 3031      5F534554 
 3031      55505F57 
 3031      41495400 
 3032              	.LASF35:
 3033 0aa3 69645665 		.ascii	"idVendor\000"
 3033      6E646F72 
 3033      00
 3034              		.ident	"GCC: (Arm GNU Toolchain 11.3.Rel1) 11.3.1 20220712"
ARM GAS  C:\Users\DEVELO~1\AppData\Local\Temp\cc1tck9J.s 			page 63


ARM GAS  C:\Users\DEVELO~1\AppData\Local\Temp\cc1tck9J.s 			page 64


DEFINED SYMBOLS
                            *ABS*:00000000 usbh_pipes.c
C:\Users\DEVELO~1\AppData\Local\Temp\cc1tck9J.s:19     .text.USBH_OpenPipe:00000000 $t
C:\Users\DEVELO~1\AppData\Local\Temp\cc1tck9J.s:26     .text.USBH_OpenPipe:00000000 USBH_OpenPipe
C:\Users\DEVELO~1\AppData\Local\Temp\cc1tck9J.s:68     .text.USBH_ClosePipe:00000000 $t
C:\Users\DEVELO~1\AppData\Local\Temp\cc1tck9J.s:75     .text.USBH_ClosePipe:00000000 USBH_ClosePipe
C:\Users\DEVELO~1\AppData\Local\Temp\cc1tck9J.s:99     .text.USBH_AllocPipe:00000000 $t
C:\Users\DEVELO~1\AppData\Local\Temp\cc1tck9J.s:106    .text.USBH_AllocPipe:00000000 USBH_AllocPipe
C:\Users\DEVELO~1\AppData\Local\Temp\cc1tck9J.s:198    .text.USBH_FreePipe:00000000 $t
C:\Users\DEVELO~1\AppData\Local\Temp\cc1tck9J.s:205    .text.USBH_FreePipe:00000000 USBH_FreePipe

UNDEFINED SYMBOLS
USBH_LL_OpenPipe
USBH_LL_ClosePipe
