ARM GAS  C:\Users\DEVELO~1\AppData\Local\Temp\cc1tck9J.s 			page 1


   1              		.cpu cortex-m7
   2              		.arch armv7e-m
   3              		.fpu fpv5-d16
   4              		.eabi_attribute 28, 1
   5              		.eabi_attribute 20, 1
   6              		.eabi_attribute 21, 1
   7              		.eabi_attribute 23, 3
   8              		.eabi_attribute 24, 1
   9              		.eabi_attribute 25, 1
  10              		.eabi_attribute 26, 1
  11              		.eabi_attribute 30, 2
  12              		.eabi_attribute 34, 1
  13              		.eabi_attribute 18, 4
  14              		.file	"usbh_pipes.c"
  15              		.text
  16              	.Ltext0:
  17              		.cfi_sections	.debug_frame
  18              		.section	.text.USBH_OpenPipe,"ax",%progbits
  19              		.align	1
  20              		.p2align 2,,3
  21              		.global	USBH_OpenPipe
  22              		.syntax unified
  23              		.thumb
  24              		.thumb_func
  25              		.type	USBH_OpenPipe, %function
  26              	USBH_OpenPipe:
  27              	.LVL0:
  28              	.LFB144:
  29              		.file 1 "./drivers/usb/usb_host/stm32-mw-usb-host-master/stm32-mw-usb-host-master/Core/Src/usbh_pi
  30              		.loc 1 87 1 view -0
  31              		.cfi_startproc
  32              		@ args = 12, pretend = 0, frame = 0
  33              		@ frame_needed = 0, uses_anonymous_args = 0
  34              		.loc 1 88 3 view .LVU1
  35              		.loc 1 87 1 is_stmt 0 view .LVU2
  36 0000 10B5     		push	{r4, lr}
  37              		.cfi_def_cfa_offset 8
  38              		.cfi_offset 4, -8
  39              		.cfi_offset 14, -4
  40 0002 84B0     		sub	sp, sp, #16
  41              		.cfi_def_cfa_offset 24
  42              		.loc 1 87 1 view .LVU3
  43 0004 9DF81840 		ldrb	r4, [sp, #24]	@ zero_extendqisi2
  44              		.loc 1 88 9 view .LVU4
  45 0008 0094     		str	r4, [sp]
  46              		.loc 1 87 1 view .LVU5
  47 000a 9DF81C40 		ldrb	r4, [sp, #28]	@ zero_extendqisi2
  48              		.loc 1 88 9 view .LVU6
  49 000e 0194     		str	r4, [sp, #4]
  50              		.loc 1 87 1 view .LVU7
  51 0010 BDF82040 		ldrh	r4, [sp, #32]
  52              		.loc 1 88 9 view .LVU8
  53 0014 0294     		str	r4, [sp, #8]
  54 0016 FFF7FEFF 		bl	USBH_LL_OpenPipe
  55              	.LVL1:
  56              		.loc 1 90 3 is_stmt 1 view .LVU9
  57              		.loc 1 91 1 is_stmt 0 view .LVU10
ARM GAS  C:\Users\DEVELO~1\AppData\Local\Temp\cc1tck9J.s 			page 2


  58 001a 0020     		movs	r0, #0
  59 001c 04B0     		add	sp, sp, #16
  60              		.cfi_def_cfa_offset 8
  61              		@ sp needed
  62 001e 10BD     		pop	{r4, pc}
  63              		.loc 1 91 1 view .LVU11
  64              		.cfi_endproc
  65              	.LFE144:
  66              		.size	USBH_OpenPipe, .-USBH_OpenPipe
  67              		.section	.text.USBH_ClosePipe,"ax",%progbits
  68              		.align	1
  69              		.p2align 2,,3
  70              		.global	USBH_ClosePipe
  71              		.syntax unified
  72              		.thumb
  73              		.thumb_func
  74              		.type	USBH_ClosePipe, %function
  75              	USBH_ClosePipe:
  76              	.LVL2:
  77              	.LFB145:
  78              		.loc 1 117 1 is_stmt 1 view -0
  79              		.cfi_startproc
  80              		@ args = 0, pretend = 0, frame = 0
  81              		@ frame_needed = 0, uses_anonymous_args = 0
  82              		.loc 1 118 3 view .LVU13
  83              		.loc 1 117 1 is_stmt 0 view .LVU14
  84 0000 08B5     		push	{r3, lr}
  85              		.cfi_def_cfa_offset 8
  86              		.cfi_offset 3, -8
  87              		.cfi_offset 14, -4
  88              		.loc 1 118 9 view .LVU15
  89 0002 FFF7FEFF 		bl	USBH_LL_ClosePipe
  90              	.LVL3:
  91              		.loc 1 120 3 is_stmt 1 view .LVU16
  92              		.loc 1 121 1 is_stmt 0 view .LVU17
  93 0006 0020     		movs	r0, #0
  94 0008 08BD     		pop	{r3, pc}
  95              		.cfi_endproc
  96              	.LFE145:
  97              		.size	USBH_ClosePipe, .-USBH_ClosePipe
  98 000a 00BF     		.section	.text.USBH_AllocPipe,"ax",%progbits
  99              		.align	1
 100              		.p2align 2,,3
 101              		.global	USBH_AllocPipe
 102              		.syntax unified
 103              		.thumb
 104              		.thumb_func
 105              		.type	USBH_AllocPipe, %function
 106              	USBH_AllocPipe:
 107              	.LVL4:
 108              	.LFB146:
 109              		.loc 1 132 1 is_stmt 1 view -0
 110              		.cfi_startproc
 111              		@ args = 0, pretend = 0, frame = 0
 112              		@ frame_needed = 0, uses_anonymous_args = 0
 113              		@ link register save eliminated.
 114              		.loc 1 133 3 view .LVU19
ARM GAS  C:\Users\DEVELO~1\AppData\Local\Temp\cc1tck9J.s 			page 3


 115              		.loc 1 135 3 view .LVU20
 116              		.loc 1 132 1 is_stmt 0 view .LVU21
 117 0000 0023     		movs	r3, #0
 118              	.LVL5:
 119              	.LBB4:
 120              	.LBI4:
 121              		.loc 1 170 17 is_stmt 1 view .LVU22
 122              	.LBB5:
 123              		.loc 1 172 3 view .LVU23
 124              		.loc 1 174 3 view .LVU24
 125              		.loc 1 174 22 view .LVU25
 126 0002 00F59462 		add	r2, r0, #1184
 127              	.LBE5:
 128              	.LBE4:
 129              		.loc 1 132 1 is_stmt 0 view .LVU26
 130 0006 10B4     		push	{r4}
 131              		.cfi_def_cfa_offset 4
 132              		.cfi_offset 4, -4
 133              	.LVL6:
 134              	.L9:
 135              	.LBB8:
 136              	.LBB6:
 137              		.loc 1 174 47 is_stmt 1 view .LVU27
 138              		.loc 1 174 22 view .LVU28
 139              		.loc 1 176 28 is_stmt 0 view .LVU29
 140 0008 52F8044F 		ldr	r4, [r2, #4]!
 141 000c 5FFA83FC 		uxtb	ip, r3
 142              	.LVL7:
 143              		.loc 1 176 5 is_stmt 1 view .LVU30
 144              		.loc 1 176 8 is_stmt 0 view .LVU31
 145 0010 2404     		lsls	r4, r4, #16
 146 0012 08D5     		bpl	.L12
 147              		.loc 1 174 22 view .LVU32
 148 0014 0133     		adds	r3, r3, #1
 149 0016 102B     		cmp	r3, #16
 150 0018 F6D1     		bne	.L9
 151 001a 4FF0FF0C 		mov	ip, #255
 152              	.LVL8:
 153              		.loc 1 174 22 view .LVU33
 154              	.LBE6:
 155              	.LBE8:
 156              		.loc 1 142 3 is_stmt 1 view .LVU34
 157              		.loc 1 143 1 is_stmt 0 view .LVU35
 158 001e 5DF8044B 		ldr	r4, [sp], #4
 159              		.cfi_remember_state
 160              		.cfi_restore 4
 161              		.cfi_def_cfa_offset 0
 162 0022 6046     		mov	r0, ip
 163              	.LVL9:
 164              		.loc 1 143 1 view .LVU36
 165 0024 7047     		bx	lr
 166              	.LVL10:
 167              	.L12:
 168              		.cfi_restore_state
 169              	.LBB9:
 170              	.LBB7:
 171              		.loc 1 178 7 is_stmt 1 view .LVU37
ARM GAS  C:\Users\DEVELO~1\AppData\Local\Temp\cc1tck9J.s 			page 4


 172              		.loc 1 178 7 is_stmt 0 view .LVU38
 173              	.LBE7:
 174              	.LBE9:
 175              		.loc 1 137 3 is_stmt 1 view .LVU39
 176              		.loc 1 139 5 view .LVU40
 177              		.loc 1 139 31 is_stmt 0 view .LVU41
 178 0026 00EB8300 		add	r0, r0, r3, lsl #2
 179              	.LVL11:
 180              		.loc 1 139 52 view .LVU42
 181 002a 41F40041 		orr	r1, r1, #32768
 182              	.LVL12:
 183              		.loc 1 143 1 view .LVU43
 184 002e 5DF8044B 		ldr	r4, [sp], #4
 185              		.cfi_restore 4
 186              		.cfi_def_cfa_offset 0
 187              		.loc 1 139 31 view .LVU44
 188 0032 C0F8A414 		str	r1, [r0, #1188]
 189              	.LVL13:
 190              		.loc 1 142 3 is_stmt 1 view .LVU45
 191              		.loc 1 143 1 is_stmt 0 view .LVU46
 192 0036 6046     		mov	r0, ip
 193 0038 7047     		bx	lr
 194              		.cfi_endproc
 195              	.LFE146:
 196              		.size	USBH_AllocPipe, .-USBH_AllocPipe
 197 003a 00BF     		.section	.text.USBH_FreePipe,"ax",%progbits
 198              		.align	1
 199              		.p2align 2,,3
 200              		.global	USBH_FreePipe
 201              		.syntax unified
 202              		.thumb
 203              		.thumb_func
 204              		.type	USBH_FreePipe, %function
 205              	USBH_FreePipe:
 206              	.LVL14:
 207              	.LFB147:
 208              		.loc 1 154 1 is_stmt 1 view -0
 209              		.cfi_startproc
 210              		@ args = 0, pretend = 0, frame = 0
 211              		@ frame_needed = 0, uses_anonymous_args = 0
 212              		@ link register save eliminated.
 213              		.loc 1 155 3 view .LVU48
 214              		.loc 1 155 6 is_stmt 0 view .LVU49
 215 0000 0F29     		cmp	r1, #15
 216 0002 07D8     		bhi	.L14
 217              		.loc 1 157 5 is_stmt 1 view .LVU50
 218 0004 00EB8101 		add	r1, r0, r1, lsl #2
 219              	.LVL15:
 220              		.loc 1 157 23 is_stmt 0 view .LVU51
 221 0008 D1F8A434 		ldr	r3, [r1, #1188]
 222 000c C3F30E03 		ubfx	r3, r3, #0, #15
 223 0010 C1F8A434 		str	r3, [r1, #1188]
 224              	.L14:
 225              		.loc 1 160 3 is_stmt 1 view .LVU52
 226              		.loc 1 161 1 is_stmt 0 view .LVU53
 227 0014 0020     		movs	r0, #0
 228              	.LVL16:
ARM GAS  C:\Users\DEVELO~1\AppData\Local\Temp\cc1tck9J.s 			page 5


 229              		.loc 1 161 1 view .LVU54
 230 0016 7047     		bx	lr
 231              		.cfi_endproc
 232              	.LFE147:
 233              		.size	USBH_FreePipe, .-USBH_FreePipe
 234              		.text
 235              	.Letext0:
 236              		.file 2 "c:\\chibistudio\\tools\\gnu tools arm embedded\\11.3 2022.08\\arm-none-eabi\\include\\mac
 237              		.file 3 "c:\\chibistudio\\tools\\gnu tools arm embedded\\11.3 2022.08\\arm-none-eabi\\include\\sys
 238              		.file 4 "./drivers/usb/usb_host/stm32-mw-usb-host-master/stm32-mw-usb-host-master/Core/Inc/usbh_de
 239              		.file 5 "./drivers/usb/usb_host/stm32-mw-usb-host-master/stm32-mw-usb-host-master/Core/Inc/usbh_co