ARM GAS  C:\Users\DEVELO~1\AppData\Local\Temp\ccBPZKTw.s 			page 1


   1              		.cpu cortex-m7
   2              		.arch armv7e-m
   3              		.fpu fpv5-d16
   4              		.eabi_attribute 28, 1
   5              		.eabi_attribute 20, 1
   6              		.eabi_attribute 21, 1
   7              		.eabi_attribute 23, 3
   8              		.eabi_attribute 24, 1
   9              		.eabi_attribute 25, 1
  10              		.eabi_attribute 26, 1
  11              		.eabi_attribute 30, 2
  12              		.eabi_attribute 34, 1
  13              		.eabi_attribute 18, 4
  14              		.file	"usbh_ioreq.c"
  15              		.text
  16              	.Ltext0:
  17              		.cfi_sections	.debug_frame
  18              		.section	.text.USBH_CtlSendSetup,"ax",%progbits
  19              		.align	1
  20              		.p2align 2,,3
  21              		.global	USBH_CtlSendSetup
  22              		.syntax unified
  23              		.thumb
  24              		.thumb_func
  25              		.type	USBH_CtlSendSetup, %function
  26              	USBH_CtlSendSetup:
  27              	.LVL0:
  28              	.LFB144:
  29              		.file 1 "./drivers/usb/usb_host/stm32-mw-usb-host-master/stm32-mw-usb-host-master/Core/Src/usbh_io
  30              		.loc 1 94 1 view -0
  31              		.cfi_startproc
  32              		@ args = 0, pretend = 0, frame = 0
  33              		@ frame_needed = 0, uses_anonymous_args = 0
  34              		.loc 1 96 3 view .LVU1
  35              		.loc 1 94 1 is_stmt 0 view .LVU2
  36 0000 30B5     		push	{r4, r5, lr}
  37              		.cfi_def_cfa_offset 12
  38              		.cfi_offset 4, -12
  39              		.cfi_offset 5, -8
  40              		.cfi_offset 14, -4
  41              		.loc 1 96 9 view .LVU3
  42 0002 0024     		movs	r4, #0
  43              		.loc 1 94 1 view .LVU4
  44 0004 85B0     		sub	sp, sp, #20
  45              		.cfi_def_cfa_offset 32
  46              		.loc 1 96 9 view .LVU5
  47 0006 0825     		movs	r5, #8
  48 0008 0191     		str	r1, [sp, #4]
  49 000a 2346     		mov	r3, r4
  50 000c 1146     		mov	r1, r2
  51              	.LVL1:
  52              		.loc 1 96 9 view .LVU6
  53 000e 0394     		str	r4, [sp, #12]
  54 0010 2246     		mov	r2, r4
  55              	.LVL2:
  56              		.loc 1 96 9 view .LVU7
  57 0012 0295     		str	r5, [sp, #8]
ARM GAS  C:\Users\DEVELO~1\AppData\Local\Temp\ccBPZKTw.s 			page 2


  58 0014 0094     		str	r4, [sp]
  59 0016 FFF7FEFF 		bl	USBH_LL_SubmitURB
  60              	.LVL3:
  61              		.loc 1 104 3 is_stmt 1 view .LVU8
  62              		.loc 1 105 1 is_stmt 0 view .LVU9
  63 001a 2046     		mov	r0, r4
  64 001c 05B0     		add	sp, sp, #20
  65              		.cfi_def_cfa_offset 12
  66              		@ sp needed
  67 001e 30BD     		pop	{r4, r5, pc}
  68              		.cfi_endproc
  69              	.LFE144:
  70              		.size	USBH_CtlSendSetup, .-USBH_CtlSendSetup
  71              		.section	.text.USBH_CtlSendData,"ax",%progbits
  72              		.align	1
  73              		.p2align 2,,3
  74              		.global	USBH_CtlSendData
  75              		.syntax unified
  76              		.thumb
  77              		.thumb_func
  78              		.type	USBH_CtlSendData, %function
  79              	USBH_CtlSendData:
  80              	.LVL4:
  81              	.LFB145:
  82              		.loc 1 122 1 is_stmt 1 view -0
  83              		.cfi_startproc
  84              		@ args = 4, pretend = 0, frame = 0
  85              		@ frame_needed = 0, uses_anonymous_args = 0
  86              		.loc 1 123 3 view .LVU11
  87              		.loc 1 122 1 is_stmt 0 view .LVU12
  88 0000 10B5     		push	{r4, lr}
  89              		.cfi_def_cfa_offset 8
  90              		.cfi_offset 4, -8
  91              		.cfi_offset 14, -4
  92 0002 0C46     		mov	r4, r1
  93 0004 84B0     		sub	sp, sp, #16
  94              		.cfi_def_cfa_offset 24
  95              		.loc 1 122 1 view .LVU13
  96 0006 1946     		mov	r1, r3
  97              	.LVL5:
  98              		.loc 1 123 6 view .LVU14
  99 0008 90F81D34 		ldrb	r3, [r0, #1053]	@ zero_extendqisi2
 100              	.LVL6:
 101              		.loc 1 128 9 view .LVU15
 102 000c CDE90142 		strd	r4, r2, [sp, #4]
 103              		.loc 1 125 13 view .LVU16
 104 0010 002B     		cmp	r3, #0
 105              		.loc 1 128 9 view .LVU17
 106 0012 4FF00104 		mov	r4, #1
 107              	.LVL7:
 108              		.loc 1 128 9 view .LVU18
 109 0016 4FF00003 		mov	r3, #0
 110 001a 0094     		str	r4, [sp]
 111              		.loc 1 122 1 view .LVU19
 112 001c 9DF81840 		ldrb	r4, [sp, #24]	@ zero_extendqisi2
 113              		.loc 1 125 13 view .LVU20
 114 0020 18BF     		it	ne
ARM GAS  C:\Users\DEVELO~1\AppData\Local\Temp\ccBPZKTw.s 			page 3


 115 0022 1C46     		movne	r4, r3
 116              	.LVL8:
 117              		.loc 1 128 3 is_stmt 1 view .LVU21
 118              		.loc 1 128 9 is_stmt 0 view .LVU22
 119 0024 1A46     		mov	r2, r3
 120              	.LVL9:
 121              		.loc 1 128 9 view .LVU23
 122 0026 0394     		str	r4, [sp, #12]
 123 0028 FFF7FEFF 		bl	USBH_LL_SubmitURB
 124              	.LVL10:
 125              		.loc 1 137 3 is_stmt 1 view .LVU24
 126              		.loc 1 138 1 is_stmt 0 view .LVU25
 127 002c 0020     		movs	r0, #0
 128 002e 04B0     		add	sp, sp, #16
 129              		.cfi_def_cfa_offset 8
 130              		@ sp needed
 131 0030 10BD     		pop	{r4, pc}
 132              		.loc 1 138 1 view .LVU26
 133              		.cfi_endproc
 134              	.LFE145:
 135              		.size	USBH_CtlSendData, .-USBH_CtlSendData
 136 0032 00BF     		.section	.text.USBH_CtlReceiveData,"ax",%progbits
 137              		.align	1
 138              		.p2align 2,,3
 139              		.global	USBH_CtlReceiveData
 140              		.syntax unified
 141              		.thumb
 142              		.thumb_func
 143              		.type	USBH_CtlReceiveData, %function
 144              	USBH_CtlReceiveData:
 145              	.LVL11:
 146              	.LFB146:
 147              		.loc 1 154 1 is_stmt 1 view -0
 148              		.cfi_startproc
 149              		@ args = 0, pretend = 0, frame = 0
 150              		@ frame_needed = 0, uses_anonymous_args = 0
 151              		.loc 1 155 3 view .LVU28
 152              		.loc 1 154 1 is_stmt 0 view .LVU29
 153 0000 30B5     		push	{r4, r5, lr}
 154              		.cfi_def_cfa_offset 12
 155              		.cfi_offset 4, -12
 156              		.cfi_offset 5, -8
 157              		.cfi_offset 14, -4
 158              		.loc 1 155 9 view .LVU30
 159 0002 0024     		movs	r4, #0
 160              		.loc 1 154 1 view .LVU31
 161 0004 85B0     		sub	sp, sp, #20
 162              		.cfi_def_cfa_offset 32
 163              		.loc 1 155 9 view .LVU32
 164 0006 0125     		movs	r5, #1
 165 0008 0191     		str	r1, [sp, #4]
 166 000a 1946     		mov	r1, r3
 167              	.LVL12:
 168              		.loc 1 155 9 view .LVU33
 169 000c 0292     		str	r2, [sp, #8]
 170 000e 2346     		mov	r3, r4
 171              	.LVL13:
ARM GAS  C:\Users\DEVELO~1\AppData\Local\Temp\ccBPZKTw.s 			page 4


 172              		.loc 1 155 9 view .LVU34
 173 0010 2A46     		mov	r2, r5
 174              	.LVL14:
 175              		.loc 1 155 9 view .LVU35
 176 0012 0394     		str	r4, [sp, #12]
 177 0014 0095     		str	r5, [sp]
 178 0016 FFF7FEFF 		bl	USBH_LL_SubmitURB
 179              	.LVL15:
 180              		.loc 1 163 3 is_stmt 1 view .LVU36
 181              		.loc 1 165 1 is_stmt 0 view .LVU37
 182 001a 2046     		mov	r0, r4
 183 001c 05B0     		add	sp, sp, #20
 184              		.cfi_def_cfa_offset 12
 185              		@ sp needed
 186 001e 30BD     		pop	{r4, r5, pc}
 187              		.cfi_endproc
 188              	.LFE146:
 189              		.size	USBH_CtlReceiveData, .-USBH_CtlReceiveData
 190              		.section	.text.USBH_BulkSendData,"ax",%progbits
 191              		.align	1
 192              		.p2align 2,,3
 193              		.global	USBH_BulkSendData
 194              		.syntax unified
 195              		.thumb
 196              		.thumb_func
 197              		.type	USBH_BulkSendData, %function
 198              	USBH_BulkSendData:
 199              	.LVL16:
 200              	.LFB147:
 201              		.loc 1 182 1 is_stmt 1 view -0
 202              		.cfi_startproc
 203              		@ args = 4, pretend = 0, frame = 0
 204              		@ frame_needed = 0, uses_anonymous_args = 0
 205              		.loc 1 183 3 view .LVU39
 206              		.loc 1 182 1 is_stmt 0 view .LVU40
 207 0000 10B5     		push	{r4, lr}
 208              		.cfi_def_cfa_offset 8
 209              		.cfi_offset 4, -8
 210              		.cfi_offset 14, -4
 211 0002 0C46     		mov	r4, r1
 212 0004 84B0     		sub	sp, sp, #16
 213              		.cfi_def_cfa_offset 24
 214              		.loc 1 182 1 view .LVU41
 215 0006 1946     		mov	r1, r3
 216              	.LVL17:
 217              		.loc 1 183 6 view .LVU42
 218 0008 90F81D34 		ldrb	r3, [r0, #1053]	@ zero_extendqisi2
 219              	.LVL18:
 220              		.loc 1 188 9 view .LVU43
 221 000c CDE90142 		strd	r4, r2, [sp, #4]
 222              		.loc 1 185 13 view .LVU44
 223 0010 002B     		cmp	r3, #0
 224              		.loc 1 188 9 view .LVU45
 225 0012 4FF00002 		mov	r2, #0
 226              	.LVL19:
 227              		.loc 1 188 9 view .LVU46
 228 0016 4FF00104 		mov	r4, #1
ARM GAS  C:\Users\DEVELO~1\AppData\Local\Temp\ccBPZKTw.s 			page 5


 229              	.LVL20:
 230              		.loc 1 188 9 view .LVU47
 231 001a 4FF00203 		mov	r3, #2
 232 001e 0094     		str	r4, [sp]
 233              		.loc 1 182 1 view .LVU48
 234 0020 9DF81840 		ldrb	r4, [sp, #24]	@ zero_extendqisi2
 235              		.loc 1 185 13 view .LVU49
 236 0024 18BF     		it	ne
 237 0026 1446     		movne	r4, r2
 238              	.LVL21:
 239              		.loc 1 188 3 is_stmt 1 view .LVU50
 240              		.loc 1 188 9 is_stmt 0 view .LVU51
 241 0028 0394     		str	r4, [sp, #12]
 242 002a FFF7FEFF 		bl	USBH_LL_SubmitURB
 243              	.LVL22:
 244              		.loc 1 196 3 is_stmt 1 view .LVU52
 245              		.loc 1 197 1 is_stmt 0 view .LVU53
 246 002e 0020     		movs	r0, #0
 247 0030 04B0     		add	sp, sp, #16
 248              		.cfi_def_cfa_offset 8
 249              		@ sp needed
 250 0032 10BD     		pop	{r4, pc}
 251              		.loc 1 197 1 view .LVU54
 252              		.cfi_endproc
 253              	.LFE147:
 254              		.size	USBH_BulkSendData, .-USBH_BulkSendData
 255              		.section	.text.USBH_BulkReceiveData,"ax",%progbits
 256              		.align	1
 257              		.p2align 2,,3
 258              		.global	USBH_BulkReceiveData
 259              		.syntax unified
 260              		.thumb
 261              		.thumb_func
 262              		.type	USBH_BulkReceiveData, %function
 263              	USBH_BulkReceiveData:
 264              	.LVL23:
 265              	.LFB148:
 266              		.loc 1 213 1 is_stmt 1 view -0
 267              		.cfi_startproc
 268              		@ args = 0, pretend = 0, frame = 0
 269              		@ frame_needed = 0, uses_anonymous_args = 0
 270              		.loc 1 214 3 view .LVU56
 271              		.loc 1 213 1 is_stmt 0 view .LVU57
 272 0000 30B5     		push	{r4, r5, lr}
 273              		.cfi_def_cfa_offset 12
 274              		.cfi_offset 4, -12
 275              		.cfi_offset 5, -8
 276              		.cfi_offset 14, -4
 277 0002 85B0     		sub	sp, sp, #20
 278              		.cfi_def_cfa_offset 32
 279              		.loc 1 213 1 view .LVU58
 280 0004 0D46     		mov	r5, r1
 281              		.loc 1 214 9 view .LVU59
 282 0006 0024     		movs	r4, #0
 283 0008 1946     		mov	r1, r3
 284              	.LVL24:
 285              		.loc 1 214 9 view .LVU60
ARM GAS  C:\Users\DEVELO~1\AppData\Local\Temp\ccBPZKTw.s 			page 6


 286 000a 0292     		str	r2, [sp, #8]
 287 000c 0122     		movs	r2, #1
 288              	.LVL25:
 289              		.loc 1 214 9 view .LVU61
 290 000e 0223     		movs	r3, #2
 291              	.LVL26:
 292              		.loc 1 214 9 view .LVU62
 293 0010 0394     		str	r4, [sp, #12]
 294 0012 CDE90025 		strd	r2, r5, [sp]
 295 0016 FFF7FEFF 		bl	USBH_LL_SubmitURB
 296              	.LVL27:
 297              		.loc 1 222 3 is_stmt 1 view .LVU63
 298              		.loc 1 223 1 is_stmt 0 view .LVU64
 299 001a 2046     		mov	r0, r4
 300 001c 05B0     		add	sp, sp, #20
 301              		.cfi_def_cfa_offset 12
 302              		@ sp needed
 303 001e 30BD     		pop	{r4, r5, pc}
 304              		.loc 1 223 1 view .LVU65
 305              		.cfi_endproc
 306              	.LFE148:
 307              		.size	USBH_BulkReceiveData, .-USBH_BulkReceiveData
 308              		.section	.text.USBH_InterruptReceiveData,"ax",%progbits
 309              		.align	1
 310              		.p2align 2,,3
 311              		.global	USBH_InterruptReceiveData
 312              		.syntax unified
 313              		.thumb
 314              		.thumb_func
 315              		.type	USBH_InterruptReceiveData, %function
 316              	USBH_InterruptReceiveData:
 317              	.LVL28:
 318              	.LFB149:
 319              		.loc 1 239 1 is_stmt 1 view -0
 320              		.cfi_startproc
 321              		@ args = 0, pretend = 0, frame = 0
 322              		@ frame_needed = 0, uses_anonymous_args = 0
 323              		.loc 1 240 3 view .LVU67
 324              		.loc 1 239 1 is_stmt 0 view .LVU68
 325 0000 30B5     		push	{r4, r5, lr}
 326              		.cfi_def_cfa_offset 12
 327              		.cfi_offset 4, -12
 328              		.cfi_offset 5, -8
 329              		.cfi_offset 14, -4
 330 0002 85B0     		sub	sp, sp, #20
 331              		.cfi_def_cfa_offset 32
 332              		.loc 1 239 1 view .LVU69
 333 0004 0D46     		mov	r5, r1
 334              		.loc 1 240 9 view .LVU70
 335 0006 0024     		movs	r4, #0
 336 0008 1946     		mov	r1, r3
 337              	.LVL29:
 338              		.loc 1 240 9 view .LVU71
 339 000a 0292     		str	r2, [sp, #8]
 340 000c 0122     		movs	r2, #1
 341              	.LVL30:
 342              		.loc 1 240 9 view .LVU72
ARM GAS  C:\Users\DEVELO~1\AppData\Local\Temp\ccBPZKTw.s 			page 7


 343 000e 0323     		movs	r3, #3
 344              	.LVL31:
 345              		.loc 1 240 9 view .LVU73
 346 0010 0394     		str	r4, [sp, #12]
 347 0012 CDE90025 		strd	r2, r5, [sp]
 348 0016 FFF7FEFF 		bl	USBH_LL_SubmitURB
 349              	.LVL32:
 350              		.loc 1 249 3 is_stmt 1 view .LVU74
 351              		.loc 1 250 1 is_stmt 0 view .LVU75
 352 001a 2046     		mov	r0, r4
 353 001c 05B0     		add	sp, sp, #20
 354              		.cfi_def_cfa_offset 12
 355              		@ sp needed
 356 001e 30BD     		pop	{r4, r5, pc}
 357              		.loc 1 250 1 view .LVU76
 358              		.cfi_endproc
 359              	.LFE149:
 360              		.size	USBH_InterruptReceiveData, .-USBH_InterruptReceiveData
 361              		.section	.text.USBH_InterruptSendData,"ax",%progbits
 362              		.align	1
 363              		.p2align 2,,3
 364              		.global	USBH_InterruptSendData
 365              		.syntax unified
 366              		.thumb
 367              		.thumb_func
 368              		.type	USBH_InterruptSendData, %function
 369              	USBH_InterruptSendData:
 370              	.LVL33:
 371              	.LFB150:
 372              		.loc 1 265 1 is_stmt 1 view -0
 373              		.cfi_startproc
 374              		@ args = 0, pretend = 0, frame = 0
 375              		@ frame_needed = 0, uses_anonymous_args = 0
 376              		.loc 1 266 3 view .LVU78
 377              		.loc 1 265 1 is_stmt 0 view .LVU79
 378 0000 30B5     		push	{r4, r5, lr}
 379              		.cfi_def_cfa_offset 12
 380              		.cfi_offset 4, -12
 381              		.cfi_offset 5, -8
 382              		.cfi_offset 14, -4
 383              		.loc 1 266 9 view .LVU80
 384 0002 0024     		movs	r4, #0
 385              		.loc 1 265 1 view .LVU81
 386 0004 85B0     		sub	sp, sp, #20
 387              		.cfi_def_cfa_offset 32
 388              		.loc 1 266 9 view .LVU82
 389 0006 0125     		movs	r5, #1
 390 0008 0191     		str	r1, [sp, #4]
 391 000a 1946     		mov	r1, r3
 392              	.LVL34:
 393              		.loc 1 266 9 view .LVU83
 394 000c 0292     		str	r2, [sp, #8]
 395 000e 0323     		movs	r3, #3
 396              	.LVL35:
 397              		.loc 1 266 9 view .LVU84
 398 0010 2246     		mov	r2, r4
 399              	.LVL36:
ARM GAS  C:\Users\DEVELO~1\AppData\Local\Temp\ccBPZKTw.s 			page 8


 400              		.loc 1 266 9 view .LVU85
 401 0012 0394     		str	r4, [sp, #12]
 402 0014 0095     		str	r5, [sp]
 403 0016 FFF7FEFF 		bl	USBH_LL_SubmitURB
 404              	.LVL37:
 405              		.loc 1 275 3 is_stmt 1 view .LVU86
 406              		.loc 1 276 1 is_stmt 0 view .LVU87
 407 001a 2046     		mov	r0, r4
 408 001c 05B0     		add	sp, sp, #20
 409              		.cfi_def_cfa_offset 12
 410              		@ sp needed
 411 001e 30BD     		pop	{r4, r5, pc}
 412              		.cfi_endproc
 413              	.LFE150:
 414              		.size	USBH_InterruptSendData, .-USBH_InterruptSendData
 415              		.section	.text.USBH_IsocReceiveData,"ax",%progbits
 416              		.align	1
 417              		.p2align 2,,3
 418              		.global	USBH_IsocReceiveData
 419              		.syntax unified
 420              		.thumb
 421              		.thumb_func
 422              		.type	USBH_IsocReceiveData, %function
 423              	USBH_IsocReceiveData:
 424              	.LVL38:
 425              	.LFB151:
 426              		.loc 1 291 1 is_stmt 1 view -0
 427              		.cfi_startproc
 428              		@ args = 0, pretend = 0, frame = 0
 429              		@ frame_needed = 0, uses_anonymous_args = 0
 430              		.loc 1 292 3 view .LVU89
 431              		.loc 1 291 1 is_stmt 0 view .LVU90
 432 0000 30B5     		push	{r4, r5, lr}
 433              		.cfi_def_cfa_offset 12
 434              		.cfi_offset 4, -12
 435              		.cfi_offset 5, -8
 436              		.cfi_offset 14, -4
 437              		.loc 1 292 9 view .LVU91
 438 0002 92B2     		uxth	r2, r2
 439              	.LVL39:
 440              		.loc 1 291 1 view .LVU92
 441 0004 85B0     		sub	sp, sp, #20
 442              		.cfi_def_cfa_offset 32
 443              		.loc 1 292 9 view .LVU93
 444 0006 0125     		movs	r5, #1
 445 0008 0024     		movs	r4, #0
 446 000a 0191     		str	r1, [sp, #4]
 447 000c 1946     		mov	r1, r3
 448              	.LVL40:
 449              		.loc 1 292 9 view .LVU94
 450 000e 0095     		str	r5, [sp]
 451 0010 2B46     		mov	r3, r5
 452              	.LVL41:
 453              		.loc 1 292 9 view .LVU95
 454 0012 CDE90224 		strd	r2, r4, [sp, #8]
 455 0016 2A46     		mov	r2, r5
 456 0018 FFF7FEFF 		bl	USBH_LL_SubmitURB
ARM GAS  C:\Users\DEVELO~1\AppData\Local\Temp\ccBPZKTw.s 			page 9


 457              	.LVL42:
 458              		.loc 1 302 3 is_stmt 1 view .LVU96
 459              		.loc 1 303 1 is_stmt 0 view .LVU97
 460 001c 2046     		mov	r0, r4
 461 001e 05B0     		add	sp, sp, #20
 462              		.cfi_def_cfa_offset 12
 463              		@ sp needed
 464 0020 30BD     		pop	{r4, r5, pc}
 465              		.cfi_endproc
 466              	.LFE151:
 467              		.size	USBH_IsocReceiveData, .-USBH_IsocReceiveData
 468 0022 00BF     		.section	.text.USBH_IsocSendData,"ax",%progbits
 469              		.align	1
 470              		.p2align 2,,3
 471              		.global	USBH_IsocSendData
 472              		.syntax unified
 473              		.thumb
 474              		.thumb_func
 475              		.type	USBH_IsocSendData, %function
 476              	USBH_IsocSendData:
 477              	.LVL43:
 478              	.LFB152:
 479              		.loc 1 318 1 is_stmt 1 view -0
 480              		.cfi_startproc
 481              		@ args = 0, pretend = 0, frame = 0
 482              		@ frame_needed = 0, uses_anonymous_args = 0
 483              		.loc 1 319 3 view .LVU99
 484              		.loc 1 318 1 is_stmt 0 view .LVU100
 485 0000 30B5     		push	{r4, r5, lr}
 486              		.cfi_def_cfa_offset 12
 487              		.cfi_offset 4, -12
 488              		.cfi_offset 5, -8
 489              		.cfi_offset 14, -4
 490              		.loc 1 319 9 view .LVU101
 491 0002 92B2     		uxth	r2, r2
 492              	.LVL44:
 493              		.loc 1 318 1 view .LVU102
 494 0004 85B0     		sub	sp, sp, #20
 495              		.cfi_def_cfa_offset 32
 496              		.loc 1 319 9 view .LVU103
 497 0006 0024     		movs	r4, #0
 498              		.loc 1 318 1 view .LVU104
 499 0008 0D46     		mov	r5, r1
 500              		.loc 1 319 9 view .LVU105
 501 000a 1946     		mov	r1, r3
 502              	.LVL45:
 503              		.loc 1 319 9 view .LVU106
 504 000c 0123     		movs	r3, #1
 505              	.LVL46:
 506              		.loc 1 319 9 view .LVU107
 507 000e 0292     		str	r2, [sp, #8]
 508 0010 2246     		mov	r2, r4
 509 0012 0394     		str	r4, [sp, #12]
 510 0014 0195     		str	r5, [sp, #4]
 511 0016 0093     		str	r3, [sp]
 512 0018 FFF7FEFF 		bl	USBH_LL_SubmitURB
 513              	.LVL47:
ARM GAS  C:\Users\DEVELO~1\AppData\Local\Temp\ccBPZKTw.s 			page 10


 514              		.loc 1 328 3 is_stmt 1 view .LVU108
 515              		.loc 1 329 1 is_stmt 0 view .LVU109
 516 001c 2046     		mov	r0, r4
 517 001e 05B0     		add	sp, sp, #20
 518              		.cfi_def_cfa_offset 12
 519              		@ sp needed
 520 0020 30BD     		pop	{r4, r5, pc}
 521              		.loc 1 329 1 view .LVU110
 522              		.cfi_endproc
 523              	.LFE152:
 524              		.size	USBH_IsocSendData, .-USBH_IsocSendData
 525 0022 00BF     		.text
 526              	.Letext0:
 527              		.file 2 "c:\\chibistudio\\tools\\gnu tools arm embedded\\11.3 2022.08\\arm-none-eabi\\include\\mac
 528              		.file 3 "c:\\chibistudio\\tools\\gnu tools arm embedded\\11.3 2022.08\\arm-none-eabi\\include\\sys
 529              		.file 4 "./drivers/usb/usb_host/stm32-mw-usb-host-master/stm32-mw-usb-host-master/Core/Inc/usbh_de
 530              		.file 5 "./drivers/usb/usb_host/stm32-mw-usb-host-master/stm32-mw-usb-host-master/Core/Inc/usbh_co