ARM GAS  C:\Users\DEVELO~1\AppData\Local\Temp\cc49uNO6.s 			page 1


   1              		.cpu cortex-m7
   2              		.arch armv7e-m
   3              		.fpu fpv5-d16
   4              		.eabi_attribute 28, 1
   5              		.eabi_attribute 20, 1
   6              		.eabi_attribute 21, 1
   7              		.eabi_attribute 23, 3
   8              		.eabi_attribute 24, 1
   9              		.eabi_attribute 25, 1
  10              		.eabi_attribute 26, 1
  11              		.eabi_attribute 30, 2
  12              		.eabi_attribute 34, 1
  13              		.eabi_attribute 18, 4
  14              		.file	"usbh_platform_chibios_h7.c"
  15              		.text
  16              	.Ltext0:
  17              		.cfi_sections	.debug_frame
  18              		.section	.text.HAL_HCD_MspInit,"ax",%progbits
  19              		.align	1
  20              		.p2align 2,,3
  21              		.global	HAL_HCD_MspInit
  22              		.syntax unified
  23              		.thumb
  24              		.thumb_func
  25              		.type	HAL_HCD_MspInit, %function
  26              	HAL_HCD_MspInit:
  27              	.LVL0:
  28              	.LFB358:
  29              		.file 1 "./usb_host/usbh_platform_chibios_h7.c"
  30              		.loc 1 62 1 view -0
  31              		.cfi_startproc
  32              		@ args = 0, pretend = 0, frame = 32
  33              		@ frame_needed = 0, uses_anonymous_args = 0
  34              		.loc 1 63 3 view .LVU1
  35              		.loc 1 65 6 is_stmt 0 view .LVU2
  36 0000 254B     		ldr	r3, .L6
  37 0002 0268     		ldr	r2, [r0]
  38              		.loc 1 62 1 view .LVU3
  39 0004 30B5     		push	{r4, r5, lr}
  40              		.cfi_def_cfa_offset 12
  41              		.cfi_offset 4, -12
  42              		.cfi_offset 5, -8
  43              		.cfi_offset 14, -4
  44              		.loc 1 65 6 view .LVU4
  45 0006 9A42     		cmp	r2, r3
  46              		.loc 1 62 1 view .LVU5
  47 0008 89B0     		sub	sp, sp, #36
  48              		.cfi_def_cfa_offset 48
  49              		.loc 1 63 20 view .LVU6
  50 000a 4FF00004 		mov	r4, #0
  51 000e CDE90344 		strd	r4, r4, [sp, #12]
  52 0012 CDE90544 		strd	r4, r4, [sp, #20]
  53 0016 0794     		str	r4, [sp, #28]
  54              		.loc 1 65 3 is_stmt 1 view .LVU7
  55              		.loc 1 65 6 is_stmt 0 view .LVU8
  56 0018 01D0     		beq	.L5
  57              		.loc 1 84 1 view .LVU9
ARM GAS  C:\Users\DEVELO~1\AppData\Local\Temp\cc49uNO6.s 			page 2


  58 001a 09B0     		add	sp, sp, #36
  59              		.cfi_remember_state
  60              		.cfi_def_cfa_offset 12
  61              		@ sp needed
  62 001c 30BD     		pop	{r4, r5, pc}
  63              	.L5:
  64              		.cfi_restore_state
  65              		.loc 1 67 5 is_stmt 1 view .LVU10
  66              	.LBB40:
  67              		.loc 1 67 5 view .LVU11
  68              		.loc 1 67 5 view .LVU12
  69 001e 1F4B     		ldr	r3, .L6+4
  70              	.LBE40:
  71              		.loc 1 73 26 is_stmt 0 view .LVU13
  72 0020 0220     		movs	r0, #2
  73              	.LVL1:
  74              		.loc 1 72 25 view .LVU14
  75 0022 4FF4C055 		mov	r5, #6144
  76              		.loc 1 77 5 view .LVU15
  77 0026 03A9     		add	r1, sp, #12
  78              	.LBB41:
  79              		.loc 1 67 5 view .LVU16
  80 0028 D3F8E020 		ldr	r2, [r3, #224]
  81 002c 42F00102 		orr	r2, r2, #1
  82 0030 C3F8E020 		str	r2, [r3, #224]
  83              		.loc 1 67 5 is_stmt 1 view .LVU17
  84 0034 D3F8E020 		ldr	r2, [r3, #224]
  85 0038 02F00102 		and	r2, r2, #1
  86 003c 0092     		str	r2, [sp]
  87              		.loc 1 67 5 view .LVU18
  88 003e 009A     		ldr	r2, [sp]
  89              	.LBE41:
  90              		.loc 1 67 5 view .LVU19
  91              		.loc 1 68 5 view .LVU20
  92              	.LBB42:
  93              		.loc 1 68 5 view .LVU21
  94              		.loc 1 68 5 view .LVU22
  95 0040 D3F8D820 		ldr	r2, [r3, #216]
  96 0044 42F00062 		orr	r2, r2, #134217728
  97 0048 C3F8D820 		str	r2, [r3, #216]
  98              		.loc 1 68 5 view .LVU23
  99 004c D3F8D820 		ldr	r2, [r3, #216]
 100 0050 02F00062 		and	r2, r2, #134217728
 101 0054 0192     		str	r2, [sp, #4]
 102              		.loc 1 68 5 view .LVU24
 103 0056 019A     		ldr	r2, [sp, #4]
 104              	.LBE42:
 105              		.loc 1 68 5 view .LVU25
 106              		.loc 1 69 5 view .LVU26
 107              	.LBB43:
 108              		.loc 1 69 5 view .LVU27
 109              		.loc 1 69 5 view .LVU28
 110 0058 D3F8F420 		ldr	r2, [r3, #244]
 111 005c 0243     		orrs	r2, r2, r0
 112 005e C3F8F420 		str	r2, [r3, #244]
 113              		.loc 1 69 5 view .LVU29
 114              	.LBE43:
ARM GAS  C:\Users\DEVELO~1\AppData\Local\Temp\cc49uNO6.s 			page 3


 115              		.loc 1 75 27 is_stmt 0 view .LVU30
 116 0062 0322     		movs	r2, #3
 117              	.LBB44:
 118              		.loc 1 69 5 view .LVU31
 119 0064 D3F8F430 		ldr	r3, [r3, #244]
 120              	.LBE44:
 121              		.loc 1 73 26 view .LVU32
 122 0068 0490     		str	r0, [sp, #16]
 123              	.LBB45:
 124              		.loc 1 69 5 view .LVU33
 125 006a 0340     		ands	r3, r3, r0
 126              	.LBE45:
 127              		.loc 1 77 5 view .LVU34
 128 006c 0C48     		ldr	r0, .L6+8
 129              		.loc 1 72 25 view .LVU35
 130 006e 0395     		str	r5, [sp, #12]
 131              	.LBB46:
 132              		.loc 1 69 5 view .LVU36
 133 0070 0293     		str	r3, [sp, #8]
 134              		.loc 1 69 5 is_stmt 1 view .LVU37
 135              	.LBE46:
 136              		.loc 1 76 31 is_stmt 0 view .LVU38
 137 0072 0A23     		movs	r3, #10
 138              	.LBB47:
 139              		.loc 1 69 5 view .LVU39
 140 0074 029D     		ldr	r5, [sp, #8]
 141              	.LBE47:
 142              		.loc 1 69 5 is_stmt 1 view .LVU40
 143              		.loc 1 72 5 view .LVU41
 144              		.loc 1 73 5 view .LVU42
 145              		.loc 1 74 5 view .LVU43
 146              		.loc 1 75 5 view .LVU44
 147              		.loc 1 76 31 is_stmt 0 view .LVU45
 148 0076 CDE90623 		strd	r2, r3, [sp, #24]
 149              		.loc 1 77 5 is_stmt 1 view .LVU46
 150 007a FFF7FEFF 		bl	HAL_GPIO_Init
 151              	.LVL2:
 152              		.loc 1 79 5 view .LVU47
 153 007e 2246     		mov	r2, r4
 154 0080 0621     		movs	r1, #6
 155 0082 6520     		movs	r0, #101
 156 0084 FFF7FEFF 		bl	HAL_NVIC_SetPriority
 157              	.LVL3:
 158              		.loc 1 80 5 view .LVU48
 159 0088 6520     		movs	r0, #101
 160 008a FFF7FEFF 		bl	HAL_NVIC_EnableIRQ
 161              	.LVL4:
 162              		.loc 1 82 5 view .LVU49
 163 008e FFF7FEFF 		bl	HAL_PWREx_EnableUSBVoltageDetector
 164              	.LVL5:
 165              		.loc 1 84 1 is_stmt 0 view .LVU50
 166 0092 09B0     		add	sp, sp, #36
 167              		.cfi_def_cfa_offset 12
 168              		@ sp needed
 169 0094 30BD     		pop	{r4, r5, pc}
 170              	.L7:
 171 0096 00BF     		.align	2
ARM GAS  C:\Users\DEVELO~1\AppData\Local\Temp\cc49uNO6.s 			page 4


 172              	.L6:
 173 0098 00000840 		.word	1074266112
 174 009c 00440258 		.word	1476543488
 175 00a0 00000258 		.word	1476526080
 176              		.cfi_endproc
 177              	.LFE358:
 178              		.size	HAL_HCD_MspInit, .-HAL_HCD_MspInit
 179              		.section	.text.HAL_HCD_MspDeInit,"ax",%progbits
 180              		.align	1
 181              		.p2align 2,,3
 182              		.global	HAL_HCD_MspDeInit
 183              		.syntax unified
 184              		.thumb
 185              		.thumb_func
 186              		.type	HAL_HCD_MspDeInit, %function
 187              	HAL_HCD_MspDeInit:
 188              	.LVL6:
 189              	.LFB359:
 190              		.loc 1 87 1 is_stmt 1 view -0
 191              		.cfi_startproc
 192              		@ args = 0, pretend = 0, frame = 0
 193              		@ frame_needed = 0, uses_anonymous_args = 0
 194              		.loc 1 88 3 view .LVU52
 195              		.loc 1 88 6 is_stmt 0 view .LVU53
 196 0000 0268     		ldr	r2, [r0]
 197              		.loc 1 87 1 view .LVU54
 198 0002 08B5     		push	{r3, lr}
 199              		.cfi_def_cfa_offset 8
 200              		.cfi_offset 3, -8
 201              		.cfi_offset 14, -4
 202              		.loc 1 88 6 view .LVU55
 203 0004 0A4B     		ldr	r3, .L12
 204 0006 9A42     		cmp	r2, r3
 205 0008 00D0     		beq	.L11
 206              		.loc 1 94 1 view .LVU56
 207 000a 08BD     		pop	{r3, pc}
 208              	.L11:
 209              		.loc 1 90 5 is_stmt 1 view .LVU57
 210 000c 6520     		movs	r0, #101
 211              	.LVL7:
 212              		.loc 1 90 5 is_stmt 0 view .LVU58
 213 000e FFF7FEFF 		bl	HAL_NVIC_DisableIRQ
 214              	.LVL8:
 215              		.loc 1 91 5 is_stmt 1 view .LVU59
 216 0012 084A     		ldr	r2, .L12+4
 217              		.loc 1 92 5 is_stmt 0 view .LVU60
 218 0014 4FF4C051 		mov	r1, #6144
 219 0018 0748     		ldr	r0, .L12+8
 220              		.loc 1 91 5 view .LVU61
 221 001a D2F8D830 		ldr	r3, [r2, #216]
 222 001e 23F00063 		bic	r3, r3, #134217728
 223 0022 C2F8D830 		str	r3, [r2, #216]
 224              		.loc 1 92 5 is_stmt 1 view .LVU62
 225              		.loc 1 94 1 is_stmt 0 view .LVU63
 226 0026 BDE80840 		pop	{r3, lr}
 227              		.cfi_restore 14
 228              		.cfi_restore 3
ARM GAS  C:\Users\DEVELO~1\AppData\Local\Temp\cc49uNO6.s 			page 5


 229              		.cfi_def_cfa_offset 0
 230              		.loc 1 92 5 view .LVU64
 231 002a FFF7FEBF 		b	HAL_GPIO_DeInit
 232              	.LVL9:
 233              	.L13:
 234 002e 00BF     		.align	2
 235              	.L12:
 236 0030 00000840 		.word	1074266112
 237 0034 00440258 		.word	1476543488
 238 0038 00000258 		.word	1476526080
 239              		.cfi_endproc
 240              	.LFE359:
 241              		.size	HAL_HCD_MspDeInit, .-HAL_HCD_MspDeInit
 242              		.section	.text.USBH_LL_Init,"ax",%progbits
 243              		.align	1
 244              		.p2align 2,,3
 245              		.global	USBH_LL_Init
 246              		.syntax unified
 247              		.thumb
 248              		.thumb_func
 249              		.type	USBH_LL_Init, %function
 250              	USBH_LL_Init:
 251              	.LVL10:
 252              	.LFB360:
 253              		.loc 1 97 1 is_stmt 1 view -0
 254              		.cfi_startproc
 255              		@ args = 0, pretend = 0, frame = 0
 256              		@ frame_needed = 0, uses_anonymous_args = 0
 257              		.loc 1 98 3 view .LVU66
 258              		.loc 1 97 1 is_stmt 0 view .LVU67
 259 0000 38B5     		push	{r3, r4, r5, lr}
 260              		.cfi_def_cfa_offset 16
 261              		.cfi_offset 3, -16
 262              		.cfi_offset 4, -12
 263              		.cfi_offset 5, -8
 264              		.cfi_offset 14, -4
 265              	.LBB48:
 266              	.LBB49:
 267              		.loc 1 46 28 view .LVU68
 268 0002 134A     		ldr	r2, .L18
 269              		.loc 1 53 25 view .LVU69
 270 0004 0023     		movs	r3, #0
 271              	.LBE49:
 272              	.LBE48:
 273              		.loc 1 98 16 view .LVU70
 274 0006 134C     		ldr	r4, .L18+4
 275              	.LBB54:
 276              	.LBB50:
 277              		.loc 1 45 18 view .LVU71
 278 0008 1349     		ldr	r1, .L18+8
 279              		.loc 1 46 28 view .LVU72
 280 000a 6260     		str	r2, [r4, #4]
 281              		.loc 1 58 22 view .LVU73
 282 000c 134A     		ldr	r2, .L18+12
 283              	.LBE50:
 284              	.LBE54:
 285              		.loc 1 98 16 view .LVU74
ARM GAS  C:\Users\DEVELO~1\AppData\Local\Temp\cc49uNO6.s 			page 6


 286 000e C0F8F044 		str	r4, [r0, #1264]
 287              		.loc 1 99 3 is_stmt 1 view .LVU75
 288              		.loc 1 99 25 is_stmt 0 view .LVU76
 289 0012 C4F8DC03 		str	r0, [r4, #988]
 290              		.loc 1 101 3 is_stmt 1 view .LVU77
 291              	.LVL11:
 292              	.LBB55:
 293              	.LBI48:
 294              		.loc 1 43 13 view .LVU78
 295              	.LBB51:
 296              		.loc 1 45 3 view .LVU79
 297              		.loc 1 46 3 view .LVU80
 298              		.loc 1 47 3 view .LVU81
 299              		.loc 1 48 3 view .LVU82
 300              		.loc 1 49 3 view .LVU83
 301              		.loc 1 50 3 view .LVU84
 302              		.loc 1 51 3 view .LVU85
 303              		.loc 1 52 3 view .LVU86
 304              		.loc 1 53 3 view .LVU87
 305              		.loc 1 54 3 view .LVU88
 306              		.loc 1 55 3 view .LVU89
 307              		.loc 1 56 3 view .LVU90
 308              		.loc 1 57 3 view .LVU91
 309              		.loc 1 58 3 view .LVU92
 310              	.LBE51:
 311              	.LBE55:
 312              		.loc 1 103 7 is_stmt 0 view .LVU93
 313 0016 2046     		mov	r0, r4
 314              	.LVL12:
 315              	.LBB56:
 316              	.LBB52:
 317              		.loc 1 45 18 view .LVU94
 318 0018 2160     		str	r1, [r4]
 319              		.loc 1 53 25 view .LVU95
 320 001a E360     		str	r3, [r4, #12]
 321              		.loc 1 57 32 view .LVU96
 322 001c 2374     		strb	r3, [r4, #16]
 323              	.LVL13:
 324              		.loc 1 57 32 view .LVU97
 325              	.LBE52:
 326              	.LBE56:
 327              		.loc 1 103 3 is_stmt 1 view .LVU98
 328              	.LBB57:
 329              	.LBB53:
 330              		.loc 1 58 22 is_stmt 0 view .LVU99
 331 001e A260     		str	r2, [r4, #8]
 332              	.LBE53:
 333              	.LBE57:
 334              		.loc 1 103 7 view .LVU100
 335 0020 FFF7FEFF 		bl	HAL_HCD_Init
 336              	.LVL14:
 337              		.loc 1 103 6 view .LVU101
 338 0024 80B9     		cbnz	r0, .L16
 339 0026 0546     		mov	r5, r0
 340              		.loc 1 108 3 is_stmt 1 view .LVU102
 341 0028 8021     		movs	r1, #128
 342 002a 2046     		mov	r0, r4
ARM GAS  C:\Users\DEVELO~1\AppData\Local\Temp\cc49uNO6.s 			page 7


 343 002c FFF7FEFF 		bl	HAL_HCDEx_SetRxFiFo
 344              	.LVL15:
 345              		.loc 1 109 3 view .LVU103
 346 0030 2946     		mov	r1, r5
 347 0032 4022     		movs	r2, #64
 348 0034 2046     		mov	r0, r4
 349 0036 FFF7FEFF 		bl	HAL_HCDEx_SetTxFiFo
 350              	.LVL16:
 351              		.loc 1 110 3 view .LVU104
 352 003a 8022     		movs	r2, #128
 353 003c 0121     		movs	r1, #1
 354 003e 2046     		mov	r0, r4
 355 0040 FFF7FEFF 		bl	HAL_HCDEx_SetTxFiFo
 356              	.LVL17:
 357              		.loc 1 112 3 view .LVU105
 358              		.loc 1 113 1 is_stmt 0 view .LVU106
 359 0044 2846     		mov	r0, r5
 360 0046 38BD     		pop	{r3, r4, r5, pc}
 361              	.L16:
 362              		.loc 1 105 12 view .LVU107
 363 0048 0225     		movs	r5, #2
 364              		.loc 1 113 1 view .LVU108
 365 004a 2846     		mov	r0, r5
 366 004c 38BD     		pop	{r3, r4, r5, pc}
 367              	.L19:
 368 004e 00BF     		.align	2
 369              	.L18:
 370 0050 08080001 		.word	16779272
 371 0054 00000000 		.word	.LANCHOR0
 372 0058 00000840 		.word	1074266112
 373 005c 40020100 		.word	66112
 374              		.cfi_endproc
 375              	.LFE360:
 376              		.size	USBH_LL_Init, .-USBH_LL_Init
 377              		.section	.text.USBH_LL_DeInit,"ax",%progbits
 378              		.align	1
 379              		.p2align 2,,3
 380              		.global	USBH_LL_DeInit
 381              		.syntax unified
 382              		.thumb
 383              		.thumb_func
 384              		.type	USBH_LL_DeInit, %function
 385              	USBH_LL_DeInit:
 386              	.LVL18:
 387              	.LFB361:
 388              		.loc 1 116 1 is_stmt 1 view -0
 389              		.cfi_startproc
 390              		@ args = 0, pretend = 0, frame = 0
 391              		@ frame_needed = 0, uses_anonymous_args = 0
 392              		.loc 1 117 3 view .LVU110
 393              		.loc 1 118 3 view .LVU111
 394              		.loc 1 116 1 is_stmt 0 view .LVU112
 395 0000 08B5     		push	{r3, lr}
 396              		.cfi_def_cfa_offset 8
 397              		.cfi_offset 3, -8
 398              		.cfi_offset 14, -4
 399              		.loc 1 118 7 view .LVU113
ARM GAS  C:\Users\DEVELO~1\AppData\Local\Temp\cc49uNO6.s 			page 8


 400 0002 0448     		ldr	r0, .L22
 401              	.LVL19:
 402              		.loc 1 118 7 view .LVU114
 403 0004 FFF7FEFF 		bl	HAL_HCD_DeInit
 404              	.LVL20:
 405              		.loc 1 118 6 view .LVU115
 406 0008 0038     		subs	r0, r0, #0
 407 000a 18BF     		it	ne
 408 000c 0120     		movne	r0, #1
 409              		.loc 1 123 1 view .LVU116
 410 000e 4000     		lsls	r0, r0, #1
 411 0010 08BD     		pop	{r3, pc}
 412              	.L23:
 413 0012 00BF     		.align	2
 414              	.L22:
 415 0014 00000000 		.word	.LANCHOR0
 416              		.cfi_endproc
 417              	.LFE361:
 418              		.size	USBH_LL_DeInit, .-USBH_LL_DeInit
 419              		.section	.text.USBH_LL_Start,"ax",%progbits
 420              		.align	1
 421              		.p2align 2,,3
 422              		.global	USBH_LL_Start
 423              		.syntax unified
 424              		.thumb
 425              		.thumb_func
 426              		.type	USBH_LL_Start, %function
 427              	USBH_LL_Start:
 428              	.LVL21:
 429              	.LFB362:
 430              		.loc 1 126 1 is_stmt 1 view -0
 431              		.cfi_startproc
 432              		@ args = 0, pretend = 0, frame = 0
 433              		@ frame_needed = 0, uses_anonymous_args = 0
 434              		.loc 1 127 3 view .LVU118
 435              		.loc 1 128 3 view .LVU119
 436              		.loc 1 126 1 is_stmt 0 view .LVU120
 437 0000 08B5     		push	{r3, lr}
 438              		.cfi_def_cfa_offset 8
 439              		.cfi_offset 3, -8
 440              		.cfi_offset 14, -4
 441              		.loc 1 128 7 view .LVU121
 442 0002 0448     		ldr	r0, .L26
 443              	.LVL22:
 444              		.loc 1 128 7 view .LVU122
 445 0004 FFF7FEFF 		bl	HAL_HCD_Start
 446              	.LVL23:
 447              		.loc 1 128 6 view .LVU123
 448 0008 0038     		subs	r0, r0, #0
 449 000a 18BF     		it	ne
 450 000c 0120     		movne	r0, #1
 451              		.loc 1 133 1 view .LVU124
 452 000e 4000     		lsls	r0, r0, #1
 453 0010 08BD     		pop	{r3, pc}
 454              	.L27:
 455 0012 00BF     		.align	2
 456              	.L26:
ARM GAS  C:\Users\DEVELO~1\AppData\Local\Temp\cc49uNO6.s 			page 9


 457 0014 00000000 		.word	.LANCHOR0
 458              		.cfi_endproc
 459              	.LFE362:
 460              		.size	USBH_LL_Start, .-USBH_LL_Start
 461              		.section	.text.USBH_LL_Stop,"ax",%progbits
 462              		.align	1
 463              		.p2align 2,,3
 464              		.global	USBH_LL_Stop
 465              		.syntax unified
 466              		.thumb
 467              		.thumb_func
 468              		.type	USBH_LL_Stop, %function
 469              	USBH_LL_Stop:
 470              	.LVL24:
 471              	.LFB363:
 472              		.loc 1 136 1 is_stmt 1 view -0
 473              		.cfi_startproc
 474              		@ args = 0, pretend = 0, frame = 0
 475              		@ frame_needed = 0, uses_anonymous_args = 0
 476              		.loc 1 137 3 view .LVU126
 477              		.loc 1 138 3 view .LVU127
 478              		.loc 1 136 1 is_stmt 0 view .LVU128
 479 0000 08B5     		push	{r3, lr}
 480              		.cfi_def_cfa_offset 8
 481              		.cfi_offset 3, -8
 482              		.cfi_offset 14, -4
 483              		.loc 1 138 7 view .LVU129
 484 0002 0448     		ldr	r0, .L30
 485              	.LVL25:
 486              		.loc 1 138 7 view .LVU130
 487 0004 FFF7FEFF 		bl	HAL_HCD_Stop
 488              	.LVL26:
 489              		.loc 1 138 6 view .LVU131
 490 0008 0038     		subs	r0, r0, #0
 491 000a 18BF     		it	ne
 492 000c 0120     		movne	r0, #1
 493              		.loc 1 143 1 view .LVU132
 494 000e 4000     		lsls	r0, r0, #1
 495 0010 08BD     		pop	{r3, pc}
 496              	.L31:
 497 0012 00BF     		.align	2
 498              	.L30:
 499 0014 00000000 		.word	.LANCHOR0
 500              		.cfi_endproc
 501              	.LFE363:
 502              		.size	USBH_LL_Stop, .-USBH_LL_Stop
 503              		.section	.text.USBH_LL_GetSpeed,"ax",%progbits
 504              		.align	1
 505              		.p2align 2,,3
 506              		.global	USBH_LL_GetSpeed
 507              		.syntax unified
 508              		.thumb
 509              		.thumb_func
 510              		.type	USBH_LL_GetSpeed, %function
 511              	USBH_LL_GetSpeed:
 512              	.LVL27:
 513              	.LFB364:
ARM GAS  C:\Users\DEVELO~1\AppData\Local\Temp\cc49uNO6.s 			page 10


 514              		.loc 1 146 1 is_stmt 1 view -0
 515              		.cfi_startproc
 516              		@ args = 0, pretend = 0, frame = 0
 517              		@ frame_needed = 0, uses_anonymous_args = 0
 518              		.loc 1 147 3 view .LVU134
 519              		.loc 1 146 1 is_stmt 0 view .LVU135
 520 0000 08B5     		push	{r3, lr}
 521              		.cfi_def_cfa_offset 8
 522              		.cfi_offset 3, -8
 523              		.cfi_offset 14, -4
 524              		.loc 1 147 20 view .LVU136
 525 0002 D0F8F004 		ldr	r0, [r0, #1264]
 526              	.LVL28:
 527              		.loc 1 147 20 view .LVU137
 528 0006 FFF7FEFF 		bl	HAL_HCD_GetCurrentSpeed
 529              	.LVL29:
 530              		.loc 1 148 3 is_stmt 1 view .LVU138
 531              		.loc 1 150 12 is_stmt 0 view .LVU139
 532 000a 0228     		cmp	r0, #2
 533              		.loc 1 153 1 view .LVU140
 534 000c 14BF     		ite	ne
 535 000e 0120     		movne	r0, #1
 536              	.LVL30:
 537              		.loc 1 153 1 view .LVU141
 538 0010 0220     		moveq	r0, #2
 539 0012 08BD     		pop	{r3, pc}
 540              		.cfi_endproc
 541              	.LFE364:
 542              		.size	USBH_LL_GetSpeed, .-USBH_LL_GetSpeed
 543              		.section	.text.USBH_LL_ResetPort,"ax",%progbits
 544              		.align	1
 545              		.p2align 2,,3
 546              		.global	USBH_LL_ResetPort
 547              		.syntax unified
 548              		.thumb
 549              		.thumb_func
 550              		.type	USBH_LL_ResetPort, %function
 551              	USBH_LL_ResetPort:
 552              	.LVL31:
 553              	.LFB365:
 554              		.loc 1 156 1 is_stmt 1 view -0
 555              		.cfi_startproc
 556              		@ args = 0, pretend = 0, frame = 0
 557              		@ frame_needed = 0, uses_anonymous_args = 0
 558              		.loc 1 157 3 view .LVU143
 559              		.loc 1 157 19 is_stmt 0 view .LVU144
 560 0000 064A     		ldr	r2, .L38
 561              		.loc 1 158 7 view .LVU145
 562 0002 D0F8F004 		ldr	r0, [r0, #1264]
 563              	.LVL32:
 564              		.loc 1 156 1 view .LVU146
 565 0006 08B5     		push	{r3, lr}
 566              		.cfi_def_cfa_offset 8
 567              		.cfi_offset 3, -8
 568              		.cfi_offset 14, -4
 569              		.loc 1 157 19 view .LVU147
 570 0008 1368     		ldr	r3, [r2]
ARM GAS  C:\Users\DEVELO~1\AppData\Local\Temp\cc49uNO6.s 			page 11


 571 000a 0133     		adds	r3, r3, #1
 572 000c 1360     		str	r3, [r2]
 573              		.loc 1 158 3 is_stmt 1 view .LVU148
 574              		.loc 1 158 7 is_stmt 0 view .LVU149
 575 000e FFF7FEFF 		bl	HAL_HCD_ResetPort
 576              	.LVL33:
 577              		.loc 1 158 6 view .LVU150
 578 0012 0038     		subs	r0, r0, #0
 579 0014 18BF     		it	ne
 580 0016 0120     		movne	r0, #1
 581              		.loc 1 163 1 view .LVU151
 582 0018 4000     		lsls	r0, r0, #1
 583 001a 08BD     		pop	{r3, pc}
 584              	.L39:
 585              		.align	2
 586              	.L38:
 587 001c 00000000 		.word	.LANCHOR1
 588              		.cfi_endproc
 589              	.LFE365:
 590              		.size	USBH_LL_ResetPort, .-USBH_LL_ResetPort
 591              		.section	.text.USBH_LL_GetLastXferSize,"ax",%progbits
 592              		.align	1
 593              		.p2align 2,,3
 594              		.global	USBH_LL_GetLastXferSize
 595              		.syntax unified
 596              		.thumb
 597              		.thumb_func
 598              		.type	USBH_LL_GetLastXferSize, %function
 599              	USBH_LL_GetLastXferSize:
 600              	.LVL34:
 601              	.LFB366:
 602              		.loc 1 166 1 is_stmt 1 view -0
 603              		.cfi_startproc
 604              		@ args = 0, pretend = 0, frame = 0
 605              		@ frame_needed = 0, uses_anonymous_args = 0
 606              		@ link register save eliminated.
 607              		.loc 1 167 3 view .LVU153
 608              		.loc 1 167 10 is_stmt 0 view .LVU154
 609 0000 D0F8F004 		ldr	r0, [r0, #1264]
 610              	.LVL35:
 611              		.loc 1 167 10 view .LVU155
 612 0004 FFF7FEBF 		b	HAL_HCD_HC_GetXferCount
 613              	.LVL36:
 614              		.loc 1 167 10 view .LVU156
 615              		.cfi_endproc
 616              	.LFE366:
 617              		.size	USBH_LL_GetLastXferSize, .-USBH_LL_GetLastXferSize
 618              		.section	.text.USBH_LL_DriverVBUS,"ax",%progbits
 619              		.align	1
 620              		.p2align 2,,3
 621              		.global	USBH_LL_DriverVBUS
 622              		.syntax unified
 623              		.thumb
 624              		.thumb_func
 625              		.type	USBH_LL_DriverVBUS, %function
 626              	USBH_LL_DriverVBUS:
 627              	.LVL37:
ARM GAS  C:\Users\DEVELO~1\AppData\Local\Temp\cc49uNO6.s 			page 12


 628              	.LFB367:
 629              		.loc 1 171 1 is_stmt 1 view -0
 630              		.cfi_startproc
 631              		@ args = 0, pretend = 0, frame = 0
 632              		@ frame_needed = 0, uses_anonymous_args = 0
 633              		.loc 1 172 3 view .LVU158
 634              		.loc 1 174 3 view .LVU159
 635              		.loc 1 171 1 is_stmt 0 view .LVU160
 636 0000 08B5     		push	{r3, lr}
 637              		.cfi_def_cfa_offset 8
 638              		.cfi_offset 3, -8
 639              		.cfi_offset 14, -4
 640              		.loc 1 174 6 view .LVU161
 641 0002 21B9     		cbnz	r1, .L42
 642              		.loc 1 180 5 is_stmt 1 view .LVU162
 643 0004 3220     		movs	r0, #50
 644              	.LVL38:
 645              		.loc 1 180 5 is_stmt 0 view .LVU163
 646 0006 FFF7FEFF 		bl	chThdSleep
 647              	.LVL39:
 648              		.loc 1 191 3 is_stmt 1 view .LVU164
 649              		.loc 1 192 1 is_stmt 0 view .LVU165
 650 000a 0020     		movs	r0, #0
 651 000c 08BD     		pop	{r3, pc}
 652              	.LVL40:
 653              	.L42:
 654              		.loc 1 188 5 is_stmt 1 view .LVU166
 655 000e 4FF47A70 		mov	r0, #1000
 656              	.LVL41:
 657              		.loc 1 188 5 is_stmt 0 view .LVU167
 658 0012 FFF7FEFF 		bl	chThdSleep
 659              	.LVL42:
 660              		.loc 1 191 3 is_stmt 1 view .LVU168
 661              		.loc 1 192 1 is_stmt 0 view .LVU169
 662 0016 0020     		movs	r0, #0
 663 0018 08BD     		pop	{r3, pc}
 664              		.cfi_endproc
 665              	.LFE367:
 666              		.size	USBH_LL_DriverVBUS, .-USBH_LL_DriverVBUS
 667 001a 00BF     		.section	.text.USBH_LL_OpenPipe,"ax",%progbits
 668              		.align	1
 669              		.p2align 2,,3
 670              		.global	USBH_LL_OpenPipe
 671              		.syntax unified
 672              		.thumb
 673              		.thumb_func
 674              		.type	USBH_LL_OpenPipe, %function
 675              	USBH_LL_OpenPipe:
 676              	.LVL43:
 677              	.LFB368:
 678              		.loc 1 198 1 is_stmt 1 view -0
 679              		.cfi_startproc
 680              		@ args = 12, pretend = 0, frame = 0
 681              		@ frame_needed = 0, uses_anonymous_args = 0
 682              		.loc 1 199 3 view .LVU171
 683              		.loc 1 198 1 is_stmt 0 view .LVU172
 684 0000 10B5     		push	{r4, lr}
ARM GAS  C:\Users\DEVELO~1\AppData\Local\Temp\cc49uNO6.s 			page 13


 685              		.cfi_def_cfa_offset 8
 686              		.cfi_offset 4, -8
 687              		.cfi_offset 14, -4
 688 0002 84B0     		sub	sp, sp, #16
 689              		.cfi_def_cfa_offset 24
 690              		.loc 1 199 7 view .LVU173
 691 0004 D0F8F004 		ldr	r0, [r0, #1264]
 692              	.LVL44:
 693              		.loc 1 198 1 view .LVU174
 694 0008 9DF81840 		ldrb	r4, [sp, #24]	@ zero_extendqisi2
 695              		.loc 1 199 7 view .LVU175
 696 000c 0094     		str	r4, [sp]
 697              		.loc 1 198 1 view .LVU176
 698 000e 9DF81C40 		ldrb	r4, [sp, #28]	@ zero_extendqisi2
 699              		.loc 1 199 7 view .LVU177
 700 0012 0194     		str	r4, [sp, #4]
 701              		.loc 1 198 1 view .LVU178
 702 0014 BDF82040 		ldrh	r4, [sp, #32]
 703              		.loc 1 199 7 view .LVU179
 704 0018 0294     		str	r4, [sp, #8]
 705 001a FFF7FEFF 		bl	HAL_HCD_HC_Init
 706              	.LVL45:
 707              		.loc 1 199 6 view .LVU180
 708 001e 0038     		subs	r0, r0, #0
 709 0020 18BF     		it	ne
 710 0022 0120     		movne	r0, #1
 711              		.loc 1 205 1 view .LVU181
 712 0024 4000     		lsls	r0, r0, #1
 713 0026 04B0     		add	sp, sp, #16
 714              		.cfi_def_cfa_offset 8
 715              		@ sp needed
 716 0028 10BD     		pop	{r4, pc}
 717              		.loc 1 205 1 view .LVU182
 718              		.cfi_endproc
 719              	.LFE368:
 720              		.size	USBH_LL_OpenPipe, .-USBH_LL_OpenPipe
 721 002a 00BF     		.section	.text.USBH_LL_ClosePipe,"ax",%progbits
 722              		.align	1
 723              		.p2align 2,,3
 724              		.global	USBH_LL_ClosePipe
 725              		.syntax unified
 726              		.thumb
 727              		.thumb_func
 728              		.type	USBH_LL_ClosePipe, %function
 729              	USBH_LL_ClosePipe:
 730              	.LVL46:
 731              	.LFB369:
 732              		.loc 1 208 1 is_stmt 1 view -0
 733              		.cfi_startproc
 734              		@ args = 0, pretend = 0, frame = 0
 735              		@ frame_needed = 0, uses_anonymous_args = 0
 736              		.loc 1 209 3 view .LVU184
 737              		.loc 1 208 1 is_stmt 0 view .LVU185
 738 0000 08B5     		push	{r3, lr}
 739              		.cfi_def_cfa_offset 8
 740              		.cfi_offset 3, -8
 741              		.cfi_offset 14, -4
ARM GAS  C:\Users\DEVELO~1\AppData\Local\Temp\cc49uNO6.s 			page 14


 742              		.loc 1 209 7 view .LVU186
 743 0002 D0F8F004 		ldr	r0, [r0, #1264]
 744              	.LVL47:
 745              		.loc 1 209 7 view .LVU187
 746 0006 FFF7FEFF 		bl	HAL_HCD_HC_Halt
 747              	.LVL48:
 748              		.loc 1 209 6 view .LVU188
 749 000a 0038     		subs	r0, r0, #0
 750 000c 18BF     		it	ne
 751 000e 0120     		movne	r0, #1
 752              		.loc 1 214 1 view .LVU189
 753 0010 4000     		lsls	r0, r0, #1
 754 0012 08BD     		pop	{r3, pc}
 755              		.cfi_endproc
 756              	.LFE369:
 757              		.size	USBH_LL_ClosePipe, .-USBH_LL_ClosePipe
 758              		.section	.text.USBH_LL_SubmitURB,"ax",%progbits
 759              		.align	1
 760              		.p2align 2,,3
 761              		.global	USBH_LL_SubmitURB
 762              		.syntax unified
 763              		.thumb
 764              		.thumb_func
 765              		.type	USBH_LL_SubmitURB, %function
 766              	USBH_LL_SubmitURB:
 767              	.LVL49:
 768              	.LFB370:
 769              		.loc 1 220 1 is_stmt 1 view -0
 770              		.cfi_startproc
 771              		@ args = 16, pretend = 0, frame = 0
 772              		@ frame_needed = 0, uses_anonymous_args = 0
 773              		.loc 1 221 3 view .LVU191
 774              		.loc 1 220 1 is_stmt 0 view .LVU192
 775 0000 2DE9F043 		push	{r4, r5, r6, r7, r8, r9, lr}
 776              		.cfi_def_cfa_offset 28
 777              		.cfi_offset 4, -28
 778              		.cfi_offset 5, -24
 779              		.cfi_offset 6, -20
 780              		.cfi_offset 7, -16
 781              		.cfi_offset 8, -12
 782              		.cfi_offset 9, -8
 783              		.cfi_offset 14, -4
 784 0004 85B0     		sub	sp, sp, #20
 785              		.cfi_def_cfa_offset 48
 786              		.loc 1 220 1 view .LVU193
 787 0006 9DF83060 		ldrb	r6, [sp, #48]	@ zero_extendqisi2
 788 000a 0D9D     		ldr	r5, [sp, #52]
 789 000c BDF83870 		ldrh	r7, [sp, #56]
 790 0010 9DF83C80 		ldrb	r8, [sp, #60]	@ zero_extendqisi2
 791              		.loc 1 221 6 view .LVU194
 792 0014 72BB     		cbnz	r2, .L50
 793              		.loc 1 223 5 is_stmt 1 view .LVU195
 794              	.LVL50:
 795              	.LBB80:
 796              	.LBI80:
 797              		.loc 1 15 13 view .LVU196
 798              	.LBB81:
ARM GAS  C:\Users\DEVELO~1\AppData\Local\Temp\cc49uNO6.s 			page 15


 799              		.loc 1 17 3 view .LVU197
 800              		.loc 1 17 6 is_stmt 0 view .LVU198
 801 0016 F5B1     		cbz	r5, .L51
 802 0018 EFB1     		cbz	r7, .L51
 803              		.loc 1 22 3 is_stmt 1 view .LVU199
 804              		.loc 1 23 88 is_stmt 0 view .LVU200
 805 001a 05F11F0E 		add	lr, r5, #31
 806              		.loc 1 22 13 view .LVU201
 807 001e 25F01F04 		bic	r4, r5, #31
 808              	.LVL51:
 809              		.loc 1 23 3 is_stmt 1 view .LVU202
 810              		.loc 1 23 88 is_stmt 0 view .LVU203
 811 0022 BE44     		add	lr, lr, r7
 812              		.loc 1 23 94 view .LVU204
 813 0024 2EF01F0E 		bic	lr, lr, #31
 814              		.loc 1 23 12 view .LVU205
 815 0028 AEEB040E 		sub	lr, lr, r4
 816              	.LVL52:
 817              		.loc 1 26 3 is_stmt 1 view .LVU206
 818              	.LBB82:
 819              	.LBI82:
 820              		.file 2 "../../../os/common/ext/ARM/CMSIS/Core/Include/core_cm7.h"
 821              		.loc 2 2491 22 view .LVU207
 822              	.LBB83:
 823              		.loc 2 2494 6 view .LVU208
 824              		.loc 2 2495 5 view .LVU209
 825              		.loc 2 2496 6 view .LVU210
 826              		.loc 2 2498 5 view .LVU211
 827              	.LBB84:
 828              	.LBI84:
 829              		.file 3 "../../../os/common/ext/ARM/CMSIS/Core/Include/cmsis_gcc.h"
 830              		.loc 3 877 27 view .LVU212
 831              	.LBB85:
 832              		.loc 3 879 3 view .LVU213
 833              		.syntax unified
 834              	@ 879 "../../../os/common/ext/ARM/CMSIS/Core/Include/cmsis_gcc.h" 1
 835 002c BFF34F8F 		dsb 0xF
 836              	@ 0 "" 2
 837              		.loc 3 879 3 is_stmt 0 view .LVU214
 838              		.thumb
 839              		.syntax unified
 840              	.LBE85:
 841              	.LBE84:
 842              		.loc 2 2500 20 is_stmt 1 view .LVU215
 843 0030 BEF1000F 		cmp	lr, #0
 844 0034 0BDD     		ble	.L54
 845 0036 A644     		add	lr, lr, r4
 846              	.LVL53:
 847              		.loc 2 2500 20 is_stmt 0 view .LVU216
 848 0038 04F1200C 		add	ip, r4, #32
 849              		.loc 2 2501 20 view .LVU217
 850 003c DFF87C90 		ldr	r9, .L59
 851              	.LVL54:
 852              	.L53:
 853              		.loc 2 2501 7 is_stmt 1 view .LVU218
 854              		.loc 2 2500 20 is_stmt 0 view .LVU219
 855 0040 F445     		cmp	ip, lr
ARM GAS  C:\Users\DEVELO~1\AppData\Local\Temp\cc49uNO6.s 			page 16


 856              		.loc 2 2501 20 view .LVU220
 857 0042 C9F86842 		str	r4, [r9, #616]
 858              		.loc 2 2502 7 is_stmt 1 view .LVU221
 859              		.loc 2 2502 15 is_stmt 0 view .LVU222
 860 0046 6446     		mov	r4, ip
 861              	.LVL55:
 862              		.loc 2 2503 7 is_stmt 1 view .LVU223
 863              		.loc 2 2500 20 view .LVU224
 864 0048 0CF1200C 		add	ip, ip, #32
 865 004c F8D1     		bne	.L53
 866              	.LVL56:
 867              	.L54:
 868              		.loc 2 2500 20 is_stmt 0 view .LVU225
 869              	.LBE83:
 870              	.LBE82:
 871              	.LBE81:
 872              	.LBE80:
 873              	.LBB86:
 874              	.LBB87:
 875              	.LBB88:
 876              	.LBB89:
 877              	.LBB90:
 878              	.LBB91:
 879              		.loc 2 2479 5 is_stmt 1 view .LVU226
 880              	.LBB92:
 881              	.LBI92:
 882              		.loc 3 877 27 view .LVU227
 883              	.LBB93:
 884              		.loc 3 879 3 view .LVU228
 885              		.syntax unified
 886              	@ 879 "../../../os/common/ext/ARM/CMSIS/Core/Include/cmsis_gcc.h" 1
 887 004e BFF34F8F 		dsb 0xF
 888              	@ 0 "" 2
 889              		.thumb
 890              		.syntax unified
 891              	.LBE93:
 892              	.LBE92:
 893              		.loc 2 2480 5 view .LVU229
 894              	.LBB95:
 895              	.LBI95:
 896              		.loc 3 866 27 view .LVU230
 897              	.LBB96:
 898              		.loc 3 868 3 view .LVU231
 899              		.syntax unified
 900              	@ 868 "../../../os/common/ext/ARM/CMSIS/Core/Include/cmsis_gcc.h" 1
 901 0052 BFF36F8F 		isb 0xF
 902              	@ 0 "" 2
 903              		.thumb
 904              		.syntax unified
 905              	.L51:
 906              	.LBE96:
 907              	.LBE95:
 908              	.LBE91:
 909              	.LBE90:
 910              	.LBE89:
 911              	.LBE88:
 912              	.LBE87:
ARM GAS  C:\Users\DEVELO~1\AppData\Local\Temp\cc49uNO6.s 			page 17


 913              	.LBE86:
 914              		.loc 1 230 3 view .LVU232
 915              		.loc 1 230 7 is_stmt 0 view .LVU233
 916 0056 CDE90278 		strd	r7, r8, [sp, #8]
 917 005a 0195     		str	r5, [sp, #4]
 918 005c D0F8F004 		ldr	r0, [r0, #1264]
 919              	.LVL57:
 920              		.loc 1 230 7 view .LVU234
 921 0060 0096     		str	r6, [sp]
 922 0062 FFF7FEFF 		bl	HAL_HCD_HC_SubmitRequest
 923              	.LVL58:
 924              		.loc 1 230 6 view .LVU235
 925 0066 0038     		subs	r0, r0, #0
 926 0068 18BF     		it	ne
 927 006a 0120     		movne	r0, #1
 928              		.loc 1 237 1 view .LVU236
 929 006c 4000     		lsls	r0, r0, #1
 930 006e 05B0     		add	sp, sp, #20
 931              		.cfi_remember_state
 932              		.cfi_def_cfa_offset 28
 933              		@ sp needed
 934 0070 BDE8F083 		pop	{r4, r5, r6, r7, r8, r9, pc}
 935              	.LVL59:
 936              	.L50:
 937              		.cfi_restore_state
 938              		.loc 1 227 5 is_stmt 1 view .LVU237
 939              	.LBB107:
 940              	.LBI86:
 941              		.loc 1 29 13 view .LVU238
 942              	.LBB106:
 943              		.loc 1 31 3 view .LVU239
 944              		.loc 1 31 6 is_stmt 0 view .LVU240
 945 0074 002D     		cmp	r5, #0
 946 0076 EED0     		beq	.L51
 947 0078 002F     		cmp	r7, #0
 948 007a ECD0     		beq	.L51
 949              	.LVL60:
 950              	.LBB105:
 951              	.LBI88:
 952              		.loc 1 29 13 is_stmt 1 view .LVU241
 953              	.LBB104:
 954              		.loc 1 36 3 view .LVU242
 955              		.loc 1 37 88 is_stmt 0 view .LVU243
 956 007c 05F11F0E 		add	lr, r5, #31
 957              		.loc 1 36 13 view .LVU244
 958 0080 25F01F04 		bic	r4, r5, #31
 959              	.LVL61:
 960              		.loc 1 37 3 is_stmt 1 view .LVU245
 961              		.loc 1 37 88 is_stmt 0 view .LVU246
 962 0084 BE44     		add	lr, lr, r7
 963              		.loc 1 37 94 view .LVU247
 964 0086 2EF01F0E 		bic	lr, lr, #31
 965              		.loc 1 37 12 view .LVU248
 966 008a AEEB040E 		sub	lr, lr, r4
 967              	.LVL62:
 968              		.loc 1 40 3 is_stmt 1 view .LVU249
 969              	.LBB103:
ARM GAS  C:\Users\DEVELO~1\AppData\Local\Temp\cc49uNO6.s 			page 18


 970              	.LBI90:
 971              		.loc 2 2464 22 view .LVU250
 972              	.LBB102:
 973              		.loc 2 2467 6 view .LVU251
 974              		.loc 2 2468 5 view .LVU252
 975              		.loc 2 2469 6 view .LVU253
 976              		.loc 2 2471 5 view .LVU254
 977              	.LBB98:
 978              	.LBI98:
 979              		.loc 3 877 27 view .LVU255
 980              	.LBB99:
 981              		.loc 3 879 3 view .LVU256
 982              		.syntax unified
 983              	@ 879 "../../../os/common/ext/ARM/CMSIS/Core/Include/cmsis_gcc.h" 1
 984 008e BFF34F8F 		dsb 0xF
 985              	@ 0 "" 2
 986              		.loc 3 879 3 is_stmt 0 view .LVU257
 987              		.thumb
 988              		.syntax unified
 989              	.LBE99:
 990              	.LBE98:
 991              		.loc 2 2473 20 is_stmt 1 view .LVU258
 992 0092 BEF1000F 		cmp	lr, #0
 993 0096 DADD     		ble	.L54
 994 0098 A644     		add	lr, lr, r4
 995              	.LVL63:
 996              		.loc 2 2473 20 is_stmt 0 view .LVU259
 997 009a 04F1200C 		add	ip, r4, #32
 998              		.loc 2 2474 20 view .LVU260
 999 009e DFF81C90 		ldr	r9, .L59
 1000              	.LVL64:
 1001              	.L55:
 1002              		.loc 2 2474 7 is_stmt 1 view .LVU261
 1003              		.loc 2 2473 20 is_stmt 0 view .LVU262
 1004 00a2 E645     		cmp	lr, ip
 1005              		.loc 2 2474 20 view .LVU263
 1006 00a4 C9F85C42 		str	r4, [r9, #604]
 1007              		.loc 2 2475 7 is_stmt 1 view .LVU264
 1008              		.loc 2 2475 15 is_stmt 0 view .LVU265
 1009 00a8 6446     		mov	r4, ip
 1010              	.LVL65:
 1011              		.loc 2 2476 7 is_stmt 1 view .LVU266
 1012              		.loc 2 2473 20 view .LVU267
 1013 00aa 0CF1200C 		add	ip, ip, #32
 1014 00ae F8D1     		bne	.L55
 1015              		.loc 2 2479 5 view .LVU268
 1016              	.LBB100:
 1017              		.loc 3 877 27 view .LVU269
 1018              	.LBB94:
 1019              		.loc 3 879 3 view .LVU270
 1020              		.syntax unified
 1021              	@ 879 "../../../os/common/ext/ARM/CMSIS/Core/Include/cmsis_gcc.h" 1
 1022 00b0 BFF34F8F 		dsb 0xF
 1023              	@ 0 "" 2
 1024              		.thumb
 1025              		.syntax unified
 1026              	.LBE94:
ARM GAS  C:\Users\DEVELO~1\AppData\Local\Temp\cc49uNO6.s 			page 19


 1027              	.LBE100:
 1028              		.loc 2 2480 5 view .LVU271
 1029              	.LBB101:
 1030              		.loc 3 866 27 view .LVU272
 1031              	.LBB97:
 1032              		.loc 3 868 3 view .LVU273
 1033              		.syntax unified
 1034              	@ 868 "../../../os/common/ext/ARM/CMSIS/Core/Include/cmsis_gcc.h" 1
 1035 00b4 BFF36F8F 		isb 0xF
 1036              	@ 0 "" 2
 1037              	.LVL66:
 1038              		.loc 3 868 3 is_stmt 0 view .LVU274
 1039              		.thumb
 1040              		.syntax unified
 1041 00b8 CDE7     		b	.L51
 1042              	.L60:
 1043 00ba 00BF     		.align	2
 1044              	.L59:
 1045 00bc 00ED00E0 		.word	-536810240
 1046              	.LBE97:
 1047              	.LBE101:
 1048              	.LBE102:
 1049              	.LBE103:
 1050              	.LBE104:
 1051              	.LBE105:
 1052              	.LBE106:
 1053              	.LBE107:
 1054              		.cfi_endproc
 1055              	.LFE370:
 1056              		.size	USBH_LL_SubmitURB, .-USBH_LL_SubmitURB
 1057              		.section	.text.USBH_LL_GetURBState,"ax",%progbits
 1058              		.align	1
 1059              		.p2align 2,,3
 1060              		.global	USBH_LL_GetURBState
 1061              		.syntax unified
 1062              		.thumb
 1063              		.thumb_func
 1064              		.type	USBH_LL_GetURBState, %function
 1065              	USBH_LL_GetURBState:
 1066              	.LVL67:
 1067              	.LFB371:
 1068              		.loc 1 240 1 is_stmt 1 view -0
 1069              		.cfi_startproc
 1070              		@ args = 0, pretend = 0, frame = 0
 1071              		@ frame_needed = 0, uses_anonymous_args = 0
 1072              		.loc 1 241 3 view .LVU276
 1073              		.loc 1 240 1 is_stmt 0 view .LVU277
 1074 0000 38B5     		push	{r3, r4, r5, lr}
 1075              		.cfi_def_cfa_offset 16
 1076              		.cfi_offset 3, -16
 1077              		.cfi_offset 4, -12
 1078              		.cfi_offset 5, -8
 1079              		.cfi_offset 14, -4
 1080              		.loc 1 241 22 view .LVU278
 1081 0002 D0F8F054 		ldr	r5, [r0, #1264]
 1082              	.LVL68:
 1083              		.loc 1 242 3 is_stmt 1 view .LVU279
ARM GAS  C:\Users\DEVELO~1\AppData\Local\Temp\cc49uNO6.s 			page 20


 1084              		.loc 1 240 1 is_stmt 0 view .LVU280
 1085 0006 0C46     		mov	r4, r1
 1086              		.loc 1 242 35 view .LVU281
 1087 0008 2846     		mov	r0, r5
 1088              	.LVL69:
 1089              		.loc 1 242 35 view .LVU282
 1090 000a FFF7FEFF 		bl	HAL_HCD_HC_GetURBState
 1091              	.LVL70:
 1092              		.loc 1 244 3 is_stmt 1 view .LVU283
 1093              		.loc 1 244 6 is_stmt 0 view .LVU284
 1094 000e 0128     		cmp	r0, #1
 1095 0010 03D0     		beq	.L71
 1096              		.loc 1 249 3 is_stmt 1 view .LVU285
 1097              		.loc 1 244 6 is_stmt 0 view .LVU286
 1098 0012 0628     		cmp	r0, #6
 1099 0014 28BF     		it	cs
 1100 0016 0420     		movcs	r0, #4
 1101              	.LVL71:
 1102              	.L63:
 1103              		.loc 1 266 1 view .LVU287
 1104 0018 38BD     		pop	{r3, r4, r5, pc}
 1105              	.LVL72:
 1106              	.L71:
 1107              		.loc 1 244 49 discriminator 1 view .LVU288
 1108 001a C4EB0411 		rsb	r1, r4, r4, lsl #4
 1109 001e 05EB8105 		add	r5, r5, r1, lsl #2
 1110              	.LVL73:
 1111              		.loc 1 244 31 discriminator 1 view .LVU289
 1112 0022 EB7D     		ldrb	r3, [r5, #23]	@ zero_extendqisi2
 1113 0024 002B     		cmp	r3, #0
 1114 0026 F7D0     		beq	.L63
 1115              		.loc 1 246 5 is_stmt 1 view .LVU290
 1116 0028 EC6A     		ldr	r4, [r5, #44]
 1117 002a 6A6B     		ldr	r2, [r5, #52]
 1118              	.LVL74:
 1119              	.LBB120:
 1120              	.LBI120:
 1121              		.loc 1 29 13 view .LVU291
 1122              	.LBB121:
 1123              		.loc 1 31 3 view .LVU292
 1124              		.loc 1 31 6 is_stmt 0 view .LVU293
 1125 002c 002C     		cmp	r4, #0
 1126 002e F3D0     		beq	.L63
 1127 0030 002A     		cmp	r2, #0
 1128 0032 F1D0     		beq	.L63
 1129              	.LVL75:
 1130              	.LBB122:
 1131              	.LBI122:
 1132              		.loc 1 29 13 is_stmt 1 view .LVU294
 1133              	.LBB123:
 1134              		.loc 1 36 3 view .LVU295
 1135              		.loc 1 37 88 is_stmt 0 view .LVU296
 1136 0034 1F32     		adds	r2, r2, #31
 1137              	.LVL76:
 1138              		.loc 1 36 13 view .LVU297
 1139 0036 24F01F01 		bic	r1, r4, #31
 1140              	.LVL77:
ARM GAS  C:\Users\DEVELO~1\AppData\Local\Temp\cc49uNO6.s 			page 21


 1141              		.loc 1 37 3 is_stmt 1 view .LVU298
 1142              		.loc 1 37 88 is_stmt 0 view .LVU299
 1143 003a 2244     		add	r2, r2, r4
 1144              		.loc 1 37 94 view .LVU300
 1145 003c 22F01F02 		bic	r2, r2, #31
 1146              		.loc 1 37 12 view .LVU301
 1147 0040 521A     		subs	r2, r2, r1
 1148              	.LVL78:
 1149              		.loc 1 40 3 is_stmt 1 view .LVU302
 1150              	.LBB124:
 1151              	.LBI124:
 1152              		.loc 2 2464 22 view .LVU303
 1153              	.LBB125:
 1154              		.loc 2 2467 6 view .LVU304
 1155              		.loc 2 2468 5 view .LVU305
 1156              		.loc 2 2469 6 view .LVU306
 1157              		.loc 2 2471 5 view .LVU307
 1158              	.LBB126:
 1159              	.LBI126:
 1160              		.loc 3 877 27 view .LVU308
 1161              	.LBB127:
 1162              		.loc 3 879 3 view .LVU309
 1163              		.syntax unified
 1164              	@ 879 "../../../os/common/ext/ARM/CMSIS/Core/Include/cmsis_gcc.h" 1
 1165 0042 BFF34F8F 		dsb 0xF
 1166              	@ 0 "" 2
 1167              		.loc 3 879 3 is_stmt 0 view .LVU310
 1168              		.thumb
 1169              		.syntax unified
 1170              	.LBE127:
 1171              	.LBE126:
 1172              		.loc 2 2473 20 is_stmt 1 view .LVU311
 1173 0046 002A     		cmp	r2, #0
 1174 0048 0ADD     		ble	.L64
 1175 004a 01F12003 		add	r3, r1, #32
 1176 004e 0A44     		add	r2, r2, r1
 1177              	.LVL79:
 1178              		.loc 2 2474 20 is_stmt 0 view .LVU312
 1179 0050 064C     		ldr	r4, .L72
 1180              	.LVL80:
 1181              	.L65:
 1182              		.loc 2 2474 7 is_stmt 1 view .LVU313
 1183              		.loc 2 2473 20 is_stmt 0 view .LVU314
 1184 0052 9342     		cmp	r3, r2
 1185              		.loc 2 2474 20 view .LVU315
 1186 0054 C4F85C12 		str	r1, [r4, #604]
 1187              		.loc 2 2475 7 is_stmt 1 view .LVU316
 1188              		.loc 2 2475 15 is_stmt 0 view .LVU317
 1189 0058 1946     		mov	r1, r3
 1190              	.LVL81:
 1191              		.loc 2 2476 7 is_stmt 1 view .LVU318
 1192              		.loc 2 2473 20 view .LVU319
 1193 005a 03F12003 		add	r3, r3, #32
 1194 005e F8D1     		bne	.L65
 1195              	.L64:
 1196              		.loc 2 2479 5 view .LVU320
 1197              	.LBB128:
ARM GAS  C:\Users\DEVELO~1\AppData\Local\Temp\cc49uNO6.s 			page 22


 1198              	.LBI128:
 1199              		.loc 3 877 27 view .LVU321
 1200              	.LBB129:
 1201              		.loc 3 879 3 view .LVU322
 1202              		.syntax unified
 1203              	@ 879 "../../../os/common/ext/ARM/CMSIS/Core/Include/cmsis_gcc.h" 1
 1204 0060 BFF34F8F 		dsb 0xF
 1205              	@ 0 "" 2
 1206              		.thumb
 1207              		.syntax unified
 1208              	.LBE129:
 1209              	.LBE128:
 1210              		.loc 2 2480 5 view .LVU323
 1211              	.LBB130:
 1212              	.LBI130:
 1213              		.loc 3 866 27 view .LVU324
 1214              	.LBB131:
 1215              		.loc 3 868 3 view .LVU325
 1216              		.syntax unified
 1217              	@ 868 "../../../os/common/ext/ARM/CMSIS/Core/Include/cmsis_gcc.h" 1
 1218 0064 BFF36F8F 		isb 0xF
 1219              	@ 0 "" 2
 1220              	.LVL82:
 1221              		.loc 3 868 3 is_stmt 0 view .LVU326
 1222              		.thumb
 1223              		.syntax unified
 1224              	.LBE131:
 1225              	.LBE130:
 1226              	.LBE125:
 1227              	.LBE124:
 1228              	.LBE123:
 1229              	.LBE122:
 1230              	.LBE121:
 1231              	.LBE120:
 1232              		.loc 1 266 1 view .LVU327
 1233 0068 38BD     		pop	{r3, r4, r5, pc}
 1234              	.L73:
 1235 006a 00BF     		.align	2
 1236              	.L72:
 1237 006c 00ED00E0 		.word	-536810240
 1238              		.cfi_endproc
 1239              	.LFE371:
 1240              		.size	USBH_LL_GetURBState, .-USBH_LL_GetURBState
 1241              		.section	.text.USBH_LL_SetToggle,"ax",%progbits
 1242              		.align	1
 1243              		.p2align 2,,3
 1244              		.global	USBH_LL_SetToggle
 1245              		.syntax unified
 1246              		.thumb
 1247              		.thumb_func
 1248              		.type	USBH_LL_SetToggle, %function
 1249              	USBH_LL_SetToggle:
 1250              	.LVL83:
 1251              	.LFB372:
 1252              		.loc 1 269 1 is_stmt 1 view -0
 1253              		.cfi_startproc
 1254              		@ args = 0, pretend = 0, frame = 0
ARM GAS  C:\Users\DEVELO~1\AppData\Local\Temp\cc49uNO6.s 			page 23


 1255              		@ frame_needed = 0, uses_anonymous_args = 0
 1256              		@ link register save eliminated.
 1257              		.loc 1 270 3 view .LVU329
 1258              		.loc 1 271 20 is_stmt 0 view .LVU330
 1259 0000 00EB810C 		add	ip, r0, r1, lsl #2
 1260              		.loc 1 270 22 view .LVU331
 1261 0004 D0F8F034 		ldr	r3, [r0, #1264]
 1262              	.LVL84:
 1263              		.loc 1 271 3 is_stmt 1 view .LVU332
 1264              		.loc 1 273 5 view .LVU333
 1265              		.loc 1 277 5 view .LVU334
 1266              		.loc 1 273 31 is_stmt 0 view .LVU335
 1267 0008 C1EB0111 		rsb	r1, r1, r1, lsl #4
 1268              	.LVL85:
 1269              		.loc 1 271 27 view .LVU336
 1270 000c DCF8A404 		ldr	r0, [ip, #1188]
 1271              	.LVL86:
 1272              		.loc 1 273 31 view .LVU337
 1273 0010 03EB8103 		add	r3, r3, r1, lsl #2
 1274              	.LVL87:
 1275              		.loc 1 271 6 view .LVU338
 1276 0014 0106     		lsls	r1, r0, #24
 1277              		.loc 1 280 1 view .LVU339
 1278 0016 4FF00000 		mov	r0, #0
 1279              		.loc 1 273 31 view .LVU340
 1280 001a 54BF     		ite	pl
 1281 001c 83F83D20 		strbpl	r2, [r3, #61]
 1282              	.LVL88:
 1283              		.loc 1 277 30 view .LVU341
 1284 0020 83F83C20 		strbmi	r2, [r3, #60]
 1285              		.loc 1 279 3 is_stmt 1 view .LVU342
 1286              		.loc 1 280 1 is_stmt 0 view .LVU343
 1287 0024 7047     		bx	lr
 1288              		.cfi_endproc
 1289              	.LFE372:
 1290              		.size	USBH_LL_SetToggle, .-USBH_LL_SetToggle
 1291 0026 00BF     		.section	.text.USBH_LL_GetToggle,"ax",%progbits
 1292              		.align	1
 1293              		.p2align 2,,3
 1294              		.global	USBH_LL_GetToggle
 1295              		.syntax unified
 1296              		.thumb
 1297              		.thumb_func
 1298              		.type	USBH_LL_GetToggle, %function
 1299              	USBH_LL_GetToggle:
 1300              	.LVL89:
 1301              	.LFB373:
 1302              		.loc 1 283 1 is_stmt 1 view -0
 1303              		.cfi_startproc
 1304              		@ args = 0, pretend = 0, frame = 0
 1305              		@ frame_needed = 0, uses_anonymous_args = 0
 1306              		@ link register save eliminated.
 1307              		.loc 1 284 3 view .LVU345
 1308              		.loc 1 285 20 is_stmt 0 view .LVU346
 1309 0000 00EB8102 		add	r2, r0, r1, lsl #2
 1310              		.loc 1 284 22 view .LVU347
 1311 0004 D0F8F034 		ldr	r3, [r0, #1264]
ARM GAS  C:\Users\DEVELO~1\AppData\Local\Temp\cc49uNO6.s 			page 24


 1312              	.LVL90:
 1313              		.loc 1 285 3 is_stmt 1 view .LVU348
 1314              		.loc 1 287 5 view .LVU349
 1315              		.loc 1 291 5 view .LVU350
 1316              		.loc 1 287 26 is_stmt 0 view .LVU351
 1317 0008 C1EB0111 		rsb	r1, r1, r1, lsl #4
 1318              	.LVL91:
 1319              		.loc 1 285 27 view .LVU352
 1320 000c D2F8A424 		ldr	r2, [r2, #1188]
 1321              		.loc 1 287 26 view .LVU353
 1322 0010 03EB8103 		add	r3, r3, r1, lsl #2
 1323              	.LVL92:
 1324              		.loc 1 285 6 view .LVU354
 1325 0014 1206     		lsls	r2, r2, #24
 1326              		.loc 1 287 26 view .LVU355
 1327 0016 54BF     		ite	pl
 1328 0018 93F83D00 		ldrbpl	r0, [r3, #61]	@ zero_extendqisi2
 1329              	.LVL93:
 1330              		.loc 1 291 26 view .LVU356
 1331 001c 93F83C00 		ldrbmi	r0, [r3, #60]	@ zero_extendqisi2
 1332              		.loc 1 293 1 view .LVU357
 1333 0020 7047     		bx	lr
 1334              		.cfi_endproc
 1335              	.LFE373:
 1336              		.size	USBH_LL_GetToggle, .-USBH_LL_GetToggle
 1337 0022 00BF     		.section	.text.HAL_HCD_SOF_Callback,"ax",%progbits
 1338              		.align	1
 1339              		.p2align 2,,3
 1340              		.global	HAL_HCD_SOF_Callback
 1341              		.syntax unified
 1342              		.thumb
 1343              		.thumb_func
 1344              		.type	HAL_HCD_SOF_Callback, %function
 1345              	HAL_HCD_SOF_Callback:
 1346              	.LVL94:
 1347              	.LFB374:
 1348              		.loc 1 296 1 is_stmt 1 view -0
 1349              		.cfi_startproc
 1350              		@ args = 0, pretend = 0, frame = 0
 1351              		@ frame_needed = 0, uses_anonymous_args = 0
 1352              		@ link register save eliminated.
 1353              		.loc 1 297 3 view .LVU359
 1354              		.loc 1 298 3 view .LVU360
 1355 0000 D0F8DC03 		ldr	r0, [r0, #988]
 1356              	.LVL95:
 1357              		.loc 1 298 3 is_stmt 0 view .LVU361
 1358 0004 FFF7FEBF 		b	USBH_LL_IncTimer
 1359              	.LVL96:
 1360              		.loc 1 298 3 view .LVU362
 1361              		.cfi_endproc
 1362              	.LFE374:
 1363              		.size	HAL_HCD_SOF_Callback, .-HAL_HCD_SOF_Callback
 1364              		.section	.text.HAL_HCD_Connect_Callback,"ax",%progbits
 1365              		.align	1
 1366              		.p2align 2,,3
 1367              		.global	HAL_HCD_Connect_Callback
 1368              		.syntax unified
ARM GAS  C:\Users\DEVELO~1\AppData\Local\Temp\cc49uNO6.s 			page 25


 1369              		.thumb
 1370              		.thumb_func
 1371              		.type	HAL_HCD_Connect_Callback, %function
 1372              	HAL_HCD_Connect_Callback:
 1373              	.LVL97:
 1374              	.LFB375:
 1375              		.loc 1 302 1 is_stmt 1 view -0
 1376              		.cfi_startproc
 1377              		@ args = 0, pretend = 0, frame = 0
 1378              		@ frame_needed = 0, uses_anonymous_args = 0
 1379              		@ link register save eliminated.
 1380              		.loc 1 303 3 view .LVU364
 1381              		.loc 1 304 3 view .LVU365
 1382 0000 D0F8DC03 		ldr	r0, [r0, #988]
 1383              	.LVL98:
 1384              		.loc 1 304 3 is_stmt 0 view .LVU366
 1385 0004 FFF7FEBF 		b	USBH_LL_Connect
 1386              	.LVL99:
 1387              		.loc 1 304 3 view .LVU367
 1388              		.cfi_endproc
 1389              	.LFE375:
 1390              		.size	HAL_HCD_Connect_Callback, .-HAL_HCD_Connect_Callback
 1391              		.section	.text.HAL_HCD_Disconnect_Callback,"ax",%progbits
 1392              		.align	1
 1393              		.p2align 2,,3
 1394              		.global	HAL_HCD_Disconnect_Callback
 1395              		.syntax unified
 1396              		.thumb
 1397              		.thumb_func
 1398              		.type	HAL_HCD_Disconnect_Callback, %function
 1399              	HAL_HCD_Disconnect_Callback:
 1400              	.LVL100:
 1401              	.LFB376:
 1402              		.loc 1 308 1 is_stmt 1 view -0
 1403              		.cfi_startproc
 1404              		@ args = 0, pretend = 0, frame = 0
 1405              		@ frame_needed = 0, uses_anonymous_args = 0
 1406              		@ link register save eliminated.
 1407              		.loc 1 309 3 view .LVU369
 1408              		.loc 1 310 3 view .LVU370
 1409 0000 D0F8DC03 		ldr	r0, [r0, #988]
 1410              	.LVL101:
 1411              		.loc 1 310 3 is_stmt 0 view .LVU371
 1412 0004 FFF7FEBF 		b	USBH_LL_Disconnect
 1413              	.LVL102:
 1414              		.loc 1 310 3 view .LVU372
 1415              		.cfi_endproc
 1416              	.LFE376:
 1417              		.size	HAL_HCD_Disconnect_Callback, .-HAL_HCD_Disconnect_Callback
 1418              		.section	.text.HAL_HCD_PortEnabled_Callback,"ax",%progbits
 1419              		.align	1
 1420              		.p2align 2,,3
 1421              		.global	HAL_HCD_PortEnabled_Callback
 1422              		.syntax unified
 1423              		.thumb
 1424              		.thumb_func
 1425              		.type	HAL_HCD_PortEnabled_Callback, %function
ARM GAS  C:\Users\DEVELO~1\AppData\Local\Temp\cc49uNO6.s 			page 26


 1426              	HAL_HCD_PortEnabled_Callback:
 1427              	.LVL103:
 1428              	.LFB377:
 1429              		.loc 1 314 1 is_stmt 1 view -0
 1430              		.cfi_startproc
 1431              		@ args = 0, pretend = 0, frame = 0
 1432              		@ frame_needed = 0, uses_anonymous_args = 0
 1433              		@ link register save eliminated.
 1434              		.loc 1 315 3 view .LVU374
 1435              		.loc 1 316 3 view .LVU375
 1436 0000 D0F8DC03 		ldr	r0, [r0, #988]
 1437              	.LVL104:
 1438              		.loc 1 316 3 is_stmt 0 view .LVU376
 1439 0004 FFF7FEBF 		b	USBH_LL_PortEnabled
 1440              	.LVL105:
 1441              		.loc 1 316 3 view .LVU377
 1442              		.cfi_endproc
 1443              	.LFE377:
 1444              		.size	HAL_HCD_PortEnabled_Callback, .-HAL_HCD_PortEnabled_Callback
 1445              		.section	.text.HAL_HCD_PortDisabled_Callback,"ax",%progbits
 1446              		.align	1
 1447              		.p2align 2,,3
 1448              		.global	HAL_HCD_PortDisabled_Callback
 1449              		.syntax unified
 1450              		.thumb
 1451              		.thumb_func
 1452              		.type	HAL_HCD_PortDisabled_Callback, %function
 1453              	HAL_HCD_PortDisabled_Callback:
 1454              	.LVL106:
 1455              	.LFB378:
 1456              		.loc 1 320 1 is_stmt 1 view -0
 1457              		.cfi_startproc
 1458              		@ args = 0, pretend = 0, frame = 0
 1459              		@ frame_needed = 0, uses_anonymous_args = 0
 1460              		@ link register save eliminated.
 1461              		.loc 1 321 3 view .LVU379
 1462              		.loc 1 322 3 view .LVU380
 1463 0000 D0F8DC03 		ldr	r0, [r0, #988]
 1464              	.LVL107:
 1465              		.loc 1 322 3 is_stmt 0 view .LVU381
 1466 0004 FFF7FEBF 		b	USBH_LL_PortDisabled
 1467              	.LVL108:
 1468              		.loc 1 322 3 view .LVU382
 1469              		.cfi_endproc
 1470              	.LFE378:
 1471              		.size	HAL_HCD_PortDisabled_Callback, .-HAL_HCD_PortDisabled_Callback
 1472              		.section	.text.OTG_FS_IRQHandler,"ax",%progbits
 1473              		.align	1
 1474              		.p2align 2,,3
 1475              		.global	OTG_FS_IRQHandler
 1476              		.syntax unified
 1477              		.thumb
 1478              		.thumb_func
 1479              		.type	OTG_FS_IRQHandler, %function
 1480              	OTG_FS_IRQHandler:
 1481              	.LFB379:
 1482              		.loc 1 326 1 is_stmt 1 view -0
ARM GAS  C:\Users\DEVELO~1\AppData\Local\Temp\cc49uNO6.s 			page 27


 1483              		.cfi_startproc
 1484              		@ args = 0, pretend = 0, frame = 0
 1485              		@ frame_needed = 0, uses_anonymous_args = 0
 1486              		@ link register save eliminated.
 1487              		.loc 1 327 3 view .LVU384
 1488 0000 0148     		ldr	r0, .L86
 1489 0002 FFF7FEBF 		b	HAL_HCD_IRQHandler
 1490              	.LVL109:
 1491              	.L87:
 1492 0006 00BF     		.align	2
 1493              	.L86:
 1494 0008 00000000 		.word	.LANCHOR0
 1495              		.cfi_endproc
 1496              	.LFE379:
 1497              		.size	OTG_FS_IRQHandler, .-OTG_FS_IRQHandler
 1498              		.global	__aeabi_uldivmod
 1499              		.global	__aeabi_ldivmod
 1500              		.section	.text.USBH_Delay,"ax",%progbits
 1501              		.align	1
 1502              		.p2align 2,,3
 1503              		.global	USBH_Delay
 1504              		.syntax unified
 1505              		.thumb
 1506              		.thumb_func
 1507              		.type	USBH_Delay, %function
 1508              	USBH_Delay:
 1509              	.LVL110:
 1510              	.LFB380:
 1511              		.loc 1 331 1 view -0
 1512              		.cfi_startproc
 1513              		@ args = 0, pretend = 0, frame = 0
 1514              		@ frame_needed = 0, uses_anonymous_args = 0
 1515              		.loc 1 332 3 view .LVU386
 1516              		.loc 1 331 1 is_stmt 0 view .LVU387
 1517 0000 08B5     		push	{r3, lr}
 1518              		.cfi_def_cfa_offset 8
 1519              		.cfi_offset 3, -8
 1520              		.cfi_offset 14, -4
 1521              		.loc 1 332 3 view .LVU388
 1522 0002 42F21072 		movw	r2, #10000
 1523 0006 40F2E733 		movw	r3, #999
 1524 000a 0021     		movs	r1, #0
 1525 000c E0FB0231 		umlal	r3, r1, r0, r2
 1526 0010 4FF47A72 		mov	r2, #1000
 1527 0014 1846     		mov	r0, r3
 1528              	.LVL111:
 1529              		.loc 1 332 3 view .LVU389
 1530 0016 0023     		movs	r3, #0
 1531 0018 FFF7FEFF 		bl	__aeabi_uldivmod
 1532              	.LVL112:
 1533              		.loc 1 333 1 view .LVU390
 1534 001c BDE80840 		pop	{r3, lr}
 1535              		.cfi_restore 14
 1536              		.cfi_restore 3
 1537              		.cfi_def_cfa_offset 0
 1538              		.loc 1 332 3 view .LVU391
 1539 0020 FFF7FEBF 		b	chThdSleep
ARM GAS  C:\Users\DEVELO~1\AppData\Local\Temp\cc49uNO6.s 			page 28


 1540              	.LVL113:
 1541              		.cfi_endproc
 1542              	.LFE380:
 1543              		.size	USBH_Delay, .-USBH_Delay
 1544              		.section	.text.usbh_platform_get_reset_count,"ax",%progbits
 1545              		.align	1
 1546              		.p2align 2,,3
 1547              		.global	usbh_platform_get_reset_count
 1548              		.syntax unified
 1549              		.thumb
 1550              		.thumb_func
 1551              		.type	usbh_platform_get_reset_count, %function
 1552              	usbh_platform_get_reset_count:
 1553              	.LFB381:
 1554              		.loc 1 336 1 is_stmt 1 view -0
 1555              		.cfi_startproc
 1556              		@ args = 0, pretend = 0, frame = 0
 1557              		@ frame_needed = 0, uses_anonymous_args = 0
 1558              		@ link register save eliminated.
 1559              		.loc 1 337 3 view .LVU393
 1560              		.loc 1 337 10 is_stmt 0 view .LVU394
 1561 0000 014B     		ldr	r3, .L91
 1562 0002 1868     		ldr	r0, [r3]
 1563              		.loc 1 338 1 view .LVU395
 1564 0004 7047     		bx	lr
 1565              	.L92:
 1566 0006 00BF     		.align	2
 1567              	.L91:
 1568 0008 00000000 		.word	.LANCHOR1
 1569              		.cfi_endproc
 1570              	.LFE381:
 1571              		.size	usbh_platform_get_reset_count, .-usbh_platform_get_reset_count
 1572              		.section	.bss.hhcd_USB_OTG_FS,"aw",%nobits
 1573              		.align	2
 1574              		.set	.LANCHOR0,. + 0
 1575              		.type	hhcd_USB_OTG_FS, %object
 1576              		.size	hhcd_USB_OTG_FS, 992
 1577              	hhcd_USB_OTG_FS:
 1578 0000 00000000 		.space	992
 1578      00000000 
 1578      00000000 
 1578      00000000 
 1578      00000000 
 1579              		.section	.bss.port_reset_count,"aw",%nobits
 1580              		.align	2
 1581              		.set	.LANCHOR1,. + 0
 1582              		.type	port_reset_count, %object
 1583              		.size	port_reset_count, 4
 1584              	port_reset_count:
 1585 0000 00000000 		.space	4
 1586              		.text
 1587              	.Letext0:
 1588              		.file 4 "c:\\chibistudio\\tools\\gnu tools arm embedded\\11.3 2022.08\\arm-none-eabi\\include\\mac
 1589              		.file 5 "c:\\chibistudio\\tools\\gnu tools arm embedded\\11.3 2022.08\\arm-none-eabi\\include\\sys
 1590              		.file 6 "../../../os/rt/include/chtime.h"
 1591              		.file 7 "../../../os/common/ext/ST/STM32H7xx/stm32h743xx.h"
 1592              		.file 8 "../../../os/common/ext/ST/STM32H7xx/stm32h7xx.h"
ARM GAS  C:\Users\DEVELO~1\AppData\Local\Temp\cc49uNO6.s 			page 29


 1593              		.file 9 "./drivers/stm32h7xx-hal-driver/Inc/stm32h7xx_hal_def.h"
 1594              		.file 10 "./drivers/stm32h7xx-hal-driver/Inc/stm32h7xx_hal_gpio.h"
 1595              		.file 11 "./drivers/stm32h7xx-hal-driver/Inc/stm32h7xx_ll_usb.h"
 1596              		.file 12 "./drivers/stm32h7xx-hal-driver/Inc/stm32h7xx_hal_hcd.h"
 1597              		.file 13 "./usb_host/stm32-mw-usb-host-master/stm32-mw-usb-host-master/Core/Inc/usbh_def.h"
 1598              		.file 14 "./usb_host/stm32-mw-usb-host-master/stm32-mw-usb-host-master/Core/Inc/usbh_core.h"
 1599              		.file 15 "../../../os/rt/include/chthreads.h"
 1600              		.file 16 "./drivers/stm32h7xx-hal-driver/Inc/stm32h7xx_hal_cortex.h"
 1601              		.file 17 "./drivers/stm32h7xx-hal-driver/Inc/stm32h7xx_hal_pwr_ex.h"